; Listing generated by Microsoft (R) Optimizing Compiler Version 19.32.31329.0 

include listing.inc

INCLUDELIB MSVCRTD

PUBLIC	??_H@YAXPEAX_K1P6APEAX0@Z@Z			; `vector constructor iterator'
PUBLIC	??$abs@M@glm@@YAMM@Z				; glm::abs<float>
PUBLIC	?test_affine@@YAHXZ				; test_affine
PUBLIC	?length@?$tvec3@M$0A@@glm@@SAHXZ		; glm::tvec3<float,0>::length
PUBLIC	??A?$tvec3@M$0A@@glm@@QEAAAEAMH@Z		; glm::tvec3<float,0>::operator[]
PUBLIC	??A?$tvec3@M$0A@@glm@@QEBAAEBMH@Z		; glm::tvec3<float,0>::operator[]
PUBLIC	??0?$tvec3@M$0A@@glm@@QEAA@XZ			; glm::tvec3<float,0>::tvec3<float,0>
PUBLIC	??0?$tvec3@M$0A@@glm@@QEAA@M@Z			; glm::tvec3<float,0>::tvec3<float,0>
PUBLIC	??0?$tvec3@M$0A@@glm@@QEAA@MMM@Z		; glm::tvec3<float,0>::tvec3<float,0>
PUBLIC	??0?$tmat3x3@M$0A@@glm@@QEAA@W4ctor@1@@Z	; glm::tmat3x3<float,0>::tmat3x3<float,0>
PUBLIC	??0?$tmat3x3@M$0A@@glm@@QEAA@MMMMMMMMM@Z	; glm::tmat3x3<float,0>::tmat3x3<float,0>
PUBLIC	??0?$tmat3x3@M$0A@@glm@@QEAA@AEBU?$tvec3@M$0A@@1@00@Z ; glm::tmat3x3<float,0>::tmat3x3<float,0>
PUBLIC	??0?$tmat3x3@M$0A@@glm@@QEAA@AEBU?$tmat4x4@M$0A@@1@@Z ; glm::tmat3x3<float,0>::tmat3x3<float,0>
PUBLIC	?length@?$tmat3x3@M$0A@@glm@@SAHXZ		; glm::tmat3x3<float,0>::length
PUBLIC	??A?$tmat3x3@M$0A@@glm@@QEAAAEAU?$tvec3@M$0A@@1@H@Z ; glm::tmat3x3<float,0>::operator[]
PUBLIC	??A?$tmat3x3@M$0A@@glm@@QEBAAEBU?$tvec3@M$0A@@1@H@Z ; glm::tmat3x3<float,0>::operator[]
PUBLIC	??$affineInverse@M$0A@@glm@@YA?AU?$tmat3x3@M$0A@@0@AEBU10@@Z ; glm::affineInverse<float,0>
PUBLIC	??$inverse@M$0A@Utmat3x3@glm@@@glm@@YA?AU?$tmat3x3@M$0A@@0@AEBU10@@Z ; glm::inverse<float,0,glm::tmat3x3>
PUBLIC	??$epsilonEqual@M$0A@Utvec3@glm@@@glm@@YA?AU?$tvec3@_N$0A@@0@AEBU?$tvec3@M$0A@@0@0AEBM@Z ; glm::epsilonEqual<float,0,glm::tvec3>
PUBLIC	?length@?$tvec3@_N$0A@@glm@@SAHXZ		; glm::tvec3<bool,0>::length
PUBLIC	??A?$tvec3@_N$0A@@glm@@QEAAAEA_NH@Z		; glm::tvec3<bool,0>::operator[]
PUBLIC	??A?$tvec3@_N$0A@@glm@@QEBAAEB_NH@Z		; glm::tvec3<bool,0>::operator[]
PUBLIC	??0?$tvec3@_N$0A@@glm@@QEAA@W4ctor@1@@Z		; glm::tvec3<bool,0>::tvec3<bool,0>
PUBLIC	??$all@$0A@Utvec3@glm@@@glm@@YA_NAEBU?$tvec3@_N$0A@@0@@Z ; glm::all<0,glm::tvec3>
PUBLIC	?length@?$tvec4@M$0A@@glm@@SAHXZ		; glm::tvec4<float,0>::length
PUBLIC	??A?$tvec4@M$0A@@glm@@QEAAAEAMH@Z		; glm::tvec4<float,0>::operator[]
PUBLIC	??A?$tvec4@M$0A@@glm@@QEBAAEBMH@Z		; glm::tvec4<float,0>::operator[]
PUBLIC	??0?$tvec4@M$0A@@glm@@QEAA@XZ			; glm::tvec4<float,0>::tvec4<float,0>
PUBLIC	??0?$tvec4@M$0A@@glm@@QEAA@M@Z			; glm::tvec4<float,0>::tvec4<float,0>
PUBLIC	??0?$tvec4@M$0A@@glm@@QEAA@MMMM@Z		; glm::tvec4<float,0>::tvec4<float,0>
PUBLIC	??0?$tmat4x4@M$0A@@glm@@QEAA@AEBM000000000000000@Z ; glm::tmat4x4<float,0>::tmat4x4<float,0>
PUBLIC	??0?$tmat4x4@M$0A@@glm@@QEAA@AEBU?$tvec4@M$0A@@1@000@Z ; glm::tmat4x4<float,0>::tmat4x4<float,0>
PUBLIC	?length@?$tmat4x4@M$0A@@glm@@SAHXZ		; glm::tmat4x4<float,0>::length
PUBLIC	??A?$tmat4x4@M$0A@@glm@@QEAAAEAU?$tvec4@M$0A@@1@H@Z ; glm::tmat4x4<float,0>::operator[]
PUBLIC	??A?$tmat4x4@M$0A@@glm@@QEBAAEBU?$tvec4@M$0A@@1@H@Z ; glm::tmat4x4<float,0>::operator[]
PUBLIC	??$affineInverse@M$0A@@glm@@YA?AU?$tmat4x4@M$0A@@0@AEBU10@@Z ; glm::affineInverse<float,0>
PUBLIC	??$inverse@M$0A@Utmat4x4@glm@@@glm@@YA?AU?$tmat4x4@M$0A@@0@AEBU10@@Z ; glm::inverse<float,0,glm::tmat4x4>
PUBLIC	??$epsilonEqual@M$0A@Utvec4@glm@@@glm@@YA?AU?$tvec4@_N$0A@@0@AEBU?$tvec4@M$0A@@0@0AEBM@Z ; glm::epsilonEqual<float,0,glm::tvec4>
PUBLIC	?length@?$tvec4@_N$0A@@glm@@SAHXZ		; glm::tvec4<bool,0>::length
PUBLIC	??A?$tvec4@_N$0A@@glm@@QEAAAEA_NH@Z		; glm::tvec4<bool,0>::operator[]
PUBLIC	??A?$tvec4@_N$0A@@glm@@QEBAAEB_NH@Z		; glm::tvec4<bool,0>::operator[]
PUBLIC	??0?$tvec4@_N$0A@@glm@@QEAA@W4ctor@1@@Z		; glm::tvec4<bool,0>::tvec4<bool,0>
PUBLIC	??$all@$0A@Utvec4@glm@@@glm@@YA_NAEBU?$tvec4@_N$0A@@0@@Z ; glm::all<0,glm::tvec4>
PUBLIC	main
PUBLIC	?call@?$compute_abs@M$00@detail@glm@@SAMM@Z	; glm::detail::compute_abs<float,1>::call
PUBLIC	?length@?$tvec2@M$0A@@glm@@SAHXZ		; glm::tvec2<float,0>::length
PUBLIC	??A?$tvec2@M$0A@@glm@@QEBAAEBMH@Z		; glm::tvec2<float,0>::operator[]
PUBLIC	??0?$tvec2@M$0A@@glm@@QEAA@XZ			; glm::tvec2<float,0>::tvec2<float,0>
PUBLIC	??0?$tvec2@M$0A@@glm@@QEAA@MM@Z			; glm::tvec2<float,0>::tvec2<float,0>
PUBLIC	??0?$tmat2x2@M$0A@@glm@@QEAA@AEBM000@Z		; glm::tmat2x2<float,0>::tmat2x2<float,0>
PUBLIC	??0?$tmat2x2@M$0A@@glm@@QEAA@AEBU?$tvec2@M$0A@@1@0@Z ; glm::tmat2x2<float,0>::tmat2x2<float,0>
PUBLIC	??0?$tmat2x2@M$0A@@glm@@QEAA@AEBU?$tmat3x3@M$0A@@1@@Z ; glm::tmat2x2<float,0>::tmat2x2<float,0>
PUBLIC	?length@?$tmat2x2@M$0A@@glm@@SAHXZ		; glm::tmat2x2<float,0>::length
PUBLIC	??A?$tmat2x2@M$0A@@glm@@QEBAAEBU?$tvec2@M$0A@@1@H@Z ; glm::tmat2x2<float,0>::operator[]
PUBLIC	??$inverse@M$0A@Utmat2x2@glm@@@glm@@YA?AU?$tmat2x2@M$0A@@0@AEBU10@@Z ; glm::inverse<float,0,glm::tmat2x2>
PUBLIC	??$?0MM$0A@@?$tvec3@M$0A@@glm@@QEAA@AEBU?$tvec2@M$0A@@1@M@Z ; glm::tvec3<float,0>::tvec3<float,0><float,float,0>
PUBLIC	??$?GM$0A@@glm@@YA?AU?$tmat2x2@M$0A@@0@AEBU10@@Z ; glm::operator-<float,0>
PUBLIC	??$?0M$0A@@?$tvec2@M$0A@@glm@@QEAA@AEBU?$tvec3@M$0A@@1@@Z ; glm::tvec2<float,0>::tvec2<float,0><float,0>
PUBLIC	??$?DM$0A@@glm@@YA?AU?$tvec2@M$0A@@0@AEBU?$tmat2x2@M$0A@@0@AEBU10@@Z ; glm::operator*<float,0>
PUBLIC	?call@?$compute_inverse@Utmat3x3@glm@@M$0A@$0A@@detail@glm@@SA?AU?$tmat3x3@M$0A@@3@AEBU43@@Z ; glm::detail::compute_inverse<glm::tmat3x3,float,0,0>::call
PUBLIC	??$?GM$0A@@glm@@YA?AU?$tvec3@M$0A@@0@AEBU10@0@Z	; glm::operator-<float,0>
PUBLIC	??$abs@M$0A@Utvec3@glm@@@glm@@YA?AU?$tvec3@M$0A@@0@AEBU10@@Z ; glm::abs<float,0,glm::tvec3>
PUBLIC	??$lessThan@M$0A@Utvec3@glm@@@glm@@YA?AU?$tvec3@_N$0A@@0@AEBU?$tvec3@M$0A@@0@0@Z ; glm::lessThan<float,0,glm::tvec3>
PUBLIC	??$?0MM$0A@@?$tvec4@M$0A@@glm@@QEAA@AEBU?$tvec3@M$0A@@1@M@Z ; glm::tvec4<float,0>::tvec4<float,0><float,float,0>
PUBLIC	??$?GM$0A@@glm@@YA?AU?$tmat3x3@M$0A@@0@AEBU10@@Z ; glm::operator-<float,0>
PUBLIC	??$?0M$0A@@?$tvec3@M$0A@@glm@@QEAA@AEBU?$tvec4@M$0A@@1@@Z ; glm::tvec3<float,0>::tvec3<float,0><float,0>
PUBLIC	??$?DM$0A@@glm@@YA?AU?$tvec3@M$0A@@0@AEBU?$tmat3x3@M$0A@@0@AEBU10@@Z ; glm::operator*<float,0>
PUBLIC	?call@?$compute_inverse@Utmat4x4@glm@@M$0A@$0A@@detail@glm@@SA?AU?$tmat4x4@M$0A@@3@AEBU43@@Z ; glm::detail::compute_inverse<glm::tmat4x4,float,0,0>::call
PUBLIC	??$?GM$0A@@glm@@YA?AU?$tvec4@M$0A@@0@AEBU10@0@Z	; glm::operator-<float,0>
PUBLIC	??$abs@M$0A@Utvec4@glm@@@glm@@YA?AU?$tvec4@M$0A@@0@AEBU10@@Z ; glm::abs<float,0,glm::tvec4>
PUBLIC	??$lessThan@M$0A@Utvec4@glm@@@glm@@YA?AU?$tvec4@_N$0A@@0@AEBU?$tvec4@M$0A@@0@0@Z ; glm::lessThan<float,0,glm::tvec4>
PUBLIC	??$?DM$0A@@glm@@YA?AU?$tvec4@M$0A@@0@AEBU10@0@Z	; glm::operator*<float,0>
PUBLIC	??$?HM$0A@@glm@@YA?AU?$tvec4@M$0A@@0@AEBU10@0@Z	; glm::operator+<float,0>
PUBLIC	??$?0HHHH@?$tvec4@M$0A@@glm@@QEAA@HHHH@Z	; glm::tvec4<float,0>::tvec4<float,0><int,int,int,int>
PUBLIC	??$?DM$0A@@glm@@YA?AU?$tmat4x4@M$0A@@0@AEBU10@AEBM@Z ; glm::operator*<float,0>
PUBLIC	?call@?$compute_inverse@Utmat2x2@glm@@M$0A@$0A@@detail@glm@@SA?AU?$tmat2x2@M$0A@@3@AEBU43@@Z ; glm::detail::compute_inverse<glm::tmat2x2,float,0,0>::call
PUBLIC	??$?GM$0A@@glm@@YA?AU?$tvec2@M$0A@@0@AEBU10@@Z	; glm::operator-<float,0>
PUBLIC	?call@?$compute_abs_vector@M$0A@Utvec3@glm@@$0A@@detail@glm@@SA?AU?$tvec3@M$0A@@3@AEBU43@@Z ; glm::detail::compute_abs_vector<float,0,glm::tvec3,0>::call
PUBLIC	??$?GM$0A@@glm@@YA?AU?$tvec3@M$0A@@0@AEBU10@@Z	; glm::operator-<float,0>
PUBLIC	??$?ZM@?$tvec4@M$0A@@glm@@QEAAAEAU01@AEBU01@@Z	; glm::tvec4<float,0>::operator-=<float>
PUBLIC	?call@?$compute_abs_vector@M$0A@Utvec4@glm@@$0A@@detail@glm@@SA?AU?$tvec4@M$0A@@3@AEBU43@@Z ; glm::detail::compute_abs_vector<float,0,glm::tvec4,0>::call
PUBLIC	??$?XM@?$tvec4@M$0A@@glm@@QEAAAEAU01@AEBU01@@Z	; glm::tvec4<float,0>::operator*=<float>
PUBLIC	??$?YM@?$tvec4@M$0A@@glm@@QEAAAEAU01@AEBU01@@Z	; glm::tvec4<float,0>::operator+=<float>
PUBLIC	??$?DM$0A@@glm@@YA?AU?$tvec4@M$0A@@0@AEBU10@M@Z	; glm::operator*<float,0>
PUBLIC	?call@?$functor1@MM$0A@Utvec4@glm@@@detail@glm@@SA?AU?$tvec4@M$0A@@3@P6AMM@ZAEBU43@@Z ; glm::detail::functor1<float,float,0,glm::tvec4>::call
PUBLIC	?call@?$functor1@MM$0A@Utvec3@glm@@@detail@glm@@SA?AU?$tvec3@M$0A@@3@P6AMM@ZAEBU43@@Z ; glm::detail::functor1<float,float,0,glm::tvec3>::call
PUBLIC	?call@?$compute_vec4_sub@M$0A@$0A@@detail@glm@@SA?AU?$tvec4@M$0A@@3@AEBU43@0@Z ; glm::detail::compute_vec4_sub<float,0,0>::call
PUBLIC	?call@?$compute_vec4_mul@M$0A@$0A@@detail@glm@@SA?AU?$tvec4@M$0A@@3@AEBU43@0@Z ; glm::detail::compute_vec4_mul<float,0,0>::call
PUBLIC	?call@?$compute_vec4_add@M$0A@$0A@@detail@glm@@SA?AU?$tvec4@M$0A@@3@AEBU43@0@Z ; glm::detail::compute_vec4_add<float,0,0>::call
PUBLIC	??$?XM@?$tvec4@M$0A@@glm@@QEAAAEAU01@M@Z	; glm::tvec4<float,0>::operator*=<float>
PUBLIC	??_C@_1LK@JJJMOBEL@?$AAC?$AA?3?$AA?2?$AAU?$AAs?$AAe?$AAr?$AAs?$AA?2?$AAk?$AAs?$AAa?$AAr?$AAt?$AA?2@ ; `string'
PUBLIC	??_C@_1CG@KOFHLCJL@?$AAi?$AA?5?$AA?$DM?$AA?5?$AAt?$AAh?$AAi?$AAs?$AA?9?$AA?$DO?$AAl?$AAe?$AAn?$AAg?$AAt@ ; `string'
PUBLIC	??_C@_1LK@BAPNPALB@?$AAC?$AA?3?$AA?2?$AAU?$AAs?$AAe?$AAr?$AAs?$AA?2?$AAk?$AAs?$AAa?$AAr?$AAt?$AA?2@ ; `string'
PUBLIC	??_C@_1LK@KMFBDMLF@?$AAC?$AA?3?$AA?2?$AAU?$AAs?$AAe?$AAr?$AAs?$AA?2?$AAk?$AAs?$AAa?$AAr?$AAt?$AA?2@ ; `string'
PUBLIC	??_C@_1LG@MEJFBKPC@?$AAC?$AA?3?$AA?2?$AAU?$AAs?$AAe?$AAr?$AAs?$AA?2?$AAk?$AAs?$AAa?$AAr?$AAt?$AA?2@ ; `string'
PUBLIC	??_C@_1DK@BGNCJAPL@?$AAi?$AA?5?$AA?$DO?$AA?$DN?$AA?5?$AA0?$AA?5?$AA?$CG?$AA?$CG?$AA?5?$AAi?$AA?5?$AA?$DM?$AA?5?$AAt@ ; `string'
PUBLIC	??_C@_1LG@LAANPDHN@?$AAC?$AA?3?$AA?2?$AAU?$AAs?$AAe?$AAr?$AAs?$AA?2?$AAk?$AAs?$AAa?$AAr?$AAt?$AA?2@ ; `string'
PUBLIC	??_C@_1NA@OPABFNEN@?$AAC?$AA?3?$AA?2?$AAU?$AAs?$AAe?$AAr?$AAs?$AA?2?$AAk?$AAs?$AAa?$AAr?$AAt?$AA?2@ ; `string'
PUBLIC	??_C@_1DC@HHLCGOLC@?$AAx?$AA?4?$AAl?$AAe?$AAn?$AAg?$AAt?$AAh?$AA?$CI?$AA?$CJ?$AA?5?$AA?$DN?$AA?$DN?$AA?5?$AAy@ ; `string'
PUBLIC	??_C@_1LG@FPDAFGJN@?$AAC?$AA?3?$AA?2?$AAU?$AAs?$AAe?$AAr?$AAs?$AA?2?$AAk?$AAs?$AAa?$AAr?$AAt?$AA?2@ ; `string'
PUBLIC	__real@00000000
PUBLIC	__real@3c23d70a
PUBLIC	__real@3f800000
PUBLIC	__real@40000000
PUBLIC	__xmm@80000000800000008000000080000000
EXTRN	__imp__wassert:PROC
EXTRN	_RTC_CheckStackVars:PROC
EXTRN	_RTC_InitBase:PROC
EXTRN	_RTC_Shutdown:PROC
EXTRN	__GSHandlerCheck:PROC
EXTRN	__security_check_cookie:PROC
EXTRN	__security_cookie:QWORD
EXTRN	_fltused:DWORD
;	COMDAT pdata
pdata	SEGMENT
$pdata$??_H@YAXPEAX_K1P6APEAX0@Z@Z DD imagerel $LN7
	DD	imagerel $LN7+119
	DD	imagerel $unwind$??_H@YAXPEAX_K1P6APEAX0@Z@Z
pdata	ENDS
;	COMDAT pdata
pdata	SEGMENT
$pdata$??$abs@M@glm@@YAMM@Z DD imagerel $LN3
	DD	imagerel $LN3+28
	DD	imagerel $unwind$??$abs@M@glm@@YAMM@Z
pdata	ENDS
pdata	SEGMENT
$pdata$?test_affine@@YAHXZ DD imagerel $LN17
	DD	imagerel $LN17+1507
	DD	imagerel $unwind$?test_affine@@YAHXZ
pdata	ENDS
;	COMDAT pdata
pdata	SEGMENT
$pdata$?length@?$tvec3@M$0A@@glm@@SAHXZ DD imagerel $LN3
	DD	imagerel $LN3+9
	DD	imagerel $unwind$?length@?$tvec3@M$0A@@glm@@SAHXZ
pdata	ENDS
;	COMDAT pdata
pdata	SEGMENT
$pdata$??A?$tvec3@M$0A@@glm@@QEAAAEAMH@Z DD imagerel $LN5
	DD	imagerel $LN5+80
	DD	imagerel $unwind$??A?$tvec3@M$0A@@glm@@QEAAAEAMH@Z
pdata	ENDS
;	COMDAT pdata
pdata	SEGMENT
$pdata$??A?$tvec3@M$0A@@glm@@QEBAAEBMH@Z DD imagerel $LN5
	DD	imagerel $LN5+80
	DD	imagerel $unwind$??A?$tvec3@M$0A@@glm@@QEBAAEBMH@Z
pdata	ENDS
;	COMDAT pdata
pdata	SEGMENT
$pdata$??0?$tvec3@M$0A@@glm@@QEAA@XZ DD imagerel $LN3
	DD	imagerel $LN3+51
	DD	imagerel $unwind$??0?$tvec3@M$0A@@glm@@QEAA@XZ
pdata	ENDS
;	COMDAT pdata
pdata	SEGMENT
$pdata$??0?$tvec3@M$0A@@glm@@QEAA@M@Z DD imagerel $LN3
	DD	imagerel $LN3+66
	DD	imagerel $unwind$??0?$tvec3@M$0A@@glm@@QEAA@M@Z
pdata	ENDS
;	COMDAT pdata
pdata	SEGMENT
$pdata$??0?$tvec3@M$0A@@glm@@QEAA@MMM@Z DD imagerel $LN3
	DD	imagerel $LN3+78
	DD	imagerel $unwind$??0?$tvec3@M$0A@@glm@@QEAA@MMM@Z
pdata	ENDS
;	COMDAT pdata
pdata	SEGMENT
$pdata$??0?$tmat3x3@M$0A@@glm@@QEAA@W4ctor@1@@Z DD imagerel $LN3
	DD	imagerel $LN3+56
	DD	imagerel $unwind$??0?$tmat3x3@M$0A@@glm@@QEAA@W4ctor@1@@Z
pdata	ENDS
;	COMDAT pdata
pdata	SEGMENT
$pdata$??0?$tmat3x3@M$0A@@glm@@QEAA@MMMMMMMMM@Z DD imagerel $LN3
	DD	imagerel $LN3+264
	DD	imagerel $unwind$??0?$tmat3x3@M$0A@@glm@@QEAA@MMMMMMMMM@Z
pdata	ENDS
;	COMDAT pdata
pdata	SEGMENT
$pdata$??0?$tmat3x3@M$0A@@glm@@QEAA@AEBU?$tvec3@M$0A@@1@00@Z DD imagerel $LN3
	DD	imagerel $LN3+159
	DD	imagerel $unwind$??0?$tmat3x3@M$0A@@glm@@QEAA@AEBU?$tvec3@M$0A@@1@00@Z
pdata	ENDS
;	COMDAT pdata
pdata	SEGMENT
$pdata$??0?$tmat3x3@M$0A@@glm@@QEAA@AEBU?$tmat4x4@M$0A@@1@@Z DD imagerel $LN3
	DD	imagerel $LN3+224
	DD	imagerel $unwind$??0?$tmat3x3@M$0A@@glm@@QEAA@AEBU?$tmat4x4@M$0A@@1@@Z
pdata	ENDS
;	COMDAT pdata
pdata	SEGMENT
$pdata$?length@?$tmat3x3@M$0A@@glm@@SAHXZ DD imagerel $LN3
	DD	imagerel $LN3+9
	DD	imagerel $unwind$?length@?$tmat3x3@M$0A@@glm@@SAHXZ
pdata	ENDS
;	COMDAT pdata
pdata	SEGMENT
$pdata$??A?$tmat3x3@M$0A@@glm@@QEAAAEAU?$tvec3@M$0A@@1@H@Z DD imagerel $LN4
	DD	imagerel $LN4+79
	DD	imagerel $unwind$??A?$tmat3x3@M$0A@@glm@@QEAAAEAU?$tvec3@M$0A@@1@H@Z
pdata	ENDS
;	COMDAT pdata
pdata	SEGMENT
$pdata$??A?$tmat3x3@M$0A@@glm@@QEBAAEBU?$tvec3@M$0A@@1@H@Z DD imagerel $LN4
	DD	imagerel $LN4+79
	DD	imagerel $unwind$??A?$tmat3x3@M$0A@@glm@@QEBAAEBU?$tvec3@M$0A@@1@H@Z
pdata	ENDS
;	COMDAT pdata
pdata	SEGMENT
$pdata$??$affineInverse@M$0A@@glm@@YA?AU?$tmat3x3@M$0A@@0@AEBU10@@Z DD imagerel $LN3
	DD	imagerel $LN3+367
	DD	imagerel $unwind$??$affineInverse@M$0A@@glm@@YA?AU?$tmat3x3@M$0A@@0@AEBU10@@Z
pdata	ENDS
;	COMDAT pdata
pdata	SEGMENT
$pdata$??$inverse@M$0A@Utmat3x3@glm@@@glm@@YA?AU?$tmat3x3@M$0A@@0@AEBU10@@Z DD imagerel $LN3
	DD	imagerel $LN3+41
	DD	imagerel $unwind$??$inverse@M$0A@Utmat3x3@glm@@@glm@@YA?AU?$tmat3x3@M$0A@@0@AEBU10@@Z
pdata	ENDS
;	COMDAT pdata
pdata	SEGMENT
$pdata$??$epsilonEqual@M$0A@Utvec3@glm@@@glm@@YA?AU?$tvec3@_N$0A@@0@AEBU?$tvec3@M$0A@@0@0AEBM@Z DD imagerel $LN3
	DD	imagerel $LN3+114
	DD	imagerel $unwind$??$epsilonEqual@M$0A@Utvec3@glm@@@glm@@YA?AU?$tvec3@_N$0A@@0@AEBU?$tvec3@M$0A@@0@0AEBM@Z
pdata	ENDS
;	COMDAT pdata
pdata	SEGMENT
$pdata$?length@?$tvec3@_N$0A@@glm@@SAHXZ DD imagerel $LN3
	DD	imagerel $LN3+9
	DD	imagerel $unwind$?length@?$tvec3@_N$0A@@glm@@SAHXZ
pdata	ENDS
;	COMDAT pdata
pdata	SEGMENT
$pdata$??A?$tvec3@_N$0A@@glm@@QEAAAEA_NH@Z DD imagerel $LN5
	DD	imagerel $LN5+82
	DD	imagerel $unwind$??A?$tvec3@_N$0A@@glm@@QEAAAEA_NH@Z
pdata	ENDS
;	COMDAT pdata
pdata	SEGMENT
$pdata$??A?$tvec3@_N$0A@@glm@@QEBAAEB_NH@Z DD imagerel $LN5
	DD	imagerel $LN5+82
	DD	imagerel $unwind$??A?$tvec3@_N$0A@@glm@@QEBAAEB_NH@Z
pdata	ENDS
;	COMDAT pdata
pdata	SEGMENT
$pdata$??0?$tvec3@_N$0A@@glm@@QEAA@W4ctor@1@@Z DD imagerel $LN3
	DD	imagerel $LN3+17
	DD	imagerel $unwind$??0?$tvec3@_N$0A@@glm@@QEAA@W4ctor@1@@Z
pdata	ENDS
;	COMDAT pdata
pdata	SEGMENT
$pdata$??$all@$0A@Utvec3@glm@@@glm@@YA_NAEBU?$tvec3@_N$0A@@0@@Z DD imagerel $LN8
	DD	imagerel $LN8+116
	DD	imagerel $unwind$??$all@$0A@Utvec3@glm@@@glm@@YA_NAEBU?$tvec3@_N$0A@@0@@Z
pdata	ENDS
;	COMDAT pdata
pdata	SEGMENT
$pdata$?length@?$tvec4@M$0A@@glm@@SAHXZ DD imagerel $LN3
	DD	imagerel $LN3+9
	DD	imagerel $unwind$?length@?$tvec4@M$0A@@glm@@SAHXZ
pdata	ENDS
;	COMDAT pdata
pdata	SEGMENT
$pdata$??A?$tvec4@M$0A@@glm@@QEAAAEAMH@Z DD imagerel $LN5
	DD	imagerel $LN5+80
	DD	imagerel $unwind$??A?$tvec4@M$0A@@glm@@QEAAAEAMH@Z
pdata	ENDS
;	COMDAT pdata
pdata	SEGMENT
$pdata$??A?$tvec4@M$0A@@glm@@QEBAAEBMH@Z DD imagerel $LN5
	DD	imagerel $LN5+80
	DD	imagerel $unwind$??A?$tvec4@M$0A@@glm@@QEBAAEBMH@Z
pdata	ENDS
;	COMDAT pdata
pdata	SEGMENT
$pdata$??0?$tvec4@M$0A@@glm@@QEAA@XZ DD imagerel $LN3
	DD	imagerel $LN3+64
	DD	imagerel $unwind$??0?$tvec4@M$0A@@glm@@QEAA@XZ
pdata	ENDS
;	COMDAT pdata
pdata	SEGMENT
$pdata$??0?$tvec4@M$0A@@glm@@QEAA@M@Z DD imagerel $LN3
	DD	imagerel $LN3+82
	DD	imagerel $unwind$??0?$tvec4@M$0A@@glm@@QEAA@M@Z
pdata	ENDS
;	COMDAT pdata
pdata	SEGMENT
$pdata$??0?$tvec4@M$0A@@glm@@QEAA@MMMM@Z DD imagerel $LN3
	DD	imagerel $LN3+94
	DD	imagerel $unwind$??0?$tvec4@M$0A@@glm@@QEAA@MMMM@Z
pdata	ENDS
;	COMDAT pdata
pdata	SEGMENT
$pdata$??0?$tmat4x4@M$0A@@glm@@QEAA@AEBM000000000000000@Z DD imagerel $LN3
	DD	imagerel $LN3+455
	DD	imagerel $unwind$??0?$tmat4x4@M$0A@@glm@@QEAA@AEBM000000000000000@Z
pdata	ENDS
;	COMDAT pdata
pdata	SEGMENT
$pdata$??0?$tmat4x4@M$0A@@glm@@QEAA@AEBU?$tvec4@M$0A@@1@000@Z DD imagerel $LN3
	DD	imagerel $LN3+189
	DD	imagerel $unwind$??0?$tmat4x4@M$0A@@glm@@QEAA@AEBU?$tvec4@M$0A@@1@000@Z
pdata	ENDS
;	COMDAT pdata
pdata	SEGMENT
$pdata$?length@?$tmat4x4@M$0A@@glm@@SAHXZ DD imagerel $LN3
	DD	imagerel $LN3+9
	DD	imagerel $unwind$?length@?$tmat4x4@M$0A@@glm@@SAHXZ
pdata	ENDS
;	COMDAT pdata
pdata	SEGMENT
$pdata$??A?$tmat4x4@M$0A@@glm@@QEAAAEAU?$tvec4@M$0A@@1@H@Z DD imagerel $LN4
	DD	imagerel $LN4+79
	DD	imagerel $unwind$??A?$tmat4x4@M$0A@@glm@@QEAAAEAU?$tvec4@M$0A@@1@H@Z
pdata	ENDS
;	COMDAT pdata
pdata	SEGMENT
$pdata$??A?$tmat4x4@M$0A@@glm@@QEBAAEBU?$tvec4@M$0A@@1@H@Z DD imagerel $LN4
	DD	imagerel $LN4+79
	DD	imagerel $unwind$??A?$tmat4x4@M$0A@@glm@@QEBAAEBU?$tvec4@M$0A@@1@H@Z
pdata	ENDS
;	COMDAT pdata
pdata	SEGMENT
$pdata$??$affineInverse@M$0A@@glm@@YA?AU?$tmat4x4@M$0A@@0@AEBU10@@Z DD imagerel $LN3
	DD	imagerel $LN3+431
	DD	imagerel $unwind$??$affineInverse@M$0A@@glm@@YA?AU?$tmat4x4@M$0A@@0@AEBU10@@Z
pdata	ENDS
;	COMDAT pdata
pdata	SEGMENT
$pdata$??$inverse@M$0A@Utmat4x4@glm@@@glm@@YA?AU?$tmat4x4@M$0A@@0@AEBU10@@Z DD imagerel $LN3
	DD	imagerel $LN3+41
	DD	imagerel $unwind$??$inverse@M$0A@Utmat4x4@glm@@@glm@@YA?AU?$tmat4x4@M$0A@@0@AEBU10@@Z
pdata	ENDS
;	COMDAT pdata
pdata	SEGMENT
$pdata$??$epsilonEqual@M$0A@Utvec4@glm@@@glm@@YA?AU?$tvec4@_N$0A@@0@AEBU?$tvec4@M$0A@@0@0AEBM@Z DD imagerel $LN3
	DD	imagerel $LN3+120
	DD	imagerel $unwind$??$epsilonEqual@M$0A@Utvec4@glm@@@glm@@YA?AU?$tvec4@_N$0A@@0@AEBU?$tvec4@M$0A@@0@0AEBM@Z
pdata	ENDS
;	COMDAT pdata
pdata	SEGMENT
$pdata$?length@?$tvec4@_N$0A@@glm@@SAHXZ DD imagerel $LN3
	DD	imagerel $LN3+9
	DD	imagerel $unwind$?length@?$tvec4@_N$0A@@glm@@SAHXZ
pdata	ENDS
;	COMDAT pdata
pdata	SEGMENT
$pdata$??A?$tvec4@_N$0A@@glm@@QEAAAEA_NH@Z DD imagerel $LN5
	DD	imagerel $LN5+82
	DD	imagerel $unwind$??A?$tvec4@_N$0A@@glm@@QEAAAEA_NH@Z
pdata	ENDS
;	COMDAT pdata
pdata	SEGMENT
$pdata$??A?$tvec4@_N$0A@@glm@@QEBAAEB_NH@Z DD imagerel $LN5
	DD	imagerel $LN5+82
	DD	imagerel $unwind$??A?$tvec4@_N$0A@@glm@@QEBAAEB_NH@Z
pdata	ENDS
;	COMDAT pdata
pdata	SEGMENT
$pdata$??0?$tvec4@_N$0A@@glm@@QEAA@W4ctor@1@@Z DD imagerel $LN3
	DD	imagerel $LN3+17
	DD	imagerel $unwind$??0?$tvec4@_N$0A@@glm@@QEAA@W4ctor@1@@Z
pdata	ENDS
;	COMDAT pdata
pdata	SEGMENT
$pdata$??$all@$0A@Utvec4@glm@@@glm@@YA_NAEBU?$tvec4@_N$0A@@0@@Z DD imagerel $LN8
	DD	imagerel $LN8+116
	DD	imagerel $unwind$??$all@$0A@Utvec4@glm@@@glm@@YA_NAEBU?$tvec4@_N$0A@@0@@Z
pdata	ENDS
pdata	SEGMENT
$pdata$main DD	imagerel $LN3
	DD	imagerel $LN3+41
	DD	imagerel $unwind$main
pdata	ENDS
;	COMDAT pdata
pdata	SEGMENT
$pdata$?call@?$compute_abs@M$00@detail@glm@@SAMM@Z DD imagerel $LN5
	DD	imagerel $LN5+71
	DD	imagerel $unwind$?call@?$compute_abs@M$00@detail@glm@@SAMM@Z
pdata	ENDS
;	COMDAT pdata
pdata	SEGMENT
$pdata$?length@?$tvec2@M$0A@@glm@@SAHXZ DD imagerel $LN3
	DD	imagerel $LN3+9
	DD	imagerel $unwind$?length@?$tvec2@M$0A@@glm@@SAHXZ
pdata	ENDS
;	COMDAT pdata
pdata	SEGMENT
$pdata$??A?$tvec2@M$0A@@glm@@QEBAAEBMH@Z DD imagerel $LN5
	DD	imagerel $LN5+80
	DD	imagerel $unwind$??A?$tvec2@M$0A@@glm@@QEBAAEBMH@Z
pdata	ENDS
;	COMDAT pdata
pdata	SEGMENT
$pdata$??0?$tvec2@M$0A@@glm@@QEAA@XZ DD imagerel $LN3
	DD	imagerel $LN3+38
	DD	imagerel $unwind$??0?$tvec2@M$0A@@glm@@QEAA@XZ
pdata	ENDS
;	COMDAT pdata
pdata	SEGMENT
$pdata$??0?$tvec2@M$0A@@glm@@QEAA@MM@Z DD imagerel $LN3
	DD	imagerel $LN3+56
	DD	imagerel $unwind$??0?$tvec2@M$0A@@glm@@QEAA@MM@Z
pdata	ENDS
;	COMDAT pdata
pdata	SEGMENT
$pdata$??0?$tmat2x2@M$0A@@glm@@QEAA@AEBM000@Z DD imagerel $LN3
	DD	imagerel $LN3+165
	DD	imagerel $unwind$??0?$tmat2x2@M$0A@@glm@@QEAA@AEBM000@Z
pdata	ENDS
;	COMDAT pdata
pdata	SEGMENT
$pdata$??0?$tmat2x2@M$0A@@glm@@QEAA@AEBU?$tvec2@M$0A@@1@0@Z DD imagerel $LN3
	DD	imagerel $LN3+114
	DD	imagerel $unwind$??0?$tmat2x2@M$0A@@glm@@QEAA@AEBU?$tvec2@M$0A@@1@0@Z
pdata	ENDS
;	COMDAT pdata
pdata	SEGMENT
$pdata$??0?$tmat2x2@M$0A@@glm@@QEAA@AEBU?$tmat3x3@M$0A@@1@@Z DD imagerel $LN3
	DD	imagerel $LN3+152
	DD	imagerel $unwind$??0?$tmat2x2@M$0A@@glm@@QEAA@AEBU?$tmat3x3@M$0A@@1@@Z
pdata	ENDS
;	COMDAT pdata
pdata	SEGMENT
$pdata$?length@?$tmat2x2@M$0A@@glm@@SAHXZ DD imagerel $LN3
	DD	imagerel $LN3+9
	DD	imagerel $unwind$?length@?$tmat2x2@M$0A@@glm@@SAHXZ
pdata	ENDS
;	COMDAT pdata
pdata	SEGMENT
$pdata$??A?$tmat2x2@M$0A@@glm@@QEBAAEBU?$tvec2@M$0A@@1@H@Z DD imagerel $LN4
	DD	imagerel $LN4+73
	DD	imagerel $unwind$??A?$tmat2x2@M$0A@@glm@@QEBAAEBU?$tvec2@M$0A@@1@H@Z
pdata	ENDS
;	COMDAT pdata
pdata	SEGMENT
$pdata$??$inverse@M$0A@Utmat2x2@glm@@@glm@@YA?AU?$tmat2x2@M$0A@@0@AEBU10@@Z DD imagerel $LN3
	DD	imagerel $LN3+41
	DD	imagerel $unwind$??$inverse@M$0A@Utmat2x2@glm@@@glm@@YA?AU?$tmat2x2@M$0A@@0@AEBU10@@Z
pdata	ENDS
;	COMDAT pdata
pdata	SEGMENT
$pdata$??$?0MM$0A@@?$tvec3@M$0A@@glm@@QEAA@AEBU?$tvec2@M$0A@@1@M@Z DD imagerel $LN3
	DD	imagerel $LN3+78
	DD	imagerel $unwind$??$?0MM$0A@@?$tvec3@M$0A@@glm@@QEAA@AEBU?$tvec2@M$0A@@1@M@Z
pdata	ENDS
;	COMDAT pdata
pdata	SEGMENT
$pdata$??$?GM$0A@@glm@@YA?AU?$tmat2x2@M$0A@@0@AEBU10@@Z DD imagerel $LN3
	DD	imagerel $LN3+105
	DD	imagerel $unwind$??$?GM$0A@@glm@@YA?AU?$tmat2x2@M$0A@@0@AEBU10@@Z
pdata	ENDS
;	COMDAT pdata
pdata	SEGMENT
$pdata$??$?0M$0A@@?$tvec2@M$0A@@glm@@QEAA@AEBU?$tvec3@M$0A@@1@@Z DD imagerel $LN3
	DD	imagerel $LN3+56
	DD	imagerel $unwind$??$?0M$0A@@?$tvec2@M$0A@@glm@@QEAA@AEBU?$tvec3@M$0A@@1@@Z
pdata	ENDS
;	COMDAT pdata
pdata	SEGMENT
$pdata$??$?DM$0A@@glm@@YA?AU?$tvec2@M$0A@@0@AEBU?$tmat2x2@M$0A@@0@AEBU10@@Z DD imagerel $LN3
	DD	imagerel $LN3+251
	DD	imagerel $unwind$??$?DM$0A@@glm@@YA?AU?$tvec2@M$0A@@0@AEBU?$tmat2x2@M$0A@@0@AEBU10@@Z
pdata	ENDS
;	COMDAT pdata
pdata	SEGMENT
$pdata$?call@?$compute_inverse@Utmat3x3@glm@@M$0A@$0A@@detail@glm@@SA?AU?$tmat3x3@M$0A@@3@AEBU43@@Z DD imagerel $LN3
	DD	imagerel $LN3+3167
	DD	imagerel $unwind$?call@?$compute_inverse@Utmat3x3@glm@@M$0A@$0A@@detail@glm@@SA?AU?$tmat3x3@M$0A@@3@AEBU43@@Z
pdata	ENDS
;	COMDAT pdata
pdata	SEGMENT
$pdata$??$?GM$0A@@glm@@YA?AU?$tvec3@M$0A@@0@AEBU10@0@Z DD imagerel $LN3
	DD	imagerel $LN3+120
	DD	imagerel $unwind$??$?GM$0A@@glm@@YA?AU?$tvec3@M$0A@@0@AEBU10@0@Z
pdata	ENDS
;	COMDAT pdata
pdata	SEGMENT
$pdata$??$abs@M$0A@Utvec3@glm@@@glm@@YA?AU?$tvec3@M$0A@@0@AEBU10@@Z DD imagerel $LN3
	DD	imagerel $LN3+41
	DD	imagerel $unwind$??$abs@M$0A@Utvec3@glm@@@glm@@YA?AU?$tvec3@M$0A@@0@AEBU10@@Z
pdata	ENDS
;	COMDAT pdata
pdata	SEGMENT
$pdata$??$lessThan@M$0A@Utvec3@glm@@@glm@@YA?AU?$tvec3@_N$0A@@0@AEBU?$tvec3@M$0A@@0@0@Z DD imagerel $LN9
	DD	imagerel $LN9+280
	DD	imagerel $unwind$??$lessThan@M$0A@Utvec3@glm@@@glm@@YA?AU?$tvec3@_N$0A@@0@AEBU?$tvec3@M$0A@@0@0@Z
pdata	ENDS
;	COMDAT pdata
pdata	SEGMENT
$pdata$??$?0MM$0A@@?$tvec4@M$0A@@glm@@QEAA@AEBU?$tvec3@M$0A@@1@M@Z DD imagerel $LN3
	DD	imagerel $LN3+98
	DD	imagerel $unwind$??$?0MM$0A@@?$tvec4@M$0A@@glm@@QEAA@AEBU?$tvec3@M$0A@@1@M@Z
pdata	ENDS
;	COMDAT pdata
pdata	SEGMENT
$pdata$??$?GM$0A@@glm@@YA?AU?$tmat3x3@M$0A@@0@AEBU10@@Z DD imagerel $LN3
	DD	imagerel $LN3+146
	DD	imagerel $unwind$??$?GM$0A@@glm@@YA?AU?$tmat3x3@M$0A@@0@AEBU10@@Z
pdata	ENDS
;	COMDAT pdata
pdata	SEGMENT
$pdata$??$?0M$0A@@?$tvec3@M$0A@@glm@@QEAA@AEBU?$tvec4@M$0A@@1@@Z DD imagerel $LN3
	DD	imagerel $LN3+76
	DD	imagerel $unwind$??$?0M$0A@@?$tvec3@M$0A@@glm@@QEAA@AEBU?$tvec4@M$0A@@1@@Z
pdata	ENDS
;	COMDAT pdata
pdata	SEGMENT
$pdata$??$?DM$0A@@glm@@YA?AU?$tvec3@M$0A@@0@AEBU?$tmat3x3@M$0A@@0@AEBU10@@Z DD imagerel $LN3
	DD	imagerel $LN3+545
	DD	imagerel $unwind$??$?DM$0A@@glm@@YA?AU?$tvec3@M$0A@@0@AEBU?$tmat3x3@M$0A@@0@AEBU10@@Z
pdata	ENDS
;	COMDAT pdata
pdata	SEGMENT
$pdata$?call@?$compute_inverse@Utmat4x4@glm@@M$0A@$0A@@detail@glm@@SA?AU?$tmat4x4@M$0A@@3@AEBU43@@Z DD imagerel $LN3
	DD	imagerel $LN3+5983
	DD	imagerel $unwind$?call@?$compute_inverse@Utmat4x4@glm@@M$0A@$0A@@detail@glm@@SA?AU?$tmat4x4@M$0A@@3@AEBU43@@Z
pdata	ENDS
;	COMDAT pdata
pdata	SEGMENT
$pdata$??$?GM$0A@@glm@@YA?AU?$tvec4@M$0A@@0@AEBU10@0@Z DD imagerel $LN3
	DD	imagerel $LN3+83
	DD	imagerel $unwind$??$?GM$0A@@glm@@YA?AU?$tvec4@M$0A@@0@AEBU10@0@Z
pdata	ENDS
;	COMDAT pdata
pdata	SEGMENT
$pdata$??$abs@M$0A@Utvec4@glm@@@glm@@YA?AU?$tvec4@M$0A@@0@AEBU10@@Z DD imagerel $LN3
	DD	imagerel $LN3+41
	DD	imagerel $unwind$??$abs@M$0A@Utvec4@glm@@@glm@@YA?AU?$tvec4@M$0A@@0@AEBU10@@Z
pdata	ENDS
;	COMDAT pdata
pdata	SEGMENT
$pdata$??$lessThan@M$0A@Utvec4@glm@@@glm@@YA?AU?$tvec4@_N$0A@@0@AEBU?$tvec4@M$0A@@0@0@Z DD imagerel $LN9
	DD	imagerel $LN9+266
	DD	imagerel $unwind$??$lessThan@M$0A@Utvec4@glm@@@glm@@YA?AU?$tvec4@_N$0A@@0@AEBU?$tvec4@M$0A@@0@0@Z
pdata	ENDS
;	COMDAT pdata
pdata	SEGMENT
$pdata$??$?DM$0A@@glm@@YA?AU?$tvec4@M$0A@@0@AEBU10@0@Z DD imagerel $LN3
	DD	imagerel $LN3+83
	DD	imagerel $unwind$??$?DM$0A@@glm@@YA?AU?$tvec4@M$0A@@0@AEBU10@0@Z
pdata	ENDS
;	COMDAT pdata
pdata	SEGMENT
$pdata$??$?HM$0A@@glm@@YA?AU?$tvec4@M$0A@@0@AEBU10@0@Z DD imagerel $LN3
	DD	imagerel $LN3+83
	DD	imagerel $unwind$??$?HM$0A@@glm@@YA?AU?$tvec4@M$0A@@0@AEBU10@0@Z
pdata	ENDS
;	COMDAT pdata
pdata	SEGMENT
$pdata$??$?0HHHH@?$tvec4@M$0A@@glm@@QEAA@HHHH@Z DD imagerel $LN3
	DD	imagerel $LN3+90
	DD	imagerel $unwind$??$?0HHHH@?$tvec4@M$0A@@glm@@QEAA@HHHH@Z
pdata	ENDS
;	COMDAT pdata
pdata	SEGMENT
$pdata$??$?DM$0A@@glm@@YA?AU?$tmat4x4@M$0A@@0@AEBU10@AEBM@Z DD imagerel $LN3
	DD	imagerel $LN3+272
	DD	imagerel $unwind$??$?DM$0A@@glm@@YA?AU?$tmat4x4@M$0A@@0@AEBU10@AEBM@Z
pdata	ENDS
;	COMDAT pdata
pdata	SEGMENT
$pdata$?call@?$compute_inverse@Utmat2x2@glm@@M$0A@$0A@@detail@glm@@SA?AU?$tmat2x2@M$0A@@3@AEBU43@@Z DD imagerel $LN3
	DD	imagerel $LN3+571
	DD	imagerel $unwind$?call@?$compute_inverse@Utmat2x2@glm@@M$0A@$0A@@detail@glm@@SA?AU?$tmat2x2@M$0A@@3@AEBU43@@Z
pdata	ENDS
;	COMDAT pdata
pdata	SEGMENT
$pdata$??$?GM$0A@@glm@@YA?AU?$tvec2@M$0A@@0@AEBU10@@Z DD imagerel $LN3
	DD	imagerel $LN3+72
	DD	imagerel $unwind$??$?GM$0A@@glm@@YA?AU?$tvec2@M$0A@@0@AEBU10@@Z
pdata	ENDS
;	COMDAT pdata
pdata	SEGMENT
$pdata$?call@?$compute_abs_vector@M$0A@Utvec3@glm@@$0A@@detail@glm@@SA?AU?$tvec3@M$0A@@3@AEBU43@@Z DD imagerel $LN3
	DD	imagerel $LN3+48
	DD	imagerel $unwind$?call@?$compute_abs_vector@M$0A@Utvec3@glm@@$0A@@detail@glm@@SA?AU?$tvec3@M$0A@@3@AEBU43@@Z
pdata	ENDS
;	COMDAT pdata
pdata	SEGMENT
$pdata$??$?GM$0A@@glm@@YA?AU?$tvec3@M$0A@@0@AEBU10@@Z DD imagerel $LN3
	DD	imagerel $LN3+107
	DD	imagerel $unwind$??$?GM$0A@@glm@@YA?AU?$tvec3@M$0A@@0@AEBU10@@Z
pdata	ENDS
;	COMDAT pdata
pdata	SEGMENT
$pdata$??$?ZM@?$tvec4@M$0A@@glm@@QEAAAEAU01@AEBU01@@Z DD imagerel $LN3
	DD	imagerel $LN3+83
	DD	imagerel $unwind$??$?ZM@?$tvec4@M$0A@@glm@@QEAAAEAU01@AEBU01@@Z
pdata	ENDS
;	COMDAT pdata
pdata	SEGMENT
$pdata$?call@?$compute_abs_vector@M$0A@Utvec4@glm@@$0A@@detail@glm@@SA?AU?$tvec4@M$0A@@3@AEBU43@@Z DD imagerel $LN3
	DD	imagerel $LN3+48
	DD	imagerel $unwind$?call@?$compute_abs_vector@M$0A@Utvec4@glm@@$0A@@detail@glm@@SA?AU?$tvec4@M$0A@@3@AEBU43@@Z
pdata	ENDS
;	COMDAT pdata
pdata	SEGMENT
$pdata$??$?XM@?$tvec4@M$0A@@glm@@QEAAAEAU01@AEBU01@@Z DD imagerel $LN3
	DD	imagerel $LN3+83
	DD	imagerel $unwind$??$?XM@?$tvec4@M$0A@@glm@@QEAAAEAU01@AEBU01@@Z
pdata	ENDS
;	COMDAT pdata
pdata	SEGMENT
$pdata$??$?YM@?$tvec4@M$0A@@glm@@QEAAAEAU01@AEBU01@@Z DD imagerel $LN3
	DD	imagerel $LN3+83
	DD	imagerel $unwind$??$?YM@?$tvec4@M$0A@@glm@@QEAAAEAU01@AEBU01@@Z
pdata	ENDS
;	COMDAT pdata
pdata	SEGMENT
$pdata$??$?DM$0A@@glm@@YA?AU?$tvec4@M$0A@@0@AEBU10@M@Z DD imagerel $LN3
	DD	imagerel $LN3+85
	DD	imagerel $unwind$??$?DM$0A@@glm@@YA?AU?$tvec4@M$0A@@0@AEBU10@M@Z
pdata	ENDS
;	COMDAT pdata
pdata	SEGMENT
$pdata$?call@?$functor1@MM$0A@Utvec4@glm@@@detail@glm@@SA?AU?$tvec4@M$0A@@3@P6AMM@ZAEBU43@@Z DD imagerel $LN3
	DD	imagerel $LN3+147
	DD	imagerel $unwind$?call@?$functor1@MM$0A@Utvec4@glm@@@detail@glm@@SA?AU?$tvec4@M$0A@@3@P6AMM@ZAEBU43@@Z
pdata	ENDS
;	COMDAT pdata
pdata	SEGMENT
$pdata$?call@?$functor1@MM$0A@Utvec3@glm@@@detail@glm@@SA?AU?$tvec3@M$0A@@3@P6AMM@ZAEBU43@@Z DD imagerel $LN3
	DD	imagerel $LN3+115
	DD	imagerel $unwind$?call@?$functor1@MM$0A@Utvec3@glm@@@detail@glm@@SA?AU?$tvec3@M$0A@@3@P6AMM@ZAEBU43@@Z
pdata	ENDS
;	COMDAT pdata
pdata	SEGMENT
$pdata$?call@?$compute_vec4_sub@M$0A@$0A@@detail@glm@@SA?AU?$tvec4@M$0A@@3@AEBU43@0@Z DD imagerel $LN3
	DD	imagerel $LN3+143
	DD	imagerel $unwind$?call@?$compute_vec4_sub@M$0A@$0A@@detail@glm@@SA?AU?$tvec4@M$0A@@3@AEBU43@0@Z
pdata	ENDS
;	COMDAT pdata
pdata	SEGMENT
$pdata$?call@?$compute_vec4_mul@M$0A@$0A@@detail@glm@@SA?AU?$tvec4@M$0A@@3@AEBU43@0@Z DD imagerel $LN3
	DD	imagerel $LN3+143
	DD	imagerel $unwind$?call@?$compute_vec4_mul@M$0A@$0A@@detail@glm@@SA?AU?$tvec4@M$0A@@3@AEBU43@0@Z
pdata	ENDS
;	COMDAT pdata
pdata	SEGMENT
$pdata$?call@?$compute_vec4_add@M$0A@$0A@@detail@glm@@SA?AU?$tvec4@M$0A@@3@AEBU43@0@Z DD imagerel $LN3
	DD	imagerel $LN3+143
	DD	imagerel $unwind$?call@?$compute_vec4_add@M$0A@$0A@@detail@glm@@SA?AU?$tvec4@M$0A@@3@AEBU43@0@Z
pdata	ENDS
;	COMDAT pdata
pdata	SEGMENT
$pdata$??$?XM@?$tvec4@M$0A@@glm@@QEAAAEAU01@M@Z DD imagerel $LN3
	DD	imagerel $LN3+78
	DD	imagerel $unwind$??$?XM@?$tvec4@M$0A@@glm@@QEAAAEAU01@M@Z
pdata	ENDS
;	COMDAT __xmm@80000000800000008000000080000000
CONST	SEGMENT
__xmm@80000000800000008000000080000000 DB 00H, 00H, 00H, 080H, 00H, 00H, 00H
	DB	080H, 00H, 00H, 00H, 080H, 00H, 00H, 00H, 080H
CONST	ENDS
;	COMDAT __real@40000000
CONST	SEGMENT
__real@40000000 DD 040000000r			; 2
CONST	ENDS
;	COMDAT __real@3f800000
CONST	SEGMENT
__real@3f800000 DD 03f800000r			; 1
CONST	ENDS
;	COMDAT __real@3c23d70a
CONST	SEGMENT
__real@3c23d70a DD 03c23d70ar			; 0.01
CONST	ENDS
;	COMDAT __real@00000000
CONST	SEGMENT
__real@00000000 DD 000000000r			; 0
CONST	ENDS
;	COMDAT rtc$TMZ
rtc$TMZ	SEGMENT
_RTC_Shutdown.rtc$TMZ DQ FLAT:_RTC_Shutdown
rtc$TMZ	ENDS
;	COMDAT rtc$IMZ
rtc$IMZ	SEGMENT
_RTC_InitBase.rtc$IMZ DQ FLAT:_RTC_InitBase
rtc$IMZ	ENDS
;	COMDAT ??_C@_1LG@FPDAFGJN@?$AAC?$AA?3?$AA?2?$AAU?$AAs?$AAe?$AAr?$AAs?$AA?2?$AAk?$AAs?$AAa?$AAr?$AAt?$AA?2@
CONST	SEGMENT
??_C@_1LG@FPDAFGJN@?$AAC?$AA?3?$AA?2?$AAU?$AAs?$AAe?$AAr?$AAs?$AA?2?$AAk?$AAs?$AAa?$AAr?$AAt?$AA?2@ DB 'C'
	DB	00H, ':', 00H, '\', 00H, 'U', 00H, 's', 00H, 'e', 00H, 'r', 00H
	DB	's', 00H, '\', 00H, 'k', 00H, 's', 00H, 'a', 00H, 'r', 00H, 't'
	DB	00H, '\', 00H, 'O', 00H, 'n', 00H, 'e', 00H, 'D', 00H, 'r', 00H
	DB	'i', 00H, 'v', 00H, 'e', 00H, '\', 00H, 'D', 00H, 'e', 00H, 's'
	DB	00H, 'k', 00H, 't', 00H, 'o', 00H, 'p', 00H, '\', 00H, 'F', 00H
	DB	'l', 00H, 'a', 00H, 'p', 00H, 'p', 00H, 'y', 00H, 'B', 00H, 'i'
	DB	00H, 'r', 00H, 'd', 00H, '\', 00H, 'l', 00H, 'i', 00H, 'b', 00H
	DB	'r', 00H, 'a', 00H, 'r', 00H, 'i', 00H, 'e', 00H, 's', 00H, '\'
	DB	00H, 'e', 00H, 'x', 00H, 't', 00H, 'e', 00H, 'r', 00H, 'n', 00H
	DB	'a', 00H, 'l', 00H, '\', 00H, 'g', 00H, 'l', 00H, 'm', 00H, '\'
	DB	00H, 'g', 00H, 'l', 00H, 'm', 00H, '\', 00H, 'd', 00H, 'e', 00H
	DB	't', 00H, 'a', 00H, 'i', 00H, 'l', 00H, '\', 00H, 't', 00H, 'y'
	DB	00H, 'p', 00H, 'e', 00H, '_', 00H, 'v', 00H, 'e', 00H, 'c', 00H
	DB	'2', 00H, '.', 00H, 'i', 00H, 'n', 00H, 'l', 00H, 00H, 00H ; `string'
CONST	ENDS
;	COMDAT ??_C@_1DC@HHLCGOLC@?$AAx?$AA?4?$AAl?$AAe?$AAn?$AAg?$AAt?$AAh?$AA?$CI?$AA?$CJ?$AA?5?$AA?$DN?$AA?$DN?$AA?5?$AAy@
CONST	SEGMENT
??_C@_1DC@HHLCGOLC@?$AAx?$AA?4?$AAl?$AAe?$AAn?$AAg?$AAt?$AAh?$AA?$CI?$AA?$CJ?$AA?5?$AA?$DN?$AA?$DN?$AA?5?$AAy@ DB 'x'
	DB	00H, '.', 00H, 'l', 00H, 'e', 00H, 'n', 00H, 'g', 00H, 't', 00H
	DB	'h', 00H, '(', 00H, ')', 00H, ' ', 00H, '=', 00H, '=', 00H, ' '
	DB	00H, 'y', 00H, '.', 00H, 'l', 00H, 'e', 00H, 'n', 00H, 'g', 00H
	DB	't', 00H, 'h', 00H, '(', 00H, ')', 00H, 00H, 00H ; `string'
CONST	ENDS
;	COMDAT ??_C@_1NA@OPABFNEN@?$AAC?$AA?3?$AA?2?$AAU?$AAs?$AAe?$AAr?$AAs?$AA?2?$AAk?$AAs?$AAa?$AAr?$AAt?$AA?2@
CONST	SEGMENT
??_C@_1NA@OPABFNEN@?$AAC?$AA?3?$AA?2?$AAU?$AAs?$AAe?$AAr?$AAs?$AA?2?$AAk?$AAs?$AAa?$AAr?$AAt?$AA?2@ DB 'C'
	DB	00H, ':', 00H, '\', 00H, 'U', 00H, 's', 00H, 'e', 00H, 'r', 00H
	DB	's', 00H, '\', 00H, 'k', 00H, 's', 00H, 'a', 00H, 'r', 00H, 't'
	DB	00H, '\', 00H, 'O', 00H, 'n', 00H, 'e', 00H, 'D', 00H, 'r', 00H
	DB	'i', 00H, 'v', 00H, 'e', 00H, '\', 00H, 'D', 00H, 'e', 00H, 's'
	DB	00H, 'k', 00H, 't', 00H, 'o', 00H, 'p', 00H, '\', 00H, 'F', 00H
	DB	'l', 00H, 'a', 00H, 'p', 00H, 'p', 00H, 'y', 00H, 'B', 00H, 'i'
	DB	00H, 'r', 00H, 'd', 00H, '\', 00H, 'l', 00H, 'i', 00H, 'b', 00H
	DB	'r', 00H, 'a', 00H, 'r', 00H, 'i', 00H, 'e', 00H, 's', 00H, '\'
	DB	00H, 'e', 00H, 'x', 00H, 't', 00H, 'e', 00H, 'r', 00H, 'n', 00H
	DB	'a', 00H, 'l', 00H, '\', 00H, 'g', 00H, 'l', 00H, 'm', 00H, '\'
	DB	00H, 'g', 00H, 'l', 00H, 'm', 00H, '\', 00H, 'd', 00H, 'e', 00H
	DB	't', 00H, 'a', 00H, 'i', 00H, 'l', 00H, '\', 00H, 'f', 00H, 'u'
	DB	00H, 'n', 00H, 'c', 00H, '_', 00H, 'v', 00H, 'e', 00H, 'c', 00H
	DB	't', 00H, 'o', 00H, 'r', 00H, '_', 00H, 'r', 00H, 'e', 00H, 'l'
	DB	00H, 'a', 00H, 't', 00H, 'i', 00H, 'o', 00H, 'n', 00H, 'a', 00H
	DB	'l', 00H, '.', 00H, 'i', 00H, 'n', 00H, 'l', 00H, 00H, 00H ; `string'
CONST	ENDS
;	COMDAT ??_C@_1LG@LAANPDHN@?$AAC?$AA?3?$AA?2?$AAU?$AAs?$AAe?$AAr?$AAs?$AA?2?$AAk?$AAs?$AAa?$AAr?$AAt?$AA?2@
CONST	SEGMENT
??_C@_1LG@LAANPDHN@?$AAC?$AA?3?$AA?2?$AAU?$AAs?$AAe?$AAr?$AAs?$AA?2?$AAk?$AAs?$AAa?$AAr?$AAt?$AA?2@ DB 'C'
	DB	00H, ':', 00H, '\', 00H, 'U', 00H, 's', 00H, 'e', 00H, 'r', 00H
	DB	's', 00H, '\', 00H, 'k', 00H, 's', 00H, 'a', 00H, 'r', 00H, 't'
	DB	00H, '\', 00H, 'O', 00H, 'n', 00H, 'e', 00H, 'D', 00H, 'r', 00H
	DB	'i', 00H, 'v', 00H, 'e', 00H, '\', 00H, 'D', 00H, 'e', 00H, 's'
	DB	00H, 'k', 00H, 't', 00H, 'o', 00H, 'p', 00H, '\', 00H, 'F', 00H
	DB	'l', 00H, 'a', 00H, 'p', 00H, 'p', 00H, 'y', 00H, 'B', 00H, 'i'
	DB	00H, 'r', 00H, 'd', 00H, '\', 00H, 'l', 00H, 'i', 00H, 'b', 00H
	DB	'r', 00H, 'a', 00H, 'r', 00H, 'i', 00H, 'e', 00H, 's', 00H, '\'
	DB	00H, 'e', 00H, 'x', 00H, 't', 00H, 'e', 00H, 'r', 00H, 'n', 00H
	DB	'a', 00H, 'l', 00H, '\', 00H, 'g', 00H, 'l', 00H, 'm', 00H, '\'
	DB	00H, 'g', 00H, 'l', 00H, 'm', 00H, '\', 00H, 'd', 00H, 'e', 00H
	DB	't', 00H, 'a', 00H, 'i', 00H, 'l', 00H, '\', 00H, 't', 00H, 'y'
	DB	00H, 'p', 00H, 'e', 00H, '_', 00H, 'v', 00H, 'e', 00H, 'c', 00H
	DB	'4', 00H, '.', 00H, 'i', 00H, 'n', 00H, 'l', 00H, 00H, 00H ; `string'
CONST	ENDS
;	COMDAT ??_C@_1DK@BGNCJAPL@?$AAi?$AA?5?$AA?$DO?$AA?$DN?$AA?5?$AA0?$AA?5?$AA?$CG?$AA?$CG?$AA?5?$AAi?$AA?5?$AA?$DM?$AA?5?$AAt@
CONST	SEGMENT
??_C@_1DK@BGNCJAPL@?$AAi?$AA?5?$AA?$DO?$AA?$DN?$AA?5?$AA0?$AA?5?$AA?$CG?$AA?$CG?$AA?5?$AAi?$AA?5?$AA?$DM?$AA?5?$AAt@ DB 'i'
	DB	00H, ' ', 00H, '>', 00H, '=', 00H, ' ', 00H, '0', 00H, ' ', 00H
	DB	'&', 00H, '&', 00H, ' ', 00H, 'i', 00H, ' ', 00H, '<', 00H, ' '
	DB	00H, 't', 00H, 'h', 00H, 'i', 00H, 's', 00H, '-', 00H, '>', 00H
	DB	'l', 00H, 'e', 00H, 'n', 00H, 'g', 00H, 't', 00H, 'h', 00H, '('
	DB	00H, ')', 00H, 00H, 00H			; `string'
CONST	ENDS
;	COMDAT ??_C@_1LG@MEJFBKPC@?$AAC?$AA?3?$AA?2?$AAU?$AAs?$AAe?$AAr?$AAs?$AA?2?$AAk?$AAs?$AAa?$AAr?$AAt?$AA?2@
CONST	SEGMENT
??_C@_1LG@MEJFBKPC@?$AAC?$AA?3?$AA?2?$AAU?$AAs?$AAe?$AAr?$AAs?$AA?2?$AAk?$AAs?$AAa?$AAr?$AAt?$AA?2@ DB 'C'
	DB	00H, ':', 00H, '\', 00H, 'U', 00H, 's', 00H, 'e', 00H, 'r', 00H
	DB	's', 00H, '\', 00H, 'k', 00H, 's', 00H, 'a', 00H, 'r', 00H, 't'
	DB	00H, '\', 00H, 'O', 00H, 'n', 00H, 'e', 00H, 'D', 00H, 'r', 00H
	DB	'i', 00H, 'v', 00H, 'e', 00H, '\', 00H, 'D', 00H, 'e', 00H, 's'
	DB	00H, 'k', 00H, 't', 00H, 'o', 00H, 'p', 00H, '\', 00H, 'F', 00H
	DB	'l', 00H, 'a', 00H, 'p', 00H, 'p', 00H, 'y', 00H, 'B', 00H, 'i'
	DB	00H, 'r', 00H, 'd', 00H, '\', 00H, 'l', 00H, 'i', 00H, 'b', 00H
	DB	'r', 00H, 'a', 00H, 'r', 00H, 'i', 00H, 'e', 00H, 's', 00H, '\'
	DB	00H, 'e', 00H, 'x', 00H, 't', 00H, 'e', 00H, 'r', 00H, 'n', 00H
	DB	'a', 00H, 'l', 00H, '\', 00H, 'g', 00H, 'l', 00H, 'm', 00H, '\'
	DB	00H, 'g', 00H, 'l', 00H, 'm', 00H, '\', 00H, 'd', 00H, 'e', 00H
	DB	't', 00H, 'a', 00H, 'i', 00H, 'l', 00H, '\', 00H, 't', 00H, 'y'
	DB	00H, 'p', 00H, 'e', 00H, '_', 00H, 'v', 00H, 'e', 00H, 'c', 00H
	DB	'3', 00H, '.', 00H, 'i', 00H, 'n', 00H, 'l', 00H, 00H, 00H ; `string'
CONST	ENDS
;	COMDAT ??_C@_1LK@KMFBDMLF@?$AAC?$AA?3?$AA?2?$AAU?$AAs?$AAe?$AAr?$AAs?$AA?2?$AAk?$AAs?$AAa?$AAr?$AAt?$AA?2@
CONST	SEGMENT
??_C@_1LK@KMFBDMLF@?$AAC?$AA?3?$AA?2?$AAU?$AAs?$AAe?$AAr?$AAs?$AA?2?$AAk?$AAs?$AAa?$AAr?$AAt?$AA?2@ DB 'C'
	DB	00H, ':', 00H, '\', 00H, 'U', 00H, 's', 00H, 'e', 00H, 'r', 00H
	DB	's', 00H, '\', 00H, 'k', 00H, 's', 00H, 'a', 00H, 'r', 00H, 't'
	DB	00H, '\', 00H, 'O', 00H, 'n', 00H, 'e', 00H, 'D', 00H, 'r', 00H
	DB	'i', 00H, 'v', 00H, 'e', 00H, '\', 00H, 'D', 00H, 'e', 00H, 's'
	DB	00H, 'k', 00H, 't', 00H, 'o', 00H, 'p', 00H, '\', 00H, 'F', 00H
	DB	'l', 00H, 'a', 00H, 'p', 00H, 'p', 00H, 'y', 00H, 'B', 00H, 'i'
	DB	00H, 'r', 00H, 'd', 00H, '\', 00H, 'l', 00H, 'i', 00H, 'b', 00H
	DB	'r', 00H, 'a', 00H, 'r', 00H, 'i', 00H, 'e', 00H, 's', 00H, '\'
	DB	00H, 'e', 00H, 'x', 00H, 't', 00H, 'e', 00H, 'r', 00H, 'n', 00H
	DB	'a', 00H, 'l', 00H, '\', 00H, 'g', 00H, 'l', 00H, 'm', 00H, '\'
	DB	00H, 'g', 00H, 'l', 00H, 'm', 00H, '\', 00H, 'd', 00H, 'e', 00H
	DB	't', 00H, 'a', 00H, 'i', 00H, 'l', 00H, '\', 00H, 't', 00H, 'y'
	DB	00H, 'p', 00H, 'e', 00H, '_', 00H, 'm', 00H, 'a', 00H, 't', 00H
	DB	'2', 00H, 'x', 00H, '2', 00H, '.', 00H, 'i', 00H, 'n', 00H, 'l'
	DB	00H, 00H, 00H				; `string'
CONST	ENDS
;	COMDAT ??_C@_1LK@BAPNPALB@?$AAC?$AA?3?$AA?2?$AAU?$AAs?$AAe?$AAr?$AAs?$AA?2?$AAk?$AAs?$AAa?$AAr?$AAt?$AA?2@
CONST	SEGMENT
??_C@_1LK@BAPNPALB@?$AAC?$AA?3?$AA?2?$AAU?$AAs?$AAe?$AAr?$AAs?$AA?2?$AAk?$AAs?$AAa?$AAr?$AAt?$AA?2@ DB 'C'
	DB	00H, ':', 00H, '\', 00H, 'U', 00H, 's', 00H, 'e', 00H, 'r', 00H
	DB	's', 00H, '\', 00H, 'k', 00H, 's', 00H, 'a', 00H, 'r', 00H, 't'
	DB	00H, '\', 00H, 'O', 00H, 'n', 00H, 'e', 00H, 'D', 00H, 'r', 00H
	DB	'i', 00H, 'v', 00H, 'e', 00H, '\', 00H, 'D', 00H, 'e', 00H, 's'
	DB	00H, 'k', 00H, 't', 00H, 'o', 00H, 'p', 00H, '\', 00H, 'F', 00H
	DB	'l', 00H, 'a', 00H, 'p', 00H, 'p', 00H, 'y', 00H, 'B', 00H, 'i'
	DB	00H, 'r', 00H, 'd', 00H, '\', 00H, 'l', 00H, 'i', 00H, 'b', 00H
	DB	'r', 00H, 'a', 00H, 'r', 00H, 'i', 00H, 'e', 00H, 's', 00H, '\'
	DB	00H, 'e', 00H, 'x', 00H, 't', 00H, 'e', 00H, 'r', 00H, 'n', 00H
	DB	'a', 00H, 'l', 00H, '\', 00H, 'g', 00H, 'l', 00H, 'm', 00H, '\'
	DB	00H, 'g', 00H, 'l', 00H, 'm', 00H, '\', 00H, 'd', 00H, 'e', 00H
	DB	't', 00H, 'a', 00H, 'i', 00H, 'l', 00H, '\', 00H, 't', 00H, 'y'
	DB	00H, 'p', 00H, 'e', 00H, '_', 00H, 'm', 00H, 'a', 00H, 't', 00H
	DB	'4', 00H, 'x', 00H, '4', 00H, '.', 00H, 'i', 00H, 'n', 00H, 'l'
	DB	00H, 00H, 00H				; `string'
CONST	ENDS
;	COMDAT ??_C@_1CG@KOFHLCJL@?$AAi?$AA?5?$AA?$DM?$AA?5?$AAt?$AAh?$AAi?$AAs?$AA?9?$AA?$DO?$AAl?$AAe?$AAn?$AAg?$AAt@
CONST	SEGMENT
??_C@_1CG@KOFHLCJL@?$AAi?$AA?5?$AA?$DM?$AA?5?$AAt?$AAh?$AAi?$AAs?$AA?9?$AA?$DO?$AAl?$AAe?$AAn?$AAg?$AAt@ DB 'i'
	DB	00H, ' ', 00H, '<', 00H, ' ', 00H, 't', 00H, 'h', 00H, 'i', 00H
	DB	's', 00H, '-', 00H, '>', 00H, 'l', 00H, 'e', 00H, 'n', 00H, 'g'
	DB	00H, 't', 00H, 'h', 00H, '(', 00H, ')', 00H, 00H, 00H ; `string'
CONST	ENDS
;	COMDAT ??_C@_1LK@JJJMOBEL@?$AAC?$AA?3?$AA?2?$AAU?$AAs?$AAe?$AAr?$AAs?$AA?2?$AAk?$AAs?$AAa?$AAr?$AAt?$AA?2@
CONST	SEGMENT
??_C@_1LK@JJJMOBEL@?$AAC?$AA?3?$AA?2?$AAU?$AAs?$AAe?$AAr?$AAs?$AA?2?$AAk?$AAs?$AAa?$AAr?$AAt?$AA?2@ DB 'C'
	DB	00H, ':', 00H, '\', 00H, 'U', 00H, 's', 00H, 'e', 00H, 'r', 00H
	DB	's', 00H, '\', 00H, 'k', 00H, 's', 00H, 'a', 00H, 'r', 00H, 't'
	DB	00H, '\', 00H, 'O', 00H, 'n', 00H, 'e', 00H, 'D', 00H, 'r', 00H
	DB	'i', 00H, 'v', 00H, 'e', 00H, '\', 00H, 'D', 00H, 'e', 00H, 's'
	DB	00H, 'k', 00H, 't', 00H, 'o', 00H, 'p', 00H, '\', 00H, 'F', 00H
	DB	'l', 00H, 'a', 00H, 'p', 00H, 'p', 00H, 'y', 00H, 'B', 00H, 'i'
	DB	00H, 'r', 00H, 'd', 00H, '\', 00H, 'l', 00H, 'i', 00H, 'b', 00H
	DB	'r', 00H, 'a', 00H, 'r', 00H, 'i', 00H, 'e', 00H, 's', 00H, '\'
	DB	00H, 'e', 00H, 'x', 00H, 't', 00H, 'e', 00H, 'r', 00H, 'n', 00H
	DB	'a', 00H, 'l', 00H, '\', 00H, 'g', 00H, 'l', 00H, 'm', 00H, '\'
	DB	00H, 'g', 00H, 'l', 00H, 'm', 00H, '\', 00H, 'd', 00H, 'e', 00H
	DB	't', 00H, 'a', 00H, 'i', 00H, 'l', 00H, '\', 00H, 't', 00H, 'y'
	DB	00H, 'p', 00H, 'e', 00H, '_', 00H, 'm', 00H, 'a', 00H, 't', 00H
	DB	'3', 00H, 'x', 00H, '3', 00H, '.', 00H, 'i', 00H, 'n', 00H, 'l'
	DB	00H, 00H, 00H				; `string'
CONST	ENDS
;	COMDAT xdata
xdata	SEGMENT
$unwind$??$?XM@?$tvec4@M$0A@@glm@@QEAAAEAU01@M@Z DD 031101H
	DD	0700d8211H
	DD	0600cH
xdata	ENDS
;	COMDAT xdata
xdata	SEGMENT
$unwind$?call@?$compute_vec4_add@M$0A@$0A@@detail@glm@@SA?AU?$tvec4@M$0A@@3@AEBU43@0@Z DD 021401H
	DD	070107214H
xdata	ENDS
;	COMDAT xdata
xdata	SEGMENT
$unwind$?call@?$compute_vec4_mul@M$0A@$0A@@detail@glm@@SA?AU?$tvec4@M$0A@@3@AEBU43@0@Z DD 021401H
	DD	070107214H
xdata	ENDS
;	COMDAT xdata
xdata	SEGMENT
$unwind$?call@?$compute_vec4_sub@M$0A@$0A@@detail@glm@@SA?AU?$tvec4@M$0A@@3@AEBU43@0@Z DD 021401H
	DD	070107214H
xdata	ENDS
;	COMDAT xdata
xdata	SEGMENT
$unwind$?call@?$functor1@MM$0A@Utvec3@glm@@@detail@glm@@SA?AU?$tvec3@M$0A@@3@P6AMM@ZAEBU43@@Z DD 021401H
	DD	070105214H
xdata	ENDS
;	COMDAT xdata
xdata	SEGMENT
$unwind$?call@?$functor1@MM$0A@Utvec4@glm@@@detail@glm@@SA?AU?$tvec4@M$0A@@3@P6AMM@ZAEBU43@@Z DD 021401H
	DD	070107214H
xdata	ENDS
;	COMDAT xdata
xdata	SEGMENT
$unwind$??$?DM$0A@@glm@@YA?AU?$tvec4@M$0A@@0@AEBU10@M@Z DD 031601H
	DD	070126216H
	DD	06011H
xdata	ENDS
;	COMDAT xdata
xdata	SEGMENT
$unwind$??$?YM@?$tvec4@M$0A@@glm@@QEAAAEAU01@AEBU01@@Z DD 031001H
	DD	0700c8210H
	DD	0600bH
xdata	ENDS
;	COMDAT xdata
xdata	SEGMENT
$unwind$??$?XM@?$tvec4@M$0A@@glm@@QEAAAEAU01@AEBU01@@Z DD 031001H
	DD	0700c8210H
	DD	0600bH
xdata	ENDS
;	COMDAT xdata
xdata	SEGMENT
$unwind$?call@?$compute_abs_vector@M$0A@Utvec4@glm@@$0A@@detail@glm@@SA?AU?$tvec4@M$0A@@3@AEBU43@@Z DD 020f01H
	DD	0700b320fH
xdata	ENDS
;	COMDAT xdata
xdata	SEGMENT
$unwind$??$?ZM@?$tvec4@M$0A@@glm@@QEAAAEAU01@AEBU01@@Z DD 031001H
	DD	0700c8210H
	DD	0600bH
xdata	ENDS
;	COMDAT xdata
xdata	SEGMENT
$unwind$??$?GM$0A@@glm@@YA?AU?$tvec3@M$0A@@0@AEBU10@@Z DD 020f01H
	DD	0700b520fH
xdata	ENDS
;	COMDAT xdata
xdata	SEGMENT
$unwind$?call@?$compute_abs_vector@M$0A@Utvec3@glm@@$0A@@detail@glm@@SA?AU?$tvec3@M$0A@@3@AEBU43@@Z DD 020f01H
	DD	0700b320fH
xdata	ENDS
;	COMDAT xdata
xdata	SEGMENT
$unwind$??$?GM$0A@@glm@@YA?AU?$tvec2@M$0A@@0@AEBU10@@Z DD 020f01H
	DD	0700b320fH
xdata	ENDS
;	COMDAT voltbl
voltbl	SEGMENT
_volmd	DW	036H
	DW	0221H
voltbl	ENDS
;	COMDAT xdata
xdata	SEGMENT
$unwind$?call@?$compute_inverse@Utmat2x2@glm@@M$0A@$0A@@detail@glm@@SA?AU?$tmat2x2@M$0A@@3@AEBU43@@Z DD 043e19H
	DD	0150113H
	DD	0600b700cH
	DD	imagerel __GSHandlerCheck
	DD	098H
xdata	ENDS
;	COMDAT CONST
CONST	SEGMENT
?call@?$compute_inverse@Utmat2x2@glm@@M$0A@$0A@@detail@glm@@SA?AU?$tmat2x2@M$0A@@3@AEBU43@@Z$rtcName$0 DB 049H ; glm::detail::compute_inverse<glm::tmat2x2,float,0,0>::call
	DB	06eH
	DB	076H
	DB	065H
	DB	072H
	DB	073H
	DB	065H
	DB	00H
	ORG $+8
?call@?$compute_inverse@Utmat2x2@glm@@M$0A@$0A@@detail@glm@@SA?AU?$tmat2x2@M$0A@@3@AEBU43@@Z$rtcVarDesc DD 048H ; glm::detail::compute_inverse<glm::tmat2x2,float,0,0>::call
	DD	010H
	DQ	FLAT:?call@?$compute_inverse@Utmat2x2@glm@@M$0A@$0A@@detail@glm@@SA?AU?$tmat2x2@M$0A@@3@AEBU43@@Z$rtcName$0
	ORG $+48
?call@?$compute_inverse@Utmat2x2@glm@@M$0A@$0A@@detail@glm@@SA?AU?$tmat2x2@M$0A@@3@AEBU43@@Z$rtcFrameData DD 01H ; glm::detail::compute_inverse<glm::tmat2x2,float,0,0>::call
	DD	00H
	DQ	FLAT:?call@?$compute_inverse@Utmat2x2@glm@@M$0A@$0A@@detail@glm@@SA?AU?$tmat2x2@M$0A@@3@AEBU43@@Z$rtcVarDesc
CONST	ENDS
;	COMDAT xdata
xdata	SEGMENT
$unwind$??$?DM$0A@@glm@@YA?AU?$tmat4x4@M$0A@@0@AEBU10@AEBM@Z DD 031701H
	DD	0120117H
	DD	07010H
xdata	ENDS
;	COMDAT xdata
xdata	SEGMENT
$unwind$??$?0HHHH@?$tvec4@M$0A@@glm@@QEAA@HHHH@Z DD 011401H
	DD	07014H
xdata	ENDS
;	COMDAT xdata
xdata	SEGMENT
$unwind$??$?HM$0A@@glm@@YA?AU?$tvec4@M$0A@@0@AEBU10@0@Z DD 031501H
	DD	070116215H
	DD	06010H
xdata	ENDS
;	COMDAT xdata
xdata	SEGMENT
$unwind$??$?DM$0A@@glm@@YA?AU?$tvec4@M$0A@@0@AEBU10@0@Z DD 031501H
	DD	070116215H
	DD	06010H
xdata	ENDS
;	COMDAT xdata
xdata	SEGMENT
$unwind$??$lessThan@M$0A@Utvec4@glm@@@glm@@YA?AU?$tvec4@_N$0A@@0@AEBU?$tvec4@M$0A@@0@0@Z DD 022a01H
	DD	070109214H
xdata	ENDS
;	COMDAT CONST
CONST	SEGMENT
??$lessThan@M$0A@Utvec4@glm@@@glm@@YA?AU?$tvec4@_N$0A@@0@AEBU?$tvec4@M$0A@@0@0@Z$rtcName$0 DB 052H ; glm::lessThan<float,0,glm::tvec4>
	DB	065H
	DB	073H
	DB	075H
	DB	06cH
	DB	074H
	DB	00H
	ORG $+9
??$lessThan@M$0A@Utvec4@glm@@@glm@@YA?AU?$tvec4@_N$0A@@0@AEBU?$tvec4@M$0A@@0@0@Z$rtcVarDesc DD 024H ; glm::lessThan<float,0,glm::tvec4>
	DD	04H
	DQ	FLAT:??$lessThan@M$0A@Utvec4@glm@@@glm@@YA?AU?$tvec4@_N$0A@@0@AEBU?$tvec4@M$0A@@0@0@Z$rtcName$0
	ORG $+48
??$lessThan@M$0A@Utvec4@glm@@@glm@@YA?AU?$tvec4@_N$0A@@0@AEBU?$tvec4@M$0A@@0@0@Z$rtcFrameData DD 01H ; glm::lessThan<float,0,glm::tvec4>
	DD	00H
	DQ	FLAT:??$lessThan@M$0A@Utvec4@glm@@@glm@@YA?AU?$tvec4@_N$0A@@0@AEBU?$tvec4@M$0A@@0@0@Z$rtcVarDesc
CONST	ENDS
;	COMDAT xdata
xdata	SEGMENT
$unwind$??$abs@M$0A@Utvec4@glm@@@glm@@YA?AU?$tvec4@M$0A@@0@AEBU10@@Z DD 020f01H
	DD	0700b320fH
xdata	ENDS
;	COMDAT xdata
xdata	SEGMENT
$unwind$??$?GM$0A@@glm@@YA?AU?$tvec4@M$0A@@0@AEBU10@0@Z DD 031501H
	DD	070116215H
	DD	06010H
xdata	ENDS
;	COMDAT voltbl
voltbl	SEGMENT
_volmd	DW	035H
	DW	01746H
voltbl	ENDS
;	COMDAT xdata
xdata	SEGMENT
$unwind$?call@?$compute_inverse@Utmat4x4@glm@@M$0A@$0A@@detail@glm@@SA?AU?$tmat4x4@M$0A@@3@AEBU43@@Z DD 033d19H
	DD	01060112H
	DD	0700bH
	DD	imagerel __GSHandlerCheck
	DD	0820H
xdata	ENDS
;	COMDAT CONST
CONST	SEGMENT
?call@?$compute_inverse@Utmat4x4@glm@@M$0A@$0A@@detail@glm@@SA?AU?$tmat4x4@M$0A@@3@AEBU43@@Z$rtcName$0 DB 046H ; glm::detail::compute_inverse<glm::tmat4x4,float,0,0>::call
	DB	061H
	DB	063H
	DB	030H
	DB	00H
	ORG $+3
?call@?$compute_inverse@Utmat4x4@glm@@M$0A@$0A@@detail@glm@@SA?AU?$tmat4x4@M$0A@@3@AEBU43@@Z$rtcName$1 DB 046H ; glm::detail::compute_inverse<glm::tmat4x4,float,0,0>::call
	DB	061H
	DB	063H
	DB	031H
	DB	00H
	ORG $+3
?call@?$compute_inverse@Utmat4x4@glm@@M$0A@$0A@@detail@glm@@SA?AU?$tmat4x4@M$0A@@3@AEBU43@@Z$rtcName$2 DB 046H ; glm::detail::compute_inverse<glm::tmat4x4,float,0,0>::call
	DB	061H
	DB	063H
	DB	032H
	DB	00H
	ORG $+3
?call@?$compute_inverse@Utmat4x4@glm@@M$0A@$0A@@detail@glm@@SA?AU?$tmat4x4@M$0A@@3@AEBU43@@Z$rtcName$3 DB 046H ; glm::detail::compute_inverse<glm::tmat4x4,float,0,0>::call
	DB	061H
	DB	063H
	DB	033H
	DB	00H
	ORG $+3
?call@?$compute_inverse@Utmat4x4@glm@@M$0A@$0A@@detail@glm@@SA?AU?$tmat4x4@M$0A@@3@AEBU43@@Z$rtcName$4 DB 046H ; glm::detail::compute_inverse<glm::tmat4x4,float,0,0>::call
	DB	061H
	DB	063H
	DB	034H
	DB	00H
	ORG $+3
?call@?$compute_inverse@Utmat4x4@glm@@M$0A@$0A@@detail@glm@@SA?AU?$tmat4x4@M$0A@@3@AEBU43@@Z$rtcName$5 DB 046H ; glm::detail::compute_inverse<glm::tmat4x4,float,0,0>::call
	DB	061H
	DB	063H
	DB	035H
	DB	00H
	ORG $+3
?call@?$compute_inverse@Utmat4x4@glm@@M$0A@$0A@@detail@glm@@SA?AU?$tmat4x4@M$0A@@3@AEBU43@@Z$rtcName$6 DB 056H ; glm::detail::compute_inverse<glm::tmat4x4,float,0,0>::call
	DB	065H
	DB	063H
	DB	030H
	DB	00H
	ORG $+3
?call@?$compute_inverse@Utmat4x4@glm@@M$0A@$0A@@detail@glm@@SA?AU?$tmat4x4@M$0A@@3@AEBU43@@Z$rtcName$7 DB 056H ; glm::detail::compute_inverse<glm::tmat4x4,float,0,0>::call
	DB	065H
	DB	063H
	DB	031H
	DB	00H
	ORG $+3
?call@?$compute_inverse@Utmat4x4@glm@@M$0A@$0A@@detail@glm@@SA?AU?$tmat4x4@M$0A@@3@AEBU43@@Z$rtcName$8 DB 056H ; glm::detail::compute_inverse<glm::tmat4x4,float,0,0>::call
	DB	065H
	DB	063H
	DB	032H
	DB	00H
	ORG $+3
?call@?$compute_inverse@Utmat4x4@glm@@M$0A@$0A@@detail@glm@@SA?AU?$tmat4x4@M$0A@@3@AEBU43@@Z$rtcName$9 DB 056H ; glm::detail::compute_inverse<glm::tmat4x4,float,0,0>::call
	DB	065H
	DB	063H
	DB	033H
	DB	00H
	ORG $+3
?call@?$compute_inverse@Utmat4x4@glm@@M$0A@$0A@@detail@glm@@SA?AU?$tmat4x4@M$0A@@3@AEBU43@@Z$rtcName$10 DB 049H ; glm::detail::compute_inverse<glm::tmat4x4,float,0,0>::call
	DB	06eH
	DB	076H
	DB	030H
	DB	00H
	ORG $+3
?call@?$compute_inverse@Utmat4x4@glm@@M$0A@$0A@@detail@glm@@SA?AU?$tmat4x4@M$0A@@3@AEBU43@@Z$rtcName$11 DB 049H ; glm::detail::compute_inverse<glm::tmat4x4,float,0,0>::call
	DB	06eH
	DB	076H
	DB	031H
	DB	00H
	ORG $+3
?call@?$compute_inverse@Utmat4x4@glm@@M$0A@$0A@@detail@glm@@SA?AU?$tmat4x4@M$0A@@3@AEBU43@@Z$rtcName$12 DB 049H ; glm::detail::compute_inverse<glm::tmat4x4,float,0,0>::call
	DB	06eH
	DB	076H
	DB	032H
	DB	00H
	ORG $+3
?call@?$compute_inverse@Utmat4x4@glm@@M$0A@$0A@@detail@glm@@SA?AU?$tmat4x4@M$0A@@3@AEBU43@@Z$rtcName$13 DB 049H ; glm::detail::compute_inverse<glm::tmat4x4,float,0,0>::call
	DB	06eH
	DB	076H
	DB	033H
	DB	00H
	ORG $+3
?call@?$compute_inverse@Utmat4x4@glm@@M$0A@$0A@@detail@glm@@SA?AU?$tmat4x4@M$0A@@3@AEBU43@@Z$rtcName$14 DB 053H ; glm::detail::compute_inverse<glm::tmat4x4,float,0,0>::call
	DB	069H
	DB	067H
	DB	06eH
	DB	041H
	DB	00H
	ORG $+2
?call@?$compute_inverse@Utmat4x4@glm@@M$0A@$0A@@detail@glm@@SA?AU?$tmat4x4@M$0A@@3@AEBU43@@Z$rtcName$15 DB 053H ; glm::detail::compute_inverse<glm::tmat4x4,float,0,0>::call
	DB	069H
	DB	067H
	DB	06eH
	DB	042H
	DB	00H
	ORG $+2
?call@?$compute_inverse@Utmat4x4@glm@@M$0A@$0A@@detail@glm@@SA?AU?$tmat4x4@M$0A@@3@AEBU43@@Z$rtcName$16 DB 049H ; glm::detail::compute_inverse<glm::tmat4x4,float,0,0>::call
	DB	06eH
	DB	076H
	DB	065H
	DB	072H
	DB	073H
	DB	065H
	DB	00H
?call@?$compute_inverse@Utmat4x4@glm@@M$0A@$0A@@detail@glm@@SA?AU?$tmat4x4@M$0A@@3@AEBU43@@Z$rtcName$17 DB 052H ; glm::detail::compute_inverse<glm::tmat4x4,float,0,0>::call
	DB	06fH
	DB	077H
	DB	030H
	DB	00H
	ORG $+3
?call@?$compute_inverse@Utmat4x4@glm@@M$0A@$0A@@detail@glm@@SA?AU?$tmat4x4@M$0A@@3@AEBU43@@Z$rtcName$18 DB 044H ; glm::detail::compute_inverse<glm::tmat4x4,float,0,0>::call
	DB	06fH
	DB	074H
	DB	030H
	DB	00H
	ORG $+3
?call@?$compute_inverse@Utmat4x4@glm@@M$0A@$0A@@detail@glm@@SA?AU?$tmat4x4@M$0A@@3@AEBU43@@Z$rtcName$19 DB 04fH ; glm::detail::compute_inverse<glm::tmat4x4,float,0,0>::call
	DB	06eH
	DB	065H
	DB	04fH
	DB	076H
	DB	065H
	DB	072H
	DB	044H
	DB	065H
	DB	074H
	DB	065H
	DB	072H
	DB	06dH
	DB	069H
	DB	06eH
	DB	061H
	DB	06eH
	DB	074H
	DB	00H
	ORG $+5
?call@?$compute_inverse@Utmat4x4@glm@@M$0A@$0A@@detail@glm@@SA?AU?$tmat4x4@M$0A@@3@AEBU43@@Z$rtcVarDesc DD 0444H ; glm::detail::compute_inverse<glm::tmat4x4,float,0,0>::call
	DD	04H
	DQ	FLAT:?call@?$compute_inverse@Utmat4x4@glm@@M$0A@$0A@@detail@glm@@SA?AU?$tmat4x4@M$0A@@3@AEBU43@@Z$rtcName$19
	DD	0418H
	DD	010H
	DQ	FLAT:?call@?$compute_inverse@Utmat4x4@glm@@M$0A@$0A@@detail@glm@@SA?AU?$tmat4x4@M$0A@@3@AEBU43@@Z$rtcName$18
	DD	03e8H
	DD	010H
	DQ	FLAT:?call@?$compute_inverse@Utmat4x4@glm@@M$0A@$0A@@detail@glm@@SA?AU?$tmat4x4@M$0A@@3@AEBU43@@Z$rtcName$17
	DD	0390H
	DD	040H
	DQ	FLAT:?call@?$compute_inverse@Utmat4x4@glm@@M$0A@$0A@@detail@glm@@SA?AU?$tmat4x4@M$0A@@3@AEBU43@@Z$rtcName$16
	DD	0358H
	DD	010H
	DQ	FLAT:?call@?$compute_inverse@Utmat4x4@glm@@M$0A@$0A@@detail@glm@@SA?AU?$tmat4x4@M$0A@@3@AEBU43@@Z$rtcName$15
	DD	0328H
	DD	010H
	DQ	FLAT:?call@?$compute_inverse@Utmat4x4@glm@@M$0A@$0A@@detail@glm@@SA?AU?$tmat4x4@M$0A@@3@AEBU43@@Z$rtcName$14
	DD	02f8H
	DD	010H
	DQ	FLAT:?call@?$compute_inverse@Utmat4x4@glm@@M$0A@$0A@@detail@glm@@SA?AU?$tmat4x4@M$0A@@3@AEBU43@@Z$rtcName$13
	DD	02c8H
	DD	010H
	DQ	FLAT:?call@?$compute_inverse@Utmat4x4@glm@@M$0A@$0A@@detail@glm@@SA?AU?$tmat4x4@M$0A@@3@AEBU43@@Z$rtcName$12
	DD	0298H
	DD	010H
	DQ	FLAT:?call@?$compute_inverse@Utmat4x4@glm@@M$0A@$0A@@detail@glm@@SA?AU?$tmat4x4@M$0A@@3@AEBU43@@Z$rtcName$11
	DD	0268H
	DD	010H
	DQ	FLAT:?call@?$compute_inverse@Utmat4x4@glm@@M$0A@$0A@@detail@glm@@SA?AU?$tmat4x4@M$0A@@3@AEBU43@@Z$rtcName$10
	DD	0238H
	DD	010H
	DQ	FLAT:?call@?$compute_inverse@Utmat4x4@glm@@M$0A@$0A@@detail@glm@@SA?AU?$tmat4x4@M$0A@@3@AEBU43@@Z$rtcName$9
	DD	0208H
	DD	010H
	DQ	FLAT:?call@?$compute_inverse@Utmat4x4@glm@@M$0A@$0A@@detail@glm@@SA?AU?$tmat4x4@M$0A@@3@AEBU43@@Z$rtcName$8
	DD	01d8H
	DD	010H
	DQ	FLAT:?call@?$compute_inverse@Utmat4x4@glm@@M$0A@$0A@@detail@glm@@SA?AU?$tmat4x4@M$0A@@3@AEBU43@@Z$rtcName$7
	DD	01a8H
	DD	010H
	DQ	FLAT:?call@?$compute_inverse@Utmat4x4@glm@@M$0A@$0A@@detail@glm@@SA?AU?$tmat4x4@M$0A@@3@AEBU43@@Z$rtcName$6
	DD	0178H
	DD	010H
	DQ	FLAT:?call@?$compute_inverse@Utmat4x4@glm@@M$0A@$0A@@detail@glm@@SA?AU?$tmat4x4@M$0A@@3@AEBU43@@Z$rtcName$5
	DD	0148H
	DD	010H
	DQ	FLAT:?call@?$compute_inverse@Utmat4x4@glm@@M$0A@$0A@@detail@glm@@SA?AU?$tmat4x4@M$0A@@3@AEBU43@@Z$rtcName$4
	DD	0118H
	DD	010H
	DQ	FLAT:?call@?$compute_inverse@Utmat4x4@glm@@M$0A@$0A@@detail@glm@@SA?AU?$tmat4x4@M$0A@@3@AEBU43@@Z$rtcName$3
	DD	0e8H
	DD	010H
	DQ	FLAT:?call@?$compute_inverse@Utmat4x4@glm@@M$0A@$0A@@detail@glm@@SA?AU?$tmat4x4@M$0A@@3@AEBU43@@Z$rtcName$2
	DD	0b8H
	DD	010H
	DQ	FLAT:?call@?$compute_inverse@Utmat4x4@glm@@M$0A@$0A@@detail@glm@@SA?AU?$tmat4x4@M$0A@@3@AEBU43@@Z$rtcName$1
	DD	088H
	DD	010H
	DQ	FLAT:?call@?$compute_inverse@Utmat4x4@glm@@M$0A@$0A@@detail@glm@@SA?AU?$tmat4x4@M$0A@@3@AEBU43@@Z$rtcName$0
	ORG $+960
?call@?$compute_inverse@Utmat4x4@glm@@M$0A@$0A@@detail@glm@@SA?AU?$tmat4x4@M$0A@@3@AEBU43@@Z$rtcFrameData DD 014H ; glm::detail::compute_inverse<glm::tmat4x4,float,0,0>::call
	DD	00H
	DQ	FLAT:?call@?$compute_inverse@Utmat4x4@glm@@M$0A@$0A@@detail@glm@@SA?AU?$tmat4x4@M$0A@@3@AEBU43@@Z$rtcVarDesc
CONST	ENDS
;	COMDAT xdata
xdata	SEGMENT
$unwind$??$?DM$0A@@glm@@YA?AU?$tvec3@M$0A@@0@AEBU?$tmat3x3@M$0A@@0@AEBU10@@Z DD 021401H
	DD	070107214H
xdata	ENDS
;	COMDAT xdata
xdata	SEGMENT
$unwind$??$?0M$0A@@?$tvec3@M$0A@@glm@@QEAA@AEBU?$tvec4@M$0A@@1@@Z DD 010b01H
	DD	0700bH
xdata	ENDS
;	COMDAT xdata
xdata	SEGMENT
$unwind$??$?GM$0A@@glm@@YA?AU?$tmat3x3@M$0A@@0@AEBU10@@Z DD 020f01H
	DD	0700bb20fH
xdata	ENDS
;	COMDAT xdata
xdata	SEGMENT
$unwind$??$?0MM$0A@@?$tvec4@M$0A@@glm@@QEAA@AEBU?$tvec3@M$0A@@1@M@Z DD 011101H
	DD	07011H
xdata	ENDS
;	COMDAT xdata
xdata	SEGMENT
$unwind$??$lessThan@M$0A@Utvec3@glm@@@glm@@YA?AU?$tvec3@_N$0A@@0@AEBU?$tvec3@M$0A@@0@0@Z DD 032b01H
	DD	07011a215H
	DD	06010H
xdata	ENDS
;	COMDAT CONST
CONST	SEGMENT
??$lessThan@M$0A@Utvec3@glm@@@glm@@YA?AU?$tvec3@_N$0A@@0@AEBU?$tvec3@M$0A@@0@0@Z$rtcName$0 DB 052H ; glm::lessThan<float,0,glm::tvec3>
	DB	065H
	DB	073H
	DB	075H
	DB	06cH
	DB	074H
	DB	00H
	ORG $+9
??$lessThan@M$0A@Utvec3@glm@@@glm@@YA?AU?$tvec3@_N$0A@@0@AEBU?$tvec3@M$0A@@0@0@Z$rtcVarDesc DD 024H ; glm::lessThan<float,0,glm::tvec3>
	DD	03H
	DQ	FLAT:??$lessThan@M$0A@Utvec3@glm@@@glm@@YA?AU?$tvec3@_N$0A@@0@AEBU?$tvec3@M$0A@@0@0@Z$rtcName$0
	ORG $+48
??$lessThan@M$0A@Utvec3@glm@@@glm@@YA?AU?$tvec3@_N$0A@@0@AEBU?$tvec3@M$0A@@0@0@Z$rtcFrameData DD 01H ; glm::lessThan<float,0,glm::tvec3>
	DD	00H
	DQ	FLAT:??$lessThan@M$0A@Utvec3@glm@@@glm@@YA?AU?$tvec3@_N$0A@@0@AEBU?$tvec3@M$0A@@0@0@Z$rtcVarDesc
CONST	ENDS
;	COMDAT xdata
xdata	SEGMENT
$unwind$??$abs@M$0A@Utvec3@glm@@@glm@@YA?AU?$tvec3@M$0A@@0@AEBU10@@Z DD 020f01H
	DD	0700b320fH
xdata	ENDS
;	COMDAT xdata
xdata	SEGMENT
$unwind$??$?GM$0A@@glm@@YA?AU?$tvec3@M$0A@@0@AEBU10@0@Z DD 021401H
	DD	070105214H
xdata	ENDS
;	COMDAT voltbl
voltbl	SEGMENT
_volmd	DW	036H
	DW	0c45H
voltbl	ENDS
;	COMDAT xdata
xdata	SEGMENT
$unwind$?call@?$compute_inverse@Utmat3x3@glm@@M$0A@$0A@@detail@glm@@SA?AU?$tmat3x3@M$0A@@3@AEBU43@@Z DD 043e19H
	DD	0430113H
	DD	0600b700cH
	DD	imagerel __GSHandlerCheck
	DD	0200H
xdata	ENDS
;	COMDAT CONST
CONST	SEGMENT
?call@?$compute_inverse@Utmat3x3@glm@@M$0A@$0A@@detail@glm@@SA?AU?$tmat3x3@M$0A@@3@AEBU43@@Z$rtcName$0 DB 049H ; glm::detail::compute_inverse<glm::tmat3x3,float,0,0>::call
	DB	06eH
	DB	076H
	DB	065H
	DB	072H
	DB	073H
	DB	065H
	DB	00H
	ORG $+8
?call@?$compute_inverse@Utmat3x3@glm@@M$0A@$0A@@detail@glm@@SA?AU?$tmat3x3@M$0A@@3@AEBU43@@Z$rtcVarDesc DD 038H ; glm::detail::compute_inverse<glm::tmat3x3,float,0,0>::call
	DD	024H
	DQ	FLAT:?call@?$compute_inverse@Utmat3x3@glm@@M$0A@$0A@@detail@glm@@SA?AU?$tmat3x3@M$0A@@3@AEBU43@@Z$rtcName$0
	ORG $+48
?call@?$compute_inverse@Utmat3x3@glm@@M$0A@$0A@@detail@glm@@SA?AU?$tmat3x3@M$0A@@3@AEBU43@@Z$rtcFrameData DD 01H ; glm::detail::compute_inverse<glm::tmat3x3,float,0,0>::call
	DD	00H
	DQ	FLAT:?call@?$compute_inverse@Utmat3x3@glm@@M$0A@$0A@@detail@glm@@SA?AU?$tmat3x3@M$0A@@3@AEBU43@@Z$rtcVarDesc
CONST	ENDS
;	COMDAT xdata
xdata	SEGMENT
$unwind$??$?DM$0A@@glm@@YA?AU?$tvec2@M$0A@@0@AEBU?$tmat2x2@M$0A@@0@AEBU10@@Z DD 021401H
	DD	070105214H
xdata	ENDS
;	COMDAT xdata
xdata	SEGMENT
$unwind$??$?0M$0A@@?$tvec2@M$0A@@glm@@QEAA@AEBU?$tvec3@M$0A@@1@@Z DD 010b01H
	DD	0700bH
xdata	ENDS
;	COMDAT xdata
xdata	SEGMENT
$unwind$??$?GM$0A@@glm@@YA?AU?$tmat2x2@M$0A@@0@AEBU10@@Z DD 020f01H
	DD	0700b720fH
xdata	ENDS
;	COMDAT xdata
xdata	SEGMENT
$unwind$??$?0MM$0A@@?$tvec3@M$0A@@glm@@QEAA@AEBU?$tvec2@M$0A@@1@M@Z DD 011101H
	DD	07011H
xdata	ENDS
;	COMDAT xdata
xdata	SEGMENT
$unwind$??$inverse@M$0A@Utmat2x2@glm@@@glm@@YA?AU?$tmat2x2@M$0A@@0@AEBU10@@Z DD 020f01H
	DD	0700b320fH
xdata	ENDS
;	COMDAT xdata
xdata	SEGMENT
$unwind$??A?$tmat2x2@M$0A@@glm@@QEBAAEBU?$tvec2@M$0A@@1@H@Z DD 020e01H
	DD	0700a320eH
xdata	ENDS
;	COMDAT xdata
xdata	SEGMENT
$unwind$?length@?$tmat2x2@M$0A@@glm@@SAHXZ DD 010201H
	DD	07002H
xdata	ENDS
;	COMDAT xdata
xdata	SEGMENT
$unwind$??0?$tmat2x2@M$0A@@glm@@QEAA@AEBU?$tmat3x3@M$0A@@1@@Z DD 020f01H
	DD	0700b520fH
xdata	ENDS
;	COMDAT xdata
xdata	SEGMENT
$unwind$??0?$tmat2x2@M$0A@@glm@@QEAA@AEBU?$tvec2@M$0A@@1@0@Z DD 021401H
	DD	070103214H
xdata	ENDS
;	COMDAT xdata
xdata	SEGMENT
$unwind$??0?$tmat2x2@M$0A@@glm@@QEAA@AEBM000@Z DD 021901H
	DD	070155219H
xdata	ENDS
;	COMDAT xdata
xdata	SEGMENT
$unwind$??0?$tvec2@M$0A@@glm@@QEAA@MM@Z DD 011201H
	DD	07012H
xdata	ENDS
;	COMDAT xdata
xdata	SEGMENT
$unwind$??0?$tvec2@M$0A@@glm@@QEAA@XZ DD 010601H
	DD	07006H
xdata	ENDS
;	COMDAT xdata
xdata	SEGMENT
$unwind$??A?$tvec2@M$0A@@glm@@QEBAAEBMH@Z DD 020e01H
	DD	0700a320eH
xdata	ENDS
;	COMDAT xdata
xdata	SEGMENT
$unwind$?length@?$tvec2@M$0A@@glm@@SAHXZ DD 010201H
	DD	07002H
xdata	ENDS
;	COMDAT xdata
xdata	SEGMENT
$unwind$?call@?$compute_abs@M$00@detail@glm@@SAMM@Z DD 020b01H
	DD	07007320bH
xdata	ENDS
;	COMDAT xdata
xdata	SEGMENT
$unwind$??$all@$0A@Utvec4@glm@@@glm@@YA_NAEBU?$tvec4@_N$0A@@0@@Z DD 020a01H
	DD	07006520aH
xdata	ENDS
;	COMDAT xdata
xdata	SEGMENT
$unwind$??0?$tvec4@_N$0A@@glm@@QEAA@W4ctor@1@@Z DD 010a01H
	DD	0700aH
xdata	ENDS
;	COMDAT xdata
xdata	SEGMENT
$unwind$??A?$tvec4@_N$0A@@glm@@QEBAAEB_NH@Z DD 020e01H
	DD	0700a320eH
xdata	ENDS
;	COMDAT xdata
xdata	SEGMENT
$unwind$??A?$tvec4@_N$0A@@glm@@QEAAAEA_NH@Z DD 020e01H
	DD	0700a320eH
xdata	ENDS
;	COMDAT xdata
xdata	SEGMENT
$unwind$?length@?$tvec4@_N$0A@@glm@@SAHXZ DD 010201H
	DD	07002H
xdata	ENDS
;	COMDAT xdata
xdata	SEGMENT
$unwind$??$epsilonEqual@M$0A@Utvec4@glm@@@glm@@YA?AU?$tvec4@_N$0A@@0@AEBU?$tvec4@M$0A@@0@0AEBM@Z DD 021901H
	DD	07015b219H
xdata	ENDS
;	COMDAT xdata
xdata	SEGMENT
$unwind$??$inverse@M$0A@Utmat4x4@glm@@@glm@@YA?AU?$tmat4x4@M$0A@@0@AEBU10@@Z DD 020f01H
	DD	0700b320fH
xdata	ENDS
;	COMDAT voltbl
voltbl	SEGMENT
_volmd	DW	035H
	DW	0196H
voltbl	ENDS
;	COMDAT xdata
xdata	SEGMENT
$unwind$??$affineInverse@M$0A@@glm@@YA?AU?$tmat4x4@M$0A@@0@AEBU10@@Z DD 033d19H
	DD	02a0112H
	DD	0700bH
	DD	imagerel __GSHandlerCheck
	DD	0140H
xdata	ENDS
;	COMDAT CONST
CONST	SEGMENT
??$affineInverse@M$0A@@glm@@YA?AU?$tmat4x4@M$0A@@0@AEBU10@@Z$rtcName$0 DB 049H ; glm::affineInverse<float,0>
	DB	06eH
	DB	076H
	DB	00H
	ORG $+12
??$affineInverse@M$0A@@glm@@YA?AU?$tmat4x4@M$0A@@0@AEBU10@@Z$rtcVarDesc DD 068H ; glm::affineInverse<float,0>
	DD	024H
	DQ	FLAT:??$affineInverse@M$0A@@glm@@YA?AU?$tmat4x4@M$0A@@0@AEBU10@@Z$rtcName$0
	ORG $+48
??$affineInverse@M$0A@@glm@@YA?AU?$tmat4x4@M$0A@@0@AEBU10@@Z$rtcFrameData DD 01H ; glm::affineInverse<float,0>
	DD	00H
	DQ	FLAT:??$affineInverse@M$0A@@glm@@YA?AU?$tmat4x4@M$0A@@0@AEBU10@@Z$rtcVarDesc
CONST	ENDS
;	COMDAT xdata
xdata	SEGMENT
$unwind$??A?$tmat4x4@M$0A@@glm@@QEBAAEBU?$tvec4@M$0A@@1@H@Z DD 020e01H
	DD	0700a320eH
xdata	ENDS
;	COMDAT xdata
xdata	SEGMENT
$unwind$??A?$tmat4x4@M$0A@@glm@@QEAAAEAU?$tvec4@M$0A@@1@H@Z DD 020e01H
	DD	0700a320eH
xdata	ENDS
;	COMDAT xdata
xdata	SEGMENT
$unwind$?length@?$tmat4x4@M$0A@@glm@@SAHXZ DD 010201H
	DD	07002H
xdata	ENDS
;	COMDAT xdata
xdata	SEGMENT
$unwind$??0?$tmat4x4@M$0A@@glm@@QEAA@AEBU?$tvec4@M$0A@@1@000@Z DD 031a01H
	DD	07016421aH
	DD	06015H
xdata	ENDS
;	COMDAT xdata
xdata	SEGMENT
$unwind$??0?$tmat4x4@M$0A@@glm@@QEAA@AEBM000000000000000@Z DD 031a01H
	DD	07016e21aH
	DD	06015H
xdata	ENDS
;	COMDAT xdata
xdata	SEGMENT
$unwind$??0?$tvec4@M$0A@@glm@@QEAA@MMMM@Z DD 011801H
	DD	07018H
xdata	ENDS
;	COMDAT xdata
xdata	SEGMENT
$unwind$??0?$tvec4@M$0A@@glm@@QEAA@M@Z DD 010c01H
	DD	0700cH
xdata	ENDS
;	COMDAT xdata
xdata	SEGMENT
$unwind$??0?$tvec4@M$0A@@glm@@QEAA@XZ DD 010601H
	DD	07006H
xdata	ENDS
;	COMDAT xdata
xdata	SEGMENT
$unwind$??A?$tvec4@M$0A@@glm@@QEBAAEBMH@Z DD 020e01H
	DD	0700a320eH
xdata	ENDS
;	COMDAT xdata
xdata	SEGMENT
$unwind$??A?$tvec4@M$0A@@glm@@QEAAAEAMH@Z DD 020e01H
	DD	0700a320eH
xdata	ENDS
;	COMDAT xdata
xdata	SEGMENT
$unwind$?length@?$tvec4@M$0A@@glm@@SAHXZ DD 010201H
	DD	07002H
xdata	ENDS
;	COMDAT xdata
xdata	SEGMENT
$unwind$??$all@$0A@Utvec3@glm@@@glm@@YA_NAEBU?$tvec3@_N$0A@@0@@Z DD 020a01H
	DD	07006520aH
xdata	ENDS
;	COMDAT xdata
xdata	SEGMENT
$unwind$??0?$tvec3@_N$0A@@glm@@QEAA@W4ctor@1@@Z DD 010a01H
	DD	0700aH
xdata	ENDS
;	COMDAT xdata
xdata	SEGMENT
$unwind$??A?$tvec3@_N$0A@@glm@@QEBAAEB_NH@Z DD 020e01H
	DD	0700a320eH
xdata	ENDS
;	COMDAT xdata
xdata	SEGMENT
$unwind$??A?$tvec3@_N$0A@@glm@@QEAAAEA_NH@Z DD 020e01H
	DD	0700a320eH
xdata	ENDS
;	COMDAT xdata
xdata	SEGMENT
$unwind$?length@?$tvec3@_N$0A@@glm@@SAHXZ DD 010201H
	DD	07002H
xdata	ENDS
;	COMDAT xdata
xdata	SEGMENT
$unwind$??$epsilonEqual@M$0A@Utvec3@glm@@@glm@@YA?AU?$tvec3@_N$0A@@0@AEBU?$tvec3@M$0A@@0@0AEBM@Z DD 021901H
	DD	070159219H
xdata	ENDS
;	COMDAT xdata
xdata	SEGMENT
$unwind$??$inverse@M$0A@Utmat3x3@glm@@@glm@@YA?AU?$tmat3x3@M$0A@@0@AEBU10@@Z DD 020f01H
	DD	0700b320fH
xdata	ENDS
;	COMDAT voltbl
voltbl	SEGMENT
_volmd	DW	035H
	DW	0156H
voltbl	ENDS
;	COMDAT xdata
xdata	SEGMENT
$unwind$??$affineInverse@M$0A@@glm@@YA?AU?$tmat3x3@M$0A@@0@AEBU10@@Z DD 033d19H
	DD	01a0112H
	DD	0700bH
	DD	imagerel __GSHandlerCheck
	DD	0c0H
xdata	ENDS
;	COMDAT CONST
CONST	SEGMENT
??$affineInverse@M$0A@@glm@@YA?AU?$tmat3x3@M$0A@@0@AEBU10@@Z$rtcName$0 DB 049H ; glm::affineInverse<float,0>
	DB	06eH
	DB	076H
	DB	00H
	ORG $+12
??$affineInverse@M$0A@@glm@@YA?AU?$tmat3x3@M$0A@@0@AEBU10@@Z$rtcVarDesc DD 038H ; glm::affineInverse<float,0>
	DD	010H
	DQ	FLAT:??$affineInverse@M$0A@@glm@@YA?AU?$tmat3x3@M$0A@@0@AEBU10@@Z$rtcName$0
	ORG $+48
??$affineInverse@M$0A@@glm@@YA?AU?$tmat3x3@M$0A@@0@AEBU10@@Z$rtcFrameData DD 01H ; glm::affineInverse<float,0>
	DD	00H
	DQ	FLAT:??$affineInverse@M$0A@@glm@@YA?AU?$tmat3x3@M$0A@@0@AEBU10@@Z$rtcVarDesc
CONST	ENDS
;	COMDAT xdata
xdata	SEGMENT
$unwind$??A?$tmat3x3@M$0A@@glm@@QEBAAEBU?$tvec3@M$0A@@1@H@Z DD 020e01H
	DD	0700a320eH
xdata	ENDS
;	COMDAT xdata
xdata	SEGMENT
$unwind$??A?$tmat3x3@M$0A@@glm@@QEAAAEAU?$tvec3@M$0A@@1@H@Z DD 020e01H
	DD	0700a320eH
xdata	ENDS
;	COMDAT xdata
xdata	SEGMENT
$unwind$?length@?$tmat3x3@M$0A@@glm@@SAHXZ DD 010201H
	DD	07002H
xdata	ENDS
;	COMDAT xdata
xdata	SEGMENT
$unwind$??0?$tmat3x3@M$0A@@glm@@QEAA@AEBU?$tmat4x4@M$0A@@1@@Z DD 031001H
	DD	0700ca210H
	DD	0600bH
xdata	ENDS
;	COMDAT xdata
xdata	SEGMENT
$unwind$??0?$tmat3x3@M$0A@@glm@@QEAA@AEBU?$tvec3@M$0A@@1@00@Z DD 031a01H
	DD	07016421aH
	DD	06015H
xdata	ENDS
;	COMDAT xdata
xdata	SEGMENT
$unwind$??0?$tmat3x3@M$0A@@glm@@QEAA@MMMMMMMMM@Z DD 031d01H
	DD	07019a21dH
	DD	06018H
xdata	ENDS
;	COMDAT xdata
xdata	SEGMENT
$unwind$??0?$tmat3x3@M$0A@@glm@@QEAA@W4ctor@1@@Z DD 020e01H
	DD	0700a320eH
xdata	ENDS
;	COMDAT xdata
xdata	SEGMENT
$unwind$??0?$tvec3@M$0A@@glm@@QEAA@MMM@Z DD 011801H
	DD	07018H
xdata	ENDS
;	COMDAT xdata
xdata	SEGMENT
$unwind$??0?$tvec3@M$0A@@glm@@QEAA@M@Z DD 010c01H
	DD	0700cH
xdata	ENDS
;	COMDAT xdata
xdata	SEGMENT
$unwind$??0?$tvec3@M$0A@@glm@@QEAA@XZ DD 010601H
	DD	07006H
xdata	ENDS
;	COMDAT xdata
xdata	SEGMENT
$unwind$??A?$tvec3@M$0A@@glm@@QEBAAEBMH@Z DD 020e01H
	DD	0700a320eH
xdata	ENDS
;	COMDAT xdata
xdata	SEGMENT
$unwind$??A?$tvec3@M$0A@@glm@@QEAAAEAMH@Z DD 020e01H
	DD	0700a320eH
xdata	ENDS
;	COMDAT xdata
xdata	SEGMENT
$unwind$?length@?$tvec3@M$0A@@glm@@SAHXZ DD 010201H
	DD	07002H
xdata	ENDS
voltbl	SEGMENT
_volmd	DD	0ffffffffH
	DDSymXIndex: 	FLAT:?test_affine@@YAHXZ
	DD	027H
	DD	05caH
voltbl	ENDS
xdata	SEGMENT
$unwind$?test_affine@@YAHXZ DD 032f19H
	DD	07a0109H
	DD	07002H
	DD	imagerel __GSHandlerCheck
	DD	03c0H
$unwind$main DD	020601H
	DD	070025206H
xdata	ENDS
CONST	SEGMENT
?test_affine@@YAHXZ$rtcName$0 DB 04dH			; test_affine
	DB	00H
	ORG $+2
?test_affine@@YAHXZ$rtcName$1 DB 041H			; test_affine
	DB	00H
	ORG $+2
?test_affine@@YAHXZ$rtcName$2 DB 049H			; test_affine
	DB	00H
	ORG $+2
?test_affine@@YAHXZ$rtcName$3 DB 052H			; test_affine
	DB	00H
	ORG $+2
?test_affine@@YAHXZ$rtcName$4 DB 04dH			; test_affine
	DB	00H
	ORG $+2
?test_affine@@YAHXZ$rtcName$5 DB 041H			; test_affine
	DB	00H
	ORG $+2
?test_affine@@YAHXZ$rtcName$6 DB 049H			; test_affine
	DB	00H
	ORG $+2
?test_affine@@YAHXZ$rtcName$7 DB 052H			; test_affine
	DB	00H
	ORG $+2
?test_affine@@YAHXZ$rtcVarDesc DD 02d0H			; test_affine
	DD	040H
	DQ	FLAT:?test_affine@@YAHXZ$rtcName$7
	DD	0270H
	DD	040H
	DQ	FLAT:?test_affine@@YAHXZ$rtcName$6
	DD	0210H
	DD	040H
	DQ	FLAT:?test_affine@@YAHXZ$rtcName$5
	DD	01b0H
	DD	040H
	DQ	FLAT:?test_affine@@YAHXZ$rtcName$4
	DD	0168H
	DD	024H
	DQ	FLAT:?test_affine@@YAHXZ$rtcName$3
	DD	0128H
	DD	024H
	DQ	FLAT:?test_affine@@YAHXZ$rtcName$2
	DD	0e8H
	DD	024H
	DQ	FLAT:?test_affine@@YAHXZ$rtcName$1
	DD	0a8H
	DD	024H
	DQ	FLAT:?test_affine@@YAHXZ$rtcName$0
	ORG $+384
?test_affine@@YAHXZ$rtcFrameData DD 08H			; test_affine
	DD	00H
	DQ	FLAT:?test_affine@@YAHXZ$rtcVarDesc
CONST	ENDS
;	COMDAT xdata
xdata	SEGMENT
$unwind$??$abs@M@glm@@YAMM@Z DD 020b01H
	DD	07007520bH
xdata	ENDS
;	COMDAT xdata
xdata	SEGMENT
$unwind$??_H@YAXPEAX_K1P6APEAX0@Z@Z DD 021901H
	DD	070155219H
xdata	ENDS
; Function compile flags: /Odtp /RTCsu
; File C:\Users\ksart\OneDrive\Desktop\FlappyBird\libraries\external\glm\glm\detail\type_vec4.inl
;	COMDAT ??$?XM@?$tvec4@M$0A@@glm@@QEAAAEAU01@M@Z
_TEXT	SEGMENT
$T1 = 32
$T2 = 48
this$ = 96
scalar$ = 104
??$?XM@?$tvec4@M$0A@@glm@@QEAAAEAU01@M@Z PROC		; glm::tvec4<float,0>::operator*=<float>, COMDAT

; 411  : 	{

$LN3:
	movss	DWORD PTR [rsp+16], xmm1
	mov	QWORD PTR [rsp+8], rcx
	push	rsi
	push	rdi
	sub	rsp, 72					; 00000048H

; 412  : 		return (*this = detail::compute_vec4_mul<T, P, detail::is_aligned<P>::value>::call(*this, tvec4<T, P>(scalar)));

	movss	xmm1, DWORD PTR scalar$[rsp]
	lea	rcx, QWORD PTR $T1[rsp]
	call	??0?$tvec4@M$0A@@glm@@QEAA@M@Z		; glm::tvec4<float,0>::tvec4<float,0>
	mov	r8, rax
	mov	rdx, QWORD PTR this$[rsp]
	lea	rcx, QWORD PTR $T2[rsp]
	call	?call@?$compute_vec4_mul@M$0A@$0A@@detail@glm@@SA?AU?$tvec4@M$0A@@3@AEBU43@0@Z ; glm::detail::compute_vec4_mul<float,0,0>::call
	mov	rdi, QWORD PTR this$[rsp]
	mov	rsi, rax
	mov	ecx, 16
	rep movsb
	mov	rax, QWORD PTR this$[rsp]

; 413  : 	}

	add	rsp, 72					; 00000048H
	pop	rdi
	pop	rsi
	ret	0
??$?XM@?$tvec4@M$0A@@glm@@QEAAAEAU01@M@Z ENDP		; glm::tvec4<float,0>::operator*=<float>
_TEXT	ENDS
; Function compile flags: /Odtp /RTCsu
; File C:\Users\ksart\OneDrive\Desktop\FlappyBird\libraries\external\glm\glm\detail\type_vec4.inl
;	COMDAT ?call@?$compute_vec4_add@M$0A@$0A@@detail@glm@@SA?AU?$tvec4@M$0A@@3@AEBU43@0@Z
_TEXT	SEGMENT
tv80 = 48
__$ReturnUdt$ = 80
a$ = 88
b$ = 96
?call@?$compute_vec4_add@M$0A@$0A@@detail@glm@@SA?AU?$tvec4@M$0A@@3@AEBU43@0@Z PROC ; glm::detail::compute_vec4_add<float,0,0>::call, COMDAT

; 41   : 		{

$LN3:
	mov	QWORD PTR [rsp+24], r8
	mov	QWORD PTR [rsp+16], rdx
	mov	QWORD PTR [rsp+8], rcx
	push	rdi
	sub	rsp, 64					; 00000040H

; 42   : 			return tvec4<T, P>(a.x + b.x, a.y + b.y, a.z + b.z, a.w + b.w);

	mov	rax, QWORD PTR a$[rsp]
	mov	rcx, QWORD PTR b$[rsp]
	movss	xmm0, DWORD PTR [rax+12]
	addss	xmm0, DWORD PTR [rcx+12]
	mov	rax, QWORD PTR a$[rsp]
	mov	rcx, QWORD PTR b$[rsp]
	movss	xmm1, DWORD PTR [rax+8]
	addss	xmm1, DWORD PTR [rcx+8]
	mov	rax, QWORD PTR a$[rsp]
	mov	rcx, QWORD PTR b$[rsp]
	movss	xmm2, DWORD PTR [rax+4]
	addss	xmm2, DWORD PTR [rcx+4]
	mov	rax, QWORD PTR a$[rsp]
	mov	rcx, QWORD PTR b$[rsp]
	movss	xmm3, DWORD PTR [rax]
	addss	xmm3, DWORD PTR [rcx]
	movss	DWORD PTR tv80[rsp], xmm3
	movss	DWORD PTR [rsp+32], xmm0
	movaps	xmm3, xmm1
	movss	xmm0, DWORD PTR tv80[rsp]
	movaps	xmm1, xmm0
	mov	rcx, QWORD PTR __$ReturnUdt$[rsp]
	call	??0?$tvec4@M$0A@@glm@@QEAA@MMMM@Z	; glm::tvec4<float,0>::tvec4<float,0>
	mov	rax, QWORD PTR __$ReturnUdt$[rsp]

; 43   : 		}

	add	rsp, 64					; 00000040H
	pop	rdi
	ret	0
?call@?$compute_vec4_add@M$0A@$0A@@detail@glm@@SA?AU?$tvec4@M$0A@@3@AEBU43@0@Z ENDP ; glm::detail::compute_vec4_add<float,0,0>::call
_TEXT	ENDS
; Function compile flags: /Odtp /RTCsu
; File C:\Users\ksart\OneDrive\Desktop\FlappyBird\libraries\external\glm\glm\detail\type_vec4.inl
;	COMDAT ?call@?$compute_vec4_mul@M$0A@$0A@@detail@glm@@SA?AU?$tvec4@M$0A@@3@AEBU43@0@Z
_TEXT	SEGMENT
tv80 = 48
__$ReturnUdt$ = 80
a$ = 88
b$ = 96
?call@?$compute_vec4_mul@M$0A@$0A@@detail@glm@@SA?AU?$tvec4@M$0A@@3@AEBU43@0@Z PROC ; glm::detail::compute_vec4_mul<float,0,0>::call, COMDAT

; 59   : 		{

$LN3:
	mov	QWORD PTR [rsp+24], r8
	mov	QWORD PTR [rsp+16], rdx
	mov	QWORD PTR [rsp+8], rcx
	push	rdi
	sub	rsp, 64					; 00000040H

; 60   : 			return tvec4<T, P>(a.x * b.x, a.y * b.y, a.z * b.z, a.w * b.w);

	mov	rax, QWORD PTR a$[rsp]
	mov	rcx, QWORD PTR b$[rsp]
	movss	xmm0, DWORD PTR [rax+12]
	mulss	xmm0, DWORD PTR [rcx+12]
	mov	rax, QWORD PTR a$[rsp]
	mov	rcx, QWORD PTR b$[rsp]
	movss	xmm1, DWORD PTR [rax+8]
	mulss	xmm1, DWORD PTR [rcx+8]
	mov	rax, QWORD PTR a$[rsp]
	mov	rcx, QWORD PTR b$[rsp]
	movss	xmm2, DWORD PTR [rax+4]
	mulss	xmm2, DWORD PTR [rcx+4]
	mov	rax, QWORD PTR a$[rsp]
	mov	rcx, QWORD PTR b$[rsp]
	movss	xmm3, DWORD PTR [rax]
	mulss	xmm3, DWORD PTR [rcx]
	movss	DWORD PTR tv80[rsp], xmm3
	movss	DWORD PTR [rsp+32], xmm0
	movaps	xmm3, xmm1
	movss	xmm0, DWORD PTR tv80[rsp]
	movaps	xmm1, xmm0
	mov	rcx, QWORD PTR __$ReturnUdt$[rsp]
	call	??0?$tvec4@M$0A@@glm@@QEAA@MMMM@Z	; glm::tvec4<float,0>::tvec4<float,0>
	mov	rax, QWORD PTR __$ReturnUdt$[rsp]

; 61   : 		}

	add	rsp, 64					; 00000040H
	pop	rdi
	ret	0
?call@?$compute_vec4_mul@M$0A@$0A@@detail@glm@@SA?AU?$tvec4@M$0A@@3@AEBU43@0@Z ENDP ; glm::detail::compute_vec4_mul<float,0,0>::call
_TEXT	ENDS
; Function compile flags: /Odtp /RTCsu
; File C:\Users\ksart\OneDrive\Desktop\FlappyBird\libraries\external\glm\glm\detail\type_vec4.inl
;	COMDAT ?call@?$compute_vec4_sub@M$0A@$0A@@detail@glm@@SA?AU?$tvec4@M$0A@@3@AEBU43@0@Z
_TEXT	SEGMENT
tv80 = 48
__$ReturnUdt$ = 80
a$ = 88
b$ = 96
?call@?$compute_vec4_sub@M$0A@$0A@@detail@glm@@SA?AU?$tvec4@M$0A@@3@AEBU43@0@Z PROC ; glm::detail::compute_vec4_sub<float,0,0>::call, COMDAT

; 50   : 		{

$LN3:
	mov	QWORD PTR [rsp+24], r8
	mov	QWORD PTR [rsp+16], rdx
	mov	QWORD PTR [rsp+8], rcx
	push	rdi
	sub	rsp, 64					; 00000040H

; 51   : 			return tvec4<T, P>(a.x - b.x, a.y - b.y, a.z - b.z, a.w - b.w);

	mov	rax, QWORD PTR a$[rsp]
	mov	rcx, QWORD PTR b$[rsp]
	movss	xmm0, DWORD PTR [rax+12]
	subss	xmm0, DWORD PTR [rcx+12]
	mov	rax, QWORD PTR a$[rsp]
	mov	rcx, QWORD PTR b$[rsp]
	movss	xmm1, DWORD PTR [rax+8]
	subss	xmm1, DWORD PTR [rcx+8]
	mov	rax, QWORD PTR a$[rsp]
	mov	rcx, QWORD PTR b$[rsp]
	movss	xmm2, DWORD PTR [rax+4]
	subss	xmm2, DWORD PTR [rcx+4]
	mov	rax, QWORD PTR a$[rsp]
	mov	rcx, QWORD PTR b$[rsp]
	movss	xmm3, DWORD PTR [rax]
	subss	xmm3, DWORD PTR [rcx]
	movss	DWORD PTR tv80[rsp], xmm3
	movss	DWORD PTR [rsp+32], xmm0
	movaps	xmm3, xmm1
	movss	xmm0, DWORD PTR tv80[rsp]
	movaps	xmm1, xmm0
	mov	rcx, QWORD PTR __$ReturnUdt$[rsp]
	call	??0?$tvec4@M$0A@@glm@@QEAA@MMMM@Z	; glm::tvec4<float,0>::tvec4<float,0>
	mov	rax, QWORD PTR __$ReturnUdt$[rsp]

; 52   : 		}

	add	rsp, 64					; 00000040H
	pop	rdi
	ret	0
?call@?$compute_vec4_sub@M$0A@$0A@@detail@glm@@SA?AU?$tvec4@M$0A@@3@AEBU43@0@Z ENDP ; glm::detail::compute_vec4_sub<float,0,0>::call
_TEXT	ENDS
; Function compile flags: /Odtp /RTCsu
; File C:\Users\ksart\OneDrive\Desktop\FlappyBird\libraries\external\glm\glm\detail\_vectorize.hpp
;	COMDAT ?call@?$functor1@MM$0A@Utvec3@glm@@@detail@glm@@SA?AU?$tvec3@M$0A@@3@P6AMM@ZAEBU43@@Z
_TEXT	SEGMENT
tv66 = 32
tv70 = 36
__$ReturnUdt$ = 64
Func$ = 72
v$ = 80
?call@?$functor1@MM$0A@Utvec3@glm@@@detail@glm@@SA?AU?$tvec3@M$0A@@3@P6AMM@ZAEBU43@@Z PROC ; glm::detail::functor1<float,float,0,glm::tvec3>::call, COMDAT

; 39   : 		{

$LN3:
	mov	QWORD PTR [rsp+24], r8
	mov	QWORD PTR [rsp+16], rdx
	mov	QWORD PTR [rsp+8], rcx
	push	rdi
	sub	rsp, 48					; 00000030H

; 40   : 			return tvec3<R, P>(Func(v.x), Func(v.y), Func(v.z));

	mov	rax, QWORD PTR v$[rsp]
	movss	xmm0, DWORD PTR [rax+8]
	call	QWORD PTR Func$[rsp]
	movss	DWORD PTR tv66[rsp], xmm0
	mov	rax, QWORD PTR v$[rsp]
	movss	xmm0, DWORD PTR [rax+4]
	call	QWORD PTR Func$[rsp]
	movss	DWORD PTR tv70[rsp], xmm0
	mov	rax, QWORD PTR v$[rsp]
	movss	xmm0, DWORD PTR [rax]
	call	QWORD PTR Func$[rsp]
	movss	xmm1, DWORD PTR tv66[rsp]
	movaps	xmm3, xmm1
	movss	xmm1, DWORD PTR tv70[rsp]
	movaps	xmm2, xmm1
	movaps	xmm1, xmm0
	mov	rcx, QWORD PTR __$ReturnUdt$[rsp]
	call	??0?$tvec3@M$0A@@glm@@QEAA@MMM@Z	; glm::tvec3<float,0>::tvec3<float,0>
	mov	rax, QWORD PTR __$ReturnUdt$[rsp]

; 41   : 		}

	add	rsp, 48					; 00000030H
	pop	rdi
	ret	0
?call@?$functor1@MM$0A@Utvec3@glm@@@detail@glm@@SA?AU?$tvec3@M$0A@@3@P6AMM@ZAEBU43@@Z ENDP ; glm::detail::functor1<float,float,0,glm::tvec3>::call
_TEXT	ENDS
; Function compile flags: /Odtp /RTCsu
; File C:\Users\ksart\OneDrive\Desktop\FlappyBird\libraries\external\glm\glm\detail\_vectorize.hpp
;	COMDAT ?call@?$functor1@MM$0A@Utvec4@glm@@@detail@glm@@SA?AU?$tvec4@M$0A@@3@P6AMM@ZAEBU43@@Z
_TEXT	SEGMENT
tv66 = 48
tv70 = 52
tv74 = 56
__$ReturnUdt$ = 80
Func$ = 88
v$ = 96
?call@?$functor1@MM$0A@Utvec4@glm@@@detail@glm@@SA?AU?$tvec4@M$0A@@3@P6AMM@ZAEBU43@@Z PROC ; glm::detail::functor1<float,float,0,glm::tvec4>::call, COMDAT

; 48   : 		{

$LN3:
	mov	QWORD PTR [rsp+24], r8
	mov	QWORD PTR [rsp+16], rdx
	mov	QWORD PTR [rsp+8], rcx
	push	rdi
	sub	rsp, 64					; 00000040H

; 49   : 			return tvec4<R, P>(Func(v.x), Func(v.y), Func(v.z), Func(v.w));

	mov	rax, QWORD PTR v$[rsp]
	movss	xmm0, DWORD PTR [rax+12]
	call	QWORD PTR Func$[rsp]
	movss	DWORD PTR tv66[rsp], xmm0
	mov	rax, QWORD PTR v$[rsp]
	movss	xmm0, DWORD PTR [rax+8]
	call	QWORD PTR Func$[rsp]
	movss	DWORD PTR tv70[rsp], xmm0
	mov	rax, QWORD PTR v$[rsp]
	movss	xmm0, DWORD PTR [rax+4]
	call	QWORD PTR Func$[rsp]
	movss	DWORD PTR tv74[rsp], xmm0
	mov	rax, QWORD PTR v$[rsp]
	movss	xmm0, DWORD PTR [rax]
	call	QWORD PTR Func$[rsp]
	movss	xmm1, DWORD PTR tv66[rsp]
	movss	DWORD PTR [rsp+32], xmm1
	movss	xmm1, DWORD PTR tv70[rsp]
	movaps	xmm3, xmm1
	movss	xmm1, DWORD PTR tv74[rsp]
	movaps	xmm2, xmm1
	movaps	xmm1, xmm0
	mov	rcx, QWORD PTR __$ReturnUdt$[rsp]
	call	??0?$tvec4@M$0A@@glm@@QEAA@MMMM@Z	; glm::tvec4<float,0>::tvec4<float,0>
	mov	rax, QWORD PTR __$ReturnUdt$[rsp]

; 50   : 		}

	add	rsp, 64					; 00000040H
	pop	rdi
	ret	0
?call@?$functor1@MM$0A@Utvec4@glm@@@detail@glm@@SA?AU?$tvec4@M$0A@@3@P6AMM@ZAEBU43@@Z ENDP ; glm::detail::functor1<float,float,0,glm::tvec4>::call
_TEXT	ENDS
; Function compile flags: /Odtp /RTCsu
; File C:\Users\ksart\OneDrive\Desktop\FlappyBird\libraries\external\glm\glm\detail\type_vec4.inl
;	COMDAT ??$?DM$0A@@glm@@YA?AU?$tvec4@M$0A@@0@AEBU10@M@Z
_TEXT	SEGMENT
$T1 = 32
__$ReturnUdt$ = 80
v$ = 88
scalar$ = 96
??$?DM$0A@@glm@@YA?AU?$tvec4@M$0A@@0@AEBU10@M@Z PROC	; glm::operator*<float,0>, COMDAT

; 694  : 	{

$LN3:
	movss	DWORD PTR [rsp+24], xmm2
	mov	QWORD PTR [rsp+16], rdx
	mov	QWORD PTR [rsp+8], rcx
	push	rsi
	push	rdi
	sub	rsp, 56					; 00000038H

; 695  : 		return tvec4<T, P>(v) *= scalar;

	lea	rax, QWORD PTR $T1[rsp]
	mov	rdi, rax
	mov	rsi, QWORD PTR v$[rsp]
	mov	ecx, 16
	rep movsb
	movss	xmm1, DWORD PTR scalar$[rsp]
	lea	rcx, QWORD PTR $T1[rsp]
	call	??$?XM@?$tvec4@M$0A@@glm@@QEAAAEAU01@M@Z ; glm::tvec4<float,0>::operator*=<float>
	mov	rdi, QWORD PTR __$ReturnUdt$[rsp]
	mov	rsi, rax
	mov	ecx, 16
	rep movsb
	mov	rax, QWORD PTR __$ReturnUdt$[rsp]

; 696  : 	}

	add	rsp, 56					; 00000038H
	pop	rdi
	pop	rsi
	ret	0
??$?DM$0A@@glm@@YA?AU?$tvec4@M$0A@@0@AEBU10@M@Z ENDP	; glm::operator*<float,0>
_TEXT	ENDS
; Function compile flags: /Odtp /RTCsu
; File C:\Users\ksart\OneDrive\Desktop\FlappyBird\libraries\external\glm\glm\detail\type_vec4.inl
;	COMDAT ??$?YM@?$tvec4@M$0A@@glm@@QEAAAEAU01@AEBU01@@Z
_TEXT	SEGMENT
$T1 = 32
$T2 = 48
this$ = 96
v$ = 104
??$?YM@?$tvec4@M$0A@@glm@@QEAAAEAU01@AEBU01@@Z PROC	; glm::tvec4<float,0>::operator+=<float>, COMDAT

; 383  : 	{

$LN3:
	mov	QWORD PTR [rsp+16], rdx
	mov	QWORD PTR [rsp+8], rcx
	push	rsi
	push	rdi
	sub	rsp, 72					; 00000048H

; 384  : 		return (*this = detail::compute_vec4_add<T, P, detail::is_aligned<P>::value>::call(*this, tvec4<T, P>(v)));

	lea	rax, QWORD PTR $T1[rsp]
	mov	rdi, rax
	mov	rsi, QWORD PTR v$[rsp]
	mov	ecx, 16
	rep movsb
	lea	r8, QWORD PTR $T1[rsp]
	mov	rdx, QWORD PTR this$[rsp]
	lea	rcx, QWORD PTR $T2[rsp]
	call	?call@?$compute_vec4_add@M$0A@$0A@@detail@glm@@SA?AU?$tvec4@M$0A@@3@AEBU43@0@Z ; glm::detail::compute_vec4_add<float,0,0>::call
	mov	rdi, QWORD PTR this$[rsp]
	mov	rsi, rax
	mov	ecx, 16
	rep movsb
	mov	rax, QWORD PTR this$[rsp]

; 385  : 	}

	add	rsp, 72					; 00000048H
	pop	rdi
	pop	rsi
	ret	0
??$?YM@?$tvec4@M$0A@@glm@@QEAAAEAU01@AEBU01@@Z ENDP	; glm::tvec4<float,0>::operator+=<float>
_TEXT	ENDS
; Function compile flags: /Odtp /RTCsu
; File C:\Users\ksart\OneDrive\Desktop\FlappyBird\libraries\external\glm\glm\detail\type_vec4.inl
;	COMDAT ??$?XM@?$tvec4@M$0A@@glm@@QEAAAEAU01@AEBU01@@Z
_TEXT	SEGMENT
$T1 = 32
$T2 = 48
this$ = 96
v$ = 104
??$?XM@?$tvec4@M$0A@@glm@@QEAAAEAU01@AEBU01@@Z PROC	; glm::tvec4<float,0>::operator*=<float>, COMDAT

; 425  : 	{

$LN3:
	mov	QWORD PTR [rsp+16], rdx
	mov	QWORD PTR [rsp+8], rcx
	push	rsi
	push	rdi
	sub	rsp, 72					; 00000048H

; 426  : 		return (*this = detail::compute_vec4_mul<T, P, detail::is_aligned<P>::value>::call(*this, tvec4<T, P>(v)));

	lea	rax, QWORD PTR $T1[rsp]
	mov	rdi, rax
	mov	rsi, QWORD PTR v$[rsp]
	mov	ecx, 16
	rep movsb
	lea	r8, QWORD PTR $T1[rsp]
	mov	rdx, QWORD PTR this$[rsp]
	lea	rcx, QWORD PTR $T2[rsp]
	call	?call@?$compute_vec4_mul@M$0A@$0A@@detail@glm@@SA?AU?$tvec4@M$0A@@3@AEBU43@0@Z ; glm::detail::compute_vec4_mul<float,0,0>::call
	mov	rdi, QWORD PTR this$[rsp]
	mov	rsi, rax
	mov	ecx, 16
	rep movsb
	mov	rax, QWORD PTR this$[rsp]

; 427  : 	}

	add	rsp, 72					; 00000048H
	pop	rdi
	pop	rsi
	ret	0
??$?XM@?$tvec4@M$0A@@glm@@QEAAAEAU01@AEBU01@@Z ENDP	; glm::tvec4<float,0>::operator*=<float>
_TEXT	ENDS
; Function compile flags: /Odtp /RTCsu
; File C:\Users\ksart\OneDrive\Desktop\FlappyBird\libraries\external\glm\glm\detail\func_common.inl
;	COMDAT ?call@?$compute_abs_vector@M$0A@Utvec4@glm@@$0A@@detail@glm@@SA?AU?$tvec4@M$0A@@3@AEBU43@@Z
_TEXT	SEGMENT
__$ReturnUdt$ = 48
x$ = 56
?call@?$compute_abs_vector@M$0A@Utvec4@glm@@$0A@@detail@glm@@SA?AU?$tvec4@M$0A@@3@AEBU43@@Z PROC ; glm::detail::compute_abs_vector<float,0,glm::tvec4,0>::call, COMDAT

; 114  : 		{

$LN3:
	mov	QWORD PTR [rsp+16], rdx
	mov	QWORD PTR [rsp+8], rcx
	push	rdi
	sub	rsp, 32					; 00000020H

; 115  : 			return detail::functor1<T, T, P, vecType>::call(abs, x);

	mov	r8, QWORD PTR x$[rsp]
	lea	rdx, OFFSET FLAT:??$abs@M@glm@@YAMM@Z	; glm::abs<float>
	mov	rcx, QWORD PTR __$ReturnUdt$[rsp]
	call	?call@?$functor1@MM$0A@Utvec4@glm@@@detail@glm@@SA?AU?$tvec4@M$0A@@3@P6AMM@ZAEBU43@@Z ; glm::detail::functor1<float,float,0,glm::tvec4>::call
	mov	rax, QWORD PTR __$ReturnUdt$[rsp]

; 116  : 		}

	add	rsp, 32					; 00000020H
	pop	rdi
	ret	0
?call@?$compute_abs_vector@M$0A@Utvec4@glm@@$0A@@detail@glm@@SA?AU?$tvec4@M$0A@@3@AEBU43@@Z ENDP ; glm::detail::compute_abs_vector<float,0,glm::tvec4,0>::call
_TEXT	ENDS
; Function compile flags: /Odtp /RTCsu
; File C:\Users\ksart\OneDrive\Desktop\FlappyBird\libraries\external\glm\glm\detail\type_vec4.inl
;	COMDAT ??$?ZM@?$tvec4@M$0A@@glm@@QEAAAEAU01@AEBU01@@Z
_TEXT	SEGMENT
$T1 = 32
$T2 = 48
this$ = 96
v$ = 104
??$?ZM@?$tvec4@M$0A@@glm@@QEAAAEAU01@AEBU01@@Z PROC	; glm::tvec4<float,0>::operator-=<float>, COMDAT

; 404  : 	{

$LN3:
	mov	QWORD PTR [rsp+16], rdx
	mov	QWORD PTR [rsp+8], rcx
	push	rsi
	push	rdi
	sub	rsp, 72					; 00000048H

; 405  : 		return (*this = detail::compute_vec4_sub<T, P, detail::is_aligned<P>::value>::call(*this, tvec4<T, P>(v)));

	lea	rax, QWORD PTR $T1[rsp]
	mov	rdi, rax
	mov	rsi, QWORD PTR v$[rsp]
	mov	ecx, 16
	rep movsb
	lea	r8, QWORD PTR $T1[rsp]
	mov	rdx, QWORD PTR this$[rsp]
	lea	rcx, QWORD PTR $T2[rsp]
	call	?call@?$compute_vec4_sub@M$0A@$0A@@detail@glm@@SA?AU?$tvec4@M$0A@@3@AEBU43@0@Z ; glm::detail::compute_vec4_sub<float,0,0>::call
	mov	rdi, QWORD PTR this$[rsp]
	mov	rsi, rax
	mov	ecx, 16
	rep movsb
	mov	rax, QWORD PTR this$[rsp]

; 406  : 	}

	add	rsp, 72					; 00000048H
	pop	rdi
	pop	rsi
	ret	0
??$?ZM@?$tvec4@M$0A@@glm@@QEAAAEAU01@AEBU01@@Z ENDP	; glm::tvec4<float,0>::operator-=<float>
_TEXT	ENDS
; Function compile flags: /Odtp /RTCsu
; File C:\Users\ksart\OneDrive\Desktop\FlappyBird\libraries\external\glm\glm\detail\type_vec3.inl
;	COMDAT ??$?GM$0A@@glm@@YA?AU?$tvec3@M$0A@@0@AEBU10@@Z
_TEXT	SEGMENT
tv73 = 32
__$ReturnUdt$ = 64
v$ = 72
??$?GM$0A@@glm@@YA?AU?$tvec3@M$0A@@0@AEBU10@@Z PROC	; glm::operator-<float,0>, COMDAT

; 527  : 	{

$LN3:
	mov	QWORD PTR [rsp+16], rdx
	mov	QWORD PTR [rsp+8], rcx
	push	rdi
	sub	rsp, 48					; 00000030H

; 528  : 		return tvec3<T, P>(

	mov	rax, QWORD PTR v$[rsp]
	movss	xmm0, DWORD PTR [rax+8]
	xorps	xmm0, DWORD PTR __xmm@80000000800000008000000080000000
	mov	rax, QWORD PTR v$[rsp]
	movss	xmm1, DWORD PTR [rax+4]
	xorps	xmm1, DWORD PTR __xmm@80000000800000008000000080000000
	mov	rax, QWORD PTR v$[rsp]
	movss	xmm2, DWORD PTR [rax]
	xorps	xmm2, DWORD PTR __xmm@80000000800000008000000080000000
	movss	DWORD PTR tv73[rsp], xmm2
	movaps	xmm3, xmm0
	movaps	xmm2, xmm1
	movss	xmm0, DWORD PTR tv73[rsp]
	movaps	xmm1, xmm0
	mov	rcx, QWORD PTR __$ReturnUdt$[rsp]
	call	??0?$tvec3@M$0A@@glm@@QEAA@MMM@Z	; glm::tvec3<float,0>::tvec3<float,0>
	mov	rax, QWORD PTR __$ReturnUdt$[rsp]

; 529  : 			-v.x, 
; 530  : 			-v.y, 
; 531  : 			-v.z);
; 532  : 	}

	add	rsp, 48					; 00000030H
	pop	rdi
	ret	0
??$?GM$0A@@glm@@YA?AU?$tvec3@M$0A@@0@AEBU10@@Z ENDP	; glm::operator-<float,0>
_TEXT	ENDS
; Function compile flags: /Odtp /RTCsu
; File C:\Users\ksart\OneDrive\Desktop\FlappyBird\libraries\external\glm\glm\detail\func_common.inl
;	COMDAT ?call@?$compute_abs_vector@M$0A@Utvec3@glm@@$0A@@detail@glm@@SA?AU?$tvec3@M$0A@@3@AEBU43@@Z
_TEXT	SEGMENT
__$ReturnUdt$ = 48
x$ = 56
?call@?$compute_abs_vector@M$0A@Utvec3@glm@@$0A@@detail@glm@@SA?AU?$tvec3@M$0A@@3@AEBU43@@Z PROC ; glm::detail::compute_abs_vector<float,0,glm::tvec3,0>::call, COMDAT

; 114  : 		{

$LN3:
	mov	QWORD PTR [rsp+16], rdx
	mov	QWORD PTR [rsp+8], rcx
	push	rdi
	sub	rsp, 32					; 00000020H

; 115  : 			return detail::functor1<T, T, P, vecType>::call(abs, x);

	mov	r8, QWORD PTR x$[rsp]
	lea	rdx, OFFSET FLAT:??$abs@M@glm@@YAMM@Z	; glm::abs<float>
	mov	rcx, QWORD PTR __$ReturnUdt$[rsp]
	call	?call@?$functor1@MM$0A@Utvec3@glm@@@detail@glm@@SA?AU?$tvec3@M$0A@@3@P6AMM@ZAEBU43@@Z ; glm::detail::functor1<float,float,0,glm::tvec3>::call
	mov	rax, QWORD PTR __$ReturnUdt$[rsp]

; 116  : 		}

	add	rsp, 32					; 00000020H
	pop	rdi
	ret	0
?call@?$compute_abs_vector@M$0A@Utvec3@glm@@$0A@@detail@glm@@SA?AU?$tvec3@M$0A@@3@AEBU43@@Z ENDP ; glm::detail::compute_abs_vector<float,0,glm::tvec3,0>::call
_TEXT	ENDS
; Function compile flags: /Odtp /RTCsu
; File C:\Users\ksart\OneDrive\Desktop\FlappyBird\libraries\external\glm\glm\detail\type_vec2.inl
;	COMDAT ??$?GM$0A@@glm@@YA?AU?$tvec2@M$0A@@0@AEBU10@@Z
_TEXT	SEGMENT
__$ReturnUdt$ = 48
v$ = 56
??$?GM$0A@@glm@@YA?AU?$tvec2@M$0A@@0@AEBU10@@Z PROC	; glm::operator-<float,0>, COMDAT

; 451  : 	{

$LN3:
	mov	QWORD PTR [rsp+16], rdx
	mov	QWORD PTR [rsp+8], rcx
	push	rdi
	sub	rsp, 32					; 00000020H

; 452  : 		return tvec2<T, P>(

	mov	rax, QWORD PTR v$[rsp]
	movss	xmm0, DWORD PTR [rax+4]
	xorps	xmm0, DWORD PTR __xmm@80000000800000008000000080000000
	mov	rax, QWORD PTR v$[rsp]
	movss	xmm1, DWORD PTR [rax]
	xorps	xmm1, DWORD PTR __xmm@80000000800000008000000080000000
	movaps	xmm2, xmm0
	mov	rcx, QWORD PTR __$ReturnUdt$[rsp]
	call	??0?$tvec2@M$0A@@glm@@QEAA@MM@Z		; glm::tvec2<float,0>::tvec2<float,0>
	mov	rax, QWORD PTR __$ReturnUdt$[rsp]

; 453  : 			-v.x, 
; 454  : 			-v.y);
; 455  : 	}

	add	rsp, 32					; 00000020H
	pop	rdi
	ret	0
??$?GM$0A@@glm@@YA?AU?$tvec2@M$0A@@0@AEBU10@@Z ENDP	; glm::operator-<float,0>
_TEXT	ENDS
; Function compile flags: /Odtp /RTCsu
; File C:\Users\ksart\OneDrive\Desktop\FlappyBird\libraries\external\glm\glm\detail\func_matrix.inl
;	COMDAT ?call@?$compute_inverse@Utmat2x2@glm@@M$0A@$0A@@detail@glm@@SA?AU?$tmat2x2@M$0A@@3@AEBU43@@Z
_TEXT	SEGMENT
OneOverDeterminant$ = 48
Inverse$ = 72
$T4 = 112
$T5 = 116
$T6 = 120
$T7 = 124
tv68 = 128
tv76 = 136
tv81 = 144
__$ArrayPad$ = 152
__$ReturnUdt$ = 192
m$ = 200
?call@?$compute_inverse@Utmat2x2@glm@@M$0A@$0A@@detail@glm@@SA?AU?$tmat2x2@M$0A@@3@AEBU43@@Z PROC ; glm::detail::compute_inverse<glm::tmat2x2,float,0,0>::call, COMDAT

; 256  : 		{

$LN3:
	mov	QWORD PTR [rsp+16], rdx
	mov	QWORD PTR [rsp+8], rcx
	push	rsi
	push	rdi
	sub	rsp, 168				; 000000a8H
	lea	rdi, QWORD PTR [rsp+48]
	mov	ecx, 30
	mov	eax, -858993460				; ccccccccH
	rep stosd
	mov	rcx, QWORD PTR [rsp+192]
	mov	rax, QWORD PTR __security_cookie
	xor	rax, rsp
	mov	QWORD PTR __$ArrayPad$[rsp], rax

; 257  : 			T OneOverDeterminant = static_cast<T>(1) / (

	xor	edx, edx
	mov	rcx, QWORD PTR m$[rsp]
	call	??A?$tmat2x2@M$0A@@glm@@QEBAAEBU?$tvec2@M$0A@@1@H@Z ; glm::tmat2x2<float,0>::operator[]
	xor	edx, edx
	mov	rcx, rax
	call	??A?$tvec2@M$0A@@glm@@QEBAAEBMH@Z	; glm::tvec2<float,0>::operator[]
	mov	QWORD PTR tv68[rsp], rax
	mov	edx, 1
	mov	rcx, QWORD PTR m$[rsp]
	call	??A?$tmat2x2@M$0A@@glm@@QEBAAEBU?$tvec2@M$0A@@1@H@Z ; glm::tmat2x2<float,0>::operator[]
	mov	edx, 1
	mov	rcx, rax
	call	??A?$tvec2@M$0A@@glm@@QEBAAEBMH@Z	; glm::tvec2<float,0>::operator[]
	mov	rcx, QWORD PTR tv68[rsp]
	movss	xmm0, DWORD PTR [rcx]
	mulss	xmm0, DWORD PTR [rax]
	movss	DWORD PTR tv76[rsp], xmm0
	mov	edx, 1
	mov	rcx, QWORD PTR m$[rsp]
	call	??A?$tmat2x2@M$0A@@glm@@QEBAAEBU?$tvec2@M$0A@@1@H@Z ; glm::tmat2x2<float,0>::operator[]
	xor	edx, edx
	mov	rcx, rax
	call	??A?$tvec2@M$0A@@glm@@QEBAAEBMH@Z	; glm::tvec2<float,0>::operator[]
	mov	QWORD PTR tv81[rsp], rax
	xor	edx, edx
	mov	rcx, QWORD PTR m$[rsp]
	call	??A?$tmat2x2@M$0A@@glm@@QEBAAEBU?$tvec2@M$0A@@1@H@Z ; glm::tmat2x2<float,0>::operator[]
	mov	edx, 1
	mov	rcx, rax
	call	??A?$tvec2@M$0A@@glm@@QEBAAEBMH@Z	; glm::tvec2<float,0>::operator[]
	mov	rcx, QWORD PTR tv81[rsp]
	movss	xmm0, DWORD PTR [rcx]
	mulss	xmm0, DWORD PTR [rax]
	movss	xmm1, DWORD PTR tv76[rsp]
	subss	xmm1, xmm0
	movaps	xmm0, xmm1
	movss	xmm1, DWORD PTR __real@3f800000
	divss	xmm1, xmm0
	movaps	xmm0, xmm1
	movss	DWORD PTR OneOverDeterminant$[rsp], xmm0

; 258  : 				+ m[0][0] * m[1][1]
; 259  : 				- m[1][0] * m[0][1]);
; 260  : 
; 261  : 			tmat2x2<T, P> Inverse(

	xor	edx, edx
	mov	rcx, QWORD PTR m$[rsp]
	call	??A?$tmat2x2@M$0A@@glm@@QEBAAEBU?$tvec2@M$0A@@1@H@Z ; glm::tmat2x2<float,0>::operator[]
	xor	edx, edx
	mov	rcx, rax
	call	??A?$tvec2@M$0A@@glm@@QEBAAEBMH@Z	; glm::tvec2<float,0>::operator[]
	movss	xmm0, DWORD PTR [rax]
	mulss	xmm0, DWORD PTR OneOverDeterminant$[rsp]
	movss	DWORD PTR $T4[rsp], xmm0
	mov	edx, 1
	mov	rcx, QWORD PTR m$[rsp]
	call	??A?$tmat2x2@M$0A@@glm@@QEBAAEBU?$tvec2@M$0A@@1@H@Z ; glm::tmat2x2<float,0>::operator[]
	xor	edx, edx
	mov	rcx, rax
	call	??A?$tvec2@M$0A@@glm@@QEBAAEBMH@Z	; glm::tvec2<float,0>::operator[]
	movss	xmm0, DWORD PTR [rax]
	xorps	xmm0, DWORD PTR __xmm@80000000800000008000000080000000
	mulss	xmm0, DWORD PTR OneOverDeterminant$[rsp]
	movss	DWORD PTR $T5[rsp], xmm0
	xor	edx, edx
	mov	rcx, QWORD PTR m$[rsp]
	call	??A?$tmat2x2@M$0A@@glm@@QEBAAEBU?$tvec2@M$0A@@1@H@Z ; glm::tmat2x2<float,0>::operator[]
	mov	edx, 1
	mov	rcx, rax
	call	??A?$tvec2@M$0A@@glm@@QEBAAEBMH@Z	; glm::tvec2<float,0>::operator[]
	movss	xmm0, DWORD PTR [rax]
	xorps	xmm0, DWORD PTR __xmm@80000000800000008000000080000000
	mulss	xmm0, DWORD PTR OneOverDeterminant$[rsp]
	movss	DWORD PTR $T6[rsp], xmm0
	mov	edx, 1
	mov	rcx, QWORD PTR m$[rsp]
	call	??A?$tmat2x2@M$0A@@glm@@QEBAAEBU?$tvec2@M$0A@@1@H@Z ; glm::tmat2x2<float,0>::operator[]
	mov	edx, 1
	mov	rcx, rax
	call	??A?$tvec2@M$0A@@glm@@QEBAAEBMH@Z	; glm::tvec2<float,0>::operator[]
	movss	xmm0, DWORD PTR [rax]
	mulss	xmm0, DWORD PTR OneOverDeterminant$[rsp]
	movss	DWORD PTR $T7[rsp], xmm0
	lea	rax, QWORD PTR $T4[rsp]
	mov	QWORD PTR [rsp+32], rax
	lea	r9, QWORD PTR $T5[rsp]
	lea	r8, QWORD PTR $T6[rsp]
	lea	rdx, QWORD PTR $T7[rsp]
	lea	rcx, QWORD PTR Inverse$[rsp]
	call	??0?$tmat2x2@M$0A@@glm@@QEAA@AEBM000@Z	; glm::tmat2x2<float,0>::tmat2x2<float,0>

; 262  : 				+ m[1][1] * OneOverDeterminant,
; 263  : 				- m[0][1] * OneOverDeterminant,
; 264  : 				- m[1][0] * OneOverDeterminant,
; 265  : 				+ m[0][0] * OneOverDeterminant);
; 266  : 
; 267  : 			return Inverse;

	lea	rax, QWORD PTR Inverse$[rsp]
	mov	rdi, QWORD PTR __$ReturnUdt$[rsp]
	mov	rsi, rax
	mov	ecx, 16
	rep movsb
	mov	rax, QWORD PTR __$ReturnUdt$[rsp]

; 268  : 		}

	mov	rdi, rax
	mov	rcx, rsp
	lea	rdx, OFFSET FLAT:?call@?$compute_inverse@Utmat2x2@glm@@M$0A@$0A@@detail@glm@@SA?AU?$tmat2x2@M$0A@@3@AEBU43@@Z$rtcFrameData
	call	_RTC_CheckStackVars
	mov	rax, rdi
	mov	rcx, QWORD PTR __$ArrayPad$[rsp]
	xor	rcx, rsp
	call	__security_check_cookie
	add	rsp, 168				; 000000a8H
	pop	rdi
	pop	rsi
	ret	0
?call@?$compute_inverse@Utmat2x2@glm@@M$0A@$0A@@detail@glm@@SA?AU?$tmat2x2@M$0A@@3@AEBU43@@Z ENDP ; glm::detail::compute_inverse<glm::tmat2x2,float,0,0>::call
_TEXT	ENDS
; Function compile flags: /Odtp /RTCsu
; File C:\Users\ksart\OneDrive\Desktop\FlappyBird\libraries\external\glm\glm\detail\type_mat4x4.inl
;	COMDAT ??$?DM$0A@@glm@@YA?AU?$tmat4x4@M$0A@@0@AEBU10@AEBM@Z
_TEXT	SEGMENT
$T1 = 48
$T2 = 64
$T3 = 80
$T4 = 96
tv66 = 112
tv74 = 120
tv82 = 128
__$ReturnUdt$ = 160
m$ = 168
s$ = 176
??$?DM$0A@@glm@@YA?AU?$tmat4x4@M$0A@@0@AEBU10@AEBM@Z PROC ; glm::operator*<float,0>, COMDAT

; 482  : 	{

$LN3:
	mov	QWORD PTR [rsp+24], r8
	mov	QWORD PTR [rsp+16], rdx
	mov	QWORD PTR [rsp+8], rcx
	push	rdi
	sub	rsp, 144				; 00000090H

; 483  : 		return tmat4x4<T, P>(

	mov	edx, 3
	mov	rcx, QWORD PTR m$[rsp]
	call	??A?$tmat4x4@M$0A@@glm@@QEBAAEBU?$tvec4@M$0A@@1@H@Z ; glm::tmat4x4<float,0>::operator[]
	mov	rcx, QWORD PTR s$[rsp]
	movss	xmm2, DWORD PTR [rcx]
	mov	rdx, rax
	lea	rcx, QWORD PTR $T1[rsp]
	call	??$?DM$0A@@glm@@YA?AU?$tvec4@M$0A@@0@AEBU10@M@Z ; glm::operator*<float,0>
	mov	QWORD PTR tv66[rsp], rax
	mov	edx, 2
	mov	rcx, QWORD PTR m$[rsp]
	call	??A?$tmat4x4@M$0A@@glm@@QEBAAEBU?$tvec4@M$0A@@1@H@Z ; glm::tmat4x4<float,0>::operator[]
	mov	rcx, QWORD PTR s$[rsp]
	movss	xmm2, DWORD PTR [rcx]
	mov	rdx, rax
	lea	rcx, QWORD PTR $T2[rsp]
	call	??$?DM$0A@@glm@@YA?AU?$tvec4@M$0A@@0@AEBU10@M@Z ; glm::operator*<float,0>
	mov	QWORD PTR tv74[rsp], rax
	mov	edx, 1
	mov	rcx, QWORD PTR m$[rsp]
	call	??A?$tmat4x4@M$0A@@glm@@QEBAAEBU?$tvec4@M$0A@@1@H@Z ; glm::tmat4x4<float,0>::operator[]
	mov	rcx, QWORD PTR s$[rsp]
	movss	xmm2, DWORD PTR [rcx]
	mov	rdx, rax
	lea	rcx, QWORD PTR $T3[rsp]
	call	??$?DM$0A@@glm@@YA?AU?$tvec4@M$0A@@0@AEBU10@M@Z ; glm::operator*<float,0>
	mov	QWORD PTR tv82[rsp], rax
	xor	edx, edx
	mov	rcx, QWORD PTR m$[rsp]
	call	??A?$tmat4x4@M$0A@@glm@@QEBAAEBU?$tvec4@M$0A@@1@H@Z ; glm::tmat4x4<float,0>::operator[]
	mov	rcx, QWORD PTR s$[rsp]
	movss	xmm2, DWORD PTR [rcx]
	mov	rdx, rax
	lea	rcx, QWORD PTR $T4[rsp]
	call	??$?DM$0A@@glm@@YA?AU?$tvec4@M$0A@@0@AEBU10@M@Z ; glm::operator*<float,0>
	mov	rcx, QWORD PTR tv66[rsp]
	mov	QWORD PTR [rsp+32], rcx
	mov	rcx, QWORD PTR tv74[rsp]
	mov	r9, rcx
	mov	rcx, QWORD PTR tv82[rsp]
	mov	r8, rcx
	mov	rdx, rax
	mov	rcx, QWORD PTR __$ReturnUdt$[rsp]
	call	??0?$tmat4x4@M$0A@@glm@@QEAA@AEBU?$tvec4@M$0A@@1@000@Z ; glm::tmat4x4<float,0>::tmat4x4<float,0>
	mov	rax, QWORD PTR __$ReturnUdt$[rsp]

; 484  : 			m[0] * s,
; 485  : 			m[1] * s,
; 486  : 			m[2] * s,
; 487  : 			m[3] * s);
; 488  : 	}

	add	rsp, 144				; 00000090H
	pop	rdi
	ret	0
??$?DM$0A@@glm@@YA?AU?$tmat4x4@M$0A@@0@AEBU10@AEBM@Z ENDP ; glm::operator*<float,0>
_TEXT	ENDS
; Function compile flags: /Odtp /RTCsu
; File C:\Users\ksart\OneDrive\Desktop\FlappyBird\libraries\external\glm\glm\detail\type_vec4.inl
;	COMDAT ??$?0HHHH@?$tvec4@M$0A@@glm@@QEAA@HHHH@Z
_TEXT	SEGMENT
this$ = 16
a$ = 24
b$ = 32
c$ = 40
d$ = 48
??$?0HHHH@?$tvec4@M$0A@@glm@@QEAA@HHHH@Z PROC		; glm::tvec4<float,0>::tvec4<float,0><int,int,int,int>, COMDAT

; 204  : 	{}

$LN3:
	mov	DWORD PTR [rsp+32], r9d
	mov	DWORD PTR [rsp+24], r8d
	mov	DWORD PTR [rsp+16], edx
	mov	QWORD PTR [rsp+8], rcx
	push	rdi

; 200  : 		x(static_cast<T>(a)),

	cvtsi2ss xmm0, DWORD PTR a$[rsp]
	mov	rax, QWORD PTR this$[rsp]
	movss	DWORD PTR [rax], xmm0

; 201  : 		y(static_cast<T>(b)),

	cvtsi2ss xmm0, DWORD PTR b$[rsp]
	mov	rax, QWORD PTR this$[rsp]
	movss	DWORD PTR [rax+4], xmm0

; 202  : 		z(static_cast<T>(c)),

	cvtsi2ss xmm0, DWORD PTR c$[rsp]
	mov	rax, QWORD PTR this$[rsp]
	movss	DWORD PTR [rax+8], xmm0

; 203  : 		w(static_cast<T>(d))

	cvtsi2ss xmm0, DWORD PTR d$[rsp]
	mov	rax, QWORD PTR this$[rsp]
	movss	DWORD PTR [rax+12], xmm0

; 204  : 	{}

	mov	rax, QWORD PTR this$[rsp]
	pop	rdi
	ret	0
??$?0HHHH@?$tvec4@M$0A@@glm@@QEAA@HHHH@Z ENDP		; glm::tvec4<float,0>::tvec4<float,0><int,int,int,int>
_TEXT	ENDS
; Function compile flags: /Odtp /RTCsu
; File C:\Users\ksart\OneDrive\Desktop\FlappyBird\libraries\external\glm\glm\detail\type_vec4.inl
;	COMDAT ??$?HM$0A@@glm@@YA?AU?$tvec4@M$0A@@0@AEBU10@0@Z
_TEXT	SEGMENT
$T1 = 32
__$ReturnUdt$ = 80
v1$ = 88
v2$ = 96
??$?HM$0A@@glm@@YA?AU?$tvec4@M$0A@@0@AEBU10@0@Z PROC	; glm::operator+<float,0>, COMDAT

; 658  : 	{

$LN3:
	mov	QWORD PTR [rsp+24], r8
	mov	QWORD PTR [rsp+16], rdx
	mov	QWORD PTR [rsp+8], rcx
	push	rsi
	push	rdi
	sub	rsp, 56					; 00000038H

; 659  : 		return tvec4<T, P>(v1) += v2;

	lea	rax, QWORD PTR $T1[rsp]
	mov	rdi, rax
	mov	rsi, QWORD PTR v1$[rsp]
	mov	ecx, 16
	rep movsb
	mov	rdx, QWORD PTR v2$[rsp]
	lea	rcx, QWORD PTR $T1[rsp]
	call	??$?YM@?$tvec4@M$0A@@glm@@QEAAAEAU01@AEBU01@@Z ; glm::tvec4<float,0>::operator+=<float>
	mov	rdi, QWORD PTR __$ReturnUdt$[rsp]
	mov	rsi, rax
	mov	ecx, 16
	rep movsb
	mov	rax, QWORD PTR __$ReturnUdt$[rsp]

; 660  : 	}

	add	rsp, 56					; 00000038H
	pop	rdi
	pop	rsi
	ret	0
??$?HM$0A@@glm@@YA?AU?$tvec4@M$0A@@0@AEBU10@0@Z ENDP	; glm::operator+<float,0>
_TEXT	ENDS
; Function compile flags: /Odtp /RTCsu
; File C:\Users\ksart\OneDrive\Desktop\FlappyBird\libraries\external\glm\glm\detail\type_vec4.inl
;	COMDAT ??$?DM$0A@@glm@@YA?AU?$tvec4@M$0A@@0@AEBU10@0@Z
_TEXT	SEGMENT
$T1 = 32
__$ReturnUdt$ = 80
v1$ = 88
v2$ = 96
??$?DM$0A@@glm@@YA?AU?$tvec4@M$0A@@0@AEBU10@0@Z PROC	; glm::operator*<float,0>, COMDAT

; 718  : 	{

$LN3:
	mov	QWORD PTR [rsp+24], r8
	mov	QWORD PTR [rsp+16], rdx
	mov	QWORD PTR [rsp+8], rcx
	push	rsi
	push	rdi
	sub	rsp, 56					; 00000038H

; 719  : 		return tvec4<T, P>(v1) *= v2;

	lea	rax, QWORD PTR $T1[rsp]
	mov	rdi, rax
	mov	rsi, QWORD PTR v1$[rsp]
	mov	ecx, 16
	rep movsb
	mov	rdx, QWORD PTR v2$[rsp]
	lea	rcx, QWORD PTR $T1[rsp]
	call	??$?XM@?$tvec4@M$0A@@glm@@QEAAAEAU01@AEBU01@@Z ; glm::tvec4<float,0>::operator*=<float>
	mov	rdi, QWORD PTR __$ReturnUdt$[rsp]
	mov	rsi, rax
	mov	ecx, 16
	rep movsb
	mov	rax, QWORD PTR __$ReturnUdt$[rsp]

; 720  : 	}

	add	rsp, 56					; 00000038H
	pop	rdi
	pop	rsi
	ret	0
??$?DM$0A@@glm@@YA?AU?$tvec4@M$0A@@0@AEBU10@0@Z ENDP	; glm::operator*<float,0>
_TEXT	ENDS
; Function compile flags: /Odtp /RTCsu
; File C:\Users\ksart\OneDrive\Desktop\FlappyBird\libraries\external\glm\glm\detail\func_vector_relational.inl
;	COMDAT ??$lessThan@M$0A@Utvec4@glm@@@glm@@YA?AU?$tvec4@_N$0A@@0@AEBU?$tvec4@M$0A@@0@0@Z
_TEXT	SEGMENT
Result$ = 36
i$4 = 52
tv64 = 56
tv80 = 64
tv86 = 72
__$ReturnUdt$ = 96
x$ = 104
y$ = 112
??$lessThan@M$0A@Utvec4@glm@@@glm@@YA?AU?$tvec4@_N$0A@@0@AEBU?$tvec4@M$0A@@0@0@Z PROC ; glm::lessThan<float,0,glm::tvec4>, COMDAT

; 10   : 	{

$LN9:
	mov	QWORD PTR [rsp+24], r8
	mov	QWORD PTR [rsp+16], rdx
	mov	QWORD PTR [rsp+8], rcx
	push	rdi
	sub	rsp, 80					; 00000050H
	lea	rdi, QWORD PTR [rsp+32]
	mov	ecx, 12
	mov	eax, -858993460				; ccccccccH
	rep stosd
	mov	rcx, QWORD PTR [rsp+96]

; 11   : 		assert(x.length() == y.length());

	call	?length@?$tvec4@M$0A@@glm@@SAHXZ	; glm::tvec4<float,0>::length
	mov	DWORD PTR tv64[rsp], eax
	call	?length@?$tvec4@M$0A@@glm@@SAHXZ	; glm::tvec4<float,0>::length
	mov	ecx, DWORD PTR tv64[rsp]
	cmp	ecx, eax
	je	SHORT $LN6@lessThan
	mov	r8d, 11
	lea	rdx, OFFSET FLAT:??_C@_1NA@OPABFNEN@?$AAC?$AA?3?$AA?2?$AAU?$AAs?$AAe?$AAr?$AAs?$AA?2?$AAk?$AAs?$AAa?$AAr?$AAt?$AA?2@
	lea	rcx, OFFSET FLAT:??_C@_1DC@HHLCGOLC@?$AAx?$AA?4?$AAl?$AAe?$AAn?$AAg?$AAt?$AAh?$AA?$CI?$AA?$CJ?$AA?5?$AA?$DN?$AA?$DN?$AA?5?$AAy@
	call	QWORD PTR __imp__wassert
	xor	eax, eax
$LN6@lessThan:

; 12   : 
; 13   : 		vecType<bool, P> Result(uninitialize);

	xor	edx, edx
	lea	rcx, QWORD PTR Result$[rsp]
	call	??0?$tvec4@_N$0A@@glm@@QEAA@W4ctor@1@@Z	; glm::tvec4<bool,0>::tvec4<bool,0>

; 14   : 		for(length_t i = 0; i < x.length(); ++i)

	mov	DWORD PTR i$4[rsp], 0
	jmp	SHORT $LN4@lessThan
$LN2@lessThan:
	mov	eax, DWORD PTR i$4[rsp]
	inc	eax
	mov	DWORD PTR i$4[rsp], eax
$LN4@lessThan:
	call	?length@?$tvec4@M$0A@@glm@@SAHXZ	; glm::tvec4<float,0>::length
	cmp	DWORD PTR i$4[rsp], eax
	jge	SHORT $LN3@lessThan

; 15   : 			Result[i] = x[i] < y[i];

	mov	edx, DWORD PTR i$4[rsp]
	mov	rcx, QWORD PTR x$[rsp]
	call	??A?$tvec4@M$0A@@glm@@QEBAAEBMH@Z	; glm::tvec4<float,0>::operator[]
	mov	QWORD PTR tv80[rsp], rax
	mov	edx, DWORD PTR i$4[rsp]
	mov	rcx, QWORD PTR y$[rsp]
	call	??A?$tvec4@M$0A@@glm@@QEBAAEBMH@Z	; glm::tvec4<float,0>::operator[]
	movss	xmm0, DWORD PTR [rax]
	mov	rax, QWORD PTR tv80[rsp]
	comiss	xmm0, DWORD PTR [rax]
	jbe	SHORT $LN7@lessThan
	mov	DWORD PTR tv86[rsp], 1
	jmp	SHORT $LN8@lessThan
$LN7@lessThan:
	mov	DWORD PTR tv86[rsp], 0
$LN8@lessThan:
	mov	edx, DWORD PTR i$4[rsp]
	lea	rcx, QWORD PTR Result$[rsp]
	call	??A?$tvec4@_N$0A@@glm@@QEAAAEA_NH@Z	; glm::tvec4<bool,0>::operator[]
	movzx	ecx, BYTE PTR tv86[rsp]
	mov	BYTE PTR [rax], cl
	jmp	SHORT $LN2@lessThan
$LN3@lessThan:

; 16   : 
; 17   : 		return Result;

	mov	rax, QWORD PTR __$ReturnUdt$[rsp]
	mov	ecx, DWORD PTR Result$[rsp]
	mov	DWORD PTR [rax], ecx
	mov	rax, QWORD PTR __$ReturnUdt$[rsp]

; 18   : 	}

	mov	rdi, rax
	mov	rcx, rsp
	lea	rdx, OFFSET FLAT:??$lessThan@M$0A@Utvec4@glm@@@glm@@YA?AU?$tvec4@_N$0A@@0@AEBU?$tvec4@M$0A@@0@0@Z$rtcFrameData
	call	_RTC_CheckStackVars
	mov	rax, rdi
	add	rsp, 80					; 00000050H
	pop	rdi
	ret	0
??$lessThan@M$0A@Utvec4@glm@@@glm@@YA?AU?$tvec4@_N$0A@@0@AEBU?$tvec4@M$0A@@0@0@Z ENDP ; glm::lessThan<float,0,glm::tvec4>
_TEXT	ENDS
; Function compile flags: /Odtp /RTCsu
; File C:\Users\ksart\OneDrive\Desktop\FlappyBird\libraries\external\glm\glm\detail\func_common.inl
;	COMDAT ??$abs@M$0A@Utvec4@glm@@@glm@@YA?AU?$tvec4@M$0A@@0@AEBU10@@Z
_TEXT	SEGMENT
__$ReturnUdt$ = 48
x$ = 56
??$abs@M$0A@Utvec4@glm@@@glm@@YA?AU?$tvec4@M$0A@@0@AEBU10@@Z PROC ; glm::abs<float,0,glm::tvec4>, COMDAT

; 316  : 	{

$LN3:
	mov	QWORD PTR [rsp+16], rdx
	mov	QWORD PTR [rsp+8], rcx
	push	rdi
	sub	rsp, 32					; 00000020H

; 317  : 		return detail::compute_abs_vector<T, P, vecType, detail::is_aligned<P>::value>::call(x);

	mov	rdx, QWORD PTR x$[rsp]
	mov	rcx, QWORD PTR __$ReturnUdt$[rsp]
	call	?call@?$compute_abs_vector@M$0A@Utvec4@glm@@$0A@@detail@glm@@SA?AU?$tvec4@M$0A@@3@AEBU43@@Z ; glm::detail::compute_abs_vector<float,0,glm::tvec4,0>::call
	mov	rax, QWORD PTR __$ReturnUdt$[rsp]

; 318  : 	}

	add	rsp, 32					; 00000020H
	pop	rdi
	ret	0
??$abs@M$0A@Utvec4@glm@@@glm@@YA?AU?$tvec4@M$0A@@0@AEBU10@@Z ENDP ; glm::abs<float,0,glm::tvec4>
_TEXT	ENDS
; Function compile flags: /Odtp /RTCsu
; File C:\Users\ksart\OneDrive\Desktop\FlappyBird\libraries\external\glm\glm\detail\type_vec4.inl
;	COMDAT ??$?GM$0A@@glm@@YA?AU?$tvec4@M$0A@@0@AEBU10@0@Z
_TEXT	SEGMENT
$T1 = 32
__$ReturnUdt$ = 80
v1$ = 88
v2$ = 96
??$?GM$0A@@glm@@YA?AU?$tvec4@M$0A@@0@AEBU10@0@Z PROC	; glm::operator-<float,0>, COMDAT

; 688  : 	{

$LN3:
	mov	QWORD PTR [rsp+24], r8
	mov	QWORD PTR [rsp+16], rdx
	mov	QWORD PTR [rsp+8], rcx
	push	rsi
	push	rdi
	sub	rsp, 56					; 00000038H

; 689  : 		return tvec4<T, P>(v1) -= v2;

	lea	rax, QWORD PTR $T1[rsp]
	mov	rdi, rax
	mov	rsi, QWORD PTR v1$[rsp]
	mov	ecx, 16
	rep movsb
	mov	rdx, QWORD PTR v2$[rsp]
	lea	rcx, QWORD PTR $T1[rsp]
	call	??$?ZM@?$tvec4@M$0A@@glm@@QEAAAEAU01@AEBU01@@Z ; glm::tvec4<float,0>::operator-=<float>
	mov	rdi, QWORD PTR __$ReturnUdt$[rsp]
	mov	rsi, rax
	mov	ecx, 16
	rep movsb
	mov	rax, QWORD PTR __$ReturnUdt$[rsp]

; 690  : 	}

	add	rsp, 56					; 00000038H
	pop	rdi
	pop	rsi
	ret	0
??$?GM$0A@@glm@@YA?AU?$tvec4@M$0A@@0@AEBU10@0@Z ENDP	; glm::operator-<float,0>
_TEXT	ENDS
; Function compile flags: /Odtp /RTCsu
; File C:\Users\ksart\OneDrive\Desktop\FlappyBird\libraries\external\glm\glm\detail\func_matrix.inl
;	COMDAT ?call@?$compute_inverse@Utmat4x4@glm@@M$0A@$0A@@detail@glm@@SA?AU?$tmat4x4@M$0A@@3@AEBU43@@Z
_TEXT	SEGMENT
Coef00$ = 48
Coef02$ = 52
Coef03$ = 56
Coef04$ = 60
Coef06$ = 64
Coef07$ = 68
Coef08$ = 72
Coef10$ = 76
Coef11$ = 80
Coef12$ = 84
Coef14$ = 88
Coef15$ = 92
Coef16$ = 96
Coef18$ = 100
Coef19$ = 104
Coef20$ = 108
Coef22$ = 112
Coef23$ = 116
Fac0$ = 136
Fac1$ = 184
Fac2$ = 232
Fac3$ = 280
Fac4$ = 328
Fac5$ = 376
Vec0$ = 424
Vec1$ = 472
Vec2$ = 520
Vec3$ = 568
Inv0$ = 616
Inv1$ = 664
Inv2$ = 712
Inv3$ = 760
SignA$ = 808
SignB$ = 856
Inverse$ = 912
Row0$ = 1000
Dot0$ = 1048
Dot1$ = 1076
OneOverDeterminant$ = 1092
$T23 = 1120
$T24 = 1136
$T25 = 1152
$T26 = 1168
$T27 = 1184
$T28 = 1200
$T29 = 1216
$T30 = 1232
$T31 = 1248
$T32 = 1264
$T33 = 1280
$T34 = 1296
$T35 = 1312
$T36 = 1328
$T37 = 1344
$T38 = 1360
$T39 = 1376
$T40 = 1392
$T41 = 1408
$T42 = 1424
tv68 = 1440
tv76 = 1448
tv81 = 1456
tv95 = 1464
tv135 = 1472
tv140 = 1480
tv154 = 1488
tv162 = 1496
tv167 = 1504
tv181 = 1512
tv189 = 1520
tv194 = 1528
tv208 = 1536
tv216 = 1544
tv221 = 1552
tv235 = 1560
tv243 = 1568
tv248 = 1576
tv262 = 1584
tv270 = 1592
tv275 = 1600
tv289 = 1608
tv297 = 1616
tv302 = 1624
tv316 = 1632
tv324 = 1640
tv329 = 1648
tv343 = 1656
tv351 = 1664
tv356 = 1672
tv370 = 1680
tv378 = 1688
tv383 = 1696
tv397 = 1704
tv405 = 1712
tv410 = 1720
tv424 = 1728
tv432 = 1736
tv437 = 1744
tv451 = 1752
tv459 = 1760
tv464 = 1768
tv478 = 1776
tv486 = 1784
tv491 = 1792
tv505 = 1800
tv513 = 1808
tv518 = 1816
tv532 = 1824
tv540 = 1832
tv545 = 1840
tv559 = 1848
tv567 = 1856
tv572 = 1864
tv618 = 1872
tv625 = 1880
tv632 = 1888
tv647 = 1896
tv654 = 1904
tv661 = 1912
tv676 = 1920
tv683 = 1928
tv690 = 1936
tv705 = 1944
tv712 = 1952
tv719 = 1960
tv729 = 1968
tv735 = 1976
tv780 = 1984
tv786 = 1992
tv799 = 2000
tv805 = 2008
tv818 = 2016
tv824 = 2024
tv848 = 2032
tv853 = 2040
tv858 = 2048
tv873 = 2056
tv880 = 2064
tv887 = 2072
__$ArrayPad$ = 2080
__$ReturnUdt$ = 2112
m$ = 2120
?call@?$compute_inverse@Utmat4x4@glm@@M$0A@$0A@@detail@glm@@SA?AU?$tmat4x4@M$0A@@3@AEBU43@@Z PROC ; glm::detail::compute_inverse<glm::tmat4x4,float,0,0>::call, COMDAT

; 300  : 		{

$LN3:
	mov	QWORD PTR [rsp+16], rdx
	mov	QWORD PTR [rsp+8], rcx
	push	rdi
	sub	rsp, 2096				; 00000830H
	lea	rdi, QWORD PTR [rsp+48]
	mov	ecx, 512				; 00000200H
	mov	eax, -858993460				; ccccccccH
	rep stosd
	mov	rcx, QWORD PTR [rsp+2112]
	mov	rax, QWORD PTR __security_cookie
	xor	rax, rsp
	mov	QWORD PTR __$ArrayPad$[rsp], rax

; 301  : 			T Coef00 = m[2][2] * m[3][3] - m[3][2] * m[2][3];

	mov	edx, 2
	mov	rcx, QWORD PTR m$[rsp]
	call	??A?$tmat4x4@M$0A@@glm@@QEBAAEBU?$tvec4@M$0A@@1@H@Z ; glm::tmat4x4<float,0>::operator[]
	mov	edx, 2
	mov	rcx, rax
	call	??A?$tvec4@M$0A@@glm@@QEBAAEBMH@Z	; glm::tvec4<float,0>::operator[]
	mov	QWORD PTR tv68[rsp], rax
	mov	edx, 3
	mov	rcx, QWORD PTR m$[rsp]
	call	??A?$tmat4x4@M$0A@@glm@@QEBAAEBU?$tvec4@M$0A@@1@H@Z ; glm::tmat4x4<float,0>::operator[]
	mov	edx, 3
	mov	rcx, rax
	call	??A?$tvec4@M$0A@@glm@@QEBAAEBMH@Z	; glm::tvec4<float,0>::operator[]
	mov	rcx, QWORD PTR tv68[rsp]
	movss	xmm0, DWORD PTR [rcx]
	mulss	xmm0, DWORD PTR [rax]
	movss	DWORD PTR tv76[rsp], xmm0
	mov	edx, 3
	mov	rcx, QWORD PTR m$[rsp]
	call	??A?$tmat4x4@M$0A@@glm@@QEBAAEBU?$tvec4@M$0A@@1@H@Z ; glm::tmat4x4<float,0>::operator[]
	mov	edx, 2
	mov	rcx, rax
	call	??A?$tvec4@M$0A@@glm@@QEBAAEBMH@Z	; glm::tvec4<float,0>::operator[]
	mov	QWORD PTR tv81[rsp], rax
	mov	edx, 2
	mov	rcx, QWORD PTR m$[rsp]
	call	??A?$tmat4x4@M$0A@@glm@@QEBAAEBU?$tvec4@M$0A@@1@H@Z ; glm::tmat4x4<float,0>::operator[]
	mov	edx, 3
	mov	rcx, rax
	call	??A?$tvec4@M$0A@@glm@@QEBAAEBMH@Z	; glm::tvec4<float,0>::operator[]
	mov	rcx, QWORD PTR tv81[rsp]
	movss	xmm0, DWORD PTR [rcx]
	mulss	xmm0, DWORD PTR [rax]
	movss	xmm1, DWORD PTR tv76[rsp]
	subss	xmm1, xmm0
	movaps	xmm0, xmm1
	movss	DWORD PTR Coef00$[rsp], xmm0

; 302  : 			T Coef02 = m[1][2] * m[3][3] - m[3][2] * m[1][3];

	mov	edx, 1
	mov	rcx, QWORD PTR m$[rsp]
	call	??A?$tmat4x4@M$0A@@glm@@QEBAAEBU?$tvec4@M$0A@@1@H@Z ; glm::tmat4x4<float,0>::operator[]
	mov	edx, 2
	mov	rcx, rax
	call	??A?$tvec4@M$0A@@glm@@QEBAAEBMH@Z	; glm::tvec4<float,0>::operator[]
	mov	QWORD PTR tv95[rsp], rax
	mov	edx, 3
	mov	rcx, QWORD PTR m$[rsp]
	call	??A?$tmat4x4@M$0A@@glm@@QEBAAEBU?$tvec4@M$0A@@1@H@Z ; glm::tmat4x4<float,0>::operator[]
	mov	edx, 3
	mov	rcx, rax
	call	??A?$tvec4@M$0A@@glm@@QEBAAEBMH@Z	; glm::tvec4<float,0>::operator[]
	mov	rcx, QWORD PTR tv95[rsp]
	movss	xmm0, DWORD PTR [rcx]
	mulss	xmm0, DWORD PTR [rax]
	movss	DWORD PTR tv135[rsp], xmm0
	mov	edx, 3
	mov	rcx, QWORD PTR m$[rsp]
	call	??A?$tmat4x4@M$0A@@glm@@QEBAAEBU?$tvec4@M$0A@@1@H@Z ; glm::tmat4x4<float,0>::operator[]
	mov	edx, 2
	mov	rcx, rax
	call	??A?$tvec4@M$0A@@glm@@QEBAAEBMH@Z	; glm::tvec4<float,0>::operator[]
	mov	QWORD PTR tv140[rsp], rax
	mov	edx, 1
	mov	rcx, QWORD PTR m$[rsp]
	call	??A?$tmat4x4@M$0A@@glm@@QEBAAEBU?$tvec4@M$0A@@1@H@Z ; glm::tmat4x4<float,0>::operator[]
	mov	edx, 3
	mov	rcx, rax
	call	??A?$tvec4@M$0A@@glm@@QEBAAEBMH@Z	; glm::tvec4<float,0>::operator[]
	mov	rcx, QWORD PTR tv140[rsp]
	movss	xmm0, DWORD PTR [rcx]
	mulss	xmm0, DWORD PTR [rax]
	movss	xmm1, DWORD PTR tv135[rsp]
	subss	xmm1, xmm0
	movaps	xmm0, xmm1
	movss	DWORD PTR Coef02$[rsp], xmm0

; 303  : 			T Coef03 = m[1][2] * m[2][3] - m[2][2] * m[1][3];

	mov	edx, 1
	mov	rcx, QWORD PTR m$[rsp]
	call	??A?$tmat4x4@M$0A@@glm@@QEBAAEBU?$tvec4@M$0A@@1@H@Z ; glm::tmat4x4<float,0>::operator[]
	mov	edx, 2
	mov	rcx, rax
	call	??A?$tvec4@M$0A@@glm@@QEBAAEBMH@Z	; glm::tvec4<float,0>::operator[]
	mov	QWORD PTR tv154[rsp], rax
	mov	edx, 2
	mov	rcx, QWORD PTR m$[rsp]
	call	??A?$tmat4x4@M$0A@@glm@@QEBAAEBU?$tvec4@M$0A@@1@H@Z ; glm::tmat4x4<float,0>::operator[]
	mov	edx, 3
	mov	rcx, rax
	call	??A?$tvec4@M$0A@@glm@@QEBAAEBMH@Z	; glm::tvec4<float,0>::operator[]
	mov	rcx, QWORD PTR tv154[rsp]
	movss	xmm0, DWORD PTR [rcx]
	mulss	xmm0, DWORD PTR [rax]
	movss	DWORD PTR tv162[rsp], xmm0
	mov	edx, 2
	mov	rcx, QWORD PTR m$[rsp]
	call	??A?$tmat4x4@M$0A@@glm@@QEBAAEBU?$tvec4@M$0A@@1@H@Z ; glm::tmat4x4<float,0>::operator[]
	mov	edx, 2
	mov	rcx, rax
	call	??A?$tvec4@M$0A@@glm@@QEBAAEBMH@Z	; glm::tvec4<float,0>::operator[]
	mov	QWORD PTR tv167[rsp], rax
	mov	edx, 1
	mov	rcx, QWORD PTR m$[rsp]
	call	??A?$tmat4x4@M$0A@@glm@@QEBAAEBU?$tvec4@M$0A@@1@H@Z ; glm::tmat4x4<float,0>::operator[]
	mov	edx, 3
	mov	rcx, rax
	call	??A?$tvec4@M$0A@@glm@@QEBAAEBMH@Z	; glm::tvec4<float,0>::operator[]
	mov	rcx, QWORD PTR tv167[rsp]
	movss	xmm0, DWORD PTR [rcx]
	mulss	xmm0, DWORD PTR [rax]
	movss	xmm1, DWORD PTR tv162[rsp]
	subss	xmm1, xmm0
	movaps	xmm0, xmm1
	movss	DWORD PTR Coef03$[rsp], xmm0

; 304  : 
; 305  : 			T Coef04 = m[2][1] * m[3][3] - m[3][1] * m[2][3];

	mov	edx, 2
	mov	rcx, QWORD PTR m$[rsp]
	call	??A?$tmat4x4@M$0A@@glm@@QEBAAEBU?$tvec4@M$0A@@1@H@Z ; glm::tmat4x4<float,0>::operator[]
	mov	edx, 1
	mov	rcx, rax
	call	??A?$tvec4@M$0A@@glm@@QEBAAEBMH@Z	; glm::tvec4<float,0>::operator[]
	mov	QWORD PTR tv181[rsp], rax
	mov	edx, 3
	mov	rcx, QWORD PTR m$[rsp]
	call	??A?$tmat4x4@M$0A@@glm@@QEBAAEBU?$tvec4@M$0A@@1@H@Z ; glm::tmat4x4<float,0>::operator[]
	mov	edx, 3
	mov	rcx, rax
	call	??A?$tvec4@M$0A@@glm@@QEBAAEBMH@Z	; glm::tvec4<float,0>::operator[]
	mov	rcx, QWORD PTR tv181[rsp]
	movss	xmm0, DWORD PTR [rcx]
	mulss	xmm0, DWORD PTR [rax]
	movss	DWORD PTR tv189[rsp], xmm0
	mov	edx, 3
	mov	rcx, QWORD PTR m$[rsp]
	call	??A?$tmat4x4@M$0A@@glm@@QEBAAEBU?$tvec4@M$0A@@1@H@Z ; glm::tmat4x4<float,0>::operator[]
	mov	edx, 1
	mov	rcx, rax
	call	??A?$tvec4@M$0A@@glm@@QEBAAEBMH@Z	; glm::tvec4<float,0>::operator[]
	mov	QWORD PTR tv194[rsp], rax
	mov	edx, 2
	mov	rcx, QWORD PTR m$[rsp]
	call	??A?$tmat4x4@M$0A@@glm@@QEBAAEBU?$tvec4@M$0A@@1@H@Z ; glm::tmat4x4<float,0>::operator[]
	mov	edx, 3
	mov	rcx, rax
	call	??A?$tvec4@M$0A@@glm@@QEBAAEBMH@Z	; glm::tvec4<float,0>::operator[]
	mov	rcx, QWORD PTR tv194[rsp]
	movss	xmm0, DWORD PTR [rcx]
	mulss	xmm0, DWORD PTR [rax]
	movss	xmm1, DWORD PTR tv189[rsp]
	subss	xmm1, xmm0
	movaps	xmm0, xmm1
	movss	DWORD PTR Coef04$[rsp], xmm0

; 306  : 			T Coef06 = m[1][1] * m[3][3] - m[3][1] * m[1][3];

	mov	edx, 1
	mov	rcx, QWORD PTR m$[rsp]
	call	??A?$tmat4x4@M$0A@@glm@@QEBAAEBU?$tvec4@M$0A@@1@H@Z ; glm::tmat4x4<float,0>::operator[]
	mov	edx, 1
	mov	rcx, rax
	call	??A?$tvec4@M$0A@@glm@@QEBAAEBMH@Z	; glm::tvec4<float,0>::operator[]
	mov	QWORD PTR tv208[rsp], rax
	mov	edx, 3
	mov	rcx, QWORD PTR m$[rsp]
	call	??A?$tmat4x4@M$0A@@glm@@QEBAAEBU?$tvec4@M$0A@@1@H@Z ; glm::tmat4x4<float,0>::operator[]
	mov	edx, 3
	mov	rcx, rax
	call	??A?$tvec4@M$0A@@glm@@QEBAAEBMH@Z	; glm::tvec4<float,0>::operator[]
	mov	rcx, QWORD PTR tv208[rsp]
	movss	xmm0, DWORD PTR [rcx]
	mulss	xmm0, DWORD PTR [rax]
	movss	DWORD PTR tv216[rsp], xmm0
	mov	edx, 3
	mov	rcx, QWORD PTR m$[rsp]
	call	??A?$tmat4x4@M$0A@@glm@@QEBAAEBU?$tvec4@M$0A@@1@H@Z ; glm::tmat4x4<float,0>::operator[]
	mov	edx, 1
	mov	rcx, rax
	call	??A?$tvec4@M$0A@@glm@@QEBAAEBMH@Z	; glm::tvec4<float,0>::operator[]
	mov	QWORD PTR tv221[rsp], rax
	mov	edx, 1
	mov	rcx, QWORD PTR m$[rsp]
	call	??A?$tmat4x4@M$0A@@glm@@QEBAAEBU?$tvec4@M$0A@@1@H@Z ; glm::tmat4x4<float,0>::operator[]
	mov	edx, 3
	mov	rcx, rax
	call	??A?$tvec4@M$0A@@glm@@QEBAAEBMH@Z	; glm::tvec4<float,0>::operator[]
	mov	rcx, QWORD PTR tv221[rsp]
	movss	xmm0, DWORD PTR [rcx]
	mulss	xmm0, DWORD PTR [rax]
	movss	xmm1, DWORD PTR tv216[rsp]
	subss	xmm1, xmm0
	movaps	xmm0, xmm1
	movss	DWORD PTR Coef06$[rsp], xmm0

; 307  : 			T Coef07 = m[1][1] * m[2][3] - m[2][1] * m[1][3];

	mov	edx, 1
	mov	rcx, QWORD PTR m$[rsp]
	call	??A?$tmat4x4@M$0A@@glm@@QEBAAEBU?$tvec4@M$0A@@1@H@Z ; glm::tmat4x4<float,0>::operator[]
	mov	edx, 1
	mov	rcx, rax
	call	??A?$tvec4@M$0A@@glm@@QEBAAEBMH@Z	; glm::tvec4<float,0>::operator[]
	mov	QWORD PTR tv235[rsp], rax
	mov	edx, 2
	mov	rcx, QWORD PTR m$[rsp]
	call	??A?$tmat4x4@M$0A@@glm@@QEBAAEBU?$tvec4@M$0A@@1@H@Z ; glm::tmat4x4<float,0>::operator[]
	mov	edx, 3
	mov	rcx, rax
	call	??A?$tvec4@M$0A@@glm@@QEBAAEBMH@Z	; glm::tvec4<float,0>::operator[]
	mov	rcx, QWORD PTR tv235[rsp]
	movss	xmm0, DWORD PTR [rcx]
	mulss	xmm0, DWORD PTR [rax]
	movss	DWORD PTR tv243[rsp], xmm0
	mov	edx, 2
	mov	rcx, QWORD PTR m$[rsp]
	call	??A?$tmat4x4@M$0A@@glm@@QEBAAEBU?$tvec4@M$0A@@1@H@Z ; glm::tmat4x4<float,0>::operator[]
	mov	edx, 1
	mov	rcx, rax
	call	??A?$tvec4@M$0A@@glm@@QEBAAEBMH@Z	; glm::tvec4<float,0>::operator[]
	mov	QWORD PTR tv248[rsp], rax
	mov	edx, 1
	mov	rcx, QWORD PTR m$[rsp]
	call	??A?$tmat4x4@M$0A@@glm@@QEBAAEBU?$tvec4@M$0A@@1@H@Z ; glm::tmat4x4<float,0>::operator[]
	mov	edx, 3
	mov	rcx, rax
	call	??A?$tvec4@M$0A@@glm@@QEBAAEBMH@Z	; glm::tvec4<float,0>::operator[]
	mov	rcx, QWORD PTR tv248[rsp]
	movss	xmm0, DWORD PTR [rcx]
	mulss	xmm0, DWORD PTR [rax]
	movss	xmm1, DWORD PTR tv243[rsp]
	subss	xmm1, xmm0
	movaps	xmm0, xmm1
	movss	DWORD PTR Coef07$[rsp], xmm0

; 308  : 
; 309  : 			T Coef08 = m[2][1] * m[3][2] - m[3][1] * m[2][2];

	mov	edx, 2
	mov	rcx, QWORD PTR m$[rsp]
	call	??A?$tmat4x4@M$0A@@glm@@QEBAAEBU?$tvec4@M$0A@@1@H@Z ; glm::tmat4x4<float,0>::operator[]
	mov	edx, 1
	mov	rcx, rax
	call	??A?$tvec4@M$0A@@glm@@QEBAAEBMH@Z	; glm::tvec4<float,0>::operator[]
	mov	QWORD PTR tv262[rsp], rax
	mov	edx, 3
	mov	rcx, QWORD PTR m$[rsp]
	call	??A?$tmat4x4@M$0A@@glm@@QEBAAEBU?$tvec4@M$0A@@1@H@Z ; glm::tmat4x4<float,0>::operator[]
	mov	edx, 2
	mov	rcx, rax
	call	??A?$tvec4@M$0A@@glm@@QEBAAEBMH@Z	; glm::tvec4<float,0>::operator[]
	mov	rcx, QWORD PTR tv262[rsp]
	movss	xmm0, DWORD PTR [rcx]
	mulss	xmm0, DWORD PTR [rax]
	movss	DWORD PTR tv270[rsp], xmm0
	mov	edx, 3
	mov	rcx, QWORD PTR m$[rsp]
	call	??A?$tmat4x4@M$0A@@glm@@QEBAAEBU?$tvec4@M$0A@@1@H@Z ; glm::tmat4x4<float,0>::operator[]
	mov	edx, 1
	mov	rcx, rax
	call	??A?$tvec4@M$0A@@glm@@QEBAAEBMH@Z	; glm::tvec4<float,0>::operator[]
	mov	QWORD PTR tv275[rsp], rax
	mov	edx, 2
	mov	rcx, QWORD PTR m$[rsp]
	call	??A?$tmat4x4@M$0A@@glm@@QEBAAEBU?$tvec4@M$0A@@1@H@Z ; glm::tmat4x4<float,0>::operator[]
	mov	edx, 2
	mov	rcx, rax
	call	??A?$tvec4@M$0A@@glm@@QEBAAEBMH@Z	; glm::tvec4<float,0>::operator[]
	mov	rcx, QWORD PTR tv275[rsp]
	movss	xmm0, DWORD PTR [rcx]
	mulss	xmm0, DWORD PTR [rax]
	movss	xmm1, DWORD PTR tv270[rsp]
	subss	xmm1, xmm0
	movaps	xmm0, xmm1
	movss	DWORD PTR Coef08$[rsp], xmm0

; 310  : 			T Coef10 = m[1][1] * m[3][2] - m[3][1] * m[1][2];

	mov	edx, 1
	mov	rcx, QWORD PTR m$[rsp]
	call	??A?$tmat4x4@M$0A@@glm@@QEBAAEBU?$tvec4@M$0A@@1@H@Z ; glm::tmat4x4<float,0>::operator[]
	mov	edx, 1
	mov	rcx, rax
	call	??A?$tvec4@M$0A@@glm@@QEBAAEBMH@Z	; glm::tvec4<float,0>::operator[]
	mov	QWORD PTR tv289[rsp], rax
	mov	edx, 3
	mov	rcx, QWORD PTR m$[rsp]
	call	??A?$tmat4x4@M$0A@@glm@@QEBAAEBU?$tvec4@M$0A@@1@H@Z ; glm::tmat4x4<float,0>::operator[]
	mov	edx, 2
	mov	rcx, rax
	call	??A?$tvec4@M$0A@@glm@@QEBAAEBMH@Z	; glm::tvec4<float,0>::operator[]
	mov	rcx, QWORD PTR tv289[rsp]
	movss	xmm0, DWORD PTR [rcx]
	mulss	xmm0, DWORD PTR [rax]
	movss	DWORD PTR tv297[rsp], xmm0
	mov	edx, 3
	mov	rcx, QWORD PTR m$[rsp]
	call	??A?$tmat4x4@M$0A@@glm@@QEBAAEBU?$tvec4@M$0A@@1@H@Z ; glm::tmat4x4<float,0>::operator[]
	mov	edx, 1
	mov	rcx, rax
	call	??A?$tvec4@M$0A@@glm@@QEBAAEBMH@Z	; glm::tvec4<float,0>::operator[]
	mov	QWORD PTR tv302[rsp], rax
	mov	edx, 1
	mov	rcx, QWORD PTR m$[rsp]
	call	??A?$tmat4x4@M$0A@@glm@@QEBAAEBU?$tvec4@M$0A@@1@H@Z ; glm::tmat4x4<float,0>::operator[]
	mov	edx, 2
	mov	rcx, rax
	call	??A?$tvec4@M$0A@@glm@@QEBAAEBMH@Z	; glm::tvec4<float,0>::operator[]
	mov	rcx, QWORD PTR tv302[rsp]
	movss	xmm0, DWORD PTR [rcx]
	mulss	xmm0, DWORD PTR [rax]
	movss	xmm1, DWORD PTR tv297[rsp]
	subss	xmm1, xmm0
	movaps	xmm0, xmm1
	movss	DWORD PTR Coef10$[rsp], xmm0

; 311  : 			T Coef11 = m[1][1] * m[2][2] - m[2][1] * m[1][2];

	mov	edx, 1
	mov	rcx, QWORD PTR m$[rsp]
	call	??A?$tmat4x4@M$0A@@glm@@QEBAAEBU?$tvec4@M$0A@@1@H@Z ; glm::tmat4x4<float,0>::operator[]
	mov	edx, 1
	mov	rcx, rax
	call	??A?$tvec4@M$0A@@glm@@QEBAAEBMH@Z	; glm::tvec4<float,0>::operator[]
	mov	QWORD PTR tv316[rsp], rax
	mov	edx, 2
	mov	rcx, QWORD PTR m$[rsp]
	call	??A?$tmat4x4@M$0A@@glm@@QEBAAEBU?$tvec4@M$0A@@1@H@Z ; glm::tmat4x4<float,0>::operator[]
	mov	edx, 2
	mov	rcx, rax
	call	??A?$tvec4@M$0A@@glm@@QEBAAEBMH@Z	; glm::tvec4<float,0>::operator[]
	mov	rcx, QWORD PTR tv316[rsp]
	movss	xmm0, DWORD PTR [rcx]
	mulss	xmm0, DWORD PTR [rax]
	movss	DWORD PTR tv324[rsp], xmm0
	mov	edx, 2
	mov	rcx, QWORD PTR m$[rsp]
	call	??A?$tmat4x4@M$0A@@glm@@QEBAAEBU?$tvec4@M$0A@@1@H@Z ; glm::tmat4x4<float,0>::operator[]
	mov	edx, 1
	mov	rcx, rax
	call	??A?$tvec4@M$0A@@glm@@QEBAAEBMH@Z	; glm::tvec4<float,0>::operator[]
	mov	QWORD PTR tv329[rsp], rax
	mov	edx, 1
	mov	rcx, QWORD PTR m$[rsp]
	call	??A?$tmat4x4@M$0A@@glm@@QEBAAEBU?$tvec4@M$0A@@1@H@Z ; glm::tmat4x4<float,0>::operator[]
	mov	edx, 2
	mov	rcx, rax
	call	??A?$tvec4@M$0A@@glm@@QEBAAEBMH@Z	; glm::tvec4<float,0>::operator[]
	mov	rcx, QWORD PTR tv329[rsp]
	movss	xmm0, DWORD PTR [rcx]
	mulss	xmm0, DWORD PTR [rax]
	movss	xmm1, DWORD PTR tv324[rsp]
	subss	xmm1, xmm0
	movaps	xmm0, xmm1
	movss	DWORD PTR Coef11$[rsp], xmm0

; 312  : 
; 313  : 			T Coef12 = m[2][0] * m[3][3] - m[3][0] * m[2][3];

	mov	edx, 2
	mov	rcx, QWORD PTR m$[rsp]
	call	??A?$tmat4x4@M$0A@@glm@@QEBAAEBU?$tvec4@M$0A@@1@H@Z ; glm::tmat4x4<float,0>::operator[]
	xor	edx, edx
	mov	rcx, rax
	call	??A?$tvec4@M$0A@@glm@@QEBAAEBMH@Z	; glm::tvec4<float,0>::operator[]
	mov	QWORD PTR tv343[rsp], rax
	mov	edx, 3
	mov	rcx, QWORD PTR m$[rsp]
	call	??A?$tmat4x4@M$0A@@glm@@QEBAAEBU?$tvec4@M$0A@@1@H@Z ; glm::tmat4x4<float,0>::operator[]
	mov	edx, 3
	mov	rcx, rax
	call	??A?$tvec4@M$0A@@glm@@QEBAAEBMH@Z	; glm::tvec4<float,0>::operator[]
	mov	rcx, QWORD PTR tv343[rsp]
	movss	xmm0, DWORD PTR [rcx]
	mulss	xmm0, DWORD PTR [rax]
	movss	DWORD PTR tv351[rsp], xmm0
	mov	edx, 3
	mov	rcx, QWORD PTR m$[rsp]
	call	??A?$tmat4x4@M$0A@@glm@@QEBAAEBU?$tvec4@M$0A@@1@H@Z ; glm::tmat4x4<float,0>::operator[]
	xor	edx, edx
	mov	rcx, rax
	call	??A?$tvec4@M$0A@@glm@@QEBAAEBMH@Z	; glm::tvec4<float,0>::operator[]
	mov	QWORD PTR tv356[rsp], rax
	mov	edx, 2
	mov	rcx, QWORD PTR m$[rsp]
	call	??A?$tmat4x4@M$0A@@glm@@QEBAAEBU?$tvec4@M$0A@@1@H@Z ; glm::tmat4x4<float,0>::operator[]
	mov	edx, 3
	mov	rcx, rax
	call	??A?$tvec4@M$0A@@glm@@QEBAAEBMH@Z	; glm::tvec4<float,0>::operator[]
	mov	rcx, QWORD PTR tv356[rsp]
	movss	xmm0, DWORD PTR [rcx]
	mulss	xmm0, DWORD PTR [rax]
	movss	xmm1, DWORD PTR tv351[rsp]
	subss	xmm1, xmm0
	movaps	xmm0, xmm1
	movss	DWORD PTR Coef12$[rsp], xmm0

; 314  : 			T Coef14 = m[1][0] * m[3][3] - m[3][0] * m[1][3];

	mov	edx, 1
	mov	rcx, QWORD PTR m$[rsp]
	call	??A?$tmat4x4@M$0A@@glm@@QEBAAEBU?$tvec4@M$0A@@1@H@Z ; glm::tmat4x4<float,0>::operator[]
	xor	edx, edx
	mov	rcx, rax
	call	??A?$tvec4@M$0A@@glm@@QEBAAEBMH@Z	; glm::tvec4<float,0>::operator[]
	mov	QWORD PTR tv370[rsp], rax
	mov	edx, 3
	mov	rcx, QWORD PTR m$[rsp]
	call	??A?$tmat4x4@M$0A@@glm@@QEBAAEBU?$tvec4@M$0A@@1@H@Z ; glm::tmat4x4<float,0>::operator[]
	mov	edx, 3
	mov	rcx, rax
	call	??A?$tvec4@M$0A@@glm@@QEBAAEBMH@Z	; glm::tvec4<float,0>::operator[]
	mov	rcx, QWORD PTR tv370[rsp]
	movss	xmm0, DWORD PTR [rcx]
	mulss	xmm0, DWORD PTR [rax]
	movss	DWORD PTR tv378[rsp], xmm0
	mov	edx, 3
	mov	rcx, QWORD PTR m$[rsp]
	call	??A?$tmat4x4@M$0A@@glm@@QEBAAEBU?$tvec4@M$0A@@1@H@Z ; glm::tmat4x4<float,0>::operator[]
	xor	edx, edx
	mov	rcx, rax
	call	??A?$tvec4@M$0A@@glm@@QEBAAEBMH@Z	; glm::tvec4<float,0>::operator[]
	mov	QWORD PTR tv383[rsp], rax
	mov	edx, 1
	mov	rcx, QWORD PTR m$[rsp]
	call	??A?$tmat4x4@M$0A@@glm@@QEBAAEBU?$tvec4@M$0A@@1@H@Z ; glm::tmat4x4<float,0>::operator[]
	mov	edx, 3
	mov	rcx, rax
	call	??A?$tvec4@M$0A@@glm@@QEBAAEBMH@Z	; glm::tvec4<float,0>::operator[]
	mov	rcx, QWORD PTR tv383[rsp]
	movss	xmm0, DWORD PTR [rcx]
	mulss	xmm0, DWORD PTR [rax]
	movss	xmm1, DWORD PTR tv378[rsp]
	subss	xmm1, xmm0
	movaps	xmm0, xmm1
	movss	DWORD PTR Coef14$[rsp], xmm0

; 315  : 			T Coef15 = m[1][0] * m[2][3] - m[2][0] * m[1][3];

	mov	edx, 1
	mov	rcx, QWORD PTR m$[rsp]
	call	??A?$tmat4x4@M$0A@@glm@@QEBAAEBU?$tvec4@M$0A@@1@H@Z ; glm::tmat4x4<float,0>::operator[]
	xor	edx, edx
	mov	rcx, rax
	call	??A?$tvec4@M$0A@@glm@@QEBAAEBMH@Z	; glm::tvec4<float,0>::operator[]
	mov	QWORD PTR tv397[rsp], rax
	mov	edx, 2
	mov	rcx, QWORD PTR m$[rsp]
	call	??A?$tmat4x4@M$0A@@glm@@QEBAAEBU?$tvec4@M$0A@@1@H@Z ; glm::tmat4x4<float,0>::operator[]
	mov	edx, 3
	mov	rcx, rax
	call	??A?$tvec4@M$0A@@glm@@QEBAAEBMH@Z	; glm::tvec4<float,0>::operator[]
	mov	rcx, QWORD PTR tv397[rsp]
	movss	xmm0, DWORD PTR [rcx]
	mulss	xmm0, DWORD PTR [rax]
	movss	DWORD PTR tv405[rsp], xmm0
	mov	edx, 2
	mov	rcx, QWORD PTR m$[rsp]
	call	??A?$tmat4x4@M$0A@@glm@@QEBAAEBU?$tvec4@M$0A@@1@H@Z ; glm::tmat4x4<float,0>::operator[]
	xor	edx, edx
	mov	rcx, rax
	call	??A?$tvec4@M$0A@@glm@@QEBAAEBMH@Z	; glm::tvec4<float,0>::operator[]
	mov	QWORD PTR tv410[rsp], rax
	mov	edx, 1
	mov	rcx, QWORD PTR m$[rsp]
	call	??A?$tmat4x4@M$0A@@glm@@QEBAAEBU?$tvec4@M$0A@@1@H@Z ; glm::tmat4x4<float,0>::operator[]
	mov	edx, 3
	mov	rcx, rax
	call	??A?$tvec4@M$0A@@glm@@QEBAAEBMH@Z	; glm::tvec4<float,0>::operator[]
	mov	rcx, QWORD PTR tv410[rsp]
	movss	xmm0, DWORD PTR [rcx]
	mulss	xmm0, DWORD PTR [rax]
	movss	xmm1, DWORD PTR tv405[rsp]
	subss	xmm1, xmm0
	movaps	xmm0, xmm1
	movss	DWORD PTR Coef15$[rsp], xmm0

; 316  : 
; 317  : 			T Coef16 = m[2][0] * m[3][2] - m[3][0] * m[2][2];

	mov	edx, 2
	mov	rcx, QWORD PTR m$[rsp]
	call	??A?$tmat4x4@M$0A@@glm@@QEBAAEBU?$tvec4@M$0A@@1@H@Z ; glm::tmat4x4<float,0>::operator[]
	xor	edx, edx
	mov	rcx, rax
	call	??A?$tvec4@M$0A@@glm@@QEBAAEBMH@Z	; glm::tvec4<float,0>::operator[]
	mov	QWORD PTR tv424[rsp], rax
	mov	edx, 3
	mov	rcx, QWORD PTR m$[rsp]
	call	??A?$tmat4x4@M$0A@@glm@@QEBAAEBU?$tvec4@M$0A@@1@H@Z ; glm::tmat4x4<float,0>::operator[]
	mov	edx, 2
	mov	rcx, rax
	call	??A?$tvec4@M$0A@@glm@@QEBAAEBMH@Z	; glm::tvec4<float,0>::operator[]
	mov	rcx, QWORD PTR tv424[rsp]
	movss	xmm0, DWORD PTR [rcx]
	mulss	xmm0, DWORD PTR [rax]
	movss	DWORD PTR tv432[rsp], xmm0
	mov	edx, 3
	mov	rcx, QWORD PTR m$[rsp]
	call	??A?$tmat4x4@M$0A@@glm@@QEBAAEBU?$tvec4@M$0A@@1@H@Z ; glm::tmat4x4<float,0>::operator[]
	xor	edx, edx
	mov	rcx, rax
	call	??A?$tvec4@M$0A@@glm@@QEBAAEBMH@Z	; glm::tvec4<float,0>::operator[]
	mov	QWORD PTR tv437[rsp], rax
	mov	edx, 2
	mov	rcx, QWORD PTR m$[rsp]
	call	??A?$tmat4x4@M$0A@@glm@@QEBAAEBU?$tvec4@M$0A@@1@H@Z ; glm::tmat4x4<float,0>::operator[]
	mov	edx, 2
	mov	rcx, rax
	call	??A?$tvec4@M$0A@@glm@@QEBAAEBMH@Z	; glm::tvec4<float,0>::operator[]
	mov	rcx, QWORD PTR tv437[rsp]
	movss	xmm0, DWORD PTR [rcx]
	mulss	xmm0, DWORD PTR [rax]
	movss	xmm1, DWORD PTR tv432[rsp]
	subss	xmm1, xmm0
	movaps	xmm0, xmm1
	movss	DWORD PTR Coef16$[rsp], xmm0

; 318  : 			T Coef18 = m[1][0] * m[3][2] - m[3][0] * m[1][2];

	mov	edx, 1
	mov	rcx, QWORD PTR m$[rsp]
	call	??A?$tmat4x4@M$0A@@glm@@QEBAAEBU?$tvec4@M$0A@@1@H@Z ; glm::tmat4x4<float,0>::operator[]
	xor	edx, edx
	mov	rcx, rax
	call	??A?$tvec4@M$0A@@glm@@QEBAAEBMH@Z	; glm::tvec4<float,0>::operator[]
	mov	QWORD PTR tv451[rsp], rax
	mov	edx, 3
	mov	rcx, QWORD PTR m$[rsp]
	call	??A?$tmat4x4@M$0A@@glm@@QEBAAEBU?$tvec4@M$0A@@1@H@Z ; glm::tmat4x4<float,0>::operator[]
	mov	edx, 2
	mov	rcx, rax
	call	??A?$tvec4@M$0A@@glm@@QEBAAEBMH@Z	; glm::tvec4<float,0>::operator[]
	mov	rcx, QWORD PTR tv451[rsp]
	movss	xmm0, DWORD PTR [rcx]
	mulss	xmm0, DWORD PTR [rax]
	movss	DWORD PTR tv459[rsp], xmm0
	mov	edx, 3
	mov	rcx, QWORD PTR m$[rsp]
	call	??A?$tmat4x4@M$0A@@glm@@QEBAAEBU?$tvec4@M$0A@@1@H@Z ; glm::tmat4x4<float,0>::operator[]
	xor	edx, edx
	mov	rcx, rax
	call	??A?$tvec4@M$0A@@glm@@QEBAAEBMH@Z	; glm::tvec4<float,0>::operator[]
	mov	QWORD PTR tv464[rsp], rax
	mov	edx, 1
	mov	rcx, QWORD PTR m$[rsp]
	call	??A?$tmat4x4@M$0A@@glm@@QEBAAEBU?$tvec4@M$0A@@1@H@Z ; glm::tmat4x4<float,0>::operator[]
	mov	edx, 2
	mov	rcx, rax
	call	??A?$tvec4@M$0A@@glm@@QEBAAEBMH@Z	; glm::tvec4<float,0>::operator[]
	mov	rcx, QWORD PTR tv464[rsp]
	movss	xmm0, DWORD PTR [rcx]
	mulss	xmm0, DWORD PTR [rax]
	movss	xmm1, DWORD PTR tv459[rsp]
	subss	xmm1, xmm0
	movaps	xmm0, xmm1
	movss	DWORD PTR Coef18$[rsp], xmm0

; 319  : 			T Coef19 = m[1][0] * m[2][2] - m[2][0] * m[1][2];

	mov	edx, 1
	mov	rcx, QWORD PTR m$[rsp]
	call	??A?$tmat4x4@M$0A@@glm@@QEBAAEBU?$tvec4@M$0A@@1@H@Z ; glm::tmat4x4<float,0>::operator[]
	xor	edx, edx
	mov	rcx, rax
	call	??A?$tvec4@M$0A@@glm@@QEBAAEBMH@Z	; glm::tvec4<float,0>::operator[]
	mov	QWORD PTR tv478[rsp], rax
	mov	edx, 2
	mov	rcx, QWORD PTR m$[rsp]
	call	??A?$tmat4x4@M$0A@@glm@@QEBAAEBU?$tvec4@M$0A@@1@H@Z ; glm::tmat4x4<float,0>::operator[]
	mov	edx, 2
	mov	rcx, rax
	call	??A?$tvec4@M$0A@@glm@@QEBAAEBMH@Z	; glm::tvec4<float,0>::operator[]
	mov	rcx, QWORD PTR tv478[rsp]
	movss	xmm0, DWORD PTR [rcx]
	mulss	xmm0, DWORD PTR [rax]
	movss	DWORD PTR tv486[rsp], xmm0
	mov	edx, 2
	mov	rcx, QWORD PTR m$[rsp]
	call	??A?$tmat4x4@M$0A@@glm@@QEBAAEBU?$tvec4@M$0A@@1@H@Z ; glm::tmat4x4<float,0>::operator[]
	xor	edx, edx
	mov	rcx, rax
	call	??A?$tvec4@M$0A@@glm@@QEBAAEBMH@Z	; glm::tvec4<float,0>::operator[]
	mov	QWORD PTR tv491[rsp], rax
	mov	edx, 1
	mov	rcx, QWORD PTR m$[rsp]
	call	??A?$tmat4x4@M$0A@@glm@@QEBAAEBU?$tvec4@M$0A@@1@H@Z ; glm::tmat4x4<float,0>::operator[]
	mov	edx, 2
	mov	rcx, rax
	call	??A?$tvec4@M$0A@@glm@@QEBAAEBMH@Z	; glm::tvec4<float,0>::operator[]
	mov	rcx, QWORD PTR tv491[rsp]
	movss	xmm0, DWORD PTR [rcx]
	mulss	xmm0, DWORD PTR [rax]
	movss	xmm1, DWORD PTR tv486[rsp]
	subss	xmm1, xmm0
	movaps	xmm0, xmm1
	movss	DWORD PTR Coef19$[rsp], xmm0

; 320  : 
; 321  : 			T Coef20 = m[2][0] * m[3][1] - m[3][0] * m[2][1];

	mov	edx, 2
	mov	rcx, QWORD PTR m$[rsp]
	call	??A?$tmat4x4@M$0A@@glm@@QEBAAEBU?$tvec4@M$0A@@1@H@Z ; glm::tmat4x4<float,0>::operator[]
	xor	edx, edx
	mov	rcx, rax
	call	??A?$tvec4@M$0A@@glm@@QEBAAEBMH@Z	; glm::tvec4<float,0>::operator[]
	mov	QWORD PTR tv505[rsp], rax
	mov	edx, 3
	mov	rcx, QWORD PTR m$[rsp]
	call	??A?$tmat4x4@M$0A@@glm@@QEBAAEBU?$tvec4@M$0A@@1@H@Z ; glm::tmat4x4<float,0>::operator[]
	mov	edx, 1
	mov	rcx, rax
	call	??A?$tvec4@M$0A@@glm@@QEBAAEBMH@Z	; glm::tvec4<float,0>::operator[]
	mov	rcx, QWORD PTR tv505[rsp]
	movss	xmm0, DWORD PTR [rcx]
	mulss	xmm0, DWORD PTR [rax]
	movss	DWORD PTR tv513[rsp], xmm0
	mov	edx, 3
	mov	rcx, QWORD PTR m$[rsp]
	call	??A?$tmat4x4@M$0A@@glm@@QEBAAEBU?$tvec4@M$0A@@1@H@Z ; glm::tmat4x4<float,0>::operator[]
	xor	edx, edx
	mov	rcx, rax
	call	??A?$tvec4@M$0A@@glm@@QEBAAEBMH@Z	; glm::tvec4<float,0>::operator[]
	mov	QWORD PTR tv518[rsp], rax
	mov	edx, 2
	mov	rcx, QWORD PTR m$[rsp]
	call	??A?$tmat4x4@M$0A@@glm@@QEBAAEBU?$tvec4@M$0A@@1@H@Z ; glm::tmat4x4<float,0>::operator[]
	mov	edx, 1
	mov	rcx, rax
	call	??A?$tvec4@M$0A@@glm@@QEBAAEBMH@Z	; glm::tvec4<float,0>::operator[]
	mov	rcx, QWORD PTR tv518[rsp]
	movss	xmm0, DWORD PTR [rcx]
	mulss	xmm0, DWORD PTR [rax]
	movss	xmm1, DWORD PTR tv513[rsp]
	subss	xmm1, xmm0
	movaps	xmm0, xmm1
	movss	DWORD PTR Coef20$[rsp], xmm0

; 322  : 			T Coef22 = m[1][0] * m[3][1] - m[3][0] * m[1][1];

	mov	edx, 1
	mov	rcx, QWORD PTR m$[rsp]
	call	??A?$tmat4x4@M$0A@@glm@@QEBAAEBU?$tvec4@M$0A@@1@H@Z ; glm::tmat4x4<float,0>::operator[]
	xor	edx, edx
	mov	rcx, rax
	call	??A?$tvec4@M$0A@@glm@@QEBAAEBMH@Z	; glm::tvec4<float,0>::operator[]
	mov	QWORD PTR tv532[rsp], rax
	mov	edx, 3
	mov	rcx, QWORD PTR m$[rsp]
	call	??A?$tmat4x4@M$0A@@glm@@QEBAAEBU?$tvec4@M$0A@@1@H@Z ; glm::tmat4x4<float,0>::operator[]
	mov	edx, 1
	mov	rcx, rax
	call	??A?$tvec4@M$0A@@glm@@QEBAAEBMH@Z	; glm::tvec4<float,0>::operator[]
	mov	rcx, QWORD PTR tv532[rsp]
	movss	xmm0, DWORD PTR [rcx]
	mulss	xmm0, DWORD PTR [rax]
	movss	DWORD PTR tv540[rsp], xmm0
	mov	edx, 3
	mov	rcx, QWORD PTR m$[rsp]
	call	??A?$tmat4x4@M$0A@@glm@@QEBAAEBU?$tvec4@M$0A@@1@H@Z ; glm::tmat4x4<float,0>::operator[]
	xor	edx, edx
	mov	rcx, rax
	call	??A?$tvec4@M$0A@@glm@@QEBAAEBMH@Z	; glm::tvec4<float,0>::operator[]
	mov	QWORD PTR tv545[rsp], rax
	mov	edx, 1
	mov	rcx, QWORD PTR m$[rsp]
	call	??A?$tmat4x4@M$0A@@glm@@QEBAAEBU?$tvec4@M$0A@@1@H@Z ; glm::tmat4x4<float,0>::operator[]
	mov	edx, 1
	mov	rcx, rax
	call	??A?$tvec4@M$0A@@glm@@QEBAAEBMH@Z	; glm::tvec4<float,0>::operator[]
	mov	rcx, QWORD PTR tv545[rsp]
	movss	xmm0, DWORD PTR [rcx]
	mulss	xmm0, DWORD PTR [rax]
	movss	xmm1, DWORD PTR tv540[rsp]
	subss	xmm1, xmm0
	movaps	xmm0, xmm1
	movss	DWORD PTR Coef22$[rsp], xmm0

; 323  : 			T Coef23 = m[1][0] * m[2][1] - m[2][0] * m[1][1];

	mov	edx, 1
	mov	rcx, QWORD PTR m$[rsp]
	call	??A?$tmat4x4@M$0A@@glm@@QEBAAEBU?$tvec4@M$0A@@1@H@Z ; glm::tmat4x4<float,0>::operator[]
	xor	edx, edx
	mov	rcx, rax
	call	??A?$tvec4@M$0A@@glm@@QEBAAEBMH@Z	; glm::tvec4<float,0>::operator[]
	mov	QWORD PTR tv559[rsp], rax
	mov	edx, 2
	mov	rcx, QWORD PTR m$[rsp]
	call	??A?$tmat4x4@M$0A@@glm@@QEBAAEBU?$tvec4@M$0A@@1@H@Z ; glm::tmat4x4<float,0>::operator[]
	mov	edx, 1
	mov	rcx, rax
	call	??A?$tvec4@M$0A@@glm@@QEBAAEBMH@Z	; glm::tvec4<float,0>::operator[]
	mov	rcx, QWORD PTR tv559[rsp]
	movss	xmm0, DWORD PTR [rcx]
	mulss	xmm0, DWORD PTR [rax]
	movss	DWORD PTR tv567[rsp], xmm0
	mov	edx, 2
	mov	rcx, QWORD PTR m$[rsp]
	call	??A?$tmat4x4@M$0A@@glm@@QEBAAEBU?$tvec4@M$0A@@1@H@Z ; glm::tmat4x4<float,0>::operator[]
	xor	edx, edx
	mov	rcx, rax
	call	??A?$tvec4@M$0A@@glm@@QEBAAEBMH@Z	; glm::tvec4<float,0>::operator[]
	mov	QWORD PTR tv572[rsp], rax
	mov	edx, 1
	mov	rcx, QWORD PTR m$[rsp]
	call	??A?$tmat4x4@M$0A@@glm@@QEBAAEBU?$tvec4@M$0A@@1@H@Z ; glm::tmat4x4<float,0>::operator[]
	mov	edx, 1
	mov	rcx, rax
	call	??A?$tvec4@M$0A@@glm@@QEBAAEBMH@Z	; glm::tvec4<float,0>::operator[]
	mov	rcx, QWORD PTR tv572[rsp]
	movss	xmm0, DWORD PTR [rcx]
	mulss	xmm0, DWORD PTR [rax]
	movss	xmm1, DWORD PTR tv567[rsp]
	subss	xmm1, xmm0
	movaps	xmm0, xmm1
	movss	DWORD PTR Coef23$[rsp], xmm0

; 324  : 
; 325  : 			tvec4<T, P> Fac0(Coef00, Coef00, Coef02, Coef03);

	movss	xmm0, DWORD PTR Coef03$[rsp]
	movss	DWORD PTR [rsp+32], xmm0
	movss	xmm3, DWORD PTR Coef02$[rsp]
	movss	xmm2, DWORD PTR Coef00$[rsp]
	movss	xmm1, DWORD PTR Coef00$[rsp]
	lea	rcx, QWORD PTR Fac0$[rsp]
	call	??0?$tvec4@M$0A@@glm@@QEAA@MMMM@Z	; glm::tvec4<float,0>::tvec4<float,0>

; 326  : 			tvec4<T, P> Fac1(Coef04, Coef04, Coef06, Coef07);

	movss	xmm0, DWORD PTR Coef07$[rsp]
	movss	DWORD PTR [rsp+32], xmm0
	movss	xmm3, DWORD PTR Coef06$[rsp]
	movss	xmm2, DWORD PTR Coef04$[rsp]
	movss	xmm1, DWORD PTR Coef04$[rsp]
	lea	rcx, QWORD PTR Fac1$[rsp]
	call	??0?$tvec4@M$0A@@glm@@QEAA@MMMM@Z	; glm::tvec4<float,0>::tvec4<float,0>

; 327  : 			tvec4<T, P> Fac2(Coef08, Coef08, Coef10, Coef11);

	movss	xmm0, DWORD PTR Coef11$[rsp]
	movss	DWORD PTR [rsp+32], xmm0
	movss	xmm3, DWORD PTR Coef10$[rsp]
	movss	xmm2, DWORD PTR Coef08$[rsp]
	movss	xmm1, DWORD PTR Coef08$[rsp]
	lea	rcx, QWORD PTR Fac2$[rsp]
	call	??0?$tvec4@M$0A@@glm@@QEAA@MMMM@Z	; glm::tvec4<float,0>::tvec4<float,0>

; 328  : 			tvec4<T, P> Fac3(Coef12, Coef12, Coef14, Coef15);

	movss	xmm0, DWORD PTR Coef15$[rsp]
	movss	DWORD PTR [rsp+32], xmm0
	movss	xmm3, DWORD PTR Coef14$[rsp]
	movss	xmm2, DWORD PTR Coef12$[rsp]
	movss	xmm1, DWORD PTR Coef12$[rsp]
	lea	rcx, QWORD PTR Fac3$[rsp]
	call	??0?$tvec4@M$0A@@glm@@QEAA@MMMM@Z	; glm::tvec4<float,0>::tvec4<float,0>

; 329  : 			tvec4<T, P> Fac4(Coef16, Coef16, Coef18, Coef19);

	movss	xmm0, DWORD PTR Coef19$[rsp]
	movss	DWORD PTR [rsp+32], xmm0
	movss	xmm3, DWORD PTR Coef18$[rsp]
	movss	xmm2, DWORD PTR Coef16$[rsp]
	movss	xmm1, DWORD PTR Coef16$[rsp]
	lea	rcx, QWORD PTR Fac4$[rsp]
	call	??0?$tvec4@M$0A@@glm@@QEAA@MMMM@Z	; glm::tvec4<float,0>::tvec4<float,0>

; 330  : 			tvec4<T, P> Fac5(Coef20, Coef20, Coef22, Coef23);

	movss	xmm0, DWORD PTR Coef23$[rsp]
	movss	DWORD PTR [rsp+32], xmm0
	movss	xmm3, DWORD PTR Coef22$[rsp]
	movss	xmm2, DWORD PTR Coef20$[rsp]
	movss	xmm1, DWORD PTR Coef20$[rsp]
	lea	rcx, QWORD PTR Fac5$[rsp]
	call	??0?$tvec4@M$0A@@glm@@QEAA@MMMM@Z	; glm::tvec4<float,0>::tvec4<float,0>

; 331  : 
; 332  : 			tvec4<T, P> Vec0(m[1][0], m[0][0], m[0][0], m[0][0]);

	xor	edx, edx
	mov	rcx, QWORD PTR m$[rsp]
	call	??A?$tmat4x4@M$0A@@glm@@QEBAAEBU?$tvec4@M$0A@@1@H@Z ; glm::tmat4x4<float,0>::operator[]
	xor	edx, edx
	mov	rcx, rax
	call	??A?$tvec4@M$0A@@glm@@QEBAAEBMH@Z	; glm::tvec4<float,0>::operator[]
	mov	QWORD PTR tv618[rsp], rax
	xor	edx, edx
	mov	rcx, QWORD PTR m$[rsp]
	call	??A?$tmat4x4@M$0A@@glm@@QEBAAEBU?$tvec4@M$0A@@1@H@Z ; glm::tmat4x4<float,0>::operator[]
	xor	edx, edx
	mov	rcx, rax
	call	??A?$tvec4@M$0A@@glm@@QEBAAEBMH@Z	; glm::tvec4<float,0>::operator[]
	mov	QWORD PTR tv625[rsp], rax
	xor	edx, edx
	mov	rcx, QWORD PTR m$[rsp]
	call	??A?$tmat4x4@M$0A@@glm@@QEBAAEBU?$tvec4@M$0A@@1@H@Z ; glm::tmat4x4<float,0>::operator[]
	xor	edx, edx
	mov	rcx, rax
	call	??A?$tvec4@M$0A@@glm@@QEBAAEBMH@Z	; glm::tvec4<float,0>::operator[]
	mov	QWORD PTR tv632[rsp], rax
	mov	edx, 1
	mov	rcx, QWORD PTR m$[rsp]
	call	??A?$tmat4x4@M$0A@@glm@@QEBAAEBU?$tvec4@M$0A@@1@H@Z ; glm::tmat4x4<float,0>::operator[]
	xor	edx, edx
	mov	rcx, rax
	call	??A?$tvec4@M$0A@@glm@@QEBAAEBMH@Z	; glm::tvec4<float,0>::operator[]
	mov	rcx, QWORD PTR tv618[rsp]
	movss	xmm0, DWORD PTR [rcx]
	movss	DWORD PTR [rsp+32], xmm0
	mov	rcx, QWORD PTR tv625[rsp]
	movss	xmm3, DWORD PTR [rcx]
	mov	rcx, QWORD PTR tv632[rsp]
	movss	xmm2, DWORD PTR [rcx]
	movss	xmm1, DWORD PTR [rax]
	lea	rcx, QWORD PTR Vec0$[rsp]
	call	??0?$tvec4@M$0A@@glm@@QEAA@MMMM@Z	; glm::tvec4<float,0>::tvec4<float,0>

; 333  : 			tvec4<T, P> Vec1(m[1][1], m[0][1], m[0][1], m[0][1]);

	xor	edx, edx
	mov	rcx, QWORD PTR m$[rsp]
	call	??A?$tmat4x4@M$0A@@glm@@QEBAAEBU?$tvec4@M$0A@@1@H@Z ; glm::tmat4x4<float,0>::operator[]
	mov	edx, 1
	mov	rcx, rax
	call	??A?$tvec4@M$0A@@glm@@QEBAAEBMH@Z	; glm::tvec4<float,0>::operator[]
	mov	QWORD PTR tv647[rsp], rax
	xor	edx, edx
	mov	rcx, QWORD PTR m$[rsp]
	call	??A?$tmat4x4@M$0A@@glm@@QEBAAEBU?$tvec4@M$0A@@1@H@Z ; glm::tmat4x4<float,0>::operator[]
	mov	edx, 1
	mov	rcx, rax
	call	??A?$tvec4@M$0A@@glm@@QEBAAEBMH@Z	; glm::tvec4<float,0>::operator[]
	mov	QWORD PTR tv654[rsp], rax
	xor	edx, edx
	mov	rcx, QWORD PTR m$[rsp]
	call	??A?$tmat4x4@M$0A@@glm@@QEBAAEBU?$tvec4@M$0A@@1@H@Z ; glm::tmat4x4<float,0>::operator[]
	mov	edx, 1
	mov	rcx, rax
	call	??A?$tvec4@M$0A@@glm@@QEBAAEBMH@Z	; glm::tvec4<float,0>::operator[]
	mov	QWORD PTR tv661[rsp], rax
	mov	edx, 1
	mov	rcx, QWORD PTR m$[rsp]
	call	??A?$tmat4x4@M$0A@@glm@@QEBAAEBU?$tvec4@M$0A@@1@H@Z ; glm::tmat4x4<float,0>::operator[]
	mov	edx, 1
	mov	rcx, rax
	call	??A?$tvec4@M$0A@@glm@@QEBAAEBMH@Z	; glm::tvec4<float,0>::operator[]
	mov	rcx, QWORD PTR tv647[rsp]
	movss	xmm0, DWORD PTR [rcx]
	movss	DWORD PTR [rsp+32], xmm0
	mov	rcx, QWORD PTR tv654[rsp]
	movss	xmm3, DWORD PTR [rcx]
	mov	rcx, QWORD PTR tv661[rsp]
	movss	xmm2, DWORD PTR [rcx]
	movss	xmm1, DWORD PTR [rax]
	lea	rcx, QWORD PTR Vec1$[rsp]
	call	??0?$tvec4@M$0A@@glm@@QEAA@MMMM@Z	; glm::tvec4<float,0>::tvec4<float,0>

; 334  : 			tvec4<T, P> Vec2(m[1][2], m[0][2], m[0][2], m[0][2]);

	xor	edx, edx
	mov	rcx, QWORD PTR m$[rsp]
	call	??A?$tmat4x4@M$0A@@glm@@QEBAAEBU?$tvec4@M$0A@@1@H@Z ; glm::tmat4x4<float,0>::operator[]
	mov	edx, 2
	mov	rcx, rax
	call	??A?$tvec4@M$0A@@glm@@QEBAAEBMH@Z	; glm::tvec4<float,0>::operator[]
	mov	QWORD PTR tv676[rsp], rax
	xor	edx, edx
	mov	rcx, QWORD PTR m$[rsp]
	call	??A?$tmat4x4@M$0A@@glm@@QEBAAEBU?$tvec4@M$0A@@1@H@Z ; glm::tmat4x4<float,0>::operator[]
	mov	edx, 2
	mov	rcx, rax
	call	??A?$tvec4@M$0A@@glm@@QEBAAEBMH@Z	; glm::tvec4<float,0>::operator[]
	mov	QWORD PTR tv683[rsp], rax
	xor	edx, edx
	mov	rcx, QWORD PTR m$[rsp]
	call	??A?$tmat4x4@M$0A@@glm@@QEBAAEBU?$tvec4@M$0A@@1@H@Z ; glm::tmat4x4<float,0>::operator[]
	mov	edx, 2
	mov	rcx, rax
	call	??A?$tvec4@M$0A@@glm@@QEBAAEBMH@Z	; glm::tvec4<float,0>::operator[]
	mov	QWORD PTR tv690[rsp], rax
	mov	edx, 1
	mov	rcx, QWORD PTR m$[rsp]
	call	??A?$tmat4x4@M$0A@@glm@@QEBAAEBU?$tvec4@M$0A@@1@H@Z ; glm::tmat4x4<float,0>::operator[]
	mov	edx, 2
	mov	rcx, rax
	call	??A?$tvec4@M$0A@@glm@@QEBAAEBMH@Z	; glm::tvec4<float,0>::operator[]
	mov	rcx, QWORD PTR tv676[rsp]
	movss	xmm0, DWORD PTR [rcx]
	movss	DWORD PTR [rsp+32], xmm0
	mov	rcx, QWORD PTR tv683[rsp]
	movss	xmm3, DWORD PTR [rcx]
	mov	rcx, QWORD PTR tv690[rsp]
	movss	xmm2, DWORD PTR [rcx]
	movss	xmm1, DWORD PTR [rax]
	lea	rcx, QWORD PTR Vec2$[rsp]
	call	??0?$tvec4@M$0A@@glm@@QEAA@MMMM@Z	; glm::tvec4<float,0>::tvec4<float,0>

; 335  : 			tvec4<T, P> Vec3(m[1][3], m[0][3], m[0][3], m[0][3]);

	xor	edx, edx
	mov	rcx, QWORD PTR m$[rsp]
	call	??A?$tmat4x4@M$0A@@glm@@QEBAAEBU?$tvec4@M$0A@@1@H@Z ; glm::tmat4x4<float,0>::operator[]
	mov	edx, 3
	mov	rcx, rax
	call	??A?$tvec4@M$0A@@glm@@QEBAAEBMH@Z	; glm::tvec4<float,0>::operator[]
	mov	QWORD PTR tv705[rsp], rax
	xor	edx, edx
	mov	rcx, QWORD PTR m$[rsp]
	call	??A?$tmat4x4@M$0A@@glm@@QEBAAEBU?$tvec4@M$0A@@1@H@Z ; glm::tmat4x4<float,0>::operator[]
	mov	edx, 3
	mov	rcx, rax
	call	??A?$tvec4@M$0A@@glm@@QEBAAEBMH@Z	; glm::tvec4<float,0>::operator[]
	mov	QWORD PTR tv712[rsp], rax
	xor	edx, edx
	mov	rcx, QWORD PTR m$[rsp]
	call	??A?$tmat4x4@M$0A@@glm@@QEBAAEBU?$tvec4@M$0A@@1@H@Z ; glm::tmat4x4<float,0>::operator[]
	mov	edx, 3
	mov	rcx, rax
	call	??A?$tvec4@M$0A@@glm@@QEBAAEBMH@Z	; glm::tvec4<float,0>::operator[]
	mov	QWORD PTR tv719[rsp], rax
	mov	edx, 1
	mov	rcx, QWORD PTR m$[rsp]
	call	??A?$tmat4x4@M$0A@@glm@@QEBAAEBU?$tvec4@M$0A@@1@H@Z ; glm::tmat4x4<float,0>::operator[]
	mov	edx, 3
	mov	rcx, rax
	call	??A?$tvec4@M$0A@@glm@@QEBAAEBMH@Z	; glm::tvec4<float,0>::operator[]
	mov	rcx, QWORD PTR tv705[rsp]
	movss	xmm0, DWORD PTR [rcx]
	movss	DWORD PTR [rsp+32], xmm0
	mov	rcx, QWORD PTR tv712[rsp]
	movss	xmm3, DWORD PTR [rcx]
	mov	rcx, QWORD PTR tv719[rsp]
	movss	xmm2, DWORD PTR [rcx]
	movss	xmm1, DWORD PTR [rax]
	lea	rcx, QWORD PTR Vec3$[rsp]
	call	??0?$tvec4@M$0A@@glm@@QEAA@MMMM@Z	; glm::tvec4<float,0>::tvec4<float,0>

; 336  : 
; 337  : 			tvec4<T, P> Inv0(Vec1 * Fac0 - Vec2 * Fac1 + Vec3 * Fac2);

	lea	r8, QWORD PTR Fac2$[rsp]
	lea	rdx, QWORD PTR Vec3$[rsp]
	lea	rcx, QWORD PTR $T23[rsp]
	call	??$?DM$0A@@glm@@YA?AU?$tvec4@M$0A@@0@AEBU10@0@Z ; glm::operator*<float,0>
	mov	QWORD PTR tv729[rsp], rax
	lea	r8, QWORD PTR Fac1$[rsp]
	lea	rdx, QWORD PTR Vec2$[rsp]
	lea	rcx, QWORD PTR $T24[rsp]
	call	??$?DM$0A@@glm@@YA?AU?$tvec4@M$0A@@0@AEBU10@0@Z ; glm::operator*<float,0>
	mov	QWORD PTR tv735[rsp], rax
	lea	r8, QWORD PTR Fac0$[rsp]
	lea	rdx, QWORD PTR Vec1$[rsp]
	lea	rcx, QWORD PTR $T25[rsp]
	call	??$?DM$0A@@glm@@YA?AU?$tvec4@M$0A@@0@AEBU10@0@Z ; glm::operator*<float,0>
	mov	rcx, QWORD PTR tv735[rsp]
	mov	r8, rcx
	mov	rdx, rax
	lea	rcx, QWORD PTR $T26[rsp]
	call	??$?GM$0A@@glm@@YA?AU?$tvec4@M$0A@@0@AEBU10@0@Z ; glm::operator-<float,0>
	mov	rcx, QWORD PTR tv729[rsp]
	mov	r8, rcx
	mov	rdx, rax
	lea	rcx, QWORD PTR Inv0$[rsp]
	call	??$?HM$0A@@glm@@YA?AU?$tvec4@M$0A@@0@AEBU10@0@Z ; glm::operator+<float,0>

; 338  : 			tvec4<T, P> Inv1(Vec0 * Fac0 - Vec2 * Fac3 + Vec3 * Fac4);

	lea	r8, QWORD PTR Fac4$[rsp]
	lea	rdx, QWORD PTR Vec3$[rsp]
	lea	rcx, QWORD PTR $T27[rsp]
	call	??$?DM$0A@@glm@@YA?AU?$tvec4@M$0A@@0@AEBU10@0@Z ; glm::operator*<float,0>
	mov	QWORD PTR tv780[rsp], rax
	lea	r8, QWORD PTR Fac3$[rsp]
	lea	rdx, QWORD PTR Vec2$[rsp]
	lea	rcx, QWORD PTR $T28[rsp]
	call	??$?DM$0A@@glm@@YA?AU?$tvec4@M$0A@@0@AEBU10@0@Z ; glm::operator*<float,0>
	mov	QWORD PTR tv786[rsp], rax
	lea	r8, QWORD PTR Fac0$[rsp]
	lea	rdx, QWORD PTR Vec0$[rsp]
	lea	rcx, QWORD PTR $T29[rsp]
	call	??$?DM$0A@@glm@@YA?AU?$tvec4@M$0A@@0@AEBU10@0@Z ; glm::operator*<float,0>
	mov	rcx, QWORD PTR tv786[rsp]
	mov	r8, rcx
	mov	rdx, rax
	lea	rcx, QWORD PTR $T30[rsp]
	call	??$?GM$0A@@glm@@YA?AU?$tvec4@M$0A@@0@AEBU10@0@Z ; glm::operator-<float,0>
	mov	rcx, QWORD PTR tv780[rsp]
	mov	r8, rcx
	mov	rdx, rax
	lea	rcx, QWORD PTR Inv1$[rsp]
	call	??$?HM$0A@@glm@@YA?AU?$tvec4@M$0A@@0@AEBU10@0@Z ; glm::operator+<float,0>

; 339  : 			tvec4<T, P> Inv2(Vec0 * Fac1 - Vec1 * Fac3 + Vec3 * Fac5);

	lea	r8, QWORD PTR Fac5$[rsp]
	lea	rdx, QWORD PTR Vec3$[rsp]
	lea	rcx, QWORD PTR $T31[rsp]
	call	??$?DM$0A@@glm@@YA?AU?$tvec4@M$0A@@0@AEBU10@0@Z ; glm::operator*<float,0>
	mov	QWORD PTR tv799[rsp], rax
	lea	r8, QWORD PTR Fac3$[rsp]
	lea	rdx, QWORD PTR Vec1$[rsp]
	lea	rcx, QWORD PTR $T32[rsp]
	call	??$?DM$0A@@glm@@YA?AU?$tvec4@M$0A@@0@AEBU10@0@Z ; glm::operator*<float,0>
	mov	QWORD PTR tv805[rsp], rax
	lea	r8, QWORD PTR Fac1$[rsp]
	lea	rdx, QWORD PTR Vec0$[rsp]
	lea	rcx, QWORD PTR $T33[rsp]
	call	??$?DM$0A@@glm@@YA?AU?$tvec4@M$0A@@0@AEBU10@0@Z ; glm::operator*<float,0>
	mov	rcx, QWORD PTR tv805[rsp]
	mov	r8, rcx
	mov	rdx, rax
	lea	rcx, QWORD PTR $T34[rsp]
	call	??$?GM$0A@@glm@@YA?AU?$tvec4@M$0A@@0@AEBU10@0@Z ; glm::operator-<float,0>
	mov	rcx, QWORD PTR tv799[rsp]
	mov	r8, rcx
	mov	rdx, rax
	lea	rcx, QWORD PTR Inv2$[rsp]
	call	??$?HM$0A@@glm@@YA?AU?$tvec4@M$0A@@0@AEBU10@0@Z ; glm::operator+<float,0>

; 340  : 			tvec4<T, P> Inv3(Vec0 * Fac2 - Vec1 * Fac4 + Vec2 * Fac5);

	lea	r8, QWORD PTR Fac5$[rsp]
	lea	rdx, QWORD PTR Vec2$[rsp]
	lea	rcx, QWORD PTR $T35[rsp]
	call	??$?DM$0A@@glm@@YA?AU?$tvec4@M$0A@@0@AEBU10@0@Z ; glm::operator*<float,0>
	mov	QWORD PTR tv818[rsp], rax
	lea	r8, QWORD PTR Fac4$[rsp]
	lea	rdx, QWORD PTR Vec1$[rsp]
	lea	rcx, QWORD PTR $T36[rsp]
	call	??$?DM$0A@@glm@@YA?AU?$tvec4@M$0A@@0@AEBU10@0@Z ; glm::operator*<float,0>
	mov	QWORD PTR tv824[rsp], rax
	lea	r8, QWORD PTR Fac2$[rsp]
	lea	rdx, QWORD PTR Vec0$[rsp]
	lea	rcx, QWORD PTR $T37[rsp]
	call	??$?DM$0A@@glm@@YA?AU?$tvec4@M$0A@@0@AEBU10@0@Z ; glm::operator*<float,0>
	mov	rcx, QWORD PTR tv824[rsp]
	mov	r8, rcx
	mov	rdx, rax
	lea	rcx, QWORD PTR $T38[rsp]
	call	??$?GM$0A@@glm@@YA?AU?$tvec4@M$0A@@0@AEBU10@0@Z ; glm::operator-<float,0>
	mov	rcx, QWORD PTR tv818[rsp]
	mov	r8, rcx
	mov	rdx, rax
	lea	rcx, QWORD PTR Inv3$[rsp]
	call	??$?HM$0A@@glm@@YA?AU?$tvec4@M$0A@@0@AEBU10@0@Z ; glm::operator+<float,0>

; 341  : 
; 342  : 			tvec4<T, P> SignA(+1, -1, +1, -1);

	mov	DWORD PTR [rsp+32], -1
	mov	r9d, 1
	mov	r8d, -1
	mov	edx, 1
	lea	rcx, QWORD PTR SignA$[rsp]
	call	??$?0HHHH@?$tvec4@M$0A@@glm@@QEAA@HHHH@Z ; glm::tvec4<float,0>::tvec4<float,0><int,int,int,int>

; 343  : 			tvec4<T, P> SignB(-1, +1, -1, +1);

	mov	DWORD PTR [rsp+32], 1
	mov	r9d, -1
	mov	r8d, 1
	mov	edx, -1
	lea	rcx, QWORD PTR SignB$[rsp]
	call	??$?0HHHH@?$tvec4@M$0A@@glm@@QEAA@HHHH@Z ; glm::tvec4<float,0>::tvec4<float,0><int,int,int,int>

; 344  : 			tmat4x4<T, P> Inverse(Inv0 * SignA, Inv1 * SignB, Inv2 * SignA, Inv3 * SignB);

	lea	r8, QWORD PTR SignB$[rsp]
	lea	rdx, QWORD PTR Inv3$[rsp]
	lea	rcx, QWORD PTR $T39[rsp]
	call	??$?DM$0A@@glm@@YA?AU?$tvec4@M$0A@@0@AEBU10@0@Z ; glm::operator*<float,0>
	mov	QWORD PTR tv848[rsp], rax
	lea	r8, QWORD PTR SignA$[rsp]
	lea	rdx, QWORD PTR Inv2$[rsp]
	lea	rcx, QWORD PTR $T40[rsp]
	call	??$?DM$0A@@glm@@YA?AU?$tvec4@M$0A@@0@AEBU10@0@Z ; glm::operator*<float,0>
	mov	QWORD PTR tv853[rsp], rax
	lea	r8, QWORD PTR SignB$[rsp]
	lea	rdx, QWORD PTR Inv1$[rsp]
	lea	rcx, QWORD PTR $T41[rsp]
	call	??$?DM$0A@@glm@@YA?AU?$tvec4@M$0A@@0@AEBU10@0@Z ; glm::operator*<float,0>
	mov	QWORD PTR tv858[rsp], rax
	lea	r8, QWORD PTR SignA$[rsp]
	lea	rdx, QWORD PTR Inv0$[rsp]
	lea	rcx, QWORD PTR $T42[rsp]
	call	??$?DM$0A@@glm@@YA?AU?$tvec4@M$0A@@0@AEBU10@0@Z ; glm::operator*<float,0>
	mov	rcx, QWORD PTR tv848[rsp]
	mov	QWORD PTR [rsp+32], rcx
	mov	rcx, QWORD PTR tv853[rsp]
	mov	r9, rcx
	mov	rcx, QWORD PTR tv858[rsp]
	mov	r8, rcx
	mov	rdx, rax
	lea	rcx, QWORD PTR Inverse$[rsp]
	call	??0?$tmat4x4@M$0A@@glm@@QEAA@AEBU?$tvec4@M$0A@@1@000@Z ; glm::tmat4x4<float,0>::tmat4x4<float,0>

; 345  : 
; 346  : 			tvec4<T, P> Row0(Inverse[0][0], Inverse[1][0], Inverse[2][0], Inverse[3][0]);

	mov	edx, 3
	lea	rcx, QWORD PTR Inverse$[rsp]
	call	??A?$tmat4x4@M$0A@@glm@@QEAAAEAU?$tvec4@M$0A@@1@H@Z ; glm::tmat4x4<float,0>::operator[]
	xor	edx, edx
	mov	rcx, rax
	call	??A?$tvec4@M$0A@@glm@@QEAAAEAMH@Z	; glm::tvec4<float,0>::operator[]
	mov	QWORD PTR tv873[rsp], rax
	mov	edx, 2
	lea	rcx, QWORD PTR Inverse$[rsp]
	call	??A?$tmat4x4@M$0A@@glm@@QEAAAEAU?$tvec4@M$0A@@1@H@Z ; glm::tmat4x4<float,0>::operator[]
	xor	edx, edx
	mov	rcx, rax
	call	??A?$tvec4@M$0A@@glm@@QEAAAEAMH@Z	; glm::tvec4<float,0>::operator[]
	mov	QWORD PTR tv880[rsp], rax
	mov	edx, 1
	lea	rcx, QWORD PTR Inverse$[rsp]
	call	??A?$tmat4x4@M$0A@@glm@@QEAAAEAU?$tvec4@M$0A@@1@H@Z ; glm::tmat4x4<float,0>::operator[]
	xor	edx, edx
	mov	rcx, rax
	call	??A?$tvec4@M$0A@@glm@@QEAAAEAMH@Z	; glm::tvec4<float,0>::operator[]
	mov	QWORD PTR tv887[rsp], rax
	xor	edx, edx
	lea	rcx, QWORD PTR Inverse$[rsp]
	call	??A?$tmat4x4@M$0A@@glm@@QEAAAEAU?$tvec4@M$0A@@1@H@Z ; glm::tmat4x4<float,0>::operator[]
	xor	edx, edx
	mov	rcx, rax
	call	??A?$tvec4@M$0A@@glm@@QEAAAEAMH@Z	; glm::tvec4<float,0>::operator[]
	mov	rcx, QWORD PTR tv873[rsp]
	movss	xmm0, DWORD PTR [rcx]
	movss	DWORD PTR [rsp+32], xmm0
	mov	rcx, QWORD PTR tv880[rsp]
	movss	xmm3, DWORD PTR [rcx]
	mov	rcx, QWORD PTR tv887[rsp]
	movss	xmm2, DWORD PTR [rcx]
	movss	xmm1, DWORD PTR [rax]
	lea	rcx, QWORD PTR Row0$[rsp]
	call	??0?$tvec4@M$0A@@glm@@QEAA@MMMM@Z	; glm::tvec4<float,0>::tvec4<float,0>

; 347  : 
; 348  : 			tvec4<T, P> Dot0(m[0] * Row0);

	xor	edx, edx
	mov	rcx, QWORD PTR m$[rsp]
	call	??A?$tmat4x4@M$0A@@glm@@QEBAAEBU?$tvec4@M$0A@@1@H@Z ; glm::tmat4x4<float,0>::operator[]
	lea	r8, QWORD PTR Row0$[rsp]
	mov	rdx, rax
	lea	rcx, QWORD PTR Dot0$[rsp]
	call	??$?DM$0A@@glm@@YA?AU?$tvec4@M$0A@@0@AEBU10@0@Z ; glm::operator*<float,0>

; 349  : 			T Dot1 = (Dot0.x + Dot0.y) + (Dot0.z + Dot0.w);

	movss	xmm0, DWORD PTR Dot0$[rsp]
	addss	xmm0, DWORD PTR Dot0$[rsp+4]
	movss	xmm1, DWORD PTR Dot0$[rsp+8]
	addss	xmm1, DWORD PTR Dot0$[rsp+12]
	addss	xmm0, xmm1
	movss	DWORD PTR Dot1$[rsp], xmm0

; 350  : 
; 351  : 			T OneOverDeterminant = static_cast<T>(1) / Dot1;

	movss	xmm0, DWORD PTR __real@3f800000
	divss	xmm0, DWORD PTR Dot1$[rsp]
	movss	DWORD PTR OneOverDeterminant$[rsp], xmm0

; 352  : 
; 353  : 			return Inverse * OneOverDeterminant;

	lea	r8, QWORD PTR OneOverDeterminant$[rsp]
	lea	rdx, QWORD PTR Inverse$[rsp]
	mov	rcx, QWORD PTR __$ReturnUdt$[rsp]
	call	??$?DM$0A@@glm@@YA?AU?$tmat4x4@M$0A@@0@AEBU10@AEBM@Z ; glm::operator*<float,0>
	mov	rax, QWORD PTR __$ReturnUdt$[rsp]

; 354  : 		}

	mov	rdi, rax
	mov	rcx, rsp
	lea	rdx, OFFSET FLAT:?call@?$compute_inverse@Utmat4x4@glm@@M$0A@$0A@@detail@glm@@SA?AU?$tmat4x4@M$0A@@3@AEBU43@@Z$rtcFrameData
	call	_RTC_CheckStackVars
	mov	rax, rdi
	mov	rcx, QWORD PTR __$ArrayPad$[rsp]
	xor	rcx, rsp
	call	__security_check_cookie
	add	rsp, 2096				; 00000830H
	pop	rdi
	ret	0
?call@?$compute_inverse@Utmat4x4@glm@@M$0A@$0A@@detail@glm@@SA?AU?$tmat4x4@M$0A@@3@AEBU43@@Z ENDP ; glm::detail::compute_inverse<glm::tmat4x4,float,0,0>::call
_TEXT	ENDS
; Function compile flags: /Odtp /RTCsu
; File C:\Users\ksart\OneDrive\Desktop\FlappyBird\libraries\external\glm\glm\detail\type_mat3x3.inl
;	COMDAT ??$?DM$0A@@glm@@YA?AU?$tvec3@M$0A@@0@AEBU?$tmat3x3@M$0A@@0@AEBU10@@Z
_TEXT	SEGMENT
tv73 = 32
tv82 = 36
tv91 = 40
tv132 = 44
tv141 = 48
tv150 = 52
tv159 = 56
tv168 = 60
__$ReturnUdt$ = 80
m$ = 88
v$ = 96
??$?DM$0A@@glm@@YA?AU?$tvec3@M$0A@@0@AEBU?$tmat3x3@M$0A@@0@AEBU10@@Z PROC ; glm::operator*<float,0>, COMDAT

; 429  : 	{

$LN3:
	mov	QWORD PTR [rsp+24], r8
	mov	QWORD PTR [rsp+16], rdx
	mov	QWORD PTR [rsp+8], rcx
	push	rdi
	sub	rsp, 64					; 00000040H

; 430  : 		return typename tmat3x3<T, P>::col_type(

	xor	edx, edx
	mov	rcx, QWORD PTR m$[rsp]
	call	??A?$tmat3x3@M$0A@@glm@@QEBAAEBU?$tvec3@M$0A@@1@H@Z ; glm::tmat3x3<float,0>::operator[]
	mov	edx, 2
	mov	rcx, rax
	call	??A?$tvec3@M$0A@@glm@@QEBAAEBMH@Z	; glm::tvec3<float,0>::operator[]
	mov	rcx, QWORD PTR v$[rsp]
	movss	xmm0, DWORD PTR [rax]
	mulss	xmm0, DWORD PTR [rcx]
	movss	DWORD PTR tv73[rsp], xmm0
	mov	edx, 1
	mov	rcx, QWORD PTR m$[rsp]
	call	??A?$tmat3x3@M$0A@@glm@@QEBAAEBU?$tvec3@M$0A@@1@H@Z ; glm::tmat3x3<float,0>::operator[]
	mov	edx, 2
	mov	rcx, rax
	call	??A?$tvec3@M$0A@@glm@@QEBAAEBMH@Z	; glm::tvec3<float,0>::operator[]
	mov	rcx, QWORD PTR v$[rsp]
	movss	xmm0, DWORD PTR [rax]
	mulss	xmm0, DWORD PTR [rcx+4]
	movss	xmm1, DWORD PTR tv73[rsp]
	addss	xmm1, xmm0
	movaps	xmm0, xmm1
	movss	DWORD PTR tv82[rsp], xmm0
	mov	edx, 2
	mov	rcx, QWORD PTR m$[rsp]
	call	??A?$tmat3x3@M$0A@@glm@@QEBAAEBU?$tvec3@M$0A@@1@H@Z ; glm::tmat3x3<float,0>::operator[]
	mov	edx, 2
	mov	rcx, rax
	call	??A?$tvec3@M$0A@@glm@@QEBAAEBMH@Z	; glm::tvec3<float,0>::operator[]
	mov	rcx, QWORD PTR v$[rsp]
	movss	xmm0, DWORD PTR [rax]
	mulss	xmm0, DWORD PTR [rcx+8]
	movss	xmm1, DWORD PTR tv82[rsp]
	addss	xmm1, xmm0
	movaps	xmm0, xmm1
	movss	DWORD PTR tv91[rsp], xmm0
	xor	edx, edx
	mov	rcx, QWORD PTR m$[rsp]
	call	??A?$tmat3x3@M$0A@@glm@@QEBAAEBU?$tvec3@M$0A@@1@H@Z ; glm::tmat3x3<float,0>::operator[]
	mov	edx, 1
	mov	rcx, rax
	call	??A?$tvec3@M$0A@@glm@@QEBAAEBMH@Z	; glm::tvec3<float,0>::operator[]
	mov	rcx, QWORD PTR v$[rsp]
	movss	xmm0, DWORD PTR [rax]
	mulss	xmm0, DWORD PTR [rcx]
	movss	DWORD PTR tv132[rsp], xmm0
	mov	edx, 1
	mov	rcx, QWORD PTR m$[rsp]
	call	??A?$tmat3x3@M$0A@@glm@@QEBAAEBU?$tvec3@M$0A@@1@H@Z ; glm::tmat3x3<float,0>::operator[]
	mov	edx, 1
	mov	rcx, rax
	call	??A?$tvec3@M$0A@@glm@@QEBAAEBMH@Z	; glm::tvec3<float,0>::operator[]
	mov	rcx, QWORD PTR v$[rsp]
	movss	xmm0, DWORD PTR [rax]
	mulss	xmm0, DWORD PTR [rcx+4]
	movss	xmm1, DWORD PTR tv132[rsp]
	addss	xmm1, xmm0
	movaps	xmm0, xmm1
	movss	DWORD PTR tv141[rsp], xmm0
	mov	edx, 2
	mov	rcx, QWORD PTR m$[rsp]
	call	??A?$tmat3x3@M$0A@@glm@@QEBAAEBU?$tvec3@M$0A@@1@H@Z ; glm::tmat3x3<float,0>::operator[]
	mov	edx, 1
	mov	rcx, rax
	call	??A?$tvec3@M$0A@@glm@@QEBAAEBMH@Z	; glm::tvec3<float,0>::operator[]
	mov	rcx, QWORD PTR v$[rsp]
	movss	xmm0, DWORD PTR [rax]
	mulss	xmm0, DWORD PTR [rcx+8]
	movss	xmm1, DWORD PTR tv141[rsp]
	addss	xmm1, xmm0
	movaps	xmm0, xmm1
	movss	DWORD PTR tv150[rsp], xmm0
	xor	edx, edx
	mov	rcx, QWORD PTR m$[rsp]
	call	??A?$tmat3x3@M$0A@@glm@@QEBAAEBU?$tvec3@M$0A@@1@H@Z ; glm::tmat3x3<float,0>::operator[]
	xor	edx, edx
	mov	rcx, rax
	call	??A?$tvec3@M$0A@@glm@@QEBAAEBMH@Z	; glm::tvec3<float,0>::operator[]
	mov	rcx, QWORD PTR v$[rsp]
	movss	xmm0, DWORD PTR [rax]
	mulss	xmm0, DWORD PTR [rcx]
	movss	DWORD PTR tv159[rsp], xmm0
	mov	edx, 1
	mov	rcx, QWORD PTR m$[rsp]
	call	??A?$tmat3x3@M$0A@@glm@@QEBAAEBU?$tvec3@M$0A@@1@H@Z ; glm::tmat3x3<float,0>::operator[]
	xor	edx, edx
	mov	rcx, rax
	call	??A?$tvec3@M$0A@@glm@@QEBAAEBMH@Z	; glm::tvec3<float,0>::operator[]
	mov	rcx, QWORD PTR v$[rsp]
	movss	xmm0, DWORD PTR [rax]
	mulss	xmm0, DWORD PTR [rcx+4]
	movss	xmm1, DWORD PTR tv159[rsp]
	addss	xmm1, xmm0
	movaps	xmm0, xmm1
	movss	DWORD PTR tv168[rsp], xmm0
	mov	edx, 2
	mov	rcx, QWORD PTR m$[rsp]
	call	??A?$tmat3x3@M$0A@@glm@@QEBAAEBU?$tvec3@M$0A@@1@H@Z ; glm::tmat3x3<float,0>::operator[]
	xor	edx, edx
	mov	rcx, rax
	call	??A?$tvec3@M$0A@@glm@@QEBAAEBMH@Z	; glm::tvec3<float,0>::operator[]
	mov	rcx, QWORD PTR v$[rsp]
	movss	xmm0, DWORD PTR [rax]
	mulss	xmm0, DWORD PTR [rcx+8]
	movss	xmm1, DWORD PTR tv168[rsp]
	addss	xmm1, xmm0
	movaps	xmm0, xmm1
	movss	xmm1, DWORD PTR tv91[rsp]
	movaps	xmm3, xmm1
	movss	xmm1, DWORD PTR tv150[rsp]
	movaps	xmm2, xmm1
	movaps	xmm1, xmm0
	mov	rcx, QWORD PTR __$ReturnUdt$[rsp]
	call	??0?$tvec3@M$0A@@glm@@QEAA@MMM@Z	; glm::tvec3<float,0>::tvec3<float,0>
	mov	rax, QWORD PTR __$ReturnUdt$[rsp]

; 431  : 			m[0][0] * v.x + m[1][0] * v.y + m[2][0] * v.z,
; 432  : 			m[0][1] * v.x + m[1][1] * v.y + m[2][1] * v.z,
; 433  : 			m[0][2] * v.x + m[1][2] * v.y + m[2][2] * v.z);
; 434  : 	}

	add	rsp, 64					; 00000040H
	pop	rdi
	ret	0
??$?DM$0A@@glm@@YA?AU?$tvec3@M$0A@@0@AEBU?$tmat3x3@M$0A@@0@AEBU10@@Z ENDP ; glm::operator*<float,0>
_TEXT	ENDS
; Function compile flags: /Odtp /RTCsu
; File C:\Users\ksart\OneDrive\Desktop\FlappyBird\libraries\external\glm\glm\detail\type_vec3.inl
;	COMDAT ??$?0M$0A@@?$tvec3@M$0A@@glm@@QEAA@AEBU?$tvec4@M$0A@@1@@Z
_TEXT	SEGMENT
this$ = 16
v$ = 24
??$?0M$0A@@?$tvec3@M$0A@@glm@@QEAA@AEBU?$tvec4@M$0A@@1@@Z PROC ; glm::tvec3<float,0>::tvec3<float,0><float,0>, COMDAT

; 138  : 	{}

$LN3:
	mov	QWORD PTR [rsp+16], rdx
	mov	QWORD PTR [rsp+8], rcx
	push	rdi

; 135  : 		x(static_cast<T>(v.x)),

	mov	rax, QWORD PTR this$[rsp]
	mov	rcx, QWORD PTR v$[rsp]
	movss	xmm0, DWORD PTR [rcx]
	movss	DWORD PTR [rax], xmm0

; 136  : 		y(static_cast<T>(v.y)),

	mov	rax, QWORD PTR this$[rsp]
	mov	rcx, QWORD PTR v$[rsp]
	movss	xmm0, DWORD PTR [rcx+4]
	movss	DWORD PTR [rax+4], xmm0

; 137  : 		z(static_cast<T>(v.z))

	mov	rax, QWORD PTR this$[rsp]
	mov	rcx, QWORD PTR v$[rsp]
	movss	xmm0, DWORD PTR [rcx+8]
	movss	DWORD PTR [rax+8], xmm0

; 138  : 	{}

	mov	rax, QWORD PTR this$[rsp]
	pop	rdi
	ret	0
??$?0M$0A@@?$tvec3@M$0A@@glm@@QEAA@AEBU?$tvec4@M$0A@@1@@Z ENDP ; glm::tvec3<float,0>::tvec3<float,0><float,0>
_TEXT	ENDS
; Function compile flags: /Odtp /RTCsu
; File C:\Users\ksart\OneDrive\Desktop\FlappyBird\libraries\external\glm\glm\detail\type_mat3x3.inl
;	COMDAT ??$?GM$0A@@glm@@YA?AU?$tmat3x3@M$0A@@0@AEBU10@@Z
_TEXT	SEGMENT
$T1 = 32
$T2 = 44
$T3 = 56
tv66 = 72
tv73 = 80
__$ReturnUdt$ = 112
m$ = 120
??$?GM$0A@@glm@@YA?AU?$tmat3x3@M$0A@@0@AEBU10@@Z PROC	; glm::operator-<float,0>, COMDAT

; 346  : 	{

$LN3:
	mov	QWORD PTR [rsp+16], rdx
	mov	QWORD PTR [rsp+8], rcx
	push	rdi
	sub	rsp, 96					; 00000060H

; 347  : 		return tmat3x3<T, P>(

	mov	edx, 2
	mov	rcx, QWORD PTR m$[rsp]
	call	??A?$tmat3x3@M$0A@@glm@@QEBAAEBU?$tvec3@M$0A@@1@H@Z ; glm::tmat3x3<float,0>::operator[]
	mov	rdx, rax
	lea	rcx, QWORD PTR $T1[rsp]
	call	??$?GM$0A@@glm@@YA?AU?$tvec3@M$0A@@0@AEBU10@@Z ; glm::operator-<float,0>
	mov	QWORD PTR tv66[rsp], rax
	mov	edx, 1
	mov	rcx, QWORD PTR m$[rsp]
	call	??A?$tmat3x3@M$0A@@glm@@QEBAAEBU?$tvec3@M$0A@@1@H@Z ; glm::tmat3x3<float,0>::operator[]
	mov	rdx, rax
	lea	rcx, QWORD PTR $T2[rsp]
	call	??$?GM$0A@@glm@@YA?AU?$tvec3@M$0A@@0@AEBU10@@Z ; glm::operator-<float,0>
	mov	QWORD PTR tv73[rsp], rax
	xor	edx, edx
	mov	rcx, QWORD PTR m$[rsp]
	call	??A?$tmat3x3@M$0A@@glm@@QEBAAEBU?$tvec3@M$0A@@1@H@Z ; glm::tmat3x3<float,0>::operator[]
	mov	rdx, rax
	lea	rcx, QWORD PTR $T3[rsp]
	call	??$?GM$0A@@glm@@YA?AU?$tvec3@M$0A@@0@AEBU10@@Z ; glm::operator-<float,0>
	mov	rcx, QWORD PTR tv66[rsp]
	mov	r9, rcx
	mov	rcx, QWORD PTR tv73[rsp]
	mov	r8, rcx
	mov	rdx, rax
	mov	rcx, QWORD PTR __$ReturnUdt$[rsp]
	call	??0?$tmat3x3@M$0A@@glm@@QEAA@AEBU?$tvec3@M$0A@@1@00@Z ; glm::tmat3x3<float,0>::tmat3x3<float,0>
	mov	rax, QWORD PTR __$ReturnUdt$[rsp]

; 348  : 			-m[0], 
; 349  : 			-m[1],
; 350  : 			-m[2]);
; 351  : 	}

	add	rsp, 96					; 00000060H
	pop	rdi
	ret	0
??$?GM$0A@@glm@@YA?AU?$tmat3x3@M$0A@@0@AEBU10@@Z ENDP	; glm::operator-<float,0>
_TEXT	ENDS
; Function compile flags: /Odtp /RTCsu
; File C:\Users\ksart\OneDrive\Desktop\FlappyBird\libraries\external\glm\glm\detail\type_vec4.inl
;	COMDAT ??$?0MM$0A@@?$tvec4@M$0A@@glm@@QEAA@AEBU?$tvec3@M$0A@@1@M@Z
_TEXT	SEGMENT
this$ = 16
a$ = 24
b$ = 32
??$?0MM$0A@@?$tvec4@M$0A@@glm@@QEAA@AEBU?$tvec3@M$0A@@1@M@Z PROC ; glm::tvec4<float,0>::tvec4<float,0><float,float,0>, COMDAT

; 278  : 	{}

$LN3:
	movss	DWORD PTR [rsp+24], xmm2
	mov	QWORD PTR [rsp+16], rdx
	mov	QWORD PTR [rsp+8], rcx
	push	rdi

; 274  : 		x(static_cast<T>(a.x)),

	mov	rax, QWORD PTR this$[rsp]
	mov	rcx, QWORD PTR a$[rsp]
	movss	xmm0, DWORD PTR [rcx]
	movss	DWORD PTR [rax], xmm0

; 275  : 		y(static_cast<T>(a.y)),

	mov	rax, QWORD PTR this$[rsp]
	mov	rcx, QWORD PTR a$[rsp]
	movss	xmm0, DWORD PTR [rcx+4]
	movss	DWORD PTR [rax+4], xmm0

; 276  : 		z(static_cast<T>(a.z)),

	mov	rax, QWORD PTR this$[rsp]
	mov	rcx, QWORD PTR a$[rsp]
	movss	xmm0, DWORD PTR [rcx+8]
	movss	DWORD PTR [rax+8], xmm0

; 277  : 		w(static_cast<T>(b))

	mov	rax, QWORD PTR this$[rsp]
	movss	xmm0, DWORD PTR b$[rsp]
	movss	DWORD PTR [rax+12], xmm0

; 278  : 	{}

	mov	rax, QWORD PTR this$[rsp]
	pop	rdi
	ret	0
??$?0MM$0A@@?$tvec4@M$0A@@glm@@QEAA@AEBU?$tvec3@M$0A@@1@M@Z ENDP ; glm::tvec4<float,0>::tvec4<float,0><float,float,0>
_TEXT	ENDS
; Function compile flags: /Odtp /RTCsu
; File C:\Users\ksart\OneDrive\Desktop\FlappyBird\libraries\external\glm\glm\detail\func_vector_relational.inl
;	COMDAT ??$lessThan@M$0A@Utvec3@glm@@@glm@@YA?AU?$tvec3@_N$0A@@0@AEBU?$tvec3@M$0A@@0@0@Z
_TEXT	SEGMENT
Result$ = 36
i$4 = 52
tv64 = 56
tv80 = 64
tv86 = 72
__$ReturnUdt$ = 112
x$ = 120
y$ = 128
??$lessThan@M$0A@Utvec3@glm@@@glm@@YA?AU?$tvec3@_N$0A@@0@AEBU?$tvec3@M$0A@@0@0@Z PROC ; glm::lessThan<float,0,glm::tvec3>, COMDAT

; 10   : 	{

$LN9:
	mov	QWORD PTR [rsp+24], r8
	mov	QWORD PTR [rsp+16], rdx
	mov	QWORD PTR [rsp+8], rcx
	push	rsi
	push	rdi
	sub	rsp, 88					; 00000058H
	lea	rdi, QWORD PTR [rsp+32]
	mov	ecx, 14
	mov	eax, -858993460				; ccccccccH
	rep stosd
	mov	rcx, QWORD PTR [rsp+112]

; 11   : 		assert(x.length() == y.length());

	call	?length@?$tvec3@M$0A@@glm@@SAHXZ	; glm::tvec3<float,0>::length
	mov	DWORD PTR tv64[rsp], eax
	call	?length@?$tvec3@M$0A@@glm@@SAHXZ	; glm::tvec3<float,0>::length
	mov	ecx, DWORD PTR tv64[rsp]
	cmp	ecx, eax
	je	SHORT $LN6@lessThan
	mov	r8d, 11
	lea	rdx, OFFSET FLAT:??_C@_1NA@OPABFNEN@?$AAC?$AA?3?$AA?2?$AAU?$AAs?$AAe?$AAr?$AAs?$AA?2?$AAk?$AAs?$AAa?$AAr?$AAt?$AA?2@
	lea	rcx, OFFSET FLAT:??_C@_1DC@HHLCGOLC@?$AAx?$AA?4?$AAl?$AAe?$AAn?$AAg?$AAt?$AAh?$AA?$CI?$AA?$CJ?$AA?5?$AA?$DN?$AA?$DN?$AA?5?$AAy@
	call	QWORD PTR __imp__wassert
	xor	eax, eax
$LN6@lessThan:

; 12   : 
; 13   : 		vecType<bool, P> Result(uninitialize);

	xor	edx, edx
	lea	rcx, QWORD PTR Result$[rsp]
	call	??0?$tvec3@_N$0A@@glm@@QEAA@W4ctor@1@@Z	; glm::tvec3<bool,0>::tvec3<bool,0>

; 14   : 		for(length_t i = 0; i < x.length(); ++i)

	mov	DWORD PTR i$4[rsp], 0
	jmp	SHORT $LN4@lessThan
$LN2@lessThan:
	mov	eax, DWORD PTR i$4[rsp]
	inc	eax
	mov	DWORD PTR i$4[rsp], eax
$LN4@lessThan:
	call	?length@?$tvec3@M$0A@@glm@@SAHXZ	; glm::tvec3<float,0>::length
	cmp	DWORD PTR i$4[rsp], eax
	jge	SHORT $LN3@lessThan

; 15   : 			Result[i] = x[i] < y[i];

	mov	edx, DWORD PTR i$4[rsp]
	mov	rcx, QWORD PTR x$[rsp]
	call	??A?$tvec3@M$0A@@glm@@QEBAAEBMH@Z	; glm::tvec3<float,0>::operator[]
	mov	QWORD PTR tv80[rsp], rax
	mov	edx, DWORD PTR i$4[rsp]
	mov	rcx, QWORD PTR y$[rsp]
	call	??A?$tvec3@M$0A@@glm@@QEBAAEBMH@Z	; glm::tvec3<float,0>::operator[]
	movss	xmm0, DWORD PTR [rax]
	mov	rax, QWORD PTR tv80[rsp]
	comiss	xmm0, DWORD PTR [rax]
	jbe	SHORT $LN7@lessThan
	mov	DWORD PTR tv86[rsp], 1
	jmp	SHORT $LN8@lessThan
$LN7@lessThan:
	mov	DWORD PTR tv86[rsp], 0
$LN8@lessThan:
	mov	edx, DWORD PTR i$4[rsp]
	lea	rcx, QWORD PTR Result$[rsp]
	call	??A?$tvec3@_N$0A@@glm@@QEAAAEA_NH@Z	; glm::tvec3<bool,0>::operator[]
	movzx	ecx, BYTE PTR tv86[rsp]
	mov	BYTE PTR [rax], cl
	jmp	SHORT $LN2@lessThan
$LN3@lessThan:

; 16   : 
; 17   : 		return Result;

	lea	rax, QWORD PTR Result$[rsp]
	mov	rdi, QWORD PTR __$ReturnUdt$[rsp]
	mov	rsi, rax
	mov	ecx, 3
	rep movsb
	mov	rax, QWORD PTR __$ReturnUdt$[rsp]

; 18   : 	}

	mov	rdi, rax
	mov	rcx, rsp
	lea	rdx, OFFSET FLAT:??$lessThan@M$0A@Utvec3@glm@@@glm@@YA?AU?$tvec3@_N$0A@@0@AEBU?$tvec3@M$0A@@0@0@Z$rtcFrameData
	call	_RTC_CheckStackVars
	mov	rax, rdi
	add	rsp, 88					; 00000058H
	pop	rdi
	pop	rsi
	ret	0
??$lessThan@M$0A@Utvec3@glm@@@glm@@YA?AU?$tvec3@_N$0A@@0@AEBU?$tvec3@M$0A@@0@0@Z ENDP ; glm::lessThan<float,0,glm::tvec3>
_TEXT	ENDS
; Function compile flags: /Odtp /RTCsu
; File C:\Users\ksart\OneDrive\Desktop\FlappyBird\libraries\external\glm\glm\detail\func_common.inl
;	COMDAT ??$abs@M$0A@Utvec3@glm@@@glm@@YA?AU?$tvec3@M$0A@@0@AEBU10@@Z
_TEXT	SEGMENT
__$ReturnUdt$ = 48
x$ = 56
??$abs@M$0A@Utvec3@glm@@@glm@@YA?AU?$tvec3@M$0A@@0@AEBU10@@Z PROC ; glm::abs<float,0,glm::tvec3>, COMDAT

; 316  : 	{

$LN3:
	mov	QWORD PTR [rsp+16], rdx
	mov	QWORD PTR [rsp+8], rcx
	push	rdi
	sub	rsp, 32					; 00000020H

; 317  : 		return detail::compute_abs_vector<T, P, vecType, detail::is_aligned<P>::value>::call(x);

	mov	rdx, QWORD PTR x$[rsp]
	mov	rcx, QWORD PTR __$ReturnUdt$[rsp]
	call	?call@?$compute_abs_vector@M$0A@Utvec3@glm@@$0A@@detail@glm@@SA?AU?$tvec3@M$0A@@3@AEBU43@@Z ; glm::detail::compute_abs_vector<float,0,glm::tvec3,0>::call
	mov	rax, QWORD PTR __$ReturnUdt$[rsp]

; 318  : 	}

	add	rsp, 32					; 00000020H
	pop	rdi
	ret	0
??$abs@M$0A@Utvec3@glm@@@glm@@YA?AU?$tvec3@M$0A@@0@AEBU10@@Z ENDP ; glm::abs<float,0,glm::tvec3>
_TEXT	ENDS
; Function compile flags: /Odtp /RTCsu
; File C:\Users\ksart\OneDrive\Desktop\FlappyBird\libraries\external\glm\glm\detail\type_vec3.inl
;	COMDAT ??$?GM$0A@@glm@@YA?AU?$tvec3@M$0A@@0@AEBU10@0@Z
_TEXT	SEGMENT
tv76 = 32
__$ReturnUdt$ = 64
v1$ = 72
v2$ = 80
??$?GM$0A@@glm@@YA?AU?$tvec3@M$0A@@0@AEBU10@0@Z PROC	; glm::operator-<float,0>, COMDAT

; 619  : 	{

$LN3:
	mov	QWORD PTR [rsp+24], r8
	mov	QWORD PTR [rsp+16], rdx
	mov	QWORD PTR [rsp+8], rcx
	push	rdi
	sub	rsp, 48					; 00000030H

; 620  : 		return tvec3<T, P>(

	mov	rax, QWORD PTR v1$[rsp]
	mov	rcx, QWORD PTR v2$[rsp]
	movss	xmm0, DWORD PTR [rax+8]
	subss	xmm0, DWORD PTR [rcx+8]
	mov	rax, QWORD PTR v1$[rsp]
	mov	rcx, QWORD PTR v2$[rsp]
	movss	xmm1, DWORD PTR [rax+4]
	subss	xmm1, DWORD PTR [rcx+4]
	mov	rax, QWORD PTR v1$[rsp]
	mov	rcx, QWORD PTR v2$[rsp]
	movss	xmm2, DWORD PTR [rax]
	subss	xmm2, DWORD PTR [rcx]
	movss	DWORD PTR tv76[rsp], xmm2
	movaps	xmm3, xmm0
	movaps	xmm2, xmm1
	movss	xmm0, DWORD PTR tv76[rsp]
	movaps	xmm1, xmm0
	mov	rcx, QWORD PTR __$ReturnUdt$[rsp]
	call	??0?$tvec3@M$0A@@glm@@QEAA@MMM@Z	; glm::tvec3<float,0>::tvec3<float,0>
	mov	rax, QWORD PTR __$ReturnUdt$[rsp]

; 621  : 			v1.x - v2.x,
; 622  : 			v1.y - v2.y,
; 623  : 			v1.z - v2.z);
; 624  : 	}

	add	rsp, 48					; 00000030H
	pop	rdi
	ret	0
??$?GM$0A@@glm@@YA?AU?$tvec3@M$0A@@0@AEBU10@0@Z ENDP	; glm::operator-<float,0>
_TEXT	ENDS
; Function compile flags: /Odtp /RTCsu
; File C:\Users\ksart\OneDrive\Desktop\FlappyBird\libraries\external\glm\glm\detail\func_matrix.inl
;	COMDAT ?call@?$compute_inverse@Utmat3x3@glm@@M$0A@$0A@@detail@glm@@SA?AU?$tmat3x3@M$0A@@3@AEBU43@@Z
_TEXT	SEGMENT
OneOverDeterminant$ = 32
Inverse$ = 56
tv68 = 112
tv74 = 120
tv82 = 128
tv87 = 136
tv129 = 144
tv134 = 152
tv140 = 160
tv148 = 168
tv153 = 176
tv164 = 184
tv169 = 192
tv175 = 200
tv183 = 208
tv188 = 216
tv213 = 224
tv221 = 232
tv226 = 240
tv237 = 248
tv248 = 256
tv256 = 264
tv261 = 272
tv273 = 280
tv284 = 288
tv292 = 296
tv297 = 304
tv308 = 312
tv319 = 320
tv327 = 328
tv332 = 336
tv344 = 344
tv355 = 352
tv363 = 360
tv368 = 368
tv379 = 376
tv390 = 384
tv398 = 392
tv403 = 400
tv415 = 408
tv426 = 416
tv434 = 424
tv439 = 432
tv450 = 440
tv461 = 448
tv469 = 456
tv474 = 464
tv486 = 472
tv497 = 480
tv505 = 488
tv510 = 496
tv521 = 504
__$ArrayPad$ = 512
__$ReturnUdt$ = 560
m$ = 568
?call@?$compute_inverse@Utmat3x3@glm@@M$0A@$0A@@detail@glm@@SA?AU?$tmat3x3@M$0A@@3@AEBU43@@Z PROC ; glm::detail::compute_inverse<glm::tmat3x3,float,0,0>::call, COMDAT

; 275  : 		{

$LN3:
	mov	QWORD PTR [rsp+16], rdx
	mov	QWORD PTR [rsp+8], rcx
	push	rsi
	push	rdi
	sub	rsp, 536				; 00000218H
	lea	rdi, QWORD PTR [rsp+32]
	mov	ecx, 126				; 0000007eH
	mov	eax, -858993460				; ccccccccH
	rep stosd
	mov	rcx, QWORD PTR [rsp+560]
	mov	rax, QWORD PTR __security_cookie
	xor	rax, rsp
	mov	QWORD PTR __$ArrayPad$[rsp], rax

; 276  : 			T OneOverDeterminant = static_cast<T>(1) / (

	xor	edx, edx
	mov	rcx, QWORD PTR m$[rsp]
	call	??A?$tmat3x3@M$0A@@glm@@QEBAAEBU?$tvec3@M$0A@@1@H@Z ; glm::tmat3x3<float,0>::operator[]
	xor	edx, edx
	mov	rcx, rax
	call	??A?$tvec3@M$0A@@glm@@QEBAAEBMH@Z	; glm::tvec3<float,0>::operator[]
	mov	QWORD PTR tv68[rsp], rax
	mov	edx, 1
	mov	rcx, QWORD PTR m$[rsp]
	call	??A?$tmat3x3@M$0A@@glm@@QEBAAEBU?$tvec3@M$0A@@1@H@Z ; glm::tmat3x3<float,0>::operator[]
	mov	edx, 1
	mov	rcx, rax
	call	??A?$tvec3@M$0A@@glm@@QEBAAEBMH@Z	; glm::tvec3<float,0>::operator[]
	mov	QWORD PTR tv74[rsp], rax
	mov	edx, 2
	mov	rcx, QWORD PTR m$[rsp]
	call	??A?$tmat3x3@M$0A@@glm@@QEBAAEBU?$tvec3@M$0A@@1@H@Z ; glm::tmat3x3<float,0>::operator[]
	mov	edx, 2
	mov	rcx, rax
	call	??A?$tvec3@M$0A@@glm@@QEBAAEBMH@Z	; glm::tvec3<float,0>::operator[]
	mov	rcx, QWORD PTR tv74[rsp]
	movss	xmm0, DWORD PTR [rcx]
	mulss	xmm0, DWORD PTR [rax]
	movss	DWORD PTR tv82[rsp], xmm0
	mov	edx, 2
	mov	rcx, QWORD PTR m$[rsp]
	call	??A?$tmat3x3@M$0A@@glm@@QEBAAEBU?$tvec3@M$0A@@1@H@Z ; glm::tmat3x3<float,0>::operator[]
	mov	edx, 1
	mov	rcx, rax
	call	??A?$tvec3@M$0A@@glm@@QEBAAEBMH@Z	; glm::tvec3<float,0>::operator[]
	mov	QWORD PTR tv87[rsp], rax
	mov	edx, 1
	mov	rcx, QWORD PTR m$[rsp]
	call	??A?$tmat3x3@M$0A@@glm@@QEBAAEBU?$tvec3@M$0A@@1@H@Z ; glm::tmat3x3<float,0>::operator[]
	mov	edx, 2
	mov	rcx, rax
	call	??A?$tvec3@M$0A@@glm@@QEBAAEBMH@Z	; glm::tvec3<float,0>::operator[]
	mov	rcx, QWORD PTR tv87[rsp]
	movss	xmm0, DWORD PTR [rcx]
	mulss	xmm0, DWORD PTR [rax]
	movss	xmm1, DWORD PTR tv82[rsp]
	subss	xmm1, xmm0
	movaps	xmm0, xmm1
	mov	rax, QWORD PTR tv68[rsp]
	movss	xmm1, DWORD PTR [rax]
	mulss	xmm1, xmm0
	movaps	xmm0, xmm1
	movss	DWORD PTR tv129[rsp], xmm0
	mov	edx, 1
	mov	rcx, QWORD PTR m$[rsp]
	call	??A?$tmat3x3@M$0A@@glm@@QEBAAEBU?$tvec3@M$0A@@1@H@Z ; glm::tmat3x3<float,0>::operator[]
	xor	edx, edx
	mov	rcx, rax
	call	??A?$tvec3@M$0A@@glm@@QEBAAEBMH@Z	; glm::tvec3<float,0>::operator[]
	mov	QWORD PTR tv134[rsp], rax
	xor	edx, edx
	mov	rcx, QWORD PTR m$[rsp]
	call	??A?$tmat3x3@M$0A@@glm@@QEBAAEBU?$tvec3@M$0A@@1@H@Z ; glm::tmat3x3<float,0>::operator[]
	mov	edx, 1
	mov	rcx, rax
	call	??A?$tvec3@M$0A@@glm@@QEBAAEBMH@Z	; glm::tvec3<float,0>::operator[]
	mov	QWORD PTR tv140[rsp], rax
	mov	edx, 2
	mov	rcx, QWORD PTR m$[rsp]
	call	??A?$tmat3x3@M$0A@@glm@@QEBAAEBU?$tvec3@M$0A@@1@H@Z ; glm::tmat3x3<float,0>::operator[]
	mov	edx, 2
	mov	rcx, rax
	call	??A?$tvec3@M$0A@@glm@@QEBAAEBMH@Z	; glm::tvec3<float,0>::operator[]
	mov	rcx, QWORD PTR tv140[rsp]
	movss	xmm0, DWORD PTR [rcx]
	mulss	xmm0, DWORD PTR [rax]
	movss	DWORD PTR tv148[rsp], xmm0
	mov	edx, 2
	mov	rcx, QWORD PTR m$[rsp]
	call	??A?$tmat3x3@M$0A@@glm@@QEBAAEBU?$tvec3@M$0A@@1@H@Z ; glm::tmat3x3<float,0>::operator[]
	mov	edx, 1
	mov	rcx, rax
	call	??A?$tvec3@M$0A@@glm@@QEBAAEBMH@Z	; glm::tvec3<float,0>::operator[]
	mov	QWORD PTR tv153[rsp], rax
	xor	edx, edx
	mov	rcx, QWORD PTR m$[rsp]
	call	??A?$tmat3x3@M$0A@@glm@@QEBAAEBU?$tvec3@M$0A@@1@H@Z ; glm::tmat3x3<float,0>::operator[]
	mov	edx, 2
	mov	rcx, rax
	call	??A?$tvec3@M$0A@@glm@@QEBAAEBMH@Z	; glm::tvec3<float,0>::operator[]
	mov	rcx, QWORD PTR tv153[rsp]
	movss	xmm0, DWORD PTR [rcx]
	mulss	xmm0, DWORD PTR [rax]
	movss	xmm1, DWORD PTR tv148[rsp]
	subss	xmm1, xmm0
	movaps	xmm0, xmm1
	mov	rax, QWORD PTR tv134[rsp]
	movss	xmm1, DWORD PTR [rax]
	mulss	xmm1, xmm0
	movaps	xmm0, xmm1
	movss	xmm1, DWORD PTR tv129[rsp]
	subss	xmm1, xmm0
	movaps	xmm0, xmm1
	movss	DWORD PTR tv164[rsp], xmm0
	mov	edx, 2
	mov	rcx, QWORD PTR m$[rsp]
	call	??A?$tmat3x3@M$0A@@glm@@QEBAAEBU?$tvec3@M$0A@@1@H@Z ; glm::tmat3x3<float,0>::operator[]
	xor	edx, edx
	mov	rcx, rax
	call	??A?$tvec3@M$0A@@glm@@QEBAAEBMH@Z	; glm::tvec3<float,0>::operator[]
	mov	QWORD PTR tv169[rsp], rax
	xor	edx, edx
	mov	rcx, QWORD PTR m$[rsp]
	call	??A?$tmat3x3@M$0A@@glm@@QEBAAEBU?$tvec3@M$0A@@1@H@Z ; glm::tmat3x3<float,0>::operator[]
	mov	edx, 1
	mov	rcx, rax
	call	??A?$tvec3@M$0A@@glm@@QEBAAEBMH@Z	; glm::tvec3<float,0>::operator[]
	mov	QWORD PTR tv175[rsp], rax
	mov	edx, 1
	mov	rcx, QWORD PTR m$[rsp]
	call	??A?$tmat3x3@M$0A@@glm@@QEBAAEBU?$tvec3@M$0A@@1@H@Z ; glm::tmat3x3<float,0>::operator[]
	mov	edx, 2
	mov	rcx, rax
	call	??A?$tvec3@M$0A@@glm@@QEBAAEBMH@Z	; glm::tvec3<float,0>::operator[]
	mov	rcx, QWORD PTR tv175[rsp]
	movss	xmm0, DWORD PTR [rcx]
	mulss	xmm0, DWORD PTR [rax]
	movss	DWORD PTR tv183[rsp], xmm0
	mov	edx, 1
	mov	rcx, QWORD PTR m$[rsp]
	call	??A?$tmat3x3@M$0A@@glm@@QEBAAEBU?$tvec3@M$0A@@1@H@Z ; glm::tmat3x3<float,0>::operator[]
	mov	edx, 1
	mov	rcx, rax
	call	??A?$tvec3@M$0A@@glm@@QEBAAEBMH@Z	; glm::tvec3<float,0>::operator[]
	mov	QWORD PTR tv188[rsp], rax
	xor	edx, edx
	mov	rcx, QWORD PTR m$[rsp]
	call	??A?$tmat3x3@M$0A@@glm@@QEBAAEBU?$tvec3@M$0A@@1@H@Z ; glm::tmat3x3<float,0>::operator[]
	mov	edx, 2
	mov	rcx, rax
	call	??A?$tvec3@M$0A@@glm@@QEBAAEBMH@Z	; glm::tvec3<float,0>::operator[]
	mov	rcx, QWORD PTR tv188[rsp]
	movss	xmm0, DWORD PTR [rcx]
	mulss	xmm0, DWORD PTR [rax]
	movss	xmm1, DWORD PTR tv183[rsp]
	subss	xmm1, xmm0
	movaps	xmm0, xmm1
	mov	rax, QWORD PTR tv169[rsp]
	movss	xmm1, DWORD PTR [rax]
	mulss	xmm1, xmm0
	movaps	xmm0, xmm1
	movss	xmm1, DWORD PTR tv164[rsp]
	addss	xmm1, xmm0
	movaps	xmm0, xmm1
	movss	xmm1, DWORD PTR __real@3f800000
	divss	xmm1, xmm0
	movaps	xmm0, xmm1
	movss	DWORD PTR OneOverDeterminant$[rsp], xmm0

; 277  : 				+ m[0][0] * (m[1][1] * m[2][2] - m[2][1] * m[1][2])
; 278  : 				- m[1][0] * (m[0][1] * m[2][2] - m[2][1] * m[0][2])
; 279  : 				+ m[2][0] * (m[0][1] * m[1][2] - m[1][1] * m[0][2]));
; 280  : 
; 281  : 			tmat3x3<T, P> Inverse(uninitialize);

	xor	edx, edx
	lea	rcx, QWORD PTR Inverse$[rsp]
	call	??0?$tmat3x3@M$0A@@glm@@QEAA@W4ctor@1@@Z ; glm::tmat3x3<float,0>::tmat3x3<float,0>

; 282  : 			Inverse[0][0] = + (m[1][1] * m[2][2] - m[2][1] * m[1][2]) * OneOverDeterminant;

	mov	edx, 1
	mov	rcx, QWORD PTR m$[rsp]
	call	??A?$tmat3x3@M$0A@@glm@@QEBAAEBU?$tvec3@M$0A@@1@H@Z ; glm::tmat3x3<float,0>::operator[]
	mov	edx, 1
	mov	rcx, rax
	call	??A?$tvec3@M$0A@@glm@@QEBAAEBMH@Z	; glm::tvec3<float,0>::operator[]
	mov	QWORD PTR tv213[rsp], rax
	mov	edx, 2
	mov	rcx, QWORD PTR m$[rsp]
	call	??A?$tmat3x3@M$0A@@glm@@QEBAAEBU?$tvec3@M$0A@@1@H@Z ; glm::tmat3x3<float,0>::operator[]
	mov	edx, 2
	mov	rcx, rax
	call	??A?$tvec3@M$0A@@glm@@QEBAAEBMH@Z	; glm::tvec3<float,0>::operator[]
	mov	rcx, QWORD PTR tv213[rsp]
	movss	xmm0, DWORD PTR [rcx]
	mulss	xmm0, DWORD PTR [rax]
	movss	DWORD PTR tv221[rsp], xmm0
	mov	edx, 2
	mov	rcx, QWORD PTR m$[rsp]
	call	??A?$tmat3x3@M$0A@@glm@@QEBAAEBU?$tvec3@M$0A@@1@H@Z ; glm::tmat3x3<float,0>::operator[]
	mov	edx, 1
	mov	rcx, rax
	call	??A?$tvec3@M$0A@@glm@@QEBAAEBMH@Z	; glm::tvec3<float,0>::operator[]
	mov	QWORD PTR tv226[rsp], rax
	mov	edx, 1
	mov	rcx, QWORD PTR m$[rsp]
	call	??A?$tmat3x3@M$0A@@glm@@QEBAAEBU?$tvec3@M$0A@@1@H@Z ; glm::tmat3x3<float,0>::operator[]
	mov	edx, 2
	mov	rcx, rax
	call	??A?$tvec3@M$0A@@glm@@QEBAAEBMH@Z	; glm::tvec3<float,0>::operator[]
	mov	rcx, QWORD PTR tv226[rsp]
	movss	xmm0, DWORD PTR [rcx]
	mulss	xmm0, DWORD PTR [rax]
	movss	xmm1, DWORD PTR tv221[rsp]
	subss	xmm1, xmm0
	movaps	xmm0, xmm1
	mulss	xmm0, DWORD PTR OneOverDeterminant$[rsp]
	movss	DWORD PTR tv237[rsp], xmm0
	xor	edx, edx
	lea	rcx, QWORD PTR Inverse$[rsp]
	call	??A?$tmat3x3@M$0A@@glm@@QEAAAEAU?$tvec3@M$0A@@1@H@Z ; glm::tmat3x3<float,0>::operator[]
	xor	edx, edx
	mov	rcx, rax
	call	??A?$tvec3@M$0A@@glm@@QEAAAEAMH@Z	; glm::tvec3<float,0>::operator[]
	movss	xmm0, DWORD PTR tv237[rsp]
	movss	DWORD PTR [rax], xmm0

; 283  : 			Inverse[1][0] = - (m[1][0] * m[2][2] - m[2][0] * m[1][2]) * OneOverDeterminant;

	mov	edx, 1
	mov	rcx, QWORD PTR m$[rsp]
	call	??A?$tmat3x3@M$0A@@glm@@QEBAAEBU?$tvec3@M$0A@@1@H@Z ; glm::tmat3x3<float,0>::operator[]
	xor	edx, edx
	mov	rcx, rax
	call	??A?$tvec3@M$0A@@glm@@QEBAAEBMH@Z	; glm::tvec3<float,0>::operator[]
	mov	QWORD PTR tv248[rsp], rax
	mov	edx, 2
	mov	rcx, QWORD PTR m$[rsp]
	call	??A?$tmat3x3@M$0A@@glm@@QEBAAEBU?$tvec3@M$0A@@1@H@Z ; glm::tmat3x3<float,0>::operator[]
	mov	edx, 2
	mov	rcx, rax
	call	??A?$tvec3@M$0A@@glm@@QEBAAEBMH@Z	; glm::tvec3<float,0>::operator[]
	mov	rcx, QWORD PTR tv248[rsp]
	movss	xmm0, DWORD PTR [rcx]
	mulss	xmm0, DWORD PTR [rax]
	movss	DWORD PTR tv256[rsp], xmm0
	mov	edx, 2
	mov	rcx, QWORD PTR m$[rsp]
	call	??A?$tmat3x3@M$0A@@glm@@QEBAAEBU?$tvec3@M$0A@@1@H@Z ; glm::tmat3x3<float,0>::operator[]
	xor	edx, edx
	mov	rcx, rax
	call	??A?$tvec3@M$0A@@glm@@QEBAAEBMH@Z	; glm::tvec3<float,0>::operator[]
	mov	QWORD PTR tv261[rsp], rax
	mov	edx, 1
	mov	rcx, QWORD PTR m$[rsp]
	call	??A?$tmat3x3@M$0A@@glm@@QEBAAEBU?$tvec3@M$0A@@1@H@Z ; glm::tmat3x3<float,0>::operator[]
	mov	edx, 2
	mov	rcx, rax
	call	??A?$tvec3@M$0A@@glm@@QEBAAEBMH@Z	; glm::tvec3<float,0>::operator[]
	mov	rcx, QWORD PTR tv261[rsp]
	movss	xmm0, DWORD PTR [rcx]
	mulss	xmm0, DWORD PTR [rax]
	movss	xmm1, DWORD PTR tv256[rsp]
	subss	xmm1, xmm0
	movaps	xmm0, xmm1
	xorps	xmm0, DWORD PTR __xmm@80000000800000008000000080000000
	mulss	xmm0, DWORD PTR OneOverDeterminant$[rsp]
	movss	DWORD PTR tv273[rsp], xmm0
	mov	edx, 1
	lea	rcx, QWORD PTR Inverse$[rsp]
	call	??A?$tmat3x3@M$0A@@glm@@QEAAAEAU?$tvec3@M$0A@@1@H@Z ; glm::tmat3x3<float,0>::operator[]
	xor	edx, edx
	mov	rcx, rax
	call	??A?$tvec3@M$0A@@glm@@QEAAAEAMH@Z	; glm::tvec3<float,0>::operator[]
	movss	xmm0, DWORD PTR tv273[rsp]
	movss	DWORD PTR [rax], xmm0

; 284  : 			Inverse[2][0] = + (m[1][0] * m[2][1] - m[2][0] * m[1][1]) * OneOverDeterminant;

	mov	edx, 1
	mov	rcx, QWORD PTR m$[rsp]
	call	??A?$tmat3x3@M$0A@@glm@@QEBAAEBU?$tvec3@M$0A@@1@H@Z ; glm::tmat3x3<float,0>::operator[]
	xor	edx, edx
	mov	rcx, rax
	call	??A?$tvec3@M$0A@@glm@@QEBAAEBMH@Z	; glm::tvec3<float,0>::operator[]
	mov	QWORD PTR tv284[rsp], rax
	mov	edx, 2
	mov	rcx, QWORD PTR m$[rsp]
	call	??A?$tmat3x3@M$0A@@glm@@QEBAAEBU?$tvec3@M$0A@@1@H@Z ; glm::tmat3x3<float,0>::operator[]
	mov	edx, 1
	mov	rcx, rax
	call	??A?$tvec3@M$0A@@glm@@QEBAAEBMH@Z	; glm::tvec3<float,0>::operator[]
	mov	rcx, QWORD PTR tv284[rsp]
	movss	xmm0, DWORD PTR [rcx]
	mulss	xmm0, DWORD PTR [rax]
	movss	DWORD PTR tv292[rsp], xmm0
	mov	edx, 2
	mov	rcx, QWORD PTR m$[rsp]
	call	??A?$tmat3x3@M$0A@@glm@@QEBAAEBU?$tvec3@M$0A@@1@H@Z ; glm::tmat3x3<float,0>::operator[]
	xor	edx, edx
	mov	rcx, rax
	call	??A?$tvec3@M$0A@@glm@@QEBAAEBMH@Z	; glm::tvec3<float,0>::operator[]
	mov	QWORD PTR tv297[rsp], rax
	mov	edx, 1
	mov	rcx, QWORD PTR m$[rsp]
	call	??A?$tmat3x3@M$0A@@glm@@QEBAAEBU?$tvec3@M$0A@@1@H@Z ; glm::tmat3x3<float,0>::operator[]
	mov	edx, 1
	mov	rcx, rax
	call	??A?$tvec3@M$0A@@glm@@QEBAAEBMH@Z	; glm::tvec3<float,0>::operator[]
	mov	rcx, QWORD PTR tv297[rsp]
	movss	xmm0, DWORD PTR [rcx]
	mulss	xmm0, DWORD PTR [rax]
	movss	xmm1, DWORD PTR tv292[rsp]
	subss	xmm1, xmm0
	movaps	xmm0, xmm1
	mulss	xmm0, DWORD PTR OneOverDeterminant$[rsp]
	movss	DWORD PTR tv308[rsp], xmm0
	mov	edx, 2
	lea	rcx, QWORD PTR Inverse$[rsp]
	call	??A?$tmat3x3@M$0A@@glm@@QEAAAEAU?$tvec3@M$0A@@1@H@Z ; glm::tmat3x3<float,0>::operator[]
	xor	edx, edx
	mov	rcx, rax
	call	??A?$tvec3@M$0A@@glm@@QEAAAEAMH@Z	; glm::tvec3<float,0>::operator[]
	movss	xmm0, DWORD PTR tv308[rsp]
	movss	DWORD PTR [rax], xmm0

; 285  : 			Inverse[0][1] = - (m[0][1] * m[2][2] - m[2][1] * m[0][2]) * OneOverDeterminant;

	xor	edx, edx
	mov	rcx, QWORD PTR m$[rsp]
	call	??A?$tmat3x3@M$0A@@glm@@QEBAAEBU?$tvec3@M$0A@@1@H@Z ; glm::tmat3x3<float,0>::operator[]
	mov	edx, 1
	mov	rcx, rax
	call	??A?$tvec3@M$0A@@glm@@QEBAAEBMH@Z	; glm::tvec3<float,0>::operator[]
	mov	QWORD PTR tv319[rsp], rax
	mov	edx, 2
	mov	rcx, QWORD PTR m$[rsp]
	call	??A?$tmat3x3@M$0A@@glm@@QEBAAEBU?$tvec3@M$0A@@1@H@Z ; glm::tmat3x3<float,0>::operator[]
	mov	edx, 2
	mov	rcx, rax
	call	??A?$tvec3@M$0A@@glm@@QEBAAEBMH@Z	; glm::tvec3<float,0>::operator[]
	mov	rcx, QWORD PTR tv319[rsp]
	movss	xmm0, DWORD PTR [rcx]
	mulss	xmm0, DWORD PTR [rax]
	movss	DWORD PTR tv327[rsp], xmm0
	mov	edx, 2
	mov	rcx, QWORD PTR m$[rsp]
	call	??A?$tmat3x3@M$0A@@glm@@QEBAAEBU?$tvec3@M$0A@@1@H@Z ; glm::tmat3x3<float,0>::operator[]
	mov	edx, 1
	mov	rcx, rax
	call	??A?$tvec3@M$0A@@glm@@QEBAAEBMH@Z	; glm::tvec3<float,0>::operator[]
	mov	QWORD PTR tv332[rsp], rax
	xor	edx, edx
	mov	rcx, QWORD PTR m$[rsp]
	call	??A?$tmat3x3@M$0A@@glm@@QEBAAEBU?$tvec3@M$0A@@1@H@Z ; glm::tmat3x3<float,0>::operator[]
	mov	edx, 2
	mov	rcx, rax
	call	??A?$tvec3@M$0A@@glm@@QEBAAEBMH@Z	; glm::tvec3<float,0>::operator[]
	mov	rcx, QWORD PTR tv332[rsp]
	movss	xmm0, DWORD PTR [rcx]
	mulss	xmm0, DWORD PTR [rax]
	movss	xmm1, DWORD PTR tv327[rsp]
	subss	xmm1, xmm0
	movaps	xmm0, xmm1
	xorps	xmm0, DWORD PTR __xmm@80000000800000008000000080000000
	mulss	xmm0, DWORD PTR OneOverDeterminant$[rsp]
	movss	DWORD PTR tv344[rsp], xmm0
	xor	edx, edx
	lea	rcx, QWORD PTR Inverse$[rsp]
	call	??A?$tmat3x3@M$0A@@glm@@QEAAAEAU?$tvec3@M$0A@@1@H@Z ; glm::tmat3x3<float,0>::operator[]
	mov	edx, 1
	mov	rcx, rax
	call	??A?$tvec3@M$0A@@glm@@QEAAAEAMH@Z	; glm::tvec3<float,0>::operator[]
	movss	xmm0, DWORD PTR tv344[rsp]
	movss	DWORD PTR [rax], xmm0

; 286  : 			Inverse[1][1] = + (m[0][0] * m[2][2] - m[2][0] * m[0][2]) * OneOverDeterminant;

	xor	edx, edx
	mov	rcx, QWORD PTR m$[rsp]
	call	??A?$tmat3x3@M$0A@@glm@@QEBAAEBU?$tvec3@M$0A@@1@H@Z ; glm::tmat3x3<float,0>::operator[]
	xor	edx, edx
	mov	rcx, rax
	call	??A?$tvec3@M$0A@@glm@@QEBAAEBMH@Z	; glm::tvec3<float,0>::operator[]
	mov	QWORD PTR tv355[rsp], rax
	mov	edx, 2
	mov	rcx, QWORD PTR m$[rsp]
	call	??A?$tmat3x3@M$0A@@glm@@QEBAAEBU?$tvec3@M$0A@@1@H@Z ; glm::tmat3x3<float,0>::operator[]
	mov	edx, 2
	mov	rcx, rax
	call	??A?$tvec3@M$0A@@glm@@QEBAAEBMH@Z	; glm::tvec3<float,0>::operator[]
	mov	rcx, QWORD PTR tv355[rsp]
	movss	xmm0, DWORD PTR [rcx]
	mulss	xmm0, DWORD PTR [rax]
	movss	DWORD PTR tv363[rsp], xmm0
	mov	edx, 2
	mov	rcx, QWORD PTR m$[rsp]
	call	??A?$tmat3x3@M$0A@@glm@@QEBAAEBU?$tvec3@M$0A@@1@H@Z ; glm::tmat3x3<float,0>::operator[]
	xor	edx, edx
	mov	rcx, rax
	call	??A?$tvec3@M$0A@@glm@@QEBAAEBMH@Z	; glm::tvec3<float,0>::operator[]
	mov	QWORD PTR tv368[rsp], rax
	xor	edx, edx
	mov	rcx, QWORD PTR m$[rsp]
	call	??A?$tmat3x3@M$0A@@glm@@QEBAAEBU?$tvec3@M$0A@@1@H@Z ; glm::tmat3x3<float,0>::operator[]
	mov	edx, 2
	mov	rcx, rax
	call	??A?$tvec3@M$0A@@glm@@QEBAAEBMH@Z	; glm::tvec3<float,0>::operator[]
	mov	rcx, QWORD PTR tv368[rsp]
	movss	xmm0, DWORD PTR [rcx]
	mulss	xmm0, DWORD PTR [rax]
	movss	xmm1, DWORD PTR tv363[rsp]
	subss	xmm1, xmm0
	movaps	xmm0, xmm1
	mulss	xmm0, DWORD PTR OneOverDeterminant$[rsp]
	movss	DWORD PTR tv379[rsp], xmm0
	mov	edx, 1
	lea	rcx, QWORD PTR Inverse$[rsp]
	call	??A?$tmat3x3@M$0A@@glm@@QEAAAEAU?$tvec3@M$0A@@1@H@Z ; glm::tmat3x3<float,0>::operator[]
	mov	edx, 1
	mov	rcx, rax
	call	??A?$tvec3@M$0A@@glm@@QEAAAEAMH@Z	; glm::tvec3<float,0>::operator[]
	movss	xmm0, DWORD PTR tv379[rsp]
	movss	DWORD PTR [rax], xmm0

; 287  : 			Inverse[2][1] = - (m[0][0] * m[2][1] - m[2][0] * m[0][1]) * OneOverDeterminant;

	xor	edx, edx
	mov	rcx, QWORD PTR m$[rsp]
	call	??A?$tmat3x3@M$0A@@glm@@QEBAAEBU?$tvec3@M$0A@@1@H@Z ; glm::tmat3x3<float,0>::operator[]
	xor	edx, edx
	mov	rcx, rax
	call	??A?$tvec3@M$0A@@glm@@QEBAAEBMH@Z	; glm::tvec3<float,0>::operator[]
	mov	QWORD PTR tv390[rsp], rax
	mov	edx, 2
	mov	rcx, QWORD PTR m$[rsp]
	call	??A?$tmat3x3@M$0A@@glm@@QEBAAEBU?$tvec3@M$0A@@1@H@Z ; glm::tmat3x3<float,0>::operator[]
	mov	edx, 1
	mov	rcx, rax
	call	??A?$tvec3@M$0A@@glm@@QEBAAEBMH@Z	; glm::tvec3<float,0>::operator[]
	mov	rcx, QWORD PTR tv390[rsp]
	movss	xmm0, DWORD PTR [rcx]
	mulss	xmm0, DWORD PTR [rax]
	movss	DWORD PTR tv398[rsp], xmm0
	mov	edx, 2
	mov	rcx, QWORD PTR m$[rsp]
	call	??A?$tmat3x3@M$0A@@glm@@QEBAAEBU?$tvec3@M$0A@@1@H@Z ; glm::tmat3x3<float,0>::operator[]
	xor	edx, edx
	mov	rcx, rax
	call	??A?$tvec3@M$0A@@glm@@QEBAAEBMH@Z	; glm::tvec3<float,0>::operator[]
	mov	QWORD PTR tv403[rsp], rax
	xor	edx, edx
	mov	rcx, QWORD PTR m$[rsp]
	call	??A?$tmat3x3@M$0A@@glm@@QEBAAEBU?$tvec3@M$0A@@1@H@Z ; glm::tmat3x3<float,0>::operator[]
	mov	edx, 1
	mov	rcx, rax
	call	??A?$tvec3@M$0A@@glm@@QEBAAEBMH@Z	; glm::tvec3<float,0>::operator[]
	mov	rcx, QWORD PTR tv403[rsp]
	movss	xmm0, DWORD PTR [rcx]
	mulss	xmm0, DWORD PTR [rax]
	movss	xmm1, DWORD PTR tv398[rsp]
	subss	xmm1, xmm0
	movaps	xmm0, xmm1
	xorps	xmm0, DWORD PTR __xmm@80000000800000008000000080000000
	mulss	xmm0, DWORD PTR OneOverDeterminant$[rsp]
	movss	DWORD PTR tv415[rsp], xmm0
	mov	edx, 2
	lea	rcx, QWORD PTR Inverse$[rsp]
	call	??A?$tmat3x3@M$0A@@glm@@QEAAAEAU?$tvec3@M$0A@@1@H@Z ; glm::tmat3x3<float,0>::operator[]
	mov	edx, 1
	mov	rcx, rax
	call	??A?$tvec3@M$0A@@glm@@QEAAAEAMH@Z	; glm::tvec3<float,0>::operator[]
	movss	xmm0, DWORD PTR tv415[rsp]
	movss	DWORD PTR [rax], xmm0

; 288  : 			Inverse[0][2] = + (m[0][1] * m[1][2] - m[1][1] * m[0][2]) * OneOverDeterminant;

	xor	edx, edx
	mov	rcx, QWORD PTR m$[rsp]
	call	??A?$tmat3x3@M$0A@@glm@@QEBAAEBU?$tvec3@M$0A@@1@H@Z ; glm::tmat3x3<float,0>::operator[]
	mov	edx, 1
	mov	rcx, rax
	call	??A?$tvec3@M$0A@@glm@@QEBAAEBMH@Z	; glm::tvec3<float,0>::operator[]
	mov	QWORD PTR tv426[rsp], rax
	mov	edx, 1
	mov	rcx, QWORD PTR m$[rsp]
	call	??A?$tmat3x3@M$0A@@glm@@QEBAAEBU?$tvec3@M$0A@@1@H@Z ; glm::tmat3x3<float,0>::operator[]
	mov	edx, 2
	mov	rcx, rax
	call	??A?$tvec3@M$0A@@glm@@QEBAAEBMH@Z	; glm::tvec3<float,0>::operator[]
	mov	rcx, QWORD PTR tv426[rsp]
	movss	xmm0, DWORD PTR [rcx]
	mulss	xmm0, DWORD PTR [rax]
	movss	DWORD PTR tv434[rsp], xmm0
	mov	edx, 1
	mov	rcx, QWORD PTR m$[rsp]
	call	??A?$tmat3x3@M$0A@@glm@@QEBAAEBU?$tvec3@M$0A@@1@H@Z ; glm::tmat3x3<float,0>::operator[]
	mov	edx, 1
	mov	rcx, rax
	call	??A?$tvec3@M$0A@@glm@@QEBAAEBMH@Z	; glm::tvec3<float,0>::operator[]
	mov	QWORD PTR tv439[rsp], rax
	xor	edx, edx
	mov	rcx, QWORD PTR m$[rsp]
	call	??A?$tmat3x3@M$0A@@glm@@QEBAAEBU?$tvec3@M$0A@@1@H@Z ; glm::tmat3x3<float,0>::operator[]
	mov	edx, 2
	mov	rcx, rax
	call	??A?$tvec3@M$0A@@glm@@QEBAAEBMH@Z	; glm::tvec3<float,0>::operator[]
	mov	rcx, QWORD PTR tv439[rsp]
	movss	xmm0, DWORD PTR [rcx]
	mulss	xmm0, DWORD PTR [rax]
	movss	xmm1, DWORD PTR tv434[rsp]
	subss	xmm1, xmm0
	movaps	xmm0, xmm1
	mulss	xmm0, DWORD PTR OneOverDeterminant$[rsp]
	movss	DWORD PTR tv450[rsp], xmm0
	xor	edx, edx
	lea	rcx, QWORD PTR Inverse$[rsp]
	call	??A?$tmat3x3@M$0A@@glm@@QEAAAEAU?$tvec3@M$0A@@1@H@Z ; glm::tmat3x3<float,0>::operator[]
	mov	edx, 2
	mov	rcx, rax
	call	??A?$tvec3@M$0A@@glm@@QEAAAEAMH@Z	; glm::tvec3<float,0>::operator[]
	movss	xmm0, DWORD PTR tv450[rsp]
	movss	DWORD PTR [rax], xmm0

; 289  : 			Inverse[1][2] = - (m[0][0] * m[1][2] - m[1][0] * m[0][2]) * OneOverDeterminant;

	xor	edx, edx
	mov	rcx, QWORD PTR m$[rsp]
	call	??A?$tmat3x3@M$0A@@glm@@QEBAAEBU?$tvec3@M$0A@@1@H@Z ; glm::tmat3x3<float,0>::operator[]
	xor	edx, edx
	mov	rcx, rax
	call	??A?$tvec3@M$0A@@glm@@QEBAAEBMH@Z	; glm::tvec3<float,0>::operator[]
	mov	QWORD PTR tv461[rsp], rax
	mov	edx, 1
	mov	rcx, QWORD PTR m$[rsp]
	call	??A?$tmat3x3@M$0A@@glm@@QEBAAEBU?$tvec3@M$0A@@1@H@Z ; glm::tmat3x3<float,0>::operator[]
	mov	edx, 2
	mov	rcx, rax
	call	??A?$tvec3@M$0A@@glm@@QEBAAEBMH@Z	; glm::tvec3<float,0>::operator[]
	mov	rcx, QWORD PTR tv461[rsp]
	movss	xmm0, DWORD PTR [rcx]
	mulss	xmm0, DWORD PTR [rax]
	movss	DWORD PTR tv469[rsp], xmm0
	mov	edx, 1
	mov	rcx, QWORD PTR m$[rsp]
	call	??A?$tmat3x3@M$0A@@glm@@QEBAAEBU?$tvec3@M$0A@@1@H@Z ; glm::tmat3x3<float,0>::operator[]
	xor	edx, edx
	mov	rcx, rax
	call	??A?$tvec3@M$0A@@glm@@QEBAAEBMH@Z	; glm::tvec3<float,0>::operator[]
	mov	QWORD PTR tv474[rsp], rax
	xor	edx, edx
	mov	rcx, QWORD PTR m$[rsp]
	call	??A?$tmat3x3@M$0A@@glm@@QEBAAEBU?$tvec3@M$0A@@1@H@Z ; glm::tmat3x3<float,0>::operator[]
	mov	edx, 2
	mov	rcx, rax
	call	??A?$tvec3@M$0A@@glm@@QEBAAEBMH@Z	; glm::tvec3<float,0>::operator[]
	mov	rcx, QWORD PTR tv474[rsp]
	movss	xmm0, DWORD PTR [rcx]
	mulss	xmm0, DWORD PTR [rax]
	movss	xmm1, DWORD PTR tv469[rsp]
	subss	xmm1, xmm0
	movaps	xmm0, xmm1
	xorps	xmm0, DWORD PTR __xmm@80000000800000008000000080000000
	mulss	xmm0, DWORD PTR OneOverDeterminant$[rsp]
	movss	DWORD PTR tv486[rsp], xmm0
	mov	edx, 1
	lea	rcx, QWORD PTR Inverse$[rsp]
	call	??A?$tmat3x3@M$0A@@glm@@QEAAAEAU?$tvec3@M$0A@@1@H@Z ; glm::tmat3x3<float,0>::operator[]
	mov	edx, 2
	mov	rcx, rax
	call	??A?$tvec3@M$0A@@glm@@QEAAAEAMH@Z	; glm::tvec3<float,0>::operator[]
	movss	xmm0, DWORD PTR tv486[rsp]
	movss	DWORD PTR [rax], xmm0

; 290  : 			Inverse[2][2] = + (m[0][0] * m[1][1] - m[1][0] * m[0][1]) * OneOverDeterminant;

	xor	edx, edx
	mov	rcx, QWORD PTR m$[rsp]
	call	??A?$tmat3x3@M$0A@@glm@@QEBAAEBU?$tvec3@M$0A@@1@H@Z ; glm::tmat3x3<float,0>::operator[]
	xor	edx, edx
	mov	rcx, rax
	call	??A?$tvec3@M$0A@@glm@@QEBAAEBMH@Z	; glm::tvec3<float,0>::operator[]
	mov	QWORD PTR tv497[rsp], rax
	mov	edx, 1
	mov	rcx, QWORD PTR m$[rsp]
	call	??A?$tmat3x3@M$0A@@glm@@QEBAAEBU?$tvec3@M$0A@@1@H@Z ; glm::tmat3x3<float,0>::operator[]
	mov	edx, 1
	mov	rcx, rax
	call	??A?$tvec3@M$0A@@glm@@QEBAAEBMH@Z	; glm::tvec3<float,0>::operator[]
	mov	rcx, QWORD PTR tv497[rsp]
	movss	xmm0, DWORD PTR [rcx]
	mulss	xmm0, DWORD PTR [rax]
	movss	DWORD PTR tv505[rsp], xmm0
	mov	edx, 1
	mov	rcx, QWORD PTR m$[rsp]
	call	??A?$tmat3x3@M$0A@@glm@@QEBAAEBU?$tvec3@M$0A@@1@H@Z ; glm::tmat3x3<float,0>::operator[]
	xor	edx, edx
	mov	rcx, rax
	call	??A?$tvec3@M$0A@@glm@@QEBAAEBMH@Z	; glm::tvec3<float,0>::operator[]
	mov	QWORD PTR tv510[rsp], rax
	xor	edx, edx
	mov	rcx, QWORD PTR m$[rsp]
	call	??A?$tmat3x3@M$0A@@glm@@QEBAAEBU?$tvec3@M$0A@@1@H@Z ; glm::tmat3x3<float,0>::operator[]
	mov	edx, 1
	mov	rcx, rax
	call	??A?$tvec3@M$0A@@glm@@QEBAAEBMH@Z	; glm::tvec3<float,0>::operator[]
	mov	rcx, QWORD PTR tv510[rsp]
	movss	xmm0, DWORD PTR [rcx]
	mulss	xmm0, DWORD PTR [rax]
	movss	xmm1, DWORD PTR tv505[rsp]
	subss	xmm1, xmm0
	movaps	xmm0, xmm1
	mulss	xmm0, DWORD PTR OneOverDeterminant$[rsp]
	movss	DWORD PTR tv521[rsp], xmm0
	mov	edx, 2
	lea	rcx, QWORD PTR Inverse$[rsp]
	call	??A?$tmat3x3@M$0A@@glm@@QEAAAEAU?$tvec3@M$0A@@1@H@Z ; glm::tmat3x3<float,0>::operator[]
	mov	edx, 2
	mov	rcx, rax
	call	??A?$tvec3@M$0A@@glm@@QEAAAEAMH@Z	; glm::tvec3<float,0>::operator[]
	movss	xmm0, DWORD PTR tv521[rsp]
	movss	DWORD PTR [rax], xmm0

; 291  : 
; 292  : 			return Inverse;

	lea	rax, QWORD PTR Inverse$[rsp]
	mov	rdi, QWORD PTR __$ReturnUdt$[rsp]
	mov	rsi, rax
	mov	ecx, 36					; 00000024H
	rep movsb
	mov	rax, QWORD PTR __$ReturnUdt$[rsp]

; 293  : 		}

	mov	rdi, rax
	mov	rcx, rsp
	lea	rdx, OFFSET FLAT:?call@?$compute_inverse@Utmat3x3@glm@@M$0A@$0A@@detail@glm@@SA?AU?$tmat3x3@M$0A@@3@AEBU43@@Z$rtcFrameData
	call	_RTC_CheckStackVars
	mov	rax, rdi
	mov	rcx, QWORD PTR __$ArrayPad$[rsp]
	xor	rcx, rsp
	call	__security_check_cookie
	add	rsp, 536				; 00000218H
	pop	rdi
	pop	rsi
	ret	0
?call@?$compute_inverse@Utmat3x3@glm@@M$0A@$0A@@detail@glm@@SA?AU?$tmat3x3@M$0A@@3@AEBU43@@Z ENDP ; glm::detail::compute_inverse<glm::tmat3x3,float,0,0>::call
_TEXT	ENDS
; Function compile flags: /Odtp /RTCsu
; File C:\Users\ksart\OneDrive\Desktop\FlappyBird\libraries\external\glm\glm\detail\type_mat2x2.inl
;	COMDAT ??$?DM$0A@@glm@@YA?AU?$tvec2@M$0A@@0@AEBU?$tmat2x2@M$0A@@0@AEBU10@@Z
_TEXT	SEGMENT
tv73 = 32
tv82 = 36
tv91 = 40
__$ReturnUdt$ = 64
m$ = 72
v$ = 80
??$?DM$0A@@glm@@YA?AU?$tvec2@M$0A@@0@AEBU?$tmat2x2@M$0A@@0@AEBU10@@Z PROC ; glm::operator*<float,0>, COMDAT

; 382  : 	{

$LN3:
	mov	QWORD PTR [rsp+24], r8
	mov	QWORD PTR [rsp+16], rdx
	mov	QWORD PTR [rsp+8], rcx
	push	rdi
	sub	rsp, 48					; 00000030H

; 383  : 		return tvec2<T, P>(

	xor	edx, edx
	mov	rcx, QWORD PTR m$[rsp]
	call	??A?$tmat2x2@M$0A@@glm@@QEBAAEBU?$tvec2@M$0A@@1@H@Z ; glm::tmat2x2<float,0>::operator[]
	mov	edx, 1
	mov	rcx, rax
	call	??A?$tvec2@M$0A@@glm@@QEBAAEBMH@Z	; glm::tvec2<float,0>::operator[]
	mov	rcx, QWORD PTR v$[rsp]
	movss	xmm0, DWORD PTR [rax]
	mulss	xmm0, DWORD PTR [rcx]
	movss	DWORD PTR tv73[rsp], xmm0
	mov	edx, 1
	mov	rcx, QWORD PTR m$[rsp]
	call	??A?$tmat2x2@M$0A@@glm@@QEBAAEBU?$tvec2@M$0A@@1@H@Z ; glm::tmat2x2<float,0>::operator[]
	mov	edx, 1
	mov	rcx, rax
	call	??A?$tvec2@M$0A@@glm@@QEBAAEBMH@Z	; glm::tvec2<float,0>::operator[]
	mov	rcx, QWORD PTR v$[rsp]
	movss	xmm0, DWORD PTR [rax]
	mulss	xmm0, DWORD PTR [rcx+4]
	movss	xmm1, DWORD PTR tv73[rsp]
	addss	xmm1, xmm0
	movaps	xmm0, xmm1
	movss	DWORD PTR tv82[rsp], xmm0
	xor	edx, edx
	mov	rcx, QWORD PTR m$[rsp]
	call	??A?$tmat2x2@M$0A@@glm@@QEBAAEBU?$tvec2@M$0A@@1@H@Z ; glm::tmat2x2<float,0>::operator[]
	xor	edx, edx
	mov	rcx, rax
	call	??A?$tvec2@M$0A@@glm@@QEBAAEBMH@Z	; glm::tvec2<float,0>::operator[]
	mov	rcx, QWORD PTR v$[rsp]
	movss	xmm0, DWORD PTR [rax]
	mulss	xmm0, DWORD PTR [rcx]
	movss	DWORD PTR tv91[rsp], xmm0
	mov	edx, 1
	mov	rcx, QWORD PTR m$[rsp]
	call	??A?$tmat2x2@M$0A@@glm@@QEBAAEBU?$tvec2@M$0A@@1@H@Z ; glm::tmat2x2<float,0>::operator[]
	xor	edx, edx
	mov	rcx, rax
	call	??A?$tvec2@M$0A@@glm@@QEBAAEBMH@Z	; glm::tvec2<float,0>::operator[]
	mov	rcx, QWORD PTR v$[rsp]
	movss	xmm0, DWORD PTR [rax]
	mulss	xmm0, DWORD PTR [rcx+4]
	movss	xmm1, DWORD PTR tv91[rsp]
	addss	xmm1, xmm0
	movaps	xmm0, xmm1
	movss	xmm1, DWORD PTR tv82[rsp]
	movaps	xmm2, xmm1
	movaps	xmm1, xmm0
	mov	rcx, QWORD PTR __$ReturnUdt$[rsp]
	call	??0?$tvec2@M$0A@@glm@@QEAA@MM@Z		; glm::tvec2<float,0>::tvec2<float,0>
	mov	rax, QWORD PTR __$ReturnUdt$[rsp]

; 384  : 			m[0][0] * v.x + m[1][0] * v.y,
; 385  : 			m[0][1] * v.x + m[1][1] * v.y);
; 386  : 	}

	add	rsp, 48					; 00000030H
	pop	rdi
	ret	0
??$?DM$0A@@glm@@YA?AU?$tvec2@M$0A@@0@AEBU?$tmat2x2@M$0A@@0@AEBU10@@Z ENDP ; glm::operator*<float,0>
_TEXT	ENDS
; Function compile flags: /Odtp /RTCsu
; File C:\Users\ksart\OneDrive\Desktop\FlappyBird\libraries\external\glm\glm\detail\type_vec2.inl
;	COMDAT ??$?0M$0A@@?$tvec2@M$0A@@glm@@QEAA@AEBU?$tvec3@M$0A@@1@@Z
_TEXT	SEGMENT
this$ = 16
v$ = 24
??$?0M$0A@@?$tvec2@M$0A@@glm@@QEAA@AEBU?$tvec3@M$0A@@1@@Z PROC ; glm::tvec2<float,0>::tvec2<float,0><float,0>, COMDAT

; 89   : 	{}

$LN3:
	mov	QWORD PTR [rsp+16], rdx
	mov	QWORD PTR [rsp+8], rcx
	push	rdi

; 87   : 		: x(static_cast<T>(v.x))

	mov	rax, QWORD PTR this$[rsp]
	mov	rcx, QWORD PTR v$[rsp]
	movss	xmm0, DWORD PTR [rcx]
	movss	DWORD PTR [rax], xmm0

; 88   : 		, y(static_cast<T>(v.y))

	mov	rax, QWORD PTR this$[rsp]
	mov	rcx, QWORD PTR v$[rsp]
	movss	xmm0, DWORD PTR [rcx+4]
	movss	DWORD PTR [rax+4], xmm0

; 89   : 	{}

	mov	rax, QWORD PTR this$[rsp]
	pop	rdi
	ret	0
??$?0M$0A@@?$tvec2@M$0A@@glm@@QEAA@AEBU?$tvec3@M$0A@@1@@Z ENDP ; glm::tvec2<float,0>::tvec2<float,0><float,0>
_TEXT	ENDS
; Function compile flags: /Odtp /RTCsu
; File C:\Users\ksart\OneDrive\Desktop\FlappyBird\libraries\external\glm\glm\detail\type_mat2x2.inl
;	COMDAT ??$?GM$0A@@glm@@YA?AU?$tmat2x2@M$0A@@0@AEBU10@@Z
_TEXT	SEGMENT
$T1 = 32
$T2 = 40
tv66 = 48
__$ReturnUdt$ = 80
m$ = 88
??$?GM$0A@@glm@@YA?AU?$tmat2x2@M$0A@@0@AEBU10@@Z PROC	; glm::operator-<float,0>, COMDAT

; 304  : 	{

$LN3:
	mov	QWORD PTR [rsp+16], rdx
	mov	QWORD PTR [rsp+8], rcx
	push	rdi
	sub	rsp, 64					; 00000040H

; 305  : 		return tmat2x2<T, P>(

	mov	edx, 1
	mov	rcx, QWORD PTR m$[rsp]
	call	??A?$tmat2x2@M$0A@@glm@@QEBAAEBU?$tvec2@M$0A@@1@H@Z ; glm::tmat2x2<float,0>::operator[]
	mov	rdx, rax
	lea	rcx, QWORD PTR $T1[rsp]
	call	??$?GM$0A@@glm@@YA?AU?$tvec2@M$0A@@0@AEBU10@@Z ; glm::operator-<float,0>
	mov	QWORD PTR tv66[rsp], rax
	xor	edx, edx
	mov	rcx, QWORD PTR m$[rsp]
	call	??A?$tmat2x2@M$0A@@glm@@QEBAAEBU?$tvec2@M$0A@@1@H@Z ; glm::tmat2x2<float,0>::operator[]
	mov	rdx, rax
	lea	rcx, QWORD PTR $T2[rsp]
	call	??$?GM$0A@@glm@@YA?AU?$tvec2@M$0A@@0@AEBU10@@Z ; glm::operator-<float,0>
	mov	rcx, QWORD PTR tv66[rsp]
	mov	r8, rcx
	mov	rdx, rax
	mov	rcx, QWORD PTR __$ReturnUdt$[rsp]
	call	??0?$tmat2x2@M$0A@@glm@@QEAA@AEBU?$tvec2@M$0A@@1@0@Z ; glm::tmat2x2<float,0>::tmat2x2<float,0>
	mov	rax, QWORD PTR __$ReturnUdt$[rsp]

; 306  : 			-m[0], 
; 307  : 			-m[1]);
; 308  : 	}

	add	rsp, 64					; 00000040H
	pop	rdi
	ret	0
??$?GM$0A@@glm@@YA?AU?$tmat2x2@M$0A@@0@AEBU10@@Z ENDP	; glm::operator-<float,0>
_TEXT	ENDS
; Function compile flags: /Odtp /RTCsu
; File C:\Users\ksart\OneDrive\Desktop\FlappyBird\libraries\external\glm\glm\detail\type_vec3.inl
;	COMDAT ??$?0MM$0A@@?$tvec3@M$0A@@glm@@QEAA@AEBU?$tvec2@M$0A@@1@M@Z
_TEXT	SEGMENT
this$ = 16
a$ = 24
b$ = 32
??$?0MM$0A@@?$tvec3@M$0A@@glm@@QEAA@AEBU?$tvec2@M$0A@@1@M@Z PROC ; glm::tvec3<float,0>::tvec3<float,0><float,float,0>, COMDAT

; 98   : 	{}

$LN3:
	movss	DWORD PTR [rsp+24], xmm2
	mov	QWORD PTR [rsp+16], rdx
	mov	QWORD PTR [rsp+8], rcx
	push	rdi

; 95   : 		x(static_cast<T>(a.x)),

	mov	rax, QWORD PTR this$[rsp]
	mov	rcx, QWORD PTR a$[rsp]
	movss	xmm0, DWORD PTR [rcx]
	movss	DWORD PTR [rax], xmm0

; 96   : 		y(static_cast<T>(a.y)),

	mov	rax, QWORD PTR this$[rsp]
	mov	rcx, QWORD PTR a$[rsp]
	movss	xmm0, DWORD PTR [rcx+4]
	movss	DWORD PTR [rax+4], xmm0

; 97   : 		z(static_cast<T>(b))

	mov	rax, QWORD PTR this$[rsp]
	movss	xmm0, DWORD PTR b$[rsp]
	movss	DWORD PTR [rax+8], xmm0

; 98   : 	{}

	mov	rax, QWORD PTR this$[rsp]
	pop	rdi
	ret	0
??$?0MM$0A@@?$tvec3@M$0A@@glm@@QEAA@AEBU?$tvec2@M$0A@@1@M@Z ENDP ; glm::tvec3<float,0>::tvec3<float,0><float,float,0>
_TEXT	ENDS
; Function compile flags: /Odtp /RTCsu
; File C:\Users\ksart\OneDrive\Desktop\FlappyBird\libraries\external\glm\glm\detail\func_matrix.inl
;	COMDAT ??$inverse@M$0A@Utmat2x2@glm@@@glm@@YA?AU?$tmat2x2@M$0A@@0@AEBU10@@Z
_TEXT	SEGMENT
__$ReturnUdt$ = 48
m$ = 56
??$inverse@M$0A@Utmat2x2@glm@@@glm@@YA?AU?$tmat2x2@M$0A@@0@AEBU10@@Z PROC ; glm::inverse<float,0,glm::tmat2x2>, COMDAT

; 392  : 	{

$LN3:
	mov	QWORD PTR [rsp+16], rdx
	mov	QWORD PTR [rsp+8], rcx
	push	rdi
	sub	rsp, 32					; 00000020H

; 393  : 		GLM_STATIC_ASSERT(std::numeric_limits<T>::is_iec559 || GLM_UNRESTRICTED_GENTYPE, "'inverse' only accept floating-point inputs");
; 394  : 		return detail::compute_inverse<matType, T, P, detail::is_aligned<P>::value>::call(m);

	mov	rdx, QWORD PTR m$[rsp]
	mov	rcx, QWORD PTR __$ReturnUdt$[rsp]
	call	?call@?$compute_inverse@Utmat2x2@glm@@M$0A@$0A@@detail@glm@@SA?AU?$tmat2x2@M$0A@@3@AEBU43@@Z ; glm::detail::compute_inverse<glm::tmat2x2,float,0,0>::call
	mov	rax, QWORD PTR __$ReturnUdt$[rsp]

; 395  : 	}

	add	rsp, 32					; 00000020H
	pop	rdi
	ret	0
??$inverse@M$0A@Utmat2x2@glm@@@glm@@YA?AU?$tmat2x2@M$0A@@0@AEBU10@@Z ENDP ; glm::inverse<float,0,glm::tmat2x2>
_TEXT	ENDS
; Function compile flags: /Odtp /RTCsu
; File C:\Users\ksart\OneDrive\Desktop\FlappyBird\libraries\external\glm\glm\detail\type_mat2x2.inl
;	COMDAT ??A?$tmat2x2@M$0A@@glm@@QEBAAEBU?$tvec2@M$0A@@1@H@Z
_TEXT	SEGMENT
this$ = 48
i$ = 56
??A?$tmat2x2@M$0A@@glm@@QEBAAEBU?$tvec2@M$0A@@1@H@Z PROC ; glm::tmat2x2<float,0>::operator[], COMDAT

; 166  : 	{

$LN4:
	mov	DWORD PTR [rsp+16], edx
	mov	QWORD PTR [rsp+8], rcx
	push	rdi
	sub	rsp, 32					; 00000020H

; 167  : 		assert(i < this->length());

	call	?length@?$tmat2x2@M$0A@@glm@@SAHXZ	; glm::tmat2x2<float,0>::length
	cmp	DWORD PTR i$[rsp], eax
	jl	SHORT $LN3@operator
	mov	r8d, 167				; 000000a7H
	lea	rdx, OFFSET FLAT:??_C@_1LK@KMFBDMLF@?$AAC?$AA?3?$AA?2?$AAU?$AAs?$AAe?$AAr?$AAs?$AA?2?$AAk?$AAs?$AAa?$AAr?$AAt?$AA?2@
	lea	rcx, OFFSET FLAT:??_C@_1CG@KOFHLCJL@?$AAi?$AA?5?$AA?$DM?$AA?5?$AAt?$AAh?$AAi?$AAs?$AA?9?$AA?$DO?$AAl?$AAe?$AAn?$AAg?$AAt@
	call	QWORD PTR __imp__wassert
	xor	eax, eax
$LN3@operator:

; 168  : 		return this->value[i];

	movsxd	rax, DWORD PTR i$[rsp]
	mov	rcx, QWORD PTR this$[rsp]
	lea	rax, QWORD PTR [rcx+rax*8]

; 169  : 	}

	add	rsp, 32					; 00000020H
	pop	rdi
	ret	0
??A?$tmat2x2@M$0A@@glm@@QEBAAEBU?$tvec2@M$0A@@1@H@Z ENDP ; glm::tmat2x2<float,0>::operator[]
_TEXT	ENDS
; Function compile flags: /Odtp /RTCsu
; File C:\Users\ksart\OneDrive\Desktop\FlappyBird\libraries\external\glm\glm\detail\type_mat2x2.hpp
;	COMDAT ?length@?$tmat2x2@M$0A@@glm@@SAHXZ
_TEXT	SEGMENT
?length@?$tmat2x2@M$0A@@glm@@SAHXZ PROC			; glm::tmat2x2<float,0>::length, COMDAT

; 72   : 		GLM_FUNC_DECL static length_type length(){return 2;}

$LN3:
	push	rdi
	mov	eax, 2
	pop	rdi
	ret	0
?length@?$tmat2x2@M$0A@@glm@@SAHXZ ENDP			; glm::tmat2x2<float,0>::length
_TEXT	ENDS
; Function compile flags: /Odtp /RTCsu
; File C:\Users\ksart\OneDrive\Desktop\FlappyBird\libraries\external\glm\glm\detail\type_mat2x2.inl
;	COMDAT ??0?$tmat2x2@M$0A@@glm@@QEAA@AEBU?$tmat3x3@M$0A@@1@@Z
_TEXT	SEGMENT
$T1 = 32
$T2 = 40
this$ = 64
m$ = 72
??0?$tmat2x2@M$0A@@glm@@QEAA@AEBU?$tmat3x3@M$0A@@1@@Z PROC ; glm::tmat2x2<float,0>::tmat2x2<float,0>, COMDAT

; 101  : 	{

$LN3:
	mov	QWORD PTR [rsp+16], rdx
	mov	QWORD PTR [rsp+8], rcx
	push	rdi
	sub	rsp, 48					; 00000030H
	mov	rax, QWORD PTR this$[rsp]
	lea	r9, OFFSET FLAT:??0?$tvec2@M$0A@@glm@@QEAA@XZ ; glm::tvec2<float,0>::tvec2<float,0>
	mov	r8d, 2
	mov	edx, 8
	mov	rcx, rax
	call	??_H@YAXPEAX_K1P6APEAX0@Z@Z

; 102  : 		this->value[0] = col_type(m[0]);

	xor	edx, edx
	mov	rcx, QWORD PTR m$[rsp]
	call	??A?$tmat3x3@M$0A@@glm@@QEBAAEBU?$tvec3@M$0A@@1@H@Z ; glm::tmat3x3<float,0>::operator[]
	mov	rdx, rax
	lea	rcx, QWORD PTR $T1[rsp]
	call	??$?0M$0A@@?$tvec2@M$0A@@glm@@QEAA@AEBU?$tvec3@M$0A@@1@@Z ; glm::tvec2<float,0>::tvec2<float,0><float,0>
	mov	rax, QWORD PTR [rax]
	mov	ecx, 8
	imul	rcx, rcx, 0
	mov	rdx, QWORD PTR this$[rsp]
	mov	QWORD PTR [rdx+rcx], rax

; 103  : 		this->value[1] = col_type(m[1]);

	mov	edx, 1
	mov	rcx, QWORD PTR m$[rsp]
	call	??A?$tmat3x3@M$0A@@glm@@QEBAAEBU?$tvec3@M$0A@@1@H@Z ; glm::tmat3x3<float,0>::operator[]
	mov	rdx, rax
	lea	rcx, QWORD PTR $T2[rsp]
	call	??$?0M$0A@@?$tvec2@M$0A@@glm@@QEAA@AEBU?$tvec3@M$0A@@1@@Z ; glm::tvec2<float,0>::tvec2<float,0><float,0>
	mov	rax, QWORD PTR [rax]
	mov	ecx, 8
	imul	rcx, rcx, 1
	mov	rdx, QWORD PTR this$[rsp]
	mov	QWORD PTR [rdx+rcx], rax

; 104  : 	}

	mov	rax, QWORD PTR this$[rsp]
	add	rsp, 48					; 00000030H
	pop	rdi
	ret	0
??0?$tmat2x2@M$0A@@glm@@QEAA@AEBU?$tmat3x3@M$0A@@1@@Z ENDP ; glm::tmat2x2<float,0>::tmat2x2<float,0>
_TEXT	ENDS
; Function compile flags: /Odtp /RTCsu
; File C:\Users\ksart\OneDrive\Desktop\FlappyBird\libraries\external\glm\glm\detail\type_mat2x2.inl
;	COMDAT ??0?$tmat2x2@M$0A@@glm@@QEAA@AEBU?$tvec2@M$0A@@1@0@Z
_TEXT	SEGMENT
this$ = 48
v0$ = 56
v1$ = 64
??0?$tmat2x2@M$0A@@glm@@QEAA@AEBU?$tvec2@M$0A@@1@0@Z PROC ; glm::tmat2x2<float,0>::tmat2x2<float,0>, COMDAT

; 62   : 	{

$LN3:
	mov	QWORD PTR [rsp+24], r8
	mov	QWORD PTR [rsp+16], rdx
	mov	QWORD PTR [rsp+8], rcx
	push	rdi
	sub	rsp, 32					; 00000020H
	mov	rax, QWORD PTR this$[rsp]
	lea	r9, OFFSET FLAT:??0?$tvec2@M$0A@@glm@@QEAA@XZ ; glm::tvec2<float,0>::tvec2<float,0>
	mov	r8d, 2
	mov	edx, 8
	mov	rcx, rax
	call	??_H@YAXPEAX_K1P6APEAX0@Z@Z

; 63   : 		this->value[0] = v0;

	mov	rax, QWORD PTR v0$[rsp]
	mov	rax, QWORD PTR [rax]
	mov	ecx, 8
	imul	rcx, rcx, 0
	mov	rdx, QWORD PTR this$[rsp]
	mov	QWORD PTR [rdx+rcx], rax

; 64   : 		this->value[1] = v1;

	mov	rax, QWORD PTR v1$[rsp]
	mov	rax, QWORD PTR [rax]
	mov	ecx, 8
	imul	rcx, rcx, 1
	mov	rdx, QWORD PTR this$[rsp]
	mov	QWORD PTR [rdx+rcx], rax

; 65   : 	}

	mov	rax, QWORD PTR this$[rsp]
	add	rsp, 32					; 00000020H
	pop	rdi
	ret	0
??0?$tmat2x2@M$0A@@glm@@QEAA@AEBU?$tvec2@M$0A@@1@0@Z ENDP ; glm::tmat2x2<float,0>::tmat2x2<float,0>
_TEXT	ENDS
; Function compile flags: /Odtp /RTCsu
; File C:\Users\ksart\OneDrive\Desktop\FlappyBird\libraries\external\glm\glm\detail\type_mat2x2.inl
;	COMDAT ??0?$tmat2x2@M$0A@@glm@@QEAA@AEBM000@Z
_TEXT	SEGMENT
$T1 = 32
$T2 = 40
this$ = 64
x0$ = 72
y0$ = 80
x1$ = 88
y1$ = 96
??0?$tmat2x2@M$0A@@glm@@QEAA@AEBM000@Z PROC		; glm::tmat2x2<float,0>::tmat2x2<float,0>, COMDAT

; 55   : 	{

$LN3:
	mov	QWORD PTR [rsp+32], r9
	mov	QWORD PTR [rsp+24], r8
	mov	QWORD PTR [rsp+16], rdx
	mov	QWORD PTR [rsp+8], rcx
	push	rdi
	sub	rsp, 48					; 00000030H
	mov	rax, QWORD PTR this$[rsp]
	lea	r9, OFFSET FLAT:??0?$tvec2@M$0A@@glm@@QEAA@XZ ; glm::tvec2<float,0>::tvec2<float,0>
	mov	r8d, 2
	mov	edx, 8
	mov	rcx, rax
	call	??_H@YAXPEAX_K1P6APEAX0@Z@Z

; 56   : 		this->value[0] = col_type(x0, y0);

	mov	rax, QWORD PTR y0$[rsp]
	movss	xmm2, DWORD PTR [rax]
	mov	rax, QWORD PTR x0$[rsp]
	movss	xmm1, DWORD PTR [rax]
	lea	rcx, QWORD PTR $T1[rsp]
	call	??0?$tvec2@M$0A@@glm@@QEAA@MM@Z		; glm::tvec2<float,0>::tvec2<float,0>
	mov	rax, QWORD PTR [rax]
	mov	ecx, 8
	imul	rcx, rcx, 0
	mov	rdx, QWORD PTR this$[rsp]
	mov	QWORD PTR [rdx+rcx], rax

; 57   : 		this->value[1] = col_type(x1, y1);

	mov	rax, QWORD PTR y1$[rsp]
	movss	xmm2, DWORD PTR [rax]
	mov	rax, QWORD PTR x1$[rsp]
	movss	xmm1, DWORD PTR [rax]
	lea	rcx, QWORD PTR $T2[rsp]
	call	??0?$tvec2@M$0A@@glm@@QEAA@MM@Z		; glm::tvec2<float,0>::tvec2<float,0>
	mov	rax, QWORD PTR [rax]
	mov	ecx, 8
	imul	rcx, rcx, 1
	mov	rdx, QWORD PTR this$[rsp]
	mov	QWORD PTR [rdx+rcx], rax

; 58   : 	}

	mov	rax, QWORD PTR this$[rsp]
	add	rsp, 48					; 00000030H
	pop	rdi
	ret	0
??0?$tmat2x2@M$0A@@glm@@QEAA@AEBM000@Z ENDP		; glm::tmat2x2<float,0>::tmat2x2<float,0>
_TEXT	ENDS
; Function compile flags: /Odtp /RTCsu
; File C:\Users\ksart\OneDrive\Desktop\FlappyBird\libraries\external\glm\glm\detail\type_vec2.inl
;	COMDAT ??0?$tvec2@M$0A@@glm@@QEAA@MM@Z
_TEXT	SEGMENT
this$ = 16
s1$ = 24
s2$ = 32
??0?$tvec2@M$0A@@glm@@QEAA@MM@Z PROC			; glm::tvec2<float,0>::tvec2<float,0>, COMDAT

; 57   : 	{}

$LN3:
	movss	DWORD PTR [rsp+24], xmm2
	movss	DWORD PTR [rsp+16], xmm1
	mov	QWORD PTR [rsp+8], rcx
	push	rdi

; 56   : 		: x(s1), y(s2)

	mov	rax, QWORD PTR this$[rsp]
	movss	xmm0, DWORD PTR s1$[rsp]
	movss	DWORD PTR [rax], xmm0
	mov	rax, QWORD PTR this$[rsp]
	movss	xmm0, DWORD PTR s2$[rsp]
	movss	DWORD PTR [rax+4], xmm0

; 57   : 	{}

	mov	rax, QWORD PTR this$[rsp]
	pop	rdi
	ret	0
??0?$tvec2@M$0A@@glm@@QEAA@MM@Z ENDP			; glm::tvec2<float,0>::tvec2<float,0>
_TEXT	ENDS
; Function compile flags: /Odtp /RTCsu
; File C:\Users\ksart\OneDrive\Desktop\FlappyBird\libraries\external\glm\glm\detail\type_vec2.inl
;	COMDAT ??0?$tvec2@M$0A@@glm@@QEAA@XZ
_TEXT	SEGMENT
this$ = 16
??0?$tvec2@M$0A@@glm@@QEAA@XZ PROC			; glm::tvec2<float,0>::tvec2<float,0>, COMDAT

; 27   : 		{}

$LN3:
	mov	QWORD PTR [rsp+8], rcx
	push	rdi

; 25   : 				: x(0), y(0)

	mov	rax, QWORD PTR this$[rsp]
	xorps	xmm0, xmm0
	movss	DWORD PTR [rax], xmm0
	mov	rax, QWORD PTR this$[rsp]
	xorps	xmm0, xmm0
	movss	DWORD PTR [rax+4], xmm0

; 27   : 		{}

	mov	rax, QWORD PTR this$[rsp]
	pop	rdi
	ret	0
??0?$tvec2@M$0A@@glm@@QEAA@XZ ENDP			; glm::tvec2<float,0>::tvec2<float,0>
_TEXT	ENDS
; Function compile flags: /Odtp /RTCsu
; File C:\Users\ksart\OneDrive\Desktop\FlappyBird\libraries\external\glm\glm\detail\type_vec2.inl
;	COMDAT ??A?$tvec2@M$0A@@glm@@QEBAAEBMH@Z
_TEXT	SEGMENT
this$ = 48
i$ = 56
??A?$tvec2@M$0A@@glm@@QEBAAEBMH@Z PROC			; glm::tvec2<float,0>::operator[], COMDAT

; 109  : 	{

$LN5:
	mov	DWORD PTR [rsp+16], edx
	mov	QWORD PTR [rsp+8], rcx
	push	rdi
	sub	rsp, 32					; 00000020H

; 110  : 		assert(i >= 0 && i < this->length());

	cmp	DWORD PTR i$[rsp], 0
	jl	SHORT $LN3@operator
	call	?length@?$tvec2@M$0A@@glm@@SAHXZ	; glm::tvec2<float,0>::length
	cmp	DWORD PTR i$[rsp], eax
	jl	SHORT $LN4@operator
$LN3@operator:
	mov	r8d, 110				; 0000006eH
	lea	rdx, OFFSET FLAT:??_C@_1LG@FPDAFGJN@?$AAC?$AA?3?$AA?2?$AAU?$AAs?$AAe?$AAr?$AAs?$AA?2?$AAk?$AAs?$AAa?$AAr?$AAt?$AA?2@
	lea	rcx, OFFSET FLAT:??_C@_1DK@BGNCJAPL@?$AAi?$AA?5?$AA?$DO?$AA?$DN?$AA?5?$AA0?$AA?5?$AA?$CG?$AA?$CG?$AA?5?$AAi?$AA?5?$AA?$DM?$AA?5?$AAt@
	call	QWORD PTR __imp__wassert
	xor	eax, eax
$LN4@operator:

; 111  : 		return (&x)[i];

	movsxd	rax, DWORD PTR i$[rsp]
	mov	rcx, QWORD PTR this$[rsp]
	lea	rax, QWORD PTR [rcx+rax*4]

; 112  : 	}

	add	rsp, 32					; 00000020H
	pop	rdi
	ret	0
??A?$tvec2@M$0A@@glm@@QEBAAEBMH@Z ENDP			; glm::tvec2<float,0>::operator[]
_TEXT	ENDS
; Function compile flags: /Odtp /RTCsu
; File C:\Users\ksart\OneDrive\Desktop\FlappyBird\libraries\external\glm\glm\detail\type_vec2.hpp
;	COMDAT ?length@?$tvec2@M$0A@@glm@@SAHXZ
_TEXT	SEGMENT
?length@?$tvec2@M$0A@@glm@@SAHXZ PROC			; glm::tvec2<float,0>::length, COMDAT

; 82   : 		GLM_FUNC_DECL static length_type length(){return 2;}

$LN3:
	push	rdi
	mov	eax, 2
	pop	rdi
	ret	0
?length@?$tvec2@M$0A@@glm@@SAHXZ ENDP			; glm::tvec2<float,0>::length
_TEXT	ENDS
; Function compile flags: /Odtp /RTCsu
; File C:\Users\ksart\OneDrive\Desktop\FlappyBird\libraries\external\glm\glm\detail\func_common.inl
;	COMDAT ?call@?$compute_abs@M$00@detail@glm@@SAMM@Z
_TEXT	SEGMENT
tv66 = 16
x$ = 48
?call@?$compute_abs@M$00@detail@glm@@SAMM@Z PROC	; glm::detail::compute_abs<float,1>::call, COMDAT

; 77   : 		{

$LN5:
	movss	DWORD PTR [rsp+8], xmm0
	push	rdi
	sub	rsp, 32					; 00000020H

; 78   : 			GLM_STATIC_ASSERT(
; 79   : 				std::numeric_limits<genFIType>::is_iec559 || std::numeric_limits<genFIType>::is_signed || GLM_UNRESTRICTED_GENTYPE,
; 80   : 				"'abs' only accept floating-point and integer scalar or vector inputs");
; 81   : 
; 82   : 			return x >= genFIType(0) ? x : -x;

	movss	xmm0, DWORD PTR x$[rsp]
	comiss	xmm0, DWORD PTR __real@00000000
	jb	SHORT $LN3@call
	movss	xmm0, DWORD PTR x$[rsp]
	movss	DWORD PTR tv66[rsp], xmm0
	jmp	SHORT $LN4@call
$LN3@call:
	movss	xmm0, DWORD PTR x$[rsp]
	xorps	xmm0, DWORD PTR __xmm@80000000800000008000000080000000
	movss	DWORD PTR tv66[rsp], xmm0
$LN4@call:
	movss	xmm0, DWORD PTR tv66[rsp]

; 83   : 			// TODO, perf comp with: *(((int *) &x) + 1) &= 0x7fffffff;
; 84   : 		}

	add	rsp, 32					; 00000020H
	pop	rdi
	ret	0
?call@?$compute_abs@M$00@detail@glm@@SAMM@Z ENDP	; glm::detail::compute_abs<float,1>::call
_TEXT	ENDS
; Function compile flags: /Odtp /RTCsu
; File C:\Users\ksart\OneDrive\Desktop\FlappyBird\libraries\external\glm\test\gtc\gtc_matrix_inverse.cpp
_TEXT	SEGMENT
Error$ = 32
main	PROC

; 45   : {

$LN3:
	push	rdi
	sub	rsp, 48					; 00000030H

; 46   : 	int Error = 0;

	mov	DWORD PTR Error$[rsp], 0

; 47   : 
; 48   : 	Error += test_affine();

	call	?test_affine@@YAHXZ			; test_affine
	mov	ecx, DWORD PTR Error$[rsp]
	add	ecx, eax
	mov	eax, ecx
	mov	DWORD PTR Error$[rsp], eax

; 49   : 
; 50   : 	return Error;

	mov	eax, DWORD PTR Error$[rsp]

; 51   : }

	add	rsp, 48					; 00000030H
	pop	rdi
	ret	0
main	ENDP
_TEXT	ENDS
; Function compile flags: /Odtp /RTCsu
; File C:\Users\ksart\OneDrive\Desktop\FlappyBird\libraries\external\glm\glm\detail\func_vector_relational.inl
;	COMDAT ??$all@$0A@Utvec4@glm@@@glm@@YA_NAEBU?$tvec4@_N$0A@@0@@Z
_TEXT	SEGMENT
Result$ = 32
i$1 = 36
tv74 = 40
v$ = 64
??$all@$0A@Utvec4@glm@@@glm@@YA_NAEBU?$tvec4@_N$0A@@0@@Z PROC ; glm::all<0,glm::tvec4>, COMDAT

; 86   : 	{

$LN8:
	mov	QWORD PTR [rsp+8], rcx
	push	rdi
	sub	rsp, 48					; 00000030H

; 87   : 		bool Result = true;

	mov	BYTE PTR Result$[rsp], 1

; 88   : 		for(length_t i = 0; i < v.length(); ++i)

	mov	DWORD PTR i$1[rsp], 0
	jmp	SHORT $LN4@all
$LN2@all:
	mov	eax, DWORD PTR i$1[rsp]
	inc	eax
	mov	DWORD PTR i$1[rsp], eax
$LN4@all:
	call	?length@?$tvec4@_N$0A@@glm@@SAHXZ	; glm::tvec4<bool,0>::length
	cmp	DWORD PTR i$1[rsp], eax
	jge	SHORT $LN3@all

; 89   : 			Result = Result && v[i];

	movzx	eax, BYTE PTR Result$[rsp]
	test	eax, eax
	je	SHORT $LN6@all
	mov	edx, DWORD PTR i$1[rsp]
	mov	rcx, QWORD PTR v$[rsp]
	call	??A?$tvec4@_N$0A@@glm@@QEBAAEB_NH@Z	; glm::tvec4<bool,0>::operator[]
	movzx	eax, BYTE PTR [rax]
	test	eax, eax
	je	SHORT $LN6@all
	mov	DWORD PTR tv74[rsp], 1
	jmp	SHORT $LN7@all
$LN6@all:
	mov	DWORD PTR tv74[rsp], 0
$LN7@all:
	movzx	eax, BYTE PTR tv74[rsp]
	mov	BYTE PTR Result$[rsp], al
	jmp	SHORT $LN2@all
$LN3@all:

; 90   : 		return Result;

	movzx	eax, BYTE PTR Result$[rsp]

; 91   : 	}

	add	rsp, 48					; 00000030H
	pop	rdi
	ret	0
??$all@$0A@Utvec4@glm@@@glm@@YA_NAEBU?$tvec4@_N$0A@@0@@Z ENDP ; glm::all<0,glm::tvec4>
_TEXT	ENDS
; Function compile flags: /Odtp /RTCsu
; File C:\Users\ksart\OneDrive\Desktop\FlappyBird\libraries\external\glm\glm\detail\type_vec4.inl
;	COMDAT ??0?$tvec4@_N$0A@@glm@@QEAA@W4ctor@1@@Z
_TEXT	SEGMENT
this$ = 16
__formal$ = 24
??0?$tvec4@_N$0A@@glm@@QEAA@W4ctor@1@@Z PROC		; glm::tvec4<bool,0>::tvec4<bool,0>, COMDAT

; 183  : 	{}

$LN3:
	mov	DWORD PTR [rsp+16], edx
	mov	QWORD PTR [rsp+8], rcx
	push	rdi
	mov	rax, QWORD PTR this$[rsp]
	pop	rdi
	ret	0
??0?$tvec4@_N$0A@@glm@@QEAA@W4ctor@1@@Z ENDP		; glm::tvec4<bool,0>::tvec4<bool,0>
_TEXT	ENDS
; Function compile flags: /Odtp /RTCsu
; File C:\Users\ksart\OneDrive\Desktop\FlappyBird\libraries\external\glm\glm\detail\type_vec4.inl
;	COMDAT ??A?$tvec4@_N$0A@@glm@@QEBAAEB_NH@Z
_TEXT	SEGMENT
this$ = 48
i$ = 56
??A?$tvec4@_N$0A@@glm@@QEBAAEB_NH@Z PROC		; glm::tvec4<bool,0>::operator[], COMDAT

; 336  : 	{

$LN5:
	mov	DWORD PTR [rsp+16], edx
	mov	QWORD PTR [rsp+8], rcx
	push	rdi
	sub	rsp, 32					; 00000020H

; 337  : 		assert(i >= 0 && i < this->length());

	cmp	DWORD PTR i$[rsp], 0
	jl	SHORT $LN3@operator
	call	?length@?$tvec4@_N$0A@@glm@@SAHXZ	; glm::tvec4<bool,0>::length
	cmp	DWORD PTR i$[rsp], eax
	jl	SHORT $LN4@operator
$LN3@operator:
	mov	r8d, 337				; 00000151H
	lea	rdx, OFFSET FLAT:??_C@_1LG@LAANPDHN@?$AAC?$AA?3?$AA?2?$AAU?$AAs?$AAe?$AAr?$AAs?$AA?2?$AAk?$AAs?$AAa?$AAr?$AAt?$AA?2@
	lea	rcx, OFFSET FLAT:??_C@_1DK@BGNCJAPL@?$AAi?$AA?5?$AA?$DO?$AA?$DN?$AA?5?$AA0?$AA?5?$AA?$CG?$AA?$CG?$AA?5?$AAi?$AA?5?$AA?$DM?$AA?5?$AAt@
	call	QWORD PTR __imp__wassert
	xor	eax, eax
$LN4@operator:

; 338  : 		return (&x)[i];

	movsxd	rax, DWORD PTR i$[rsp]
	mov	rcx, QWORD PTR this$[rsp]
	add	rcx, rax
	mov	rax, rcx

; 339  : 	}

	add	rsp, 32					; 00000020H
	pop	rdi
	ret	0
??A?$tvec4@_N$0A@@glm@@QEBAAEB_NH@Z ENDP		; glm::tvec4<bool,0>::operator[]
_TEXT	ENDS
; Function compile flags: /Odtp /RTCsu
; File C:\Users\ksart\OneDrive\Desktop\FlappyBird\libraries\external\glm\glm\detail\type_vec4.inl
;	COMDAT ??A?$tvec4@_N$0A@@glm@@QEAAAEA_NH@Z
_TEXT	SEGMENT
this$ = 48
i$ = 56
??A?$tvec4@_N$0A@@glm@@QEAAAEA_NH@Z PROC		; glm::tvec4<bool,0>::operator[], COMDAT

; 329  : 	{

$LN5:
	mov	DWORD PTR [rsp+16], edx
	mov	QWORD PTR [rsp+8], rcx
	push	rdi
	sub	rsp, 32					; 00000020H

; 330  : 		assert(i >= 0 && i < this->length());

	cmp	DWORD PTR i$[rsp], 0
	jl	SHORT $LN3@operator
	call	?length@?$tvec4@_N$0A@@glm@@SAHXZ	; glm::tvec4<bool,0>::length
	cmp	DWORD PTR i$[rsp], eax
	jl	SHORT $LN4@operator
$LN3@operator:
	mov	r8d, 330				; 0000014aH
	lea	rdx, OFFSET FLAT:??_C@_1LG@LAANPDHN@?$AAC?$AA?3?$AA?2?$AAU?$AAs?$AAe?$AAr?$AAs?$AA?2?$AAk?$AAs?$AAa?$AAr?$AAt?$AA?2@
	lea	rcx, OFFSET FLAT:??_C@_1DK@BGNCJAPL@?$AAi?$AA?5?$AA?$DO?$AA?$DN?$AA?5?$AA0?$AA?5?$AA?$CG?$AA?$CG?$AA?5?$AAi?$AA?5?$AA?$DM?$AA?5?$AAt@
	call	QWORD PTR __imp__wassert
	xor	eax, eax
$LN4@operator:

; 331  : 		return (&x)[i];

	movsxd	rax, DWORD PTR i$[rsp]
	mov	rcx, QWORD PTR this$[rsp]
	add	rcx, rax
	mov	rax, rcx

; 332  : 	}

	add	rsp, 32					; 00000020H
	pop	rdi
	ret	0
??A?$tvec4@_N$0A@@glm@@QEAAAEA_NH@Z ENDP		; glm::tvec4<bool,0>::operator[]
_TEXT	ENDS
; Function compile flags: /Odtp /RTCsu
; File C:\Users\ksart\OneDrive\Desktop\FlappyBird\libraries\external\glm\glm\detail\type_vec4.hpp
;	COMDAT ?length@?$tvec4@_N$0A@@glm@@SAHXZ
_TEXT	SEGMENT
?length@?$tvec4@_N$0A@@glm@@SAHXZ PROC			; glm::tvec4<bool,0>::length, COMDAT

; 85   : 		GLM_FUNC_DECL static length_type length(){return 4;}

$LN3:
	push	rdi
	mov	eax, 4
	pop	rdi
	ret	0
?length@?$tvec4@_N$0A@@glm@@SAHXZ ENDP			; glm::tvec4<bool,0>::length
_TEXT	ENDS
; Function compile flags: /Odtp /RTCsu
; File C:\Users\ksart\OneDrive\Desktop\FlappyBird\libraries\external\glm\glm\gtc\epsilon.inl
;	COMDAT ??$epsilonEqual@M$0A@Utvec4@glm@@@glm@@YA?AU?$tvec4@_N$0A@@0@AEBU?$tvec4@M$0A@@0@0AEBM@Z
_TEXT	SEGMENT
$T1 = 32
$T2 = 48
$T3 = 64
tv66 = 80
__$ReturnUdt$ = 112
x$ = 120
y$ = 128
epsilon$ = 136
??$epsilonEqual@M$0A@Utvec4@glm@@@glm@@YA?AU?$tvec4@_N$0A@@0@AEBU?$tvec4@M$0A@@0@0AEBM@Z PROC ; glm::epsilonEqual<float,0,glm::tvec4>, COMDAT

; 65   : 	{

$LN3:
	mov	QWORD PTR [rsp+32], r9
	mov	QWORD PTR [rsp+24], r8
	mov	QWORD PTR [rsp+16], rdx
	mov	QWORD PTR [rsp+8], rcx
	push	rdi
	sub	rsp, 96					; 00000060H

; 66   : 		return lessThan(abs(x - y), vecType<T, P>(epsilon));

	mov	rax, QWORD PTR epsilon$[rsp]
	movss	xmm1, DWORD PTR [rax]
	lea	rcx, QWORD PTR $T1[rsp]
	call	??0?$tvec4@M$0A@@glm@@QEAA@M@Z		; glm::tvec4<float,0>::tvec4<float,0>
	mov	QWORD PTR tv66[rsp], rax
	mov	r8, QWORD PTR y$[rsp]
	mov	rdx, QWORD PTR x$[rsp]
	lea	rcx, QWORD PTR $T2[rsp]
	call	??$?GM$0A@@glm@@YA?AU?$tvec4@M$0A@@0@AEBU10@0@Z ; glm::operator-<float,0>
	mov	rdx, rax
	lea	rcx, QWORD PTR $T3[rsp]
	call	??$abs@M$0A@Utvec4@glm@@@glm@@YA?AU?$tvec4@M$0A@@0@AEBU10@@Z ; glm::abs<float,0,glm::tvec4>
	mov	rcx, QWORD PTR tv66[rsp]
	mov	r8, rcx
	mov	rdx, rax
	mov	rcx, QWORD PTR __$ReturnUdt$[rsp]
	call	??$lessThan@M$0A@Utvec4@glm@@@glm@@YA?AU?$tvec4@_N$0A@@0@AEBU?$tvec4@M$0A@@0@0@Z ; glm::lessThan<float,0,glm::tvec4>
	mov	rax, QWORD PTR __$ReturnUdt$[rsp]

; 67   : 	}

	add	rsp, 96					; 00000060H
	pop	rdi
	ret	0
??$epsilonEqual@M$0A@Utvec4@glm@@@glm@@YA?AU?$tvec4@_N$0A@@0@AEBU?$tvec4@M$0A@@0@0AEBM@Z ENDP ; glm::epsilonEqual<float,0,glm::tvec4>
_TEXT	ENDS
; Function compile flags: /Odtp /RTCsu
; File C:\Users\ksart\OneDrive\Desktop\FlappyBird\libraries\external\glm\glm\detail\func_matrix.inl
;	COMDAT ??$inverse@M$0A@Utmat4x4@glm@@@glm@@YA?AU?$tmat4x4@M$0A@@0@AEBU10@@Z
_TEXT	SEGMENT
__$ReturnUdt$ = 48
m$ = 56
??$inverse@M$0A@Utmat4x4@glm@@@glm@@YA?AU?$tmat4x4@M$0A@@0@AEBU10@@Z PROC ; glm::inverse<float,0,glm::tmat4x4>, COMDAT

; 392  : 	{

$LN3:
	mov	QWORD PTR [rsp+16], rdx
	mov	QWORD PTR [rsp+8], rcx
	push	rdi
	sub	rsp, 32					; 00000020H

; 393  : 		GLM_STATIC_ASSERT(std::numeric_limits<T>::is_iec559 || GLM_UNRESTRICTED_GENTYPE, "'inverse' only accept floating-point inputs");
; 394  : 		return detail::compute_inverse<matType, T, P, detail::is_aligned<P>::value>::call(m);

	mov	rdx, QWORD PTR m$[rsp]
	mov	rcx, QWORD PTR __$ReturnUdt$[rsp]
	call	?call@?$compute_inverse@Utmat4x4@glm@@M$0A@$0A@@detail@glm@@SA?AU?$tmat4x4@M$0A@@3@AEBU43@@Z ; glm::detail::compute_inverse<glm::tmat4x4,float,0,0>::call
	mov	rax, QWORD PTR __$ReturnUdt$[rsp]

; 395  : 	}

	add	rsp, 32					; 00000020H
	pop	rdi
	ret	0
??$inverse@M$0A@Utmat4x4@glm@@@glm@@YA?AU?$tmat4x4@M$0A@@0@AEBU10@@Z ENDP ; glm::inverse<float,0,glm::tmat4x4>
_TEXT	ENDS
; Function compile flags: /Odtp /RTCsu
; File C:\Users\ksart\OneDrive\Desktop\FlappyBird\libraries\external\glm\glm\gtc\matrix_inverse.inl
;	COMDAT ??$affineInverse@M$0A@@glm@@YA?AU?$tmat4x4@M$0A@@0@AEBU10@@Z
_TEXT	SEGMENT
$T4 = 48
Inv$ = 104
$T5 = 152
$T6 = 200
$T7 = 216
$T8 = 228
$T9 = 240
$T10 = 256
$T11 = 272
tv76 = 288
tv72 = 296
tv90 = 304
tv130 = 312
__$ArrayPad$ = 320
__$ReturnUdt$ = 352
m$ = 360
??$affineInverse@M$0A@@glm@@YA?AU?$tmat4x4@M$0A@@0@AEBU10@@Z PROC ; glm::affineInverse<float,0>, COMDAT

; 19   : 	{

$LN3:
	mov	QWORD PTR [rsp+16], rdx
	mov	QWORD PTR [rsp+8], rcx
	push	rdi
	sub	rsp, 336				; 00000150H
	lea	rdi, QWORD PTR [rsp+48]
	mov	ecx, 72					; 00000048H
	mov	eax, -858993460				; ccccccccH
	rep stosd
	mov	rcx, QWORD PTR [rsp+352]
	mov	rax, QWORD PTR __security_cookie
	xor	rax, rsp
	mov	QWORD PTR __$ArrayPad$[rsp], rax

; 20   : 		tmat3x3<T, P> const Inv(inverse(tmat3x3<T, P>(m)));

	mov	rdx, QWORD PTR m$[rsp]
	lea	rcx, QWORD PTR $T4[rsp]
	call	??0?$tmat3x3@M$0A@@glm@@QEAA@AEBU?$tmat4x4@M$0A@@1@@Z ; glm::tmat3x3<float,0>::tmat3x3<float,0>
	mov	rdx, rax
	lea	rcx, QWORD PTR Inv$[rsp]
	call	??$inverse@M$0A@Utmat3x3@glm@@@glm@@YA?AU?$tmat3x3@M$0A@@0@AEBU10@@Z ; glm::inverse<float,0,glm::tmat3x3>

; 21   : 
; 22   : 		return tmat4x4<T, P>(

	mov	edx, 3
	mov	rcx, QWORD PTR m$[rsp]
	call	??A?$tmat4x4@M$0A@@glm@@QEBAAEBU?$tvec4@M$0A@@1@H@Z ; glm::tmat4x4<float,0>::operator[]
	mov	rdx, rax
	lea	rcx, QWORD PTR $T7[rsp]
	call	??$?0M$0A@@?$tvec3@M$0A@@glm@@QEAA@AEBU?$tvec4@M$0A@@1@@Z ; glm::tvec3<float,0>::tvec3<float,0><float,0>
	mov	QWORD PTR tv76[rsp], rax
	lea	rdx, QWORD PTR Inv$[rsp]
	lea	rcx, QWORD PTR $T5[rsp]
	call	??$?GM$0A@@glm@@YA?AU?$tmat3x3@M$0A@@0@AEBU10@@Z ; glm::operator-<float,0>
	mov	rcx, QWORD PTR tv76[rsp]
	mov	r8, rcx
	mov	rdx, rax
	lea	rcx, QWORD PTR $T8[rsp]
	call	??$?DM$0A@@glm@@YA?AU?$tvec3@M$0A@@0@AEBU?$tmat3x3@M$0A@@0@AEBU10@@Z ; glm::operator*<float,0>
	movss	xmm2, DWORD PTR __real@3f800000
	mov	rdx, rax
	lea	rcx, QWORD PTR $T6[rsp]
	call	??$?0MM$0A@@?$tvec4@M$0A@@glm@@QEAA@AEBU?$tvec3@M$0A@@1@M@Z ; glm::tvec4<float,0>::tvec4<float,0><float,float,0>
	mov	QWORD PTR tv72[rsp], rax
	mov	edx, 2
	lea	rcx, QWORD PTR Inv$[rsp]
	call	??A?$tmat3x3@M$0A@@glm@@QEBAAEBU?$tvec3@M$0A@@1@H@Z ; glm::tmat3x3<float,0>::operator[]
	xorps	xmm2, xmm2
	mov	rdx, rax
	lea	rcx, QWORD PTR $T9[rsp]
	call	??$?0MM$0A@@?$tvec4@M$0A@@glm@@QEAA@AEBU?$tvec3@M$0A@@1@M@Z ; glm::tvec4<float,0>::tvec4<float,0><float,float,0>
	mov	QWORD PTR tv90[rsp], rax
	mov	edx, 1
	lea	rcx, QWORD PTR Inv$[rsp]
	call	??A?$tmat3x3@M$0A@@glm@@QEBAAEBU?$tvec3@M$0A@@1@H@Z ; glm::tmat3x3<float,0>::operator[]
	xorps	xmm2, xmm2
	mov	rdx, rax
	lea	rcx, QWORD PTR $T10[rsp]
	call	??$?0MM$0A@@?$tvec4@M$0A@@glm@@QEAA@AEBU?$tvec3@M$0A@@1@M@Z ; glm::tvec4<float,0>::tvec4<float,0><float,float,0>
	mov	QWORD PTR tv130[rsp], rax
	xor	edx, edx
	lea	rcx, QWORD PTR Inv$[rsp]
	call	??A?$tmat3x3@M$0A@@glm@@QEBAAEBU?$tvec3@M$0A@@1@H@Z ; glm::tmat3x3<float,0>::operator[]
	xorps	xmm2, xmm2
	mov	rdx, rax
	lea	rcx, QWORD PTR $T11[rsp]
	call	??$?0MM$0A@@?$tvec4@M$0A@@glm@@QEAA@AEBU?$tvec3@M$0A@@1@M@Z ; glm::tvec4<float,0>::tvec4<float,0><float,float,0>
	mov	rcx, QWORD PTR tv72[rsp]
	mov	QWORD PTR [rsp+32], rcx
	mov	rcx, QWORD PTR tv90[rsp]
	mov	r9, rcx
	mov	rcx, QWORD PTR tv130[rsp]
	mov	r8, rcx
	mov	rdx, rax
	mov	rcx, QWORD PTR __$ReturnUdt$[rsp]
	call	??0?$tmat4x4@M$0A@@glm@@QEAA@AEBU?$tvec4@M$0A@@1@000@Z ; glm::tmat4x4<float,0>::tmat4x4<float,0>
	mov	rax, QWORD PTR __$ReturnUdt$[rsp]

; 23   : 			tvec4<T, P>(Inv[0], static_cast<T>(0)),
; 24   : 			tvec4<T, P>(Inv[1], static_cast<T>(0)),
; 25   : 			tvec4<T, P>(Inv[2], static_cast<T>(0)),
; 26   : 			tvec4<T, P>(-Inv * tvec3<T, P>(m[3]), static_cast<T>(1)));
; 27   : 	}

	mov	rdi, rax
	mov	rcx, rsp
	lea	rdx, OFFSET FLAT:??$affineInverse@M$0A@@glm@@YA?AU?$tmat4x4@M$0A@@0@AEBU10@@Z$rtcFrameData
	call	_RTC_CheckStackVars
	mov	rax, rdi
	mov	rcx, QWORD PTR __$ArrayPad$[rsp]
	xor	rcx, rsp
	call	__security_check_cookie
	add	rsp, 336				; 00000150H
	pop	rdi
	ret	0
??$affineInverse@M$0A@@glm@@YA?AU?$tmat4x4@M$0A@@0@AEBU10@@Z ENDP ; glm::affineInverse<float,0>
_TEXT	ENDS
; Function compile flags: /Odtp /RTCsu
; File C:\Users\ksart\OneDrive\Desktop\FlappyBird\libraries\external\glm\glm\detail\type_mat4x4.inl
;	COMDAT ??A?$tmat4x4@M$0A@@glm@@QEBAAEBU?$tvec4@M$0A@@1@H@Z
_TEXT	SEGMENT
this$ = 48
i$ = 56
??A?$tmat4x4@M$0A@@glm@@QEBAAEBU?$tvec4@M$0A@@1@H@Z PROC ; glm::tmat4x4<float,0>::operator[], COMDAT

; 248  : 	{

$LN4:
	mov	DWORD PTR [rsp+16], edx
	mov	QWORD PTR [rsp+8], rcx
	push	rdi
	sub	rsp, 32					; 00000020H

; 249  : 		assert(i < this->length());

	call	?length@?$tmat4x4@M$0A@@glm@@SAHXZ	; glm::tmat4x4<float,0>::length
	cmp	DWORD PTR i$[rsp], eax
	jl	SHORT $LN3@operator
	mov	r8d, 249				; 000000f9H
	lea	rdx, OFFSET FLAT:??_C@_1LK@BAPNPALB@?$AAC?$AA?3?$AA?2?$AAU?$AAs?$AAe?$AAr?$AAs?$AA?2?$AAk?$AAs?$AAa?$AAr?$AAt?$AA?2@
	lea	rcx, OFFSET FLAT:??_C@_1CG@KOFHLCJL@?$AAi?$AA?5?$AA?$DM?$AA?5?$AAt?$AAh?$AAi?$AAs?$AA?9?$AA?$DO?$AAl?$AAe?$AAn?$AAg?$AAt@
	call	QWORD PTR __imp__wassert
	xor	eax, eax
$LN3@operator:

; 250  : 		return this->value[i];

	movsxd	rax, DWORD PTR i$[rsp]
	imul	rax, rax, 16
	mov	rcx, QWORD PTR this$[rsp]
	add	rcx, rax
	mov	rax, rcx

; 251  : 	}

	add	rsp, 32					; 00000020H
	pop	rdi
	ret	0
??A?$tmat4x4@M$0A@@glm@@QEBAAEBU?$tvec4@M$0A@@1@H@Z ENDP ; glm::tmat4x4<float,0>::operator[]
_TEXT	ENDS
; Function compile flags: /Odtp /RTCsu
; File C:\Users\ksart\OneDrive\Desktop\FlappyBird\libraries\external\glm\glm\detail\type_mat4x4.inl
;	COMDAT ??A?$tmat4x4@M$0A@@glm@@QEAAAEAU?$tvec4@M$0A@@1@H@Z
_TEXT	SEGMENT
this$ = 48
i$ = 56
??A?$tmat4x4@M$0A@@glm@@QEAAAEAU?$tvec4@M$0A@@1@H@Z PROC ; glm::tmat4x4<float,0>::operator[], COMDAT

; 241  : 	{

$LN4:
	mov	DWORD PTR [rsp+16], edx
	mov	QWORD PTR [rsp+8], rcx
	push	rdi
	sub	rsp, 32					; 00000020H

; 242  : 		assert(i < this->length());

	call	?length@?$tmat4x4@M$0A@@glm@@SAHXZ	; glm::tmat4x4<float,0>::length
	cmp	DWORD PTR i$[rsp], eax
	jl	SHORT $LN3@operator
	mov	r8d, 242				; 000000f2H
	lea	rdx, OFFSET FLAT:??_C@_1LK@BAPNPALB@?$AAC?$AA?3?$AA?2?$AAU?$AAs?$AAe?$AAr?$AAs?$AA?2?$AAk?$AAs?$AAa?$AAr?$AAt?$AA?2@
	lea	rcx, OFFSET FLAT:??_C@_1CG@KOFHLCJL@?$AAi?$AA?5?$AA?$DM?$AA?5?$AAt?$AAh?$AAi?$AAs?$AA?9?$AA?$DO?$AAl?$AAe?$AAn?$AAg?$AAt@
	call	QWORD PTR __imp__wassert
	xor	eax, eax
$LN3@operator:

; 243  : 		return this->value[i];

	movsxd	rax, DWORD PTR i$[rsp]
	imul	rax, rax, 16
	mov	rcx, QWORD PTR this$[rsp]
	add	rcx, rax
	mov	rax, rcx

; 244  : 	}

	add	rsp, 32					; 00000020H
	pop	rdi
	ret	0
??A?$tmat4x4@M$0A@@glm@@QEAAAEAU?$tvec4@M$0A@@1@H@Z ENDP ; glm::tmat4x4<float,0>::operator[]
_TEXT	ENDS
; Function compile flags: /Odtp /RTCsu
; File C:\Users\ksart\OneDrive\Desktop\FlappyBird\libraries\external\glm\glm\detail\type_mat4x4.hpp
;	COMDAT ?length@?$tmat4x4@M$0A@@glm@@SAHXZ
_TEXT	SEGMENT
?length@?$tmat4x4@M$0A@@glm@@SAHXZ PROC			; glm::tmat4x4<float,0>::length, COMDAT

; 84   : 		GLM_FUNC_DECL static length_type length(){return 4;}

$LN3:
	push	rdi
	mov	eax, 4
	pop	rdi
	ret	0
?length@?$tmat4x4@M$0A@@glm@@SAHXZ ENDP			; glm::tmat4x4<float,0>::length
_TEXT	ENDS
; Function compile flags: /Odtp /RTCsu
; File C:\Users\ksart\OneDrive\Desktop\FlappyBird\libraries\external\glm\glm\detail\type_mat4x4.inl
;	COMDAT ??0?$tmat4x4@M$0A@@glm@@QEAA@AEBU?$tvec4@M$0A@@1@000@Z
_TEXT	SEGMENT
this$ = 64
v0$ = 72
v1$ = 80
v2$ = 88
v3$ = 96
??0?$tmat4x4@M$0A@@glm@@QEAA@AEBU?$tvec4@M$0A@@1@000@Z PROC ; glm::tmat4x4<float,0>::tmat4x4<float,0>, COMDAT

; 80   : 	{

$LN3:
	mov	QWORD PTR [rsp+32], r9
	mov	QWORD PTR [rsp+24], r8
	mov	QWORD PTR [rsp+16], rdx
	mov	QWORD PTR [rsp+8], rcx
	push	rsi
	push	rdi
	sub	rsp, 40					; 00000028H
	mov	rax, QWORD PTR this$[rsp]
	lea	r9, OFFSET FLAT:??0?$tvec4@M$0A@@glm@@QEAA@XZ ; glm::tvec4<float,0>::tvec4<float,0>
	mov	r8d, 4
	mov	edx, 16
	mov	rcx, rax
	call	??_H@YAXPEAX_K1P6APEAX0@Z@Z

; 81   : 		this->value[0] = v0;

	mov	eax, 16
	imul	rax, rax, 0
	mov	rcx, QWORD PTR this$[rsp]
	lea	rdi, QWORD PTR [rcx+rax]
	mov	rsi, QWORD PTR v0$[rsp]
	mov	ecx, 16
	rep movsb

; 82   : 		this->value[1] = v1;

	mov	eax, 16
	imul	rax, rax, 1
	mov	rcx, QWORD PTR this$[rsp]
	lea	rdi, QWORD PTR [rcx+rax]
	mov	rsi, QWORD PTR v1$[rsp]
	mov	ecx, 16
	rep movsb

; 83   : 		this->value[2] = v2;

	mov	eax, 16
	imul	rax, rax, 2
	mov	rcx, QWORD PTR this$[rsp]
	lea	rdi, QWORD PTR [rcx+rax]
	mov	rsi, QWORD PTR v2$[rsp]
	mov	ecx, 16
	rep movsb

; 84   : 		this->value[3] = v3;

	mov	eax, 16
	imul	rax, rax, 3
	mov	rcx, QWORD PTR this$[rsp]
	lea	rdi, QWORD PTR [rcx+rax]
	mov	rsi, QWORD PTR v3$[rsp]
	mov	ecx, 16
	rep movsb

; 85   : 	}

	mov	rax, QWORD PTR this$[rsp]
	add	rsp, 40					; 00000028H
	pop	rdi
	pop	rsi
	ret	0
??0?$tmat4x4@M$0A@@glm@@QEAA@AEBU?$tvec4@M$0A@@1@000@Z ENDP ; glm::tmat4x4<float,0>::tmat4x4<float,0>
_TEXT	ENDS
; Function compile flags: /Odtp /RTCsu
; File C:\Users\ksart\OneDrive\Desktop\FlappyBird\libraries\external\glm\glm\detail\type_mat4x4.inl
;	COMDAT ??0?$tmat4x4@M$0A@@glm@@QEAA@AEBM000000000000000@Z
_TEXT	SEGMENT
$T1 = 48
$T2 = 64
$T3 = 80
$T4 = 96
this$ = 144
x0$ = 152
y0$ = 160
z0$ = 168
w0$ = 176
x1$ = 184
y1$ = 192
z1$ = 200
w1$ = 208
x2$ = 216
y2$ = 224
z2$ = 232
w2$ = 240
x3$ = 248
y3$ = 256
z3$ = 264
w3$ = 272
??0?$tmat4x4@M$0A@@glm@@QEAA@AEBM000000000000000@Z PROC	; glm::tmat4x4<float,0>::tmat4x4<float,0>, COMDAT

; 65   : 	{

$LN3:
	mov	QWORD PTR [rsp+32], r9
	mov	QWORD PTR [rsp+24], r8
	mov	QWORD PTR [rsp+16], rdx
	mov	QWORD PTR [rsp+8], rcx
	push	rsi
	push	rdi
	sub	rsp, 120				; 00000078H
	mov	rax, QWORD PTR this$[rsp]
	lea	r9, OFFSET FLAT:??0?$tvec4@M$0A@@glm@@QEAA@XZ ; glm::tvec4<float,0>::tvec4<float,0>
	mov	r8d, 4
	mov	edx, 16
	mov	rcx, rax
	call	??_H@YAXPEAX_K1P6APEAX0@Z@Z

; 66   : 		this->value[0] = col_type(x0, y0, z0, w0);

	mov	rax, QWORD PTR w0$[rsp]
	movss	xmm0, DWORD PTR [rax]
	movss	DWORD PTR [rsp+32], xmm0
	mov	rax, QWORD PTR z0$[rsp]
	movss	xmm3, DWORD PTR [rax]
	mov	rax, QWORD PTR y0$[rsp]
	movss	xmm2, DWORD PTR [rax]
	mov	rax, QWORD PTR x0$[rsp]
	movss	xmm1, DWORD PTR [rax]
	lea	rcx, QWORD PTR $T1[rsp]
	call	??0?$tvec4@M$0A@@glm@@QEAA@MMMM@Z	; glm::tvec4<float,0>::tvec4<float,0>
	mov	ecx, 16
	imul	rcx, rcx, 0
	mov	rdx, QWORD PTR this$[rsp]
	lea	rdi, QWORD PTR [rdx+rcx]
	mov	rsi, rax
	mov	ecx, 16
	rep movsb

; 67   : 		this->value[1] = col_type(x1, y1, z1, w1);

	mov	rax, QWORD PTR w1$[rsp]
	movss	xmm0, DWORD PTR [rax]
	movss	DWORD PTR [rsp+32], xmm0
	mov	rax, QWORD PTR z1$[rsp]
	movss	xmm3, DWORD PTR [rax]
	mov	rax, QWORD PTR y1$[rsp]
	movss	xmm2, DWORD PTR [rax]
	mov	rax, QWORD PTR x1$[rsp]
	movss	xmm1, DWORD PTR [rax]
	lea	rcx, QWORD PTR $T2[rsp]
	call	??0?$tvec4@M$0A@@glm@@QEAA@MMMM@Z	; glm::tvec4<float,0>::tvec4<float,0>
	mov	ecx, 16
	imul	rcx, rcx, 1
	mov	rdx, QWORD PTR this$[rsp]
	lea	rdi, QWORD PTR [rdx+rcx]
	mov	rsi, rax
	mov	ecx, 16
	rep movsb

; 68   : 		this->value[2] = col_type(x2, y2, z2, w2);

	mov	rax, QWORD PTR w2$[rsp]
	movss	xmm0, DWORD PTR [rax]
	movss	DWORD PTR [rsp+32], xmm0
	mov	rax, QWORD PTR z2$[rsp]
	movss	xmm3, DWORD PTR [rax]
	mov	rax, QWORD PTR y2$[rsp]
	movss	xmm2, DWORD PTR [rax]
	mov	rax, QWORD PTR x2$[rsp]
	movss	xmm1, DWORD PTR [rax]
	lea	rcx, QWORD PTR $T3[rsp]
	call	??0?$tvec4@M$0A@@glm@@QEAA@MMMM@Z	; glm::tvec4<float,0>::tvec4<float,0>
	mov	ecx, 16
	imul	rcx, rcx, 2
	mov	rdx, QWORD PTR this$[rsp]
	lea	rdi, QWORD PTR [rdx+rcx]
	mov	rsi, rax
	mov	ecx, 16
	rep movsb

; 69   : 		this->value[3] = col_type(x3, y3, z3, w3);

	mov	rax, QWORD PTR w3$[rsp]
	movss	xmm0, DWORD PTR [rax]
	movss	DWORD PTR [rsp+32], xmm0
	mov	rax, QWORD PTR z3$[rsp]
	movss	xmm3, DWORD PTR [rax]
	mov	rax, QWORD PTR y3$[rsp]
	movss	xmm2, DWORD PTR [rax]
	mov	rax, QWORD PTR x3$[rsp]
	movss	xmm1, DWORD PTR [rax]
	lea	rcx, QWORD PTR $T4[rsp]
	call	??0?$tvec4@M$0A@@glm@@QEAA@MMMM@Z	; glm::tvec4<float,0>::tvec4<float,0>
	mov	ecx, 16
	imul	rcx, rcx, 3
	mov	rdx, QWORD PTR this$[rsp]
	lea	rdi, QWORD PTR [rdx+rcx]
	mov	rsi, rax
	mov	ecx, 16
	rep movsb

; 70   : 	}

	mov	rax, QWORD PTR this$[rsp]
	add	rsp, 120				; 00000078H
	pop	rdi
	pop	rsi
	ret	0
??0?$tmat4x4@M$0A@@glm@@QEAA@AEBM000000000000000@Z ENDP	; glm::tmat4x4<float,0>::tmat4x4<float,0>
_TEXT	ENDS
; Function compile flags: /Odtp /RTCsu
; File C:\Users\ksart\OneDrive\Desktop\FlappyBird\libraries\external\glm\glm\detail\type_vec4.inl
;	COMDAT ??0?$tvec4@M$0A@@glm@@QEAA@MMMM@Z
_TEXT	SEGMENT
this$ = 16
a$ = 24
b$ = 32
c$ = 40
d$ = 48
??0?$tvec4@M$0A@@glm@@QEAA@MMMM@Z PROC			; glm::tvec4<float,0>::tvec4<float,0>, COMDAT

; 193  : 	{}

$LN3:
	movss	DWORD PTR [rsp+32], xmm3
	movss	DWORD PTR [rsp+24], xmm2
	movss	DWORD PTR [rsp+16], xmm1
	mov	QWORD PTR [rsp+8], rcx
	push	rdi

; 192  : 		: x(a), y(b), z(c), w(d)

	mov	rax, QWORD PTR this$[rsp]
	movss	xmm0, DWORD PTR a$[rsp]
	movss	DWORD PTR [rax], xmm0
	mov	rax, QWORD PTR this$[rsp]
	movss	xmm0, DWORD PTR b$[rsp]
	movss	DWORD PTR [rax+4], xmm0
	mov	rax, QWORD PTR this$[rsp]
	movss	xmm0, DWORD PTR c$[rsp]
	movss	DWORD PTR [rax+8], xmm0
	mov	rax, QWORD PTR this$[rsp]
	movss	xmm0, DWORD PTR d$[rsp]
	movss	DWORD PTR [rax+12], xmm0

; 193  : 	{}

	mov	rax, QWORD PTR this$[rsp]
	pop	rdi
	ret	0
??0?$tvec4@M$0A@@glm@@QEAA@MMMM@Z ENDP			; glm::tvec4<float,0>::tvec4<float,0>
_TEXT	ENDS
; Function compile flags: /Odtp /RTCsu
; File C:\Users\ksart\OneDrive\Desktop\FlappyBird\libraries\external\glm\glm\detail\type_vec4.inl
;	COMDAT ??0?$tvec4@M$0A@@glm@@QEAA@M@Z
_TEXT	SEGMENT
this$ = 16
scalar$ = 24
??0?$tvec4@M$0A@@glm@@QEAA@M@Z PROC			; glm::tvec4<float,0>::tvec4<float,0>, COMDAT

; 188  : 	{}

$LN3:
	movss	DWORD PTR [rsp+16], xmm1
	mov	QWORD PTR [rsp+8], rcx
	push	rdi

; 187  : 		: x(scalar), y(scalar), z(scalar), w(scalar)

	mov	rax, QWORD PTR this$[rsp]
	movss	xmm0, DWORD PTR scalar$[rsp]
	movss	DWORD PTR [rax], xmm0
	mov	rax, QWORD PTR this$[rsp]
	movss	xmm0, DWORD PTR scalar$[rsp]
	movss	DWORD PTR [rax+4], xmm0
	mov	rax, QWORD PTR this$[rsp]
	movss	xmm0, DWORD PTR scalar$[rsp]
	movss	DWORD PTR [rax+8], xmm0
	mov	rax, QWORD PTR this$[rsp]
	movss	xmm0, DWORD PTR scalar$[rsp]
	movss	DWORD PTR [rax+12], xmm0

; 188  : 	{}

	mov	rax, QWORD PTR this$[rsp]
	pop	rdi
	ret	0
??0?$tvec4@M$0A@@glm@@QEAA@M@Z ENDP			; glm::tvec4<float,0>::tvec4<float,0>
_TEXT	ENDS
; Function compile flags: /Odtp /RTCsu
; File C:\Users\ksart\OneDrive\Desktop\FlappyBird\libraries\external\glm\glm\detail\type_vec4.inl
;	COMDAT ??0?$tvec4@M$0A@@glm@@QEAA@XZ
_TEXT	SEGMENT
this$ = 16
??0?$tvec4@M$0A@@glm@@QEAA@XZ PROC			; glm::tvec4<float,0>::tvec4<float,0>, COMDAT

; 163  : 		{}

$LN3:
	mov	QWORD PTR [rsp+8], rcx
	push	rdi

; 161  : 				: x(0), y(0), z(0), w(0)

	mov	rax, QWORD PTR this$[rsp]
	xorps	xmm0, xmm0
	movss	DWORD PTR [rax], xmm0
	mov	rax, QWORD PTR this$[rsp]
	xorps	xmm0, xmm0
	movss	DWORD PTR [rax+4], xmm0
	mov	rax, QWORD PTR this$[rsp]
	xorps	xmm0, xmm0
	movss	DWORD PTR [rax+8], xmm0
	mov	rax, QWORD PTR this$[rsp]
	xorps	xmm0, xmm0
	movss	DWORD PTR [rax+12], xmm0

; 163  : 		{}

	mov	rax, QWORD PTR this$[rsp]
	pop	rdi
	ret	0
??0?$tvec4@M$0A@@glm@@QEAA@XZ ENDP			; glm::tvec4<float,0>::tvec4<float,0>
_TEXT	ENDS
; Function compile flags: /Odtp /RTCsu
; File C:\Users\ksart\OneDrive\Desktop\FlappyBird\libraries\external\glm\glm\detail\type_vec4.inl
;	COMDAT ??A?$tvec4@M$0A@@glm@@QEBAAEBMH@Z
_TEXT	SEGMENT
this$ = 48
i$ = 56
??A?$tvec4@M$0A@@glm@@QEBAAEBMH@Z PROC			; glm::tvec4<float,0>::operator[], COMDAT

; 336  : 	{

$LN5:
	mov	DWORD PTR [rsp+16], edx
	mov	QWORD PTR [rsp+8], rcx
	push	rdi
	sub	rsp, 32					; 00000020H

; 337  : 		assert(i >= 0 && i < this->length());

	cmp	DWORD PTR i$[rsp], 0
	jl	SHORT $LN3@operator
	call	?length@?$tvec4@M$0A@@glm@@SAHXZ	; glm::tvec4<float,0>::length
	cmp	DWORD PTR i$[rsp], eax
	jl	SHORT $LN4@operator
$LN3@operator:
	mov	r8d, 337				; 00000151H
	lea	rdx, OFFSET FLAT:??_C@_1LG@LAANPDHN@?$AAC?$AA?3?$AA?2?$AAU?$AAs?$AAe?$AAr?$AAs?$AA?2?$AAk?$AAs?$AAa?$AAr?$AAt?$AA?2@
	lea	rcx, OFFSET FLAT:??_C@_1DK@BGNCJAPL@?$AAi?$AA?5?$AA?$DO?$AA?$DN?$AA?5?$AA0?$AA?5?$AA?$CG?$AA?$CG?$AA?5?$AAi?$AA?5?$AA?$DM?$AA?5?$AAt@
	call	QWORD PTR __imp__wassert
	xor	eax, eax
$LN4@operator:

; 338  : 		return (&x)[i];

	movsxd	rax, DWORD PTR i$[rsp]
	mov	rcx, QWORD PTR this$[rsp]
	lea	rax, QWORD PTR [rcx+rax*4]

; 339  : 	}

	add	rsp, 32					; 00000020H
	pop	rdi
	ret	0
??A?$tvec4@M$0A@@glm@@QEBAAEBMH@Z ENDP			; glm::tvec4<float,0>::operator[]
_TEXT	ENDS
; Function compile flags: /Odtp /RTCsu
; File C:\Users\ksart\OneDrive\Desktop\FlappyBird\libraries\external\glm\glm\detail\type_vec4.inl
;	COMDAT ??A?$tvec4@M$0A@@glm@@QEAAAEAMH@Z
_TEXT	SEGMENT
this$ = 48
i$ = 56
??A?$tvec4@M$0A@@glm@@QEAAAEAMH@Z PROC			; glm::tvec4<float,0>::operator[], COMDAT

; 329  : 	{

$LN5:
	mov	DWORD PTR [rsp+16], edx
	mov	QWORD PTR [rsp+8], rcx
	push	rdi
	sub	rsp, 32					; 00000020H

; 330  : 		assert(i >= 0 && i < this->length());

	cmp	DWORD PTR i$[rsp], 0
	jl	SHORT $LN3@operator
	call	?length@?$tvec4@M$0A@@glm@@SAHXZ	; glm::tvec4<float,0>::length
	cmp	DWORD PTR i$[rsp], eax
	jl	SHORT $LN4@operator
$LN3@operator:
	mov	r8d, 330				; 0000014aH
	lea	rdx, OFFSET FLAT:??_C@_1LG@LAANPDHN@?$AAC?$AA?3?$AA?2?$AAU?$AAs?$AAe?$AAr?$AAs?$AA?2?$AAk?$AAs?$AAa?$AAr?$AAt?$AA?2@
	lea	rcx, OFFSET FLAT:??_C@_1DK@BGNCJAPL@?$AAi?$AA?5?$AA?$DO?$AA?$DN?$AA?5?$AA0?$AA?5?$AA?$CG?$AA?$CG?$AA?5?$AAi?$AA?5?$AA?$DM?$AA?5?$AAt@
	call	QWORD PTR __imp__wassert
	xor	eax, eax
$LN4@operator:

; 331  : 		return (&x)[i];

	movsxd	rax, DWORD PTR i$[rsp]
	mov	rcx, QWORD PTR this$[rsp]
	lea	rax, QWORD PTR [rcx+rax*4]

; 332  : 	}

	add	rsp, 32					; 00000020H
	pop	rdi
	ret	0
??A?$tvec4@M$0A@@glm@@QEAAAEAMH@Z ENDP			; glm::tvec4<float,0>::operator[]
_TEXT	ENDS
; Function compile flags: /Odtp /RTCsu
; File C:\Users\ksart\OneDrive\Desktop\FlappyBird\libraries\external\glm\glm\detail\type_vec4.hpp
;	COMDAT ?length@?$tvec4@M$0A@@glm@@SAHXZ
_TEXT	SEGMENT
?length@?$tvec4@M$0A@@glm@@SAHXZ PROC			; glm::tvec4<float,0>::length, COMDAT

; 85   : 		GLM_FUNC_DECL static length_type length(){return 4;}

$LN3:
	push	rdi
	mov	eax, 4
	pop	rdi
	ret	0
?length@?$tvec4@M$0A@@glm@@SAHXZ ENDP			; glm::tvec4<float,0>::length
_TEXT	ENDS
; Function compile flags: /Odtp /RTCsu
; File C:\Users\ksart\OneDrive\Desktop\FlappyBird\libraries\external\glm\glm\detail\func_vector_relational.inl
;	COMDAT ??$all@$0A@Utvec3@glm@@@glm@@YA_NAEBU?$tvec3@_N$0A@@0@@Z
_TEXT	SEGMENT
Result$ = 32
i$1 = 36
tv74 = 40
v$ = 64
??$all@$0A@Utvec3@glm@@@glm@@YA_NAEBU?$tvec3@_N$0A@@0@@Z PROC ; glm::all<0,glm::tvec3>, COMDAT

; 86   : 	{

$LN8:
	mov	QWORD PTR [rsp+8], rcx
	push	rdi
	sub	rsp, 48					; 00000030H

; 87   : 		bool Result = true;

	mov	BYTE PTR Result$[rsp], 1

; 88   : 		for(length_t i = 0; i < v.length(); ++i)

	mov	DWORD PTR i$1[rsp], 0
	jmp	SHORT $LN4@all
$LN2@all:
	mov	eax, DWORD PTR i$1[rsp]
	inc	eax
	mov	DWORD PTR i$1[rsp], eax
$LN4@all:
	call	?length@?$tvec3@_N$0A@@glm@@SAHXZ	; glm::tvec3<bool,0>::length
	cmp	DWORD PTR i$1[rsp], eax
	jge	SHORT $LN3@all

; 89   : 			Result = Result && v[i];

	movzx	eax, BYTE PTR Result$[rsp]
	test	eax, eax
	je	SHORT $LN6@all
	mov	edx, DWORD PTR i$1[rsp]
	mov	rcx, QWORD PTR v$[rsp]
	call	??A?$tvec3@_N$0A@@glm@@QEBAAEB_NH@Z	; glm::tvec3<bool,0>::operator[]
	movzx	eax, BYTE PTR [rax]
	test	eax, eax
	je	SHORT $LN6@all
	mov	DWORD PTR tv74[rsp], 1
	jmp	SHORT $LN7@all
$LN6@all:
	mov	DWORD PTR tv74[rsp], 0
$LN7@all:
	movzx	eax, BYTE PTR tv74[rsp]
	mov	BYTE PTR Result$[rsp], al
	jmp	SHORT $LN2@all
$LN3@all:

; 90   : 		return Result;

	movzx	eax, BYTE PTR Result$[rsp]

; 91   : 	}

	add	rsp, 48					; 00000030H
	pop	rdi
	ret	0
??$all@$0A@Utvec3@glm@@@glm@@YA_NAEBU?$tvec3@_N$0A@@0@@Z ENDP ; glm::all<0,glm::tvec3>
_TEXT	ENDS
; Function compile flags: /Odtp /RTCsu
; File C:\Users\ksart\OneDrive\Desktop\FlappyBird\libraries\external\glm\glm\detail\type_vec3.inl
;	COMDAT ??0?$tvec3@_N$0A@@glm@@QEAA@W4ctor@1@@Z
_TEXT	SEGMENT
this$ = 16
__formal$ = 24
??0?$tvec3@_N$0A@@glm@@QEAA@W4ctor@1@@Z PROC		; glm::tvec3<bool,0>::tvec3<bool,0>, COMDAT

; 60   : 	{}

$LN3:
	mov	DWORD PTR [rsp+16], edx
	mov	QWORD PTR [rsp+8], rcx
	push	rdi
	mov	rax, QWORD PTR this$[rsp]
	pop	rdi
	ret	0
??0?$tvec3@_N$0A@@glm@@QEAA@W4ctor@1@@Z ENDP		; glm::tvec3<bool,0>::tvec3<bool,0>
_TEXT	ENDS
; Function compile flags: /Odtp /RTCsu
; File C:\Users\ksart\OneDrive\Desktop\FlappyBird\libraries\external\glm\glm\detail\type_vec3.inl
;	COMDAT ??A?$tvec3@_N$0A@@glm@@QEBAAEB_NH@Z
_TEXT	SEGMENT
this$ = 48
i$ = 56
??A?$tvec3@_N$0A@@glm@@QEBAAEB_NH@Z PROC		; glm::tvec3<bool,0>::operator[], COMDAT

; 151  : 	{

$LN5:
	mov	DWORD PTR [rsp+16], edx
	mov	QWORD PTR [rsp+8], rcx
	push	rdi
	sub	rsp, 32					; 00000020H

; 152  : 		assert(i >= 0 && i < this->length());

	cmp	DWORD PTR i$[rsp], 0
	jl	SHORT $LN3@operator
	call	?length@?$tvec3@_N$0A@@glm@@SAHXZ	; glm::tvec3<bool,0>::length
	cmp	DWORD PTR i$[rsp], eax
	jl	SHORT $LN4@operator
$LN3@operator:
	mov	r8d, 152				; 00000098H
	lea	rdx, OFFSET FLAT:??_C@_1LG@MEJFBKPC@?$AAC?$AA?3?$AA?2?$AAU?$AAs?$AAe?$AAr?$AAs?$AA?2?$AAk?$AAs?$AAa?$AAr?$AAt?$AA?2@
	lea	rcx, OFFSET FLAT:??_C@_1DK@BGNCJAPL@?$AAi?$AA?5?$AA?$DO?$AA?$DN?$AA?5?$AA0?$AA?5?$AA?$CG?$AA?$CG?$AA?5?$AAi?$AA?5?$AA?$DM?$AA?5?$AAt@
	call	QWORD PTR __imp__wassert
	xor	eax, eax
$LN4@operator:

; 153  : 		return (&x)[i];

	movsxd	rax, DWORD PTR i$[rsp]
	mov	rcx, QWORD PTR this$[rsp]
	add	rcx, rax
	mov	rax, rcx

; 154  : 	}

	add	rsp, 32					; 00000020H
	pop	rdi
	ret	0
??A?$tvec3@_N$0A@@glm@@QEBAAEB_NH@Z ENDP		; glm::tvec3<bool,0>::operator[]
_TEXT	ENDS
; Function compile flags: /Odtp /RTCsu
; File C:\Users\ksart\OneDrive\Desktop\FlappyBird\libraries\external\glm\glm\detail\type_vec3.inl
;	COMDAT ??A?$tvec3@_N$0A@@glm@@QEAAAEA_NH@Z
_TEXT	SEGMENT
this$ = 48
i$ = 56
??A?$tvec3@_N$0A@@glm@@QEAAAEA_NH@Z PROC		; glm::tvec3<bool,0>::operator[], COMDAT

; 144  : 	{

$LN5:
	mov	DWORD PTR [rsp+16], edx
	mov	QWORD PTR [rsp+8], rcx
	push	rdi
	sub	rsp, 32					; 00000020H

; 145  : 		assert(i >= 0 && i < this->length());

	cmp	DWORD PTR i$[rsp], 0
	jl	SHORT $LN3@operator
	call	?length@?$tvec3@_N$0A@@glm@@SAHXZ	; glm::tvec3<bool,0>::length
	cmp	DWORD PTR i$[rsp], eax
	jl	SHORT $LN4@operator
$LN3@operator:
	mov	r8d, 145				; 00000091H
	lea	rdx, OFFSET FLAT:??_C@_1LG@MEJFBKPC@?$AAC?$AA?3?$AA?2?$AAU?$AAs?$AAe?$AAr?$AAs?$AA?2?$AAk?$AAs?$AAa?$AAr?$AAt?$AA?2@
	lea	rcx, OFFSET FLAT:??_C@_1DK@BGNCJAPL@?$AAi?$AA?5?$AA?$DO?$AA?$DN?$AA?5?$AA0?$AA?5?$AA?$CG?$AA?$CG?$AA?5?$AAi?$AA?5?$AA?$DM?$AA?5?$AAt@
	call	QWORD PTR __imp__wassert
	xor	eax, eax
$LN4@operator:

; 146  : 		return (&x)[i];

	movsxd	rax, DWORD PTR i$[rsp]
	mov	rcx, QWORD PTR this$[rsp]
	add	rcx, rax
	mov	rax, rcx

; 147  : 	}

	add	rsp, 32					; 00000020H
	pop	rdi
	ret	0
??A?$tvec3@_N$0A@@glm@@QEAAAEA_NH@Z ENDP		; glm::tvec3<bool,0>::operator[]
_TEXT	ENDS
; Function compile flags: /Odtp /RTCsu
; File C:\Users\ksart\OneDrive\Desktop\FlappyBird\libraries\external\glm\glm\detail\type_vec3.hpp
;	COMDAT ?length@?$tvec3@_N$0A@@glm@@SAHXZ
_TEXT	SEGMENT
?length@?$tvec3@_N$0A@@glm@@SAHXZ PROC			; glm::tvec3<bool,0>::length, COMDAT

; 82   : 		GLM_FUNC_DECL static length_type length(){return 3;}

$LN3:
	push	rdi
	mov	eax, 3
	pop	rdi
	ret	0
?length@?$tvec3@_N$0A@@glm@@SAHXZ ENDP			; glm::tvec3<bool,0>::length
_TEXT	ENDS
; Function compile flags: /Odtp /RTCsu
; File C:\Users\ksart\OneDrive\Desktop\FlappyBird\libraries\external\glm\glm\gtc\epsilon.inl
;	COMDAT ??$epsilonEqual@M$0A@Utvec3@glm@@@glm@@YA?AU?$tvec3@_N$0A@@0@AEBU?$tvec3@M$0A@@0@0AEBM@Z
_TEXT	SEGMENT
$T1 = 32
$T2 = 44
$T3 = 56
tv66 = 72
__$ReturnUdt$ = 96
x$ = 104
y$ = 112
epsilon$ = 120
??$epsilonEqual@M$0A@Utvec3@glm@@@glm@@YA?AU?$tvec3@_N$0A@@0@AEBU?$tvec3@M$0A@@0@0AEBM@Z PROC ; glm::epsilonEqual<float,0,glm::tvec3>, COMDAT

; 65   : 	{

$LN3:
	mov	QWORD PTR [rsp+32], r9
	mov	QWORD PTR [rsp+24], r8
	mov	QWORD PTR [rsp+16], rdx
	mov	QWORD PTR [rsp+8], rcx
	push	rdi
	sub	rsp, 80					; 00000050H

; 66   : 		return lessThan(abs(x - y), vecType<T, P>(epsilon));

	mov	rax, QWORD PTR epsilon$[rsp]
	movss	xmm1, DWORD PTR [rax]
	lea	rcx, QWORD PTR $T1[rsp]
	call	??0?$tvec3@M$0A@@glm@@QEAA@M@Z		; glm::tvec3<float,0>::tvec3<float,0>
	mov	QWORD PTR tv66[rsp], rax
	mov	r8, QWORD PTR y$[rsp]
	mov	rdx, QWORD PTR x$[rsp]
	lea	rcx, QWORD PTR $T2[rsp]
	call	??$?GM$0A@@glm@@YA?AU?$tvec3@M$0A@@0@AEBU10@0@Z ; glm::operator-<float,0>
	mov	rdx, rax
	lea	rcx, QWORD PTR $T3[rsp]
	call	??$abs@M$0A@Utvec3@glm@@@glm@@YA?AU?$tvec3@M$0A@@0@AEBU10@@Z ; glm::abs<float,0,glm::tvec3>
	mov	rcx, QWORD PTR tv66[rsp]
	mov	r8, rcx
	mov	rdx, rax
	mov	rcx, QWORD PTR __$ReturnUdt$[rsp]
	call	??$lessThan@M$0A@Utvec3@glm@@@glm@@YA?AU?$tvec3@_N$0A@@0@AEBU?$tvec3@M$0A@@0@0@Z ; glm::lessThan<float,0,glm::tvec3>
	mov	rax, QWORD PTR __$ReturnUdt$[rsp]

; 67   : 	}

	add	rsp, 80					; 00000050H
	pop	rdi
	ret	0
??$epsilonEqual@M$0A@Utvec3@glm@@@glm@@YA?AU?$tvec3@_N$0A@@0@AEBU?$tvec3@M$0A@@0@0AEBM@Z ENDP ; glm::epsilonEqual<float,0,glm::tvec3>
_TEXT	ENDS
; Function compile flags: /Odtp /RTCsu
; File C:\Users\ksart\OneDrive\Desktop\FlappyBird\libraries\external\glm\glm\detail\func_matrix.inl
;	COMDAT ??$inverse@M$0A@Utmat3x3@glm@@@glm@@YA?AU?$tmat3x3@M$0A@@0@AEBU10@@Z
_TEXT	SEGMENT
__$ReturnUdt$ = 48
m$ = 56
??$inverse@M$0A@Utmat3x3@glm@@@glm@@YA?AU?$tmat3x3@M$0A@@0@AEBU10@@Z PROC ; glm::inverse<float,0,glm::tmat3x3>, COMDAT

; 392  : 	{

$LN3:
	mov	QWORD PTR [rsp+16], rdx
	mov	QWORD PTR [rsp+8], rcx
	push	rdi
	sub	rsp, 32					; 00000020H

; 393  : 		GLM_STATIC_ASSERT(std::numeric_limits<T>::is_iec559 || GLM_UNRESTRICTED_GENTYPE, "'inverse' only accept floating-point inputs");
; 394  : 		return detail::compute_inverse<matType, T, P, detail::is_aligned<P>::value>::call(m);

	mov	rdx, QWORD PTR m$[rsp]
	mov	rcx, QWORD PTR __$ReturnUdt$[rsp]
	call	?call@?$compute_inverse@Utmat3x3@glm@@M$0A@$0A@@detail@glm@@SA?AU?$tmat3x3@M$0A@@3@AEBU43@@Z ; glm::detail::compute_inverse<glm::tmat3x3,float,0,0>::call
	mov	rax, QWORD PTR __$ReturnUdt$[rsp]

; 395  : 	}

	add	rsp, 32					; 00000020H
	pop	rdi
	ret	0
??$inverse@M$0A@Utmat3x3@glm@@@glm@@YA?AU?$tmat3x3@M$0A@@0@AEBU10@@Z ENDP ; glm::inverse<float,0,glm::tmat3x3>
_TEXT	ENDS
; Function compile flags: /Odtp /RTCsu
; File C:\Users\ksart\OneDrive\Desktop\FlappyBird\libraries\external\glm\glm\gtc\matrix_inverse.inl
;	COMDAT ??$affineInverse@M$0A@@glm@@YA?AU?$tmat3x3@M$0A@@0@AEBU10@@Z
_TEXT	SEGMENT
$T4 = 32
Inv$ = 56
$T5 = 88
$T6 = 112
$T7 = 124
$T8 = 132
$T9 = 140
$T10 = 152
tv76 = 168
tv72 = 176
tv90 = 184
__$ArrayPad$ = 192
__$ReturnUdt$ = 224
m$ = 232
??$affineInverse@M$0A@@glm@@YA?AU?$tmat3x3@M$0A@@0@AEBU10@@Z PROC ; glm::affineInverse<float,0>, COMDAT

; 8    : 	{

$LN3:
	mov	QWORD PTR [rsp+16], rdx
	mov	QWORD PTR [rsp+8], rcx
	push	rdi
	sub	rsp, 208				; 000000d0H
	lea	rdi, QWORD PTR [rsp+32]
	mov	ecx, 44					; 0000002cH
	mov	eax, -858993460				; ccccccccH
	rep stosd
	mov	rcx, QWORD PTR [rsp+224]
	mov	rax, QWORD PTR __security_cookie
	xor	rax, rsp
	mov	QWORD PTR __$ArrayPad$[rsp], rax

; 9    : 		tmat2x2<T, P> const Inv(inverse(tmat2x2<T, P>(m)));

	mov	rdx, QWORD PTR m$[rsp]
	lea	rcx, QWORD PTR $T4[rsp]
	call	??0?$tmat2x2@M$0A@@glm@@QEAA@AEBU?$tmat3x3@M$0A@@1@@Z ; glm::tmat2x2<float,0>::tmat2x2<float,0>
	mov	rdx, rax
	lea	rcx, QWORD PTR Inv$[rsp]
	call	??$inverse@M$0A@Utmat2x2@glm@@@glm@@YA?AU?$tmat2x2@M$0A@@0@AEBU10@@Z ; glm::inverse<float,0,glm::tmat2x2>

; 10   : 
; 11   : 		return tmat3x3<T, P>(

	mov	edx, 2
	mov	rcx, QWORD PTR m$[rsp]
	call	??A?$tmat3x3@M$0A@@glm@@QEBAAEBU?$tvec3@M$0A@@1@H@Z ; glm::tmat3x3<float,0>::operator[]
	mov	rdx, rax
	lea	rcx, QWORD PTR $T7[rsp]
	call	??$?0M$0A@@?$tvec2@M$0A@@glm@@QEAA@AEBU?$tvec3@M$0A@@1@@Z ; glm::tvec2<float,0>::tvec2<float,0><float,0>
	mov	QWORD PTR tv76[rsp], rax
	lea	rdx, QWORD PTR Inv$[rsp]
	lea	rcx, QWORD PTR $T5[rsp]
	call	??$?GM$0A@@glm@@YA?AU?$tmat2x2@M$0A@@0@AEBU10@@Z ; glm::operator-<float,0>
	mov	rcx, QWORD PTR tv76[rsp]
	mov	r8, rcx
	mov	rdx, rax
	lea	rcx, QWORD PTR $T8[rsp]
	call	??$?DM$0A@@glm@@YA?AU?$tvec2@M$0A@@0@AEBU?$tmat2x2@M$0A@@0@AEBU10@@Z ; glm::operator*<float,0>
	movss	xmm2, DWORD PTR __real@3f800000
	mov	rdx, rax
	lea	rcx, QWORD PTR $T6[rsp]
	call	??$?0MM$0A@@?$tvec3@M$0A@@glm@@QEAA@AEBU?$tvec2@M$0A@@1@M@Z ; glm::tvec3<float,0>::tvec3<float,0><float,float,0>
	mov	QWORD PTR tv72[rsp], rax
	mov	edx, 1
	lea	rcx, QWORD PTR Inv$[rsp]
	call	??A?$tmat2x2@M$0A@@glm@@QEBAAEBU?$tvec2@M$0A@@1@H@Z ; glm::tmat2x2<float,0>::operator[]
	xorps	xmm2, xmm2
	mov	rdx, rax
	lea	rcx, QWORD PTR $T9[rsp]
	call	??$?0MM$0A@@?$tvec3@M$0A@@glm@@QEAA@AEBU?$tvec2@M$0A@@1@M@Z ; glm::tvec3<float,0>::tvec3<float,0><float,float,0>
	mov	QWORD PTR tv90[rsp], rax
	xor	edx, edx
	lea	rcx, QWORD PTR Inv$[rsp]
	call	??A?$tmat2x2@M$0A@@glm@@QEBAAEBU?$tvec2@M$0A@@1@H@Z ; glm::tmat2x2<float,0>::operator[]
	xorps	xmm2, xmm2
	mov	rdx, rax
	lea	rcx, QWORD PTR $T10[rsp]
	call	??$?0MM$0A@@?$tvec3@M$0A@@glm@@QEAA@AEBU?$tvec2@M$0A@@1@M@Z ; glm::tvec3<float,0>::tvec3<float,0><float,float,0>
	mov	rcx, QWORD PTR tv72[rsp]
	mov	r9, rcx
	mov	rcx, QWORD PTR tv90[rsp]
	mov	r8, rcx
	mov	rdx, rax
	mov	rcx, QWORD PTR __$ReturnUdt$[rsp]
	call	??0?$tmat3x3@M$0A@@glm@@QEAA@AEBU?$tvec3@M$0A@@1@00@Z ; glm::tmat3x3<float,0>::tmat3x3<float,0>
	mov	rax, QWORD PTR __$ReturnUdt$[rsp]

; 12   : 			tvec3<T, P>(Inv[0], static_cast<T>(0)),
; 13   : 			tvec3<T, P>(Inv[1], static_cast<T>(0)),
; 14   : 			tvec3<T, P>(-Inv * tvec2<T, P>(m[2]), static_cast<T>(1)));
; 15   : 	}

	mov	rdi, rax
	mov	rcx, rsp
	lea	rdx, OFFSET FLAT:??$affineInverse@M$0A@@glm@@YA?AU?$tmat3x3@M$0A@@0@AEBU10@@Z$rtcFrameData
	call	_RTC_CheckStackVars
	mov	rax, rdi
	mov	rcx, QWORD PTR __$ArrayPad$[rsp]
	xor	rcx, rsp
	call	__security_check_cookie
	add	rsp, 208				; 000000d0H
	pop	rdi
	ret	0
??$affineInverse@M$0A@@glm@@YA?AU?$tmat3x3@M$0A@@0@AEBU10@@Z ENDP ; glm::affineInverse<float,0>
_TEXT	ENDS
; Function compile flags: /Odtp /RTCsu
; File C:\Users\ksart\OneDrive\Desktop\FlappyBird\libraries\external\glm\glm\detail\type_mat3x3.inl
;	COMDAT ??A?$tmat3x3@M$0A@@glm@@QEBAAEBU?$tvec3@M$0A@@1@H@Z
_TEXT	SEGMENT
this$ = 48
i$ = 56
??A?$tmat3x3@M$0A@@glm@@QEBAAEBU?$tvec3@M$0A@@1@H@Z PROC ; glm::tmat3x3<float,0>::operator[], COMDAT

; 198  : 	{

$LN4:
	mov	DWORD PTR [rsp+16], edx
	mov	QWORD PTR [rsp+8], rcx
	push	rdi
	sub	rsp, 32					; 00000020H

; 199  : 		assert(i < this->length());

	call	?length@?$tmat3x3@M$0A@@glm@@SAHXZ	; glm::tmat3x3<float,0>::length
	cmp	DWORD PTR i$[rsp], eax
	jl	SHORT $LN3@operator
	mov	r8d, 199				; 000000c7H
	lea	rdx, OFFSET FLAT:??_C@_1LK@JJJMOBEL@?$AAC?$AA?3?$AA?2?$AAU?$AAs?$AAe?$AAr?$AAs?$AA?2?$AAk?$AAs?$AAa?$AAr?$AAt?$AA?2@
	lea	rcx, OFFSET FLAT:??_C@_1CG@KOFHLCJL@?$AAi?$AA?5?$AA?$DM?$AA?5?$AAt?$AAh?$AAi?$AAs?$AA?9?$AA?$DO?$AAl?$AAe?$AAn?$AAg?$AAt@
	call	QWORD PTR __imp__wassert
	xor	eax, eax
$LN3@operator:

; 200  : 		return this->value[i];

	movsxd	rax, DWORD PTR i$[rsp]
	imul	rax, rax, 12
	mov	rcx, QWORD PTR this$[rsp]
	add	rcx, rax
	mov	rax, rcx

; 201  : 	}

	add	rsp, 32					; 00000020H
	pop	rdi
	ret	0
??A?$tmat3x3@M$0A@@glm@@QEBAAEBU?$tvec3@M$0A@@1@H@Z ENDP ; glm::tmat3x3<float,0>::operator[]
_TEXT	ENDS
; Function compile flags: /Odtp /RTCsu
; File C:\Users\ksart\OneDrive\Desktop\FlappyBird\libraries\external\glm\glm\detail\type_mat3x3.inl
;	COMDAT ??A?$tmat3x3@M$0A@@glm@@QEAAAEAU?$tvec3@M$0A@@1@H@Z
_TEXT	SEGMENT
this$ = 48
i$ = 56
??A?$tmat3x3@M$0A@@glm@@QEAAAEAU?$tvec3@M$0A@@1@H@Z PROC ; glm::tmat3x3<float,0>::operator[], COMDAT

; 191  : 	{

$LN4:
	mov	DWORD PTR [rsp+16], edx
	mov	QWORD PTR [rsp+8], rcx
	push	rdi
	sub	rsp, 32					; 00000020H

; 192  : 		assert(i < this->length());

	call	?length@?$tmat3x3@M$0A@@glm@@SAHXZ	; glm::tmat3x3<float,0>::length
	cmp	DWORD PTR i$[rsp], eax
	jl	SHORT $LN3@operator
	mov	r8d, 192				; 000000c0H
	lea	rdx, OFFSET FLAT:??_C@_1LK@JJJMOBEL@?$AAC?$AA?3?$AA?2?$AAU?$AAs?$AAe?$AAr?$AAs?$AA?2?$AAk?$AAs?$AAa?$AAr?$AAt?$AA?2@
	lea	rcx, OFFSET FLAT:??_C@_1CG@KOFHLCJL@?$AAi?$AA?5?$AA?$DM?$AA?5?$AAt?$AAh?$AAi?$AAs?$AA?9?$AA?$DO?$AAl?$AAe?$AAn?$AAg?$AAt@
	call	QWORD PTR __imp__wassert
	xor	eax, eax
$LN3@operator:

; 193  : 		return this->value[i];

	movsxd	rax, DWORD PTR i$[rsp]
	imul	rax, rax, 12
	mov	rcx, QWORD PTR this$[rsp]
	add	rcx, rax
	mov	rax, rcx

; 194  : 	}

	add	rsp, 32					; 00000020H
	pop	rdi
	ret	0
??A?$tmat3x3@M$0A@@glm@@QEAAAEAU?$tvec3@M$0A@@1@H@Z ENDP ; glm::tmat3x3<float,0>::operator[]
_TEXT	ENDS
; Function compile flags: /Odtp /RTCsu
; File C:\Users\ksart\OneDrive\Desktop\FlappyBird\libraries\external\glm\glm\detail\type_mat3x3.hpp
;	COMDAT ?length@?$tmat3x3@M$0A@@glm@@SAHXZ
_TEXT	SEGMENT
?length@?$tmat3x3@M$0A@@glm@@SAHXZ PROC			; glm::tmat3x3<float,0>::length, COMDAT

; 79   : 		GLM_FUNC_DECL static length_type length(){return 3;}

$LN3:
	push	rdi
	mov	eax, 3
	pop	rdi
	ret	0
?length@?$tmat3x3@M$0A@@glm@@SAHXZ ENDP			; glm::tmat3x3<float,0>::length
_TEXT	ENDS
; Function compile flags: /Odtp /RTCsu
; File C:\Users\ksart\OneDrive\Desktop\FlappyBird\libraries\external\glm\glm\detail\type_mat3x3.inl
;	COMDAT ??0?$tmat3x3@M$0A@@glm@@QEAA@AEBU?$tmat4x4@M$0A@@1@@Z
_TEXT	SEGMENT
$T1 = 32
$T2 = 44
$T3 = 56
this$ = 112
m$ = 120
??0?$tmat3x3@M$0A@@glm@@QEAA@AEBU?$tmat4x4@M$0A@@1@@Z PROC ; glm::tmat3x3<float,0>::tmat3x3<float,0>, COMDAT

; 133  : 	{

$LN3:
	mov	QWORD PTR [rsp+16], rdx
	mov	QWORD PTR [rsp+8], rcx
	push	rsi
	push	rdi
	sub	rsp, 88					; 00000058H
	mov	rax, QWORD PTR this$[rsp]
	lea	r9, OFFSET FLAT:??0?$tvec3@M$0A@@glm@@QEAA@XZ ; glm::tvec3<float,0>::tvec3<float,0>
	mov	r8d, 3
	mov	edx, 12
	mov	rcx, rax
	call	??_H@YAXPEAX_K1P6APEAX0@Z@Z

; 134  : 		this->value[0] = col_type(m[0]);

	xor	edx, edx
	mov	rcx, QWORD PTR m$[rsp]
	call	??A?$tmat4x4@M$0A@@glm@@QEBAAEBU?$tvec4@M$0A@@1@H@Z ; glm::tmat4x4<float,0>::operator[]
	mov	rdx, rax
	lea	rcx, QWORD PTR $T1[rsp]
	call	??$?0M$0A@@?$tvec3@M$0A@@glm@@QEAA@AEBU?$tvec4@M$0A@@1@@Z ; glm::tvec3<float,0>::tvec3<float,0><float,0>
	mov	ecx, 12
	imul	rcx, rcx, 0
	mov	rdx, QWORD PTR this$[rsp]
	lea	rdi, QWORD PTR [rdx+rcx]
	mov	rsi, rax
	mov	ecx, 12
	rep movsb

; 135  : 		this->value[1] = col_type(m[1]);

	mov	edx, 1
	mov	rcx, QWORD PTR m$[rsp]
	call	??A?$tmat4x4@M$0A@@glm@@QEBAAEBU?$tvec4@M$0A@@1@H@Z ; glm::tmat4x4<float,0>::operator[]
	mov	rdx, rax
	lea	rcx, QWORD PTR $T2[rsp]
	call	??$?0M$0A@@?$tvec3@M$0A@@glm@@QEAA@AEBU?$tvec4@M$0A@@1@@Z ; glm::tvec3<float,0>::tvec3<float,0><float,0>
	mov	ecx, 12
	imul	rcx, rcx, 1
	mov	rdx, QWORD PTR this$[rsp]
	lea	rdi, QWORD PTR [rdx+rcx]
	mov	rsi, rax
	mov	ecx, 12
	rep movsb

; 136  : 		this->value[2] = col_type(m[2]);

	mov	edx, 2
	mov	rcx, QWORD PTR m$[rsp]
	call	??A?$tmat4x4@M$0A@@glm@@QEBAAEBU?$tvec4@M$0A@@1@H@Z ; glm::tmat4x4<float,0>::operator[]
	mov	rdx, rax
	lea	rcx, QWORD PTR $T3[rsp]
	call	??$?0M$0A@@?$tvec3@M$0A@@glm@@QEAA@AEBU?$tvec4@M$0A@@1@@Z ; glm::tvec3<float,0>::tvec3<float,0><float,0>
	mov	ecx, 12
	imul	rcx, rcx, 2
	mov	rdx, QWORD PTR this$[rsp]
	lea	rdi, QWORD PTR [rdx+rcx]
	mov	rsi, rax
	mov	ecx, 12
	rep movsb

; 137  : 	}

	mov	rax, QWORD PTR this$[rsp]
	add	rsp, 88					; 00000058H
	pop	rdi
	pop	rsi
	ret	0
??0?$tmat3x3@M$0A@@glm@@QEAA@AEBU?$tmat4x4@M$0A@@1@@Z ENDP ; glm::tmat3x3<float,0>::tmat3x3<float,0>
_TEXT	ENDS
; Function compile flags: /Odtp /RTCsu
; File C:\Users\ksart\OneDrive\Desktop\FlappyBird\libraries\external\glm\glm\detail\type_mat3x3.inl
;	COMDAT ??0?$tmat3x3@M$0A@@glm@@QEAA@AEBU?$tvec3@M$0A@@1@00@Z
_TEXT	SEGMENT
this$ = 64
v0$ = 72
v1$ = 80
v2$ = 88
??0?$tmat3x3@M$0A@@glm@@QEAA@AEBU?$tvec3@M$0A@@1@00@Z PROC ; glm::tmat3x3<float,0>::tmat3x3<float,0>, COMDAT

; 73   : 	{

$LN3:
	mov	QWORD PTR [rsp+32], r9
	mov	QWORD PTR [rsp+24], r8
	mov	QWORD PTR [rsp+16], rdx
	mov	QWORD PTR [rsp+8], rcx
	push	rsi
	push	rdi
	sub	rsp, 40					; 00000028H
	mov	rax, QWORD PTR this$[rsp]
	lea	r9, OFFSET FLAT:??0?$tvec3@M$0A@@glm@@QEAA@XZ ; glm::tvec3<float,0>::tvec3<float,0>
	mov	r8d, 3
	mov	edx, 12
	mov	rcx, rax
	call	??_H@YAXPEAX_K1P6APEAX0@Z@Z

; 74   : 		this->value[0] = v0;

	mov	eax, 12
	imul	rax, rax, 0
	mov	rcx, QWORD PTR this$[rsp]
	lea	rdi, QWORD PTR [rcx+rax]
	mov	rsi, QWORD PTR v0$[rsp]
	mov	ecx, 12
	rep movsb

; 75   : 		this->value[1] = v1;

	mov	eax, 12
	imul	rax, rax, 1
	mov	rcx, QWORD PTR this$[rsp]
	lea	rdi, QWORD PTR [rcx+rax]
	mov	rsi, QWORD PTR v1$[rsp]
	mov	ecx, 12
	rep movsb

; 76   : 		this->value[2] = v2;

	mov	eax, 12
	imul	rax, rax, 2
	mov	rcx, QWORD PTR this$[rsp]
	lea	rdi, QWORD PTR [rcx+rax]
	mov	rsi, QWORD PTR v2$[rsp]
	mov	ecx, 12
	rep movsb

; 77   : 	}

	mov	rax, QWORD PTR this$[rsp]
	add	rsp, 40					; 00000028H
	pop	rdi
	pop	rsi
	ret	0
??0?$tmat3x3@M$0A@@glm@@QEAA@AEBU?$tvec3@M$0A@@1@00@Z ENDP ; glm::tmat3x3<float,0>::tmat3x3<float,0>
_TEXT	ENDS
; Function compile flags: /Odtp /RTCsu
; File C:\Users\ksart\OneDrive\Desktop\FlappyBird\libraries\external\glm\glm\detail\type_mat3x3.inl
;	COMDAT ??0?$tmat3x3@M$0A@@glm@@QEAA@MMMMMMMMM@Z
_TEXT	SEGMENT
$T1 = 32
$T2 = 44
$T3 = 56
this$ = 112
x0$ = 120
y0$ = 128
z0$ = 136
x1$ = 144
y1$ = 152
z1$ = 160
x2$ = 168
y2$ = 176
z2$ = 184
??0?$tmat3x3@M$0A@@glm@@QEAA@MMMMMMMMM@Z PROC		; glm::tmat3x3<float,0>::tmat3x3<float,0>, COMDAT

; 60   : 	{

$LN3:
	movss	DWORD PTR [rsp+32], xmm3
	movss	DWORD PTR [rsp+24], xmm2
	movss	DWORD PTR [rsp+16], xmm1
	mov	QWORD PTR [rsp+8], rcx
	push	rsi
	push	rdi
	sub	rsp, 88					; 00000058H
	mov	rax, QWORD PTR this$[rsp]
	lea	r9, OFFSET FLAT:??0?$tvec3@M$0A@@glm@@QEAA@XZ ; glm::tvec3<float,0>::tvec3<float,0>
	mov	r8d, 3
	mov	edx, 12
	mov	rcx, rax
	call	??_H@YAXPEAX_K1P6APEAX0@Z@Z

; 61   : 		this->value[0] = col_type(x0, y0, z0);

	movss	xmm3, DWORD PTR z0$[rsp]
	movss	xmm2, DWORD PTR y0$[rsp]
	movss	xmm1, DWORD PTR x0$[rsp]
	lea	rcx, QWORD PTR $T1[rsp]
	call	??0?$tvec3@M$0A@@glm@@QEAA@MMM@Z	; glm::tvec3<float,0>::tvec3<float,0>
	mov	ecx, 12
	imul	rcx, rcx, 0
	mov	rdx, QWORD PTR this$[rsp]
	lea	rdi, QWORD PTR [rdx+rcx]
	mov	rsi, rax
	mov	ecx, 12
	rep movsb

; 62   : 		this->value[1] = col_type(x1, y1, z1);

	movss	xmm3, DWORD PTR z1$[rsp]
	movss	xmm2, DWORD PTR y1$[rsp]
	movss	xmm1, DWORD PTR x1$[rsp]
	lea	rcx, QWORD PTR $T2[rsp]
	call	??0?$tvec3@M$0A@@glm@@QEAA@MMM@Z	; glm::tvec3<float,0>::tvec3<float,0>
	mov	ecx, 12
	imul	rcx, rcx, 1
	mov	rdx, QWORD PTR this$[rsp]
	lea	rdi, QWORD PTR [rdx+rcx]
	mov	rsi, rax
	mov	ecx, 12
	rep movsb

; 63   : 		this->value[2] = col_type(x2, y2, z2);

	movss	xmm3, DWORD PTR z2$[rsp]
	movss	xmm2, DWORD PTR y2$[rsp]
	movss	xmm1, DWORD PTR x2$[rsp]
	lea	rcx, QWORD PTR $T3[rsp]
	call	??0?$tvec3@M$0A@@glm@@QEAA@MMM@Z	; glm::tvec3<float,0>::tvec3<float,0>
	mov	ecx, 12
	imul	rcx, rcx, 2
	mov	rdx, QWORD PTR this$[rsp]
	lea	rdi, QWORD PTR [rdx+rcx]
	mov	rsi, rax
	mov	ecx, 12
	rep movsb

; 64   : 	}

	mov	rax, QWORD PTR this$[rsp]
	add	rsp, 88					; 00000058H
	pop	rdi
	pop	rsi
	ret	0
??0?$tmat3x3@M$0A@@glm@@QEAA@MMMMMMMMM@Z ENDP		; glm::tmat3x3<float,0>::tmat3x3<float,0>
_TEXT	ENDS
; Function compile flags: /Odtp /RTCsu
; File C:\Users\ksart\OneDrive\Desktop\FlappyBird\libraries\external\glm\glm\detail\type_mat3x3.inl
;	COMDAT ??0?$tmat3x3@M$0A@@glm@@QEAA@W4ctor@1@@Z
_TEXT	SEGMENT
this$ = 48
__formal$ = 56
??0?$tmat3x3@M$0A@@glm@@QEAA@W4ctor@1@@Z PROC		; glm::tmat3x3<float,0>::tmat3x3<float,0>, COMDAT

; 43   : 	{}

$LN3:
	mov	DWORD PTR [rsp+16], edx
	mov	QWORD PTR [rsp+8], rcx
	push	rdi
	sub	rsp, 32					; 00000020H
	mov	rax, QWORD PTR this$[rsp]
	lea	r9, OFFSET FLAT:??0?$tvec3@M$0A@@glm@@QEAA@XZ ; glm::tvec3<float,0>::tvec3<float,0>
	mov	r8d, 3
	mov	edx, 12
	mov	rcx, rax
	call	??_H@YAXPEAX_K1P6APEAX0@Z@Z
	mov	rax, QWORD PTR this$[rsp]
	add	rsp, 32					; 00000020H
	pop	rdi
	ret	0
??0?$tmat3x3@M$0A@@glm@@QEAA@W4ctor@1@@Z ENDP		; glm::tmat3x3<float,0>::tmat3x3<float,0>
_TEXT	ENDS
; Function compile flags: /Odtp /RTCsu
; File C:\Users\ksart\OneDrive\Desktop\FlappyBird\libraries\external\glm\glm\detail\type_vec3.inl
;	COMDAT ??0?$tvec3@M$0A@@glm@@QEAA@MMM@Z
_TEXT	SEGMENT
this$ = 16
a$ = 24
b$ = 32
c$ = 40
??0?$tvec3@M$0A@@glm@@QEAA@MMM@Z PROC			; glm::tvec3<float,0>::tvec3<float,0>, COMDAT

; 70   : 	{}

$LN3:
	movss	DWORD PTR [rsp+32], xmm3
	movss	DWORD PTR [rsp+24], xmm2
	movss	DWORD PTR [rsp+16], xmm1
	mov	QWORD PTR [rsp+8], rcx
	push	rdi

; 69   : 		: x(a), y(b), z(c)

	mov	rax, QWORD PTR this$[rsp]
	movss	xmm0, DWORD PTR a$[rsp]
	movss	DWORD PTR [rax], xmm0
	mov	rax, QWORD PTR this$[rsp]
	movss	xmm0, DWORD PTR b$[rsp]
	movss	DWORD PTR [rax+4], xmm0
	mov	rax, QWORD PTR this$[rsp]
	movss	xmm0, DWORD PTR c$[rsp]
	movss	DWORD PTR [rax+8], xmm0

; 70   : 	{}

	mov	rax, QWORD PTR this$[rsp]
	pop	rdi
	ret	0
??0?$tvec3@M$0A@@glm@@QEAA@MMM@Z ENDP			; glm::tvec3<float,0>::tvec3<float,0>
_TEXT	ENDS
; Function compile flags: /Odtp /RTCsu
; File C:\Users\ksart\OneDrive\Desktop\FlappyBird\libraries\external\glm\glm\detail\type_vec3.inl
;	COMDAT ??0?$tvec3@M$0A@@glm@@QEAA@M@Z
_TEXT	SEGMENT
this$ = 16
scalar$ = 24
??0?$tvec3@M$0A@@glm@@QEAA@M@Z PROC			; glm::tvec3<float,0>::tvec3<float,0>, COMDAT

; 65   : 	{}

$LN3:
	movss	DWORD PTR [rsp+16], xmm1
	mov	QWORD PTR [rsp+8], rcx
	push	rdi

; 64   : 		: x(scalar), y(scalar), z(scalar)

	mov	rax, QWORD PTR this$[rsp]
	movss	xmm0, DWORD PTR scalar$[rsp]
	movss	DWORD PTR [rax], xmm0
	mov	rax, QWORD PTR this$[rsp]
	movss	xmm0, DWORD PTR scalar$[rsp]
	movss	DWORD PTR [rax+4], xmm0
	mov	rax, QWORD PTR this$[rsp]
	movss	xmm0, DWORD PTR scalar$[rsp]
	movss	DWORD PTR [rax+8], xmm0

; 65   : 	{}

	mov	rax, QWORD PTR this$[rsp]
	pop	rdi
	ret	0
??0?$tvec3@M$0A@@glm@@QEAA@M@Z ENDP			; glm::tvec3<float,0>::tvec3<float,0>
_TEXT	ENDS
; Function compile flags: /Odtp /RTCsu
; File C:\Users\ksart\OneDrive\Desktop\FlappyBird\libraries\external\glm\glm\detail\type_vec3.inl
;	COMDAT ??0?$tvec3@M$0A@@glm@@QEAA@XZ
_TEXT	SEGMENT
this$ = 16
??0?$tvec3@M$0A@@glm@@QEAA@XZ PROC			; glm::tvec3<float,0>::tvec3<float,0>, COMDAT

; 40   : 		{}

$LN3:
	mov	QWORD PTR [rsp+8], rcx
	push	rdi

; 38   : 				: x(0), y(0), z(0)

	mov	rax, QWORD PTR this$[rsp]
	xorps	xmm0, xmm0
	movss	DWORD PTR [rax], xmm0
	mov	rax, QWORD PTR this$[rsp]
	xorps	xmm0, xmm0
	movss	DWORD PTR [rax+4], xmm0
	mov	rax, QWORD PTR this$[rsp]
	xorps	xmm0, xmm0
	movss	DWORD PTR [rax+8], xmm0

; 40   : 		{}

	mov	rax, QWORD PTR this$[rsp]
	pop	rdi
	ret	0
??0?$tvec3@M$0A@@glm@@QEAA@XZ ENDP			; glm::tvec3<float,0>::tvec3<float,0>
_TEXT	ENDS
; Function compile flags: /Odtp /RTCsu
; File C:\Users\ksart\OneDrive\Desktop\FlappyBird\libraries\external\glm\glm\detail\type_vec3.inl
;	COMDAT ??A?$tvec3@M$0A@@glm@@QEBAAEBMH@Z
_TEXT	SEGMENT
this$ = 48
i$ = 56
??A?$tvec3@M$0A@@glm@@QEBAAEBMH@Z PROC			; glm::tvec3<float,0>::operator[], COMDAT

; 151  : 	{

$LN5:
	mov	DWORD PTR [rsp+16], edx
	mov	QWORD PTR [rsp+8], rcx
	push	rdi
	sub	rsp, 32					; 00000020H

; 152  : 		assert(i >= 0 && i < this->length());

	cmp	DWORD PTR i$[rsp], 0
	jl	SHORT $LN3@operator
	call	?length@?$tvec3@M$0A@@glm@@SAHXZ	; glm::tvec3<float,0>::length
	cmp	DWORD PTR i$[rsp], eax
	jl	SHORT $LN4@operator
$LN3@operator:
	mov	r8d, 152				; 00000098H
	lea	rdx, OFFSET FLAT:??_C@_1LG@MEJFBKPC@?$AAC?$AA?3?$AA?2?$AAU?$AAs?$AAe?$AAr?$AAs?$AA?2?$AAk?$AAs?$AAa?$AAr?$AAt?$AA?2@
	lea	rcx, OFFSET FLAT:??_C@_1DK@BGNCJAPL@?$AAi?$AA?5?$AA?$DO?$AA?$DN?$AA?5?$AA0?$AA?5?$AA?$CG?$AA?$CG?$AA?5?$AAi?$AA?5?$AA?$DM?$AA?5?$AAt@
	call	QWORD PTR __imp__wassert
	xor	eax, eax
$LN4@operator:

; 153  : 		return (&x)[i];

	movsxd	rax, DWORD PTR i$[rsp]
	mov	rcx, QWORD PTR this$[rsp]
	lea	rax, QWORD PTR [rcx+rax*4]

; 154  : 	}

	add	rsp, 32					; 00000020H
	pop	rdi
	ret	0
??A?$tvec3@M$0A@@glm@@QEBAAEBMH@Z ENDP			; glm::tvec3<float,0>::operator[]
_TEXT	ENDS
; Function compile flags: /Odtp /RTCsu
; File C:\Users\ksart\OneDrive\Desktop\FlappyBird\libraries\external\glm\glm\detail\type_vec3.inl
;	COMDAT ??A?$tvec3@M$0A@@glm@@QEAAAEAMH@Z
_TEXT	SEGMENT
this$ = 48
i$ = 56
??A?$tvec3@M$0A@@glm@@QEAAAEAMH@Z PROC			; glm::tvec3<float,0>::operator[], COMDAT

; 144  : 	{

$LN5:
	mov	DWORD PTR [rsp+16], edx
	mov	QWORD PTR [rsp+8], rcx
	push	rdi
	sub	rsp, 32					; 00000020H

; 145  : 		assert(i >= 0 && i < this->length());

	cmp	DWORD PTR i$[rsp], 0
	jl	SHORT $LN3@operator
	call	?length@?$tvec3@M$0A@@glm@@SAHXZ	; glm::tvec3<float,0>::length
	cmp	DWORD PTR i$[rsp], eax
	jl	SHORT $LN4@operator
$LN3@operator:
	mov	r8d, 145				; 00000091H
	lea	rdx, OFFSET FLAT:??_C@_1LG@MEJFBKPC@?$AAC?$AA?3?$AA?2?$AAU?$AAs?$AAe?$AAr?$AAs?$AA?2?$AAk?$AAs?$AAa?$AAr?$AAt?$AA?2@
	lea	rcx, OFFSET FLAT:??_C@_1DK@BGNCJAPL@?$AAi?$AA?5?$AA?$DO?$AA?$DN?$AA?5?$AA0?$AA?5?$AA?$CG?$AA?$CG?$AA?5?$AAi?$AA?5?$AA?$DM?$AA?5?$AAt@
	call	QWORD PTR __imp__wassert
	xor	eax, eax
$LN4@operator:

; 146  : 		return (&x)[i];

	movsxd	rax, DWORD PTR i$[rsp]
	mov	rcx, QWORD PTR this$[rsp]
	lea	rax, QWORD PTR [rcx+rax*4]

; 147  : 	}

	add	rsp, 32					; 00000020H
	pop	rdi
	ret	0
??A?$tvec3@M$0A@@glm@@QEAAAEAMH@Z ENDP			; glm::tvec3<float,0>::operator[]
_TEXT	ENDS
; Function compile flags: /Odtp /RTCsu
; File C:\Users\ksart\OneDrive\Desktop\FlappyBird\libraries\external\glm\glm\detail\type_vec3.hpp
;	COMDAT ?length@?$tvec3@M$0A@@glm@@SAHXZ
_TEXT	SEGMENT
?length@?$tvec3@M$0A@@glm@@SAHXZ PROC			; glm::tvec3<float,0>::length, COMDAT

; 82   : 		GLM_FUNC_DECL static length_type length(){return 3;}

$LN3:
	push	rdi
	mov	eax, 3
	pop	rdi
	ret	0
?length@?$tvec3@M$0A@@glm@@SAHXZ ENDP			; glm::tvec3<float,0>::length
_TEXT	ENDS
; Function compile flags: /Odtp /RTCsu
; File C:\Users\ksart\OneDrive\Desktop\FlappyBird\libraries\external\glm\test\gtc\gtc_matrix_inverse.cpp
_TEXT	SEGMENT
Error$ = 144
M$11 = 168
A$12 = 232
I$13 = 296
R$14 = 360
i$15 = 404
M$16 = 432
A$17 = 528
I$18 = 624
R$19 = 720
i$20 = 788
$T21 = 800
$T22 = 804
$T23 = 808
$T24 = 812
$T25 = 816
$T26 = 820
$T27 = 824
$T28 = 828
$T29 = 832
$T30 = 836
$T31 = 840
$T32 = 844
$T33 = 848
$T34 = 852
$T35 = 856
$T36 = 860
$T37 = 864
$T38 = 868
$T39 = 872
$T40 = 876
$T41 = 880
$T42 = 884
$T43 = 888
$T44 = 892
tv87 = 896
tv130 = 904
tv136 = 912
tv147 = 920
tv179 = 928
tv190 = 936
tv228 = 944
tv239 = 952
__$ArrayPad$ = 960
?test_affine@@YAHXZ PROC				; test_affine

; 5    : {

$LN17:
	push	rdi
	sub	rsp, 976				; 000003d0H
	lea	rdi, QWORD PTR [rsp+144]
	mov	ecx, 208				; 000000d0H
	mov	eax, -858993460				; ccccccccH
	rep stosd
	mov	rax, QWORD PTR __security_cookie
	xor	rax, rsp
	mov	QWORD PTR __$ArrayPad$[rsp], rax

; 6    : 	int Error = 0;

	mov	DWORD PTR Error$[rsp], 0

; 7    : 
; 8    : 	{
; 9    : 		glm::mat3 const M(

	movss	xmm0, DWORD PTR __real@3f800000
	movss	DWORD PTR [rsp+72], xmm0
	xorps	xmm0, xmm0
	movss	DWORD PTR [rsp+64], xmm0
	xorps	xmm0, xmm0
	movss	DWORD PTR [rsp+56], xmm0
	xorps	xmm0, xmm0
	movss	DWORD PTR [rsp+48], xmm0
	movss	xmm0, DWORD PTR __real@40000000
	movss	DWORD PTR [rsp+40], xmm0
	xorps	xmm0, xmm0
	movss	DWORD PTR [rsp+32], xmm0
	xorps	xmm3, xmm3
	xorps	xmm2, xmm2
	movss	xmm1, DWORD PTR __real@40000000
	lea	rcx, QWORD PTR M$11[rsp]
	call	??0?$tmat3x3@M$0A@@glm@@QEAA@MMMMMMMMM@Z ; glm::tmat3x3<float,0>::tmat3x3<float,0>

; 10   : 			2.f, 0.f, 0.f,
; 11   : 			0.f, 2.f, 0.f,
; 12   : 			0.f, 0.f, 1.f);
; 13   : 		glm::mat3 const A = glm::affineInverse(M);

	lea	rdx, QWORD PTR M$11[rsp]
	lea	rcx, QWORD PTR A$12[rsp]
	call	??$affineInverse@M$0A@@glm@@YA?AU?$tmat3x3@M$0A@@0@AEBU10@@Z ; glm::affineInverse<float,0>

; 14   : 		glm::mat3 const I = glm::inverse(M);

	lea	rdx, QWORD PTR M$11[rsp]
	lea	rcx, QWORD PTR I$13[rsp]
	call	??$inverse@M$0A@Utmat3x3@glm@@@glm@@YA?AU?$tmat3x3@M$0A@@0@AEBU10@@Z ; glm::inverse<float,0,glm::tmat3x3>

; 15   : 		glm::mat3 const R = glm::affineInverse(A);

	lea	rdx, QWORD PTR A$12[rsp]
	lea	rcx, QWORD PTR R$14[rsp]
	call	??$affineInverse@M$0A@@glm@@YA?AU?$tmat3x3@M$0A@@0@AEBU10@@Z ; glm::affineInverse<float,0>

; 16   : 
; 17   : 		for(glm::length_t i = 0; i < A.length(); ++i)

	mov	DWORD PTR i$15[rsp], 0
	jmp	SHORT $LN4@test_affin
$LN2@test_affin:
	mov	eax, DWORD PTR i$15[rsp]
	inc	eax
	mov	DWORD PTR i$15[rsp], eax
$LN4@test_affin:
	call	?length@?$tmat3x3@M$0A@@glm@@SAHXZ	; glm::tmat3x3<float,0>::length
	cmp	DWORD PTR i$15[rsp], eax
	jge	$LN3@test_affin

; 18   : 		{
; 19   : 			Error += glm::all(glm::epsilonEqual(M[i], R[i], 0.01f)) ? 0 : 1;

	movss	xmm0, DWORD PTR __real@3c23d70a
	movss	DWORD PTR $T21[rsp], xmm0
	mov	edx, DWORD PTR i$15[rsp]
	lea	rcx, QWORD PTR R$14[rsp]
	call	??A?$tmat3x3@M$0A@@glm@@QEBAAEBU?$tvec3@M$0A@@1@H@Z ; glm::tmat3x3<float,0>::operator[]
	mov	QWORD PTR tv87[rsp], rax
	mov	edx, DWORD PTR i$15[rsp]
	lea	rcx, QWORD PTR M$11[rsp]
	call	??A?$tmat3x3@M$0A@@glm@@QEBAAEBU?$tvec3@M$0A@@1@H@Z ; glm::tmat3x3<float,0>::operator[]
	lea	r9, QWORD PTR $T21[rsp]
	mov	rcx, QWORD PTR tv87[rsp]
	mov	r8, rcx
	mov	rdx, rax
	lea	rcx, QWORD PTR $T22[rsp]
	call	??$epsilonEqual@M$0A@Utvec3@glm@@@glm@@YA?AU?$tvec3@_N$0A@@0@AEBU?$tvec3@M$0A@@0@0AEBM@Z ; glm::epsilonEqual<float,0,glm::tvec3>
	mov	rcx, rax
	call	??$all@$0A@Utvec3@glm@@@glm@@YA_NAEBU?$tvec3@_N$0A@@0@@Z ; glm::all<0,glm::tvec3>
	movzx	eax, al
	test	eax, eax
	je	SHORT $LN9@test_affin
	mov	DWORD PTR tv130[rsp], 0
	jmp	SHORT $LN10@test_affin
$LN9@test_affin:
	mov	DWORD PTR tv130[rsp], 1
$LN10@test_affin:
	mov	eax, DWORD PTR tv130[rsp]
	mov	ecx, DWORD PTR Error$[rsp]
	add	ecx, eax
	mov	eax, ecx
	mov	DWORD PTR Error$[rsp], eax

; 20   : 			Error += glm::all(glm::epsilonEqual(A[i], I[i], 0.01f)) ? 0 : 1;

	movss	xmm0, DWORD PTR __real@3c23d70a
	movss	DWORD PTR $T23[rsp], xmm0
	mov	edx, DWORD PTR i$15[rsp]
	lea	rcx, QWORD PTR I$13[rsp]
	call	??A?$tmat3x3@M$0A@@glm@@QEBAAEBU?$tvec3@M$0A@@1@H@Z ; glm::tmat3x3<float,0>::operator[]
	mov	QWORD PTR tv136[rsp], rax
	mov	edx, DWORD PTR i$15[rsp]
	lea	rcx, QWORD PTR A$12[rsp]
	call	??A?$tmat3x3@M$0A@@glm@@QEBAAEBU?$tvec3@M$0A@@1@H@Z ; glm::tmat3x3<float,0>::operator[]
	lea	r9, QWORD PTR $T23[rsp]
	mov	rcx, QWORD PTR tv136[rsp]
	mov	r8, rcx
	mov	rdx, rax
	lea	rcx, QWORD PTR $T24[rsp]
	call	??$epsilonEqual@M$0A@Utvec3@glm@@@glm@@YA?AU?$tvec3@_N$0A@@0@AEBU?$tvec3@M$0A@@0@0AEBM@Z ; glm::epsilonEqual<float,0,glm::tvec3>
	mov	rcx, rax
	call	??$all@$0A@Utvec3@glm@@@glm@@YA_NAEBU?$tvec3@_N$0A@@0@@Z ; glm::all<0,glm::tvec3>
	movzx	eax, al
	test	eax, eax
	je	SHORT $LN11@test_affin
	mov	DWORD PTR tv147[rsp], 0
	jmp	SHORT $LN12@test_affin
$LN11@test_affin:
	mov	DWORD PTR tv147[rsp], 1
$LN12@test_affin:
	mov	eax, DWORD PTR tv147[rsp]
	mov	ecx, DWORD PTR Error$[rsp]
	add	ecx, eax
	mov	eax, ecx
	mov	DWORD PTR Error$[rsp], eax

; 21   : 		}

	jmp	$LN2@test_affin
$LN3@test_affin:

; 22   : 	}
; 23   : 
; 24   : 	{
; 25   : 		glm::mat4 const M(

	movss	xmm0, DWORD PTR __real@3f800000
	movss	DWORD PTR $T25[rsp], xmm0
	xorps	xmm0, xmm0
	movss	DWORD PTR $T26[rsp], xmm0
	xorps	xmm0, xmm0
	movss	DWORD PTR $T27[rsp], xmm0
	xorps	xmm0, xmm0
	movss	DWORD PTR $T28[rsp], xmm0
	xorps	xmm0, xmm0
	movss	DWORD PTR $T29[rsp], xmm0
	movss	xmm0, DWORD PTR __real@40000000
	movss	DWORD PTR $T30[rsp], xmm0
	xorps	xmm0, xmm0
	movss	DWORD PTR $T31[rsp], xmm0
	xorps	xmm0, xmm0
	movss	DWORD PTR $T32[rsp], xmm0
	xorps	xmm0, xmm0
	movss	DWORD PTR $T33[rsp], xmm0
	xorps	xmm0, xmm0
	movss	DWORD PTR $T34[rsp], xmm0
	movss	xmm0, DWORD PTR __real@40000000
	movss	DWORD PTR $T35[rsp], xmm0
	xorps	xmm0, xmm0
	movss	DWORD PTR $T36[rsp], xmm0
	xorps	xmm0, xmm0
	movss	DWORD PTR $T37[rsp], xmm0
	xorps	xmm0, xmm0
	movss	DWORD PTR $T38[rsp], xmm0
	xorps	xmm0, xmm0
	movss	DWORD PTR $T39[rsp], xmm0
	movss	xmm0, DWORD PTR __real@40000000
	movss	DWORD PTR $T40[rsp], xmm0
	lea	rax, QWORD PTR $T25[rsp]
	mov	QWORD PTR [rsp+128], rax
	lea	rax, QWORD PTR $T26[rsp]
	mov	QWORD PTR [rsp+120], rax
	lea	rax, QWORD PTR $T27[rsp]
	mov	QWORD PTR [rsp+112], rax
	lea	rax, QWORD PTR $T28[rsp]
	mov	QWORD PTR [rsp+104], rax
	lea	rax, QWORD PTR $T29[rsp]
	mov	QWORD PTR [rsp+96], rax
	lea	rax, QWORD PTR $T30[rsp]
	mov	QWORD PTR [rsp+88], rax
	lea	rax, QWORD PTR $T31[rsp]
	mov	QWORD PTR [rsp+80], rax
	lea	rax, QWORD PTR $T32[rsp]
	mov	QWORD PTR [rsp+72], rax
	lea	rax, QWORD PTR $T33[rsp]
	mov	QWORD PTR [rsp+64], rax
	lea	rax, QWORD PTR $T34[rsp]
	mov	QWORD PTR [rsp+56], rax
	lea	rax, QWORD PTR $T35[rsp]
	mov	QWORD PTR [rsp+48], rax
	lea	rax, QWORD PTR $T36[rsp]
	mov	QWORD PTR [rsp+40], rax
	lea	rax, QWORD PTR $T37[rsp]
	mov	QWORD PTR [rsp+32], rax
	lea	r9, QWORD PTR $T38[rsp]
	lea	r8, QWORD PTR $T39[rsp]
	lea	rdx, QWORD PTR $T40[rsp]
	lea	rcx, QWORD PTR M$16[rsp]
	call	??0?$tmat4x4@M$0A@@glm@@QEAA@AEBM000000000000000@Z ; glm::tmat4x4<float,0>::tmat4x4<float,0>

; 26   : 			2.f, 0.f, 0.f, 0.f,
; 27   : 			0.f, 2.f, 0.f, 0.f,
; 28   : 			0.f, 0.f, 2.f, 0.f,
; 29   : 			0.f, 0.f, 0.f, 1.f);
; 30   : 		glm::mat4 const A = glm::affineInverse(M);

	lea	rdx, QWORD PTR M$16[rsp]
	lea	rcx, QWORD PTR A$17[rsp]
	call	??$affineInverse@M$0A@@glm@@YA?AU?$tmat4x4@M$0A@@0@AEBU10@@Z ; glm::affineInverse<float,0>

; 31   : 		glm::mat4 const I = glm::inverse(M);

	lea	rdx, QWORD PTR M$16[rsp]
	lea	rcx, QWORD PTR I$18[rsp]
	call	??$inverse@M$0A@Utmat4x4@glm@@@glm@@YA?AU?$tmat4x4@M$0A@@0@AEBU10@@Z ; glm::inverse<float,0,glm::tmat4x4>

; 32   : 		glm::mat4 const R = glm::affineInverse(A);

	lea	rdx, QWORD PTR A$17[rsp]
	lea	rcx, QWORD PTR R$19[rsp]
	call	??$affineInverse@M$0A@@glm@@YA?AU?$tmat4x4@M$0A@@0@AEBU10@@Z ; glm::affineInverse<float,0>

; 33   : 
; 34   : 		for(glm::length_t i = 0; i < A.length(); ++i)

	mov	DWORD PTR i$20[rsp], 0
	jmp	SHORT $LN7@test_affin
$LN5@test_affin:
	mov	eax, DWORD PTR i$20[rsp]
	inc	eax
	mov	DWORD PTR i$20[rsp], eax
$LN7@test_affin:
	call	?length@?$tmat4x4@M$0A@@glm@@SAHXZ	; glm::tmat4x4<float,0>::length
	cmp	DWORD PTR i$20[rsp], eax
	jge	$LN6@test_affin

; 35   : 		{
; 36   : 			Error += glm::all(glm::epsilonEqual(M[i], R[i], 0.01f)) ? 0 : 1;

	movss	xmm0, DWORD PTR __real@3c23d70a
	movss	DWORD PTR $T41[rsp], xmm0
	mov	edx, DWORD PTR i$20[rsp]
	lea	rcx, QWORD PTR R$19[rsp]
	call	??A?$tmat4x4@M$0A@@glm@@QEBAAEBU?$tvec4@M$0A@@1@H@Z ; glm::tmat4x4<float,0>::operator[]
	mov	QWORD PTR tv179[rsp], rax
	mov	edx, DWORD PTR i$20[rsp]
	lea	rcx, QWORD PTR M$16[rsp]
	call	??A?$tmat4x4@M$0A@@glm@@QEBAAEBU?$tvec4@M$0A@@1@H@Z ; glm::tmat4x4<float,0>::operator[]
	lea	r9, QWORD PTR $T41[rsp]
	mov	rcx, QWORD PTR tv179[rsp]
	mov	r8, rcx
	mov	rdx, rax
	lea	rcx, QWORD PTR $T42[rsp]
	call	??$epsilonEqual@M$0A@Utvec4@glm@@@glm@@YA?AU?$tvec4@_N$0A@@0@AEBU?$tvec4@M$0A@@0@0AEBM@Z ; glm::epsilonEqual<float,0,glm::tvec4>
	mov	rcx, rax
	call	??$all@$0A@Utvec4@glm@@@glm@@YA_NAEBU?$tvec4@_N$0A@@0@@Z ; glm::all<0,glm::tvec4>
	movzx	eax, al
	test	eax, eax
	je	SHORT $LN13@test_affin
	mov	DWORD PTR tv190[rsp], 0
	jmp	SHORT $LN14@test_affin
$LN13@test_affin:
	mov	DWORD PTR tv190[rsp], 1
$LN14@test_affin:
	mov	eax, DWORD PTR tv190[rsp]
	mov	ecx, DWORD PTR Error$[rsp]
	add	ecx, eax
	mov	eax, ecx
	mov	DWORD PTR Error$[rsp], eax

; 37   : 			Error += glm::all(glm::epsilonEqual(A[i], I[i], 0.01f)) ? 0 : 1;

	movss	xmm0, DWORD PTR __real@3c23d70a
	movss	DWORD PTR $T43[rsp], xmm0
	mov	edx, DWORD PTR i$20[rsp]
	lea	rcx, QWORD PTR I$18[rsp]
	call	??A?$tmat4x4@M$0A@@glm@@QEBAAEBU?$tvec4@M$0A@@1@H@Z ; glm::tmat4x4<float,0>::operator[]
	mov	QWORD PTR tv228[rsp], rax
	mov	edx, DWORD PTR i$20[rsp]
	lea	rcx, QWORD PTR A$17[rsp]
	call	??A?$tmat4x4@M$0A@@glm@@QEBAAEBU?$tvec4@M$0A@@1@H@Z ; glm::tmat4x4<float,0>::operator[]
	lea	r9, QWORD PTR $T43[rsp]
	mov	rcx, QWORD PTR tv228[rsp]
	mov	r8, rcx
	mov	rdx, rax
	lea	rcx, QWORD PTR $T44[rsp]
	call	??$epsilonEqual@M$0A@Utvec4@glm@@@glm@@YA?AU?$tvec4@_N$0A@@0@AEBU?$tvec4@M$0A@@0@0AEBM@Z ; glm::epsilonEqual<float,0,glm::tvec4>
	mov	rcx, rax
	call	??$all@$0A@Utvec4@glm@@@glm@@YA_NAEBU?$tvec4@_N$0A@@0@@Z ; glm::all<0,glm::tvec4>
	movzx	eax, al
	test	eax, eax
	je	SHORT $LN15@test_affin
	mov	DWORD PTR tv239[rsp], 0
	jmp	SHORT $LN16@test_affin
$LN15@test_affin:
	mov	DWORD PTR tv239[rsp], 1
$LN16@test_affin:
	mov	eax, DWORD PTR tv239[rsp]
	mov	ecx, DWORD PTR Error$[rsp]
	add	ecx, eax
	mov	eax, ecx
	mov	DWORD PTR Error$[rsp], eax

; 38   : 		}

	jmp	$LN5@test_affin
$LN6@test_affin:

; 39   : 	}
; 40   : 
; 41   : 	return Error;

	mov	eax, DWORD PTR Error$[rsp]

; 42   : }

	mov	edi, eax
	mov	rcx, rsp
	lea	rdx, OFFSET FLAT:?test_affine@@YAHXZ$rtcFrameData
	call	_RTC_CheckStackVars
	mov	eax, edi
	mov	rcx, QWORD PTR __$ArrayPad$[rsp]
	xor	rcx, rsp
	call	__security_check_cookie
	add	rsp, 976				; 000003d0H
	pop	rdi
	ret	0
?test_affine@@YAHXZ ENDP				; test_affine
_TEXT	ENDS
; Function compile flags: /Odtp /RTCsu
; File C:\Users\ksart\OneDrive\Desktop\FlappyBird\libraries\external\glm\glm\detail\func_common.inl
;	COMDAT ??$abs@M@glm@@YAMM@Z
_TEXT	SEGMENT
x$ = 64
??$abs@M@glm@@YAMM@Z PROC				; glm::abs<float>, COMDAT

; 310  : 	{

$LN3:
	movss	DWORD PTR [rsp+8], xmm0
	push	rdi
	sub	rsp, 48					; 00000030H

; 311  : 		return detail::compute_abs<genFIType, std::numeric_limits<genFIType>::is_signed>::call(x);

	movss	xmm0, DWORD PTR x$[rsp]
	call	?call@?$compute_abs@M$00@detail@glm@@SAMM@Z ; glm::detail::compute_abs<float,1>::call

; 312  : 	}

	add	rsp, 48					; 00000030H
	pop	rdi
	ret	0
??$abs@M@glm@@YAMM@Z ENDP				; glm::abs<float>
_TEXT	ENDS
; Function compile flags: /Odtp /RTCsu
;	COMDAT ??_H@YAXPEAX_K1P6APEAX0@Z@Z
_TEXT	SEGMENT
tv66 = 32
tv67 = 40
__t$ = 64
__s$ = 72
__n$ = 80
__f$ = 88
??_H@YAXPEAX_K1P6APEAX0@Z@Z PROC			; `vector constructor iterator', COMDAT
$LN7:
	mov	QWORD PTR [rsp+32], r9
	mov	QWORD PTR [rsp+24], r8
	mov	QWORD PTR [rsp+16], rdx
	mov	QWORD PTR [rsp+8], rcx
	push	rdi
	sub	rsp, 48					; 00000030H
$LN2@vector:
	mov	rax, QWORD PTR __n$[rsp]
	mov	QWORD PTR tv66[rsp], rax
	mov	rax, QWORD PTR __n$[rsp]
	dec	rax
	mov	QWORD PTR __n$[rsp], rax
	cmp	QWORD PTR tv66[rsp], 0
	jbe	SHORT $LN5@vector
	mov	DWORD PTR tv67[rsp], 1
	jmp	SHORT $LN6@vector
$LN5@vector:
	mov	DWORD PTR tv67[rsp], 0
$LN6@vector:
	cmp	DWORD PTR tv67[rsp], 0
	je	SHORT $LN3@vector
	mov	rcx, QWORD PTR __t$[rsp]
	call	QWORD PTR __f$[rsp]
	mov	rax, QWORD PTR __s$[rsp]
	mov	rcx, QWORD PTR __t$[rsp]
	add	rcx, rax
	mov	rax, rcx
	mov	QWORD PTR __t$[rsp], rax
	jmp	SHORT $LN2@vector
$LN3@vector:
	add	rsp, 48					; 00000030H
	pop	rdi
	ret	0
??_H@YAXPEAX_K1P6APEAX0@Z@Z ENDP			; `vector constructor iterator'
_TEXT	ENDS
END
