; Listing generated by Microsoft (R) Optimizing Compiler Version 19.32.31329.0 

include listing.inc

INCLUDELIB MSVCRTD

PUBLIC	??_H@YAXPEAX_K1P6APEAX0@Z@Z			; `vector constructor iterator'
PUBLIC	??$abs@M@glm@@YAMM@Z				; glm::abs<float>
PUBLIC	?test_matrixCompMult@@YAHXZ			; test_matrixCompMult
PUBLIC	?length@?$tvec2@M$0A@@glm@@SAHXZ		; glm::tvec2<float,0>::length
PUBLIC	??A?$tvec2@M$0A@@glm@@QEAAAEAMH@Z		; glm::tvec2<float,0>::operator[]
PUBLIC	??A?$tvec2@M$0A@@glm@@QEBAAEBMH@Z		; glm::tvec2<float,0>::operator[]
PUBLIC	??0?$tvec2@M$0A@@glm@@QEAA@XZ			; glm::tvec2<float,0>::tvec2<float,0>
PUBLIC	??0?$tvec2@M$0A@@glm@@QEAA@M@Z			; glm::tvec2<float,0>::tvec2<float,0>
PUBLIC	??0?$tvec2@M$0A@@glm@@QEAA@MM@Z			; glm::tvec2<float,0>::tvec2<float,0>
PUBLIC	??0?$tmat2x2@M$0A@@glm@@QEAA@W4ctor@1@@Z	; glm::tmat2x2<float,0>::tmat2x2<float,0>
PUBLIC	??0?$tmat2x2@M$0A@@glm@@QEAA@M@Z		; glm::tmat2x2<float,0>::tmat2x2<float,0>
PUBLIC	??0?$tmat2x2@M$0A@@glm@@QEAA@AEBM000@Z		; glm::tmat2x2<float,0>::tmat2x2<float,0>
PUBLIC	??0?$tmat2x2@M$0A@@glm@@QEAA@AEBU?$tvec2@M$0A@@1@0@Z ; glm::tmat2x2<float,0>::tmat2x2<float,0>
PUBLIC	?length@?$tmat2x2@M$0A@@glm@@SAHXZ		; glm::tmat2x2<float,0>::length
PUBLIC	??A?$tmat2x2@M$0A@@glm@@QEAAAEAU?$tvec2@M$0A@@1@H@Z ; glm::tmat2x2<float,0>::operator[]
PUBLIC	??A?$tmat2x2@M$0A@@glm@@QEBAAEBU?$tvec2@M$0A@@1@H@Z ; glm::tmat2x2<float,0>::operator[]
PUBLIC	??$?0HHHH@?$tmat2x2@M$0A@@glm@@QEAA@AEBH000@Z	; glm::tmat2x2<float,0>::tmat2x2<float,0><int,int,int,int>
PUBLIC	??$matrixCompMult@M$0A@Utmat2x2@glm@@@glm@@YA?AU?$tmat2x2@M$0A@@0@AEBU10@0@Z ; glm::matrixCompMult<float,0,glm::tmat2x2>
PUBLIC	??$?8M$0A@@glm@@YA_NAEBU?$tmat2x2@M$0A@@0@0@Z	; glm::operator==<float,0>
PUBLIC	?length@?$tvec3@M$0A@@glm@@SAHXZ		; glm::tvec3<float,0>::length
PUBLIC	??A?$tvec3@M$0A@@glm@@QEAAAEAMH@Z		; glm::tvec3<float,0>::operator[]
PUBLIC	??A?$tvec3@M$0A@@glm@@QEBAAEBMH@Z		; glm::tvec3<float,0>::operator[]
PUBLIC	??0?$tvec3@M$0A@@glm@@QEAA@XZ			; glm::tvec3<float,0>::tvec3<float,0>
PUBLIC	??0?$tvec3@M$0A@@glm@@QEAA@M@Z			; glm::tvec3<float,0>::tvec3<float,0>
PUBLIC	??0?$tvec3@M$0A@@glm@@QEAA@MMM@Z		; glm::tvec3<float,0>::tvec3<float,0>
PUBLIC	??0?$tmat2x3@M$0A@@glm@@QEAA@W4ctor@1@@Z	; glm::tmat2x3<float,0>::tmat2x3<float,0>
PUBLIC	?length@?$tmat2x3@M$0A@@glm@@SAHXZ		; glm::tmat2x3<float,0>::length
PUBLIC	??A?$tmat2x3@M$0A@@glm@@QEAAAEAU?$tvec3@M$0A@@1@H@Z ; glm::tmat2x3<float,0>::operator[]
PUBLIC	??A?$tmat2x3@M$0A@@glm@@QEBAAEBU?$tvec3@M$0A@@1@H@Z ; glm::tmat2x3<float,0>::operator[]
PUBLIC	??$?0HHHHHH@?$tmat2x3@M$0A@@glm@@QEAA@HHHHHH@Z	; glm::tmat2x3<float,0>::tmat2x3<float,0><int,int,int,int,int,int>
PUBLIC	??$matrixCompMult@M$0A@Utmat2x3@glm@@@glm@@YA?AU?$tmat2x3@M$0A@@0@AEBU10@0@Z ; glm::matrixCompMult<float,0,glm::tmat2x3>
PUBLIC	??$?8M$0A@@glm@@YA_NAEBU?$tmat2x3@M$0A@@0@0@Z	; glm::operator==<float,0>
PUBLIC	?length@?$tvec4@M$0A@@glm@@SAHXZ		; glm::tvec4<float,0>::length
PUBLIC	??A?$tvec4@M$0A@@glm@@QEAAAEAMH@Z		; glm::tvec4<float,0>::operator[]
PUBLIC	??A?$tvec4@M$0A@@glm@@QEBAAEBMH@Z		; glm::tvec4<float,0>::operator[]
PUBLIC	??0?$tvec4@M$0A@@glm@@QEAA@XZ			; glm::tvec4<float,0>::tvec4<float,0>
PUBLIC	??0?$tvec4@M$0A@@glm@@QEAA@M@Z			; glm::tvec4<float,0>::tvec4<float,0>
PUBLIC	??0?$tvec4@M$0A@@glm@@QEAA@MMMM@Z		; glm::tvec4<float,0>::tvec4<float,0>
PUBLIC	??0?$tmat2x4@M$0A@@glm@@QEAA@W4ctor@1@@Z	; glm::tmat2x4<float,0>::tmat2x4<float,0>
PUBLIC	?length@?$tmat2x4@M$0A@@glm@@SAHXZ		; glm::tmat2x4<float,0>::length
PUBLIC	??A?$tmat2x4@M$0A@@glm@@QEAAAEAU?$tvec4@M$0A@@1@H@Z ; glm::tmat2x4<float,0>::operator[]
PUBLIC	??A?$tmat2x4@M$0A@@glm@@QEBAAEBU?$tvec4@M$0A@@1@H@Z ; glm::tmat2x4<float,0>::operator[]
PUBLIC	??$?0HHHHHHHH@?$tmat2x4@M$0A@@glm@@QEAA@HHHHHHHH@Z ; glm::tmat2x4<float,0>::tmat2x4<float,0><int,int,int,int,int,int,int,int>
PUBLIC	??$matrixCompMult@M$0A@Utmat2x4@glm@@@glm@@YA?AU?$tmat2x4@M$0A@@0@AEBU10@0@Z ; glm::matrixCompMult<float,0,glm::tmat2x4>
PUBLIC	??$?8M$0A@@glm@@YA_NAEBU?$tmat2x4@M$0A@@0@0@Z	; glm::operator==<float,0>
PUBLIC	??0?$tmat3x3@M$0A@@glm@@QEAA@W4ctor@1@@Z	; glm::tmat3x3<float,0>::tmat3x3<float,0>
PUBLIC	??0?$tmat3x3@M$0A@@glm@@QEAA@M@Z		; glm::tmat3x3<float,0>::tmat3x3<float,0>
PUBLIC	??0?$tmat3x3@M$0A@@glm@@QEAA@AEBU?$tvec3@M$0A@@1@00@Z ; glm::tmat3x3<float,0>::tmat3x3<float,0>
PUBLIC	?length@?$tmat3x3@M$0A@@glm@@SAHXZ		; glm::tmat3x3<float,0>::length
PUBLIC	??A?$tmat3x3@M$0A@@glm@@QEAAAEAU?$tvec3@M$0A@@1@H@Z ; glm::tmat3x3<float,0>::operator[]
PUBLIC	??A?$tmat3x3@M$0A@@glm@@QEBAAEBU?$tvec3@M$0A@@1@H@Z ; glm::tmat3x3<float,0>::operator[]
PUBLIC	??$?0HHHHHHHHH@?$tmat3x3@M$0A@@glm@@QEAA@HHHHHHHHH@Z ; glm::tmat3x3<float,0>::tmat3x3<float,0><int,int,int,int,int,int,int,int,int>
PUBLIC	??$matrixCompMult@M$0A@Utmat3x3@glm@@@glm@@YA?AU?$tmat3x3@M$0A@@0@AEBU10@0@Z ; glm::matrixCompMult<float,0,glm::tmat3x3>
PUBLIC	??$?8M$0A@@glm@@YA_NAEBU?$tmat3x3@M$0A@@0@0@Z	; glm::operator==<float,0>
PUBLIC	??0?$tmat3x2@M$0A@@glm@@QEAA@W4ctor@1@@Z	; glm::tmat3x2<float,0>::tmat3x2<float,0>
PUBLIC	?length@?$tmat3x2@M$0A@@glm@@SAHXZ		; glm::tmat3x2<float,0>::length
PUBLIC	??A?$tmat3x2@M$0A@@glm@@QEAAAEAU?$tvec2@M$0A@@1@H@Z ; glm::tmat3x2<float,0>::operator[]
PUBLIC	??A?$tmat3x2@M$0A@@glm@@QEBAAEBU?$tvec2@M$0A@@1@H@Z ; glm::tmat3x2<float,0>::operator[]
PUBLIC	??$?0HHHHHH@?$tmat3x2@M$0A@@glm@@QEAA@HHHHHH@Z	; glm::tmat3x2<float,0>::tmat3x2<float,0><int,int,int,int,int,int>
PUBLIC	??$matrixCompMult@M$0A@Utmat3x2@glm@@@glm@@YA?AU?$tmat3x2@M$0A@@0@AEBU10@0@Z ; glm::matrixCompMult<float,0,glm::tmat3x2>
PUBLIC	??$?8M$0A@@glm@@YA_NAEBU?$tmat3x2@M$0A@@0@0@Z	; glm::operator==<float,0>
PUBLIC	??0?$tmat3x4@M$0A@@glm@@QEAA@W4ctor@1@@Z	; glm::tmat3x4<float,0>::tmat3x4<float,0>
PUBLIC	?length@?$tmat3x4@M$0A@@glm@@SAHXZ		; glm::tmat3x4<float,0>::length
PUBLIC	??A?$tmat3x4@M$0A@@glm@@QEAAAEAU?$tvec4@M$0A@@1@H@Z ; glm::tmat3x4<float,0>::operator[]
PUBLIC	??A?$tmat3x4@M$0A@@glm@@QEBAAEBU?$tvec4@M$0A@@1@H@Z ; glm::tmat3x4<float,0>::operator[]
PUBLIC	??$?0HHHHHHHHHHHH@?$tmat3x4@M$0A@@glm@@QEAA@HHHHHHHHHHHH@Z ; glm::tmat3x4<float,0>::tmat3x4<float,0><int,int,int,int,int,int,int,int,int,int,int,int>
PUBLIC	??$matrixCompMult@M$0A@Utmat3x4@glm@@@glm@@YA?AU?$tmat3x4@M$0A@@0@AEBU10@0@Z ; glm::matrixCompMult<float,0,glm::tmat3x4>
PUBLIC	??$?8M$0A@@glm@@YA_NAEBU?$tmat3x4@M$0A@@0@0@Z	; glm::operator==<float,0>
PUBLIC	??0?$tmat4x4@M$0A@@glm@@QEAA@W4ctor@1@@Z	; glm::tmat4x4<float,0>::tmat4x4<float,0>
PUBLIC	??0?$tmat4x4@M$0A@@glm@@QEAA@AEBM@Z		; glm::tmat4x4<float,0>::tmat4x4<float,0>
PUBLIC	??0?$tmat4x4@M$0A@@glm@@QEAA@AEBU?$tvec4@M$0A@@1@000@Z ; glm::tmat4x4<float,0>::tmat4x4<float,0>
PUBLIC	?length@?$tmat4x4@M$0A@@glm@@SAHXZ		; glm::tmat4x4<float,0>::length
PUBLIC	??A?$tmat4x4@M$0A@@glm@@QEAAAEAU?$tvec4@M$0A@@1@H@Z ; glm::tmat4x4<float,0>::operator[]
PUBLIC	??A?$tmat4x4@M$0A@@glm@@QEBAAEBU?$tvec4@M$0A@@1@H@Z ; glm::tmat4x4<float,0>::operator[]
PUBLIC	??$?0HHHHHHHHHHHHHHHH@?$tmat4x4@M$0A@@glm@@QEAA@AEBH000000000000000@Z ; glm::tmat4x4<float,0>::tmat4x4<float,0><int,int,int,int,int,int,int,int,int,int,int,int,int,int,int,int>
PUBLIC	??$matrixCompMult@M$0A@Utmat4x4@glm@@@glm@@YA?AU?$tmat4x4@M$0A@@0@AEBU10@0@Z ; glm::matrixCompMult<float,0,glm::tmat4x4>
PUBLIC	??$?8M$0A@@glm@@YA_NAEBU?$tmat4x4@M$0A@@0@0@Z	; glm::operator==<float,0>
PUBLIC	??0?$tmat4x2@M$0A@@glm@@QEAA@W4ctor@1@@Z	; glm::tmat4x2<float,0>::tmat4x2<float,0>
PUBLIC	?length@?$tmat4x2@M$0A@@glm@@SAHXZ		; glm::tmat4x2<float,0>::length
PUBLIC	??A?$tmat4x2@M$0A@@glm@@QEAAAEAU?$tvec2@M$0A@@1@H@Z ; glm::tmat4x2<float,0>::operator[]
PUBLIC	??A?$tmat4x2@M$0A@@glm@@QEBAAEBU?$tvec2@M$0A@@1@H@Z ; glm::tmat4x2<float,0>::operator[]
PUBLIC	??$?0HHHHHHHH@?$tmat4x2@M$0A@@glm@@QEAA@HHHHHHHH@Z ; glm::tmat4x2<float,0>::tmat4x2<float,0><int,int,int,int,int,int,int,int>
PUBLIC	??$matrixCompMult@M$0A@Utmat4x2@glm@@@glm@@YA?AU?$tmat4x2@M$0A@@0@AEBU10@0@Z ; glm::matrixCompMult<float,0,glm::tmat4x2>
PUBLIC	??$?8M$0A@@glm@@YA_NAEBU?$tmat4x2@M$0A@@0@0@Z	; glm::operator==<float,0>
PUBLIC	??0?$tmat4x3@M$0A@@glm@@QEAA@W4ctor@1@@Z	; glm::tmat4x3<float,0>::tmat4x3<float,0>
PUBLIC	?length@?$tmat4x3@M$0A@@glm@@SAHXZ		; glm::tmat4x3<float,0>::length
PUBLIC	??A?$tmat4x3@M$0A@@glm@@QEAAAEAU?$tvec3@M$0A@@1@H@Z ; glm::tmat4x3<float,0>::operator[]
PUBLIC	??A?$tmat4x3@M$0A@@glm@@QEBAAEBU?$tvec3@M$0A@@1@H@Z ; glm::tmat4x3<float,0>::operator[]
PUBLIC	??$?0HHHHHHHHHHHH@?$tmat4x3@M$0A@@glm@@QEAA@AEBH00000000000@Z ; glm::tmat4x3<float,0>::tmat4x3<float,0><int,int,int,int,int,int,int,int,int,int,int,int>
PUBLIC	??$matrixCompMult@M$0A@Utmat4x3@glm@@@glm@@YA?AU?$tmat4x3@M$0A@@0@AEBU10@0@Z ; glm::matrixCompMult<float,0,glm::tmat4x3>
PUBLIC	??$?8M$0A@@glm@@YA_NAEBU?$tmat4x3@M$0A@@0@0@Z	; glm::operator==<float,0>
PUBLIC	?test_outerProduct@@YAHXZ			; test_outerProduct
PUBLIC	??$outerProduct@M$0A@Utvec2@glm@@U12@@glm@@YA?AU?$tmat2x2@M$0A@@0@AEBU?$tvec2@M$0A@@0@0@Z ; glm::outerProduct<float,0,glm::tvec2,glm::tvec2>
PUBLIC	??$outerProduct@M$0A@Utvec3@glm@@U12@@glm@@YA?AU?$tmat3x3@M$0A@@0@AEBU?$tvec3@M$0A@@0@0@Z ; glm::outerProduct<float,0,glm::tvec3,glm::tvec3>
PUBLIC	??$outerProduct@M$0A@Utvec4@glm@@U12@@glm@@YA?AU?$tmat4x4@M$0A@@0@AEBU?$tvec4@M$0A@@0@0@Z ; glm::outerProduct<float,0,glm::tvec4,glm::tvec4>
PUBLIC	??$outerProduct@M$0A@Utvec3@glm@@Utvec2@2@@glm@@YA?AU?$tmat2x3@M$0A@@0@AEBU?$tvec3@M$0A@@0@AEBU?$tvec2@M$0A@@0@@Z ; glm::outerProduct<float,0,glm::tvec3,glm::tvec2>
PUBLIC	??$outerProduct@M$0A@Utvec4@glm@@Utvec2@2@@glm@@YA?AU?$tmat2x4@M$0A@@0@AEBU?$tvec4@M$0A@@0@AEBU?$tvec2@M$0A@@0@@Z ; glm::outerProduct<float,0,glm::tvec4,glm::tvec2>
PUBLIC	??$outerProduct@M$0A@Utvec2@glm@@Utvec3@2@@glm@@YA?AU?$tmat3x2@M$0A@@0@AEBU?$tvec2@M$0A@@0@AEBU?$tvec3@M$0A@@0@@Z ; glm::outerProduct<float,0,glm::tvec2,glm::tvec3>
PUBLIC	??$outerProduct@M$0A@Utvec4@glm@@Utvec3@2@@glm@@YA?AU?$tmat3x4@M$0A@@0@AEBU?$tvec4@M$0A@@0@AEBU?$tvec3@M$0A@@0@@Z ; glm::outerProduct<float,0,glm::tvec4,glm::tvec3>
PUBLIC	??$outerProduct@M$0A@Utvec2@glm@@Utvec4@2@@glm@@YA?AU?$tmat4x2@M$0A@@0@AEBU?$tvec2@M$0A@@0@AEBU?$tvec4@M$0A@@0@@Z ; glm::outerProduct<float,0,glm::tvec2,glm::tvec4>
PUBLIC	??$outerProduct@M$0A@Utvec3@glm@@Utvec4@2@@glm@@YA?AU?$tmat4x3@M$0A@@0@AEBU?$tvec3@M$0A@@0@AEBU?$tvec4@M$0A@@0@@Z ; glm::outerProduct<float,0,glm::tvec3,glm::tvec4>
PUBLIC	?test_transpose@@YAHXZ				; test_transpose
PUBLIC	??$transpose@M$0A@Utmat2x2@glm@@@glm@@YA?AU?$tmat2x2@M$0A@@0@AEBU10@@Z ; glm::transpose<float,0,glm::tmat2x2>
PUBLIC	??$transpose@M$0A@Utmat2x3@glm@@@glm@@YA?AU?$tmat3x2@M$0A@@0@AEBU?$tmat2x3@M$0A@@0@@Z ; glm::transpose<float,0,glm::tmat2x3>
PUBLIC	??$transpose@M$0A@Utmat2x4@glm@@@glm@@YA?AU?$tmat4x2@M$0A@@0@AEBU?$tmat2x4@M$0A@@0@@Z ; glm::transpose<float,0,glm::tmat2x4>
PUBLIC	??$transpose@M$0A@Utmat3x3@glm@@@glm@@YA?AU?$tmat3x3@M$0A@@0@AEBU10@@Z ; glm::transpose<float,0,glm::tmat3x3>
PUBLIC	??$transpose@M$0A@Utmat3x2@glm@@@glm@@YA?AU?$tmat2x3@M$0A@@0@AEBU?$tmat3x2@M$0A@@0@@Z ; glm::transpose<float,0,glm::tmat3x2>
PUBLIC	??$transpose@M$0A@Utmat3x4@glm@@@glm@@YA?AU?$tmat4x3@M$0A@@0@AEBU?$tmat3x4@M$0A@@0@@Z ; glm::transpose<float,0,glm::tmat3x4>
PUBLIC	??$transpose@M$0A@Utmat4x4@glm@@@glm@@YA?AU?$tmat4x4@M$0A@@0@AEBU10@@Z ; glm::transpose<float,0,glm::tmat4x4>
PUBLIC	??$transpose@M$0A@Utmat4x2@glm@@@glm@@YA?AU?$tmat2x4@M$0A@@0@AEBU?$tmat4x2@M$0A@@0@@Z ; glm::transpose<float,0,glm::tmat4x2>
PUBLIC	??$transpose@M$0A@Utmat4x3@glm@@@glm@@YA?AU?$tmat3x4@M$0A@@0@AEBU?$tmat4x3@M$0A@@0@@Z ; glm::transpose<float,0,glm::tmat4x3>
PUBLIC	?test_determinant@@YAHXZ			; test_determinant
PUBLIC	?test_inverse@@YAHXZ				; test_inverse
PUBLIC	??$?0HHHH@?$tvec4@M$0A@@glm@@QEAA@HHHH@Z	; glm::tvec4<float,0>::tvec4<float,0><int,int,int,int>
PUBLIC	??$inverse@M$0A@Utmat4x4@glm@@@glm@@YA?AU?$tmat4x4@M$0A@@0@AEBU10@@Z ; glm::inverse<float,0,glm::tmat4x4>
PUBLIC	??$?DM$0A@@glm@@YA?AU?$tmat4x4@M$0A@@0@AEBU10@0@Z ; glm::operator*<float,0>
PUBLIC	??$?0HHH@?$tvec3@M$0A@@glm@@QEAA@HHH@Z		; glm::tvec3<float,0>::tvec3<float,0><int,int,int>
PUBLIC	??$inverse@M$0A@Utmat3x3@glm@@@glm@@YA?AU?$tmat3x3@M$0A@@0@AEBU10@@Z ; glm::inverse<float,0,glm::tmat3x3>
PUBLIC	??$?DM$0A@@glm@@YA?AU?$tmat3x3@M$0A@@0@AEBU10@0@Z ; glm::operator*<float,0>
PUBLIC	??$?0HH@?$tvec2@M$0A@@glm@@QEAA@HH@Z		; glm::tvec2<float,0>::tvec2<float,0><int,int>
PUBLIC	??$inverse@M$0A@Utmat2x2@glm@@@glm@@YA?AU?$tmat2x2@M$0A@@0@AEBU10@@Z ; glm::inverse<float,0,glm::tmat2x2>
PUBLIC	??$?DM$0A@@glm@@YA?AU?$tmat2x2@M$0A@@0@AEBU10@0@Z ; glm::operator*<float,0>
PUBLIC	?test_inverse_simd@@YAHXZ			; test_inverse_simd
PUBLIC	??$epsilonEqual@M$0A@Utvec4@glm@@@glm@@YA?AU?$tvec4@_N$0A@@0@AEBU?$tvec4@M$0A@@0@0AEBM@Z ; glm::epsilonEqual<float,0,glm::tvec4>
PUBLIC	?length@?$tvec4@_N$0A@@glm@@SAHXZ		; glm::tvec4<bool,0>::length
PUBLIC	??A?$tvec4@_N$0A@@glm@@QEAAAEA_NH@Z		; glm::tvec4<bool,0>::operator[]
PUBLIC	??A?$tvec4@_N$0A@@glm@@QEBAAEB_NH@Z		; glm::tvec4<bool,0>::operator[]
PUBLIC	??0?$tvec4@_N$0A@@glm@@QEAA@W4ctor@1@@Z		; glm::tvec4<bool,0>::tvec4<bool,0>
PUBLIC	??$all@$0A@Utvec4@glm@@@glm@@YA_NAEBU?$tvec4@_N$0A@@0@@Z ; glm::all<0,glm::tvec4>
PUBLIC	main
PUBLIC	??$?0MH@?$tvec2@M$0A@@glm@@QEAA@MH@Z		; glm::tvec2<float,0>::tvec2<float,0><float,int>
PUBLIC	??$?0HM@?$tvec2@M$0A@@glm@@QEAA@HM@Z		; glm::tvec2<float,0>::tvec2<float,0><int,float>
PUBLIC	??$?0MHH@?$tvec3@M$0A@@glm@@QEAA@MHH@Z		; glm::tvec3<float,0>::tvec3<float,0><float,int,int>
PUBLIC	??$?0HMH@?$tvec3@M$0A@@glm@@QEAA@HMH@Z		; glm::tvec3<float,0>::tvec3<float,0><int,float,int>
PUBLIC	??$?0HHM@?$tvec3@M$0A@@glm@@QEAA@HHM@Z		; glm::tvec3<float,0>::tvec3<float,0><int,int,float>
PUBLIC	??$?0MHHH@?$tvec4@M$0A@@glm@@QEAA@MHHH@Z	; glm::tvec4<float,0>::tvec4<float,0><float,int,int,int>
PUBLIC	??$?0HMHH@?$tvec4@M$0A@@glm@@QEAA@HMHH@Z	; glm::tvec4<float,0>::tvec4<float,0><int,float,int,int>
PUBLIC	??$?0HHMH@?$tvec4@M$0A@@glm@@QEAA@HHMH@Z	; glm::tvec4<float,0>::tvec4<float,0><int,int,float,int>
PUBLIC	??$?0HHHM@?$tvec4@M$0A@@glm@@QEAA@HHHM@Z	; glm::tvec4<float,0>::tvec4<float,0><int,int,int,float>
PUBLIC	?call@?$compute_abs@M$00@detail@glm@@SAMM@Z	; glm::detail::compute_abs<float,1>::call
PUBLIC	?call@?$compute_matrixCompMult@Utmat2x2@glm@@M$0A@$0A@@detail@glm@@SA?AU?$tmat2x2@M$0A@@3@AEBU43@0@Z ; glm::detail::compute_matrixCompMult<glm::tmat2x2,float,0,0>::call
PUBLIC	??$?8M$0A@@glm@@YA_NAEBU?$tvec2@M$0A@@0@0@Z	; glm::operator==<float,0>
PUBLIC	?call@?$compute_matrixCompMult@Utmat2x3@glm@@M$0A@$0A@@detail@glm@@SA?AU?$tmat2x3@M$0A@@3@AEBU43@0@Z ; glm::detail::compute_matrixCompMult<glm::tmat2x3,float,0,0>::call
PUBLIC	??$?8M$0A@@glm@@YA_NAEBU?$tvec3@M$0A@@0@0@Z	; glm::operator==<float,0>
PUBLIC	?call@?$compute_matrixCompMult@Utmat2x4@glm@@M$0A@$0A@@detail@glm@@SA?AU?$tmat2x4@M$0A@@3@AEBU43@0@Z ; glm::detail::compute_matrixCompMult<glm::tmat2x4,float,0,0>::call
PUBLIC	??$?8M$0A@@glm@@YA_NAEBU?$tvec4@M$0A@@0@0@Z	; glm::operator==<float,0>
PUBLIC	?call@?$compute_matrixCompMult@Utmat3x3@glm@@M$0A@$0A@@detail@glm@@SA?AU?$tmat3x3@M$0A@@3@AEBU43@0@Z ; glm::detail::compute_matrixCompMult<glm::tmat3x3,float,0,0>::call
PUBLIC	?call@?$compute_matrixCompMult@Utmat3x2@glm@@M$0A@$0A@@detail@glm@@SA?AU?$tmat3x2@M$0A@@3@AEBU43@0@Z ; glm::detail::compute_matrixCompMult<glm::tmat3x2,float,0,0>::call
PUBLIC	?call@?$compute_matrixCompMult@Utmat3x4@glm@@M$0A@$0A@@detail@glm@@SA?AU?$tmat3x4@M$0A@@3@AEBU43@0@Z ; glm::detail::compute_matrixCompMult<glm::tmat3x4,float,0,0>::call
PUBLIC	?call@?$compute_matrixCompMult@Utmat4x4@glm@@M$0A@$0A@@detail@glm@@SA?AU?$tmat4x4@M$0A@@3@AEBU43@0@Z ; glm::detail::compute_matrixCompMult<glm::tmat4x4,float,0,0>::call
PUBLIC	?call@?$compute_matrixCompMult@Utmat4x2@glm@@M$0A@$0A@@detail@glm@@SA?AU?$tmat4x2@M$0A@@3@AEBU43@0@Z ; glm::detail::compute_matrixCompMult<glm::tmat4x2,float,0,0>::call
PUBLIC	?call@?$compute_matrixCompMult@Utmat4x3@glm@@M$0A@$0A@@detail@glm@@SA?AU?$tmat4x3@M$0A@@3@AEBU43@0@Z ; glm::detail::compute_matrixCompMult<glm::tmat4x3,float,0,0>::call
PUBLIC	??$?DM$0A@@glm@@YA?AU?$tvec2@M$0A@@0@AEBU10@M@Z	; glm::operator*<float,0>
PUBLIC	??$?DM$0A@@glm@@YA?AU?$tvec3@M$0A@@0@AEBU10@M@Z	; glm::operator*<float,0>
PUBLIC	??$?DM$0A@@glm@@YA?AU?$tvec4@M$0A@@0@AEBU10@M@Z	; glm::operator*<float,0>
PUBLIC	?call@?$compute_transpose@Utmat2x2@glm@@M$0A@$0A@@detail@glm@@SA?AU?$tmat2x2@M$0A@@3@AEBU43@@Z ; glm::detail::compute_transpose<glm::tmat2x2,float,0,0>::call
PUBLIC	?call@?$compute_transpose@Utmat2x3@glm@@M$0A@$0A@@detail@glm@@SA?AU?$tmat3x2@M$0A@@3@AEBU?$tmat2x3@M$0A@@3@@Z ; glm::detail::compute_transpose<glm::tmat2x3,float,0,0>::call
PUBLIC	?call@?$compute_transpose@Utmat2x4@glm@@M$0A@$0A@@detail@glm@@SA?AU?$tmat4x2@M$0A@@3@AEBU?$tmat2x4@M$0A@@3@@Z ; glm::detail::compute_transpose<glm::tmat2x4,float,0,0>::call
PUBLIC	?call@?$compute_transpose@Utmat3x3@glm@@M$0A@$0A@@detail@glm@@SA?AU?$tmat3x3@M$0A@@3@AEBU43@@Z ; glm::detail::compute_transpose<glm::tmat3x3,float,0,0>::call
PUBLIC	?call@?$compute_transpose@Utmat3x2@glm@@M$0A@$0A@@detail@glm@@SA?AU?$tmat2x3@M$0A@@3@AEBU?$tmat3x2@M$0A@@3@@Z ; glm::detail::compute_transpose<glm::tmat3x2,float,0,0>::call
PUBLIC	?call@?$compute_transpose@Utmat3x4@glm@@M$0A@$0A@@detail@glm@@SA?AU?$tmat4x3@M$0A@@3@AEBU?$tmat3x4@M$0A@@3@@Z ; glm::detail::compute_transpose<glm::tmat3x4,float,0,0>::call
PUBLIC	?call@?$compute_transpose@Utmat4x4@glm@@M$0A@$0A@@detail@glm@@SA?AU?$tmat4x4@M$0A@@3@AEBU43@@Z ; glm::detail::compute_transpose<glm::tmat4x4,float,0,0>::call
PUBLIC	?call@?$compute_transpose@Utmat4x2@glm@@M$0A@$0A@@detail@glm@@SA?AU?$tmat2x4@M$0A@@3@AEBU?$tmat4x2@M$0A@@3@@Z ; glm::detail::compute_transpose<glm::tmat4x2,float,0,0>::call
PUBLIC	?call@?$compute_transpose@Utmat4x3@glm@@M$0A@$0A@@detail@glm@@SA?AU?$tmat3x4@M$0A@@3@AEBU?$tmat4x3@M$0A@@3@@Z ; glm::detail::compute_transpose<glm::tmat4x3,float,0,0>::call
PUBLIC	?call@?$compute_inverse@Utmat4x4@glm@@M$0A@$0A@@detail@glm@@SA?AU?$tmat4x4@M$0A@@3@AEBU43@@Z ; glm::detail::compute_inverse<glm::tmat4x4,float,0,0>::call
PUBLIC	??$?HM$0A@@glm@@YA?AU?$tvec4@M$0A@@0@AEBU10@0@Z	; glm::operator+<float,0>
PUBLIC	?call@?$compute_inverse@Utmat3x3@glm@@M$0A@$0A@@detail@glm@@SA?AU?$tmat3x3@M$0A@@3@AEBU43@@Z ; glm::detail::compute_inverse<glm::tmat3x3,float,0,0>::call
PUBLIC	?call@?$compute_inverse@Utmat2x2@glm@@M$0A@$0A@@detail@glm@@SA?AU?$tmat2x2@M$0A@@3@AEBU43@@Z ; glm::detail::compute_inverse<glm::tmat2x2,float,0,0>::call
PUBLIC	??$?GM$0A@@glm@@YA?AU?$tvec4@M$0A@@0@AEBU10@0@Z	; glm::operator-<float,0>
PUBLIC	??$abs@M$0A@Utvec4@glm@@@glm@@YA?AU?$tvec4@M$0A@@0@AEBU10@@Z ; glm::abs<float,0,glm::tvec4>
PUBLIC	??$lessThan@M$0A@Utvec4@glm@@@glm@@YA?AU?$tvec4@_N$0A@@0@AEBU?$tvec4@M$0A@@0@0@Z ; glm::lessThan<float,0,glm::tvec4>
PUBLIC	??$?DM$0A@@glm@@YA?AU?$tvec4@M$0A@@0@AEBU10@0@Z	; glm::operator*<float,0>
PUBLIC	??$?DM$0A@@glm@@YA?AU?$tmat4x4@M$0A@@0@AEBU10@AEBM@Z ; glm::operator*<float,0>
PUBLIC	??$?DM$0A@@glm@@YA?AU?$tvec3@M$0A@@0@AEBU10@0@Z	; glm::operator*<float,0>
PUBLIC	??$?DM$0A@@glm@@YA?AU?$tvec2@M$0A@@0@AEBU10@0@Z	; glm::operator*<float,0>
PUBLIC	?call@?$compute_vec4_equal@M$0A@$0A@$0CA@$0A@@detail@glm@@SA_NAEBU?$tvec4@M$0A@@3@0@Z ; glm::detail::compute_vec4_equal<float,0,0,32,0>::call
PUBLIC	??$?XM@?$tvec4@M$0A@@glm@@QEAAAEAU01@M@Z	; glm::tvec4<float,0>::operator*=<float>
PUBLIC	??$?YM@?$tvec4@M$0A@@glm@@QEAAAEAU01@AEBU01@@Z	; glm::tvec4<float,0>::operator+=<float>
PUBLIC	??$?ZM@?$tvec4@M$0A@@glm@@QEAAAEAU01@AEBU01@@Z	; glm::tvec4<float,0>::operator-=<float>
PUBLIC	?call@?$compute_abs_vector@M$0A@Utvec4@glm@@$0A@@detail@glm@@SA?AU?$tvec4@M$0A@@3@AEBU43@@Z ; glm::detail::compute_abs_vector<float,0,glm::tvec4,0>::call
PUBLIC	??$?XM@?$tvec4@M$0A@@glm@@QEAAAEAU01@AEBU01@@Z	; glm::tvec4<float,0>::operator*=<float>
PUBLIC	?call@?$functor1@MM$0A@Utvec4@glm@@@detail@glm@@SA?AU?$tvec4@M$0A@@3@P6AMM@ZAEBU43@@Z ; glm::detail::functor1<float,float,0,glm::tvec4>::call
PUBLIC	?call@?$compute_vec4_mul@M$0A@$0A@@detail@glm@@SA?AU?$tvec4@M$0A@@3@AEBU43@0@Z ; glm::detail::compute_vec4_mul<float,0,0>::call
PUBLIC	?call@?$compute_vec4_add@M$0A@$0A@@detail@glm@@SA?AU?$tvec4@M$0A@@3@AEBU43@0@Z ; glm::detail::compute_vec4_add<float,0,0>::call
PUBLIC	?call@?$compute_vec4_sub@M$0A@$0A@@detail@glm@@SA?AU?$tvec4@M$0A@@3@AEBU43@0@Z ; glm::detail::compute_vec4_sub<float,0,0>::call
PUBLIC	??_C@_1LK@BAPNPALB@?$AAC?$AA?3?$AA?2?$AAU?$AAs?$AAe?$AAr?$AAs?$AA?2?$AAk?$AAs?$AAa?$AAr?$AAt?$AA?2@ ; `string'
PUBLIC	??_C@_1CG@KOFHLCJL@?$AAi?$AA?5?$AA?$DM?$AA?5?$AAt?$AAh?$AAi?$AAs?$AA?9?$AA?$DO?$AAl?$AAe?$AAn?$AAg?$AAt@ ; `string'
PUBLIC	??_C@_1LK@KMFBDMLF@?$AAC?$AA?3?$AA?2?$AAU?$AAs?$AAe?$AAr?$AAs?$AA?2?$AAk?$AAs?$AAa?$AAr?$AAt?$AA?2@ ; `string'
PUBLIC	??_C@_1LK@DHPEHANK@?$AAC?$AA?3?$AA?2?$AAU?$AAs?$AAe?$AAr?$AAs?$AA?2?$AAk?$AAs?$AAa?$AAr?$AAt?$AA?2@ ; `string'
PUBLIC	??_C@_1LK@EDGMJJFF@?$AAC?$AA?3?$AA?2?$AAU?$AAs?$AAe?$AAr?$AAs?$AA?2?$AAk?$AAs?$AAa?$AAr?$AAt?$AA?2@ ; `string'
PUBLIC	??_C@_1LK@CDJKNCE@?$AAC?$AA?3?$AA?2?$AAU?$AAs?$AAe?$AAr?$AAs?$AA?2?$AAk?$AAs?$AAa?$AAr?$AAt?$AA?2@ ; `string'
PUBLIC	??_C@_1LK@JJJMOBEL@?$AAC?$AA?3?$AA?2?$AAU?$AAs?$AAe?$AAr?$AAs?$AA?2?$AAk?$AAs?$AAa?$AAr?$AAt?$AA?2@ ; `string'
PUBLIC	??_C@_1LK@ONAEAIME@?$AAC?$AA?3?$AA?2?$AAU?$AAs?$AAe?$AAr?$AAs?$AA?2?$AAk?$AAs?$AAa?$AAr?$AAt?$AA?2@ ; `string'
PUBLIC	??_C@_1LK@PPMAFFFB@?$AAC?$AA?3?$AA?2?$AAU?$AAs?$AAe?$AAr?$AAs?$AA?2?$AAk?$AAs?$AAa?$AAr?$AAt?$AA?2@ ; `string'
PUBLIC	??_C@_1LK@GEGFBJDO@?$AAC?$AA?3?$AA?2?$AAU?$AAs?$AAe?$AAr?$AAs?$AA?2?$AAk?$AAs?$AAa?$AAr?$AAt?$AA?2@ ; `string'
PUBLIC	??_C@_1LG@FPDAFGJN@?$AAC?$AA?3?$AA?2?$AAU?$AAs?$AAe?$AAr?$AAs?$AA?2?$AAk?$AAs?$AAa?$AAr?$AAt?$AA?2@ ; `string'
PUBLIC	??_C@_1DK@BGNCJAPL@?$AAi?$AA?5?$AA?$DO?$AA?$DN?$AA?5?$AA0?$AA?5?$AA?$CG?$AA?$CG?$AA?5?$AAi?$AA?5?$AA?$DM?$AA?5?$AAt@ ; `string'
PUBLIC	??_C@_1LG@MEJFBKPC@?$AAC?$AA?3?$AA?2?$AAU?$AAs?$AAe?$AAr?$AAs?$AA?2?$AAk?$AAs?$AAa?$AAr?$AAt?$AA?2@ ; `string'
PUBLIC	??_C@_1LG@LAANPDHN@?$AAC?$AA?3?$AA?2?$AAU?$AAs?$AAe?$AAr?$AAs?$AA?2?$AAk?$AAs?$AAa?$AAr?$AAt?$AA?2@ ; `string'
PUBLIC	??_C@_1NA@OPABFNEN@?$AAC?$AA?3?$AA?2?$AAU?$AAs?$AAe?$AAr?$AAs?$AA?2?$AAk?$AAs?$AAa?$AAr?$AAt?$AA?2@ ; `string'
PUBLIC	??_C@_1DC@HHLCGOLC@?$AAx?$AA?4?$AAl?$AAe?$AAn?$AAg?$AAt?$AAh?$AA?$CI?$AA?$CJ?$AA?5?$AA?$DN?$AA?$DN?$AA?5?$AAy@ ; `string'
PUBLIC	__real@00000000
PUBLIC	__real@3a83126f
PUBLIC	__real@3f800000
PUBLIC	__xmm@80000000800000008000000080000000
EXTRN	__imp__wassert:PROC
EXTRN	_RTC_CheckStackVars:PROC
EXTRN	_RTC_InitBase:PROC
EXTRN	_RTC_Shutdown:PROC
EXTRN	__GSHandlerCheck:PROC
EXTRN	__security_check_cookie:PROC
EXTRN	__security_cookie:QWORD
EXTRN	_fltused:DWORD
;	COMDAT pdata
pdata	SEGMENT
$pdata$??_H@YAXPEAX_K1P6APEAX0@Z@Z DD imagerel $LN7
	DD	imagerel $LN7+119
	DD	imagerel $unwind$??_H@YAXPEAX_K1P6APEAX0@Z@Z
pdata	ENDS
;	COMDAT pdata
pdata	SEGMENT
$pdata$??$abs@M@glm@@YAMM@Z DD imagerel $LN3
	DD	imagerel $LN3+28
	DD	imagerel $unwind$??$abs@M@glm@@YAMM@Z
pdata	ENDS
pdata	SEGMENT
$pdata$?test_matrixCompMult@@YAHXZ DD imagerel $LN21
	DD	imagerel $LN21+3368
	DD	imagerel $unwind$?test_matrixCompMult@@YAHXZ
pdata	ENDS
;	COMDAT pdata
pdata	SEGMENT
$pdata$?length@?$tvec2@M$0A@@glm@@SAHXZ DD imagerel $LN3
	DD	imagerel $LN3+9
	DD	imagerel $unwind$?length@?$tvec2@M$0A@@glm@@SAHXZ
pdata	ENDS
;	COMDAT pdata
pdata	SEGMENT
$pdata$??A?$tvec2@M$0A@@glm@@QEAAAEAMH@Z DD imagerel $LN5
	DD	imagerel $LN5+80
	DD	imagerel $unwind$??A?$tvec2@M$0A@@glm@@QEAAAEAMH@Z
pdata	ENDS
;	COMDAT pdata
pdata	SEGMENT
$pdata$??A?$tvec2@M$0A@@glm@@QEBAAEBMH@Z DD imagerel $LN5
	DD	imagerel $LN5+80
	DD	imagerel $unwind$??A?$tvec2@M$0A@@glm@@QEBAAEBMH@Z
pdata	ENDS
;	COMDAT pdata
pdata	SEGMENT
$pdata$??0?$tvec2@M$0A@@glm@@QEAA@XZ DD imagerel $LN3
	DD	imagerel $LN3+38
	DD	imagerel $unwind$??0?$tvec2@M$0A@@glm@@QEAA@XZ
pdata	ENDS
;	COMDAT pdata
pdata	SEGMENT
$pdata$??0?$tvec2@M$0A@@glm@@QEAA@M@Z DD imagerel $LN3
	DD	imagerel $LN3+50
	DD	imagerel $unwind$??0?$tvec2@M$0A@@glm@@QEAA@M@Z
pdata	ENDS
;	COMDAT pdata
pdata	SEGMENT
$pdata$??0?$tvec2@M$0A@@glm@@QEAA@MM@Z DD imagerel $LN3
	DD	imagerel $LN3+56
	DD	imagerel $unwind$??0?$tvec2@M$0A@@glm@@QEAA@MM@Z
pdata	ENDS
;	COMDAT pdata
pdata	SEGMENT
$pdata$??0?$tmat2x2@M$0A@@glm@@QEAA@W4ctor@1@@Z DD imagerel $LN3
	DD	imagerel $LN3+56
	DD	imagerel $unwind$??0?$tmat2x2@M$0A@@glm@@QEAA@W4ctor@1@@Z
pdata	ENDS
;	COMDAT pdata
pdata	SEGMENT
$pdata$??0?$tmat2x2@M$0A@@glm@@QEAA@M@Z DD imagerel $LN3
	DD	imagerel $LN3+137
	DD	imagerel $unwind$??0?$tmat2x2@M$0A@@glm@@QEAA@M@Z
pdata	ENDS
;	COMDAT pdata
pdata	SEGMENT
$pdata$??0?$tmat2x2@M$0A@@glm@@QEAA@AEBM000@Z DD imagerel $LN3
	DD	imagerel $LN3+165
	DD	imagerel $unwind$??0?$tmat2x2@M$0A@@glm@@QEAA@AEBM000@Z
pdata	ENDS
;	COMDAT pdata
pdata	SEGMENT
$pdata$??0?$tmat2x2@M$0A@@glm@@QEAA@AEBU?$tvec2@M$0A@@1@0@Z DD imagerel $LN3
	DD	imagerel $LN3+114
	DD	imagerel $unwind$??0?$tmat2x2@M$0A@@glm@@QEAA@AEBU?$tvec2@M$0A@@1@0@Z
pdata	ENDS
;	COMDAT pdata
pdata	SEGMENT
$pdata$?length@?$tmat2x2@M$0A@@glm@@SAHXZ DD imagerel $LN3
	DD	imagerel $LN3+9
	DD	imagerel $unwind$?length@?$tmat2x2@M$0A@@glm@@SAHXZ
pdata	ENDS
;	COMDAT pdata
pdata	SEGMENT
$pdata$??A?$tmat2x2@M$0A@@glm@@QEAAAEAU?$tvec2@M$0A@@1@H@Z DD imagerel $LN4
	DD	imagerel $LN4+73
	DD	imagerel $unwind$??A?$tmat2x2@M$0A@@glm@@QEAAAEAU?$tvec2@M$0A@@1@H@Z
pdata	ENDS
;	COMDAT pdata
pdata	SEGMENT
$pdata$??A?$tmat2x2@M$0A@@glm@@QEBAAEBU?$tvec2@M$0A@@1@H@Z DD imagerel $LN4
	DD	imagerel $LN4+73
	DD	imagerel $unwind$??A?$tmat2x2@M$0A@@glm@@QEBAAEBU?$tvec2@M$0A@@1@H@Z
pdata	ENDS
;	COMDAT pdata
pdata	SEGMENT
$pdata$??$?0HHHH@?$tmat2x2@M$0A@@glm@@QEAA@AEBH000@Z DD imagerel $LN3
	DD	imagerel $LN3+171
	DD	imagerel $unwind$??$?0HHHH@?$tmat2x2@M$0A@@glm@@QEAA@AEBH000@Z
pdata	ENDS
;	COMDAT pdata
pdata	SEGMENT
$pdata$??$matrixCompMult@M$0A@Utmat2x2@glm@@@glm@@YA?AU?$tmat2x2@M$0A@@0@AEBU10@0@Z DD imagerel $LN3
	DD	imagerel $LN3+51
	DD	imagerel $unwind$??$matrixCompMult@M$0A@Utmat2x2@glm@@@glm@@YA?AU?$tmat2x2@M$0A@@0@AEBU10@0@Z
pdata	ENDS
;	COMDAT pdata
pdata	SEGMENT
$pdata$??$?8M$0A@@glm@@YA_NAEBU?$tmat2x2@M$0A@@0@0@Z DD imagerel $LN5
	DD	imagerel $LN5+154
	DD	imagerel $unwind$??$?8M$0A@@glm@@YA_NAEBU?$tmat2x2@M$0A@@0@0@Z
pdata	ENDS
;	COMDAT pdata
pdata	SEGMENT
$pdata$?length@?$tvec3@M$0A@@glm@@SAHXZ DD imagerel $LN3
	DD	imagerel $LN3+9
	DD	imagerel $unwind$?length@?$tvec3@M$0A@@glm@@SAHXZ
pdata	ENDS
;	COMDAT pdata
pdata	SEGMENT
$pdata$??A?$tvec3@M$0A@@glm@@QEAAAEAMH@Z DD imagerel $LN5
	DD	imagerel $LN5+80
	DD	imagerel $unwind$??A?$tvec3@M$0A@@glm@@QEAAAEAMH@Z
pdata	ENDS
;	COMDAT pdata
pdata	SEGMENT
$pdata$??A?$tvec3@M$0A@@glm@@QEBAAEBMH@Z DD imagerel $LN5
	DD	imagerel $LN5+80
	DD	imagerel $unwind$??A?$tvec3@M$0A@@glm@@QEBAAEBMH@Z
pdata	ENDS
;	COMDAT pdata
pdata	SEGMENT
$pdata$??0?$tvec3@M$0A@@glm@@QEAA@XZ DD imagerel $LN3
	DD	imagerel $LN3+51
	DD	imagerel $unwind$??0?$tvec3@M$0A@@glm@@QEAA@XZ
pdata	ENDS
;	COMDAT pdata
pdata	SEGMENT
$pdata$??0?$tvec3@M$0A@@glm@@QEAA@M@Z DD imagerel $LN3
	DD	imagerel $LN3+66
	DD	imagerel $unwind$??0?$tvec3@M$0A@@glm@@QEAA@M@Z
pdata	ENDS
;	COMDAT pdata
pdata	SEGMENT
$pdata$??0?$tvec3@M$0A@@glm@@QEAA@MMM@Z DD imagerel $LN3
	DD	imagerel $LN3+78
	DD	imagerel $unwind$??0?$tvec3@M$0A@@glm@@QEAA@MMM@Z
pdata	ENDS
;	COMDAT pdata
pdata	SEGMENT
$pdata$??0?$tmat2x3@M$0A@@glm@@QEAA@W4ctor@1@@Z DD imagerel $LN3
	DD	imagerel $LN3+56
	DD	imagerel $unwind$??0?$tmat2x3@M$0A@@glm@@QEAA@W4ctor@1@@Z
pdata	ENDS
;	COMDAT pdata
pdata	SEGMENT
$pdata$?length@?$tmat2x3@M$0A@@glm@@SAHXZ DD imagerel $LN3
	DD	imagerel $LN3+9
	DD	imagerel $unwind$?length@?$tmat2x3@M$0A@@glm@@SAHXZ
pdata	ENDS
;	COMDAT pdata
pdata	SEGMENT
$pdata$??A?$tmat2x3@M$0A@@glm@@QEAAAEAU?$tvec3@M$0A@@1@H@Z DD imagerel $LN4
	DD	imagerel $LN4+79
	DD	imagerel $unwind$??A?$tmat2x3@M$0A@@glm@@QEAAAEAU?$tvec3@M$0A@@1@H@Z
pdata	ENDS
;	COMDAT pdata
pdata	SEGMENT
$pdata$??A?$tmat2x3@M$0A@@glm@@QEBAAEBU?$tvec3@M$0A@@1@H@Z DD imagerel $LN4
	DD	imagerel $LN4+79
	DD	imagerel $unwind$??A?$tmat2x3@M$0A@@glm@@QEBAAEBU?$tvec3@M$0A@@1@H@Z
pdata	ENDS
;	COMDAT pdata
pdata	SEGMENT
$pdata$??$?0HHHHHH@?$tmat2x3@M$0A@@glm@@QEAA@HHHHHH@Z DD imagerel $LN3
	DD	imagerel $LN3+231
	DD	imagerel $unwind$??$?0HHHHHH@?$tmat2x3@M$0A@@glm@@QEAA@HHHHHH@Z
pdata	ENDS
;	COMDAT pdata
pdata	SEGMENT
$pdata$??$matrixCompMult@M$0A@Utmat2x3@glm@@@glm@@YA?AU?$tmat2x3@M$0A@@0@AEBU10@0@Z DD imagerel $LN3
	DD	imagerel $LN3+51
	DD	imagerel $unwind$??$matrixCompMult@M$0A@Utmat2x3@glm@@@glm@@YA?AU?$tmat2x3@M$0A@@0@AEBU10@0@Z
pdata	ENDS
;	COMDAT pdata
pdata	SEGMENT
$pdata$??$?8M$0A@@glm@@YA_NAEBU?$tmat2x3@M$0A@@0@0@Z DD imagerel $LN5
	DD	imagerel $LN5+154
	DD	imagerel $unwind$??$?8M$0A@@glm@@YA_NAEBU?$tmat2x3@M$0A@@0@0@Z
pdata	ENDS
;	COMDAT pdata
pdata	SEGMENT
$pdata$?length@?$tvec4@M$0A@@glm@@SAHXZ DD imagerel $LN3
	DD	imagerel $LN3+9
	DD	imagerel $unwind$?length@?$tvec4@M$0A@@glm@@SAHXZ
pdata	ENDS
;	COMDAT pdata
pdata	SEGMENT
$pdata$??A?$tvec4@M$0A@@glm@@QEAAAEAMH@Z DD imagerel $LN5
	DD	imagerel $LN5+80
	DD	imagerel $unwind$??A?$tvec4@M$0A@@glm@@QEAAAEAMH@Z
pdata	ENDS
;	COMDAT pdata
pdata	SEGMENT
$pdata$??A?$tvec4@M$0A@@glm@@QEBAAEBMH@Z DD imagerel $LN5
	DD	imagerel $LN5+80
	DD	imagerel $unwind$??A?$tvec4@M$0A@@glm@@QEBAAEBMH@Z
pdata	ENDS
;	COMDAT pdata
pdata	SEGMENT
$pdata$??0?$tvec4@M$0A@@glm@@QEAA@XZ DD imagerel $LN3
	DD	imagerel $LN3+64
	DD	imagerel $unwind$??0?$tvec4@M$0A@@glm@@QEAA@XZ
pdata	ENDS
;	COMDAT pdata
pdata	SEGMENT
$pdata$??0?$tvec4@M$0A@@glm@@QEAA@M@Z DD imagerel $LN3
	DD	imagerel $LN3+82
	DD	imagerel $unwind$??0?$tvec4@M$0A@@glm@@QEAA@M@Z
pdata	ENDS
;	COMDAT pdata
pdata	SEGMENT
$pdata$??0?$tvec4@M$0A@@glm@@QEAA@MMMM@Z DD imagerel $LN3
	DD	imagerel $LN3+94
	DD	imagerel $unwind$??0?$tvec4@M$0A@@glm@@QEAA@MMMM@Z
pdata	ENDS
;	COMDAT pdata
pdata	SEGMENT
$pdata$??0?$tmat2x4@M$0A@@glm@@QEAA@W4ctor@1@@Z DD imagerel $LN3
	DD	imagerel $LN3+56
	DD	imagerel $unwind$??0?$tmat2x4@M$0A@@glm@@QEAA@W4ctor@1@@Z
pdata	ENDS
;	COMDAT pdata
pdata	SEGMENT
$pdata$?length@?$tmat2x4@M$0A@@glm@@SAHXZ DD imagerel $LN3
	DD	imagerel $LN3+9
	DD	imagerel $unwind$?length@?$tmat2x4@M$0A@@glm@@SAHXZ
pdata	ENDS
;	COMDAT pdata
pdata	SEGMENT
$pdata$??A?$tmat2x4@M$0A@@glm@@QEAAAEAU?$tvec4@M$0A@@1@H@Z DD imagerel $LN4
	DD	imagerel $LN4+79
	DD	imagerel $unwind$??A?$tmat2x4@M$0A@@glm@@QEAAAEAU?$tvec4@M$0A@@1@H@Z
pdata	ENDS
;	COMDAT pdata
pdata	SEGMENT
$pdata$??A?$tmat2x4@M$0A@@glm@@QEBAAEBU?$tvec4@M$0A@@1@H@Z DD imagerel $LN4
	DD	imagerel $LN4+79
	DD	imagerel $unwind$??A?$tmat2x4@M$0A@@glm@@QEBAAEBU?$tvec4@M$0A@@1@H@Z
pdata	ENDS
;	COMDAT pdata
pdata	SEGMENT
$pdata$??$?0HHHHHHHH@?$tmat2x4@M$0A@@glm@@QEAA@HHHHHHHH@Z DD imagerel $LN3
	DD	imagerel $LN3+276
	DD	imagerel $unwind$??$?0HHHHHHHH@?$tmat2x4@M$0A@@glm@@QEAA@HHHHHHHH@Z
pdata	ENDS
;	COMDAT pdata
pdata	SEGMENT
$pdata$??$matrixCompMult@M$0A@Utmat2x4@glm@@@glm@@YA?AU?$tmat2x4@M$0A@@0@AEBU10@0@Z DD imagerel $LN3
	DD	imagerel $LN3+51
	DD	imagerel $unwind$??$matrixCompMult@M$0A@Utmat2x4@glm@@@glm@@YA?AU?$tmat2x4@M$0A@@0@AEBU10@0@Z
pdata	ENDS
;	COMDAT pdata
pdata	SEGMENT
$pdata$??$?8M$0A@@glm@@YA_NAEBU?$tmat2x4@M$0A@@0@0@Z DD imagerel $LN5
	DD	imagerel $LN5+154
	DD	imagerel $unwind$??$?8M$0A@@glm@@YA_NAEBU?$tmat2x4@M$0A@@0@0@Z
pdata	ENDS
;	COMDAT pdata
pdata	SEGMENT
$pdata$??0?$tmat3x3@M$0A@@glm@@QEAA@W4ctor@1@@Z DD imagerel $LN3
	DD	imagerel $LN3+56
	DD	imagerel $unwind$??0?$tmat3x3@M$0A@@glm@@QEAA@W4ctor@1@@Z
pdata	ENDS
;	COMDAT pdata
pdata	SEGMENT
$pdata$??0?$tmat3x3@M$0A@@glm@@QEAA@M@Z DD imagerel $LN3
	DD	imagerel $LN3+208
	DD	imagerel $unwind$??0?$tmat3x3@M$0A@@glm@@QEAA@M@Z
pdata	ENDS
;	COMDAT pdata
pdata	SEGMENT
$pdata$??0?$tmat3x3@M$0A@@glm@@QEAA@AEBU?$tvec3@M$0A@@1@00@Z DD imagerel $LN3
	DD	imagerel $LN3+159
	DD	imagerel $unwind$??0?$tmat3x3@M$0A@@glm@@QEAA@AEBU?$tvec3@M$0A@@1@00@Z
pdata	ENDS
;	COMDAT pdata
pdata	SEGMENT
$pdata$?length@?$tmat3x3@M$0A@@glm@@SAHXZ DD imagerel $LN3
	DD	imagerel $LN3+9
	DD	imagerel $unwind$?length@?$tmat3x3@M$0A@@glm@@SAHXZ
pdata	ENDS
;	COMDAT pdata
pdata	SEGMENT
$pdata$??A?$tmat3x3@M$0A@@glm@@QEAAAEAU?$tvec3@M$0A@@1@H@Z DD imagerel $LN4
	DD	imagerel $LN4+79
	DD	imagerel $unwind$??A?$tmat3x3@M$0A@@glm@@QEAAAEAU?$tvec3@M$0A@@1@H@Z
pdata	ENDS
;	COMDAT pdata
pdata	SEGMENT
$pdata$??A?$tmat3x3@M$0A@@glm@@QEBAAEBU?$tvec3@M$0A@@1@H@Z DD imagerel $LN4
	DD	imagerel $LN4+79
	DD	imagerel $unwind$??A?$tmat3x3@M$0A@@glm@@QEBAAEBU?$tvec3@M$0A@@1@H@Z
pdata	ENDS
;	COMDAT pdata
pdata	SEGMENT
$pdata$??$?0HHHHHHHHH@?$tmat3x3@M$0A@@glm@@QEAA@HHHHHHHHH@Z DD imagerel $LN3
	DD	imagerel $LN3+323
	DD	imagerel $unwind$??$?0HHHHHHHHH@?$tmat3x3@M$0A@@glm@@QEAA@HHHHHHHHH@Z
pdata	ENDS
;	COMDAT pdata
pdata	SEGMENT
$pdata$??$matrixCompMult@M$0A@Utmat3x3@glm@@@glm@@YA?AU?$tmat3x3@M$0A@@0@AEBU10@0@Z DD imagerel $LN3
	DD	imagerel $LN3+51
	DD	imagerel $unwind$??$matrixCompMult@M$0A@Utmat3x3@glm@@@glm@@YA?AU?$tmat3x3@M$0A@@0@AEBU10@0@Z
pdata	ENDS
;	COMDAT pdata
pdata	SEGMENT
$pdata$??$?8M$0A@@glm@@YA_NAEBU?$tmat3x3@M$0A@@0@0@Z DD imagerel $LN5
	DD	imagerel $LN5+212
	DD	imagerel $unwind$??$?8M$0A@@glm@@YA_NAEBU?$tmat3x3@M$0A@@0@0@Z
pdata	ENDS
;	COMDAT pdata
pdata	SEGMENT
$pdata$??0?$tmat3x2@M$0A@@glm@@QEAA@W4ctor@1@@Z DD imagerel $LN3
	DD	imagerel $LN3+56
	DD	imagerel $unwind$??0?$tmat3x2@M$0A@@glm@@QEAA@W4ctor@1@@Z
pdata	ENDS
;	COMDAT pdata
pdata	SEGMENT
$pdata$?length@?$tmat3x2@M$0A@@glm@@SAHXZ DD imagerel $LN3
	DD	imagerel $LN3+9
	DD	imagerel $unwind$?length@?$tmat3x2@M$0A@@glm@@SAHXZ
pdata	ENDS
;	COMDAT pdata
pdata	SEGMENT
$pdata$??A?$tmat3x2@M$0A@@glm@@QEAAAEAU?$tvec2@M$0A@@1@H@Z DD imagerel $LN4
	DD	imagerel $LN4+73
	DD	imagerel $unwind$??A?$tmat3x2@M$0A@@glm@@QEAAAEAU?$tvec2@M$0A@@1@H@Z
pdata	ENDS
;	COMDAT pdata
pdata	SEGMENT
$pdata$??A?$tmat3x2@M$0A@@glm@@QEBAAEBU?$tvec2@M$0A@@1@H@Z DD imagerel $LN4
	DD	imagerel $LN4+73
	DD	imagerel $unwind$??A?$tmat3x2@M$0A@@glm@@QEBAAEBU?$tvec2@M$0A@@1@H@Z
pdata	ENDS
;	COMDAT pdata
pdata	SEGMENT
$pdata$??$?0HHHHHH@?$tmat3x2@M$0A@@glm@@QEAA@HHHHHH@Z DD imagerel $LN3
	DD	imagerel $LN3+207
	DD	imagerel $unwind$??$?0HHHHHH@?$tmat3x2@M$0A@@glm@@QEAA@HHHHHH@Z
pdata	ENDS
;	COMDAT pdata
pdata	SEGMENT
$pdata$??$matrixCompMult@M$0A@Utmat3x2@glm@@@glm@@YA?AU?$tmat3x2@M$0A@@0@AEBU10@0@Z DD imagerel $LN3
	DD	imagerel $LN3+51
	DD	imagerel $unwind$??$matrixCompMult@M$0A@Utmat3x2@glm@@@glm@@YA?AU?$tmat3x2@M$0A@@0@AEBU10@0@Z
pdata	ENDS
;	COMDAT pdata
pdata	SEGMENT
$pdata$??$?8M$0A@@glm@@YA_NAEBU?$tmat3x2@M$0A@@0@0@Z DD imagerel $LN5
	DD	imagerel $LN5+212
	DD	imagerel $unwind$??$?8M$0A@@glm@@YA_NAEBU?$tmat3x2@M$0A@@0@0@Z
pdata	ENDS
;	COMDAT pdata
pdata	SEGMENT
$pdata$??0?$tmat3x4@M$0A@@glm@@QEAA@W4ctor@1@@Z DD imagerel $LN3
	DD	imagerel $LN3+56
	DD	imagerel $unwind$??0?$tmat3x4@M$0A@@glm@@QEAA@W4ctor@1@@Z
pdata	ENDS
;	COMDAT pdata
pdata	SEGMENT
$pdata$?length@?$tmat3x4@M$0A@@glm@@SAHXZ DD imagerel $LN3
	DD	imagerel $LN3+9
	DD	imagerel $unwind$?length@?$tmat3x4@M$0A@@glm@@SAHXZ
pdata	ENDS
;	COMDAT pdata
pdata	SEGMENT
$pdata$??A?$tmat3x4@M$0A@@glm@@QEAAAEAU?$tvec4@M$0A@@1@H@Z DD imagerel $LN4
	DD	imagerel $LN4+79
	DD	imagerel $unwind$??A?$tmat3x4@M$0A@@glm@@QEAAAEAU?$tvec4@M$0A@@1@H@Z
pdata	ENDS
;	COMDAT pdata
pdata	SEGMENT
$pdata$??A?$tmat3x4@M$0A@@glm@@QEBAAEBU?$tvec4@M$0A@@1@H@Z DD imagerel $LN4
	DD	imagerel $LN4+79
	DD	imagerel $unwind$??A?$tmat3x4@M$0A@@glm@@QEBAAEBU?$tvec4@M$0A@@1@H@Z
pdata	ENDS
;	COMDAT pdata
pdata	SEGMENT
$pdata$??$?0HHHHHHHHHHHH@?$tmat3x4@M$0A@@glm@@QEAA@HHHHHHHHHHHH@Z DD imagerel $LN3
	DD	imagerel $LN3+377
	DD	imagerel $unwind$??$?0HHHHHHHHHHHH@?$tmat3x4@M$0A@@glm@@QEAA@HHHHHHHHHHHH@Z
pdata	ENDS
;	COMDAT pdata
pdata	SEGMENT
$pdata$??$matrixCompMult@M$0A@Utmat3x4@glm@@@glm@@YA?AU?$tmat3x4@M$0A@@0@AEBU10@0@Z DD imagerel $LN3
	DD	imagerel $LN3+51
	DD	imagerel $unwind$??$matrixCompMult@M$0A@Utmat3x4@glm@@@glm@@YA?AU?$tmat3x4@M$0A@@0@AEBU10@0@Z
pdata	ENDS
;	COMDAT pdata
pdata	SEGMENT
$pdata$??$?8M$0A@@glm@@YA_NAEBU?$tmat3x4@M$0A@@0@0@Z DD imagerel $LN5
	DD	imagerel $LN5+212
	DD	imagerel $unwind$??$?8M$0A@@glm@@YA_NAEBU?$tmat3x4@M$0A@@0@0@Z
pdata	ENDS
;	COMDAT pdata
pdata	SEGMENT
$pdata$??0?$tmat4x4@M$0A@@glm@@QEAA@W4ctor@1@@Z DD imagerel $LN3
	DD	imagerel $LN3+56
	DD	imagerel $unwind$??0?$tmat4x4@M$0A@@glm@@QEAA@W4ctor@1@@Z
pdata	ENDS
;	COMDAT pdata
pdata	SEGMENT
$pdata$??0?$tmat4x4@M$0A@@glm@@QEAA@AEBM@Z DD imagerel $LN3
	DD	imagerel $LN3+331
	DD	imagerel $unwind$??0?$tmat4x4@M$0A@@glm@@QEAA@AEBM@Z
pdata	ENDS
;	COMDAT pdata
pdata	SEGMENT
$pdata$??0?$tmat4x4@M$0A@@glm@@QEAA@AEBU?$tvec4@M$0A@@1@000@Z DD imagerel $LN3
	DD	imagerel $LN3+189
	DD	imagerel $unwind$??0?$tmat4x4@M$0A@@glm@@QEAA@AEBU?$tvec4@M$0A@@1@000@Z
pdata	ENDS
;	COMDAT pdata
pdata	SEGMENT
$pdata$?length@?$tmat4x4@M$0A@@glm@@SAHXZ DD imagerel $LN3
	DD	imagerel $LN3+9
	DD	imagerel $unwind$?length@?$tmat4x4@M$0A@@glm@@SAHXZ
pdata	ENDS
;	COMDAT pdata
pdata	SEGMENT
$pdata$??A?$tmat4x4@M$0A@@glm@@QEAAAEAU?$tvec4@M$0A@@1@H@Z DD imagerel $LN4
	DD	imagerel $LN4+79
	DD	imagerel $unwind$??A?$tmat4x4@M$0A@@glm@@QEAAAEAU?$tvec4@M$0A@@1@H@Z
pdata	ENDS
;	COMDAT pdata
pdata	SEGMENT
$pdata$??A?$tmat4x4@M$0A@@glm@@QEBAAEBU?$tvec4@M$0A@@1@H@Z DD imagerel $LN4
	DD	imagerel $LN4+79
	DD	imagerel $unwind$??A?$tmat4x4@M$0A@@glm@@QEBAAEBU?$tvec4@M$0A@@1@H@Z
pdata	ENDS
;	COMDAT pdata
pdata	SEGMENT
$pdata$??$?0HHHHHHHHHHHHHHHH@?$tmat4x4@M$0A@@glm@@QEAA@AEBH000000000000000@Z DD imagerel $LN3
	DD	imagerel $LN3+533
	DD	imagerel $unwind$??$?0HHHHHHHHHHHHHHHH@?$tmat4x4@M$0A@@glm@@QEAA@AEBH000000000000000@Z
pdata	ENDS
;	COMDAT pdata
pdata	SEGMENT
$pdata$??$matrixCompMult@M$0A@Utmat4x4@glm@@@glm@@YA?AU?$tmat4x4@M$0A@@0@AEBU10@0@Z DD imagerel $LN3
	DD	imagerel $LN3+51
	DD	imagerel $unwind$??$matrixCompMult@M$0A@Utmat4x4@glm@@@glm@@YA?AU?$tmat4x4@M$0A@@0@AEBU10@0@Z
pdata	ENDS
;	COMDAT pdata
pdata	SEGMENT
$pdata$??$?8M$0A@@glm@@YA_NAEBU?$tmat4x4@M$0A@@0@0@Z DD imagerel $LN5
	DD	imagerel $LN5+274
	DD	imagerel $unwind$??$?8M$0A@@glm@@YA_NAEBU?$tmat4x4@M$0A@@0@0@Z
pdata	ENDS
;	COMDAT pdata
pdata	SEGMENT
$pdata$??0?$tmat4x2@M$0A@@glm@@QEAA@W4ctor@1@@Z DD imagerel $LN3
	DD	imagerel $LN3+56
	DD	imagerel $unwind$??0?$tmat4x2@M$0A@@glm@@QEAA@W4ctor@1@@Z
pdata	ENDS
;	COMDAT pdata
pdata	SEGMENT
$pdata$?length@?$tmat4x2@M$0A@@glm@@SAHXZ DD imagerel $LN3
	DD	imagerel $LN3+9
	DD	imagerel $unwind$?length@?$tmat4x2@M$0A@@glm@@SAHXZ
pdata	ENDS
;	COMDAT pdata
pdata	SEGMENT
$pdata$??A?$tmat4x2@M$0A@@glm@@QEAAAEAU?$tvec2@M$0A@@1@H@Z DD imagerel $LN4
	DD	imagerel $LN4+73
	DD	imagerel $unwind$??A?$tmat4x2@M$0A@@glm@@QEAAAEAU?$tvec2@M$0A@@1@H@Z
pdata	ENDS
;	COMDAT pdata
pdata	SEGMENT
$pdata$??A?$tmat4x2@M$0A@@glm@@QEBAAEBU?$tvec2@M$0A@@1@H@Z DD imagerel $LN4
	DD	imagerel $LN4+73
	DD	imagerel $unwind$??A?$tmat4x2@M$0A@@glm@@QEBAAEBU?$tvec2@M$0A@@1@H@Z
pdata	ENDS
;	COMDAT pdata
pdata	SEGMENT
$pdata$??$?0HHHHHHHH@?$tmat4x2@M$0A@@glm@@QEAA@HHHHHHHH@Z DD imagerel $LN3
	DD	imagerel $LN3+259
	DD	imagerel $unwind$??$?0HHHHHHHH@?$tmat4x2@M$0A@@glm@@QEAA@HHHHHHHH@Z
pdata	ENDS
;	COMDAT pdata
pdata	SEGMENT
$pdata$??$matrixCompMult@M$0A@Utmat4x2@glm@@@glm@@YA?AU?$tmat4x2@M$0A@@0@AEBU10@0@Z DD imagerel $LN3
	DD	imagerel $LN3+51
	DD	imagerel $unwind$??$matrixCompMult@M$0A@Utmat4x2@glm@@@glm@@YA?AU?$tmat4x2@M$0A@@0@AEBU10@0@Z
pdata	ENDS
;	COMDAT pdata
pdata	SEGMENT
$pdata$??$?8M$0A@@glm@@YA_NAEBU?$tmat4x2@M$0A@@0@0@Z DD imagerel $LN5
	DD	imagerel $LN5+274
	DD	imagerel $unwind$??$?8M$0A@@glm@@YA_NAEBU?$tmat4x2@M$0A@@0@0@Z
pdata	ENDS
;	COMDAT pdata
pdata	SEGMENT
$pdata$??0?$tmat4x3@M$0A@@glm@@QEAA@W4ctor@1@@Z DD imagerel $LN3
	DD	imagerel $LN3+56
	DD	imagerel $unwind$??0?$tmat4x3@M$0A@@glm@@QEAA@W4ctor@1@@Z
pdata	ENDS
;	COMDAT pdata
pdata	SEGMENT
$pdata$?length@?$tmat4x3@M$0A@@glm@@SAHXZ DD imagerel $LN3
	DD	imagerel $LN3+9
	DD	imagerel $unwind$?length@?$tmat4x3@M$0A@@glm@@SAHXZ
pdata	ENDS
;	COMDAT pdata
pdata	SEGMENT
$pdata$??A?$tmat4x3@M$0A@@glm@@QEAAAEAU?$tvec3@M$0A@@1@H@Z DD imagerel $LN4
	DD	imagerel $LN4+79
	DD	imagerel $unwind$??A?$tmat4x3@M$0A@@glm@@QEAAAEAU?$tvec3@M$0A@@1@H@Z
pdata	ENDS
;	COMDAT pdata
pdata	SEGMENT
$pdata$??A?$tmat4x3@M$0A@@glm@@QEBAAEBU?$tvec3@M$0A@@1@H@Z DD imagerel $LN4
	DD	imagerel $LN4+79
	DD	imagerel $unwind$??A?$tmat4x3@M$0A@@glm@@QEBAAEBU?$tvec3@M$0A@@1@H@Z
pdata	ENDS
;	COMDAT pdata
pdata	SEGMENT
$pdata$??$?0HHHHHHHHHHHH@?$tmat4x3@M$0A@@glm@@QEAA@AEBH00000000000@Z DD imagerel $LN3
	DD	imagerel $LN3+467
	DD	imagerel $unwind$??$?0HHHHHHHHHHHH@?$tmat4x3@M$0A@@glm@@QEAA@AEBH00000000000@Z
pdata	ENDS
;	COMDAT pdata
pdata	SEGMENT
$pdata$??$matrixCompMult@M$0A@Utmat4x3@glm@@@glm@@YA?AU?$tmat4x3@M$0A@@0@AEBU10@0@Z DD imagerel $LN3
	DD	imagerel $LN3+51
	DD	imagerel $unwind$??$matrixCompMult@M$0A@Utmat4x3@glm@@@glm@@YA?AU?$tmat4x3@M$0A@@0@AEBU10@0@Z
pdata	ENDS
;	COMDAT pdata
pdata	SEGMENT
$pdata$??$?8M$0A@@glm@@YA_NAEBU?$tmat4x3@M$0A@@0@0@Z DD imagerel $LN5
	DD	imagerel $LN5+274
	DD	imagerel $unwind$??$?8M$0A@@glm@@YA_NAEBU?$tmat4x3@M$0A@@0@0@Z
pdata	ENDS
pdata	SEGMENT
$pdata$?test_outerProduct@@YAHXZ DD imagerel $LN3
	DD	imagerel $LN3+777
	DD	imagerel $unwind$?test_outerProduct@@YAHXZ
pdata	ENDS
;	COMDAT pdata
pdata	SEGMENT
$pdata$??$outerProduct@M$0A@Utvec2@glm@@U12@@glm@@YA?AU?$tmat2x2@M$0A@@0@AEBU?$tvec2@M$0A@@0@0@Z DD imagerel $LN6
	DD	imagerel $LN6+247
	DD	imagerel $unwind$??$outerProduct@M$0A@Utvec2@glm@@U12@@glm@@YA?AU?$tmat2x2@M$0A@@0@AEBU?$tvec2@M$0A@@0@0@Z
pdata	ENDS
;	COMDAT pdata
pdata	SEGMENT
$pdata$??$outerProduct@M$0A@Utvec3@glm@@U12@@glm@@YA?AU?$tmat3x3@M$0A@@0@AEBU?$tvec3@M$0A@@0@0@Z DD imagerel $LN6
	DD	imagerel $LN6+260
	DD	imagerel $unwind$??$outerProduct@M$0A@Utvec3@glm@@U12@@glm@@YA?AU?$tmat3x3@M$0A@@0@AEBU?$tvec3@M$0A@@0@0@Z
pdata	ENDS
;	COMDAT pdata
pdata	SEGMENT
$pdata$??$outerProduct@M$0A@Utvec4@glm@@U12@@glm@@YA?AU?$tmat4x4@M$0A@@0@AEBU?$tvec4@M$0A@@0@0@Z DD imagerel $LN6
	DD	imagerel $LN6+275
	DD	imagerel $unwind$??$outerProduct@M$0A@Utvec4@glm@@U12@@glm@@YA?AU?$tmat4x4@M$0A@@0@AEBU?$tvec4@M$0A@@0@0@Z
pdata	ENDS
;	COMDAT pdata
pdata	SEGMENT
$pdata$??$outerProduct@M$0A@Utvec3@glm@@Utvec2@2@@glm@@YA?AU?$tmat2x3@M$0A@@0@AEBU?$tvec3@M$0A@@0@AEBU?$tvec2@M$0A@@0@@Z DD imagerel $LN6
	DD	imagerel $LN6+254
	DD	imagerel $unwind$??$outerProduct@M$0A@Utvec3@glm@@Utvec2@2@@glm@@YA?AU?$tmat2x3@M$0A@@0@AEBU?$tvec3@M$0A@@0@AEBU?$tvec2@M$0A@@0@@Z
pdata	ENDS
;	COMDAT pdata
pdata	SEGMENT
$pdata$??$outerProduct@M$0A@Utvec4@glm@@Utvec2@2@@glm@@YA?AU?$tmat2x4@M$0A@@0@AEBU?$tvec4@M$0A@@0@AEBU?$tvec2@M$0A@@0@@Z DD imagerel $LN6
	DD	imagerel $LN6+260
	DD	imagerel $unwind$??$outerProduct@M$0A@Utvec4@glm@@Utvec2@2@@glm@@YA?AU?$tmat2x4@M$0A@@0@AEBU?$tvec4@M$0A@@0@AEBU?$tvec2@M$0A@@0@@Z
pdata	ENDS
;	COMDAT pdata
pdata	SEGMENT
$pdata$??$outerProduct@M$0A@Utvec2@glm@@Utvec3@2@@glm@@YA?AU?$tmat3x2@M$0A@@0@AEBU?$tvec2@M$0A@@0@AEBU?$tvec3@M$0A@@0@@Z DD imagerel $LN6
	DD	imagerel $LN6+247
	DD	imagerel $unwind$??$outerProduct@M$0A@Utvec2@glm@@Utvec3@2@@glm@@YA?AU?$tmat3x2@M$0A@@0@AEBU?$tvec2@M$0A@@0@AEBU?$tvec3@M$0A@@0@@Z
pdata	ENDS
;	COMDAT pdata
pdata	SEGMENT
$pdata$??$outerProduct@M$0A@Utvec4@glm@@Utvec3@2@@glm@@YA?AU?$tmat3x4@M$0A@@0@AEBU?$tvec4@M$0A@@0@AEBU?$tvec3@M$0A@@0@@Z DD imagerel $LN6
	DD	imagerel $LN6+272
	DD	imagerel $unwind$??$outerProduct@M$0A@Utvec4@glm@@Utvec3@2@@glm@@YA?AU?$tmat3x4@M$0A@@0@AEBU?$tvec4@M$0A@@0@AEBU?$tvec3@M$0A@@0@@Z
pdata	ENDS
;	COMDAT pdata
pdata	SEGMENT
$pdata$??$outerProduct@M$0A@Utvec2@glm@@Utvec4@2@@glm@@YA?AU?$tmat4x2@M$0A@@0@AEBU?$tvec2@M$0A@@0@AEBU?$tvec4@M$0A@@0@@Z DD imagerel $LN6
	DD	imagerel $LN6+253
	DD	imagerel $unwind$??$outerProduct@M$0A@Utvec2@glm@@Utvec4@2@@glm@@YA?AU?$tmat4x2@M$0A@@0@AEBU?$tvec2@M$0A@@0@AEBU?$tvec4@M$0A@@0@@Z
pdata	ENDS
;	COMDAT pdata
pdata	SEGMENT
$pdata$??$outerProduct@M$0A@Utvec3@glm@@Utvec4@2@@glm@@YA?AU?$tmat4x3@M$0A@@0@AEBU?$tvec3@M$0A@@0@AEBU?$tvec4@M$0A@@0@@Z DD imagerel $LN6
	DD	imagerel $LN6+272
	DD	imagerel $unwind$??$outerProduct@M$0A@Utvec3@glm@@Utvec4@2@@glm@@YA?AU?$tmat4x3@M$0A@@0@AEBU?$tvec3@M$0A@@0@AEBU?$tvec4@M$0A@@0@@Z
pdata	ENDS
pdata	SEGMENT
$pdata$?test_transpose@@YAHXZ DD imagerel $LN21
	DD	imagerel $LN21+3296
	DD	imagerel $unwind$?test_transpose@@YAHXZ
pdata	ENDS
;	COMDAT pdata
pdata	SEGMENT
$pdata$??$transpose@M$0A@Utmat2x2@glm@@@glm@@YA?AU?$tmat2x2@M$0A@@0@AEBU10@@Z DD imagerel $LN3
	DD	imagerel $LN3+41
	DD	imagerel $unwind$??$transpose@M$0A@Utmat2x2@glm@@@glm@@YA?AU?$tmat2x2@M$0A@@0@AEBU10@@Z
pdata	ENDS
;	COMDAT pdata
pdata	SEGMENT
$pdata$??$transpose@M$0A@Utmat2x3@glm@@@glm@@YA?AU?$tmat3x2@M$0A@@0@AEBU?$tmat2x3@M$0A@@0@@Z DD imagerel $LN3
	DD	imagerel $LN3+41
	DD	imagerel $unwind$??$transpose@M$0A@Utmat2x3@glm@@@glm@@YA?AU?$tmat3x2@M$0A@@0@AEBU?$tmat2x3@M$0A@@0@@Z
pdata	ENDS
;	COMDAT pdata
pdata	SEGMENT
$pdata$??$transpose@M$0A@Utmat2x4@glm@@@glm@@YA?AU?$tmat4x2@M$0A@@0@AEBU?$tmat2x4@M$0A@@0@@Z DD imagerel $LN3
	DD	imagerel $LN3+41
	DD	imagerel $unwind$??$transpose@M$0A@Utmat2x4@glm@@@glm@@YA?AU?$tmat4x2@M$0A@@0@AEBU?$tmat2x4@M$0A@@0@@Z
pdata	ENDS
;	COMDAT pdata
pdata	SEGMENT
$pdata$??$transpose@M$0A@Utmat3x3@glm@@@glm@@YA?AU?$tmat3x3@M$0A@@0@AEBU10@@Z DD imagerel $LN3
	DD	imagerel $LN3+41
	DD	imagerel $unwind$??$transpose@M$0A@Utmat3x3@glm@@@glm@@YA?AU?$tmat3x3@M$0A@@0@AEBU10@@Z
pdata	ENDS
;	COMDAT pdata
pdata	SEGMENT
$pdata$??$transpose@M$0A@Utmat3x2@glm@@@glm@@YA?AU?$tmat2x3@M$0A@@0@AEBU?$tmat3x2@M$0A@@0@@Z DD imagerel $LN3
	DD	imagerel $LN3+41
	DD	imagerel $unwind$??$transpose@M$0A@Utmat3x2@glm@@@glm@@YA?AU?$tmat2x3@M$0A@@0@AEBU?$tmat3x2@M$0A@@0@@Z
pdata	ENDS
;	COMDAT pdata
pdata	SEGMENT
$pdata$??$transpose@M$0A@Utmat3x4@glm@@@glm@@YA?AU?$tmat4x3@M$0A@@0@AEBU?$tmat3x4@M$0A@@0@@Z DD imagerel $LN3
	DD	imagerel $LN3+41
	DD	imagerel $unwind$??$transpose@M$0A@Utmat3x4@glm@@@glm@@YA?AU?$tmat4x3@M$0A@@0@AEBU?$tmat3x4@M$0A@@0@@Z
pdata	ENDS
;	COMDAT pdata
pdata	SEGMENT
$pdata$??$transpose@M$0A@Utmat4x4@glm@@@glm@@YA?AU?$tmat4x4@M$0A@@0@AEBU10@@Z DD imagerel $LN3
	DD	imagerel $LN3+41
	DD	imagerel $unwind$??$transpose@M$0A@Utmat4x4@glm@@@glm@@YA?AU?$tmat4x4@M$0A@@0@AEBU10@@Z
pdata	ENDS
;	COMDAT pdata
pdata	SEGMENT
$pdata$??$transpose@M$0A@Utmat4x2@glm@@@glm@@YA?AU?$tmat2x4@M$0A@@0@AEBU?$tmat4x2@M$0A@@0@@Z DD imagerel $LN3
	DD	imagerel $LN3+41
	DD	imagerel $unwind$??$transpose@M$0A@Utmat4x2@glm@@@glm@@YA?AU?$tmat2x4@M$0A@@0@AEBU?$tmat4x2@M$0A@@0@@Z
pdata	ENDS
;	COMDAT pdata
pdata	SEGMENT
$pdata$??$transpose@M$0A@Utmat4x3@glm@@@glm@@YA?AU?$tmat3x4@M$0A@@0@AEBU?$tmat4x3@M$0A@@0@@Z DD imagerel $LN3
	DD	imagerel $LN3+41
	DD	imagerel $unwind$??$transpose@M$0A@Utmat4x3@glm@@@glm@@YA?AU?$tmat3x4@M$0A@@0@AEBU?$tmat4x3@M$0A@@0@@Z
pdata	ENDS
pdata	SEGMENT
$pdata$?test_determinant@@YAHXZ DD imagerel $LN3
	DD	imagerel $LN3+6
	DD	imagerel $unwind$?test_determinant@@YAHXZ
$pdata$?test_inverse@@YAHXZ DD imagerel $LN9
	DD	imagerel $LN9+931
	DD	imagerel $unwind$?test_inverse@@YAHXZ
pdata	ENDS
;	COMDAT pdata
pdata	SEGMENT
$pdata$??$?0HHHH@?$tvec4@M$0A@@glm@@QEAA@HHHH@Z DD imagerel $LN3
	DD	imagerel $LN3+90
	DD	imagerel $unwind$??$?0HHHH@?$tvec4@M$0A@@glm@@QEAA@HHHH@Z
pdata	ENDS
;	COMDAT pdata
pdata	SEGMENT
$pdata$??$inverse@M$0A@Utmat4x4@glm@@@glm@@YA?AU?$tmat4x4@M$0A@@0@AEBU10@@Z DD imagerel $LN3
	DD	imagerel $LN3+41
	DD	imagerel $unwind$??$inverse@M$0A@Utmat4x4@glm@@@glm@@YA?AU?$tmat4x4@M$0A@@0@AEBU10@@Z
pdata	ENDS
;	COMDAT pdata
pdata	SEGMENT
$pdata$??$?DM$0A@@glm@@YA?AU?$tmat4x4@M$0A@@0@AEBU10@0@Z DD imagerel $LN3
	DD	imagerel $LN3+1720
	DD	imagerel $unwind$??$?DM$0A@@glm@@YA?AU?$tmat4x4@M$0A@@0@AEBU10@0@Z
pdata	ENDS
;	COMDAT pdata
pdata	SEGMENT
$pdata$??$?0HHH@?$tvec3@M$0A@@glm@@QEAA@HHH@Z DD imagerel $LN3
	DD	imagerel $LN3+74
	DD	imagerel $unwind$??$?0HHH@?$tvec3@M$0A@@glm@@QEAA@HHH@Z
pdata	ENDS
;	COMDAT pdata
pdata	SEGMENT
$pdata$??$inverse@M$0A@Utmat3x3@glm@@@glm@@YA?AU?$tmat3x3@M$0A@@0@AEBU10@@Z DD imagerel $LN3
	DD	imagerel $LN3+41
	DD	imagerel $unwind$??$inverse@M$0A@Utmat3x3@glm@@@glm@@YA?AU?$tmat3x3@M$0A@@0@AEBU10@@Z
pdata	ENDS
;	COMDAT pdata
pdata	SEGMENT
$pdata$??$?DM$0A@@glm@@YA?AU?$tmat3x3@M$0A@@0@AEBU10@0@Z DD imagerel $LN3
	DD	imagerel $LN3+1687
	DD	imagerel $unwind$??$?DM$0A@@glm@@YA?AU?$tmat3x3@M$0A@@0@AEBU10@0@Z
pdata	ENDS
;	COMDAT pdata
pdata	SEGMENT
$pdata$??$?0HH@?$tvec2@M$0A@@glm@@QEAA@HH@Z DD imagerel $LN3
	DD	imagerel $LN3+53
	DD	imagerel $unwind$??$?0HH@?$tvec2@M$0A@@glm@@QEAA@HH@Z
pdata	ENDS
;	COMDAT pdata
pdata	SEGMENT
$pdata$??$inverse@M$0A@Utmat2x2@glm@@@glm@@YA?AU?$tmat2x2@M$0A@@0@AEBU10@@Z DD imagerel $LN3
	DD	imagerel $LN3+41
	DD	imagerel $unwind$??$inverse@M$0A@Utmat2x2@glm@@@glm@@YA?AU?$tmat2x2@M$0A@@0@AEBU10@@Z
pdata	ENDS
;	COMDAT pdata
pdata	SEGMENT
$pdata$??$?DM$0A@@glm@@YA?AU?$tmat2x2@M$0A@@0@AEBU10@0@Z DD imagerel $LN3
	DD	imagerel $LN3+794
	DD	imagerel $unwind$??$?DM$0A@@glm@@YA?AU?$tmat2x2@M$0A@@0@AEBU10@0@Z
pdata	ENDS
pdata	SEGMENT
$pdata$?test_inverse_simd@@YAHXZ DD imagerel $LN11
	DD	imagerel $LN11+986
	DD	imagerel $unwind$?test_inverse_simd@@YAHXZ
pdata	ENDS
;	COMDAT pdata
pdata	SEGMENT
$pdata$??$epsilonEqual@M$0A@Utvec4@glm@@@glm@@YA?AU?$tvec4@_N$0A@@0@AEBU?$tvec4@M$0A@@0@0AEBM@Z DD imagerel $LN3
	DD	imagerel $LN3+120
	DD	imagerel $unwind$??$epsilonEqual@M$0A@Utvec4@glm@@@glm@@YA?AU?$tvec4@_N$0A@@0@AEBU?$tvec4@M$0A@@0@0AEBM@Z
pdata	ENDS
;	COMDAT pdata
pdata	SEGMENT
$pdata$?length@?$tvec4@_N$0A@@glm@@SAHXZ DD imagerel $LN3
	DD	imagerel $LN3+9
	DD	imagerel $unwind$?length@?$tvec4@_N$0A@@glm@@SAHXZ
pdata	ENDS
;	COMDAT pdata
pdata	SEGMENT
$pdata$??A?$tvec4@_N$0A@@glm@@QEAAAEA_NH@Z DD imagerel $LN5
	DD	imagerel $LN5+82
	DD	imagerel $unwind$??A?$tvec4@_N$0A@@glm@@QEAAAEA_NH@Z
pdata	ENDS
;	COMDAT pdata
pdata	SEGMENT
$pdata$??A?$tvec4@_N$0A@@glm@@QEBAAEB_NH@Z DD imagerel $LN5
	DD	imagerel $LN5+82
	DD	imagerel $unwind$??A?$tvec4@_N$0A@@glm@@QEBAAEB_NH@Z
pdata	ENDS
;	COMDAT pdata
pdata	SEGMENT
$pdata$??0?$tvec4@_N$0A@@glm@@QEAA@W4ctor@1@@Z DD imagerel $LN3
	DD	imagerel $LN3+17
	DD	imagerel $unwind$??0?$tvec4@_N$0A@@glm@@QEAA@W4ctor@1@@Z
pdata	ENDS
;	COMDAT pdata
pdata	SEGMENT
$pdata$??$all@$0A@Utvec4@glm@@@glm@@YA_NAEBU?$tvec4@_N$0A@@0@@Z DD imagerel $LN8
	DD	imagerel $LN8+116
	DD	imagerel $unwind$??$all@$0A@Utvec4@glm@@@glm@@YA_NAEBU?$tvec4@_N$0A@@0@@Z
pdata	ENDS
pdata	SEGMENT
$pdata$main DD	imagerel $LN3
	DD	imagerel $LN3+126
	DD	imagerel $unwind$main
pdata	ENDS
;	COMDAT pdata
pdata	SEGMENT
$pdata$??$?0MH@?$tvec2@M$0A@@glm@@QEAA@MH@Z DD imagerel $LN3
	DD	imagerel $LN3+55
	DD	imagerel $unwind$??$?0MH@?$tvec2@M$0A@@glm@@QEAA@MH@Z
pdata	ENDS
;	COMDAT pdata
pdata	SEGMENT
$pdata$??$?0HM@?$tvec2@M$0A@@glm@@QEAA@HM@Z DD imagerel $LN3
	DD	imagerel $LN3+54
	DD	imagerel $unwind$??$?0HM@?$tvec2@M$0A@@glm@@QEAA@HM@Z
pdata	ENDS
;	COMDAT pdata
pdata	SEGMENT
$pdata$??$?0MHH@?$tvec3@M$0A@@glm@@QEAA@MHH@Z DD imagerel $LN3
	DD	imagerel $LN3+76
	DD	imagerel $unwind$??$?0MHH@?$tvec3@M$0A@@glm@@QEAA@MHH@Z
pdata	ENDS
;	COMDAT pdata
pdata	SEGMENT
$pdata$??$?0HMH@?$tvec3@M$0A@@glm@@QEAA@HMH@Z DD imagerel $LN3
	DD	imagerel $LN3+75
	DD	imagerel $unwind$??$?0HMH@?$tvec3@M$0A@@glm@@QEAA@HMH@Z
pdata	ENDS
;	COMDAT pdata
pdata	SEGMENT
$pdata$??$?0HHM@?$tvec3@M$0A@@glm@@QEAA@HHM@Z DD imagerel $LN3
	DD	imagerel $LN3+75
	DD	imagerel $unwind$??$?0HHM@?$tvec3@M$0A@@glm@@QEAA@HHM@Z
pdata	ENDS
;	COMDAT pdata
pdata	SEGMENT
$pdata$??$?0MHHH@?$tvec4@M$0A@@glm@@QEAA@MHHH@Z DD imagerel $LN3
	DD	imagerel $LN3+92
	DD	imagerel $unwind$??$?0MHHH@?$tvec4@M$0A@@glm@@QEAA@MHHH@Z
pdata	ENDS
;	COMDAT pdata
pdata	SEGMENT
$pdata$??$?0HMHH@?$tvec4@M$0A@@glm@@QEAA@HMHH@Z DD imagerel $LN3
	DD	imagerel $LN3+91
	DD	imagerel $unwind$??$?0HMHH@?$tvec4@M$0A@@glm@@QEAA@HMHH@Z
pdata	ENDS
;	COMDAT pdata
pdata	SEGMENT
$pdata$??$?0HHMH@?$tvec4@M$0A@@glm@@QEAA@HHMH@Z DD imagerel $LN3
	DD	imagerel $LN3+91
	DD	imagerel $unwind$??$?0HHMH@?$tvec4@M$0A@@glm@@QEAA@HHMH@Z
pdata	ENDS
;	COMDAT pdata
pdata	SEGMENT
$pdata$??$?0HHHM@?$tvec4@M$0A@@glm@@QEAA@HHHM@Z DD imagerel $LN3
	DD	imagerel $LN3+90
	DD	imagerel $unwind$??$?0HHHM@?$tvec4@M$0A@@glm@@QEAA@HHHM@Z
pdata	ENDS
;	COMDAT pdata
pdata	SEGMENT
$pdata$?call@?$compute_abs@M$00@detail@glm@@SAMM@Z DD imagerel $LN5
	DD	imagerel $LN5+71
	DD	imagerel $unwind$?call@?$compute_abs@M$00@detail@glm@@SAMM@Z
pdata	ENDS
;	COMDAT pdata
pdata	SEGMENT
$pdata$?call@?$compute_matrixCompMult@Utmat2x2@glm@@M$0A@$0A@@detail@glm@@SA?AU?$tmat2x2@M$0A@@3@AEBU43@0@Z DD imagerel $LN6
	DD	imagerel $LN6+268
	DD	imagerel $unwind$?call@?$compute_matrixCompMult@Utmat2x2@glm@@M$0A@$0A@@detail@glm@@SA?AU?$tmat2x2@M$0A@@3@AEBU43@0@Z
pdata	ENDS
;	COMDAT pdata
pdata	SEGMENT
$pdata$??$?8M$0A@@glm@@YA_NAEBU?$tvec2@M$0A@@0@0@Z DD imagerel $LN5
	DD	imagerel $LN5+85
	DD	imagerel $unwind$??$?8M$0A@@glm@@YA_NAEBU?$tvec2@M$0A@@0@0@Z
pdata	ENDS
;	COMDAT pdata
pdata	SEGMENT
$pdata$?call@?$compute_matrixCompMult@Utmat2x3@glm@@M$0A@$0A@@detail@glm@@SA?AU?$tmat2x3@M$0A@@3@AEBU43@0@Z DD imagerel $LN6
	DD	imagerel $LN6+281
	DD	imagerel $unwind$?call@?$compute_matrixCompMult@Utmat2x3@glm@@M$0A@$0A@@detail@glm@@SA?AU?$tmat2x3@M$0A@@3@AEBU43@0@Z
pdata	ENDS
;	COMDAT pdata
pdata	SEGMENT
$pdata$??$?8M$0A@@glm@@YA_NAEBU?$tvec3@M$0A@@0@0@Z DD imagerel $LN5
	DD	imagerel $LN5+108
	DD	imagerel $unwind$??$?8M$0A@@glm@@YA_NAEBU?$tvec3@M$0A@@0@0@Z
pdata	ENDS
;	COMDAT pdata
pdata	SEGMENT
$pdata$?call@?$compute_matrixCompMult@Utmat2x4@glm@@M$0A@$0A@@detail@glm@@SA?AU?$tmat2x4@M$0A@@3@AEBU43@0@Z DD imagerel $LN6
	DD	imagerel $LN6+287
	DD	imagerel $unwind$?call@?$compute_matrixCompMult@Utmat2x4@glm@@M$0A@$0A@@detail@glm@@SA?AU?$tmat2x4@M$0A@@3@AEBU43@0@Z
pdata	ENDS
;	COMDAT pdata
pdata	SEGMENT
$pdata$??$?8M$0A@@glm@@YA_NAEBU?$tvec4@M$0A@@0@0@Z DD imagerel $LN3
	DD	imagerel $LN3+36
	DD	imagerel $unwind$??$?8M$0A@@glm@@YA_NAEBU?$tvec4@M$0A@@0@0@Z
pdata	ENDS
;	COMDAT pdata
pdata	SEGMENT
$pdata$?call@?$compute_matrixCompMult@Utmat3x3@glm@@M$0A@$0A@@detail@glm@@SA?AU?$tmat3x3@M$0A@@3@AEBU43@0@Z DD imagerel $LN6
	DD	imagerel $LN6+287
	DD	imagerel $unwind$?call@?$compute_matrixCompMult@Utmat3x3@glm@@M$0A@$0A@@detail@glm@@SA?AU?$tmat3x3@M$0A@@3@AEBU43@0@Z
pdata	ENDS
;	COMDAT pdata
pdata	SEGMENT
$pdata$?call@?$compute_matrixCompMult@Utmat3x2@glm@@M$0A@$0A@@detail@glm@@SA?AU?$tmat3x2@M$0A@@3@AEBU43@0@Z DD imagerel $LN6
	DD	imagerel $LN6+268
	DD	imagerel $unwind$?call@?$compute_matrixCompMult@Utmat3x2@glm@@M$0A@$0A@@detail@glm@@SA?AU?$tmat3x2@M$0A@@3@AEBU43@0@Z
pdata	ENDS
;	COMDAT pdata
pdata	SEGMENT
$pdata$?call@?$compute_matrixCompMult@Utmat3x4@glm@@M$0A@$0A@@detail@glm@@SA?AU?$tmat3x4@M$0A@@3@AEBU43@0@Z DD imagerel $LN6
	DD	imagerel $LN6+302
	DD	imagerel $unwind$?call@?$compute_matrixCompMult@Utmat3x4@glm@@M$0A@$0A@@detail@glm@@SA?AU?$tmat3x4@M$0A@@3@AEBU43@0@Z
pdata	ENDS
;	COMDAT pdata
pdata	SEGMENT
$pdata$?call@?$compute_matrixCompMult@Utmat4x4@glm@@M$0A@$0A@@detail@glm@@SA?AU?$tmat4x4@M$0A@@3@AEBU43@0@Z DD imagerel $LN6
	DD	imagerel $LN6+305
	DD	imagerel $unwind$?call@?$compute_matrixCompMult@Utmat4x4@glm@@M$0A@$0A@@detail@glm@@SA?AU?$tmat4x4@M$0A@@3@AEBU43@0@Z
pdata	ENDS
;	COMDAT pdata
pdata	SEGMENT
$pdata$?call@?$compute_matrixCompMult@Utmat4x2@glm@@M$0A@$0A@@detail@glm@@SA?AU?$tmat4x2@M$0A@@3@AEBU43@0@Z DD imagerel $LN6
	DD	imagerel $LN6+274
	DD	imagerel $unwind$?call@?$compute_matrixCompMult@Utmat4x2@glm@@M$0A@$0A@@detail@glm@@SA?AU?$tmat4x2@M$0A@@3@AEBU43@0@Z
pdata	ENDS
;	COMDAT pdata
pdata	SEGMENT
$pdata$?call@?$compute_matrixCompMult@Utmat4x3@glm@@M$0A@$0A@@detail@glm@@SA?AU?$tmat4x3@M$0A@@3@AEBU43@0@Z DD imagerel $LN6
	DD	imagerel $LN6+302
	DD	imagerel $unwind$?call@?$compute_matrixCompMult@Utmat4x3@glm@@M$0A@$0A@@detail@glm@@SA?AU?$tmat4x3@M$0A@@3@AEBU43@0@Z
pdata	ENDS
;	COMDAT pdata
pdata	SEGMENT
$pdata$??$?DM$0A@@glm@@YA?AU?$tvec2@M$0A@@0@AEBU10@M@Z DD imagerel $LN3
	DD	imagerel $LN3+76
	DD	imagerel $unwind$??$?DM$0A@@glm@@YA?AU?$tvec2@M$0A@@0@AEBU10@M@Z
pdata	ENDS
;	COMDAT pdata
pdata	SEGMENT
$pdata$??$?DM$0A@@glm@@YA?AU?$tvec3@M$0A@@0@AEBU10@M@Z DD imagerel $LN3
	DD	imagerel $LN3+110
	DD	imagerel $unwind$??$?DM$0A@@glm@@YA?AU?$tvec3@M$0A@@0@AEBU10@M@Z
pdata	ENDS
;	COMDAT pdata
pdata	SEGMENT
$pdata$??$?DM$0A@@glm@@YA?AU?$tvec4@M$0A@@0@AEBU10@M@Z DD imagerel $LN3
	DD	imagerel $LN3+85
	DD	imagerel $unwind$??$?DM$0A@@glm@@YA?AU?$tvec4@M$0A@@0@AEBU10@M@Z
pdata	ENDS
;	COMDAT pdata
pdata	SEGMENT
$pdata$?call@?$compute_transpose@Utmat2x2@glm@@M$0A@$0A@@detail@glm@@SA?AU?$tmat2x2@M$0A@@3@AEBU43@@Z DD imagerel $LN3
	DD	imagerel $LN3+430
	DD	imagerel $unwind$?call@?$compute_transpose@Utmat2x2@glm@@M$0A@$0A@@detail@glm@@SA?AU?$tmat2x2@M$0A@@3@AEBU43@@Z
pdata	ENDS
;	COMDAT pdata
pdata	SEGMENT
$pdata$?call@?$compute_transpose@Utmat2x3@glm@@M$0A@$0A@@detail@glm@@SA?AU?$tmat3x2@M$0A@@3@AEBU?$tmat2x3@M$0A@@3@@Z DD imagerel $LN3
	DD	imagerel $LN3+584
	DD	imagerel $unwind$?call@?$compute_transpose@Utmat2x3@glm@@M$0A@$0A@@detail@glm@@SA?AU?$tmat3x2@M$0A@@3@AEBU?$tmat2x3@M$0A@@3@@Z
pdata	ENDS
;	COMDAT pdata
pdata	SEGMENT
$pdata$?call@?$compute_transpose@Utmat2x4@glm@@M$0A@$0A@@detail@glm@@SA?AU?$tmat4x2@M$0A@@3@AEBU?$tmat2x4@M$0A@@3@@Z DD imagerel $LN3
	DD	imagerel $LN3+756
	DD	imagerel $unwind$?call@?$compute_transpose@Utmat2x4@glm@@M$0A@$0A@@detail@glm@@SA?AU?$tmat4x2@M$0A@@3@AEBU?$tmat2x4@M$0A@@3@@Z
pdata	ENDS
;	COMDAT pdata
pdata	SEGMENT
$pdata$?call@?$compute_transpose@Utmat3x3@glm@@M$0A@$0A@@detail@glm@@SA?AU?$tmat3x3@M$0A@@3@AEBU43@@Z DD imagerel $LN3
	DD	imagerel $LN3+839
	DD	imagerel $unwind$?call@?$compute_transpose@Utmat3x3@glm@@M$0A@$0A@@detail@glm@@SA?AU?$tmat3x3@M$0A@@3@AEBU43@@Z
pdata	ENDS
;	COMDAT pdata
pdata	SEGMENT
$pdata$?call@?$compute_transpose@Utmat3x2@glm@@M$0A@$0A@@detail@glm@@SA?AU?$tmat2x3@M$0A@@3@AEBU?$tmat3x2@M$0A@@3@@Z DD imagerel $LN3
	DD	imagerel $LN3+584
	DD	imagerel $unwind$?call@?$compute_transpose@Utmat3x2@glm@@M$0A@$0A@@detail@glm@@SA?AU?$tmat2x3@M$0A@@3@AEBU?$tmat3x2@M$0A@@3@@Z
pdata	ENDS
;	COMDAT pdata
pdata	SEGMENT
$pdata$?call@?$compute_transpose@Utmat3x4@glm@@M$0A@$0A@@detail@glm@@SA?AU?$tmat4x3@M$0A@@3@AEBU?$tmat3x4@M$0A@@3@@Z DD imagerel $LN3
	DD	imagerel $LN3+1094
	DD	imagerel $unwind$?call@?$compute_transpose@Utmat3x4@glm@@M$0A@$0A@@detail@glm@@SA?AU?$tmat4x3@M$0A@@3@AEBU?$tmat3x4@M$0A@@3@@Z
pdata	ENDS
;	COMDAT pdata
pdata	SEGMENT
$pdata$?call@?$compute_transpose@Utmat4x4@glm@@M$0A@$0A@@detail@glm@@SA?AU?$tmat4x4@M$0A@@3@AEBU43@@Z DD imagerel $LN3
	DD	imagerel $LN3+1432
	DD	imagerel $unwind$?call@?$compute_transpose@Utmat4x4@glm@@M$0A@$0A@@detail@glm@@SA?AU?$tmat4x4@M$0A@@3@AEBU43@@Z
pdata	ENDS
;	COMDAT pdata
pdata	SEGMENT
$pdata$?call@?$compute_transpose@Utmat4x2@glm@@M$0A@$0A@@detail@glm@@SA?AU?$tmat2x4@M$0A@@3@AEBU?$tmat4x2@M$0A@@3@@Z DD imagerel $LN3
	DD	imagerel $LN3+756
	DD	imagerel $unwind$?call@?$compute_transpose@Utmat4x2@glm@@M$0A@$0A@@detail@glm@@SA?AU?$tmat2x4@M$0A@@3@AEBU?$tmat4x2@M$0A@@3@@Z
pdata	ENDS
;	COMDAT pdata
pdata	SEGMENT
$pdata$?call@?$compute_transpose@Utmat4x3@glm@@M$0A@$0A@@detail@glm@@SA?AU?$tmat3x4@M$0A@@3@AEBU?$tmat4x3@M$0A@@3@@Z DD imagerel $LN3
	DD	imagerel $LN3+1094
	DD	imagerel $unwind$?call@?$compute_transpose@Utmat4x3@glm@@M$0A@$0A@@detail@glm@@SA?AU?$tmat3x4@M$0A@@3@AEBU?$tmat4x3@M$0A@@3@@Z
pdata	ENDS
;	COMDAT pdata
pdata	SEGMENT
$pdata$?call@?$compute_inverse@Utmat4x4@glm@@M$0A@$0A@@detail@glm@@SA?AU?$tmat4x4@M$0A@@3@AEBU43@@Z DD imagerel $LN3
	DD	imagerel $LN3+5983
	DD	imagerel $unwind$?call@?$compute_inverse@Utmat4x4@glm@@M$0A@$0A@@detail@glm@@SA?AU?$tmat4x4@M$0A@@3@AEBU43@@Z
pdata	ENDS
;	COMDAT pdata
pdata	SEGMENT
$pdata$??$?HM$0A@@glm@@YA?AU?$tvec4@M$0A@@0@AEBU10@0@Z DD imagerel $LN3
	DD	imagerel $LN3+83
	DD	imagerel $unwind$??$?HM$0A@@glm@@YA?AU?$tvec4@M$0A@@0@AEBU10@0@Z
pdata	ENDS
;	COMDAT pdata
pdata	SEGMENT
$pdata$?call@?$compute_inverse@Utmat3x3@glm@@M$0A@$0A@@detail@glm@@SA?AU?$tmat3x3@M$0A@@3@AEBU43@@Z DD imagerel $LN3
	DD	imagerel $LN3+3167
	DD	imagerel $unwind$?call@?$compute_inverse@Utmat3x3@glm@@M$0A@$0A@@detail@glm@@SA?AU?$tmat3x3@M$0A@@3@AEBU43@@Z
pdata	ENDS
;	COMDAT pdata
pdata	SEGMENT
$pdata$?call@?$compute_inverse@Utmat2x2@glm@@M$0A@$0A@@detail@glm@@SA?AU?$tmat2x2@M$0A@@3@AEBU43@@Z DD imagerel $LN3
	DD	imagerel $LN3+571
	DD	imagerel $unwind$?call@?$compute_inverse@Utmat2x2@glm@@M$0A@$0A@@detail@glm@@SA?AU?$tmat2x2@M$0A@@3@AEBU43@@Z
pdata	ENDS
;	COMDAT pdata
pdata	SEGMENT
$pdata$??$?GM$0A@@glm@@YA?AU?$tvec4@M$0A@@0@AEBU10@0@Z DD imagerel $LN3
	DD	imagerel $LN3+83
	DD	imagerel $unwind$??$?GM$0A@@glm@@YA?AU?$tvec4@M$0A@@0@AEBU10@0@Z
pdata	ENDS
;	COMDAT pdata
pdata	SEGMENT
$pdata$??$abs@M$0A@Utvec4@glm@@@glm@@YA?AU?$tvec4@M$0A@@0@AEBU10@@Z DD imagerel $LN3
	DD	imagerel $LN3+41
	DD	imagerel $unwind$??$abs@M$0A@Utvec4@glm@@@glm@@YA?AU?$tvec4@M$0A@@0@AEBU10@@Z
pdata	ENDS
;	COMDAT pdata
pdata	SEGMENT
$pdata$??$lessThan@M$0A@Utvec4@glm@@@glm@@YA?AU?$tvec4@_N$0A@@0@AEBU?$tvec4@M$0A@@0@0@Z DD imagerel $LN9
	DD	imagerel $LN9+266
	DD	imagerel $unwind$??$lessThan@M$0A@Utvec4@glm@@@glm@@YA?AU?$tvec4@_N$0A@@0@AEBU?$tvec4@M$0A@@0@0@Z
pdata	ENDS
;	COMDAT pdata
pdata	SEGMENT
$pdata$??$?DM$0A@@glm@@YA?AU?$tvec4@M$0A@@0@AEBU10@0@Z DD imagerel $LN3
	DD	imagerel $LN3+83
	DD	imagerel $unwind$??$?DM$0A@@glm@@YA?AU?$tvec4@M$0A@@0@AEBU10@0@Z
pdata	ENDS
;	COMDAT pdata
pdata	SEGMENT
$pdata$??$?DM$0A@@glm@@YA?AU?$tmat4x4@M$0A@@0@AEBU10@AEBM@Z DD imagerel $LN3
	DD	imagerel $LN3+272
	DD	imagerel $unwind$??$?DM$0A@@glm@@YA?AU?$tmat4x4@M$0A@@0@AEBU10@AEBM@Z
pdata	ENDS
;	COMDAT pdata
pdata	SEGMENT
$pdata$??$?DM$0A@@glm@@YA?AU?$tvec3@M$0A@@0@AEBU10@0@Z DD imagerel $LN3
	DD	imagerel $LN3+120
	DD	imagerel $unwind$??$?DM$0A@@glm@@YA?AU?$tvec3@M$0A@@0@AEBU10@0@Z
pdata	ENDS
;	COMDAT pdata
pdata	SEGMENT
$pdata$??$?DM$0A@@glm@@YA?AU?$tvec2@M$0A@@0@AEBU10@0@Z DD imagerel $LN3
	DD	imagerel $LN3+82
	DD	imagerel $unwind$??$?DM$0A@@glm@@YA?AU?$tvec2@M$0A@@0@AEBU10@0@Z
pdata	ENDS
;	COMDAT pdata
pdata	SEGMENT
$pdata$?call@?$compute_vec4_equal@M$0A@$0A@$0CA@$0A@@detail@glm@@SA_NAEBU?$tvec4@M$0A@@3@0@Z DD imagerel $LN5
	DD	imagerel $LN5+131
	DD	imagerel $unwind$?call@?$compute_vec4_equal@M$0A@$0A@$0CA@$0A@@detail@glm@@SA_NAEBU?$tvec4@M$0A@@3@0@Z
pdata	ENDS
;	COMDAT pdata
pdata	SEGMENT
$pdata$??$?XM@?$tvec4@M$0A@@glm@@QEAAAEAU01@M@Z DD imagerel $LN3
	DD	imagerel $LN3+78
	DD	imagerel $unwind$??$?XM@?$tvec4@M$0A@@glm@@QEAAAEAU01@M@Z
pdata	ENDS
;	COMDAT pdata
pdata	SEGMENT
$pdata$??$?YM@?$tvec4@M$0A@@glm@@QEAAAEAU01@AEBU01@@Z DD imagerel $LN3
	DD	imagerel $LN3+83
	DD	imagerel $unwind$??$?YM@?$tvec4@M$0A@@glm@@QEAAAEAU01@AEBU01@@Z
pdata	ENDS
;	COMDAT pdata
pdata	SEGMENT
$pdata$??$?ZM@?$tvec4@M$0A@@glm@@QEAAAEAU01@AEBU01@@Z DD imagerel $LN3
	DD	imagerel $LN3+83
	DD	imagerel $unwind$??$?ZM@?$tvec4@M$0A@@glm@@QEAAAEAU01@AEBU01@@Z
pdata	ENDS
;	COMDAT pdata
pdata	SEGMENT
$pdata$?call@?$compute_abs_vector@M$0A@Utvec4@glm@@$0A@@detail@glm@@SA?AU?$tvec4@M$0A@@3@AEBU43@@Z DD imagerel $LN3
	DD	imagerel $LN3+48
	DD	imagerel $unwind$?call@?$compute_abs_vector@M$0A@Utvec4@glm@@$0A@@detail@glm@@SA?AU?$tvec4@M$0A@@3@AEBU43@@Z
pdata	ENDS
;	COMDAT pdata
pdata	SEGMENT
$pdata$??$?XM@?$tvec4@M$0A@@glm@@QEAAAEAU01@AEBU01@@Z DD imagerel $LN3
	DD	imagerel $LN3+83
	DD	imagerel $unwind$??$?XM@?$tvec4@M$0A@@glm@@QEAAAEAU01@AEBU01@@Z
pdata	ENDS
;	COMDAT pdata
pdata	SEGMENT
$pdata$?call@?$functor1@MM$0A@Utvec4@glm@@@detail@glm@@SA?AU?$tvec4@M$0A@@3@P6AMM@ZAEBU43@@Z DD imagerel $LN3
	DD	imagerel $LN3+147
	DD	imagerel $unwind$?call@?$functor1@MM$0A@Utvec4@glm@@@detail@glm@@SA?AU?$tvec4@M$0A@@3@P6AMM@ZAEBU43@@Z
pdata	ENDS
;	COMDAT pdata
pdata	SEGMENT
$pdata$?call@?$compute_vec4_mul@M$0A@$0A@@detail@glm@@SA?AU?$tvec4@M$0A@@3@AEBU43@0@Z DD imagerel $LN3
	DD	imagerel $LN3+143
	DD	imagerel $unwind$?call@?$compute_vec4_mul@M$0A@$0A@@detail@glm@@SA?AU?$tvec4@M$0A@@3@AEBU43@0@Z
pdata	ENDS
;	COMDAT pdata
pdata	SEGMENT
$pdata$?call@?$compute_vec4_add@M$0A@$0A@@detail@glm@@SA?AU?$tvec4@M$0A@@3@AEBU43@0@Z DD imagerel $LN3
	DD	imagerel $LN3+143
	DD	imagerel $unwind$?call@?$compute_vec4_add@M$0A@$0A@@detail@glm@@SA?AU?$tvec4@M$0A@@3@AEBU43@0@Z
pdata	ENDS
;	COMDAT pdata
pdata	SEGMENT
$pdata$?call@?$compute_vec4_sub@M$0A@$0A@@detail@glm@@SA?AU?$tvec4@M$0A@@3@AEBU43@0@Z DD imagerel $LN3
	DD	imagerel $LN3+143
	DD	imagerel $unwind$?call@?$compute_vec4_sub@M$0A@$0A@@detail@glm@@SA?AU?$tvec4@M$0A@@3@AEBU43@0@Z
pdata	ENDS
;	COMDAT __xmm@80000000800000008000000080000000
CONST	SEGMENT
__xmm@80000000800000008000000080000000 DB 00H, 00H, 00H, 080H, 00H, 00H, 00H
	DB	080H, 00H, 00H, 00H, 080H, 00H, 00H, 00H, 080H
CONST	ENDS
;	COMDAT __real@3f800000
CONST	SEGMENT
__real@3f800000 DD 03f800000r			; 1
CONST	ENDS
;	COMDAT __real@3a83126f
CONST	SEGMENT
__real@3a83126f DD 03a83126fr			; 0.001
CONST	ENDS
;	COMDAT __real@00000000
CONST	SEGMENT
__real@00000000 DD 000000000r			; 0
CONST	ENDS
;	COMDAT rtc$TMZ
rtc$TMZ	SEGMENT
_RTC_Shutdown.rtc$TMZ DQ FLAT:_RTC_Shutdown
rtc$TMZ	ENDS
;	COMDAT rtc$IMZ
rtc$IMZ	SEGMENT
_RTC_InitBase.rtc$IMZ DQ FLAT:_RTC_InitBase
rtc$IMZ	ENDS
;	COMDAT ??_C@_1DC@HHLCGOLC@?$AAx?$AA?4?$AAl?$AAe?$AAn?$AAg?$AAt?$AAh?$AA?$CI?$AA?$CJ?$AA?5?$AA?$DN?$AA?$DN?$AA?5?$AAy@
CONST	SEGMENT
??_C@_1DC@HHLCGOLC@?$AAx?$AA?4?$AAl?$AAe?$AAn?$AAg?$AAt?$AAh?$AA?$CI?$AA?$CJ?$AA?5?$AA?$DN?$AA?$DN?$AA?5?$AAy@ DB 'x'
	DB	00H, '.', 00H, 'l', 00H, 'e', 00H, 'n', 00H, 'g', 00H, 't', 00H
	DB	'h', 00H, '(', 00H, ')', 00H, ' ', 00H, '=', 00H, '=', 00H, ' '
	DB	00H, 'y', 00H, '.', 00H, 'l', 00H, 'e', 00H, 'n', 00H, 'g', 00H
	DB	't', 00H, 'h', 00H, '(', 00H, ')', 00H, 00H, 00H ; `string'
CONST	ENDS
;	COMDAT ??_C@_1NA@OPABFNEN@?$AAC?$AA?3?$AA?2?$AAU?$AAs?$AAe?$AAr?$AAs?$AA?2?$AAk?$AAs?$AAa?$AAr?$AAt?$AA?2@
CONST	SEGMENT
??_C@_1NA@OPABFNEN@?$AAC?$AA?3?$AA?2?$AAU?$AAs?$AAe?$AAr?$AAs?$AA?2?$AAk?$AAs?$AAa?$AAr?$AAt?$AA?2@ DB 'C'
	DB	00H, ':', 00H, '\', 00H, 'U', 00H, 's', 00H, 'e', 00H, 'r', 00H
	DB	's', 00H, '\', 00H, 'k', 00H, 's', 00H, 'a', 00H, 'r', 00H, 't'
	DB	00H, '\', 00H, 'O', 00H, 'n', 00H, 'e', 00H, 'D', 00H, 'r', 00H
	DB	'i', 00H, 'v', 00H, 'e', 00H, '\', 00H, 'D', 00H, 'e', 00H, 's'
	DB	00H, 'k', 00H, 't', 00H, 'o', 00H, 'p', 00H, '\', 00H, 'F', 00H
	DB	'l', 00H, 'a', 00H, 'p', 00H, 'p', 00H, 'y', 00H, 'B', 00H, 'i'
	DB	00H, 'r', 00H, 'd', 00H, '\', 00H, 'l', 00H, 'i', 00H, 'b', 00H
	DB	'r', 00H, 'a', 00H, 'r', 00H, 'i', 00H, 'e', 00H, 's', 00H, '\'
	DB	00H, 'e', 00H, 'x', 00H, 't', 00H, 'e', 00H, 'r', 00H, 'n', 00H
	DB	'a', 00H, 'l', 00H, '\', 00H, 'g', 00H, 'l', 00H, 'm', 00H, '\'
	DB	00H, 'g', 00H, 'l', 00H, 'm', 00H, '\', 00H, 'd', 00H, 'e', 00H
	DB	't', 00H, 'a', 00H, 'i', 00H, 'l', 00H, '\', 00H, 'f', 00H, 'u'
	DB	00H, 'n', 00H, 'c', 00H, '_', 00H, 'v', 00H, 'e', 00H, 'c', 00H
	DB	't', 00H, 'o', 00H, 'r', 00H, '_', 00H, 'r', 00H, 'e', 00H, 'l'
	DB	00H, 'a', 00H, 't', 00H, 'i', 00H, 'o', 00H, 'n', 00H, 'a', 00H
	DB	'l', 00H, '.', 00H, 'i', 00H, 'n', 00H, 'l', 00H, 00H, 00H ; `string'
CONST	ENDS
;	COMDAT ??_C@_1LG@LAANPDHN@?$AAC?$AA?3?$AA?2?$AAU?$AAs?$AAe?$AAr?$AAs?$AA?2?$AAk?$AAs?$AAa?$AAr?$AAt?$AA?2@
CONST	SEGMENT
??_C@_1LG@LAANPDHN@?$AAC?$AA?3?$AA?2?$AAU?$AAs?$AAe?$AAr?$AAs?$AA?2?$AAk?$AAs?$AAa?$AAr?$AAt?$AA?2@ DB 'C'
	DB	00H, ':', 00H, '\', 00H, 'U', 00H, 's', 00H, 'e', 00H, 'r', 00H
	DB	's', 00H, '\', 00H, 'k', 00H, 's', 00H, 'a', 00H, 'r', 00H, 't'
	DB	00H, '\', 00H, 'O', 00H, 'n', 00H, 'e', 00H, 'D', 00H, 'r', 00H
	DB	'i', 00H, 'v', 00H, 'e', 00H, '\', 00H, 'D', 00H, 'e', 00H, 's'
	DB	00H, 'k', 00H, 't', 00H, 'o', 00H, 'p', 00H, '\', 00H, 'F', 00H
	DB	'l', 00H, 'a', 00H, 'p', 00H, 'p', 00H, 'y', 00H, 'B', 00H, 'i'
	DB	00H, 'r', 00H, 'd', 00H, '\', 00H, 'l', 00H, 'i', 00H, 'b', 00H
	DB	'r', 00H, 'a', 00H, 'r', 00H, 'i', 00H, 'e', 00H, 's', 00H, '\'
	DB	00H, 'e', 00H, 'x', 00H, 't', 00H, 'e', 00H, 'r', 00H, 'n', 00H
	DB	'a', 00H, 'l', 00H, '\', 00H, 'g', 00H, 'l', 00H, 'm', 00H, '\'
	DB	00H, 'g', 00H, 'l', 00H, 'm', 00H, '\', 00H, 'd', 00H, 'e', 00H
	DB	't', 00H, 'a', 00H, 'i', 00H, 'l', 00H, '\', 00H, 't', 00H, 'y'
	DB	00H, 'p', 00H, 'e', 00H, '_', 00H, 'v', 00H, 'e', 00H, 'c', 00H
	DB	'4', 00H, '.', 00H, 'i', 00H, 'n', 00H, 'l', 00H, 00H, 00H ; `string'
CONST	ENDS
;	COMDAT ??_C@_1LG@MEJFBKPC@?$AAC?$AA?3?$AA?2?$AAU?$AAs?$AAe?$AAr?$AAs?$AA?2?$AAk?$AAs?$AAa?$AAr?$AAt?$AA?2@
CONST	SEGMENT
??_C@_1LG@MEJFBKPC@?$AAC?$AA?3?$AA?2?$AAU?$AAs?$AAe?$AAr?$AAs?$AA?2?$AAk?$AAs?$AAa?$AAr?$AAt?$AA?2@ DB 'C'
	DB	00H, ':', 00H, '\', 00H, 'U', 00H, 's', 00H, 'e', 00H, 'r', 00H
	DB	's', 00H, '\', 00H, 'k', 00H, 's', 00H, 'a', 00H, 'r', 00H, 't'
	DB	00H, '\', 00H, 'O', 00H, 'n', 00H, 'e', 00H, 'D', 00H, 'r', 00H
	DB	'i', 00H, 'v', 00H, 'e', 00H, '\', 00H, 'D', 00H, 'e', 00H, 's'
	DB	00H, 'k', 00H, 't', 00H, 'o', 00H, 'p', 00H, '\', 00H, 'F', 00H
	DB	'l', 00H, 'a', 00H, 'p', 00H, 'p', 00H, 'y', 00H, 'B', 00H, 'i'
	DB	00H, 'r', 00H, 'd', 00H, '\', 00H, 'l', 00H, 'i', 00H, 'b', 00H
	DB	'r', 00H, 'a', 00H, 'r', 00H, 'i', 00H, 'e', 00H, 's', 00H, '\'
	DB	00H, 'e', 00H, 'x', 00H, 't', 00H, 'e', 00H, 'r', 00H, 'n', 00H
	DB	'a', 00H, 'l', 00H, '\', 00H, 'g', 00H, 'l', 00H, 'm', 00H, '\'
	DB	00H, 'g', 00H, 'l', 00H, 'm', 00H, '\', 00H, 'd', 00H, 'e', 00H
	DB	't', 00H, 'a', 00H, 'i', 00H, 'l', 00H, '\', 00H, 't', 00H, 'y'
	DB	00H, 'p', 00H, 'e', 00H, '_', 00H, 'v', 00H, 'e', 00H, 'c', 00H
	DB	'3', 00H, '.', 00H, 'i', 00H, 'n', 00H, 'l', 00H, 00H, 00H ; `string'
CONST	ENDS
;	COMDAT ??_C@_1DK@BGNCJAPL@?$AAi?$AA?5?$AA?$DO?$AA?$DN?$AA?5?$AA0?$AA?5?$AA?$CG?$AA?$CG?$AA?5?$AAi?$AA?5?$AA?$DM?$AA?5?$AAt@
CONST	SEGMENT
??_C@_1DK@BGNCJAPL@?$AAi?$AA?5?$AA?$DO?$AA?$DN?$AA?5?$AA0?$AA?5?$AA?$CG?$AA?$CG?$AA?5?$AAi?$AA?5?$AA?$DM?$AA?5?$AAt@ DB 'i'
	DB	00H, ' ', 00H, '>', 00H, '=', 00H, ' ', 00H, '0', 00H, ' ', 00H
	DB	'&', 00H, '&', 00H, ' ', 00H, 'i', 00H, ' ', 00H, '<', 00H, ' '
	DB	00H, 't', 00H, 'h', 00H, 'i', 00H, 's', 00H, '-', 00H, '>', 00H
	DB	'l', 00H, 'e', 00H, 'n', 00H, 'g', 00H, 't', 00H, 'h', 00H, '('
	DB	00H, ')', 00H, 00H, 00H			; `string'
CONST	ENDS
;	COMDAT ??_C@_1LG@FPDAFGJN@?$AAC?$AA?3?$AA?2?$AAU?$AAs?$AAe?$AAr?$AAs?$AA?2?$AAk?$AAs?$AAa?$AAr?$AAt?$AA?2@
CONST	SEGMENT
??_C@_1LG@FPDAFGJN@?$AAC?$AA?3?$AA?2?$AAU?$AAs?$AAe?$AAr?$AAs?$AA?2?$AAk?$AAs?$AAa?$AAr?$AAt?$AA?2@ DB 'C'
	DB	00H, ':', 00H, '\', 00H, 'U', 00H, 's', 00H, 'e', 00H, 'r', 00H
	DB	's', 00H, '\', 00H, 'k', 00H, 's', 00H, 'a', 00H, 'r', 00H, 't'
	DB	00H, '\', 00H, 'O', 00H, 'n', 00H, 'e', 00H, 'D', 00H, 'r', 00H
	DB	'i', 00H, 'v', 00H, 'e', 00H, '\', 00H, 'D', 00H, 'e', 00H, 's'
	DB	00H, 'k', 00H, 't', 00H, 'o', 00H, 'p', 00H, '\', 00H, 'F', 00H
	DB	'l', 00H, 'a', 00H, 'p', 00H, 'p', 00H, 'y', 00H, 'B', 00H, 'i'
	DB	00H, 'r', 00H, 'd', 00H, '\', 00H, 'l', 00H, 'i', 00H, 'b', 00H
	DB	'r', 00H, 'a', 00H, 'r', 00H, 'i', 00H, 'e', 00H, 's', 00H, '\'
	DB	00H, 'e', 00H, 'x', 00H, 't', 00H, 'e', 00H, 'r', 00H, 'n', 00H
	DB	'a', 00H, 'l', 00H, '\', 00H, 'g', 00H, 'l', 00H, 'm', 00H, '\'
	DB	00H, 'g', 00H, 'l', 00H, 'm', 00H, '\', 00H, 'd', 00H, 'e', 00H
	DB	't', 00H, 'a', 00H, 'i', 00H, 'l', 00H, '\', 00H, 't', 00H, 'y'
	DB	00H, 'p', 00H, 'e', 00H, '_', 00H, 'v', 00H, 'e', 00H, 'c', 00H
	DB	'2', 00H, '.', 00H, 'i', 00H, 'n', 00H, 'l', 00H, 00H, 00H ; `string'
CONST	ENDS
;	COMDAT ??_C@_1LK@GEGFBJDO@?$AAC?$AA?3?$AA?2?$AAU?$AAs?$AAe?$AAr?$AAs?$AA?2?$AAk?$AAs?$AAa?$AAr?$AAt?$AA?2@
CONST	SEGMENT
??_C@_1LK@GEGFBJDO@?$AAC?$AA?3?$AA?2?$AAU?$AAs?$AAe?$AAr?$AAs?$AA?2?$AAk?$AAs?$AAa?$AAr?$AAt?$AA?2@ DB 'C'
	DB	00H, ':', 00H, '\', 00H, 'U', 00H, 's', 00H, 'e', 00H, 'r', 00H
	DB	's', 00H, '\', 00H, 'k', 00H, 's', 00H, 'a', 00H, 'r', 00H, 't'
	DB	00H, '\', 00H, 'O', 00H, 'n', 00H, 'e', 00H, 'D', 00H, 'r', 00H
	DB	'i', 00H, 'v', 00H, 'e', 00H, '\', 00H, 'D', 00H, 'e', 00H, 's'
	DB	00H, 'k', 00H, 't', 00H, 'o', 00H, 'p', 00H, '\', 00H, 'F', 00H
	DB	'l', 00H, 'a', 00H, 'p', 00H, 'p', 00H, 'y', 00H, 'B', 00H, 'i'
	DB	00H, 'r', 00H, 'd', 00H, '\', 00H, 'l', 00H, 'i', 00H, 'b', 00H
	DB	'r', 00H, 'a', 00H, 'r', 00H, 'i', 00H, 'e', 00H, 's', 00H, '\'
	DB	00H, 'e', 00H, 'x', 00H, 't', 00H, 'e', 00H, 'r', 00H, 'n', 00H
	DB	'a', 00H, 'l', 00H, '\', 00H, 'g', 00H, 'l', 00H, 'm', 00H, '\'
	DB	00H, 'g', 00H, 'l', 00H, 'm', 00H, '\', 00H, 'd', 00H, 'e', 00H
	DB	't', 00H, 'a', 00H, 'i', 00H, 'l', 00H, '\', 00H, 't', 00H, 'y'
	DB	00H, 'p', 00H, 'e', 00H, '_', 00H, 'm', 00H, 'a', 00H, 't', 00H
	DB	'4', 00H, 'x', 00H, '3', 00H, '.', 00H, 'i', 00H, 'n', 00H, 'l'
	DB	00H, 00H, 00H				; `string'
CONST	ENDS
;	COMDAT ??_C@_1LK@PPMAFFFB@?$AAC?$AA?3?$AA?2?$AAU?$AAs?$AAe?$AAr?$AAs?$AA?2?$AAk?$AAs?$AAa?$AAr?$AAt?$AA?2@
CONST	SEGMENT
??_C@_1LK@PPMAFFFB@?$AAC?$AA?3?$AA?2?$AAU?$AAs?$AAe?$AAr?$AAs?$AA?2?$AAk?$AAs?$AAa?$AAr?$AAt?$AA?2@ DB 'C'
	DB	00H, ':', 00H, '\', 00H, 'U', 00H, 's', 00H, 'e', 00H, 'r', 00H
	DB	's', 00H, '\', 00H, 'k', 00H, 's', 00H, 'a', 00H, 'r', 00H, 't'
	DB	00H, '\', 00H, 'O', 00H, 'n', 00H, 'e', 00H, 'D', 00H, 'r', 00H
	DB	'i', 00H, 'v', 00H, 'e', 00H, '\', 00H, 'D', 00H, 'e', 00H, 's'
	DB	00H, 'k', 00H, 't', 00H, 'o', 00H, 'p', 00H, '\', 00H, 'F', 00H
	DB	'l', 00H, 'a', 00H, 'p', 00H, 'p', 00H, 'y', 00H, 'B', 00H, 'i'
	DB	00H, 'r', 00H, 'd', 00H, '\', 00H, 'l', 00H, 'i', 00H, 'b', 00H
	DB	'r', 00H, 'a', 00H, 'r', 00H, 'i', 00H, 'e', 00H, 's', 00H, '\'
	DB	00H, 'e', 00H, 'x', 00H, 't', 00H, 'e', 00H, 'r', 00H, 'n', 00H
	DB	'a', 00H, 'l', 00H, '\', 00H, 'g', 00H, 'l', 00H, 'm', 00H, '\'
	DB	00H, 'g', 00H, 'l', 00H, 'm', 00H, '\', 00H, 'd', 00H, 'e', 00H
	DB	't', 00H, 'a', 00H, 'i', 00H, 'l', 00H, '\', 00H, 't', 00H, 'y'
	DB	00H, 'p', 00H, 'e', 00H, '_', 00H, 'm', 00H, 'a', 00H, 't', 00H
	DB	'4', 00H, 'x', 00H, '2', 00H, '.', 00H, 'i', 00H, 'n', 00H, 'l'
	DB	00H, 00H, 00H				; `string'
CONST	ENDS
;	COMDAT ??_C@_1LK@ONAEAIME@?$AAC?$AA?3?$AA?2?$AAU?$AAs?$AAe?$AAr?$AAs?$AA?2?$AAk?$AAs?$AAa?$AAr?$AAt?$AA?2@
CONST	SEGMENT
??_C@_1LK@ONAEAIME@?$AAC?$AA?3?$AA?2?$AAU?$AAs?$AAe?$AAr?$AAs?$AA?2?$AAk?$AAs?$AAa?$AAr?$AAt?$AA?2@ DB 'C'
	DB	00H, ':', 00H, '\', 00H, 'U', 00H, 's', 00H, 'e', 00H, 'r', 00H
	DB	's', 00H, '\', 00H, 'k', 00H, 's', 00H, 'a', 00H, 'r', 00H, 't'
	DB	00H, '\', 00H, 'O', 00H, 'n', 00H, 'e', 00H, 'D', 00H, 'r', 00H
	DB	'i', 00H, 'v', 00H, 'e', 00H, '\', 00H, 'D', 00H, 'e', 00H, 's'
	DB	00H, 'k', 00H, 't', 00H, 'o', 00H, 'p', 00H, '\', 00H, 'F', 00H
	DB	'l', 00H, 'a', 00H, 'p', 00H, 'p', 00H, 'y', 00H, 'B', 00H, 'i'
	DB	00H, 'r', 00H, 'd', 00H, '\', 00H, 'l', 00H, 'i', 00H, 'b', 00H
	DB	'r', 00H, 'a', 00H, 'r', 00H, 'i', 00H, 'e', 00H, 's', 00H, '\'
	DB	00H, 'e', 00H, 'x', 00H, 't', 00H, 'e', 00H, 'r', 00H, 'n', 00H
	DB	'a', 00H, 'l', 00H, '\', 00H, 'g', 00H, 'l', 00H, 'm', 00H, '\'
	DB	00H, 'g', 00H, 'l', 00H, 'm', 00H, '\', 00H, 'd', 00H, 'e', 00H
	DB	't', 00H, 'a', 00H, 'i', 00H, 'l', 00H, '\', 00H, 't', 00H, 'y'
	DB	00H, 'p', 00H, 'e', 00H, '_', 00H, 'm', 00H, 'a', 00H, 't', 00H
	DB	'3', 00H, 'x', 00H, '4', 00H, '.', 00H, 'i', 00H, 'n', 00H, 'l'
	DB	00H, 00H, 00H				; `string'
CONST	ENDS
;	COMDAT ??_C@_1LK@JJJMOBEL@?$AAC?$AA?3?$AA?2?$AAU?$AAs?$AAe?$AAr?$AAs?$AA?2?$AAk?$AAs?$AAa?$AAr?$AAt?$AA?2@
CONST	SEGMENT
??_C@_1LK@JJJMOBEL@?$AAC?$AA?3?$AA?2?$AAU?$AAs?$AAe?$AAr?$AAs?$AA?2?$AAk?$AAs?$AAa?$AAr?$AAt?$AA?2@ DB 'C'
	DB	00H, ':', 00H, '\', 00H, 'U', 00H, 's', 00H, 'e', 00H, 'r', 00H
	DB	's', 00H, '\', 00H, 'k', 00H, 's', 00H, 'a', 00H, 'r', 00H, 't'
	DB	00H, '\', 00H, 'O', 00H, 'n', 00H, 'e', 00H, 'D', 00H, 'r', 00H
	DB	'i', 00H, 'v', 00H, 'e', 00H, '\', 00H, 'D', 00H, 'e', 00H, 's'
	DB	00H, 'k', 00H, 't', 00H, 'o', 00H, 'p', 00H, '\', 00H, 'F', 00H
	DB	'l', 00H, 'a', 00H, 'p', 00H, 'p', 00H, 'y', 00H, 'B', 00H, 'i'
	DB	00H, 'r', 00H, 'd', 00H, '\', 00H, 'l', 00H, 'i', 00H, 'b', 00H
	DB	'r', 00H, 'a', 00H, 'r', 00H, 'i', 00H, 'e', 00H, 's', 00H, '\'
	DB	00H, 'e', 00H, 'x', 00H, 't', 00H, 'e', 00H, 'r', 00H, 'n', 00H
	DB	'a', 00H, 'l', 00H, '\', 00H, 'g', 00H, 'l', 00H, 'm', 00H, '\'
	DB	00H, 'g', 00H, 'l', 00H, 'm', 00H, '\', 00H, 'd', 00H, 'e', 00H
	DB	't', 00H, 'a', 00H, 'i', 00H, 'l', 00H, '\', 00H, 't', 00H, 'y'
	DB	00H, 'p', 00H, 'e', 00H, '_', 00H, 'm', 00H, 'a', 00H, 't', 00H
	DB	'3', 00H, 'x', 00H, '3', 00H, '.', 00H, 'i', 00H, 'n', 00H, 'l'
	DB	00H, 00H, 00H				; `string'
CONST	ENDS
;	COMDAT ??_C@_1LK@CDJKNCE@?$AAC?$AA?3?$AA?2?$AAU?$AAs?$AAe?$AAr?$AAs?$AA?2?$AAk?$AAs?$AAa?$AAr?$AAt?$AA?2@
CONST	SEGMENT
??_C@_1LK@CDJKNCE@?$AAC?$AA?3?$AA?2?$AAU?$AAs?$AAe?$AAr?$AAs?$AA?2?$AAk?$AAs?$AAa?$AAr?$AAt?$AA?2@ DB 'C'
	DB	00H, ':', 00H, '\', 00H, 'U', 00H, 's', 00H, 'e', 00H, 'r', 00H
	DB	's', 00H, '\', 00H, 'k', 00H, 's', 00H, 'a', 00H, 'r', 00H, 't'
	DB	00H, '\', 00H, 'O', 00H, 'n', 00H, 'e', 00H, 'D', 00H, 'r', 00H
	DB	'i', 00H, 'v', 00H, 'e', 00H, '\', 00H, 'D', 00H, 'e', 00H, 's'
	DB	00H, 'k', 00H, 't', 00H, 'o', 00H, 'p', 00H, '\', 00H, 'F', 00H
	DB	'l', 00H, 'a', 00H, 'p', 00H, 'p', 00H, 'y', 00H, 'B', 00H, 'i'
	DB	00H, 'r', 00H, 'd', 00H, '\', 00H, 'l', 00H, 'i', 00H, 'b', 00H
	DB	'r', 00H, 'a', 00H, 'r', 00H, 'i', 00H, 'e', 00H, 's', 00H, '\'
	DB	00H, 'e', 00H, 'x', 00H, 't', 00H, 'e', 00H, 'r', 00H, 'n', 00H
	DB	'a', 00H, 'l', 00H, '\', 00H, 'g', 00H, 'l', 00H, 'm', 00H, '\'
	DB	00H, 'g', 00H, 'l', 00H, 'm', 00H, '\', 00H, 'd', 00H, 'e', 00H
	DB	't', 00H, 'a', 00H, 'i', 00H, 'l', 00H, '\', 00H, 't', 00H, 'y'
	DB	00H, 'p', 00H, 'e', 00H, '_', 00H, 'm', 00H, 'a', 00H, 't', 00H
	DB	'3', 00H, 'x', 00H, '2', 00H, '.', 00H, 'i', 00H, 'n', 00H, 'l'
	DB	00H, 00H, 00H				; `string'
CONST	ENDS
;	COMDAT ??_C@_1LK@EDGMJJFF@?$AAC?$AA?3?$AA?2?$AAU?$AAs?$AAe?$AAr?$AAs?$AA?2?$AAk?$AAs?$AAa?$AAr?$AAt?$AA?2@
CONST	SEGMENT
??_C@_1LK@EDGMJJFF@?$AAC?$AA?3?$AA?2?$AAU?$AAs?$AAe?$AAr?$AAs?$AA?2?$AAk?$AAs?$AAa?$AAr?$AAt?$AA?2@ DB 'C'
	DB	00H, ':', 00H, '\', 00H, 'U', 00H, 's', 00H, 'e', 00H, 'r', 00H
	DB	's', 00H, '\', 00H, 'k', 00H, 's', 00H, 'a', 00H, 'r', 00H, 't'
	DB	00H, '\', 00H, 'O', 00H, 'n', 00H, 'e', 00H, 'D', 00H, 'r', 00H
	DB	'i', 00H, 'v', 00H, 'e', 00H, '\', 00H, 'D', 00H, 'e', 00H, 's'
	DB	00H, 'k', 00H, 't', 00H, 'o', 00H, 'p', 00H, '\', 00H, 'F', 00H
	DB	'l', 00H, 'a', 00H, 'p', 00H, 'p', 00H, 'y', 00H, 'B', 00H, 'i'
	DB	00H, 'r', 00H, 'd', 00H, '\', 00H, 'l', 00H, 'i', 00H, 'b', 00H
	DB	'r', 00H, 'a', 00H, 'r', 00H, 'i', 00H, 'e', 00H, 's', 00H, '\'
	DB	00H, 'e', 00H, 'x', 00H, 't', 00H, 'e', 00H, 'r', 00H, 'n', 00H
	DB	'a', 00H, 'l', 00H, '\', 00H, 'g', 00H, 'l', 00H, 'm', 00H, '\'
	DB	00H, 'g', 00H, 'l', 00H, 'm', 00H, '\', 00H, 'd', 00H, 'e', 00H
	DB	't', 00H, 'a', 00H, 'i', 00H, 'l', 00H, '\', 00H, 't', 00H, 'y'
	DB	00H, 'p', 00H, 'e', 00H, '_', 00H, 'm', 00H, 'a', 00H, 't', 00H
	DB	'2', 00H, 'x', 00H, '4', 00H, '.', 00H, 'i', 00H, 'n', 00H, 'l'
	DB	00H, 00H, 00H				; `string'
CONST	ENDS
;	COMDAT ??_C@_1LK@DHPEHANK@?$AAC?$AA?3?$AA?2?$AAU?$AAs?$AAe?$AAr?$AAs?$AA?2?$AAk?$AAs?$AAa?$AAr?$AAt?$AA?2@
CONST	SEGMENT
??_C@_1LK@DHPEHANK@?$AAC?$AA?3?$AA?2?$AAU?$AAs?$AAe?$AAr?$AAs?$AA?2?$AAk?$AAs?$AAa?$AAr?$AAt?$AA?2@ DB 'C'
	DB	00H, ':', 00H, '\', 00H, 'U', 00H, 's', 00H, 'e', 00H, 'r', 00H
	DB	's', 00H, '\', 00H, 'k', 00H, 's', 00H, 'a', 00H, 'r', 00H, 't'
	DB	00H, '\', 00H, 'O', 00H, 'n', 00H, 'e', 00H, 'D', 00H, 'r', 00H
	DB	'i', 00H, 'v', 00H, 'e', 00H, '\', 00H, 'D', 00H, 'e', 00H, 's'
	DB	00H, 'k', 00H, 't', 00H, 'o', 00H, 'p', 00H, '\', 00H, 'F', 00H
	DB	'l', 00H, 'a', 00H, 'p', 00H, 'p', 00H, 'y', 00H, 'B', 00H, 'i'
	DB	00H, 'r', 00H, 'd', 00H, '\', 00H, 'l', 00H, 'i', 00H, 'b', 00H
	DB	'r', 00H, 'a', 00H, 'r', 00H, 'i', 00H, 'e', 00H, 's', 00H, '\'
	DB	00H, 'e', 00H, 'x', 00H, 't', 00H, 'e', 00H, 'r', 00H, 'n', 00H
	DB	'a', 00H, 'l', 00H, '\', 00H, 'g', 00H, 'l', 00H, 'm', 00H, '\'
	DB	00H, 'g', 00H, 'l', 00H, 'm', 00H, '\', 00H, 'd', 00H, 'e', 00H
	DB	't', 00H, 'a', 00H, 'i', 00H, 'l', 00H, '\', 00H, 't', 00H, 'y'
	DB	00H, 'p', 00H, 'e', 00H, '_', 00H, 'm', 00H, 'a', 00H, 't', 00H
	DB	'2', 00H, 'x', 00H, '3', 00H, '.', 00H, 'i', 00H, 'n', 00H, 'l'
	DB	00H, 00H, 00H				; `string'
CONST	ENDS
;	COMDAT ??_C@_1LK@KMFBDMLF@?$AAC?$AA?3?$AA?2?$AAU?$AAs?$AAe?$AAr?$AAs?$AA?2?$AAk?$AAs?$AAa?$AAr?$AAt?$AA?2@
CONST	SEGMENT
??_C@_1LK@KMFBDMLF@?$AAC?$AA?3?$AA?2?$AAU?$AAs?$AAe?$AAr?$AAs?$AA?2?$AAk?$AAs?$AAa?$AAr?$AAt?$AA?2@ DB 'C'
	DB	00H, ':', 00H, '\', 00H, 'U', 00H, 's', 00H, 'e', 00H, 'r', 00H
	DB	's', 00H, '\', 00H, 'k', 00H, 's', 00H, 'a', 00H, 'r', 00H, 't'
	DB	00H, '\', 00H, 'O', 00H, 'n', 00H, 'e', 00H, 'D', 00H, 'r', 00H
	DB	'i', 00H, 'v', 00H, 'e', 00H, '\', 00H, 'D', 00H, 'e', 00H, 's'
	DB	00H, 'k', 00H, 't', 00H, 'o', 00H, 'p', 00H, '\', 00H, 'F', 00H
	DB	'l', 00H, 'a', 00H, 'p', 00H, 'p', 00H, 'y', 00H, 'B', 00H, 'i'
	DB	00H, 'r', 00H, 'd', 00H, '\', 00H, 'l', 00H, 'i', 00H, 'b', 00H
	DB	'r', 00H, 'a', 00H, 'r', 00H, 'i', 00H, 'e', 00H, 's', 00H, '\'
	DB	00H, 'e', 00H, 'x', 00H, 't', 00H, 'e', 00H, 'r', 00H, 'n', 00H
	DB	'a', 00H, 'l', 00H, '\', 00H, 'g', 00H, 'l', 00H, 'm', 00H, '\'
	DB	00H, 'g', 00H, 'l', 00H, 'm', 00H, '\', 00H, 'd', 00H, 'e', 00H
	DB	't', 00H, 'a', 00H, 'i', 00H, 'l', 00H, '\', 00H, 't', 00H, 'y'
	DB	00H, 'p', 00H, 'e', 00H, '_', 00H, 'm', 00H, 'a', 00H, 't', 00H
	DB	'2', 00H, 'x', 00H, '2', 00H, '.', 00H, 'i', 00H, 'n', 00H, 'l'
	DB	00H, 00H, 00H				; `string'
CONST	ENDS
;	COMDAT ??_C@_1CG@KOFHLCJL@?$AAi?$AA?5?$AA?$DM?$AA?5?$AAt?$AAh?$AAi?$AAs?$AA?9?$AA?$DO?$AAl?$AAe?$AAn?$AAg?$AAt@
CONST	SEGMENT
??_C@_1CG@KOFHLCJL@?$AAi?$AA?5?$AA?$DM?$AA?5?$AAt?$AAh?$AAi?$AAs?$AA?9?$AA?$DO?$AAl?$AAe?$AAn?$AAg?$AAt@ DB 'i'
	DB	00H, ' ', 00H, '<', 00H, ' ', 00H, 't', 00H, 'h', 00H, 'i', 00H
	DB	's', 00H, '-', 00H, '>', 00H, 'l', 00H, 'e', 00H, 'n', 00H, 'g'
	DB	00H, 't', 00H, 'h', 00H, '(', 00H, ')', 00H, 00H, 00H ; `string'
CONST	ENDS
;	COMDAT ??_C@_1LK@BAPNPALB@?$AAC?$AA?3?$AA?2?$AAU?$AAs?$AAe?$AAr?$AAs?$AA?2?$AAk?$AAs?$AAa?$AAr?$AAt?$AA?2@
CONST	SEGMENT
??_C@_1LK@BAPNPALB@?$AAC?$AA?3?$AA?2?$AAU?$AAs?$AAe?$AAr?$AAs?$AA?2?$AAk?$AAs?$AAa?$AAr?$AAt?$AA?2@ DB 'C'
	DB	00H, ':', 00H, '\', 00H, 'U', 00H, 's', 00H, 'e', 00H, 'r', 00H
	DB	's', 00H, '\', 00H, 'k', 00H, 's', 00H, 'a', 00H, 'r', 00H, 't'
	DB	00H, '\', 00H, 'O', 00H, 'n', 00H, 'e', 00H, 'D', 00H, 'r', 00H
	DB	'i', 00H, 'v', 00H, 'e', 00H, '\', 00H, 'D', 00H, 'e', 00H, 's'
	DB	00H, 'k', 00H, 't', 00H, 'o', 00H, 'p', 00H, '\', 00H, 'F', 00H
	DB	'l', 00H, 'a', 00H, 'p', 00H, 'p', 00H, 'y', 00H, 'B', 00H, 'i'
	DB	00H, 'r', 00H, 'd', 00H, '\', 00H, 'l', 00H, 'i', 00H, 'b', 00H
	DB	'r', 00H, 'a', 00H, 'r', 00H, 'i', 00H, 'e', 00H, 's', 00H, '\'
	DB	00H, 'e', 00H, 'x', 00H, 't', 00H, 'e', 00H, 'r', 00H, 'n', 00H
	DB	'a', 00H, 'l', 00H, '\', 00H, 'g', 00H, 'l', 00H, 'm', 00H, '\'
	DB	00H, 'g', 00H, 'l', 00H, 'm', 00H, '\', 00H, 'd', 00H, 'e', 00H
	DB	't', 00H, 'a', 00H, 'i', 00H, 'l', 00H, '\', 00H, 't', 00H, 'y'
	DB	00H, 'p', 00H, 'e', 00H, '_', 00H, 'm', 00H, 'a', 00H, 't', 00H
	DB	'4', 00H, 'x', 00H, '4', 00H, '.', 00H, 'i', 00H, 'n', 00H, 'l'
	DB	00H, 00H, 00H				; `string'
CONST	ENDS
;	COMDAT xdata
xdata	SEGMENT
$unwind$?call@?$compute_vec4_sub@M$0A@$0A@@detail@glm@@SA?AU?$tvec4@M$0A@@3@AEBU43@0@Z DD 021401H
	DD	070107214H
xdata	ENDS
;	COMDAT xdata
xdata	SEGMENT
$unwind$?call@?$compute_vec4_add@M$0A@$0A@@detail@glm@@SA?AU?$tvec4@M$0A@@3@AEBU43@0@Z DD 021401H
	DD	070107214H
xdata	ENDS
;	COMDAT xdata
xdata	SEGMENT
$unwind$?call@?$compute_vec4_mul@M$0A@$0A@@detail@glm@@SA?AU?$tvec4@M$0A@@3@AEBU43@0@Z DD 021401H
	DD	070107214H
xdata	ENDS
;	COMDAT xdata
xdata	SEGMENT
$unwind$?call@?$functor1@MM$0A@Utvec4@glm@@@detail@glm@@SA?AU?$tvec4@M$0A@@3@P6AMM@ZAEBU43@@Z DD 021401H
	DD	070107214H
xdata	ENDS
;	COMDAT xdata
xdata	SEGMENT
$unwind$??$?XM@?$tvec4@M$0A@@glm@@QEAAAEAU01@AEBU01@@Z DD 031001H
	DD	0700c8210H
	DD	0600bH
xdata	ENDS
;	COMDAT xdata
xdata	SEGMENT
$unwind$?call@?$compute_abs_vector@M$0A@Utvec4@glm@@$0A@@detail@glm@@SA?AU?$tvec4@M$0A@@3@AEBU43@@Z DD 020f01H
	DD	0700b320fH
xdata	ENDS
;	COMDAT xdata
xdata	SEGMENT
$unwind$??$?ZM@?$tvec4@M$0A@@glm@@QEAAAEAU01@AEBU01@@Z DD 031001H
	DD	0700c8210H
	DD	0600bH
xdata	ENDS
;	COMDAT xdata
xdata	SEGMENT
$unwind$??$?YM@?$tvec4@M$0A@@glm@@QEAAAEAU01@AEBU01@@Z DD 031001H
	DD	0700c8210H
	DD	0600bH
xdata	ENDS
;	COMDAT xdata
xdata	SEGMENT
$unwind$??$?XM@?$tvec4@M$0A@@glm@@QEAAAEAU01@M@Z DD 031101H
	DD	0700d8211H
	DD	0600cH
xdata	ENDS
;	COMDAT xdata
xdata	SEGMENT
$unwind$?call@?$compute_vec4_equal@M$0A@$0A@$0CA@$0A@@detail@glm@@SA_NAEBU?$tvec4@M$0A@@3@0@Z DD 020f01H
	DD	0700b120fH
xdata	ENDS
;	COMDAT xdata
xdata	SEGMENT
$unwind$??$?DM$0A@@glm@@YA?AU?$tvec2@M$0A@@0@AEBU10@0@Z DD 021401H
	DD	070103214H
xdata	ENDS
;	COMDAT xdata
xdata	SEGMENT
$unwind$??$?DM$0A@@glm@@YA?AU?$tvec3@M$0A@@0@AEBU10@0@Z DD 021401H
	DD	070105214H
xdata	ENDS
;	COMDAT xdata
xdata	SEGMENT
$unwind$??$?DM$0A@@glm@@YA?AU?$tmat4x4@M$0A@@0@AEBU10@AEBM@Z DD 031701H
	DD	0120117H
	DD	07010H
xdata	ENDS
;	COMDAT xdata
xdata	SEGMENT
$unwind$??$?DM$0A@@glm@@YA?AU?$tvec4@M$0A@@0@AEBU10@0@Z DD 031501H
	DD	070116215H
	DD	06010H
xdata	ENDS
;	COMDAT xdata
xdata	SEGMENT
$unwind$??$lessThan@M$0A@Utvec4@glm@@@glm@@YA?AU?$tvec4@_N$0A@@0@AEBU?$tvec4@M$0A@@0@0@Z DD 022a01H
	DD	070109214H
xdata	ENDS
;	COMDAT CONST
CONST	SEGMENT
??$lessThan@M$0A@Utvec4@glm@@@glm@@YA?AU?$tvec4@_N$0A@@0@AEBU?$tvec4@M$0A@@0@0@Z$rtcName$0 DB 052H ; glm::lessThan<float,0,glm::tvec4>
	DB	065H
	DB	073H
	DB	075H
	DB	06cH
	DB	074H
	DB	00H
	ORG $+9
??$lessThan@M$0A@Utvec4@glm@@@glm@@YA?AU?$tvec4@_N$0A@@0@AEBU?$tvec4@M$0A@@0@0@Z$rtcVarDesc DD 024H ; glm::lessThan<float,0,glm::tvec4>
	DD	04H
	DQ	FLAT:??$lessThan@M$0A@Utvec4@glm@@@glm@@YA?AU?$tvec4@_N$0A@@0@AEBU?$tvec4@M$0A@@0@0@Z$rtcName$0
	ORG $+48
??$lessThan@M$0A@Utvec4@glm@@@glm@@YA?AU?$tvec4@_N$0A@@0@AEBU?$tvec4@M$0A@@0@0@Z$rtcFrameData DD 01H ; glm::lessThan<float,0,glm::tvec4>
	DD	00H
	DQ	FLAT:??$lessThan@M$0A@Utvec4@glm@@@glm@@YA?AU?$tvec4@_N$0A@@0@AEBU?$tvec4@M$0A@@0@0@Z$rtcVarDesc
CONST	ENDS
;	COMDAT xdata
xdata	SEGMENT
$unwind$??$abs@M$0A@Utvec4@glm@@@glm@@YA?AU?$tvec4@M$0A@@0@AEBU10@@Z DD 020f01H
	DD	0700b320fH
xdata	ENDS
;	COMDAT xdata
xdata	SEGMENT
$unwind$??$?GM$0A@@glm@@YA?AU?$tvec4@M$0A@@0@AEBU10@0@Z DD 031501H
	DD	070116215H
	DD	06010H
xdata	ENDS
;	COMDAT voltbl
voltbl	SEGMENT
_volmd	DW	036H
	DW	0221H
voltbl	ENDS
;	COMDAT xdata
xdata	SEGMENT
$unwind$?call@?$compute_inverse@Utmat2x2@glm@@M$0A@$0A@@detail@glm@@SA?AU?$tmat2x2@M$0A@@3@AEBU43@@Z DD 043e19H
	DD	0150113H
	DD	0600b700cH
	DD	imagerel __GSHandlerCheck
	DD	098H
xdata	ENDS
;	COMDAT CONST
CONST	SEGMENT
?call@?$compute_inverse@Utmat2x2@glm@@M$0A@$0A@@detail@glm@@SA?AU?$tmat2x2@M$0A@@3@AEBU43@@Z$rtcName$0 DB 049H ; glm::detail::compute_inverse<glm::tmat2x2,float,0,0>::call
	DB	06eH
	DB	076H
	DB	065H
	DB	072H
	DB	073H
	DB	065H
	DB	00H
	ORG $+8
?call@?$compute_inverse@Utmat2x2@glm@@M$0A@$0A@@detail@glm@@SA?AU?$tmat2x2@M$0A@@3@AEBU43@@Z$rtcVarDesc DD 048H ; glm::detail::compute_inverse<glm::tmat2x2,float,0,0>::call
	DD	010H
	DQ	FLAT:?call@?$compute_inverse@Utmat2x2@glm@@M$0A@$0A@@detail@glm@@SA?AU?$tmat2x2@M$0A@@3@AEBU43@@Z$rtcName$0
	ORG $+48
?call@?$compute_inverse@Utmat2x2@glm@@M$0A@$0A@@detail@glm@@SA?AU?$tmat2x2@M$0A@@3@AEBU43@@Z$rtcFrameData DD 01H ; glm::detail::compute_inverse<glm::tmat2x2,float,0,0>::call
	DD	00H
	DQ	FLAT:?call@?$compute_inverse@Utmat2x2@glm@@M$0A@$0A@@detail@glm@@SA?AU?$tmat2x2@M$0A@@3@AEBU43@@Z$rtcVarDesc
CONST	ENDS
;	COMDAT voltbl
voltbl	SEGMENT
_volmd	DW	036H
	DW	0c45H
voltbl	ENDS
;	COMDAT xdata
xdata	SEGMENT
$unwind$?call@?$compute_inverse@Utmat3x3@glm@@M$0A@$0A@@detail@glm@@SA?AU?$tmat3x3@M$0A@@3@AEBU43@@Z DD 043e19H
	DD	0430113H
	DD	0600b700cH
	DD	imagerel __GSHandlerCheck
	DD	0200H
xdata	ENDS
;	COMDAT CONST
CONST	SEGMENT
?call@?$compute_inverse@Utmat3x3@glm@@M$0A@$0A@@detail@glm@@SA?AU?$tmat3x3@M$0A@@3@AEBU43@@Z$rtcName$0 DB 049H ; glm::detail::compute_inverse<glm::tmat3x3,float,0,0>::call
	DB	06eH
	DB	076H
	DB	065H
	DB	072H
	DB	073H
	DB	065H
	DB	00H
	ORG $+8
?call@?$compute_inverse@Utmat3x3@glm@@M$0A@$0A@@detail@glm@@SA?AU?$tmat3x3@M$0A@@3@AEBU43@@Z$rtcVarDesc DD 038H ; glm::detail::compute_inverse<glm::tmat3x3,float,0,0>::call
	DD	024H
	DQ	FLAT:?call@?$compute_inverse@Utmat3x3@glm@@M$0A@$0A@@detail@glm@@SA?AU?$tmat3x3@M$0A@@3@AEBU43@@Z$rtcName$0
	ORG $+48
?call@?$compute_inverse@Utmat3x3@glm@@M$0A@$0A@@detail@glm@@SA?AU?$tmat3x3@M$0A@@3@AEBU43@@Z$rtcFrameData DD 01H ; glm::detail::compute_inverse<glm::tmat3x3,float,0,0>::call
	DD	00H
	DQ	FLAT:?call@?$compute_inverse@Utmat3x3@glm@@M$0A@$0A@@detail@glm@@SA?AU?$tmat3x3@M$0A@@3@AEBU43@@Z$rtcVarDesc
CONST	ENDS
;	COMDAT xdata
xdata	SEGMENT
$unwind$??$?HM$0A@@glm@@YA?AU?$tvec4@M$0A@@0@AEBU10@0@Z DD 031501H
	DD	070116215H
	DD	06010H
xdata	ENDS
;	COMDAT voltbl
voltbl	SEGMENT
_volmd	DW	035H
	DW	01746H
voltbl	ENDS
;	COMDAT xdata
xdata	SEGMENT
$unwind$?call@?$compute_inverse@Utmat4x4@glm@@M$0A@$0A@@detail@glm@@SA?AU?$tmat4x4@M$0A@@3@AEBU43@@Z DD 033d19H
	DD	01060112H
	DD	0700bH
	DD	imagerel __GSHandlerCheck
	DD	0820H
xdata	ENDS
;	COMDAT CONST
CONST	SEGMENT
?call@?$compute_inverse@Utmat4x4@glm@@M$0A@$0A@@detail@glm@@SA?AU?$tmat4x4@M$0A@@3@AEBU43@@Z$rtcName$0 DB 046H ; glm::detail::compute_inverse<glm::tmat4x4,float,0,0>::call
	DB	061H
	DB	063H
	DB	030H
	DB	00H
	ORG $+3
?call@?$compute_inverse@Utmat4x4@glm@@M$0A@$0A@@detail@glm@@SA?AU?$tmat4x4@M$0A@@3@AEBU43@@Z$rtcName$1 DB 046H ; glm::detail::compute_inverse<glm::tmat4x4,float,0,0>::call
	DB	061H
	DB	063H
	DB	031H
	DB	00H
	ORG $+3
?call@?$compute_inverse@Utmat4x4@glm@@M$0A@$0A@@detail@glm@@SA?AU?$tmat4x4@M$0A@@3@AEBU43@@Z$rtcName$2 DB 046H ; glm::detail::compute_inverse<glm::tmat4x4,float,0,0>::call
	DB	061H
	DB	063H
	DB	032H
	DB	00H
	ORG $+3
?call@?$compute_inverse@Utmat4x4@glm@@M$0A@$0A@@detail@glm@@SA?AU?$tmat4x4@M$0A@@3@AEBU43@@Z$rtcName$3 DB 046H ; glm::detail::compute_inverse<glm::tmat4x4,float,0,0>::call
	DB	061H
	DB	063H
	DB	033H
	DB	00H
	ORG $+3
?call@?$compute_inverse@Utmat4x4@glm@@M$0A@$0A@@detail@glm@@SA?AU?$tmat4x4@M$0A@@3@AEBU43@@Z$rtcName$4 DB 046H ; glm::detail::compute_inverse<glm::tmat4x4,float,0,0>::call
	DB	061H
	DB	063H
	DB	034H
	DB	00H
	ORG $+3
?call@?$compute_inverse@Utmat4x4@glm@@M$0A@$0A@@detail@glm@@SA?AU?$tmat4x4@M$0A@@3@AEBU43@@Z$rtcName$5 DB 046H ; glm::detail::compute_inverse<glm::tmat4x4,float,0,0>::call
	DB	061H
	DB	063H
	DB	035H
	DB	00H
	ORG $+3
?call@?$compute_inverse@Utmat4x4@glm@@M$0A@$0A@@detail@glm@@SA?AU?$tmat4x4@M$0A@@3@AEBU43@@Z$rtcName$6 DB 056H ; glm::detail::compute_inverse<glm::tmat4x4,float,0,0>::call
	DB	065H
	DB	063H
	DB	030H
	DB	00H
	ORG $+3
?call@?$compute_inverse@Utmat4x4@glm@@M$0A@$0A@@detail@glm@@SA?AU?$tmat4x4@M$0A@@3@AEBU43@@Z$rtcName$7 DB 056H ; glm::detail::compute_inverse<glm::tmat4x4,float,0,0>::call
	DB	065H
	DB	063H
	DB	031H
	DB	00H
	ORG $+3
?call@?$compute_inverse@Utmat4x4@glm@@M$0A@$0A@@detail@glm@@SA?AU?$tmat4x4@M$0A@@3@AEBU43@@Z$rtcName$8 DB 056H ; glm::detail::compute_inverse<glm::tmat4x4,float,0,0>::call
	DB	065H
	DB	063H
	DB	032H
	DB	00H
	ORG $+3
?call@?$compute_inverse@Utmat4x4@glm@@M$0A@$0A@@detail@glm@@SA?AU?$tmat4x4@M$0A@@3@AEBU43@@Z$rtcName$9 DB 056H ; glm::detail::compute_inverse<glm::tmat4x4,float,0,0>::call
	DB	065H
	DB	063H
	DB	033H
	DB	00H
	ORG $+3
?call@?$compute_inverse@Utmat4x4@glm@@M$0A@$0A@@detail@glm@@SA?AU?$tmat4x4@M$0A@@3@AEBU43@@Z$rtcName$10 DB 049H ; glm::detail::compute_inverse<glm::tmat4x4,float,0,0>::call
	DB	06eH
	DB	076H
	DB	030H
	DB	00H
	ORG $+3
?call@?$compute_inverse@Utmat4x4@glm@@M$0A@$0A@@detail@glm@@SA?AU?$tmat4x4@M$0A@@3@AEBU43@@Z$rtcName$11 DB 049H ; glm::detail::compute_inverse<glm::tmat4x4,float,0,0>::call
	DB	06eH
	DB	076H
	DB	031H
	DB	00H
	ORG $+3
?call@?$compute_inverse@Utmat4x4@glm@@M$0A@$0A@@detail@glm@@SA?AU?$tmat4x4@M$0A@@3@AEBU43@@Z$rtcName$12 DB 049H ; glm::detail::compute_inverse<glm::tmat4x4,float,0,0>::call
	DB	06eH
	DB	076H
	DB	032H
	DB	00H
	ORG $+3
?call@?$compute_inverse@Utmat4x4@glm@@M$0A@$0A@@detail@glm@@SA?AU?$tmat4x4@M$0A@@3@AEBU43@@Z$rtcName$13 DB 049H ; glm::detail::compute_inverse<glm::tmat4x4,float,0,0>::call
	DB	06eH
	DB	076H
	DB	033H
	DB	00H
	ORG $+3
?call@?$compute_inverse@Utmat4x4@glm@@M$0A@$0A@@detail@glm@@SA?AU?$tmat4x4@M$0A@@3@AEBU43@@Z$rtcName$14 DB 053H ; glm::detail::compute_inverse<glm::tmat4x4,float,0,0>::call
	DB	069H
	DB	067H
	DB	06eH
	DB	041H
	DB	00H
	ORG $+2
?call@?$compute_inverse@Utmat4x4@glm@@M$0A@$0A@@detail@glm@@SA?AU?$tmat4x4@M$0A@@3@AEBU43@@Z$rtcName$15 DB 053H ; glm::detail::compute_inverse<glm::tmat4x4,float,0,0>::call
	DB	069H
	DB	067H
	DB	06eH
	DB	042H
	DB	00H
	ORG $+2
?call@?$compute_inverse@Utmat4x4@glm@@M$0A@$0A@@detail@glm@@SA?AU?$tmat4x4@M$0A@@3@AEBU43@@Z$rtcName$16 DB 049H ; glm::detail::compute_inverse<glm::tmat4x4,float,0,0>::call
	DB	06eH
	DB	076H
	DB	065H
	DB	072H
	DB	073H
	DB	065H
	DB	00H
?call@?$compute_inverse@Utmat4x4@glm@@M$0A@$0A@@detail@glm@@SA?AU?$tmat4x4@M$0A@@3@AEBU43@@Z$rtcName$17 DB 052H ; glm::detail::compute_inverse<glm::tmat4x4,float,0,0>::call
	DB	06fH
	DB	077H
	DB	030H
	DB	00H
	ORG $+3
?call@?$compute_inverse@Utmat4x4@glm@@M$0A@$0A@@detail@glm@@SA?AU?$tmat4x4@M$0A@@3@AEBU43@@Z$rtcName$18 DB 044H ; glm::detail::compute_inverse<glm::tmat4x4,float,0,0>::call
	DB	06fH
	DB	074H
	DB	030H
	DB	00H
	ORG $+3
?call@?$compute_inverse@Utmat4x4@glm@@M$0A@$0A@@detail@glm@@SA?AU?$tmat4x4@M$0A@@3@AEBU43@@Z$rtcName$19 DB 04fH ; glm::detail::compute_inverse<glm::tmat4x4,float,0,0>::call
	DB	06eH
	DB	065H
	DB	04fH
	DB	076H
	DB	065H
	DB	072H
	DB	044H
	DB	065H
	DB	074H
	DB	065H
	DB	072H
	DB	06dH
	DB	069H
	DB	06eH
	DB	061H
	DB	06eH
	DB	074H
	DB	00H
	ORG $+5
?call@?$compute_inverse@Utmat4x4@glm@@M$0A@$0A@@detail@glm@@SA?AU?$tmat4x4@M$0A@@3@AEBU43@@Z$rtcVarDesc DD 0444H ; glm::detail::compute_inverse<glm::tmat4x4,float,0,0>::call
	DD	04H
	DQ	FLAT:?call@?$compute_inverse@Utmat4x4@glm@@M$0A@$0A@@detail@glm@@SA?AU?$tmat4x4@M$0A@@3@AEBU43@@Z$rtcName$19
	DD	0418H
	DD	010H
	DQ	FLAT:?call@?$compute_inverse@Utmat4x4@glm@@M$0A@$0A@@detail@glm@@SA?AU?$tmat4x4@M$0A@@3@AEBU43@@Z$rtcName$18
	DD	03e8H
	DD	010H
	DQ	FLAT:?call@?$compute_inverse@Utmat4x4@glm@@M$0A@$0A@@detail@glm@@SA?AU?$tmat4x4@M$0A@@3@AEBU43@@Z$rtcName$17
	DD	0390H
	DD	040H
	DQ	FLAT:?call@?$compute_inverse@Utmat4x4@glm@@M$0A@$0A@@detail@glm@@SA?AU?$tmat4x4@M$0A@@3@AEBU43@@Z$rtcName$16
	DD	0358H
	DD	010H
	DQ	FLAT:?call@?$compute_inverse@Utmat4x4@glm@@M$0A@$0A@@detail@glm@@SA?AU?$tmat4x4@M$0A@@3@AEBU43@@Z$rtcName$15
	DD	0328H
	DD	010H
	DQ	FLAT:?call@?$compute_inverse@Utmat4x4@glm@@M$0A@$0A@@detail@glm@@SA?AU?$tmat4x4@M$0A@@3@AEBU43@@Z$rtcName$14
	DD	02f8H
	DD	010H
	DQ	FLAT:?call@?$compute_inverse@Utmat4x4@glm@@M$0A@$0A@@detail@glm@@SA?AU?$tmat4x4@M$0A@@3@AEBU43@@Z$rtcName$13
	DD	02c8H
	DD	010H
	DQ	FLAT:?call@?$compute_inverse@Utmat4x4@glm@@M$0A@$0A@@detail@glm@@SA?AU?$tmat4x4@M$0A@@3@AEBU43@@Z$rtcName$12
	DD	0298H
	DD	010H
	DQ	FLAT:?call@?$compute_inverse@Utmat4x4@glm@@M$0A@$0A@@detail@glm@@SA?AU?$tmat4x4@M$0A@@3@AEBU43@@Z$rtcName$11
	DD	0268H
	DD	010H
	DQ	FLAT:?call@?$compute_inverse@Utmat4x4@glm@@M$0A@$0A@@detail@glm@@SA?AU?$tmat4x4@M$0A@@3@AEBU43@@Z$rtcName$10
	DD	0238H
	DD	010H
	DQ	FLAT:?call@?$compute_inverse@Utmat4x4@glm@@M$0A@$0A@@detail@glm@@SA?AU?$tmat4x4@M$0A@@3@AEBU43@@Z$rtcName$9
	DD	0208H
	DD	010H
	DQ	FLAT:?call@?$compute_inverse@Utmat4x4@glm@@M$0A@$0A@@detail@glm@@SA?AU?$tmat4x4@M$0A@@3@AEBU43@@Z$rtcName$8
	DD	01d8H
	DD	010H
	DQ	FLAT:?call@?$compute_inverse@Utmat4x4@glm@@M$0A@$0A@@detail@glm@@SA?AU?$tmat4x4@M$0A@@3@AEBU43@@Z$rtcName$7
	DD	01a8H
	DD	010H
	DQ	FLAT:?call@?$compute_inverse@Utmat4x4@glm@@M$0A@$0A@@detail@glm@@SA?AU?$tmat4x4@M$0A@@3@AEBU43@@Z$rtcName$6
	DD	0178H
	DD	010H
	DQ	FLAT:?call@?$compute_inverse@Utmat4x4@glm@@M$0A@$0A@@detail@glm@@SA?AU?$tmat4x4@M$0A@@3@AEBU43@@Z$rtcName$5
	DD	0148H
	DD	010H
	DQ	FLAT:?call@?$compute_inverse@Utmat4x4@glm@@M$0A@$0A@@detail@glm@@SA?AU?$tmat4x4@M$0A@@3@AEBU43@@Z$rtcName$4
	DD	0118H
	DD	010H
	DQ	FLAT:?call@?$compute_inverse@Utmat4x4@glm@@M$0A@$0A@@detail@glm@@SA?AU?$tmat4x4@M$0A@@3@AEBU43@@Z$rtcName$3
	DD	0e8H
	DD	010H
	DQ	FLAT:?call@?$compute_inverse@Utmat4x4@glm@@M$0A@$0A@@detail@glm@@SA?AU?$tmat4x4@M$0A@@3@AEBU43@@Z$rtcName$2
	DD	0b8H
	DD	010H
	DQ	FLAT:?call@?$compute_inverse@Utmat4x4@glm@@M$0A@$0A@@detail@glm@@SA?AU?$tmat4x4@M$0A@@3@AEBU43@@Z$rtcName$1
	DD	088H
	DD	010H
	DQ	FLAT:?call@?$compute_inverse@Utmat4x4@glm@@M$0A@$0A@@detail@glm@@SA?AU?$tmat4x4@M$0A@@3@AEBU43@@Z$rtcName$0
	ORG $+960
?call@?$compute_inverse@Utmat4x4@glm@@M$0A@$0A@@detail@glm@@SA?AU?$tmat4x4@M$0A@@3@AEBU43@@Z$rtcFrameData DD 014H ; glm::detail::compute_inverse<glm::tmat4x4,float,0,0>::call
	DD	00H
	DQ	FLAT:?call@?$compute_inverse@Utmat4x4@glm@@M$0A@$0A@@detail@glm@@SA?AU?$tmat4x4@M$0A@@3@AEBU43@@Z$rtcVarDesc
CONST	ENDS
;	COMDAT voltbl
voltbl	SEGMENT
_volmd	DW	036H
	DW	042cH
voltbl	ENDS
;	COMDAT xdata
xdata	SEGMENT
$unwind$?call@?$compute_transpose@Utmat4x3@glm@@M$0A@$0A@@detail@glm@@SA?AU?$tmat3x4@M$0A@@3@AEBU?$tmat4x3@M$0A@@3@@Z DD 043e19H
	DD	01d0113H
	DD	0600b700cH
	DD	imagerel __GSHandlerCheck
	DD	0d0H
xdata	ENDS
;	COMDAT CONST
CONST	SEGMENT
?call@?$compute_transpose@Utmat4x3@glm@@M$0A@$0A@@detail@glm@@SA?AU?$tmat3x4@M$0A@@3@AEBU?$tmat4x3@M$0A@@3@@Z$rtcName$0 DB 072H ; glm::detail::compute_transpose<glm::tmat4x3,float,0,0>::call
	DB	065H
	DB	073H
	DB	075H
	DB	06cH
	DB	074H
	DB	00H
	ORG $+9
?call@?$compute_transpose@Utmat4x3@glm@@M$0A@$0A@@detail@glm@@SA?AU?$tmat3x4@M$0A@@3@AEBU?$tmat4x3@M$0A@@3@@Z$rtcVarDesc DD 028H ; glm::detail::compute_transpose<glm::tmat4x3,float,0,0>::call
	DD	030H
	DQ	FLAT:?call@?$compute_transpose@Utmat4x3@glm@@M$0A@$0A@@detail@glm@@SA?AU?$tmat3x4@M$0A@@3@AEBU?$tmat4x3@M$0A@@3@@Z$rtcName$0
	ORG $+48
?call@?$compute_transpose@Utmat4x3@glm@@M$0A@$0A@@detail@glm@@SA?AU?$tmat3x4@M$0A@@3@AEBU?$tmat4x3@M$0A@@3@@Z$rtcFrameData DD 01H ; glm::detail::compute_transpose<glm::tmat4x3,float,0,0>::call
	DD	00H
	DQ	FLAT:?call@?$compute_transpose@Utmat4x3@glm@@M$0A@$0A@@detail@glm@@SA?AU?$tmat3x4@M$0A@@3@AEBU?$tmat4x3@M$0A@@3@@Z$rtcVarDesc
CONST	ENDS
;	COMDAT voltbl
voltbl	SEGMENT
_volmd	DW	036H
	DW	02daH
voltbl	ENDS
;	COMDAT xdata
xdata	SEGMENT
$unwind$?call@?$compute_transpose@Utmat4x2@glm@@M$0A@$0A@@detail@glm@@SA?AU?$tmat2x4@M$0A@@3@AEBU?$tmat4x2@M$0A@@3@@Z DD 043e19H
	DD	0170113H
	DD	0600b700cH
	DD	imagerel __GSHandlerCheck
	DD	0a0H
xdata	ENDS
;	COMDAT CONST
CONST	SEGMENT
?call@?$compute_transpose@Utmat4x2@glm@@M$0A@$0A@@detail@glm@@SA?AU?$tmat2x4@M$0A@@3@AEBU?$tmat4x2@M$0A@@3@@Z$rtcName$0 DB 072H ; glm::detail::compute_transpose<glm::tmat4x2,float,0,0>::call
	DB	065H
	DB	073H
	DB	075H
	DB	06cH
	DB	074H
	DB	00H
	ORG $+9
?call@?$compute_transpose@Utmat4x2@glm@@M$0A@$0A@@detail@glm@@SA?AU?$tmat2x4@M$0A@@3@AEBU?$tmat4x2@M$0A@@3@@Z$rtcVarDesc DD 028H ; glm::detail::compute_transpose<glm::tmat4x2,float,0,0>::call
	DD	020H
	DQ	FLAT:?call@?$compute_transpose@Utmat4x2@glm@@M$0A@$0A@@detail@glm@@SA?AU?$tmat2x4@M$0A@@3@AEBU?$tmat4x2@M$0A@@3@@Z$rtcName$0
	ORG $+48
?call@?$compute_transpose@Utmat4x2@glm@@M$0A@$0A@@detail@glm@@SA?AU?$tmat2x4@M$0A@@3@AEBU?$tmat4x2@M$0A@@3@@Z$rtcFrameData DD 01H ; glm::detail::compute_transpose<glm::tmat4x2,float,0,0>::call
	DD	00H
	DQ	FLAT:?call@?$compute_transpose@Utmat4x2@glm@@M$0A@$0A@@detail@glm@@SA?AU?$tmat2x4@M$0A@@3@AEBU?$tmat4x2@M$0A@@3@@Z$rtcVarDesc
CONST	ENDS
;	COMDAT voltbl
voltbl	SEGMENT
_volmd	DW	036H
	DW	057eH
voltbl	ENDS
;	COMDAT xdata
xdata	SEGMENT
$unwind$?call@?$compute_transpose@Utmat4x4@glm@@M$0A@$0A@@detail@glm@@SA?AU?$tmat4x4@M$0A@@3@AEBU43@@Z DD 043e19H
	DD	0230113H
	DD	0600b700cH
	DD	imagerel __GSHandlerCheck
	DD	0100H
xdata	ENDS
;	COMDAT CONST
CONST	SEGMENT
?call@?$compute_transpose@Utmat4x4@glm@@M$0A@$0A@@detail@glm@@SA?AU?$tmat4x4@M$0A@@3@AEBU43@@Z$rtcName$0 DB 072H ; glm::detail::compute_transpose<glm::tmat4x4,float,0,0>::call
	DB	065H
	DB	073H
	DB	075H
	DB	06cH
	DB	074H
	DB	00H
	ORG $+9
?call@?$compute_transpose@Utmat4x4@glm@@M$0A@$0A@@detail@glm@@SA?AU?$tmat4x4@M$0A@@3@AEBU43@@Z$rtcVarDesc DD 030H ; glm::detail::compute_transpose<glm::tmat4x4,float,0,0>::call
	DD	040H
	DQ	FLAT:?call@?$compute_transpose@Utmat4x4@glm@@M$0A@$0A@@detail@glm@@SA?AU?$tmat4x4@M$0A@@3@AEBU43@@Z$rtcName$0
	ORG $+48
?call@?$compute_transpose@Utmat4x4@glm@@M$0A@$0A@@detail@glm@@SA?AU?$tmat4x4@M$0A@@3@AEBU43@@Z$rtcFrameData DD 01H ; glm::detail::compute_transpose<glm::tmat4x4,float,0,0>::call
	DD	00H
	DQ	FLAT:?call@?$compute_transpose@Utmat4x4@glm@@M$0A@$0A@@detail@glm@@SA?AU?$tmat4x4@M$0A@@3@AEBU43@@Z$rtcVarDesc
CONST	ENDS
;	COMDAT voltbl
voltbl	SEGMENT
_volmd	DW	036H
	DW	042cH
voltbl	ENDS
;	COMDAT xdata
xdata	SEGMENT
$unwind$?call@?$compute_transpose@Utmat3x4@glm@@M$0A@$0A@@detail@glm@@SA?AU?$tmat4x3@M$0A@@3@AEBU?$tmat3x4@M$0A@@3@@Z DD 043e19H
	DD	01d0113H
	DD	0600b700cH
	DD	imagerel __GSHandlerCheck
	DD	0d0H
xdata	ENDS
;	COMDAT CONST
CONST	SEGMENT
?call@?$compute_transpose@Utmat3x4@glm@@M$0A@$0A@@detail@glm@@SA?AU?$tmat4x3@M$0A@@3@AEBU?$tmat3x4@M$0A@@3@@Z$rtcName$0 DB 072H ; glm::detail::compute_transpose<glm::tmat3x4,float,0,0>::call
	DB	065H
	DB	073H
	DB	075H
	DB	06cH
	DB	074H
	DB	00H
	ORG $+9
?call@?$compute_transpose@Utmat3x4@glm@@M$0A@$0A@@detail@glm@@SA?AU?$tmat4x3@M$0A@@3@AEBU?$tmat3x4@M$0A@@3@@Z$rtcVarDesc DD 028H ; glm::detail::compute_transpose<glm::tmat3x4,float,0,0>::call
	DD	030H
	DQ	FLAT:?call@?$compute_transpose@Utmat3x4@glm@@M$0A@$0A@@detail@glm@@SA?AU?$tmat4x3@M$0A@@3@AEBU?$tmat3x4@M$0A@@3@@Z$rtcName$0
	ORG $+48
?call@?$compute_transpose@Utmat3x4@glm@@M$0A@$0A@@detail@glm@@SA?AU?$tmat4x3@M$0A@@3@AEBU?$tmat3x4@M$0A@@3@@Z$rtcFrameData DD 01H ; glm::detail::compute_transpose<glm::tmat3x4,float,0,0>::call
	DD	00H
	DQ	FLAT:?call@?$compute_transpose@Utmat3x4@glm@@M$0A@$0A@@detail@glm@@SA?AU?$tmat4x3@M$0A@@3@AEBU?$tmat3x4@M$0A@@3@@Z$rtcVarDesc
CONST	ENDS
;	COMDAT voltbl
voltbl	SEGMENT
_volmd	DW	036H
	DW	022eH
voltbl	ENDS
;	COMDAT xdata
xdata	SEGMENT
$unwind$?call@?$compute_transpose@Utmat3x2@glm@@M$0A@$0A@@detail@glm@@SA?AU?$tmat2x3@M$0A@@3@AEBU?$tmat3x2@M$0A@@3@@Z DD 043e19H
	DD	0130113H
	DD	0600b700cH
	DD	imagerel __GSHandlerCheck
	DD	080H
xdata	ENDS
;	COMDAT CONST
CONST	SEGMENT
?call@?$compute_transpose@Utmat3x2@glm@@M$0A@$0A@@detail@glm@@SA?AU?$tmat2x3@M$0A@@3@AEBU?$tmat3x2@M$0A@@3@@Z$rtcName$0 DB 072H ; glm::detail::compute_transpose<glm::tmat3x2,float,0,0>::call
	DB	065H
	DB	073H
	DB	075H
	DB	06cH
	DB	074H
	DB	00H
	ORG $+9
?call@?$compute_transpose@Utmat3x2@glm@@M$0A@$0A@@detail@glm@@SA?AU?$tmat2x3@M$0A@@3@AEBU?$tmat3x2@M$0A@@3@@Z$rtcVarDesc DD 028H ; glm::detail::compute_transpose<glm::tmat3x2,float,0,0>::call
	DD	018H
	DQ	FLAT:?call@?$compute_transpose@Utmat3x2@glm@@M$0A@$0A@@detail@glm@@SA?AU?$tmat2x3@M$0A@@3@AEBU?$tmat3x2@M$0A@@3@@Z$rtcName$0
	ORG $+48
?call@?$compute_transpose@Utmat3x2@glm@@M$0A@$0A@@detail@glm@@SA?AU?$tmat2x3@M$0A@@3@AEBU?$tmat3x2@M$0A@@3@@Z$rtcFrameData DD 01H ; glm::detail::compute_transpose<glm::tmat3x2,float,0,0>::call
	DD	00H
	DQ	FLAT:?call@?$compute_transpose@Utmat3x2@glm@@M$0A@$0A@@detail@glm@@SA?AU?$tmat2x3@M$0A@@3@AEBU?$tmat3x2@M$0A@@3@@Z$rtcVarDesc
CONST	ENDS
;	COMDAT voltbl
voltbl	SEGMENT
_volmd	DW	036H
	DW	032dH
voltbl	ENDS
;	COMDAT xdata
xdata	SEGMENT
$unwind$?call@?$compute_transpose@Utmat3x3@glm@@M$0A@$0A@@detail@glm@@SA?AU?$tmat3x3@M$0A@@3@AEBU43@@Z DD 043e19H
	DD	0170113H
	DD	0600b700cH
	DD	imagerel __GSHandlerCheck
	DD	0a8H
xdata	ENDS
;	COMDAT CONST
CONST	SEGMENT
?call@?$compute_transpose@Utmat3x3@glm@@M$0A@$0A@@detail@glm@@SA?AU?$tmat3x3@M$0A@@3@AEBU43@@Z$rtcName$0 DB 072H ; glm::detail::compute_transpose<glm::tmat3x3,float,0,0>::call
	DB	065H
	DB	073H
	DB	075H
	DB	06cH
	DB	074H
	DB	00H
	ORG $+9
?call@?$compute_transpose@Utmat3x3@glm@@M$0A@$0A@@detail@glm@@SA?AU?$tmat3x3@M$0A@@3@AEBU43@@Z$rtcVarDesc DD 028H ; glm::detail::compute_transpose<glm::tmat3x3,float,0,0>::call
	DD	024H
	DQ	FLAT:?call@?$compute_transpose@Utmat3x3@glm@@M$0A@$0A@@detail@glm@@SA?AU?$tmat3x3@M$0A@@3@AEBU43@@Z$rtcName$0
	ORG $+48
?call@?$compute_transpose@Utmat3x3@glm@@M$0A@$0A@@detail@glm@@SA?AU?$tmat3x3@M$0A@@3@AEBU43@@Z$rtcFrameData DD 01H ; glm::detail::compute_transpose<glm::tmat3x3,float,0,0>::call
	DD	00H
	DQ	FLAT:?call@?$compute_transpose@Utmat3x3@glm@@M$0A@$0A@@detail@glm@@SA?AU?$tmat3x3@M$0A@@3@AEBU43@@Z$rtcVarDesc
CONST	ENDS
;	COMDAT voltbl
voltbl	SEGMENT
_volmd	DW	036H
	DW	02daH
voltbl	ENDS
;	COMDAT xdata
xdata	SEGMENT
$unwind$?call@?$compute_transpose@Utmat2x4@glm@@M$0A@$0A@@detail@glm@@SA?AU?$tmat4x2@M$0A@@3@AEBU?$tmat2x4@M$0A@@3@@Z DD 043e19H
	DD	0170113H
	DD	0600b700cH
	DD	imagerel __GSHandlerCheck
	DD	0a0H
xdata	ENDS
;	COMDAT CONST
CONST	SEGMENT
?call@?$compute_transpose@Utmat2x4@glm@@M$0A@$0A@@detail@glm@@SA?AU?$tmat4x2@M$0A@@3@AEBU?$tmat2x4@M$0A@@3@@Z$rtcName$0 DB 072H ; glm::detail::compute_transpose<glm::tmat2x4,float,0,0>::call
	DB	065H
	DB	073H
	DB	075H
	DB	06cH
	DB	074H
	DB	00H
	ORG $+9
?call@?$compute_transpose@Utmat2x4@glm@@M$0A@$0A@@detail@glm@@SA?AU?$tmat4x2@M$0A@@3@AEBU?$tmat2x4@M$0A@@3@@Z$rtcVarDesc DD 028H ; glm::detail::compute_transpose<glm::tmat2x4,float,0,0>::call
	DD	020H
	DQ	FLAT:?call@?$compute_transpose@Utmat2x4@glm@@M$0A@$0A@@detail@glm@@SA?AU?$tmat4x2@M$0A@@3@AEBU?$tmat2x4@M$0A@@3@@Z$rtcName$0
	ORG $+48
?call@?$compute_transpose@Utmat2x4@glm@@M$0A@$0A@@detail@glm@@SA?AU?$tmat4x2@M$0A@@3@AEBU?$tmat2x4@M$0A@@3@@Z$rtcFrameData DD 01H ; glm::detail::compute_transpose<glm::tmat2x4,float,0,0>::call
	DD	00H
	DQ	FLAT:?call@?$compute_transpose@Utmat2x4@glm@@M$0A@$0A@@detail@glm@@SA?AU?$tmat4x2@M$0A@@3@AEBU?$tmat2x4@M$0A@@3@@Z$rtcVarDesc
CONST	ENDS
;	COMDAT voltbl
voltbl	SEGMENT
_volmd	DW	036H
	DW	022eH
voltbl	ENDS
;	COMDAT xdata
xdata	SEGMENT
$unwind$?call@?$compute_transpose@Utmat2x3@glm@@M$0A@$0A@@detail@glm@@SA?AU?$tmat3x2@M$0A@@3@AEBU?$tmat2x3@M$0A@@3@@Z DD 043e19H
	DD	0130113H
	DD	0600b700cH
	DD	imagerel __GSHandlerCheck
	DD	080H
xdata	ENDS
;	COMDAT CONST
CONST	SEGMENT
?call@?$compute_transpose@Utmat2x3@glm@@M$0A@$0A@@detail@glm@@SA?AU?$tmat3x2@M$0A@@3@AEBU?$tmat2x3@M$0A@@3@@Z$rtcName$0 DB 072H ; glm::detail::compute_transpose<glm::tmat2x3,float,0,0>::call
	DB	065H
	DB	073H
	DB	075H
	DB	06cH
	DB	074H
	DB	00H
	ORG $+9
?call@?$compute_transpose@Utmat2x3@glm@@M$0A@$0A@@detail@glm@@SA?AU?$tmat3x2@M$0A@@3@AEBU?$tmat2x3@M$0A@@3@@Z$rtcVarDesc DD 028H ; glm::detail::compute_transpose<glm::tmat2x3,float,0,0>::call
	DD	018H
	DQ	FLAT:?call@?$compute_transpose@Utmat2x3@glm@@M$0A@$0A@@detail@glm@@SA?AU?$tmat3x2@M$0A@@3@AEBU?$tmat2x3@M$0A@@3@@Z$rtcName$0
	ORG $+48
?call@?$compute_transpose@Utmat2x3@glm@@M$0A@$0A@@detail@glm@@SA?AU?$tmat3x2@M$0A@@3@AEBU?$tmat2x3@M$0A@@3@@Z$rtcFrameData DD 01H ; glm::detail::compute_transpose<glm::tmat2x3,float,0,0>::call
	DD	00H
	DQ	FLAT:?call@?$compute_transpose@Utmat2x3@glm@@M$0A@$0A@@detail@glm@@SA?AU?$tmat3x2@M$0A@@3@AEBU?$tmat2x3@M$0A@@3@@Z$rtcVarDesc
CONST	ENDS
;	COMDAT voltbl
voltbl	SEGMENT
_volmd	DW	036H
	DW	0197H
voltbl	ENDS
;	COMDAT xdata
xdata	SEGMENT
$unwind$?call@?$compute_transpose@Utmat2x2@glm@@M$0A@$0A@@detail@glm@@SA?AU?$tmat2x2@M$0A@@3@AEBU43@@Z DD 043b19H
	DD	0110113H
	DD	0600b700cH
	DD	imagerel __GSHandlerCheck
	DD	070H
xdata	ENDS
;	COMDAT CONST
CONST	SEGMENT
?call@?$compute_transpose@Utmat2x2@glm@@M$0A@$0A@@detail@glm@@SA?AU?$tmat2x2@M$0A@@3@AEBU43@@Z$rtcName$0 DB 072H ; glm::detail::compute_transpose<glm::tmat2x2,float,0,0>::call
	DB	065H
	DB	073H
	DB	075H
	DB	06cH
	DB	074H
	DB	00H
	ORG $+9
?call@?$compute_transpose@Utmat2x2@glm@@M$0A@$0A@@detail@glm@@SA?AU?$tmat2x2@M$0A@@3@AEBU43@@Z$rtcVarDesc DD 028H ; glm::detail::compute_transpose<glm::tmat2x2,float,0,0>::call
	DD	010H
	DQ	FLAT:?call@?$compute_transpose@Utmat2x2@glm@@M$0A@$0A@@detail@glm@@SA?AU?$tmat2x2@M$0A@@3@AEBU43@@Z$rtcName$0
	ORG $+48
?call@?$compute_transpose@Utmat2x2@glm@@M$0A@$0A@@detail@glm@@SA?AU?$tmat2x2@M$0A@@3@AEBU43@@Z$rtcFrameData DD 01H ; glm::detail::compute_transpose<glm::tmat2x2,float,0,0>::call
	DD	00H
	DQ	FLAT:?call@?$compute_transpose@Utmat2x2@glm@@M$0A@$0A@@detail@glm@@SA?AU?$tmat2x2@M$0A@@3@AEBU43@@Z$rtcVarDesc
CONST	ENDS
;	COMDAT xdata
xdata	SEGMENT
$unwind$??$?DM$0A@@glm@@YA?AU?$tvec4@M$0A@@0@AEBU10@M@Z DD 031601H
	DD	070126216H
	DD	06011H
xdata	ENDS
;	COMDAT xdata
xdata	SEGMENT
$unwind$??$?DM$0A@@glm@@YA?AU?$tvec3@M$0A@@0@AEBU10@M@Z DD 021501H
	DD	070115215H
xdata	ENDS
;	COMDAT xdata
xdata	SEGMENT
$unwind$??$?DM$0A@@glm@@YA?AU?$tvec2@M$0A@@0@AEBU10@M@Z DD 021501H
	DD	070113215H
xdata	ENDS
;	COMDAT voltbl
voltbl	SEGMENT
_volmd	DW	03bH
	DW	0114H
voltbl	ENDS
;	COMDAT xdata
xdata	SEGMENT
$unwind$?call@?$compute_matrixCompMult@Utmat4x3@glm@@M$0A@$0A@@detail@glm@@SA?AU?$tmat4x3@M$0A@@3@AEBU43@0@Z DD 044319H
	DD	0150118H
	DD	060107011H
	DD	imagerel __GSHandlerCheck
	DD	090H
xdata	ENDS
;	COMDAT CONST
CONST	SEGMENT
?call@?$compute_matrixCompMult@Utmat4x3@glm@@M$0A@$0A@@detail@glm@@SA?AU?$tmat4x3@M$0A@@3@AEBU43@0@Z$rtcName$0 DB 072H ; glm::detail::compute_matrixCompMult<glm::tmat4x3,float,0,0>::call
	DB	065H
	DB	073H
	DB	075H
	DB	06cH
	DB	074H
	DB	00H
	ORG $+9
?call@?$compute_matrixCompMult@Utmat4x3@glm@@M$0A@$0A@@detail@glm@@SA?AU?$tmat4x3@M$0A@@3@AEBU43@0@Z$rtcVarDesc DD 028H ; glm::detail::compute_matrixCompMult<glm::tmat4x3,float,0,0>::call
	DD	030H
	DQ	FLAT:?call@?$compute_matrixCompMult@Utmat4x3@glm@@M$0A@$0A@@detail@glm@@SA?AU?$tmat4x3@M$0A@@3@AEBU43@0@Z$rtcName$0
	ORG $+48
?call@?$compute_matrixCompMult@Utmat4x3@glm@@M$0A@$0A@@detail@glm@@SA?AU?$tmat4x3@M$0A@@3@AEBU43@0@Z$rtcFrameData DD 01H ; glm::detail::compute_matrixCompMult<glm::tmat4x3,float,0,0>::call
	DD	00H
	DQ	FLAT:?call@?$compute_matrixCompMult@Utmat4x3@glm@@M$0A@$0A@@detail@glm@@SA?AU?$tmat4x3@M$0A@@3@AEBU43@0@Z$rtcVarDesc
CONST	ENDS
;	COMDAT voltbl
voltbl	SEGMENT
_volmd	DB	03bH
	DB	0fbH
voltbl	ENDS
;	COMDAT xdata
xdata	SEGMENT
$unwind$?call@?$compute_matrixCompMult@Utmat4x2@glm@@M$0A@$0A@@detail@glm@@SA?AU?$tmat4x2@M$0A@@3@AEBU43@0@Z DD 044019H
	DD	0110118H
	DD	060107011H
	DD	imagerel __GSHandlerCheck
	DD	078H
xdata	ENDS
;	COMDAT CONST
CONST	SEGMENT
?call@?$compute_matrixCompMult@Utmat4x2@glm@@M$0A@$0A@@detail@glm@@SA?AU?$tmat4x2@M$0A@@3@AEBU43@0@Z$rtcName$0 DB 072H ; glm::detail::compute_matrixCompMult<glm::tmat4x2,float,0,0>::call
	DB	065H
	DB	073H
	DB	075H
	DB	06cH
	DB	074H
	DB	00H
	ORG $+9
?call@?$compute_matrixCompMult@Utmat4x2@glm@@M$0A@$0A@@detail@glm@@SA?AU?$tmat4x2@M$0A@@3@AEBU43@0@Z$rtcVarDesc DD 028H ; glm::detail::compute_matrixCompMult<glm::tmat4x2,float,0,0>::call
	DD	020H
	DQ	FLAT:?call@?$compute_matrixCompMult@Utmat4x2@glm@@M$0A@$0A@@detail@glm@@SA?AU?$tmat4x2@M$0A@@3@AEBU43@0@Z$rtcName$0
	ORG $+48
?call@?$compute_matrixCompMult@Utmat4x2@glm@@M$0A@$0A@@detail@glm@@SA?AU?$tmat4x2@M$0A@@3@AEBU43@0@Z$rtcFrameData DD 01H ; glm::detail::compute_matrixCompMult<glm::tmat4x2,float,0,0>::call
	DD	00H
	DQ	FLAT:?call@?$compute_matrixCompMult@Utmat4x2@glm@@M$0A@$0A@@detail@glm@@SA?AU?$tmat4x2@M$0A@@3@AEBU43@0@Z$rtcVarDesc
CONST	ENDS
;	COMDAT voltbl
voltbl	SEGMENT
_volmd	DW	03bH
	DW	0117H
voltbl	ENDS
;	COMDAT xdata
xdata	SEGMENT
$unwind$?call@?$compute_matrixCompMult@Utmat4x4@glm@@M$0A@$0A@@detail@glm@@SA?AU?$tmat4x4@M$0A@@3@AEBU43@0@Z DD 044319H
	DD	0170118H
	DD	060107011H
	DD	imagerel __GSHandlerCheck
	DD	0a0H
xdata	ENDS
;	COMDAT CONST
CONST	SEGMENT
?call@?$compute_matrixCompMult@Utmat4x4@glm@@M$0A@$0A@@detail@glm@@SA?AU?$tmat4x4@M$0A@@3@AEBU43@0@Z$rtcName$0 DB 072H ; glm::detail::compute_matrixCompMult<glm::tmat4x4,float,0,0>::call
	DB	065H
	DB	073H
	DB	075H
	DB	06cH
	DB	074H
	DB	00H
	ORG $+9
?call@?$compute_matrixCompMult@Utmat4x4@glm@@M$0A@$0A@@detail@glm@@SA?AU?$tmat4x4@M$0A@@3@AEBU43@0@Z$rtcVarDesc DD 030H ; glm::detail::compute_matrixCompMult<glm::tmat4x4,float,0,0>::call
	DD	040H
	DQ	FLAT:?call@?$compute_matrixCompMult@Utmat4x4@glm@@M$0A@$0A@@detail@glm@@SA?AU?$tmat4x4@M$0A@@3@AEBU43@0@Z$rtcName$0
	ORG $+48
?call@?$compute_matrixCompMult@Utmat4x4@glm@@M$0A@$0A@@detail@glm@@SA?AU?$tmat4x4@M$0A@@3@AEBU43@0@Z$rtcFrameData DD 01H ; glm::detail::compute_matrixCompMult<glm::tmat4x4,float,0,0>::call
	DD	00H
	DQ	FLAT:?call@?$compute_matrixCompMult@Utmat4x4@glm@@M$0A@$0A@@detail@glm@@SA?AU?$tmat4x4@M$0A@@3@AEBU43@0@Z$rtcVarDesc
CONST	ENDS
;	COMDAT voltbl
voltbl	SEGMENT
_volmd	DW	03bH
	DW	0114H
voltbl	ENDS
;	COMDAT xdata
xdata	SEGMENT
$unwind$?call@?$compute_matrixCompMult@Utmat3x4@glm@@M$0A@$0A@@detail@glm@@SA?AU?$tmat3x4@M$0A@@3@AEBU43@0@Z DD 044319H
	DD	0150118H
	DD	060107011H
	DD	imagerel __GSHandlerCheck
	DD	090H
xdata	ENDS
;	COMDAT CONST
CONST	SEGMENT
?call@?$compute_matrixCompMult@Utmat3x4@glm@@M$0A@$0A@@detail@glm@@SA?AU?$tmat3x4@M$0A@@3@AEBU43@0@Z$rtcName$0 DB 072H ; glm::detail::compute_matrixCompMult<glm::tmat3x4,float,0,0>::call
	DB	065H
	DB	073H
	DB	075H
	DB	06cH
	DB	074H
	DB	00H
	ORG $+9
?call@?$compute_matrixCompMult@Utmat3x4@glm@@M$0A@$0A@@detail@glm@@SA?AU?$tmat3x4@M$0A@@3@AEBU43@0@Z$rtcVarDesc DD 028H ; glm::detail::compute_matrixCompMult<glm::tmat3x4,float,0,0>::call
	DD	030H
	DQ	FLAT:?call@?$compute_matrixCompMult@Utmat3x4@glm@@M$0A@$0A@@detail@glm@@SA?AU?$tmat3x4@M$0A@@3@AEBU43@0@Z$rtcName$0
	ORG $+48
?call@?$compute_matrixCompMult@Utmat3x4@glm@@M$0A@$0A@@detail@glm@@SA?AU?$tmat3x4@M$0A@@3@AEBU43@0@Z$rtcFrameData DD 01H ; glm::detail::compute_matrixCompMult<glm::tmat3x4,float,0,0>::call
	DD	00H
	DQ	FLAT:?call@?$compute_matrixCompMult@Utmat3x4@glm@@M$0A@$0A@@detail@glm@@SA?AU?$tmat3x4@M$0A@@3@AEBU43@0@Z$rtcVarDesc
CONST	ENDS
;	COMDAT voltbl
voltbl	SEGMENT
_volmd	DB	038H
	DB	0f8H
voltbl	ENDS
;	COMDAT xdata
xdata	SEGMENT
$unwind$?call@?$compute_matrixCompMult@Utmat3x2@glm@@M$0A@$0A@@detail@glm@@SA?AU?$tmat3x2@M$0A@@3@AEBU43@0@Z DD 033d19H
	DD	07011e215H
	DD	06010H
	DD	imagerel __GSHandlerCheck
	DD	068H
xdata	ENDS
;	COMDAT CONST
CONST	SEGMENT
?call@?$compute_matrixCompMult@Utmat3x2@glm@@M$0A@$0A@@detail@glm@@SA?AU?$tmat3x2@M$0A@@3@AEBU43@0@Z$rtcName$0 DB 072H ; glm::detail::compute_matrixCompMult<glm::tmat3x2,float,0,0>::call
	DB	065H
	DB	073H
	DB	075H
	DB	06cH
	DB	074H
	DB	00H
	ORG $+9
?call@?$compute_matrixCompMult@Utmat3x2@glm@@M$0A@$0A@@detail@glm@@SA?AU?$tmat3x2@M$0A@@3@AEBU43@0@Z$rtcVarDesc DD 028H ; glm::detail::compute_matrixCompMult<glm::tmat3x2,float,0,0>::call
	DD	018H
	DQ	FLAT:?call@?$compute_matrixCompMult@Utmat3x2@glm@@M$0A@$0A@@detail@glm@@SA?AU?$tmat3x2@M$0A@@3@AEBU43@0@Z$rtcName$0
	ORG $+48
?call@?$compute_matrixCompMult@Utmat3x2@glm@@M$0A@$0A@@detail@glm@@SA?AU?$tmat3x2@M$0A@@3@AEBU43@0@Z$rtcFrameData DD 01H ; glm::detail::compute_matrixCompMult<glm::tmat3x2,float,0,0>::call
	DD	00H
	DQ	FLAT:?call@?$compute_matrixCompMult@Utmat3x2@glm@@M$0A@$0A@@detail@glm@@SA?AU?$tmat3x2@M$0A@@3@AEBU43@0@Z$rtcVarDesc
CONST	ENDS
;	COMDAT voltbl
voltbl	SEGMENT
_volmd	DW	03bH
	DW	0105H
voltbl	ENDS
;	COMDAT xdata
xdata	SEGMENT
$unwind$?call@?$compute_matrixCompMult@Utmat3x3@glm@@M$0A@$0A@@detail@glm@@SA?AU?$tmat3x3@M$0A@@3@AEBU43@0@Z DD 044319H
	DD	0130118H
	DD	060107011H
	DD	imagerel __GSHandlerCheck
	DD	080H
xdata	ENDS
;	COMDAT CONST
CONST	SEGMENT
?call@?$compute_matrixCompMult@Utmat3x3@glm@@M$0A@$0A@@detail@glm@@SA?AU?$tmat3x3@M$0A@@3@AEBU43@0@Z$rtcName$0 DB 072H ; glm::detail::compute_matrixCompMult<glm::tmat3x3,float,0,0>::call
	DB	065H
	DB	073H
	DB	075H
	DB	06cH
	DB	074H
	DB	00H
	ORG $+9
?call@?$compute_matrixCompMult@Utmat3x3@glm@@M$0A@$0A@@detail@glm@@SA?AU?$tmat3x3@M$0A@@3@AEBU43@0@Z$rtcVarDesc DD 028H ; glm::detail::compute_matrixCompMult<glm::tmat3x3,float,0,0>::call
	DD	024H
	DQ	FLAT:?call@?$compute_matrixCompMult@Utmat3x3@glm@@M$0A@$0A@@detail@glm@@SA?AU?$tmat3x3@M$0A@@3@AEBU43@0@Z$rtcName$0
	ORG $+48
?call@?$compute_matrixCompMult@Utmat3x3@glm@@M$0A@$0A@@detail@glm@@SA?AU?$tmat3x3@M$0A@@3@AEBU43@0@Z$rtcFrameData DD 01H ; glm::detail::compute_matrixCompMult<glm::tmat3x3,float,0,0>::call
	DD	00H
	DQ	FLAT:?call@?$compute_matrixCompMult@Utmat3x3@glm@@M$0A@$0A@@detail@glm@@SA?AU?$tmat3x3@M$0A@@3@AEBU43@0@Z$rtcVarDesc
CONST	ENDS
;	COMDAT xdata
xdata	SEGMENT
$unwind$??$?8M$0A@@glm@@YA_NAEBU?$tvec4@M$0A@@0@0@Z DD 020f01H
	DD	0700b320fH
xdata	ENDS
;	COMDAT voltbl
voltbl	SEGMENT
_volmd	DW	03bH
	DW	0105H
voltbl	ENDS
;	COMDAT xdata
xdata	SEGMENT
$unwind$?call@?$compute_matrixCompMult@Utmat2x4@glm@@M$0A@$0A@@detail@glm@@SA?AU?$tmat2x4@M$0A@@3@AEBU43@0@Z DD 044319H
	DD	0130118H
	DD	060107011H
	DD	imagerel __GSHandlerCheck
	DD	080H
xdata	ENDS
;	COMDAT CONST
CONST	SEGMENT
?call@?$compute_matrixCompMult@Utmat2x4@glm@@M$0A@$0A@@detail@glm@@SA?AU?$tmat2x4@M$0A@@3@AEBU43@0@Z$rtcName$0 DB 072H ; glm::detail::compute_matrixCompMult<glm::tmat2x4,float,0,0>::call
	DB	065H
	DB	073H
	DB	075H
	DB	06cH
	DB	074H
	DB	00H
	ORG $+9
?call@?$compute_matrixCompMult@Utmat2x4@glm@@M$0A@$0A@@detail@glm@@SA?AU?$tmat2x4@M$0A@@3@AEBU43@0@Z$rtcVarDesc DD 028H ; glm::detail::compute_matrixCompMult<glm::tmat2x4,float,0,0>::call
	DD	020H
	DQ	FLAT:?call@?$compute_matrixCompMult@Utmat2x4@glm@@M$0A@$0A@@detail@glm@@SA?AU?$tmat2x4@M$0A@@3@AEBU43@0@Z$rtcName$0
	ORG $+48
?call@?$compute_matrixCompMult@Utmat2x4@glm@@M$0A@$0A@@detail@glm@@SA?AU?$tmat2x4@M$0A@@3@AEBU43@0@Z$rtcFrameData DD 01H ; glm::detail::compute_matrixCompMult<glm::tmat2x4,float,0,0>::call
	DD	00H
	DQ	FLAT:?call@?$compute_matrixCompMult@Utmat2x4@glm@@M$0A@$0A@@detail@glm@@SA?AU?$tmat2x4@M$0A@@3@AEBU43@0@Z$rtcVarDesc
CONST	ENDS
;	COMDAT xdata
xdata	SEGMENT
$unwind$??$?8M$0A@@glm@@YA_NAEBU?$tvec3@M$0A@@0@0@Z DD 020f01H
	DD	0700b120fH
xdata	ENDS
;	COMDAT voltbl
voltbl	SEGMENT
_volmd	DW	03bH
	DW	0102H
voltbl	ENDS
;	COMDAT xdata
xdata	SEGMENT
$unwind$?call@?$compute_matrixCompMult@Utmat2x3@glm@@M$0A@$0A@@detail@glm@@SA?AU?$tmat2x3@M$0A@@3@AEBU43@0@Z DD 044019H
	DD	0110118H
	DD	060107011H
	DD	imagerel __GSHandlerCheck
	DD	070H
xdata	ENDS
;	COMDAT CONST
CONST	SEGMENT
?call@?$compute_matrixCompMult@Utmat2x3@glm@@M$0A@$0A@@detail@glm@@SA?AU?$tmat2x3@M$0A@@3@AEBU43@0@Z$rtcName$0 DB 072H ; glm::detail::compute_matrixCompMult<glm::tmat2x3,float,0,0>::call
	DB	065H
	DB	073H
	DB	075H
	DB	06cH
	DB	074H
	DB	00H
	ORG $+9
?call@?$compute_matrixCompMult@Utmat2x3@glm@@M$0A@$0A@@detail@glm@@SA?AU?$tmat2x3@M$0A@@3@AEBU43@0@Z$rtcVarDesc DD 028H ; glm::detail::compute_matrixCompMult<glm::tmat2x3,float,0,0>::call
	DD	018H
	DQ	FLAT:?call@?$compute_matrixCompMult@Utmat2x3@glm@@M$0A@$0A@@detail@glm@@SA?AU?$tmat2x3@M$0A@@3@AEBU43@0@Z$rtcName$0
	ORG $+48
?call@?$compute_matrixCompMult@Utmat2x3@glm@@M$0A@$0A@@detail@glm@@SA?AU?$tmat2x3@M$0A@@3@AEBU43@0@Z$rtcFrameData DD 01H ; glm::detail::compute_matrixCompMult<glm::tmat2x3,float,0,0>::call
	DD	00H
	DQ	FLAT:?call@?$compute_matrixCompMult@Utmat2x3@glm@@M$0A@$0A@@detail@glm@@SA?AU?$tmat2x3@M$0A@@3@AEBU43@0@Z$rtcVarDesc
CONST	ENDS
;	COMDAT xdata
xdata	SEGMENT
$unwind$??$?8M$0A@@glm@@YA_NAEBU?$tvec2@M$0A@@0@0@Z DD 020f01H
	DD	0700b120fH
xdata	ENDS
;	COMDAT voltbl
voltbl	SEGMENT
_volmd	DB	038H
	DB	0f8H
voltbl	ENDS
;	COMDAT xdata
xdata	SEGMENT
$unwind$?call@?$compute_matrixCompMult@Utmat2x2@glm@@M$0A@$0A@@detail@glm@@SA?AU?$tmat2x2@M$0A@@3@AEBU43@0@Z DD 033d19H
	DD	07011e215H
	DD	06010H
	DD	imagerel __GSHandlerCheck
	DD	068H
xdata	ENDS
;	COMDAT CONST
CONST	SEGMENT
?call@?$compute_matrixCompMult@Utmat2x2@glm@@M$0A@$0A@@detail@glm@@SA?AU?$tmat2x2@M$0A@@3@AEBU43@0@Z$rtcName$0 DB 072H ; glm::detail::compute_matrixCompMult<glm::tmat2x2,float,0,0>::call
	DB	065H
	DB	073H
	DB	075H
	DB	06cH
	DB	074H
	DB	00H
	ORG $+9
?call@?$compute_matrixCompMult@Utmat2x2@glm@@M$0A@$0A@@detail@glm@@SA?AU?$tmat2x2@M$0A@@3@AEBU43@0@Z$rtcVarDesc DD 028H ; glm::detail::compute_matrixCompMult<glm::tmat2x2,float,0,0>::call
	DD	010H
	DQ	FLAT:?call@?$compute_matrixCompMult@Utmat2x2@glm@@M$0A@$0A@@detail@glm@@SA?AU?$tmat2x2@M$0A@@3@AEBU43@0@Z$rtcName$0
	ORG $+48
?call@?$compute_matrixCompMult@Utmat2x2@glm@@M$0A@$0A@@detail@glm@@SA?AU?$tmat2x2@M$0A@@3@AEBU43@0@Z$rtcFrameData DD 01H ; glm::detail::compute_matrixCompMult<glm::tmat2x2,float,0,0>::call
	DD	00H
	DQ	FLAT:?call@?$compute_matrixCompMult@Utmat2x2@glm@@M$0A@$0A@@detail@glm@@SA?AU?$tmat2x2@M$0A@@3@AEBU43@0@Z$rtcVarDesc
CONST	ENDS
;	COMDAT xdata
xdata	SEGMENT
$unwind$?call@?$compute_abs@M$00@detail@glm@@SAMM@Z DD 020b01H
	DD	07007320bH
xdata	ENDS
;	COMDAT xdata
xdata	SEGMENT
$unwind$??$?0HHHM@?$tvec4@M$0A@@glm@@QEAA@HHHM@Z DD 011401H
	DD	07014H
xdata	ENDS
;	COMDAT xdata
xdata	SEGMENT
$unwind$??$?0HHMH@?$tvec4@M$0A@@glm@@QEAA@HHMH@Z DD 011501H
	DD	07015H
xdata	ENDS
;	COMDAT xdata
xdata	SEGMENT
$unwind$??$?0HMHH@?$tvec4@M$0A@@glm@@QEAA@HMHH@Z DD 011501H
	DD	07015H
xdata	ENDS
;	COMDAT xdata
xdata	SEGMENT
$unwind$??$?0MHHH@?$tvec4@M$0A@@glm@@QEAA@MHHH@Z DD 011601H
	DD	07016H
xdata	ENDS
;	COMDAT xdata
xdata	SEGMENT
$unwind$??$?0HHM@?$tvec3@M$0A@@glm@@QEAA@HHM@Z DD 011501H
	DD	07015H
xdata	ENDS
;	COMDAT xdata
xdata	SEGMENT
$unwind$??$?0HMH@?$tvec3@M$0A@@glm@@QEAA@HMH@Z DD 011501H
	DD	07015H
xdata	ENDS
;	COMDAT xdata
xdata	SEGMENT
$unwind$??$?0MHH@?$tvec3@M$0A@@glm@@QEAA@MHH@Z DD 011601H
	DD	07016H
xdata	ENDS
;	COMDAT xdata
xdata	SEGMENT
$unwind$??$?0HM@?$tvec2@M$0A@@glm@@QEAA@HM@Z DD 011001H
	DD	07010H
xdata	ENDS
;	COMDAT xdata
xdata	SEGMENT
$unwind$??$?0MH@?$tvec2@M$0A@@glm@@QEAA@MH@Z DD 011101H
	DD	07011H
xdata	ENDS
;	COMDAT xdata
xdata	SEGMENT
$unwind$??$all@$0A@Utvec4@glm@@@glm@@YA_NAEBU?$tvec4@_N$0A@@0@@Z DD 020a01H
	DD	07006520aH
xdata	ENDS
;	COMDAT xdata
xdata	SEGMENT
$unwind$??0?$tvec4@_N$0A@@glm@@QEAA@W4ctor@1@@Z DD 010a01H
	DD	0700aH
xdata	ENDS
;	COMDAT xdata
xdata	SEGMENT
$unwind$??A?$tvec4@_N$0A@@glm@@QEBAAEB_NH@Z DD 020e01H
	DD	0700a320eH
xdata	ENDS
;	COMDAT xdata
xdata	SEGMENT
$unwind$??A?$tvec4@_N$0A@@glm@@QEAAAEA_NH@Z DD 020e01H
	DD	0700a320eH
xdata	ENDS
;	COMDAT xdata
xdata	SEGMENT
$unwind$?length@?$tvec4@_N$0A@@glm@@SAHXZ DD 010201H
	DD	07002H
xdata	ENDS
;	COMDAT xdata
xdata	SEGMENT
$unwind$??$epsilonEqual@M$0A@Utvec4@glm@@@glm@@YA?AU?$tvec4@_N$0A@@0@AEBU?$tvec4@M$0A@@0@0AEBM@Z DD 021901H
	DD	07015b219H
xdata	ENDS
;	COMDAT xdata
xdata	SEGMENT
$unwind$??$?DM$0A@@glm@@YA?AU?$tmat2x2@M$0A@@0@AEBU10@0@Z DD 031701H
	DD	0140117H
	DD	07010H
xdata	ENDS
;	COMDAT xdata
xdata	SEGMENT
$unwind$??$inverse@M$0A@Utmat2x2@glm@@@glm@@YA?AU?$tmat2x2@M$0A@@0@AEBU10@@Z DD 020f01H
	DD	0700b320fH
xdata	ENDS
;	COMDAT xdata
xdata	SEGMENT
$unwind$??$?0HH@?$tvec2@M$0A@@glm@@QEAA@HH@Z DD 010f01H
	DD	0700fH
xdata	ENDS
;	COMDAT voltbl
voltbl	SEGMENT
_volmd	DW	03bH
	DW	067dH
voltbl	ENDS
;	COMDAT xdata
xdata	SEGMENT
$unwind$??$?DM$0A@@glm@@YA?AU?$tmat3x3@M$0A@@0@AEBU10@0@Z DD 044319H
	DD	01d0118H
	DD	060107011H
	DD	imagerel __GSHandlerCheck
	DD	0d8H
xdata	ENDS
;	COMDAT CONST
CONST	SEGMENT
??$?DM$0A@@glm@@YA?AU?$tmat3x3@M$0A@@0@AEBU10@0@Z$rtcName$0 DB 052H ; glm::operator*<float,0>
	DB	065H
	DB	073H
	DB	075H
	DB	06cH
	DB	074H
	DB	00H
	ORG $+9
??$?DM$0A@@glm@@YA?AU?$tmat3x3@M$0A@@0@AEBU10@0@Z$rtcVarDesc DD 078H ; glm::operator*<float,0>
	DD	024H
	DQ	FLAT:??$?DM$0A@@glm@@YA?AU?$tmat3x3@M$0A@@0@AEBU10@0@Z$rtcName$0
	ORG $+48
??$?DM$0A@@glm@@YA?AU?$tmat3x3@M$0A@@0@AEBU10@0@Z$rtcFrameData DD 01H ; glm::operator*<float,0>
	DD	00H
	DQ	FLAT:??$?DM$0A@@glm@@YA?AU?$tmat3x3@M$0A@@0@AEBU10@0@Z$rtcVarDesc
CONST	ENDS
;	COMDAT xdata
xdata	SEGMENT
$unwind$??$inverse@M$0A@Utmat3x3@glm@@@glm@@YA?AU?$tmat3x3@M$0A@@0@AEBU10@@Z DD 020f01H
	DD	0700b320fH
xdata	ENDS
;	COMDAT xdata
xdata	SEGMENT
$unwind$??$?0HHH@?$tvec3@M$0A@@glm@@QEAA@HHH@Z DD 011401H
	DD	07014H
xdata	ENDS
;	COMDAT voltbl
voltbl	SEGMENT
_volmd	DW	03bH
	DW	069eH
voltbl	ENDS
;	COMDAT xdata
xdata	SEGMENT
$unwind$??$?DM$0A@@glm@@YA?AU?$tmat4x4@M$0A@@0@AEBU10@0@Z DD 044319H
	DD	08b0118H
	DD	060107011H
	DD	imagerel __GSHandlerCheck
	DD	0440H
xdata	ENDS
;	COMDAT CONST
CONST	SEGMENT
??$?DM$0A@@glm@@YA?AU?$tmat4x4@M$0A@@0@AEBU10@0@Z$rtcName$0 DB 053H ; glm::operator*<float,0>
	DB	072H
	DB	063H
	DB	041H
	DB	030H
	DB	00H
	ORG $+2
??$?DM$0A@@glm@@YA?AU?$tmat4x4@M$0A@@0@AEBU10@0@Z$rtcName$1 DB 053H ; glm::operator*<float,0>
	DB	072H
	DB	063H
	DB	041H
	DB	031H
	DB	00H
	ORG $+2
??$?DM$0A@@glm@@YA?AU?$tmat4x4@M$0A@@0@AEBU10@0@Z$rtcName$2 DB 053H ; glm::operator*<float,0>
	DB	072H
	DB	063H
	DB	041H
	DB	032H
	DB	00H
	ORG $+2
??$?DM$0A@@glm@@YA?AU?$tmat4x4@M$0A@@0@AEBU10@0@Z$rtcName$3 DB 053H ; glm::operator*<float,0>
	DB	072H
	DB	063H
	DB	041H
	DB	033H
	DB	00H
	ORG $+2
??$?DM$0A@@glm@@YA?AU?$tmat4x4@M$0A@@0@AEBU10@0@Z$rtcName$4 DB 053H ; glm::operator*<float,0>
	DB	072H
	DB	063H
	DB	042H
	DB	030H
	DB	00H
	ORG $+2
??$?DM$0A@@glm@@YA?AU?$tmat4x4@M$0A@@0@AEBU10@0@Z$rtcName$5 DB 053H ; glm::operator*<float,0>
	DB	072H
	DB	063H
	DB	042H
	DB	031H
	DB	00H
	ORG $+2
??$?DM$0A@@glm@@YA?AU?$tmat4x4@M$0A@@0@AEBU10@0@Z$rtcName$6 DB 053H ; glm::operator*<float,0>
	DB	072H
	DB	063H
	DB	042H
	DB	032H
	DB	00H
	ORG $+2
??$?DM$0A@@glm@@YA?AU?$tmat4x4@M$0A@@0@AEBU10@0@Z$rtcName$7 DB 053H ; glm::operator*<float,0>
	DB	072H
	DB	063H
	DB	042H
	DB	033H
	DB	00H
	ORG $+2
??$?DM$0A@@glm@@YA?AU?$tmat4x4@M$0A@@0@AEBU10@0@Z$rtcName$8 DB 052H ; glm::operator*<float,0>
	DB	065H
	DB	073H
	DB	075H
	DB	06cH
	DB	074H
	DB	00H
	ORG $+1
??$?DM$0A@@glm@@YA?AU?$tmat4x4@M$0A@@0@AEBU10@0@Z$rtcFrameData DD 09H ; glm::operator*<float,0>
	DD	00H
	DQ	FLAT:??$?DM$0A@@glm@@YA?AU?$tmat4x4@M$0A@@0@AEBU10@0@Z$rtcVarDesc
	ORG $+8
??$?DM$0A@@glm@@YA?AU?$tmat4x4@M$0A@@0@AEBU10@0@Z$rtcVarDesc DD 01b0H ; glm::operator*<float,0>
	DD	040H
	DQ	FLAT:??$?DM$0A@@glm@@YA?AU?$tmat4x4@M$0A@@0@AEBU10@0@Z$rtcName$8
	DD	0178H
	DD	010H
	DQ	FLAT:??$?DM$0A@@glm@@YA?AU?$tmat4x4@M$0A@@0@AEBU10@0@Z$rtcName$7
	DD	0148H
	DD	010H
	DQ	FLAT:??$?DM$0A@@glm@@YA?AU?$tmat4x4@M$0A@@0@AEBU10@0@Z$rtcName$6
	DD	0118H
	DD	010H
	DQ	FLAT:??$?DM$0A@@glm@@YA?AU?$tmat4x4@M$0A@@0@AEBU10@0@Z$rtcName$5
	DD	0e8H
	DD	010H
	DQ	FLAT:??$?DM$0A@@glm@@YA?AU?$tmat4x4@M$0A@@0@AEBU10@0@Z$rtcName$4
	DD	0b8H
	DD	010H
	DQ	FLAT:??$?DM$0A@@glm@@YA?AU?$tmat4x4@M$0A@@0@AEBU10@0@Z$rtcName$3
	DD	088H
	DD	010H
	DQ	FLAT:??$?DM$0A@@glm@@YA?AU?$tmat4x4@M$0A@@0@AEBU10@0@Z$rtcName$2
	DD	058H
	DD	010H
	DQ	FLAT:??$?DM$0A@@glm@@YA?AU?$tmat4x4@M$0A@@0@AEBU10@0@Z$rtcName$1
	DD	028H
	DD	010H
	DQ	FLAT:??$?DM$0A@@glm@@YA?AU?$tmat4x4@M$0A@@0@AEBU10@0@Z$rtcName$0
CONST	ENDS
;	COMDAT xdata
xdata	SEGMENT
$unwind$??$inverse@M$0A@Utmat4x4@glm@@@glm@@YA?AU?$tmat4x4@M$0A@@0@AEBU10@@Z DD 020f01H
	DD	0700b320fH
xdata	ENDS
;	COMDAT xdata
xdata	SEGMENT
$unwind$??$?0HHHH@?$tvec4@M$0A@@glm@@QEAA@HHHH@Z DD 011401H
	DD	07014H
xdata	ENDS
;	COMDAT xdata
xdata	SEGMENT
$unwind$??$transpose@M$0A@Utmat4x3@glm@@@glm@@YA?AU?$tmat3x4@M$0A@@0@AEBU?$tmat4x3@M$0A@@0@@Z DD 020f01H
	DD	0700b320fH
xdata	ENDS
;	COMDAT xdata
xdata	SEGMENT
$unwind$??$transpose@M$0A@Utmat4x2@glm@@@glm@@YA?AU?$tmat2x4@M$0A@@0@AEBU?$tmat4x2@M$0A@@0@@Z DD 020f01H
	DD	0700b320fH
xdata	ENDS
;	COMDAT xdata
xdata	SEGMENT
$unwind$??$transpose@M$0A@Utmat4x4@glm@@@glm@@YA?AU?$tmat4x4@M$0A@@0@AEBU10@@Z DD 020f01H
	DD	0700b320fH
xdata	ENDS
;	COMDAT xdata
xdata	SEGMENT
$unwind$??$transpose@M$0A@Utmat3x4@glm@@@glm@@YA?AU?$tmat4x3@M$0A@@0@AEBU?$tmat3x4@M$0A@@0@@Z DD 020f01H
	DD	0700b320fH
xdata	ENDS
;	COMDAT xdata
xdata	SEGMENT
$unwind$??$transpose@M$0A@Utmat3x2@glm@@@glm@@YA?AU?$tmat2x3@M$0A@@0@AEBU?$tmat3x2@M$0A@@0@@Z DD 020f01H
	DD	0700b320fH
xdata	ENDS
;	COMDAT xdata
xdata	SEGMENT
$unwind$??$transpose@M$0A@Utmat3x3@glm@@@glm@@YA?AU?$tmat3x3@M$0A@@0@AEBU10@@Z DD 020f01H
	DD	0700b320fH
xdata	ENDS
;	COMDAT xdata
xdata	SEGMENT
$unwind$??$transpose@M$0A@Utmat2x4@glm@@@glm@@YA?AU?$tmat4x2@M$0A@@0@AEBU?$tmat2x4@M$0A@@0@@Z DD 020f01H
	DD	0700b320fH
xdata	ENDS
;	COMDAT xdata
xdata	SEGMENT
$unwind$??$transpose@M$0A@Utmat2x3@glm@@@glm@@YA?AU?$tmat3x2@M$0A@@0@AEBU?$tmat2x3@M$0A@@0@@Z DD 020f01H
	DD	0700b320fH
xdata	ENDS
;	COMDAT xdata
xdata	SEGMENT
$unwind$??$transpose@M$0A@Utmat2x2@glm@@@glm@@YA?AU?$tmat2x2@M$0A@@0@AEBU10@@Z DD 020f01H
	DD	0700b320fH
xdata	ENDS
;	COMDAT voltbl
voltbl	SEGMENT
_volmd	DB	03bH
	DB	0f6H
voltbl	ENDS
;	COMDAT xdata
xdata	SEGMENT
$unwind$??$outerProduct@M$0A@Utvec3@glm@@Utvec4@2@@glm@@YA?AU?$tmat4x3@M$0A@@0@AEBU?$tvec3@M$0A@@0@AEBU?$tvec4@M$0A@@0@@Z DD 044319H
	DD	0130118H
	DD	060107011H
	DD	imagerel __GSHandlerCheck
	DD	088H
xdata	ENDS
;	COMDAT CONST
CONST	SEGMENT
??$outerProduct@M$0A@Utvec3@glm@@Utvec4@2@@glm@@YA?AU?$tmat4x3@M$0A@@0@AEBU?$tvec3@M$0A@@0@AEBU?$tvec4@M$0A@@0@@Z$rtcName$0 DB 06dH ; glm::outerProduct<float,0,glm::tvec3,glm::tvec4>
	DB	00H
	ORG $+14
??$outerProduct@M$0A@Utvec3@glm@@Utvec4@2@@glm@@YA?AU?$tmat4x3@M$0A@@0@AEBU?$tvec3@M$0A@@0@AEBU?$tvec4@M$0A@@0@@Z$rtcVarDesc DD 028H ; glm::outerProduct<float,0,glm::tvec3,glm::tvec4>
	DD	030H
	DQ	FLAT:??$outerProduct@M$0A@Utvec3@glm@@Utvec4@2@@glm@@YA?AU?$tmat4x3@M$0A@@0@AEBU?$tvec3@M$0A@@0@AEBU?$tvec4@M$0A@@0@@Z$rtcName$0
	ORG $+48
??$outerProduct@M$0A@Utvec3@glm@@Utvec4@2@@glm@@YA?AU?$tmat4x3@M$0A@@0@AEBU?$tvec3@M$0A@@0@AEBU?$tvec4@M$0A@@0@@Z$rtcFrameData DD 01H ; glm::outerProduct<float,0,glm::tvec3,glm::tvec4>
	DD	00H
	DQ	FLAT:??$outerProduct@M$0A@Utvec3@glm@@Utvec4@2@@glm@@YA?AU?$tmat4x3@M$0A@@0@AEBU?$tvec3@M$0A@@0@AEBU?$tvec4@M$0A@@0@@Z$rtcVarDesc
CONST	ENDS
;	COMDAT voltbl
voltbl	SEGMENT
_volmd	DB	03bH
	DB	0e6H
voltbl	ENDS
;	COMDAT xdata
xdata	SEGMENT
$unwind$??$outerProduct@M$0A@Utvec2@glm@@Utvec4@2@@glm@@YA?AU?$tmat4x2@M$0A@@0@AEBU?$tvec2@M$0A@@0@AEBU?$tvec4@M$0A@@0@@Z DD 044019H
	DD	0110118H
	DD	060107011H
	DD	imagerel __GSHandlerCheck
	DD	070H
xdata	ENDS
;	COMDAT CONST
CONST	SEGMENT
??$outerProduct@M$0A@Utvec2@glm@@Utvec4@2@@glm@@YA?AU?$tmat4x2@M$0A@@0@AEBU?$tvec2@M$0A@@0@AEBU?$tvec4@M$0A@@0@@Z$rtcName$0 DB 06dH ; glm::outerProduct<float,0,glm::tvec2,glm::tvec4>
	DB	00H
	ORG $+14
??$outerProduct@M$0A@Utvec2@glm@@Utvec4@2@@glm@@YA?AU?$tmat4x2@M$0A@@0@AEBU?$tvec2@M$0A@@0@AEBU?$tvec4@M$0A@@0@@Z$rtcVarDesc DD 028H ; glm::outerProduct<float,0,glm::tvec2,glm::tvec4>
	DD	020H
	DQ	FLAT:??$outerProduct@M$0A@Utvec2@glm@@Utvec4@2@@glm@@YA?AU?$tmat4x2@M$0A@@0@AEBU?$tvec2@M$0A@@0@AEBU?$tvec4@M$0A@@0@@Z$rtcName$0
	ORG $+48
??$outerProduct@M$0A@Utvec2@glm@@Utvec4@2@@glm@@YA?AU?$tmat4x2@M$0A@@0@AEBU?$tvec2@M$0A@@0@AEBU?$tvec4@M$0A@@0@@Z$rtcFrameData DD 01H ; glm::outerProduct<float,0,glm::tvec2,glm::tvec4>
	DD	00H
	DQ	FLAT:??$outerProduct@M$0A@Utvec2@glm@@Utvec4@2@@glm@@YA?AU?$tmat4x2@M$0A@@0@AEBU?$tvec2@M$0A@@0@AEBU?$tvec4@M$0A@@0@@Z$rtcVarDesc
CONST	ENDS
;	COMDAT voltbl
voltbl	SEGMENT
_volmd	DB	03bH
	DB	0f6H
voltbl	ENDS
;	COMDAT xdata
xdata	SEGMENT
$unwind$??$outerProduct@M$0A@Utvec4@glm@@Utvec3@2@@glm@@YA?AU?$tmat3x4@M$0A@@0@AEBU?$tvec4@M$0A@@0@AEBU?$tvec3@M$0A@@0@@Z DD 044319H
	DD	0130118H
	DD	060107011H
	DD	imagerel __GSHandlerCheck
	DD	088H
xdata	ENDS
;	COMDAT CONST
CONST	SEGMENT
??$outerProduct@M$0A@Utvec4@glm@@Utvec3@2@@glm@@YA?AU?$tmat3x4@M$0A@@0@AEBU?$tvec4@M$0A@@0@AEBU?$tvec3@M$0A@@0@@Z$rtcName$0 DB 06dH ; glm::outerProduct<float,0,glm::tvec4,glm::tvec3>
	DB	00H
	ORG $+14
??$outerProduct@M$0A@Utvec4@glm@@Utvec3@2@@glm@@YA?AU?$tmat3x4@M$0A@@0@AEBU?$tvec4@M$0A@@0@AEBU?$tvec3@M$0A@@0@@Z$rtcVarDesc DD 028H ; glm::outerProduct<float,0,glm::tvec4,glm::tvec3>
	DD	030H
	DQ	FLAT:??$outerProduct@M$0A@Utvec4@glm@@Utvec3@2@@glm@@YA?AU?$tmat3x4@M$0A@@0@AEBU?$tvec4@M$0A@@0@AEBU?$tvec3@M$0A@@0@@Z$rtcName$0
	ORG $+48
??$outerProduct@M$0A@Utvec4@glm@@Utvec3@2@@glm@@YA?AU?$tmat3x4@M$0A@@0@AEBU?$tvec4@M$0A@@0@AEBU?$tvec3@M$0A@@0@@Z$rtcFrameData DD 01H ; glm::outerProduct<float,0,glm::tvec4,glm::tvec3>
	DD	00H
	DQ	FLAT:??$outerProduct@M$0A@Utvec4@glm@@Utvec3@2@@glm@@YA?AU?$tmat3x4@M$0A@@0@AEBU?$tvec4@M$0A@@0@AEBU?$tvec3@M$0A@@0@@Z$rtcVarDesc
CONST	ENDS
;	COMDAT voltbl
voltbl	SEGMENT
_volmd	DB	038H
	DB	0e3H
voltbl	ENDS
;	COMDAT xdata
xdata	SEGMENT
$unwind$??$outerProduct@M$0A@Utvec2@glm@@Utvec3@2@@glm@@YA?AU?$tmat3x2@M$0A@@0@AEBU?$tvec2@M$0A@@0@AEBU?$tvec3@M$0A@@0@@Z DD 033d19H
	DD	07011e215H
	DD	06010H
	DD	imagerel __GSHandlerCheck
	DD	060H
xdata	ENDS
;	COMDAT CONST
CONST	SEGMENT
??$outerProduct@M$0A@Utvec2@glm@@Utvec3@2@@glm@@YA?AU?$tmat3x2@M$0A@@0@AEBU?$tvec2@M$0A@@0@AEBU?$tvec3@M$0A@@0@@Z$rtcName$0 DB 06dH ; glm::outerProduct<float,0,glm::tvec2,glm::tvec3>
	DB	00H
	ORG $+14
??$outerProduct@M$0A@Utvec2@glm@@Utvec3@2@@glm@@YA?AU?$tmat3x2@M$0A@@0@AEBU?$tvec2@M$0A@@0@AEBU?$tvec3@M$0A@@0@@Z$rtcVarDesc DD 028H ; glm::outerProduct<float,0,glm::tvec2,glm::tvec3>
	DD	018H
	DQ	FLAT:??$outerProduct@M$0A@Utvec2@glm@@Utvec3@2@@glm@@YA?AU?$tmat3x2@M$0A@@0@AEBU?$tvec2@M$0A@@0@AEBU?$tvec3@M$0A@@0@@Z$rtcName$0
	ORG $+48
??$outerProduct@M$0A@Utvec2@glm@@Utvec3@2@@glm@@YA?AU?$tmat3x2@M$0A@@0@AEBU?$tvec2@M$0A@@0@AEBU?$tvec3@M$0A@@0@@Z$rtcFrameData DD 01H ; glm::outerProduct<float,0,glm::tvec2,glm::tvec3>
	DD	00H
	DQ	FLAT:??$outerProduct@M$0A@Utvec2@glm@@Utvec3@2@@glm@@YA?AU?$tmat3x2@M$0A@@0@AEBU?$tvec2@M$0A@@0@AEBU?$tvec3@M$0A@@0@@Z$rtcVarDesc
CONST	ENDS
;	COMDAT voltbl
voltbl	SEGMENT
_volmd	DB	03bH
	DB	0edH
voltbl	ENDS
;	COMDAT xdata
xdata	SEGMENT
$unwind$??$outerProduct@M$0A@Utvec4@glm@@Utvec2@2@@glm@@YA?AU?$tmat2x4@M$0A@@0@AEBU?$tvec4@M$0A@@0@AEBU?$tvec2@M$0A@@0@@Z DD 044019H
	DD	0110118H
	DD	060107011H
	DD	imagerel __GSHandlerCheck
	DD	078H
xdata	ENDS
;	COMDAT CONST
CONST	SEGMENT
??$outerProduct@M$0A@Utvec4@glm@@Utvec2@2@@glm@@YA?AU?$tmat2x4@M$0A@@0@AEBU?$tvec4@M$0A@@0@AEBU?$tvec2@M$0A@@0@@Z$rtcName$0 DB 06dH ; glm::outerProduct<float,0,glm::tvec4,glm::tvec2>
	DB	00H
	ORG $+14
??$outerProduct@M$0A@Utvec4@glm@@Utvec2@2@@glm@@YA?AU?$tmat2x4@M$0A@@0@AEBU?$tvec4@M$0A@@0@AEBU?$tvec2@M$0A@@0@@Z$rtcVarDesc DD 028H ; glm::outerProduct<float,0,glm::tvec4,glm::tvec2>
	DD	020H
	DQ	FLAT:??$outerProduct@M$0A@Utvec4@glm@@Utvec2@2@@glm@@YA?AU?$tmat2x4@M$0A@@0@AEBU?$tvec4@M$0A@@0@AEBU?$tvec2@M$0A@@0@@Z$rtcName$0
	ORG $+48
??$outerProduct@M$0A@Utvec4@glm@@Utvec2@2@@glm@@YA?AU?$tmat2x4@M$0A@@0@AEBU?$tvec4@M$0A@@0@AEBU?$tvec2@M$0A@@0@@Z$rtcFrameData DD 01H ; glm::outerProduct<float,0,glm::tvec4,glm::tvec2>
	DD	00H
	DQ	FLAT:??$outerProduct@M$0A@Utvec4@glm@@Utvec2@2@@glm@@YA?AU?$tmat2x4@M$0A@@0@AEBU?$tvec4@M$0A@@0@AEBU?$tvec2@M$0A@@0@@Z$rtcVarDesc
CONST	ENDS
;	COMDAT voltbl
voltbl	SEGMENT
_volmd	DB	038H
	DB	0eaH
voltbl	ENDS
;	COMDAT xdata
xdata	SEGMENT
$unwind$??$outerProduct@M$0A@Utvec3@glm@@Utvec2@2@@glm@@YA?AU?$tmat2x3@M$0A@@0@AEBU?$tvec3@M$0A@@0@AEBU?$tvec2@M$0A@@0@@Z DD 033d19H
	DD	07011e215H
	DD	06010H
	DD	imagerel __GSHandlerCheck
	DD	068H
xdata	ENDS
;	COMDAT CONST
CONST	SEGMENT
??$outerProduct@M$0A@Utvec3@glm@@Utvec2@2@@glm@@YA?AU?$tmat2x3@M$0A@@0@AEBU?$tvec3@M$0A@@0@AEBU?$tvec2@M$0A@@0@@Z$rtcName$0 DB 06dH ; glm::outerProduct<float,0,glm::tvec3,glm::tvec2>
	DB	00H
	ORG $+14
??$outerProduct@M$0A@Utvec3@glm@@Utvec2@2@@glm@@YA?AU?$tmat2x3@M$0A@@0@AEBU?$tvec3@M$0A@@0@AEBU?$tvec2@M$0A@@0@@Z$rtcVarDesc DD 028H ; glm::outerProduct<float,0,glm::tvec3,glm::tvec2>
	DD	018H
	DQ	FLAT:??$outerProduct@M$0A@Utvec3@glm@@Utvec2@2@@glm@@YA?AU?$tmat2x3@M$0A@@0@AEBU?$tvec3@M$0A@@0@AEBU?$tvec2@M$0A@@0@@Z$rtcName$0
	ORG $+48
??$outerProduct@M$0A@Utvec3@glm@@Utvec2@2@@glm@@YA?AU?$tmat2x3@M$0A@@0@AEBU?$tvec3@M$0A@@0@AEBU?$tvec2@M$0A@@0@@Z$rtcFrameData DD 01H ; glm::outerProduct<float,0,glm::tvec3,glm::tvec2>
	DD	00H
	DQ	FLAT:??$outerProduct@M$0A@Utvec3@glm@@Utvec2@2@@glm@@YA?AU?$tmat2x3@M$0A@@0@AEBU?$tvec3@M$0A@@0@AEBU?$tvec2@M$0A@@0@@Z$rtcVarDesc
CONST	ENDS
;	COMDAT voltbl
voltbl	SEGMENT
_volmd	DB	03bH
	DB	0f9H
voltbl	ENDS
;	COMDAT xdata
xdata	SEGMENT
$unwind$??$outerProduct@M$0A@Utvec4@glm@@U12@@glm@@YA?AU?$tmat4x4@M$0A@@0@AEBU?$tvec4@M$0A@@0@0@Z DD 044319H
	DD	0150118H
	DD	060107011H
	DD	imagerel __GSHandlerCheck
	DD	098H
xdata	ENDS
;	COMDAT CONST
CONST	SEGMENT
??$outerProduct@M$0A@Utvec4@glm@@U12@@glm@@YA?AU?$tmat4x4@M$0A@@0@AEBU?$tvec4@M$0A@@0@0@Z$rtcName$0 DB 06dH ; glm::outerProduct<float,0,glm::tvec4,glm::tvec4>
	DB	00H
	ORG $+14
??$outerProduct@M$0A@Utvec4@glm@@U12@@glm@@YA?AU?$tmat4x4@M$0A@@0@AEBU?$tvec4@M$0A@@0@0@Z$rtcVarDesc DD 030H ; glm::outerProduct<float,0,glm::tvec4,glm::tvec4>
	DD	040H
	DQ	FLAT:??$outerProduct@M$0A@Utvec4@glm@@U12@@glm@@YA?AU?$tmat4x4@M$0A@@0@AEBU?$tvec4@M$0A@@0@0@Z$rtcName$0
	ORG $+48
??$outerProduct@M$0A@Utvec4@glm@@U12@@glm@@YA?AU?$tmat4x4@M$0A@@0@AEBU?$tvec4@M$0A@@0@0@Z$rtcFrameData DD 01H ; glm::outerProduct<float,0,glm::tvec4,glm::tvec4>
	DD	00H
	DQ	FLAT:??$outerProduct@M$0A@Utvec4@glm@@U12@@glm@@YA?AU?$tmat4x4@M$0A@@0@AEBU?$tvec4@M$0A@@0@0@Z$rtcVarDesc
CONST	ENDS
;	COMDAT voltbl
voltbl	SEGMENT
_volmd	DB	03bH
	DB	0edH
voltbl	ENDS
;	COMDAT xdata
xdata	SEGMENT
$unwind$??$outerProduct@M$0A@Utvec3@glm@@U12@@glm@@YA?AU?$tmat3x3@M$0A@@0@AEBU?$tvec3@M$0A@@0@0@Z DD 044019H
	DD	0110118H
	DD	060107011H
	DD	imagerel __GSHandlerCheck
	DD	078H
xdata	ENDS
;	COMDAT CONST
CONST	SEGMENT
??$outerProduct@M$0A@Utvec3@glm@@U12@@glm@@YA?AU?$tmat3x3@M$0A@@0@AEBU?$tvec3@M$0A@@0@0@Z$rtcName$0 DB 06dH ; glm::outerProduct<float,0,glm::tvec3,glm::tvec3>
	DB	00H
	ORG $+14
??$outerProduct@M$0A@Utvec3@glm@@U12@@glm@@YA?AU?$tmat3x3@M$0A@@0@AEBU?$tvec3@M$0A@@0@0@Z$rtcVarDesc DD 028H ; glm::outerProduct<float,0,glm::tvec3,glm::tvec3>
	DD	024H
	DQ	FLAT:??$outerProduct@M$0A@Utvec3@glm@@U12@@glm@@YA?AU?$tmat3x3@M$0A@@0@AEBU?$tvec3@M$0A@@0@0@Z$rtcName$0
	ORG $+48
??$outerProduct@M$0A@Utvec3@glm@@U12@@glm@@YA?AU?$tmat3x3@M$0A@@0@AEBU?$tvec3@M$0A@@0@0@Z$rtcFrameData DD 01H ; glm::outerProduct<float,0,glm::tvec3,glm::tvec3>
	DD	00H
	DQ	FLAT:??$outerProduct@M$0A@Utvec3@glm@@U12@@glm@@YA?AU?$tmat3x3@M$0A@@0@AEBU?$tvec3@M$0A@@0@0@Z$rtcVarDesc
CONST	ENDS
;	COMDAT voltbl
voltbl	SEGMENT
_volmd	DB	038H
	DB	0e3H
voltbl	ENDS
;	COMDAT xdata
xdata	SEGMENT
$unwind$??$outerProduct@M$0A@Utvec2@glm@@U12@@glm@@YA?AU?$tmat2x2@M$0A@@0@AEBU?$tvec2@M$0A@@0@0@Z DD 033d19H
	DD	07011e215H
	DD	06010H
	DD	imagerel __GSHandlerCheck
	DD	060H
xdata	ENDS
;	COMDAT CONST
CONST	SEGMENT
??$outerProduct@M$0A@Utvec2@glm@@U12@@glm@@YA?AU?$tmat2x2@M$0A@@0@AEBU?$tvec2@M$0A@@0@0@Z$rtcName$0 DB 06dH ; glm::outerProduct<float,0,glm::tvec2,glm::tvec2>
	DB	00H
	ORG $+14
??$outerProduct@M$0A@Utvec2@glm@@U12@@glm@@YA?AU?$tmat2x2@M$0A@@0@AEBU?$tvec2@M$0A@@0@0@Z$rtcVarDesc DD 028H ; glm::outerProduct<float,0,glm::tvec2,glm::tvec2>
	DD	010H
	DQ	FLAT:??$outerProduct@M$0A@Utvec2@glm@@U12@@glm@@YA?AU?$tmat2x2@M$0A@@0@AEBU?$tvec2@M$0A@@0@0@Z$rtcName$0
	ORG $+48
??$outerProduct@M$0A@Utvec2@glm@@U12@@glm@@YA?AU?$tmat2x2@M$0A@@0@AEBU?$tvec2@M$0A@@0@0@Z$rtcFrameData DD 01H ; glm::outerProduct<float,0,glm::tvec2,glm::tvec2>
	DD	00H
	DQ	FLAT:??$outerProduct@M$0A@Utvec2@glm@@U12@@glm@@YA?AU?$tmat2x2@M$0A@@0@AEBU?$tvec2@M$0A@@0@0@Z$rtcVarDesc
CONST	ENDS
;	COMDAT xdata
xdata	SEGMENT
$unwind$??$?8M$0A@@glm@@YA_NAEBU?$tmat4x3@M$0A@@0@0@Z DD 020f01H
	DD	0700b920fH
xdata	ENDS
;	COMDAT xdata
xdata	SEGMENT
$unwind$??$matrixCompMult@M$0A@Utmat4x3@glm@@@glm@@YA?AU?$tmat4x3@M$0A@@0@AEBU10@0@Z DD 021401H
	DD	070103214H
xdata	ENDS
;	COMDAT xdata
xdata	SEGMENT
$unwind$??$?0HHHHHHHHHHHH@?$tmat4x3@M$0A@@glm@@QEAA@AEBH00000000000@Z DD 031a01H
	DD	07016c21aH
	DD	06015H
xdata	ENDS
;	COMDAT xdata
xdata	SEGMENT
$unwind$??A?$tmat4x3@M$0A@@glm@@QEBAAEBU?$tvec3@M$0A@@1@H@Z DD 020e01H
	DD	0700a320eH
xdata	ENDS
;	COMDAT xdata
xdata	SEGMENT
$unwind$??A?$tmat4x3@M$0A@@glm@@QEAAAEAU?$tvec3@M$0A@@1@H@Z DD 020e01H
	DD	0700a320eH
xdata	ENDS
;	COMDAT xdata
xdata	SEGMENT
$unwind$?length@?$tmat4x3@M$0A@@glm@@SAHXZ DD 010201H
	DD	07002H
xdata	ENDS
;	COMDAT xdata
xdata	SEGMENT
$unwind$??0?$tmat4x3@M$0A@@glm@@QEAA@W4ctor@1@@Z DD 020e01H
	DD	0700a320eH
xdata	ENDS
;	COMDAT xdata
xdata	SEGMENT
$unwind$??$?8M$0A@@glm@@YA_NAEBU?$tmat4x2@M$0A@@0@0@Z DD 020f01H
	DD	0700b920fH
xdata	ENDS
;	COMDAT xdata
xdata	SEGMENT
$unwind$??$matrixCompMult@M$0A@Utmat4x2@glm@@@glm@@YA?AU?$tmat4x2@M$0A@@0@AEBU10@0@Z DD 021401H
	DD	070103214H
xdata	ENDS
;	COMDAT xdata
xdata	SEGMENT
$unwind$??$?0HHHHHHHH@?$tmat4x2@M$0A@@glm@@QEAA@HHHHHHHH@Z DD 021801H
	DD	070147218H
xdata	ENDS
;	COMDAT xdata
xdata	SEGMENT
$unwind$??A?$tmat4x2@M$0A@@glm@@QEBAAEBU?$tvec2@M$0A@@1@H@Z DD 020e01H
	DD	0700a320eH
xdata	ENDS
;	COMDAT xdata
xdata	SEGMENT
$unwind$??A?$tmat4x2@M$0A@@glm@@QEAAAEAU?$tvec2@M$0A@@1@H@Z DD 020e01H
	DD	0700a320eH
xdata	ENDS
;	COMDAT xdata
xdata	SEGMENT
$unwind$?length@?$tmat4x2@M$0A@@glm@@SAHXZ DD 010201H
	DD	07002H
xdata	ENDS
;	COMDAT xdata
xdata	SEGMENT
$unwind$??0?$tmat4x2@M$0A@@glm@@QEAA@W4ctor@1@@Z DD 020e01H
	DD	0700a320eH
xdata	ENDS
;	COMDAT xdata
xdata	SEGMENT
$unwind$??$?8M$0A@@glm@@YA_NAEBU?$tmat4x4@M$0A@@0@0@Z DD 020f01H
	DD	0700b920fH
xdata	ENDS
;	COMDAT xdata
xdata	SEGMENT
$unwind$??$matrixCompMult@M$0A@Utmat4x4@glm@@@glm@@YA?AU?$tmat4x4@M$0A@@0@AEBU10@0@Z DD 021401H
	DD	070103214H
xdata	ENDS
;	COMDAT xdata
xdata	SEGMENT
$unwind$??$?0HHHHHHHHHHHHHHHH@?$tmat4x4@M$0A@@glm@@QEAA@AEBH000000000000000@Z DD 041d01H
	DD	011011dH
	DD	060157016H
xdata	ENDS
;	COMDAT xdata
xdata	SEGMENT
$unwind$??A?$tmat4x4@M$0A@@glm@@QEBAAEBU?$tvec4@M$0A@@1@H@Z DD 020e01H
	DD	0700a320eH
xdata	ENDS
;	COMDAT xdata
xdata	SEGMENT
$unwind$??A?$tmat4x4@M$0A@@glm@@QEAAAEAU?$tvec4@M$0A@@1@H@Z DD 020e01H
	DD	0700a320eH
xdata	ENDS
;	COMDAT xdata
xdata	SEGMENT
$unwind$?length@?$tmat4x4@M$0A@@glm@@SAHXZ DD 010201H
	DD	07002H
xdata	ENDS
;	COMDAT xdata
xdata	SEGMENT
$unwind$??0?$tmat4x4@M$0A@@glm@@QEAA@AEBU?$tvec4@M$0A@@1@000@Z DD 031a01H
	DD	07016421aH
	DD	06015H
xdata	ENDS
;	COMDAT xdata
xdata	SEGMENT
$unwind$??0?$tmat4x4@M$0A@@glm@@QEAA@AEBM@Z DD 031001H
	DD	0700ce210H
	DD	0600bH
xdata	ENDS
;	COMDAT xdata
xdata	SEGMENT
$unwind$??0?$tmat4x4@M$0A@@glm@@QEAA@W4ctor@1@@Z DD 020e01H
	DD	0700a320eH
xdata	ENDS
;	COMDAT xdata
xdata	SEGMENT
$unwind$??$?8M$0A@@glm@@YA_NAEBU?$tmat3x4@M$0A@@0@0@Z DD 020f01H
	DD	0700b720fH
xdata	ENDS
;	COMDAT xdata
xdata	SEGMENT
$unwind$??$matrixCompMult@M$0A@Utmat3x4@glm@@@glm@@YA?AU?$tmat3x4@M$0A@@0@AEBU10@0@Z DD 021401H
	DD	070103214H
xdata	ENDS
;	COMDAT xdata
xdata	SEGMENT
$unwind$??$?0HHHHHHHHHHHH@?$tmat3x4@M$0A@@glm@@QEAA@HHHHHHHHHHHH@Z DD 031901H
	DD	07015e219H
	DD	06014H
xdata	ENDS
;	COMDAT xdata
xdata	SEGMENT
$unwind$??A?$tmat3x4@M$0A@@glm@@QEBAAEBU?$tvec4@M$0A@@1@H@Z DD 020e01H
	DD	0700a320eH
xdata	ENDS
;	COMDAT xdata
xdata	SEGMENT
$unwind$??A?$tmat3x4@M$0A@@glm@@QEAAAEAU?$tvec4@M$0A@@1@H@Z DD 020e01H
	DD	0700a320eH
xdata	ENDS
;	COMDAT xdata
xdata	SEGMENT
$unwind$?length@?$tmat3x4@M$0A@@glm@@SAHXZ DD 010201H
	DD	07002H
xdata	ENDS
;	COMDAT xdata
xdata	SEGMENT
$unwind$??0?$tmat3x4@M$0A@@glm@@QEAA@W4ctor@1@@Z DD 020e01H
	DD	0700a320eH
xdata	ENDS
;	COMDAT xdata
xdata	SEGMENT
$unwind$??$?8M$0A@@glm@@YA_NAEBU?$tmat3x2@M$0A@@0@0@Z DD 020f01H
	DD	0700b720fH
xdata	ENDS
;	COMDAT xdata
xdata	SEGMENT
$unwind$??$matrixCompMult@M$0A@Utmat3x2@glm@@@glm@@YA?AU?$tmat3x2@M$0A@@0@AEBU10@0@Z DD 021401H
	DD	070103214H
xdata	ENDS
;	COMDAT xdata
xdata	SEGMENT
$unwind$??$?0HHHHHH@?$tmat3x2@M$0A@@glm@@QEAA@HHHHHH@Z DD 021801H
	DD	070147218H
xdata	ENDS
;	COMDAT xdata
xdata	SEGMENT
$unwind$??A?$tmat3x2@M$0A@@glm@@QEBAAEBU?$tvec2@M$0A@@1@H@Z DD 020e01H
	DD	0700a320eH
xdata	ENDS
;	COMDAT xdata
xdata	SEGMENT
$unwind$??A?$tmat3x2@M$0A@@glm@@QEAAAEAU?$tvec2@M$0A@@1@H@Z DD 020e01H
	DD	0700a320eH
xdata	ENDS
;	COMDAT xdata
xdata	SEGMENT
$unwind$?length@?$tmat3x2@M$0A@@glm@@SAHXZ DD 010201H
	DD	07002H
xdata	ENDS
;	COMDAT xdata
xdata	SEGMENT
$unwind$??0?$tmat3x2@M$0A@@glm@@QEAA@W4ctor@1@@Z DD 020e01H
	DD	0700a320eH
xdata	ENDS
;	COMDAT xdata
xdata	SEGMENT
$unwind$??$?8M$0A@@glm@@YA_NAEBU?$tmat3x3@M$0A@@0@0@Z DD 020f01H
	DD	0700b720fH
xdata	ENDS
;	COMDAT xdata
xdata	SEGMENT
$unwind$??$matrixCompMult@M$0A@Utmat3x3@glm@@@glm@@YA?AU?$tmat3x3@M$0A@@0@AEBU10@0@Z DD 021401H
	DD	070103214H
xdata	ENDS
;	COMDAT xdata
xdata	SEGMENT
$unwind$??$?0HHHHHHHHH@?$tmat3x3@M$0A@@glm@@QEAA@HHHHHHHHH@Z DD 031901H
	DD	07015a219H
	DD	06014H
xdata	ENDS
;	COMDAT xdata
xdata	SEGMENT
$unwind$??A?$tmat3x3@M$0A@@glm@@QEBAAEBU?$tvec3@M$0A@@1@H@Z DD 020e01H
	DD	0700a320eH
xdata	ENDS
;	COMDAT xdata
xdata	SEGMENT
$unwind$??A?$tmat3x3@M$0A@@glm@@QEAAAEAU?$tvec3@M$0A@@1@H@Z DD 020e01H
	DD	0700a320eH
xdata	ENDS
;	COMDAT xdata
xdata	SEGMENT
$unwind$?length@?$tmat3x3@M$0A@@glm@@SAHXZ DD 010201H
	DD	07002H
xdata	ENDS
;	COMDAT xdata
xdata	SEGMENT
$unwind$??0?$tmat3x3@M$0A@@glm@@QEAA@AEBU?$tvec3@M$0A@@1@00@Z DD 031a01H
	DD	07016421aH
	DD	06015H
xdata	ENDS
;	COMDAT xdata
xdata	SEGMENT
$unwind$??0?$tmat3x3@M$0A@@glm@@QEAA@M@Z DD 031101H
	DD	0700da211H
	DD	0600cH
xdata	ENDS
;	COMDAT xdata
xdata	SEGMENT
$unwind$??0?$tmat3x3@M$0A@@glm@@QEAA@W4ctor@1@@Z DD 020e01H
	DD	0700a320eH
xdata	ENDS
;	COMDAT xdata
xdata	SEGMENT
$unwind$??$?8M$0A@@glm@@YA_NAEBU?$tmat2x4@M$0A@@0@0@Z DD 020f01H
	DD	0700b720fH
xdata	ENDS
;	COMDAT xdata
xdata	SEGMENT
$unwind$??$matrixCompMult@M$0A@Utmat2x4@glm@@@glm@@YA?AU?$tmat2x4@M$0A@@0@AEBU10@0@Z DD 021401H
	DD	070103214H
xdata	ENDS
;	COMDAT xdata
xdata	SEGMENT
$unwind$??$?0HHHHHHHH@?$tmat2x4@M$0A@@glm@@QEAA@HHHHHHHH@Z DD 031901H
	DD	07015c219H
	DD	06014H
xdata	ENDS
;	COMDAT xdata
xdata	SEGMENT
$unwind$??A?$tmat2x4@M$0A@@glm@@QEBAAEBU?$tvec4@M$0A@@1@H@Z DD 020e01H
	DD	0700a320eH
xdata	ENDS
;	COMDAT xdata
xdata	SEGMENT
$unwind$??A?$tmat2x4@M$0A@@glm@@QEAAAEAU?$tvec4@M$0A@@1@H@Z DD 020e01H
	DD	0700a320eH
xdata	ENDS
;	COMDAT xdata
xdata	SEGMENT
$unwind$?length@?$tmat2x4@M$0A@@glm@@SAHXZ DD 010201H
	DD	07002H
xdata	ENDS
;	COMDAT xdata
xdata	SEGMENT
$unwind$??0?$tmat2x4@M$0A@@glm@@QEAA@W4ctor@1@@Z DD 020e01H
	DD	0700a320eH
xdata	ENDS
;	COMDAT xdata
xdata	SEGMENT
$unwind$??0?$tvec4@M$0A@@glm@@QEAA@MMMM@Z DD 011801H
	DD	07018H
xdata	ENDS
;	COMDAT xdata
xdata	SEGMENT
$unwind$??0?$tvec4@M$0A@@glm@@QEAA@M@Z DD 010c01H
	DD	0700cH
xdata	ENDS
;	COMDAT xdata
xdata	SEGMENT
$unwind$??0?$tvec4@M$0A@@glm@@QEAA@XZ DD 010601H
	DD	07006H
xdata	ENDS
;	COMDAT xdata
xdata	SEGMENT
$unwind$??A?$tvec4@M$0A@@glm@@QEBAAEBMH@Z DD 020e01H
	DD	0700a320eH
xdata	ENDS
;	COMDAT xdata
xdata	SEGMENT
$unwind$??A?$tvec4@M$0A@@glm@@QEAAAEAMH@Z DD 020e01H
	DD	0700a320eH
xdata	ENDS
;	COMDAT xdata
xdata	SEGMENT
$unwind$?length@?$tvec4@M$0A@@glm@@SAHXZ DD 010201H
	DD	07002H
xdata	ENDS
;	COMDAT xdata
xdata	SEGMENT
$unwind$??$?8M$0A@@glm@@YA_NAEBU?$tmat2x3@M$0A@@0@0@Z DD 020f01H
	DD	0700b720fH
xdata	ENDS
;	COMDAT xdata
xdata	SEGMENT
$unwind$??$matrixCompMult@M$0A@Utmat2x3@glm@@@glm@@YA?AU?$tmat2x3@M$0A@@0@AEBU10@0@Z DD 021401H
	DD	070103214H
xdata	ENDS
;	COMDAT xdata
xdata	SEGMENT
$unwind$??$?0HHHHHH@?$tmat2x3@M$0A@@glm@@QEAA@HHHHHH@Z DD 031901H
	DD	070158219H
	DD	06014H
xdata	ENDS
;	COMDAT xdata
xdata	SEGMENT
$unwind$??A?$tmat2x3@M$0A@@glm@@QEBAAEBU?$tvec3@M$0A@@1@H@Z DD 020e01H
	DD	0700a320eH
xdata	ENDS
;	COMDAT xdata
xdata	SEGMENT
$unwind$??A?$tmat2x3@M$0A@@glm@@QEAAAEAU?$tvec3@M$0A@@1@H@Z DD 020e01H
	DD	0700a320eH
xdata	ENDS
;	COMDAT xdata
xdata	SEGMENT
$unwind$?length@?$tmat2x3@M$0A@@glm@@SAHXZ DD 010201H
	DD	07002H
xdata	ENDS
;	COMDAT xdata
xdata	SEGMENT
$unwind$??0?$tmat2x3@M$0A@@glm@@QEAA@W4ctor@1@@Z DD 020e01H
	DD	0700a320eH
xdata	ENDS
;	COMDAT xdata
xdata	SEGMENT
$unwind$??0?$tvec3@M$0A@@glm@@QEAA@MMM@Z DD 011801H
	DD	07018H
xdata	ENDS
;	COMDAT xdata
xdata	SEGMENT
$unwind$??0?$tvec3@M$0A@@glm@@QEAA@M@Z DD 010c01H
	DD	0700cH
xdata	ENDS
;	COMDAT xdata
xdata	SEGMENT
$unwind$??0?$tvec3@M$0A@@glm@@QEAA@XZ DD 010601H
	DD	07006H
xdata	ENDS
;	COMDAT xdata
xdata	SEGMENT
$unwind$??A?$tvec3@M$0A@@glm@@QEBAAEBMH@Z DD 020e01H
	DD	0700a320eH
xdata	ENDS
;	COMDAT xdata
xdata	SEGMENT
$unwind$??A?$tvec3@M$0A@@glm@@QEAAAEAMH@Z DD 020e01H
	DD	0700a320eH
xdata	ENDS
;	COMDAT xdata
xdata	SEGMENT
$unwind$?length@?$tvec3@M$0A@@glm@@SAHXZ DD 010201H
	DD	07002H
xdata	ENDS
;	COMDAT xdata
xdata	SEGMENT
$unwind$??$?8M$0A@@glm@@YA_NAEBU?$tmat2x2@M$0A@@0@0@Z DD 020f01H
	DD	0700b720fH
xdata	ENDS
;	COMDAT xdata
xdata	SEGMENT
$unwind$??$matrixCompMult@M$0A@Utmat2x2@glm@@@glm@@YA?AU?$tmat2x2@M$0A@@0@AEBU10@0@Z DD 021401H
	DD	070103214H
xdata	ENDS
;	COMDAT xdata
xdata	SEGMENT
$unwind$??$?0HHHH@?$tmat2x2@M$0A@@glm@@QEAA@AEBH000@Z DD 021901H
	DD	070155219H
xdata	ENDS
;	COMDAT xdata
xdata	SEGMENT
$unwind$??A?$tmat2x2@M$0A@@glm@@QEBAAEBU?$tvec2@M$0A@@1@H@Z DD 020e01H
	DD	0700a320eH
xdata	ENDS
;	COMDAT xdata
xdata	SEGMENT
$unwind$??A?$tmat2x2@M$0A@@glm@@QEAAAEAU?$tvec2@M$0A@@1@H@Z DD 020e01H
	DD	0700a320eH
xdata	ENDS
;	COMDAT xdata
xdata	SEGMENT
$unwind$?length@?$tmat2x2@M$0A@@glm@@SAHXZ DD 010201H
	DD	07002H
xdata	ENDS
;	COMDAT xdata
xdata	SEGMENT
$unwind$??0?$tmat2x2@M$0A@@glm@@QEAA@AEBU?$tvec2@M$0A@@1@0@Z DD 021401H
	DD	070103214H
xdata	ENDS
;	COMDAT xdata
xdata	SEGMENT
$unwind$??0?$tmat2x2@M$0A@@glm@@QEAA@AEBM000@Z DD 021901H
	DD	070155219H
xdata	ENDS
;	COMDAT xdata
xdata	SEGMENT
$unwind$??0?$tmat2x2@M$0A@@glm@@QEAA@M@Z DD 021001H
	DD	0700c5210H
xdata	ENDS
;	COMDAT xdata
xdata	SEGMENT
$unwind$??0?$tmat2x2@M$0A@@glm@@QEAA@W4ctor@1@@Z DD 020e01H
	DD	0700a320eH
xdata	ENDS
;	COMDAT xdata
xdata	SEGMENT
$unwind$??0?$tvec2@M$0A@@glm@@QEAA@MM@Z DD 011201H
	DD	07012H
xdata	ENDS
;	COMDAT xdata
xdata	SEGMENT
$unwind$??0?$tvec2@M$0A@@glm@@QEAA@M@Z DD 010c01H
	DD	0700cH
xdata	ENDS
;	COMDAT xdata
xdata	SEGMENT
$unwind$??0?$tvec2@M$0A@@glm@@QEAA@XZ DD 010601H
	DD	07006H
xdata	ENDS
;	COMDAT xdata
xdata	SEGMENT
$unwind$??A?$tvec2@M$0A@@glm@@QEBAAEBMH@Z DD 020e01H
	DD	0700a320eH
xdata	ENDS
;	COMDAT xdata
xdata	SEGMENT
$unwind$??A?$tvec2@M$0A@@glm@@QEAAAEAMH@Z DD 020e01H
	DD	0700a320eH
xdata	ENDS
;	COMDAT xdata
xdata	SEGMENT
$unwind$?length@?$tvec2@M$0A@@glm@@SAHXZ DD 010201H
	DD	07002H
xdata	ENDS
voltbl	SEGMENT
_volmd	DD	0ffffffffH
	DDSymXIndex: 	FLAT:?test_inverse_simd@@YAHXZ
	DD	024H
	DD	03c1H
_volmd	DD	0ffffffffH
	DDSymXIndex: 	FLAT:?test_inverse@@YAHXZ
	DD	024H
	DD	038aH
_volmd	DD	0ffffffffH
	DDSymXIndex: 	FLAT:?test_transpose@@YAHXZ
	DD	027H
	DD	0cc7H
_volmd	DD	0ffffffffH
	DDSymXIndex: 	FLAT:?test_outerProduct@@YAHXZ
	DD	024H
	DD	02f0H
_volmd	DD	0ffffffffH
	DDSymXIndex: 	FLAT:?test_matrixCompMult@@YAHXZ
	DD	027H
	DD	0d0fH
voltbl	ENDS
xdata	SEGMENT
$unwind$?test_matrixCompMult@@YAHXZ DD 032f19H
	DD	0f40109H
	DD	07002H
	DD	imagerel __GSHandlerCheck
	DD	0798H
$unwind$?test_outerProduct@@YAHXZ DD 032c19H
	DD	0740109H
	DD	07002H
	DD	imagerel __GSHandlerCheck
	DD	0390H
$unwind$?test_transpose@@YAHXZ DD 032f19H
	DD	0f40109H
	DD	07002H
	DD	imagerel __GSHandlerCheck
	DD	0798H
$unwind$?test_determinant@@YAHXZ DD 010201H
	DD	07002H
$unwind$?test_inverse@@YAHXZ DD 032c19H
	DD	07e0109H
	DD	07002H
	DD	imagerel __GSHandlerCheck
	DD	03e0H
$unwind$?test_inverse_simd@@YAHXZ DD 032c19H
	DD	0520109H
	DD	07002H
	DD	imagerel __GSHandlerCheck
	DD	0280H
$unwind$main DD	020601H
	DD	070025206H
xdata	ENDS
CONST	SEGMENT
?test_matrixCompMult@@YAHXZ$rtcName$0 DB 06dH		; test_matrixCompMult
	DB	00H
	ORG $+2
?test_matrixCompMult@@YAHXZ$rtcName$1 DB 06eH		; test_matrixCompMult
	DB	00H
	ORG $+2
?test_matrixCompMult@@YAHXZ$rtcName$2 DB 06dH		; test_matrixCompMult
	DB	00H
	ORG $+2
?test_matrixCompMult@@YAHXZ$rtcName$3 DB 06eH		; test_matrixCompMult
	DB	00H
	ORG $+2
?test_matrixCompMult@@YAHXZ$rtcName$4 DB 06dH		; test_matrixCompMult
	DB	00H
	ORG $+2
?test_matrixCompMult@@YAHXZ$rtcName$5 DB 06eH		; test_matrixCompMult
	DB	00H
	ORG $+2
?test_matrixCompMult@@YAHXZ$rtcName$6 DB 06dH		; test_matrixCompMult
	DB	00H
	ORG $+2
?test_matrixCompMult@@YAHXZ$rtcName$7 DB 06eH		; test_matrixCompMult
	DB	00H
	ORG $+2
?test_matrixCompMult@@YAHXZ$rtcName$8 DB 06dH		; test_matrixCompMult
	DB	00H
	ORG $+2
?test_matrixCompMult@@YAHXZ$rtcName$9 DB 06eH		; test_matrixCompMult
	DB	00H
	ORG $+2
?test_matrixCompMult@@YAHXZ$rtcName$10 DB 06dH		; test_matrixCompMult
	DB	00H
	ORG $+2
?test_matrixCompMult@@YAHXZ$rtcName$11 DB 06eH		; test_matrixCompMult
	DB	00H
	ORG $+2
?test_matrixCompMult@@YAHXZ$rtcName$12 DB 06dH		; test_matrixCompMult
	DB	00H
	ORG $+2
?test_matrixCompMult@@YAHXZ$rtcName$13 DB 06eH		; test_matrixCompMult
	DB	00H
	ORG $+2
?test_matrixCompMult@@YAHXZ$rtcName$14 DB 06dH		; test_matrixCompMult
	DB	00H
	ORG $+2
?test_matrixCompMult@@YAHXZ$rtcName$15 DB 06eH		; test_matrixCompMult
	DB	00H
	ORG $+2
?test_matrixCompMult@@YAHXZ$rtcName$16 DB 06dH		; test_matrixCompMult
	DB	00H
	ORG $+2
?test_matrixCompMult@@YAHXZ$rtcName$17 DB 06eH		; test_matrixCompMult
	DB	00H
	ORG $+2
?test_matrixCompMult@@YAHXZ$rtcFrameData DD 012H	; test_matrixCompMult
	DD	00H
	DQ	FLAT:?test_matrixCompMult@@YAHXZ$rtcVarDesc
?test_outerProduct@@YAHXZ$rtcName$0 DB 06dH		; test_outerProduct
	DB	00H
	ORG $+6
?test_matrixCompMult@@YAHXZ$rtcVarDesc DD 05f8H		; test_matrixCompMult
	DD	030H
	DQ	FLAT:?test_matrixCompMult@@YAHXZ$rtcName$17
	DD	05a8H
	DD	030H
	DQ	FLAT:?test_matrixCompMult@@YAHXZ$rtcName$16
	DD	0548H
	DD	020H
	DQ	FLAT:?test_matrixCompMult@@YAHXZ$rtcName$15
	DD	0508H
	DD	020H
	DQ	FLAT:?test_matrixCompMult@@YAHXZ$rtcName$14
	DD	0470H
	DD	040H
	DQ	FLAT:?test_matrixCompMult@@YAHXZ$rtcName$13
	DD	0410H
	DD	040H
	DQ	FLAT:?test_matrixCompMult@@YAHXZ$rtcName$12
	DD	0388H
	DD	030H
	DQ	FLAT:?test_matrixCompMult@@YAHXZ$rtcName$11
	DD	0338H
	DD	030H
	DQ	FLAT:?test_matrixCompMult@@YAHXZ$rtcName$10
	DD	02f8H
	DD	018H
	DQ	FLAT:?test_matrixCompMult@@YAHXZ$rtcName$9
	DD	02c8H
	DD	018H
	DQ	FLAT:?test_matrixCompMult@@YAHXZ$rtcName$8
	DD	0268H
	DD	024H
	DQ	FLAT:?test_matrixCompMult@@YAHXZ$rtcName$7
	DD	0228H
	DD	024H
	DQ	FLAT:?test_matrixCompMult@@YAHXZ$rtcName$6
	DD	01c8H
	DD	020H
	DQ	FLAT:?test_matrixCompMult@@YAHXZ$rtcName$5
	DD	0188H
	DD	020H
	DQ	FLAT:?test_matrixCompMult@@YAHXZ$rtcName$4
	DD	0148H
	DD	018H
	DQ	FLAT:?test_matrixCompMult@@YAHXZ$rtcName$3
	DD	0118H
	DD	018H
	DQ	FLAT:?test_matrixCompMult@@YAHXZ$rtcName$2
	DD	0d8H
	DD	010H
	DQ	FLAT:?test_matrixCompMult@@YAHXZ$rtcName$1
	DD	0a8H
	DD	010H
	DQ	FLAT:?test_matrixCompMult@@YAHXZ$rtcName$0
	ORG $+864
?test_outerProduct@@YAHXZ$rtcName$1 DB 06dH		; test_outerProduct
	DB	00H
	ORG $+2
?test_outerProduct@@YAHXZ$rtcName$2 DB 06dH		; test_outerProduct
	DB	00H
	ORG $+2
?test_outerProduct@@YAHXZ$rtcName$3 DB 06dH		; test_outerProduct
	DB	00H
	ORG $+2
?test_outerProduct@@YAHXZ$rtcName$4 DB 06dH		; test_outerProduct
	DB	00H
	ORG $+2
?test_outerProduct@@YAHXZ$rtcName$5 DB 06dH		; test_outerProduct
	DB	00H
	ORG $+2
?test_outerProduct@@YAHXZ$rtcName$6 DB 06dH		; test_outerProduct
	DB	00H
	ORG $+2
?test_outerProduct@@YAHXZ$rtcName$7 DB 06dH		; test_outerProduct
	DB	00H
	ORG $+2
?test_outerProduct@@YAHXZ$rtcName$8 DB 06dH		; test_outerProduct
	DB	00H
	ORG $+2
?test_outerProduct@@YAHXZ$rtcVarDesc DD 0228H		; test_outerProduct
	DD	030H
	DQ	FLAT:?test_outerProduct@@YAHXZ$rtcName$8
	DD	01e8H
	DD	020H
	DQ	FLAT:?test_outerProduct@@YAHXZ$rtcName$7
	DD	0198H
	DD	030H
	DQ	FLAT:?test_outerProduct@@YAHXZ$rtcName$6
	DD	0168H
	DD	018H
	DQ	FLAT:?test_outerProduct@@YAHXZ$rtcName$5
	DD	0128H
	DD	020H
	DQ	FLAT:?test_outerProduct@@YAHXZ$rtcName$4
	DD	0f8H
	DD	018H
	DQ	FLAT:?test_outerProduct@@YAHXZ$rtcName$3
	DD	0a0H
	DD	040H
	DQ	FLAT:?test_outerProduct@@YAHXZ$rtcName$2
	DD	058H
	DD	024H
	DQ	FLAT:?test_outerProduct@@YAHXZ$rtcName$1
	DD	028H
	DD	010H
	DQ	FLAT:?test_outerProduct@@YAHXZ$rtcName$0
	ORG $+432
?test_outerProduct@@YAHXZ$rtcFrameData DD 09H		; test_outerProduct
	DD	00H
	DQ	FLAT:?test_outerProduct@@YAHXZ$rtcVarDesc
?test_transpose@@YAHXZ$rtcName$0 DB 06dH		; test_transpose
	DB	00H
	ORG $+2
?test_transpose@@YAHXZ$rtcName$1 DB 074H		; test_transpose
	DB	00H
	ORG $+2
?test_transpose@@YAHXZ$rtcName$2 DB 06dH		; test_transpose
	DB	00H
	ORG $+2
?test_transpose@@YAHXZ$rtcName$3 DB 074H		; test_transpose
	DB	00H
	ORG $+2
?test_transpose@@YAHXZ$rtcName$4 DB 06dH		; test_transpose
	DB	00H
	ORG $+2
?test_transpose@@YAHXZ$rtcName$5 DB 074H		; test_transpose
	DB	00H
	ORG $+2
?test_transpose@@YAHXZ$rtcName$6 DB 06dH		; test_transpose
	DB	00H
	ORG $+2
?test_transpose@@YAHXZ$rtcName$7 DB 074H		; test_transpose
	DB	00H
	ORG $+2
?test_transpose@@YAHXZ$rtcName$8 DB 06dH		; test_transpose
	DB	00H
	ORG $+2
?test_transpose@@YAHXZ$rtcName$9 DB 074H		; test_transpose
	DB	00H
	ORG $+2
?test_transpose@@YAHXZ$rtcName$10 DB 06dH		; test_transpose
	DB	00H
	ORG $+2
?test_transpose@@YAHXZ$rtcName$11 DB 074H		; test_transpose
	DB	00H
	ORG $+2
?test_transpose@@YAHXZ$rtcName$12 DB 06dH		; test_transpose
	DB	00H
	ORG $+2
?test_transpose@@YAHXZ$rtcName$13 DB 074H		; test_transpose
	DB	00H
	ORG $+2
?test_transpose@@YAHXZ$rtcName$14 DB 06dH		; test_transpose
	DB	00H
	ORG $+2
?test_transpose@@YAHXZ$rtcName$15 DB 074H		; test_transpose
	DB	00H
	ORG $+2
?test_transpose@@YAHXZ$rtcName$16 DB 06dH		; test_transpose
	DB	00H
	ORG $+2
?test_transpose@@YAHXZ$rtcName$17 DB 074H		; test_transpose
	DB	00H
	ORG $+2
?test_transpose@@YAHXZ$rtcFrameData DD 012H		; test_transpose
	DD	00H
	DQ	FLAT:?test_transpose@@YAHXZ$rtcVarDesc
?test_inverse@@YAHXZ$rtcName$0 DB 041H			; test_inverse
	DB	034H
	DB	078H
	DB	034H
	DB	00H
	ORG $+3
?test_transpose@@YAHXZ$rtcVarDesc DD 05f8H		; test_transpose
	DD	030H
	DQ	FLAT:?test_transpose@@YAHXZ$rtcName$17
	DD	05a8H
	DD	030H
	DQ	FLAT:?test_transpose@@YAHXZ$rtcName$16
	DD	0548H
	DD	020H
	DQ	FLAT:?test_transpose@@YAHXZ$rtcName$15
	DD	0508H
	DD	020H
	DQ	FLAT:?test_transpose@@YAHXZ$rtcName$14
	DD	0470H
	DD	040H
	DQ	FLAT:?test_transpose@@YAHXZ$rtcName$13
	DD	0410H
	DD	040H
	DQ	FLAT:?test_transpose@@YAHXZ$rtcName$12
	DD	0388H
	DD	030H
	DQ	FLAT:?test_transpose@@YAHXZ$rtcName$11
	DD	0338H
	DD	030H
	DQ	FLAT:?test_transpose@@YAHXZ$rtcName$10
	DD	02f8H
	DD	018H
	DQ	FLAT:?test_transpose@@YAHXZ$rtcName$9
	DD	02c8H
	DD	018H
	DQ	FLAT:?test_transpose@@YAHXZ$rtcName$8
	DD	0268H
	DD	024H
	DQ	FLAT:?test_transpose@@YAHXZ$rtcName$7
	DD	0228H
	DD	024H
	DQ	FLAT:?test_transpose@@YAHXZ$rtcName$6
	DD	01c8H
	DD	020H
	DQ	FLAT:?test_transpose@@YAHXZ$rtcName$5
	DD	0188H
	DD	020H
	DQ	FLAT:?test_transpose@@YAHXZ$rtcName$4
	DD	0148H
	DD	018H
	DQ	FLAT:?test_transpose@@YAHXZ$rtcName$3
	DD	0118H
	DD	018H
	DQ	FLAT:?test_transpose@@YAHXZ$rtcName$2
	DD	0d8H
	DD	010H
	DQ	FLAT:?test_transpose@@YAHXZ$rtcName$1
	DD	0a8H
	DD	010H
	DQ	FLAT:?test_transpose@@YAHXZ$rtcName$0
	ORG $+864
?test_inverse@@YAHXZ$rtcName$1 DB 042H			; test_inverse
	DB	034H
	DB	078H
	DB	034H
	DB	00H
	ORG $+3
?test_inverse@@YAHXZ$rtcName$2 DB 049H			; test_inverse
	DB	034H
	DB	078H
	DB	034H
	DB	00H
	ORG $+3
?test_inverse@@YAHXZ$rtcName$3 DB 041H			; test_inverse
	DB	033H
	DB	078H
	DB	033H
	DB	00H
	ORG $+3
?test_inverse@@YAHXZ$rtcName$4 DB 042H			; test_inverse
	DB	033H
	DB	078H
	DB	033H
	DB	00H
	ORG $+3
?test_inverse@@YAHXZ$rtcName$5 DB 049H			; test_inverse
	DB	033H
	DB	078H
	DB	033H
	DB	00H
	ORG $+3
?test_inverse@@YAHXZ$rtcName$6 DB 041H			; test_inverse
	DB	032H
	DB	078H
	DB	032H
	DB	00H
	ORG $+3
?test_inverse@@YAHXZ$rtcName$7 DB 042H			; test_inverse
	DB	032H
	DB	078H
	DB	032H
	DB	00H
	ORG $+3
?test_inverse@@YAHXZ$rtcName$8 DB 049H			; test_inverse
	DB	032H
	DB	078H
	DB	032H
	DB	00H
	ORG $+3
?test_inverse@@YAHXZ$rtcVarDesc DD 02e8H		; test_inverse
	DD	010H
	DQ	FLAT:?test_inverse@@YAHXZ$rtcName$8
	DD	02b8H
	DD	010H
	DQ	FLAT:?test_inverse@@YAHXZ$rtcName$7
	DD	0288H
	DD	010H
	DQ	FLAT:?test_inverse@@YAHXZ$rtcName$6
	DD	0228H
	DD	024H
	DQ	FLAT:?test_inverse@@YAHXZ$rtcName$5
	DD	01e8H
	DD	024H
	DQ	FLAT:?test_inverse@@YAHXZ$rtcName$4
	DD	01a8H
	DD	024H
	DQ	FLAT:?test_inverse@@YAHXZ$rtcName$3
	DD	0110H
	DD	040H
	DQ	FLAT:?test_inverse@@YAHXZ$rtcName$2
	DD	0b0H
	DD	040H
	DQ	FLAT:?test_inverse@@YAHXZ$rtcName$1
	DD	050H
	DD	040H
	DQ	FLAT:?test_inverse@@YAHXZ$rtcName$0
	ORG $+432
?test_inverse@@YAHXZ$rtcFrameData DD 09H		; test_inverse
	DD	00H
	DQ	FLAT:?test_inverse@@YAHXZ$rtcVarDesc
?test_inverse_simd@@YAHXZ$rtcName$0 DB 049H		; test_inverse_simd
	DB	064H
	DB	065H
	DB	06eH
	DB	074H
	DB	069H
	DB	074H
	DB	079H
	DB	00H
	ORG $+3
?test_inverse_simd@@YAHXZ$rtcName$1 DB 041H		; test_inverse_simd
	DB	034H
	DB	078H
	DB	034H
	DB	00H
	ORG $+3
?test_inverse_simd@@YAHXZ$rtcName$2 DB 042H		; test_inverse_simd
	DB	034H
	DB	078H
	DB	034H
	DB	00H
	ORG $+3
?test_inverse_simd@@YAHXZ$rtcName$3 DB 049H		; test_inverse_simd
	DB	034H
	DB	078H
	DB	034H
	DB	00H
	ORG $+7
?test_inverse_simd@@YAHXZ$rtcFrameData DD 04H		; test_inverse_simd
	DD	00H
	DQ	FLAT:?test_inverse_simd@@YAHXZ$rtcVarDesc
	ORG $+8
?test_inverse_simd@@YAHXZ$rtcVarDesc DD 0170H		; test_inverse_simd
	DD	040H
	DQ	FLAT:?test_inverse_simd@@YAHXZ$rtcName$3
	DD	0110H
	DD	040H
	DQ	FLAT:?test_inverse_simd@@YAHXZ$rtcName$2
	DD	0b0H
	DD	040H
	DQ	FLAT:?test_inverse_simd@@YAHXZ$rtcName$1
	DD	050H
	DD	040H
	DQ	FLAT:?test_inverse_simd@@YAHXZ$rtcName$0
CONST	ENDS
;	COMDAT xdata
xdata	SEGMENT
$unwind$??$abs@M@glm@@YAMM@Z DD 020b01H
	DD	07007520bH
xdata	ENDS
;	COMDAT xdata
xdata	SEGMENT
$unwind$??_H@YAXPEAX_K1P6APEAX0@Z@Z DD 021901H
	DD	070155219H
xdata	ENDS
; Function compile flags: /Odtp /RTCsu
; File C:\Users\ksart\OneDrive\Desktop\FlappyBird\libraries\external\glm\glm\detail\type_vec4.inl
;	COMDAT ?call@?$compute_vec4_sub@M$0A@$0A@@detail@glm@@SA?AU?$tvec4@M$0A@@3@AEBU43@0@Z
_TEXT	SEGMENT
tv80 = 48
__$ReturnUdt$ = 80
a$ = 88
b$ = 96
?call@?$compute_vec4_sub@M$0A@$0A@@detail@glm@@SA?AU?$tvec4@M$0A@@3@AEBU43@0@Z PROC ; glm::detail::compute_vec4_sub<float,0,0>::call, COMDAT

; 50   : 		{

$LN3:
	mov	QWORD PTR [rsp+24], r8
	mov	QWORD PTR [rsp+16], rdx
	mov	QWORD PTR [rsp+8], rcx
	push	rdi
	sub	rsp, 64					; 00000040H

; 51   : 			return tvec4<T, P>(a.x - b.x, a.y - b.y, a.z - b.z, a.w - b.w);

	mov	rax, QWORD PTR a$[rsp]
	mov	rcx, QWORD PTR b$[rsp]
	movss	xmm0, DWORD PTR [rax+12]
	subss	xmm0, DWORD PTR [rcx+12]
	mov	rax, QWORD PTR a$[rsp]
	mov	rcx, QWORD PTR b$[rsp]
	movss	xmm1, DWORD PTR [rax+8]
	subss	xmm1, DWORD PTR [rcx+8]
	mov	rax, QWORD PTR a$[rsp]
	mov	rcx, QWORD PTR b$[rsp]
	movss	xmm2, DWORD PTR [rax+4]
	subss	xmm2, DWORD PTR [rcx+4]
	mov	rax, QWORD PTR a$[rsp]
	mov	rcx, QWORD PTR b$[rsp]
	movss	xmm3, DWORD PTR [rax]
	subss	xmm3, DWORD PTR [rcx]
	movss	DWORD PTR tv80[rsp], xmm3
	movss	DWORD PTR [rsp+32], xmm0
	movaps	xmm3, xmm1
	movss	xmm0, DWORD PTR tv80[rsp]
	movaps	xmm1, xmm0
	mov	rcx, QWORD PTR __$ReturnUdt$[rsp]
	call	??0?$tvec4@M$0A@@glm@@QEAA@MMMM@Z	; glm::tvec4<float,0>::tvec4<float,0>
	mov	rax, QWORD PTR __$ReturnUdt$[rsp]

; 52   : 		}

	add	rsp, 64					; 00000040H
	pop	rdi
	ret	0
?call@?$compute_vec4_sub@M$0A@$0A@@detail@glm@@SA?AU?$tvec4@M$0A@@3@AEBU43@0@Z ENDP ; glm::detail::compute_vec4_sub<float,0,0>::call
_TEXT	ENDS
; Function compile flags: /Odtp /RTCsu
; File C:\Users\ksart\OneDrive\Desktop\FlappyBird\libraries\external\glm\glm\detail\type_vec4.inl
;	COMDAT ?call@?$compute_vec4_add@M$0A@$0A@@detail@glm@@SA?AU?$tvec4@M$0A@@3@AEBU43@0@Z
_TEXT	SEGMENT
tv80 = 48
__$ReturnUdt$ = 80
a$ = 88
b$ = 96
?call@?$compute_vec4_add@M$0A@$0A@@detail@glm@@SA?AU?$tvec4@M$0A@@3@AEBU43@0@Z PROC ; glm::detail::compute_vec4_add<float,0,0>::call, COMDAT

; 41   : 		{

$LN3:
	mov	QWORD PTR [rsp+24], r8
	mov	QWORD PTR [rsp+16], rdx
	mov	QWORD PTR [rsp+8], rcx
	push	rdi
	sub	rsp, 64					; 00000040H

; 42   : 			return tvec4<T, P>(a.x + b.x, a.y + b.y, a.z + b.z, a.w + b.w);

	mov	rax, QWORD PTR a$[rsp]
	mov	rcx, QWORD PTR b$[rsp]
	movss	xmm0, DWORD PTR [rax+12]
	addss	xmm0, DWORD PTR [rcx+12]
	mov	rax, QWORD PTR a$[rsp]
	mov	rcx, QWORD PTR b$[rsp]
	movss	xmm1, DWORD PTR [rax+8]
	addss	xmm1, DWORD PTR [rcx+8]
	mov	rax, QWORD PTR a$[rsp]
	mov	rcx, QWORD PTR b$[rsp]
	movss	xmm2, DWORD PTR [rax+4]
	addss	xmm2, DWORD PTR [rcx+4]
	mov	rax, QWORD PTR a$[rsp]
	mov	rcx, QWORD PTR b$[rsp]
	movss	xmm3, DWORD PTR [rax]
	addss	xmm3, DWORD PTR [rcx]
	movss	DWORD PTR tv80[rsp], xmm3
	movss	DWORD PTR [rsp+32], xmm0
	movaps	xmm3, xmm1
	movss	xmm0, DWORD PTR tv80[rsp]
	movaps	xmm1, xmm0
	mov	rcx, QWORD PTR __$ReturnUdt$[rsp]
	call	??0?$tvec4@M$0A@@glm@@QEAA@MMMM@Z	; glm::tvec4<float,0>::tvec4<float,0>
	mov	rax, QWORD PTR __$ReturnUdt$[rsp]

; 43   : 		}

	add	rsp, 64					; 00000040H
	pop	rdi
	ret	0
?call@?$compute_vec4_add@M$0A@$0A@@detail@glm@@SA?AU?$tvec4@M$0A@@3@AEBU43@0@Z ENDP ; glm::detail::compute_vec4_add<float,0,0>::call
_TEXT	ENDS
; Function compile flags: /Odtp /RTCsu
; File C:\Users\ksart\OneDrive\Desktop\FlappyBird\libraries\external\glm\glm\detail\type_vec4.inl
;	COMDAT ?call@?$compute_vec4_mul@M$0A@$0A@@detail@glm@@SA?AU?$tvec4@M$0A@@3@AEBU43@0@Z
_TEXT	SEGMENT
tv80 = 48
__$ReturnUdt$ = 80
a$ = 88
b$ = 96
?call@?$compute_vec4_mul@M$0A@$0A@@detail@glm@@SA?AU?$tvec4@M$0A@@3@AEBU43@0@Z PROC ; glm::detail::compute_vec4_mul<float,0,0>::call, COMDAT

; 59   : 		{

$LN3:
	mov	QWORD PTR [rsp+24], r8
	mov	QWORD PTR [rsp+16], rdx
	mov	QWORD PTR [rsp+8], rcx
	push	rdi
	sub	rsp, 64					; 00000040H

; 60   : 			return tvec4<T, P>(a.x * b.x, a.y * b.y, a.z * b.z, a.w * b.w);

	mov	rax, QWORD PTR a$[rsp]
	mov	rcx, QWORD PTR b$[rsp]
	movss	xmm0, DWORD PTR [rax+12]
	mulss	xmm0, DWORD PTR [rcx+12]
	mov	rax, QWORD PTR a$[rsp]
	mov	rcx, QWORD PTR b$[rsp]
	movss	xmm1, DWORD PTR [rax+8]
	mulss	xmm1, DWORD PTR [rcx+8]
	mov	rax, QWORD PTR a$[rsp]
	mov	rcx, QWORD PTR b$[rsp]
	movss	xmm2, DWORD PTR [rax+4]
	mulss	xmm2, DWORD PTR [rcx+4]
	mov	rax, QWORD PTR a$[rsp]
	mov	rcx, QWORD PTR b$[rsp]
	movss	xmm3, DWORD PTR [rax]
	mulss	xmm3, DWORD PTR [rcx]
	movss	DWORD PTR tv80[rsp], xmm3
	movss	DWORD PTR [rsp+32], xmm0
	movaps	xmm3, xmm1
	movss	xmm0, DWORD PTR tv80[rsp]
	movaps	xmm1, xmm0
	mov	rcx, QWORD PTR __$ReturnUdt$[rsp]
	call	??0?$tvec4@M$0A@@glm@@QEAA@MMMM@Z	; glm::tvec4<float,0>::tvec4<float,0>
	mov	rax, QWORD PTR __$ReturnUdt$[rsp]

; 61   : 		}

	add	rsp, 64					; 00000040H
	pop	rdi
	ret	0
?call@?$compute_vec4_mul@M$0A@$0A@@detail@glm@@SA?AU?$tvec4@M$0A@@3@AEBU43@0@Z ENDP ; glm::detail::compute_vec4_mul<float,0,0>::call
_TEXT	ENDS
; Function compile flags: /Odtp /RTCsu
; File C:\Users\ksart\OneDrive\Desktop\FlappyBird\libraries\external\glm\glm\detail\_vectorize.hpp
;	COMDAT ?call@?$functor1@MM$0A@Utvec4@glm@@@detail@glm@@SA?AU?$tvec4@M$0A@@3@P6AMM@ZAEBU43@@Z
_TEXT	SEGMENT
tv66 = 48
tv70 = 52
tv74 = 56
__$ReturnUdt$ = 80
Func$ = 88
v$ = 96
?call@?$functor1@MM$0A@Utvec4@glm@@@detail@glm@@SA?AU?$tvec4@M$0A@@3@P6AMM@ZAEBU43@@Z PROC ; glm::detail::functor1<float,float,0,glm::tvec4>::call, COMDAT

; 48   : 		{

$LN3:
	mov	QWORD PTR [rsp+24], r8
	mov	QWORD PTR [rsp+16], rdx
	mov	QWORD PTR [rsp+8], rcx
	push	rdi
	sub	rsp, 64					; 00000040H

; 49   : 			return tvec4<R, P>(Func(v.x), Func(v.y), Func(v.z), Func(v.w));

	mov	rax, QWORD PTR v$[rsp]
	movss	xmm0, DWORD PTR [rax+12]
	call	QWORD PTR Func$[rsp]
	movss	DWORD PTR tv66[rsp], xmm0
	mov	rax, QWORD PTR v$[rsp]
	movss	xmm0, DWORD PTR [rax+8]
	call	QWORD PTR Func$[rsp]
	movss	DWORD PTR tv70[rsp], xmm0
	mov	rax, QWORD PTR v$[rsp]
	movss	xmm0, DWORD PTR [rax+4]
	call	QWORD PTR Func$[rsp]
	movss	DWORD PTR tv74[rsp], xmm0
	mov	rax, QWORD PTR v$[rsp]
	movss	xmm0, DWORD PTR [rax]
	call	QWORD PTR Func$[rsp]
	movss	xmm1, DWORD PTR tv66[rsp]
	movss	DWORD PTR [rsp+32], xmm1
	movss	xmm1, DWORD PTR tv70[rsp]
	movaps	xmm3, xmm1
	movss	xmm1, DWORD PTR tv74[rsp]
	movaps	xmm2, xmm1
	movaps	xmm1, xmm0
	mov	rcx, QWORD PTR __$ReturnUdt$[rsp]
	call	??0?$tvec4@M$0A@@glm@@QEAA@MMMM@Z	; glm::tvec4<float,0>::tvec4<float,0>
	mov	rax, QWORD PTR __$ReturnUdt$[rsp]

; 50   : 		}

	add	rsp, 64					; 00000040H
	pop	rdi
	ret	0
?call@?$functor1@MM$0A@Utvec4@glm@@@detail@glm@@SA?AU?$tvec4@M$0A@@3@P6AMM@ZAEBU43@@Z ENDP ; glm::detail::functor1<float,float,0,glm::tvec4>::call
_TEXT	ENDS
; Function compile flags: /Odtp /RTCsu
; File C:\Users\ksart\OneDrive\Desktop\FlappyBird\libraries\external\glm\glm\detail\type_vec4.inl
;	COMDAT ??$?XM@?$tvec4@M$0A@@glm@@QEAAAEAU01@AEBU01@@Z
_TEXT	SEGMENT
$T1 = 32
$T2 = 48
this$ = 96
v$ = 104
??$?XM@?$tvec4@M$0A@@glm@@QEAAAEAU01@AEBU01@@Z PROC	; glm::tvec4<float,0>::operator*=<float>, COMDAT

; 425  : 	{

$LN3:
	mov	QWORD PTR [rsp+16], rdx
	mov	QWORD PTR [rsp+8], rcx
	push	rsi
	push	rdi
	sub	rsp, 72					; 00000048H

; 426  : 		return (*this = detail::compute_vec4_mul<T, P, detail::is_aligned<P>::value>::call(*this, tvec4<T, P>(v)));

	lea	rax, QWORD PTR $T1[rsp]
	mov	rdi, rax
	mov	rsi, QWORD PTR v$[rsp]
	mov	ecx, 16
	rep movsb
	lea	r8, QWORD PTR $T1[rsp]
	mov	rdx, QWORD PTR this$[rsp]
	lea	rcx, QWORD PTR $T2[rsp]
	call	?call@?$compute_vec4_mul@M$0A@$0A@@detail@glm@@SA?AU?$tvec4@M$0A@@3@AEBU43@0@Z ; glm::detail::compute_vec4_mul<float,0,0>::call
	mov	rdi, QWORD PTR this$[rsp]
	mov	rsi, rax
	mov	ecx, 16
	rep movsb
	mov	rax, QWORD PTR this$[rsp]

; 427  : 	}

	add	rsp, 72					; 00000048H
	pop	rdi
	pop	rsi
	ret	0
??$?XM@?$tvec4@M$0A@@glm@@QEAAAEAU01@AEBU01@@Z ENDP	; glm::tvec4<float,0>::operator*=<float>
_TEXT	ENDS
; Function compile flags: /Odtp /RTCsu
; File C:\Users\ksart\OneDrive\Desktop\FlappyBird\libraries\external\glm\glm\detail\func_common.inl
;	COMDAT ?call@?$compute_abs_vector@M$0A@Utvec4@glm@@$0A@@detail@glm@@SA?AU?$tvec4@M$0A@@3@AEBU43@@Z
_TEXT	SEGMENT
__$ReturnUdt$ = 48
x$ = 56
?call@?$compute_abs_vector@M$0A@Utvec4@glm@@$0A@@detail@glm@@SA?AU?$tvec4@M$0A@@3@AEBU43@@Z PROC ; glm::detail::compute_abs_vector<float,0,glm::tvec4,0>::call, COMDAT

; 114  : 		{

$LN3:
	mov	QWORD PTR [rsp+16], rdx
	mov	QWORD PTR [rsp+8], rcx
	push	rdi
	sub	rsp, 32					; 00000020H

; 115  : 			return detail::functor1<T, T, P, vecType>::call(abs, x);

	mov	r8, QWORD PTR x$[rsp]
	lea	rdx, OFFSET FLAT:??$abs@M@glm@@YAMM@Z	; glm::abs<float>
	mov	rcx, QWORD PTR __$ReturnUdt$[rsp]
	call	?call@?$functor1@MM$0A@Utvec4@glm@@@detail@glm@@SA?AU?$tvec4@M$0A@@3@P6AMM@ZAEBU43@@Z ; glm::detail::functor1<float,float,0,glm::tvec4>::call
	mov	rax, QWORD PTR __$ReturnUdt$[rsp]

; 116  : 		}

	add	rsp, 32					; 00000020H
	pop	rdi
	ret	0
?call@?$compute_abs_vector@M$0A@Utvec4@glm@@$0A@@detail@glm@@SA?AU?$tvec4@M$0A@@3@AEBU43@@Z ENDP ; glm::detail::compute_abs_vector<float,0,glm::tvec4,0>::call
_TEXT	ENDS
; Function compile flags: /Odtp /RTCsu
; File C:\Users\ksart\OneDrive\Desktop\FlappyBird\libraries\external\glm\glm\detail\type_vec4.inl
;	COMDAT ??$?ZM@?$tvec4@M$0A@@glm@@QEAAAEAU01@AEBU01@@Z
_TEXT	SEGMENT
$T1 = 32
$T2 = 48
this$ = 96
v$ = 104
??$?ZM@?$tvec4@M$0A@@glm@@QEAAAEAU01@AEBU01@@Z PROC	; glm::tvec4<float,0>::operator-=<float>, COMDAT

; 404  : 	{

$LN3:
	mov	QWORD PTR [rsp+16], rdx
	mov	QWORD PTR [rsp+8], rcx
	push	rsi
	push	rdi
	sub	rsp, 72					; 00000048H

; 405  : 		return (*this = detail::compute_vec4_sub<T, P, detail::is_aligned<P>::value>::call(*this, tvec4<T, P>(v)));

	lea	rax, QWORD PTR $T1[rsp]
	mov	rdi, rax
	mov	rsi, QWORD PTR v$[rsp]
	mov	ecx, 16
	rep movsb
	lea	r8, QWORD PTR $T1[rsp]
	mov	rdx, QWORD PTR this$[rsp]
	lea	rcx, QWORD PTR $T2[rsp]
	call	?call@?$compute_vec4_sub@M$0A@$0A@@detail@glm@@SA?AU?$tvec4@M$0A@@3@AEBU43@0@Z ; glm::detail::compute_vec4_sub<float,0,0>::call
	mov	rdi, QWORD PTR this$[rsp]
	mov	rsi, rax
	mov	ecx, 16
	rep movsb
	mov	rax, QWORD PTR this$[rsp]

; 406  : 	}

	add	rsp, 72					; 00000048H
	pop	rdi
	pop	rsi
	ret	0
??$?ZM@?$tvec4@M$0A@@glm@@QEAAAEAU01@AEBU01@@Z ENDP	; glm::tvec4<float,0>::operator-=<float>
_TEXT	ENDS
; Function compile flags: /Odtp /RTCsu
; File C:\Users\ksart\OneDrive\Desktop\FlappyBird\libraries\external\glm\glm\detail\type_vec4.inl
;	COMDAT ??$?YM@?$tvec4@M$0A@@glm@@QEAAAEAU01@AEBU01@@Z
_TEXT	SEGMENT
$T1 = 32
$T2 = 48
this$ = 96
v$ = 104
??$?YM@?$tvec4@M$0A@@glm@@QEAAAEAU01@AEBU01@@Z PROC	; glm::tvec4<float,0>::operator+=<float>, COMDAT

; 383  : 	{

$LN3:
	mov	QWORD PTR [rsp+16], rdx
	mov	QWORD PTR [rsp+8], rcx
	push	rsi
	push	rdi
	sub	rsp, 72					; 00000048H

; 384  : 		return (*this = detail::compute_vec4_add<T, P, detail::is_aligned<P>::value>::call(*this, tvec4<T, P>(v)));

	lea	rax, QWORD PTR $T1[rsp]
	mov	rdi, rax
	mov	rsi, QWORD PTR v$[rsp]
	mov	ecx, 16
	rep movsb
	lea	r8, QWORD PTR $T1[rsp]
	mov	rdx, QWORD PTR this$[rsp]
	lea	rcx, QWORD PTR $T2[rsp]
	call	?call@?$compute_vec4_add@M$0A@$0A@@detail@glm@@SA?AU?$tvec4@M$0A@@3@AEBU43@0@Z ; glm::detail::compute_vec4_add<float,0,0>::call
	mov	rdi, QWORD PTR this$[rsp]
	mov	rsi, rax
	mov	ecx, 16
	rep movsb
	mov	rax, QWORD PTR this$[rsp]

; 385  : 	}

	add	rsp, 72					; 00000048H
	pop	rdi
	pop	rsi
	ret	0
??$?YM@?$tvec4@M$0A@@glm@@QEAAAEAU01@AEBU01@@Z ENDP	; glm::tvec4<float,0>::operator+=<float>
_TEXT	ENDS
; Function compile flags: /Odtp /RTCsu
; File C:\Users\ksart\OneDrive\Desktop\FlappyBird\libraries\external\glm\glm\detail\type_vec4.inl
;	COMDAT ??$?XM@?$tvec4@M$0A@@glm@@QEAAAEAU01@M@Z
_TEXT	SEGMENT
$T1 = 32
$T2 = 48
this$ = 96
scalar$ = 104
??$?XM@?$tvec4@M$0A@@glm@@QEAAAEAU01@M@Z PROC		; glm::tvec4<float,0>::operator*=<float>, COMDAT

; 411  : 	{

$LN3:
	movss	DWORD PTR [rsp+16], xmm1
	mov	QWORD PTR [rsp+8], rcx
	push	rsi
	push	rdi
	sub	rsp, 72					; 00000048H

; 412  : 		return (*this = detail::compute_vec4_mul<T, P, detail::is_aligned<P>::value>::call(*this, tvec4<T, P>(scalar)));

	movss	xmm1, DWORD PTR scalar$[rsp]
	lea	rcx, QWORD PTR $T1[rsp]
	call	??0?$tvec4@M$0A@@glm@@QEAA@M@Z		; glm::tvec4<float,0>::tvec4<float,0>
	mov	r8, rax
	mov	rdx, QWORD PTR this$[rsp]
	lea	rcx, QWORD PTR $T2[rsp]
	call	?call@?$compute_vec4_mul@M$0A@$0A@@detail@glm@@SA?AU?$tvec4@M$0A@@3@AEBU43@0@Z ; glm::detail::compute_vec4_mul<float,0,0>::call
	mov	rdi, QWORD PTR this$[rsp]
	mov	rsi, rax
	mov	ecx, 16
	rep movsb
	mov	rax, QWORD PTR this$[rsp]

; 413  : 	}

	add	rsp, 72					; 00000048H
	pop	rdi
	pop	rsi
	ret	0
??$?XM@?$tvec4@M$0A@@glm@@QEAAAEAU01@M@Z ENDP		; glm::tvec4<float,0>::operator*=<float>
_TEXT	ENDS
; Function compile flags: /Odtp /RTCsu
; File C:\Users\ksart\OneDrive\Desktop\FlappyBird\libraries\external\glm\glm\detail\type_vec4.inl
;	COMDAT ?call@?$compute_vec4_equal@M$0A@$0A@$0CA@$0A@@detail@glm@@SA_NAEBU?$tvec4@M$0A@@3@0@Z
_TEXT	SEGMENT
tv76 = 0
v1$ = 32
v2$ = 40
?call@?$compute_vec4_equal@M$0A@$0A@$0CA@$0A@@detail@glm@@SA_NAEBU?$tvec4@M$0A@@3@0@Z PROC ; glm::detail::compute_vec4_equal<float,0,0,32,0>::call, COMDAT

; 131  : 		{

$LN5:
	mov	QWORD PTR [rsp+16], rdx
	mov	QWORD PTR [rsp+8], rcx
	push	rdi
	sub	rsp, 16

; 132  : 			return (v1.x == v2.x) && (v1.y == v2.y) && (v1.z == v2.z) && (v1.w == v2.w);

	mov	rax, QWORD PTR v1$[rsp]
	mov	rcx, QWORD PTR v2$[rsp]
	movss	xmm0, DWORD PTR [rax]
	ucomiss	xmm0, DWORD PTR [rcx]
	jp	SHORT $LN3@call
	jne	SHORT $LN3@call
	mov	rax, QWORD PTR v1$[rsp]
	mov	rcx, QWORD PTR v2$[rsp]
	movss	xmm0, DWORD PTR [rax+4]
	ucomiss	xmm0, DWORD PTR [rcx+4]
	jp	SHORT $LN3@call
	jne	SHORT $LN3@call
	mov	rax, QWORD PTR v1$[rsp]
	mov	rcx, QWORD PTR v2$[rsp]
	movss	xmm0, DWORD PTR [rax+8]
	ucomiss	xmm0, DWORD PTR [rcx+8]
	jp	SHORT $LN3@call
	jne	SHORT $LN3@call
	mov	rax, QWORD PTR v1$[rsp]
	mov	rcx, QWORD PTR v2$[rsp]
	movss	xmm0, DWORD PTR [rax+12]
	ucomiss	xmm0, DWORD PTR [rcx+12]
	jp	SHORT $LN3@call
	jne	SHORT $LN3@call
	mov	DWORD PTR tv76[rsp], 1
	jmp	SHORT $LN4@call
$LN3@call:
	mov	DWORD PTR tv76[rsp], 0
$LN4@call:
	movzx	eax, BYTE PTR tv76[rsp]

; 133  : 		}

	add	rsp, 16
	pop	rdi
	ret	0
?call@?$compute_vec4_equal@M$0A@$0A@$0CA@$0A@@detail@glm@@SA_NAEBU?$tvec4@M$0A@@3@0@Z ENDP ; glm::detail::compute_vec4_equal<float,0,0,32,0>::call
_TEXT	ENDS
; Function compile flags: /Odtp /RTCsu
; File C:\Users\ksart\OneDrive\Desktop\FlappyBird\libraries\external\glm\glm\detail\type_vec2.inl
;	COMDAT ??$?DM$0A@@glm@@YA?AU?$tvec2@M$0A@@0@AEBU10@0@Z
_TEXT	SEGMENT
__$ReturnUdt$ = 48
v1$ = 56
v2$ = 64
??$?DM$0A@@glm@@YA?AU?$tvec2@M$0A@@0@AEBU10@0@Z PROC	; glm::operator*<float,0>, COMDAT

; 573  : 	{

$LN3:
	mov	QWORD PTR [rsp+24], r8
	mov	QWORD PTR [rsp+16], rdx
	mov	QWORD PTR [rsp+8], rcx
	push	rdi
	sub	rsp, 32					; 00000020H

; 574  : 		return tvec2<T, P>(

	mov	rax, QWORD PTR v1$[rsp]
	mov	rcx, QWORD PTR v2$[rsp]
	movss	xmm0, DWORD PTR [rax+4]
	mulss	xmm0, DWORD PTR [rcx+4]
	mov	rax, QWORD PTR v1$[rsp]
	mov	rcx, QWORD PTR v2$[rsp]
	movss	xmm1, DWORD PTR [rax]
	mulss	xmm1, DWORD PTR [rcx]
	movaps	xmm2, xmm0
	mov	rcx, QWORD PTR __$ReturnUdt$[rsp]
	call	??0?$tvec2@M$0A@@glm@@QEAA@MM@Z		; glm::tvec2<float,0>::tvec2<float,0>
	mov	rax, QWORD PTR __$ReturnUdt$[rsp]

; 575  : 			v1.x * v2.x,
; 576  : 			v1.y * v2.y);
; 577  : 	}

	add	rsp, 32					; 00000020H
	pop	rdi
	ret	0
??$?DM$0A@@glm@@YA?AU?$tvec2@M$0A@@0@AEBU10@0@Z ENDP	; glm::operator*<float,0>
_TEXT	ENDS
; Function compile flags: /Odtp /RTCsu
; File C:\Users\ksart\OneDrive\Desktop\FlappyBird\libraries\external\glm\glm\detail\type_vec3.inl
;	COMDAT ??$?DM$0A@@glm@@YA?AU?$tvec3@M$0A@@0@AEBU10@0@Z
_TEXT	SEGMENT
tv76 = 32
__$ReturnUdt$ = 64
v1$ = 72
v2$ = 80
??$?DM$0A@@glm@@YA?AU?$tvec3@M$0A@@0@AEBU10@0@Z PROC	; glm::operator*<float,0>, COMDAT

; 664  : 	{

$LN3:
	mov	QWORD PTR [rsp+24], r8
	mov	QWORD PTR [rsp+16], rdx
	mov	QWORD PTR [rsp+8], rcx
	push	rdi
	sub	rsp, 48					; 00000030H

; 665  : 		return tvec3<T, P>(

	mov	rax, QWORD PTR v1$[rsp]
	mov	rcx, QWORD PTR v2$[rsp]
	movss	xmm0, DWORD PTR [rax+8]
	mulss	xmm0, DWORD PTR [rcx+8]
	mov	rax, QWORD PTR v1$[rsp]
	mov	rcx, QWORD PTR v2$[rsp]
	movss	xmm1, DWORD PTR [rax+4]
	mulss	xmm1, DWORD PTR [rcx+4]
	mov	rax, QWORD PTR v1$[rsp]
	mov	rcx, QWORD PTR v2$[rsp]
	movss	xmm2, DWORD PTR [rax]
	mulss	xmm2, DWORD PTR [rcx]
	movss	DWORD PTR tv76[rsp], xmm2
	movaps	xmm3, xmm0
	movaps	xmm2, xmm1
	movss	xmm0, DWORD PTR tv76[rsp]
	movaps	xmm1, xmm0
	mov	rcx, QWORD PTR __$ReturnUdt$[rsp]
	call	??0?$tvec3@M$0A@@glm@@QEAA@MMM@Z	; glm::tvec3<float,0>::tvec3<float,0>
	mov	rax, QWORD PTR __$ReturnUdt$[rsp]

; 666  : 			v1.x * v2.x,
; 667  : 			v1.y * v2.y,
; 668  : 			v1.z * v2.z);
; 669  : 	}

	add	rsp, 48					; 00000030H
	pop	rdi
	ret	0
??$?DM$0A@@glm@@YA?AU?$tvec3@M$0A@@0@AEBU10@0@Z ENDP	; glm::operator*<float,0>
_TEXT	ENDS
; Function compile flags: /Odtp /RTCsu
; File C:\Users\ksart\OneDrive\Desktop\FlappyBird\libraries\external\glm\glm\detail\type_mat4x4.inl
;	COMDAT ??$?DM$0A@@glm@@YA?AU?$tmat4x4@M$0A@@0@AEBU10@AEBM@Z
_TEXT	SEGMENT
$T1 = 48
$T2 = 64
$T3 = 80
$T4 = 96
tv66 = 112
tv74 = 120
tv82 = 128
__$ReturnUdt$ = 160
m$ = 168
s$ = 176
??$?DM$0A@@glm@@YA?AU?$tmat4x4@M$0A@@0@AEBU10@AEBM@Z PROC ; glm::operator*<float,0>, COMDAT

; 482  : 	{

$LN3:
	mov	QWORD PTR [rsp+24], r8
	mov	QWORD PTR [rsp+16], rdx
	mov	QWORD PTR [rsp+8], rcx
	push	rdi
	sub	rsp, 144				; 00000090H

; 483  : 		return tmat4x4<T, P>(

	mov	edx, 3
	mov	rcx, QWORD PTR m$[rsp]
	call	??A?$tmat4x4@M$0A@@glm@@QEBAAEBU?$tvec4@M$0A@@1@H@Z ; glm::tmat4x4<float,0>::operator[]
	mov	rcx, QWORD PTR s$[rsp]
	movss	xmm2, DWORD PTR [rcx]
	mov	rdx, rax
	lea	rcx, QWORD PTR $T1[rsp]
	call	??$?DM$0A@@glm@@YA?AU?$tvec4@M$0A@@0@AEBU10@M@Z ; glm::operator*<float,0>
	mov	QWORD PTR tv66[rsp], rax
	mov	edx, 2
	mov	rcx, QWORD PTR m$[rsp]
	call	??A?$tmat4x4@M$0A@@glm@@QEBAAEBU?$tvec4@M$0A@@1@H@Z ; glm::tmat4x4<float,0>::operator[]
	mov	rcx, QWORD PTR s$[rsp]
	movss	xmm2, DWORD PTR [rcx]
	mov	rdx, rax
	lea	rcx, QWORD PTR $T2[rsp]
	call	??$?DM$0A@@glm@@YA?AU?$tvec4@M$0A@@0@AEBU10@M@Z ; glm::operator*<float,0>
	mov	QWORD PTR tv74[rsp], rax
	mov	edx, 1
	mov	rcx, QWORD PTR m$[rsp]
	call	??A?$tmat4x4@M$0A@@glm@@QEBAAEBU?$tvec4@M$0A@@1@H@Z ; glm::tmat4x4<float,0>::operator[]
	mov	rcx, QWORD PTR s$[rsp]
	movss	xmm2, DWORD PTR [rcx]
	mov	rdx, rax
	lea	rcx, QWORD PTR $T3[rsp]
	call	??$?DM$0A@@glm@@YA?AU?$tvec4@M$0A@@0@AEBU10@M@Z ; glm::operator*<float,0>
	mov	QWORD PTR tv82[rsp], rax
	xor	edx, edx
	mov	rcx, QWORD PTR m$[rsp]
	call	??A?$tmat4x4@M$0A@@glm@@QEBAAEBU?$tvec4@M$0A@@1@H@Z ; glm::tmat4x4<float,0>::operator[]
	mov	rcx, QWORD PTR s$[rsp]
	movss	xmm2, DWORD PTR [rcx]
	mov	rdx, rax
	lea	rcx, QWORD PTR $T4[rsp]
	call	??$?DM$0A@@glm@@YA?AU?$tvec4@M$0A@@0@AEBU10@M@Z ; glm::operator*<float,0>
	mov	rcx, QWORD PTR tv66[rsp]
	mov	QWORD PTR [rsp+32], rcx
	mov	rcx, QWORD PTR tv74[rsp]
	mov	r9, rcx
	mov	rcx, QWORD PTR tv82[rsp]
	mov	r8, rcx
	mov	rdx, rax
	mov	rcx, QWORD PTR __$ReturnUdt$[rsp]
	call	??0?$tmat4x4@M$0A@@glm@@QEAA@AEBU?$tvec4@M$0A@@1@000@Z ; glm::tmat4x4<float,0>::tmat4x4<float,0>
	mov	rax, QWORD PTR __$ReturnUdt$[rsp]

; 484  : 			m[0] * s,
; 485  : 			m[1] * s,
; 486  : 			m[2] * s,
; 487  : 			m[3] * s);
; 488  : 	}

	add	rsp, 144				; 00000090H
	pop	rdi
	ret	0
??$?DM$0A@@glm@@YA?AU?$tmat4x4@M$0A@@0@AEBU10@AEBM@Z ENDP ; glm::operator*<float,0>
_TEXT	ENDS
; Function compile flags: /Odtp /RTCsu
; File C:\Users\ksart\OneDrive\Desktop\FlappyBird\libraries\external\glm\glm\detail\type_vec4.inl
;	COMDAT ??$?DM$0A@@glm@@YA?AU?$tvec4@M$0A@@0@AEBU10@0@Z
_TEXT	SEGMENT
$T1 = 32
__$ReturnUdt$ = 80
v1$ = 88
v2$ = 96
??$?DM$0A@@glm@@YA?AU?$tvec4@M$0A@@0@AEBU10@0@Z PROC	; glm::operator*<float,0>, COMDAT

; 718  : 	{

$LN3:
	mov	QWORD PTR [rsp+24], r8
	mov	QWORD PTR [rsp+16], rdx
	mov	QWORD PTR [rsp+8], rcx
	push	rsi
	push	rdi
	sub	rsp, 56					; 00000038H

; 719  : 		return tvec4<T, P>(v1) *= v2;

	lea	rax, QWORD PTR $T1[rsp]
	mov	rdi, rax
	mov	rsi, QWORD PTR v1$[rsp]
	mov	ecx, 16
	rep movsb
	mov	rdx, QWORD PTR v2$[rsp]
	lea	rcx, QWORD PTR $T1[rsp]
	call	??$?XM@?$tvec4@M$0A@@glm@@QEAAAEAU01@AEBU01@@Z ; glm::tvec4<float,0>::operator*=<float>
	mov	rdi, QWORD PTR __$ReturnUdt$[rsp]
	mov	rsi, rax
	mov	ecx, 16
	rep movsb
	mov	rax, QWORD PTR __$ReturnUdt$[rsp]

; 720  : 	}

	add	rsp, 56					; 00000038H
	pop	rdi
	pop	rsi
	ret	0
??$?DM$0A@@glm@@YA?AU?$tvec4@M$0A@@0@AEBU10@0@Z ENDP	; glm::operator*<float,0>
_TEXT	ENDS
; Function compile flags: /Odtp /RTCsu
; File C:\Users\ksart\OneDrive\Desktop\FlappyBird\libraries\external\glm\glm\detail\func_vector_relational.inl
;	COMDAT ??$lessThan@M$0A@Utvec4@glm@@@glm@@YA?AU?$tvec4@_N$0A@@0@AEBU?$tvec4@M$0A@@0@0@Z
_TEXT	SEGMENT
Result$ = 36
i$4 = 52
tv64 = 56
tv80 = 64
tv86 = 72
__$ReturnUdt$ = 96
x$ = 104
y$ = 112
??$lessThan@M$0A@Utvec4@glm@@@glm@@YA?AU?$tvec4@_N$0A@@0@AEBU?$tvec4@M$0A@@0@0@Z PROC ; glm::lessThan<float,0,glm::tvec4>, COMDAT

; 10   : 	{

$LN9:
	mov	QWORD PTR [rsp+24], r8
	mov	QWORD PTR [rsp+16], rdx
	mov	QWORD PTR [rsp+8], rcx
	push	rdi
	sub	rsp, 80					; 00000050H
	lea	rdi, QWORD PTR [rsp+32]
	mov	ecx, 12
	mov	eax, -858993460				; ccccccccH
	rep stosd
	mov	rcx, QWORD PTR [rsp+96]

; 11   : 		assert(x.length() == y.length());

	call	?length@?$tvec4@M$0A@@glm@@SAHXZ	; glm::tvec4<float,0>::length
	mov	DWORD PTR tv64[rsp], eax
	call	?length@?$tvec4@M$0A@@glm@@SAHXZ	; glm::tvec4<float,0>::length
	mov	ecx, DWORD PTR tv64[rsp]
	cmp	ecx, eax
	je	SHORT $LN6@lessThan
	mov	r8d, 11
	lea	rdx, OFFSET FLAT:??_C@_1NA@OPABFNEN@?$AAC?$AA?3?$AA?2?$AAU?$AAs?$AAe?$AAr?$AAs?$AA?2?$AAk?$AAs?$AAa?$AAr?$AAt?$AA?2@
	lea	rcx, OFFSET FLAT:??_C@_1DC@HHLCGOLC@?$AAx?$AA?4?$AAl?$AAe?$AAn?$AAg?$AAt?$AAh?$AA?$CI?$AA?$CJ?$AA?5?$AA?$DN?$AA?$DN?$AA?5?$AAy@
	call	QWORD PTR __imp__wassert
	xor	eax, eax
$LN6@lessThan:

; 12   : 
; 13   : 		vecType<bool, P> Result(uninitialize);

	xor	edx, edx
	lea	rcx, QWORD PTR Result$[rsp]
	call	??0?$tvec4@_N$0A@@glm@@QEAA@W4ctor@1@@Z	; glm::tvec4<bool,0>::tvec4<bool,0>

; 14   : 		for(length_t i = 0; i < x.length(); ++i)

	mov	DWORD PTR i$4[rsp], 0
	jmp	SHORT $LN4@lessThan
$LN2@lessThan:
	mov	eax, DWORD PTR i$4[rsp]
	inc	eax
	mov	DWORD PTR i$4[rsp], eax
$LN4@lessThan:
	call	?length@?$tvec4@M$0A@@glm@@SAHXZ	; glm::tvec4<float,0>::length
	cmp	DWORD PTR i$4[rsp], eax
	jge	SHORT $LN3@lessThan

; 15   : 			Result[i] = x[i] < y[i];

	mov	edx, DWORD PTR i$4[rsp]
	mov	rcx, QWORD PTR x$[rsp]
	call	??A?$tvec4@M$0A@@glm@@QEBAAEBMH@Z	; glm::tvec4<float,0>::operator[]
	mov	QWORD PTR tv80[rsp], rax
	mov	edx, DWORD PTR i$4[rsp]
	mov	rcx, QWORD PTR y$[rsp]
	call	??A?$tvec4@M$0A@@glm@@QEBAAEBMH@Z	; glm::tvec4<float,0>::operator[]
	movss	xmm0, DWORD PTR [rax]
	mov	rax, QWORD PTR tv80[rsp]
	comiss	xmm0, DWORD PTR [rax]
	jbe	SHORT $LN7@lessThan
	mov	DWORD PTR tv86[rsp], 1
	jmp	SHORT $LN8@lessThan
$LN7@lessThan:
	mov	DWORD PTR tv86[rsp], 0
$LN8@lessThan:
	mov	edx, DWORD PTR i$4[rsp]
	lea	rcx, QWORD PTR Result$[rsp]
	call	??A?$tvec4@_N$0A@@glm@@QEAAAEA_NH@Z	; glm::tvec4<bool,0>::operator[]
	movzx	ecx, BYTE PTR tv86[rsp]
	mov	BYTE PTR [rax], cl
	jmp	SHORT $LN2@lessThan
$LN3@lessThan:

; 16   : 
; 17   : 		return Result;

	mov	rax, QWORD PTR __$ReturnUdt$[rsp]
	mov	ecx, DWORD PTR Result$[rsp]
	mov	DWORD PTR [rax], ecx
	mov	rax, QWORD PTR __$ReturnUdt$[rsp]

; 18   : 	}

	mov	rdi, rax
	mov	rcx, rsp
	lea	rdx, OFFSET FLAT:??$lessThan@M$0A@Utvec4@glm@@@glm@@YA?AU?$tvec4@_N$0A@@0@AEBU?$tvec4@M$0A@@0@0@Z$rtcFrameData
	call	_RTC_CheckStackVars
	mov	rax, rdi
	add	rsp, 80					; 00000050H
	pop	rdi
	ret	0
??$lessThan@M$0A@Utvec4@glm@@@glm@@YA?AU?$tvec4@_N$0A@@0@AEBU?$tvec4@M$0A@@0@0@Z ENDP ; glm::lessThan<float,0,glm::tvec4>
_TEXT	ENDS
; Function compile flags: /Odtp /RTCsu
; File C:\Users\ksart\OneDrive\Desktop\FlappyBird\libraries\external\glm\glm\detail\func_common.inl
;	COMDAT ??$abs@M$0A@Utvec4@glm@@@glm@@YA?AU?$tvec4@M$0A@@0@AEBU10@@Z
_TEXT	SEGMENT
__$ReturnUdt$ = 48
x$ = 56
??$abs@M$0A@Utvec4@glm@@@glm@@YA?AU?$tvec4@M$0A@@0@AEBU10@@Z PROC ; glm::abs<float,0,glm::tvec4>, COMDAT

; 316  : 	{

$LN3:
	mov	QWORD PTR [rsp+16], rdx
	mov	QWORD PTR [rsp+8], rcx
	push	rdi
	sub	rsp, 32					; 00000020H

; 317  : 		return detail::compute_abs_vector<T, P, vecType, detail::is_aligned<P>::value>::call(x);

	mov	rdx, QWORD PTR x$[rsp]
	mov	rcx, QWORD PTR __$ReturnUdt$[rsp]
	call	?call@?$compute_abs_vector@M$0A@Utvec4@glm@@$0A@@detail@glm@@SA?AU?$tvec4@M$0A@@3@AEBU43@@Z ; glm::detail::compute_abs_vector<float,0,glm::tvec4,0>::call
	mov	rax, QWORD PTR __$ReturnUdt$[rsp]

; 318  : 	}

	add	rsp, 32					; 00000020H
	pop	rdi
	ret	0
??$abs@M$0A@Utvec4@glm@@@glm@@YA?AU?$tvec4@M$0A@@0@AEBU10@@Z ENDP ; glm::abs<float,0,glm::tvec4>
_TEXT	ENDS
; Function compile flags: /Odtp /RTCsu
; File C:\Users\ksart\OneDrive\Desktop\FlappyBird\libraries\external\glm\glm\detail\type_vec4.inl
;	COMDAT ??$?GM$0A@@glm@@YA?AU?$tvec4@M$0A@@0@AEBU10@0@Z
_TEXT	SEGMENT
$T1 = 32
__$ReturnUdt$ = 80
v1$ = 88
v2$ = 96
??$?GM$0A@@glm@@YA?AU?$tvec4@M$0A@@0@AEBU10@0@Z PROC	; glm::operator-<float,0>, COMDAT

; 688  : 	{

$LN3:
	mov	QWORD PTR [rsp+24], r8
	mov	QWORD PTR [rsp+16], rdx
	mov	QWORD PTR [rsp+8], rcx
	push	rsi
	push	rdi
	sub	rsp, 56					; 00000038H

; 689  : 		return tvec4<T, P>(v1) -= v2;

	lea	rax, QWORD PTR $T1[rsp]
	mov	rdi, rax
	mov	rsi, QWORD PTR v1$[rsp]
	mov	ecx, 16
	rep movsb
	mov	rdx, QWORD PTR v2$[rsp]
	lea	rcx, QWORD PTR $T1[rsp]
	call	??$?ZM@?$tvec4@M$0A@@glm@@QEAAAEAU01@AEBU01@@Z ; glm::tvec4<float,0>::operator-=<float>
	mov	rdi, QWORD PTR __$ReturnUdt$[rsp]
	mov	rsi, rax
	mov	ecx, 16
	rep movsb
	mov	rax, QWORD PTR __$ReturnUdt$[rsp]

; 690  : 	}

	add	rsp, 56					; 00000038H
	pop	rdi
	pop	rsi
	ret	0
??$?GM$0A@@glm@@YA?AU?$tvec4@M$0A@@0@AEBU10@0@Z ENDP	; glm::operator-<float,0>
_TEXT	ENDS
; Function compile flags: /Odtp /RTCsu
; File C:\Users\ksart\OneDrive\Desktop\FlappyBird\libraries\external\glm\glm\detail\func_matrix.inl
;	COMDAT ?call@?$compute_inverse@Utmat2x2@glm@@M$0A@$0A@@detail@glm@@SA?AU?$tmat2x2@M$0A@@3@AEBU43@@Z
_TEXT	SEGMENT
OneOverDeterminant$ = 48
Inverse$ = 72
$T4 = 112
$T5 = 116
$T6 = 120
$T7 = 124
tv68 = 128
tv76 = 136
tv81 = 144
__$ArrayPad$ = 152
__$ReturnUdt$ = 192
m$ = 200
?call@?$compute_inverse@Utmat2x2@glm@@M$0A@$0A@@detail@glm@@SA?AU?$tmat2x2@M$0A@@3@AEBU43@@Z PROC ; glm::detail::compute_inverse<glm::tmat2x2,float,0,0>::call, COMDAT

; 256  : 		{

$LN3:
	mov	QWORD PTR [rsp+16], rdx
	mov	QWORD PTR [rsp+8], rcx
	push	rsi
	push	rdi
	sub	rsp, 168				; 000000a8H
	lea	rdi, QWORD PTR [rsp+48]
	mov	ecx, 30
	mov	eax, -858993460				; ccccccccH
	rep stosd
	mov	rcx, QWORD PTR [rsp+192]
	mov	rax, QWORD PTR __security_cookie
	xor	rax, rsp
	mov	QWORD PTR __$ArrayPad$[rsp], rax

; 257  : 			T OneOverDeterminant = static_cast<T>(1) / (

	xor	edx, edx
	mov	rcx, QWORD PTR m$[rsp]
	call	??A?$tmat2x2@M$0A@@glm@@QEBAAEBU?$tvec2@M$0A@@1@H@Z ; glm::tmat2x2<float,0>::operator[]
	xor	edx, edx
	mov	rcx, rax
	call	??A?$tvec2@M$0A@@glm@@QEBAAEBMH@Z	; glm::tvec2<float,0>::operator[]
	mov	QWORD PTR tv68[rsp], rax
	mov	edx, 1
	mov	rcx, QWORD PTR m$[rsp]
	call	??A?$tmat2x2@M$0A@@glm@@QEBAAEBU?$tvec2@M$0A@@1@H@Z ; glm::tmat2x2<float,0>::operator[]
	mov	edx, 1
	mov	rcx, rax
	call	??A?$tvec2@M$0A@@glm@@QEBAAEBMH@Z	; glm::tvec2<float,0>::operator[]
	mov	rcx, QWORD PTR tv68[rsp]
	movss	xmm0, DWORD PTR [rcx]
	mulss	xmm0, DWORD PTR [rax]
	movss	DWORD PTR tv76[rsp], xmm0
	mov	edx, 1
	mov	rcx, QWORD PTR m$[rsp]
	call	??A?$tmat2x2@M$0A@@glm@@QEBAAEBU?$tvec2@M$0A@@1@H@Z ; glm::tmat2x2<float,0>::operator[]
	xor	edx, edx
	mov	rcx, rax
	call	??A?$tvec2@M$0A@@glm@@QEBAAEBMH@Z	; glm::tvec2<float,0>::operator[]
	mov	QWORD PTR tv81[rsp], rax
	xor	edx, edx
	mov	rcx, QWORD PTR m$[rsp]
	call	??A?$tmat2x2@M$0A@@glm@@QEBAAEBU?$tvec2@M$0A@@1@H@Z ; glm::tmat2x2<float,0>::operator[]
	mov	edx, 1
	mov	rcx, rax
	call	??A?$tvec2@M$0A@@glm@@QEBAAEBMH@Z	; glm::tvec2<float,0>::operator[]
	mov	rcx, QWORD PTR tv81[rsp]
	movss	xmm0, DWORD PTR [rcx]
	mulss	xmm0, DWORD PTR [rax]
	movss	xmm1, DWORD PTR tv76[rsp]
	subss	xmm1, xmm0
	movaps	xmm0, xmm1
	movss	xmm1, DWORD PTR __real@3f800000
	divss	xmm1, xmm0
	movaps	xmm0, xmm1
	movss	DWORD PTR OneOverDeterminant$[rsp], xmm0

; 258  : 				+ m[0][0] * m[1][1]
; 259  : 				- m[1][0] * m[0][1]);
; 260  : 
; 261  : 			tmat2x2<T, P> Inverse(

	xor	edx, edx
	mov	rcx, QWORD PTR m$[rsp]
	call	??A?$tmat2x2@M$0A@@glm@@QEBAAEBU?$tvec2@M$0A@@1@H@Z ; glm::tmat2x2<float,0>::operator[]
	xor	edx, edx
	mov	rcx, rax
	call	??A?$tvec2@M$0A@@glm@@QEBAAEBMH@Z	; glm::tvec2<float,0>::operator[]
	movss	xmm0, DWORD PTR [rax]
	mulss	xmm0, DWORD PTR OneOverDeterminant$[rsp]
	movss	DWORD PTR $T4[rsp], xmm0
	mov	edx, 1
	mov	rcx, QWORD PTR m$[rsp]
	call	??A?$tmat2x2@M$0A@@glm@@QEBAAEBU?$tvec2@M$0A@@1@H@Z ; glm::tmat2x2<float,0>::operator[]
	xor	edx, edx
	mov	rcx, rax
	call	??A?$tvec2@M$0A@@glm@@QEBAAEBMH@Z	; glm::tvec2<float,0>::operator[]
	movss	xmm0, DWORD PTR [rax]
	xorps	xmm0, DWORD PTR __xmm@80000000800000008000000080000000
	mulss	xmm0, DWORD PTR OneOverDeterminant$[rsp]
	movss	DWORD PTR $T5[rsp], xmm0
	xor	edx, edx
	mov	rcx, QWORD PTR m$[rsp]
	call	??A?$tmat2x2@M$0A@@glm@@QEBAAEBU?$tvec2@M$0A@@1@H@Z ; glm::tmat2x2<float,0>::operator[]
	mov	edx, 1
	mov	rcx, rax
	call	??A?$tvec2@M$0A@@glm@@QEBAAEBMH@Z	; glm::tvec2<float,0>::operator[]
	movss	xmm0, DWORD PTR [rax]
	xorps	xmm0, DWORD PTR __xmm@80000000800000008000000080000000
	mulss	xmm0, DWORD PTR OneOverDeterminant$[rsp]
	movss	DWORD PTR $T6[rsp], xmm0
	mov	edx, 1
	mov	rcx, QWORD PTR m$[rsp]
	call	??A?$tmat2x2@M$0A@@glm@@QEBAAEBU?$tvec2@M$0A@@1@H@Z ; glm::tmat2x2<float,0>::operator[]
	mov	edx, 1
	mov	rcx, rax
	call	??A?$tvec2@M$0A@@glm@@QEBAAEBMH@Z	; glm::tvec2<float,0>::operator[]
	movss	xmm0, DWORD PTR [rax]
	mulss	xmm0, DWORD PTR OneOverDeterminant$[rsp]
	movss	DWORD PTR $T7[rsp], xmm0
	lea	rax, QWORD PTR $T4[rsp]
	mov	QWORD PTR [rsp+32], rax
	lea	r9, QWORD PTR $T5[rsp]
	lea	r8, QWORD PTR $T6[rsp]
	lea	rdx, QWORD PTR $T7[rsp]
	lea	rcx, QWORD PTR Inverse$[rsp]
	call	??0?$tmat2x2@M$0A@@glm@@QEAA@AEBM000@Z	; glm::tmat2x2<float,0>::tmat2x2<float,0>

; 262  : 				+ m[1][1] * OneOverDeterminant,
; 263  : 				- m[0][1] * OneOverDeterminant,
; 264  : 				- m[1][0] * OneOverDeterminant,
; 265  : 				+ m[0][0] * OneOverDeterminant);
; 266  : 
; 267  : 			return Inverse;

	lea	rax, QWORD PTR Inverse$[rsp]
	mov	rdi, QWORD PTR __$ReturnUdt$[rsp]
	mov	rsi, rax
	mov	ecx, 16
	rep movsb
	mov	rax, QWORD PTR __$ReturnUdt$[rsp]

; 268  : 		}

	mov	rdi, rax
	mov	rcx, rsp
	lea	rdx, OFFSET FLAT:?call@?$compute_inverse@Utmat2x2@glm@@M$0A@$0A@@detail@glm@@SA?AU?$tmat2x2@M$0A@@3@AEBU43@@Z$rtcFrameData
	call	_RTC_CheckStackVars
	mov	rax, rdi
	mov	rcx, QWORD PTR __$ArrayPad$[rsp]
	xor	rcx, rsp
	call	__security_check_cookie
	add	rsp, 168				; 000000a8H
	pop	rdi
	pop	rsi
	ret	0
?call@?$compute_inverse@Utmat2x2@glm@@M$0A@$0A@@detail@glm@@SA?AU?$tmat2x2@M$0A@@3@AEBU43@@Z ENDP ; glm::detail::compute_inverse<glm::tmat2x2,float,0,0>::call
_TEXT	ENDS
; Function compile flags: /Odtp /RTCsu
; File C:\Users\ksart\OneDrive\Desktop\FlappyBird\libraries\external\glm\glm\detail\func_matrix.inl
;	COMDAT ?call@?$compute_inverse@Utmat3x3@glm@@M$0A@$0A@@detail@glm@@SA?AU?$tmat3x3@M$0A@@3@AEBU43@@Z
_TEXT	SEGMENT
OneOverDeterminant$ = 32
Inverse$ = 56
tv68 = 112
tv74 = 120
tv82 = 128
tv87 = 136
tv129 = 144
tv134 = 152
tv140 = 160
tv148 = 168
tv153 = 176
tv164 = 184
tv169 = 192
tv175 = 200
tv183 = 208
tv188 = 216
tv213 = 224
tv221 = 232
tv226 = 240
tv237 = 248
tv248 = 256
tv256 = 264
tv261 = 272
tv273 = 280
tv284 = 288
tv292 = 296
tv297 = 304
tv308 = 312
tv319 = 320
tv327 = 328
tv332 = 336
tv344 = 344
tv355 = 352
tv363 = 360
tv368 = 368
tv379 = 376
tv390 = 384
tv398 = 392
tv403 = 400
tv415 = 408
tv426 = 416
tv434 = 424
tv439 = 432
tv450 = 440
tv461 = 448
tv469 = 456
tv474 = 464
tv486 = 472
tv497 = 480
tv505 = 488
tv510 = 496
tv521 = 504
__$ArrayPad$ = 512
__$ReturnUdt$ = 560
m$ = 568
?call@?$compute_inverse@Utmat3x3@glm@@M$0A@$0A@@detail@glm@@SA?AU?$tmat3x3@M$0A@@3@AEBU43@@Z PROC ; glm::detail::compute_inverse<glm::tmat3x3,float,0,0>::call, COMDAT

; 275  : 		{

$LN3:
	mov	QWORD PTR [rsp+16], rdx
	mov	QWORD PTR [rsp+8], rcx
	push	rsi
	push	rdi
	sub	rsp, 536				; 00000218H
	lea	rdi, QWORD PTR [rsp+32]
	mov	ecx, 126				; 0000007eH
	mov	eax, -858993460				; ccccccccH
	rep stosd
	mov	rcx, QWORD PTR [rsp+560]
	mov	rax, QWORD PTR __security_cookie
	xor	rax, rsp
	mov	QWORD PTR __$ArrayPad$[rsp], rax

; 276  : 			T OneOverDeterminant = static_cast<T>(1) / (

	xor	edx, edx
	mov	rcx, QWORD PTR m$[rsp]
	call	??A?$tmat3x3@M$0A@@glm@@QEBAAEBU?$tvec3@M$0A@@1@H@Z ; glm::tmat3x3<float,0>::operator[]
	xor	edx, edx
	mov	rcx, rax
	call	??A?$tvec3@M$0A@@glm@@QEBAAEBMH@Z	; glm::tvec3<float,0>::operator[]
	mov	QWORD PTR tv68[rsp], rax
	mov	edx, 1
	mov	rcx, QWORD PTR m$[rsp]
	call	??A?$tmat3x3@M$0A@@glm@@QEBAAEBU?$tvec3@M$0A@@1@H@Z ; glm::tmat3x3<float,0>::operator[]
	mov	edx, 1
	mov	rcx, rax
	call	??A?$tvec3@M$0A@@glm@@QEBAAEBMH@Z	; glm::tvec3<float,0>::operator[]
	mov	QWORD PTR tv74[rsp], rax
	mov	edx, 2
	mov	rcx, QWORD PTR m$[rsp]
	call	??A?$tmat3x3@M$0A@@glm@@QEBAAEBU?$tvec3@M$0A@@1@H@Z ; glm::tmat3x3<float,0>::operator[]
	mov	edx, 2
	mov	rcx, rax
	call	??A?$tvec3@M$0A@@glm@@QEBAAEBMH@Z	; glm::tvec3<float,0>::operator[]
	mov	rcx, QWORD PTR tv74[rsp]
	movss	xmm0, DWORD PTR [rcx]
	mulss	xmm0, DWORD PTR [rax]
	movss	DWORD PTR tv82[rsp], xmm0
	mov	edx, 2
	mov	rcx, QWORD PTR m$[rsp]
	call	??A?$tmat3x3@M$0A@@glm@@QEBAAEBU?$tvec3@M$0A@@1@H@Z ; glm::tmat3x3<float,0>::operator[]
	mov	edx, 1
	mov	rcx, rax
	call	??A?$tvec3@M$0A@@glm@@QEBAAEBMH@Z	; glm::tvec3<float,0>::operator[]
	mov	QWORD PTR tv87[rsp], rax
	mov	edx, 1
	mov	rcx, QWORD PTR m$[rsp]
	call	??A?$tmat3x3@M$0A@@glm@@QEBAAEBU?$tvec3@M$0A@@1@H@Z ; glm::tmat3x3<float,0>::operator[]
	mov	edx, 2
	mov	rcx, rax
	call	??A?$tvec3@M$0A@@glm@@QEBAAEBMH@Z	; glm::tvec3<float,0>::operator[]
	mov	rcx, QWORD PTR tv87[rsp]
	movss	xmm0, DWORD PTR [rcx]
	mulss	xmm0, DWORD PTR [rax]
	movss	xmm1, DWORD PTR tv82[rsp]
	subss	xmm1, xmm0
	movaps	xmm0, xmm1
	mov	rax, QWORD PTR tv68[rsp]
	movss	xmm1, DWORD PTR [rax]
	mulss	xmm1, xmm0
	movaps	xmm0, xmm1
	movss	DWORD PTR tv129[rsp], xmm0
	mov	edx, 1
	mov	rcx, QWORD PTR m$[rsp]
	call	??A?$tmat3x3@M$0A@@glm@@QEBAAEBU?$tvec3@M$0A@@1@H@Z ; glm::tmat3x3<float,0>::operator[]
	xor	edx, edx
	mov	rcx, rax
	call	??A?$tvec3@M$0A@@glm@@QEBAAEBMH@Z	; glm::tvec3<float,0>::operator[]
	mov	QWORD PTR tv134[rsp], rax
	xor	edx, edx
	mov	rcx, QWORD PTR m$[rsp]
	call	??A?$tmat3x3@M$0A@@glm@@QEBAAEBU?$tvec3@M$0A@@1@H@Z ; glm::tmat3x3<float,0>::operator[]
	mov	edx, 1
	mov	rcx, rax
	call	??A?$tvec3@M$0A@@glm@@QEBAAEBMH@Z	; glm::tvec3<float,0>::operator[]
	mov	QWORD PTR tv140[rsp], rax
	mov	edx, 2
	mov	rcx, QWORD PTR m$[rsp]
	call	??A?$tmat3x3@M$0A@@glm@@QEBAAEBU?$tvec3@M$0A@@1@H@Z ; glm::tmat3x3<float,0>::operator[]
	mov	edx, 2
	mov	rcx, rax
	call	??A?$tvec3@M$0A@@glm@@QEBAAEBMH@Z	; glm::tvec3<float,0>::operator[]
	mov	rcx, QWORD PTR tv140[rsp]
	movss	xmm0, DWORD PTR [rcx]
	mulss	xmm0, DWORD PTR [rax]
	movss	DWORD PTR tv148[rsp], xmm0
	mov	edx, 2
	mov	rcx, QWORD PTR m$[rsp]
	call	??A?$tmat3x3@M$0A@@glm@@QEBAAEBU?$tvec3@M$0A@@1@H@Z ; glm::tmat3x3<float,0>::operator[]
	mov	edx, 1
	mov	rcx, rax
	call	??A?$tvec3@M$0A@@glm@@QEBAAEBMH@Z	; glm::tvec3<float,0>::operator[]
	mov	QWORD PTR tv153[rsp], rax
	xor	edx, edx
	mov	rcx, QWORD PTR m$[rsp]
	call	??A?$tmat3x3@M$0A@@glm@@QEBAAEBU?$tvec3@M$0A@@1@H@Z ; glm::tmat3x3<float,0>::operator[]
	mov	edx, 2
	mov	rcx, rax
	call	??A?$tvec3@M$0A@@glm@@QEBAAEBMH@Z	; glm::tvec3<float,0>::operator[]
	mov	rcx, QWORD PTR tv153[rsp]
	movss	xmm0, DWORD PTR [rcx]
	mulss	xmm0, DWORD PTR [rax]
	movss	xmm1, DWORD PTR tv148[rsp]
	subss	xmm1, xmm0
	movaps	xmm0, xmm1
	mov	rax, QWORD PTR tv134[rsp]
	movss	xmm1, DWORD PTR [rax]
	mulss	xmm1, xmm0
	movaps	xmm0, xmm1
	movss	xmm1, DWORD PTR tv129[rsp]
	subss	xmm1, xmm0
	movaps	xmm0, xmm1
	movss	DWORD PTR tv164[rsp], xmm0
	mov	edx, 2
	mov	rcx, QWORD PTR m$[rsp]
	call	??A?$tmat3x3@M$0A@@glm@@QEBAAEBU?$tvec3@M$0A@@1@H@Z ; glm::tmat3x3<float,0>::operator[]
	xor	edx, edx
	mov	rcx, rax
	call	??A?$tvec3@M$0A@@glm@@QEBAAEBMH@Z	; glm::tvec3<float,0>::operator[]
	mov	QWORD PTR tv169[rsp], rax
	xor	edx, edx
	mov	rcx, QWORD PTR m$[rsp]
	call	??A?$tmat3x3@M$0A@@glm@@QEBAAEBU?$tvec3@M$0A@@1@H@Z ; glm::tmat3x3<float,0>::operator[]
	mov	edx, 1
	mov	rcx, rax
	call	??A?$tvec3@M$0A@@glm@@QEBAAEBMH@Z	; glm::tvec3<float,0>::operator[]
	mov	QWORD PTR tv175[rsp], rax
	mov	edx, 1
	mov	rcx, QWORD PTR m$[rsp]
	call	??A?$tmat3x3@M$0A@@glm@@QEBAAEBU?$tvec3@M$0A@@1@H@Z ; glm::tmat3x3<float,0>::operator[]
	mov	edx, 2
	mov	rcx, rax
	call	??A?$tvec3@M$0A@@glm@@QEBAAEBMH@Z	; glm::tvec3<float,0>::operator[]
	mov	rcx, QWORD PTR tv175[rsp]
	movss	xmm0, DWORD PTR [rcx]
	mulss	xmm0, DWORD PTR [rax]
	movss	DWORD PTR tv183[rsp], xmm0
	mov	edx, 1
	mov	rcx, QWORD PTR m$[rsp]
	call	??A?$tmat3x3@M$0A@@glm@@QEBAAEBU?$tvec3@M$0A@@1@H@Z ; glm::tmat3x3<float,0>::operator[]
	mov	edx, 1
	mov	rcx, rax
	call	??A?$tvec3@M$0A@@glm@@QEBAAEBMH@Z	; glm::tvec3<float,0>::operator[]
	mov	QWORD PTR tv188[rsp], rax
	xor	edx, edx
	mov	rcx, QWORD PTR m$[rsp]
	call	??A?$tmat3x3@M$0A@@glm@@QEBAAEBU?$tvec3@M$0A@@1@H@Z ; glm::tmat3x3<float,0>::operator[]
	mov	edx, 2
	mov	rcx, rax
	call	??A?$tvec3@M$0A@@glm@@QEBAAEBMH@Z	; glm::tvec3<float,0>::operator[]
	mov	rcx, QWORD PTR tv188[rsp]
	movss	xmm0, DWORD PTR [rcx]
	mulss	xmm0, DWORD PTR [rax]
	movss	xmm1, DWORD PTR tv183[rsp]
	subss	xmm1, xmm0
	movaps	xmm0, xmm1
	mov	rax, QWORD PTR tv169[rsp]
	movss	xmm1, DWORD PTR [rax]
	mulss	xmm1, xmm0
	movaps	xmm0, xmm1
	movss	xmm1, DWORD PTR tv164[rsp]
	addss	xmm1, xmm0
	movaps	xmm0, xmm1
	movss	xmm1, DWORD PTR __real@3f800000
	divss	xmm1, xmm0
	movaps	xmm0, xmm1
	movss	DWORD PTR OneOverDeterminant$[rsp], xmm0

; 277  : 				+ m[0][0] * (m[1][1] * m[2][2] - m[2][1] * m[1][2])
; 278  : 				- m[1][0] * (m[0][1] * m[2][2] - m[2][1] * m[0][2])
; 279  : 				+ m[2][0] * (m[0][1] * m[1][2] - m[1][1] * m[0][2]));
; 280  : 
; 281  : 			tmat3x3<T, P> Inverse(uninitialize);

	xor	edx, edx
	lea	rcx, QWORD PTR Inverse$[rsp]
	call	??0?$tmat3x3@M$0A@@glm@@QEAA@W4ctor@1@@Z ; glm::tmat3x3<float,0>::tmat3x3<float,0>

; 282  : 			Inverse[0][0] = + (m[1][1] * m[2][2] - m[2][1] * m[1][2]) * OneOverDeterminant;

	mov	edx, 1
	mov	rcx, QWORD PTR m$[rsp]
	call	??A?$tmat3x3@M$0A@@glm@@QEBAAEBU?$tvec3@M$0A@@1@H@Z ; glm::tmat3x3<float,0>::operator[]
	mov	edx, 1
	mov	rcx, rax
	call	??A?$tvec3@M$0A@@glm@@QEBAAEBMH@Z	; glm::tvec3<float,0>::operator[]
	mov	QWORD PTR tv213[rsp], rax
	mov	edx, 2
	mov	rcx, QWORD PTR m$[rsp]
	call	??A?$tmat3x3@M$0A@@glm@@QEBAAEBU?$tvec3@M$0A@@1@H@Z ; glm::tmat3x3<float,0>::operator[]
	mov	edx, 2
	mov	rcx, rax
	call	??A?$tvec3@M$0A@@glm@@QEBAAEBMH@Z	; glm::tvec3<float,0>::operator[]
	mov	rcx, QWORD PTR tv213[rsp]
	movss	xmm0, DWORD PTR [rcx]
	mulss	xmm0, DWORD PTR [rax]
	movss	DWORD PTR tv221[rsp], xmm0
	mov	edx, 2
	mov	rcx, QWORD PTR m$[rsp]
	call	??A?$tmat3x3@M$0A@@glm@@QEBAAEBU?$tvec3@M$0A@@1@H@Z ; glm::tmat3x3<float,0>::operator[]
	mov	edx, 1
	mov	rcx, rax
	call	??A?$tvec3@M$0A@@glm@@QEBAAEBMH@Z	; glm::tvec3<float,0>::operator[]
	mov	QWORD PTR tv226[rsp], rax
	mov	edx, 1
	mov	rcx, QWORD PTR m$[rsp]
	call	??A?$tmat3x3@M$0A@@glm@@QEBAAEBU?$tvec3@M$0A@@1@H@Z ; glm::tmat3x3<float,0>::operator[]
	mov	edx, 2
	mov	rcx, rax
	call	??A?$tvec3@M$0A@@glm@@QEBAAEBMH@Z	; glm::tvec3<float,0>::operator[]
	mov	rcx, QWORD PTR tv226[rsp]
	movss	xmm0, DWORD PTR [rcx]
	mulss	xmm0, DWORD PTR [rax]
	movss	xmm1, DWORD PTR tv221[rsp]
	subss	xmm1, xmm0
	movaps	xmm0, xmm1
	mulss	xmm0, DWORD PTR OneOverDeterminant$[rsp]
	movss	DWORD PTR tv237[rsp], xmm0
	xor	edx, edx
	lea	rcx, QWORD PTR Inverse$[rsp]
	call	??A?$tmat3x3@M$0A@@glm@@QEAAAEAU?$tvec3@M$0A@@1@H@Z ; glm::tmat3x3<float,0>::operator[]
	xor	edx, edx
	mov	rcx, rax
	call	??A?$tvec3@M$0A@@glm@@QEAAAEAMH@Z	; glm::tvec3<float,0>::operator[]
	movss	xmm0, DWORD PTR tv237[rsp]
	movss	DWORD PTR [rax], xmm0

; 283  : 			Inverse[1][0] = - (m[1][0] * m[2][2] - m[2][0] * m[1][2]) * OneOverDeterminant;

	mov	edx, 1
	mov	rcx, QWORD PTR m$[rsp]
	call	??A?$tmat3x3@M$0A@@glm@@QEBAAEBU?$tvec3@M$0A@@1@H@Z ; glm::tmat3x3<float,0>::operator[]
	xor	edx, edx
	mov	rcx, rax
	call	??A?$tvec3@M$0A@@glm@@QEBAAEBMH@Z	; glm::tvec3<float,0>::operator[]
	mov	QWORD PTR tv248[rsp], rax
	mov	edx, 2
	mov	rcx, QWORD PTR m$[rsp]
	call	??A?$tmat3x3@M$0A@@glm@@QEBAAEBU?$tvec3@M$0A@@1@H@Z ; glm::tmat3x3<float,0>::operator[]
	mov	edx, 2
	mov	rcx, rax
	call	??A?$tvec3@M$0A@@glm@@QEBAAEBMH@Z	; glm::tvec3<float,0>::operator[]
	mov	rcx, QWORD PTR tv248[rsp]
	movss	xmm0, DWORD PTR [rcx]
	mulss	xmm0, DWORD PTR [rax]
	movss	DWORD PTR tv256[rsp], xmm0
	mov	edx, 2
	mov	rcx, QWORD PTR m$[rsp]
	call	??A?$tmat3x3@M$0A@@glm@@QEBAAEBU?$tvec3@M$0A@@1@H@Z ; glm::tmat3x3<float,0>::operator[]
	xor	edx, edx
	mov	rcx, rax
	call	??A?$tvec3@M$0A@@glm@@QEBAAEBMH@Z	; glm::tvec3<float,0>::operator[]
	mov	QWORD PTR tv261[rsp], rax
	mov	edx, 1
	mov	rcx, QWORD PTR m$[rsp]
	call	??A?$tmat3x3@M$0A@@glm@@QEBAAEBU?$tvec3@M$0A@@1@H@Z ; glm::tmat3x3<float,0>::operator[]
	mov	edx, 2
	mov	rcx, rax
	call	??A?$tvec3@M$0A@@glm@@QEBAAEBMH@Z	; glm::tvec3<float,0>::operator[]
	mov	rcx, QWORD PTR tv261[rsp]
	movss	xmm0, DWORD PTR [rcx]
	mulss	xmm0, DWORD PTR [rax]
	movss	xmm1, DWORD PTR tv256[rsp]
	subss	xmm1, xmm0
	movaps	xmm0, xmm1
	xorps	xmm0, DWORD PTR __xmm@80000000800000008000000080000000
	mulss	xmm0, DWORD PTR OneOverDeterminant$[rsp]
	movss	DWORD PTR tv273[rsp], xmm0
	mov	edx, 1
	lea	rcx, QWORD PTR Inverse$[rsp]
	call	??A?$tmat3x3@M$0A@@glm@@QEAAAEAU?$tvec3@M$0A@@1@H@Z ; glm::tmat3x3<float,0>::operator[]
	xor	edx, edx
	mov	rcx, rax
	call	??A?$tvec3@M$0A@@glm@@QEAAAEAMH@Z	; glm::tvec3<float,0>::operator[]
	movss	xmm0, DWORD PTR tv273[rsp]
	movss	DWORD PTR [rax], xmm0

; 284  : 			Inverse[2][0] = + (m[1][0] * m[2][1] - m[2][0] * m[1][1]) * OneOverDeterminant;

	mov	edx, 1
	mov	rcx, QWORD PTR m$[rsp]
	call	??A?$tmat3x3@M$0A@@glm@@QEBAAEBU?$tvec3@M$0A@@1@H@Z ; glm::tmat3x3<float,0>::operator[]
	xor	edx, edx
	mov	rcx, rax
	call	??A?$tvec3@M$0A@@glm@@QEBAAEBMH@Z	; glm::tvec3<float,0>::operator[]
	mov	QWORD PTR tv284[rsp], rax
	mov	edx, 2
	mov	rcx, QWORD PTR m$[rsp]
	call	??A?$tmat3x3@M$0A@@glm@@QEBAAEBU?$tvec3@M$0A@@1@H@Z ; glm::tmat3x3<float,0>::operator[]
	mov	edx, 1
	mov	rcx, rax
	call	??A?$tvec3@M$0A@@glm@@QEBAAEBMH@Z	; glm::tvec3<float,0>::operator[]
	mov	rcx, QWORD PTR tv284[rsp]
	movss	xmm0, DWORD PTR [rcx]
	mulss	xmm0, DWORD PTR [rax]
	movss	DWORD PTR tv292[rsp], xmm0
	mov	edx, 2
	mov	rcx, QWORD PTR m$[rsp]
	call	??A?$tmat3x3@M$0A@@glm@@QEBAAEBU?$tvec3@M$0A@@1@H@Z ; glm::tmat3x3<float,0>::operator[]
	xor	edx, edx
	mov	rcx, rax
	call	??A?$tvec3@M$0A@@glm@@QEBAAEBMH@Z	; glm::tvec3<float,0>::operator[]
	mov	QWORD PTR tv297[rsp], rax
	mov	edx, 1
	mov	rcx, QWORD PTR m$[rsp]
	call	??A?$tmat3x3@M$0A@@glm@@QEBAAEBU?$tvec3@M$0A@@1@H@Z ; glm::tmat3x3<float,0>::operator[]
	mov	edx, 1
	mov	rcx, rax
	call	??A?$tvec3@M$0A@@glm@@QEBAAEBMH@Z	; glm::tvec3<float,0>::operator[]
	mov	rcx, QWORD PTR tv297[rsp]
	movss	xmm0, DWORD PTR [rcx]
	mulss	xmm0, DWORD PTR [rax]
	movss	xmm1, DWORD PTR tv292[rsp]
	subss	xmm1, xmm0
	movaps	xmm0, xmm1
	mulss	xmm0, DWORD PTR OneOverDeterminant$[rsp]
	movss	DWORD PTR tv308[rsp], xmm0
	mov	edx, 2
	lea	rcx, QWORD PTR Inverse$[rsp]
	call	??A?$tmat3x3@M$0A@@glm@@QEAAAEAU?$tvec3@M$0A@@1@H@Z ; glm::tmat3x3<float,0>::operator[]
	xor	edx, edx
	mov	rcx, rax
	call	??A?$tvec3@M$0A@@glm@@QEAAAEAMH@Z	; glm::tvec3<float,0>::operator[]
	movss	xmm0, DWORD PTR tv308[rsp]
	movss	DWORD PTR [rax], xmm0

; 285  : 			Inverse[0][1] = - (m[0][1] * m[2][2] - m[2][1] * m[0][2]) * OneOverDeterminant;

	xor	edx, edx
	mov	rcx, QWORD PTR m$[rsp]
	call	??A?$tmat3x3@M$0A@@glm@@QEBAAEBU?$tvec3@M$0A@@1@H@Z ; glm::tmat3x3<float,0>::operator[]
	mov	edx, 1
	mov	rcx, rax
	call	??A?$tvec3@M$0A@@glm@@QEBAAEBMH@Z	; glm::tvec3<float,0>::operator[]
	mov	QWORD PTR tv319[rsp], rax
	mov	edx, 2
	mov	rcx, QWORD PTR m$[rsp]
	call	??A?$tmat3x3@M$0A@@glm@@QEBAAEBU?$tvec3@M$0A@@1@H@Z ; glm::tmat3x3<float,0>::operator[]
	mov	edx, 2
	mov	rcx, rax
	call	??A?$tvec3@M$0A@@glm@@QEBAAEBMH@Z	; glm::tvec3<float,0>::operator[]
	mov	rcx, QWORD PTR tv319[rsp]
	movss	xmm0, DWORD PTR [rcx]
	mulss	xmm0, DWORD PTR [rax]
	movss	DWORD PTR tv327[rsp], xmm0
	mov	edx, 2
	mov	rcx, QWORD PTR m$[rsp]
	call	??A?$tmat3x3@M$0A@@glm@@QEBAAEBU?$tvec3@M$0A@@1@H@Z ; glm::tmat3x3<float,0>::operator[]
	mov	edx, 1
	mov	rcx, rax
	call	??A?$tvec3@M$0A@@glm@@QEBAAEBMH@Z	; glm::tvec3<float,0>::operator[]
	mov	QWORD PTR tv332[rsp], rax
	xor	edx, edx
	mov	rcx, QWORD PTR m$[rsp]
	call	??A?$tmat3x3@M$0A@@glm@@QEBAAEBU?$tvec3@M$0A@@1@H@Z ; glm::tmat3x3<float,0>::operator[]
	mov	edx, 2
	mov	rcx, rax
	call	??A?$tvec3@M$0A@@glm@@QEBAAEBMH@Z	; glm::tvec3<float,0>::operator[]
	mov	rcx, QWORD PTR tv332[rsp]
	movss	xmm0, DWORD PTR [rcx]
	mulss	xmm0, DWORD PTR [rax]
	movss	xmm1, DWORD PTR tv327[rsp]
	subss	xmm1, xmm0
	movaps	xmm0, xmm1
	xorps	xmm0, DWORD PTR __xmm@80000000800000008000000080000000
	mulss	xmm0, DWORD PTR OneOverDeterminant$[rsp]
	movss	DWORD PTR tv344[rsp], xmm0
	xor	edx, edx
	lea	rcx, QWORD PTR Inverse$[rsp]
	call	??A?$tmat3x3@M$0A@@glm@@QEAAAEAU?$tvec3@M$0A@@1@H@Z ; glm::tmat3x3<float,0>::operator[]
	mov	edx, 1
	mov	rcx, rax
	call	??A?$tvec3@M$0A@@glm@@QEAAAEAMH@Z	; glm::tvec3<float,0>::operator[]
	movss	xmm0, DWORD PTR tv344[rsp]
	movss	DWORD PTR [rax], xmm0

; 286  : 			Inverse[1][1] = + (m[0][0] * m[2][2] - m[2][0] * m[0][2]) * OneOverDeterminant;

	xor	edx, edx
	mov	rcx, QWORD PTR m$[rsp]
	call	??A?$tmat3x3@M$0A@@glm@@QEBAAEBU?$tvec3@M$0A@@1@H@Z ; glm::tmat3x3<float,0>::operator[]
	xor	edx, edx
	mov	rcx, rax
	call	??A?$tvec3@M$0A@@glm@@QEBAAEBMH@Z	; glm::tvec3<float,0>::operator[]
	mov	QWORD PTR tv355[rsp], rax
	mov	edx, 2
	mov	rcx, QWORD PTR m$[rsp]
	call	??A?$tmat3x3@M$0A@@glm@@QEBAAEBU?$tvec3@M$0A@@1@H@Z ; glm::tmat3x3<float,0>::operator[]
	mov	edx, 2
	mov	rcx, rax
	call	??A?$tvec3@M$0A@@glm@@QEBAAEBMH@Z	; glm::tvec3<float,0>::operator[]
	mov	rcx, QWORD PTR tv355[rsp]
	movss	xmm0, DWORD PTR [rcx]
	mulss	xmm0, DWORD PTR [rax]
	movss	DWORD PTR tv363[rsp], xmm0
	mov	edx, 2
	mov	rcx, QWORD PTR m$[rsp]
	call	??A?$tmat3x3@M$0A@@glm@@QEBAAEBU?$tvec3@M$0A@@1@H@Z ; glm::tmat3x3<float,0>::operator[]
	xor	edx, edx
	mov	rcx, rax
	call	??A?$tvec3@M$0A@@glm@@QEBAAEBMH@Z	; glm::tvec3<float,0>::operator[]
	mov	QWORD PTR tv368[rsp], rax
	xor	edx, edx
	mov	rcx, QWORD PTR m$[rsp]
	call	??A?$tmat3x3@M$0A@@glm@@QEBAAEBU?$tvec3@M$0A@@1@H@Z ; glm::tmat3x3<float,0>::operator[]
	mov	edx, 2
	mov	rcx, rax
	call	??A?$tvec3@M$0A@@glm@@QEBAAEBMH@Z	; glm::tvec3<float,0>::operator[]
	mov	rcx, QWORD PTR tv368[rsp]
	movss	xmm0, DWORD PTR [rcx]
	mulss	xmm0, DWORD PTR [rax]
	movss	xmm1, DWORD PTR tv363[rsp]
	subss	xmm1, xmm0
	movaps	xmm0, xmm1
	mulss	xmm0, DWORD PTR OneOverDeterminant$[rsp]
	movss	DWORD PTR tv379[rsp], xmm0
	mov	edx, 1
	lea	rcx, QWORD PTR Inverse$[rsp]
	call	??A?$tmat3x3@M$0A@@glm@@QEAAAEAU?$tvec3@M$0A@@1@H@Z ; glm::tmat3x3<float,0>::operator[]
	mov	edx, 1
	mov	rcx, rax
	call	??A?$tvec3@M$0A@@glm@@QEAAAEAMH@Z	; glm::tvec3<float,0>::operator[]
	movss	xmm0, DWORD PTR tv379[rsp]
	movss	DWORD PTR [rax], xmm0

; 287  : 			Inverse[2][1] = - (m[0][0] * m[2][1] - m[2][0] * m[0][1]) * OneOverDeterminant;

	xor	edx, edx
	mov	rcx, QWORD PTR m$[rsp]
	call	??A?$tmat3x3@M$0A@@glm@@QEBAAEBU?$tvec3@M$0A@@1@H@Z ; glm::tmat3x3<float,0>::operator[]
	xor	edx, edx
	mov	rcx, rax
	call	??A?$tvec3@M$0A@@glm@@QEBAAEBMH@Z	; glm::tvec3<float,0>::operator[]
	mov	QWORD PTR tv390[rsp], rax
	mov	edx, 2
	mov	rcx, QWORD PTR m$[rsp]
	call	??A?$tmat3x3@M$0A@@glm@@QEBAAEBU?$tvec3@M$0A@@1@H@Z ; glm::tmat3x3<float,0>::operator[]
	mov	edx, 1
	mov	rcx, rax
	call	??A?$tvec3@M$0A@@glm@@QEBAAEBMH@Z	; glm::tvec3<float,0>::operator[]
	mov	rcx, QWORD PTR tv390[rsp]
	movss	xmm0, DWORD PTR [rcx]
	mulss	xmm0, DWORD PTR [rax]
	movss	DWORD PTR tv398[rsp], xmm0
	mov	edx, 2
	mov	rcx, QWORD PTR m$[rsp]
	call	??A?$tmat3x3@M$0A@@glm@@QEBAAEBU?$tvec3@M$0A@@1@H@Z ; glm::tmat3x3<float,0>::operator[]
	xor	edx, edx
	mov	rcx, rax
	call	??A?$tvec3@M$0A@@glm@@QEBAAEBMH@Z	; glm::tvec3<float,0>::operator[]
	mov	QWORD PTR tv403[rsp], rax
	xor	edx, edx
	mov	rcx, QWORD PTR m$[rsp]
	call	??A?$tmat3x3@M$0A@@glm@@QEBAAEBU?$tvec3@M$0A@@1@H@Z ; glm::tmat3x3<float,0>::operator[]
	mov	edx, 1
	mov	rcx, rax
	call	??A?$tvec3@M$0A@@glm@@QEBAAEBMH@Z	; glm::tvec3<float,0>::operator[]
	mov	rcx, QWORD PTR tv403[rsp]
	movss	xmm0, DWORD PTR [rcx]
	mulss	xmm0, DWORD PTR [rax]
	movss	xmm1, DWORD PTR tv398[rsp]
	subss	xmm1, xmm0
	movaps	xmm0, xmm1
	xorps	xmm0, DWORD PTR __xmm@80000000800000008000000080000000
	mulss	xmm0, DWORD PTR OneOverDeterminant$[rsp]
	movss	DWORD PTR tv415[rsp], xmm0
	mov	edx, 2
	lea	rcx, QWORD PTR Inverse$[rsp]
	call	??A?$tmat3x3@M$0A@@glm@@QEAAAEAU?$tvec3@M$0A@@1@H@Z ; glm::tmat3x3<float,0>::operator[]
	mov	edx, 1
	mov	rcx, rax
	call	??A?$tvec3@M$0A@@glm@@QEAAAEAMH@Z	; glm::tvec3<float,0>::operator[]
	movss	xmm0, DWORD PTR tv415[rsp]
	movss	DWORD PTR [rax], xmm0

; 288  : 			Inverse[0][2] = + (m[0][1] * m[1][2] - m[1][1] * m[0][2]) * OneOverDeterminant;

	xor	edx, edx
	mov	rcx, QWORD PTR m$[rsp]
	call	??A?$tmat3x3@M$0A@@glm@@QEBAAEBU?$tvec3@M$0A@@1@H@Z ; glm::tmat3x3<float,0>::operator[]
	mov	edx, 1
	mov	rcx, rax
	call	??A?$tvec3@M$0A@@glm@@QEBAAEBMH@Z	; glm::tvec3<float,0>::operator[]
	mov	QWORD PTR tv426[rsp], rax
	mov	edx, 1
	mov	rcx, QWORD PTR m$[rsp]
	call	??A?$tmat3x3@M$0A@@glm@@QEBAAEBU?$tvec3@M$0A@@1@H@Z ; glm::tmat3x3<float,0>::operator[]
	mov	edx, 2
	mov	rcx, rax
	call	??A?$tvec3@M$0A@@glm@@QEBAAEBMH@Z	; glm::tvec3<float,0>::operator[]
	mov	rcx, QWORD PTR tv426[rsp]
	movss	xmm0, DWORD PTR [rcx]
	mulss	xmm0, DWORD PTR [rax]
	movss	DWORD PTR tv434[rsp], xmm0
	mov	edx, 1
	mov	rcx, QWORD PTR m$[rsp]
	call	??A?$tmat3x3@M$0A@@glm@@QEBAAEBU?$tvec3@M$0A@@1@H@Z ; glm::tmat3x3<float,0>::operator[]
	mov	edx, 1
	mov	rcx, rax
	call	??A?$tvec3@M$0A@@glm@@QEBAAEBMH@Z	; glm::tvec3<float,0>::operator[]
	mov	QWORD PTR tv439[rsp], rax
	xor	edx, edx
	mov	rcx, QWORD PTR m$[rsp]
	call	??A?$tmat3x3@M$0A@@glm@@QEBAAEBU?$tvec3@M$0A@@1@H@Z ; glm::tmat3x3<float,0>::operator[]
	mov	edx, 2
	mov	rcx, rax
	call	??A?$tvec3@M$0A@@glm@@QEBAAEBMH@Z	; glm::tvec3<float,0>::operator[]
	mov	rcx, QWORD PTR tv439[rsp]
	movss	xmm0, DWORD PTR [rcx]
	mulss	xmm0, DWORD PTR [rax]
	movss	xmm1, DWORD PTR tv434[rsp]
	subss	xmm1, xmm0
	movaps	xmm0, xmm1
	mulss	xmm0, DWORD PTR OneOverDeterminant$[rsp]
	movss	DWORD PTR tv450[rsp], xmm0
	xor	edx, edx
	lea	rcx, QWORD PTR Inverse$[rsp]
	call	??A?$tmat3x3@M$0A@@glm@@QEAAAEAU?$tvec3@M$0A@@1@H@Z ; glm::tmat3x3<float,0>::operator[]
	mov	edx, 2
	mov	rcx, rax
	call	??A?$tvec3@M$0A@@glm@@QEAAAEAMH@Z	; glm::tvec3<float,0>::operator[]
	movss	xmm0, DWORD PTR tv450[rsp]
	movss	DWORD PTR [rax], xmm0

; 289  : 			Inverse[1][2] = - (m[0][0] * m[1][2] - m[1][0] * m[0][2]) * OneOverDeterminant;

	xor	edx, edx
	mov	rcx, QWORD PTR m$[rsp]
	call	??A?$tmat3x3@M$0A@@glm@@QEBAAEBU?$tvec3@M$0A@@1@H@Z ; glm::tmat3x3<float,0>::operator[]
	xor	edx, edx
	mov	rcx, rax
	call	??A?$tvec3@M$0A@@glm@@QEBAAEBMH@Z	; glm::tvec3<float,0>::operator[]
	mov	QWORD PTR tv461[rsp], rax
	mov	edx, 1
	mov	rcx, QWORD PTR m$[rsp]
	call	??A?$tmat3x3@M$0A@@glm@@QEBAAEBU?$tvec3@M$0A@@1@H@Z ; glm::tmat3x3<float,0>::operator[]
	mov	edx, 2
	mov	rcx, rax
	call	??A?$tvec3@M$0A@@glm@@QEBAAEBMH@Z	; glm::tvec3<float,0>::operator[]
	mov	rcx, QWORD PTR tv461[rsp]
	movss	xmm0, DWORD PTR [rcx]
	mulss	xmm0, DWORD PTR [rax]
	movss	DWORD PTR tv469[rsp], xmm0
	mov	edx, 1
	mov	rcx, QWORD PTR m$[rsp]
	call	??A?$tmat3x3@M$0A@@glm@@QEBAAEBU?$tvec3@M$0A@@1@H@Z ; glm::tmat3x3<float,0>::operator[]
	xor	edx, edx
	mov	rcx, rax
	call	??A?$tvec3@M$0A@@glm@@QEBAAEBMH@Z	; glm::tvec3<float,0>::operator[]
	mov	QWORD PTR tv474[rsp], rax
	xor	edx, edx
	mov	rcx, QWORD PTR m$[rsp]
	call	??A?$tmat3x3@M$0A@@glm@@QEBAAEBU?$tvec3@M$0A@@1@H@Z ; glm::tmat3x3<float,0>::operator[]
	mov	edx, 2
	mov	rcx, rax
	call	??A?$tvec3@M$0A@@glm@@QEBAAEBMH@Z	; glm::tvec3<float,0>::operator[]
	mov	rcx, QWORD PTR tv474[rsp]
	movss	xmm0, DWORD PTR [rcx]
	mulss	xmm0, DWORD PTR [rax]
	movss	xmm1, DWORD PTR tv469[rsp]
	subss	xmm1, xmm0
	movaps	xmm0, xmm1
	xorps	xmm0, DWORD PTR __xmm@80000000800000008000000080000000
	mulss	xmm0, DWORD PTR OneOverDeterminant$[rsp]
	movss	DWORD PTR tv486[rsp], xmm0
	mov	edx, 1
	lea	rcx, QWORD PTR Inverse$[rsp]
	call	??A?$tmat3x3@M$0A@@glm@@QEAAAEAU?$tvec3@M$0A@@1@H@Z ; glm::tmat3x3<float,0>::operator[]
	mov	edx, 2
	mov	rcx, rax
	call	??A?$tvec3@M$0A@@glm@@QEAAAEAMH@Z	; glm::tvec3<float,0>::operator[]
	movss	xmm0, DWORD PTR tv486[rsp]
	movss	DWORD PTR [rax], xmm0

; 290  : 			Inverse[2][2] = + (m[0][0] * m[1][1] - m[1][0] * m[0][1]) * OneOverDeterminant;

	xor	edx, edx
	mov	rcx, QWORD PTR m$[rsp]
	call	??A?$tmat3x3@M$0A@@glm@@QEBAAEBU?$tvec3@M$0A@@1@H@Z ; glm::tmat3x3<float,0>::operator[]
	xor	edx, edx
	mov	rcx, rax
	call	??A?$tvec3@M$0A@@glm@@QEBAAEBMH@Z	; glm::tvec3<float,0>::operator[]
	mov	QWORD PTR tv497[rsp], rax
	mov	edx, 1
	mov	rcx, QWORD PTR m$[rsp]
	call	??A?$tmat3x3@M$0A@@glm@@QEBAAEBU?$tvec3@M$0A@@1@H@Z ; glm::tmat3x3<float,0>::operator[]
	mov	edx, 1
	mov	rcx, rax
	call	??A?$tvec3@M$0A@@glm@@QEBAAEBMH@Z	; glm::tvec3<float,0>::operator[]
	mov	rcx, QWORD PTR tv497[rsp]
	movss	xmm0, DWORD PTR [rcx]
	mulss	xmm0, DWORD PTR [rax]
	movss	DWORD PTR tv505[rsp], xmm0
	mov	edx, 1
	mov	rcx, QWORD PTR m$[rsp]
	call	??A?$tmat3x3@M$0A@@glm@@QEBAAEBU?$tvec3@M$0A@@1@H@Z ; glm::tmat3x3<float,0>::operator[]
	xor	edx, edx
	mov	rcx, rax
	call	??A?$tvec3@M$0A@@glm@@QEBAAEBMH@Z	; glm::tvec3<float,0>::operator[]
	mov	QWORD PTR tv510[rsp], rax
	xor	edx, edx
	mov	rcx, QWORD PTR m$[rsp]
	call	??A?$tmat3x3@M$0A@@glm@@QEBAAEBU?$tvec3@M$0A@@1@H@Z ; glm::tmat3x3<float,0>::operator[]
	mov	edx, 1
	mov	rcx, rax
	call	??A?$tvec3@M$0A@@glm@@QEBAAEBMH@Z	; glm::tvec3<float,0>::operator[]
	mov	rcx, QWORD PTR tv510[rsp]
	movss	xmm0, DWORD PTR [rcx]
	mulss	xmm0, DWORD PTR [rax]
	movss	xmm1, DWORD PTR tv505[rsp]
	subss	xmm1, xmm0
	movaps	xmm0, xmm1
	mulss	xmm0, DWORD PTR OneOverDeterminant$[rsp]
	movss	DWORD PTR tv521[rsp], xmm0
	mov	edx, 2
	lea	rcx, QWORD PTR Inverse$[rsp]
	call	??A?$tmat3x3@M$0A@@glm@@QEAAAEAU?$tvec3@M$0A@@1@H@Z ; glm::tmat3x3<float,0>::operator[]
	mov	edx, 2
	mov	rcx, rax
	call	??A?$tvec3@M$0A@@glm@@QEAAAEAMH@Z	; glm::tvec3<float,0>::operator[]
	movss	xmm0, DWORD PTR tv521[rsp]
	movss	DWORD PTR [rax], xmm0

; 291  : 
; 292  : 			return Inverse;

	lea	rax, QWORD PTR Inverse$[rsp]
	mov	rdi, QWORD PTR __$ReturnUdt$[rsp]
	mov	rsi, rax
	mov	ecx, 36					; 00000024H
	rep movsb
	mov	rax, QWORD PTR __$ReturnUdt$[rsp]

; 293  : 		}

	mov	rdi, rax
	mov	rcx, rsp
	lea	rdx, OFFSET FLAT:?call@?$compute_inverse@Utmat3x3@glm@@M$0A@$0A@@detail@glm@@SA?AU?$tmat3x3@M$0A@@3@AEBU43@@Z$rtcFrameData
	call	_RTC_CheckStackVars
	mov	rax, rdi
	mov	rcx, QWORD PTR __$ArrayPad$[rsp]
	xor	rcx, rsp
	call	__security_check_cookie
	add	rsp, 536				; 00000218H
	pop	rdi
	pop	rsi
	ret	0
?call@?$compute_inverse@Utmat3x3@glm@@M$0A@$0A@@detail@glm@@SA?AU?$tmat3x3@M$0A@@3@AEBU43@@Z ENDP ; glm::detail::compute_inverse<glm::tmat3x3,float,0,0>::call
_TEXT	ENDS
; Function compile flags: /Odtp /RTCsu
; File C:\Users\ksart\OneDrive\Desktop\FlappyBird\libraries\external\glm\glm\detail\type_vec4.inl
;	COMDAT ??$?HM$0A@@glm@@YA?AU?$tvec4@M$0A@@0@AEBU10@0@Z
_TEXT	SEGMENT
$T1 = 32
__$ReturnUdt$ = 80
v1$ = 88
v2$ = 96
??$?HM$0A@@glm@@YA?AU?$tvec4@M$0A@@0@AEBU10@0@Z PROC	; glm::operator+<float,0>, COMDAT

; 658  : 	{

$LN3:
	mov	QWORD PTR [rsp+24], r8
	mov	QWORD PTR [rsp+16], rdx
	mov	QWORD PTR [rsp+8], rcx
	push	rsi
	push	rdi
	sub	rsp, 56					; 00000038H

; 659  : 		return tvec4<T, P>(v1) += v2;

	lea	rax, QWORD PTR $T1[rsp]
	mov	rdi, rax
	mov	rsi, QWORD PTR v1$[rsp]
	mov	ecx, 16
	rep movsb
	mov	rdx, QWORD PTR v2$[rsp]
	lea	rcx, QWORD PTR $T1[rsp]
	call	??$?YM@?$tvec4@M$0A@@glm@@QEAAAEAU01@AEBU01@@Z ; glm::tvec4<float,0>::operator+=<float>
	mov	rdi, QWORD PTR __$ReturnUdt$[rsp]
	mov	rsi, rax
	mov	ecx, 16
	rep movsb
	mov	rax, QWORD PTR __$ReturnUdt$[rsp]

; 660  : 	}

	add	rsp, 56					; 00000038H
	pop	rdi
	pop	rsi
	ret	0
??$?HM$0A@@glm@@YA?AU?$tvec4@M$0A@@0@AEBU10@0@Z ENDP	; glm::operator+<float,0>
_TEXT	ENDS
; Function compile flags: /Odtp /RTCsu
; File C:\Users\ksart\OneDrive\Desktop\FlappyBird\libraries\external\glm\glm\detail\func_matrix.inl
;	COMDAT ?call@?$compute_inverse@Utmat4x4@glm@@M$0A@$0A@@detail@glm@@SA?AU?$tmat4x4@M$0A@@3@AEBU43@@Z
_TEXT	SEGMENT
Coef00$ = 48
Coef02$ = 52
Coef03$ = 56
Coef04$ = 60
Coef06$ = 64
Coef07$ = 68
Coef08$ = 72
Coef10$ = 76
Coef11$ = 80
Coef12$ = 84
Coef14$ = 88
Coef15$ = 92
Coef16$ = 96
Coef18$ = 100
Coef19$ = 104
Coef20$ = 108
Coef22$ = 112
Coef23$ = 116
Fac0$ = 136
Fac1$ = 184
Fac2$ = 232
Fac3$ = 280
Fac4$ = 328
Fac5$ = 376
Vec0$ = 424
Vec1$ = 472
Vec2$ = 520
Vec3$ = 568
Inv0$ = 616
Inv1$ = 664
Inv2$ = 712
Inv3$ = 760
SignA$ = 808
SignB$ = 856
Inverse$ = 912
Row0$ = 1000
Dot0$ = 1048
Dot1$ = 1076
OneOverDeterminant$ = 1092
$T23 = 1120
$T24 = 1136
$T25 = 1152
$T26 = 1168
$T27 = 1184
$T28 = 1200
$T29 = 1216
$T30 = 1232
$T31 = 1248
$T32 = 1264
$T33 = 1280
$T34 = 1296
$T35 = 1312
$T36 = 1328
$T37 = 1344
$T38 = 1360
$T39 = 1376
$T40 = 1392
$T41 = 1408
$T42 = 1424
tv68 = 1440
tv76 = 1448
tv81 = 1456
tv95 = 1464
tv135 = 1472
tv140 = 1480
tv154 = 1488
tv162 = 1496
tv167 = 1504
tv181 = 1512
tv189 = 1520
tv194 = 1528
tv208 = 1536
tv216 = 1544
tv221 = 1552
tv235 = 1560
tv243 = 1568
tv248 = 1576
tv262 = 1584
tv270 = 1592
tv275 = 1600
tv289 = 1608
tv297 = 1616
tv302 = 1624
tv316 = 1632
tv324 = 1640
tv329 = 1648
tv343 = 1656
tv351 = 1664
tv356 = 1672
tv370 = 1680
tv378 = 1688
tv383 = 1696
tv397 = 1704
tv405 = 1712
tv410 = 1720
tv424 = 1728
tv432 = 1736
tv437 = 1744
tv451 = 1752
tv459 = 1760
tv464 = 1768
tv478 = 1776
tv486 = 1784
tv491 = 1792
tv505 = 1800
tv513 = 1808
tv518 = 1816
tv532 = 1824
tv540 = 1832
tv545 = 1840
tv559 = 1848
tv567 = 1856
tv572 = 1864
tv618 = 1872
tv625 = 1880
tv632 = 1888
tv647 = 1896
tv654 = 1904
tv661 = 1912
tv676 = 1920
tv683 = 1928
tv690 = 1936
tv705 = 1944
tv712 = 1952
tv719 = 1960
tv729 = 1968
tv735 = 1976
tv780 = 1984
tv786 = 1992
tv799 = 2000
tv805 = 2008
tv818 = 2016
tv824 = 2024
tv848 = 2032
tv853 = 2040
tv858 = 2048
tv873 = 2056
tv880 = 2064
tv887 = 2072
__$ArrayPad$ = 2080
__$ReturnUdt$ = 2112
m$ = 2120
?call@?$compute_inverse@Utmat4x4@glm@@M$0A@$0A@@detail@glm@@SA?AU?$tmat4x4@M$0A@@3@AEBU43@@Z PROC ; glm::detail::compute_inverse<glm::tmat4x4,float,0,0>::call, COMDAT

; 300  : 		{

$LN3:
	mov	QWORD PTR [rsp+16], rdx
	mov	QWORD PTR [rsp+8], rcx
	push	rdi
	sub	rsp, 2096				; 00000830H
	lea	rdi, QWORD PTR [rsp+48]
	mov	ecx, 512				; 00000200H
	mov	eax, -858993460				; ccccccccH
	rep stosd
	mov	rcx, QWORD PTR [rsp+2112]
	mov	rax, QWORD PTR __security_cookie
	xor	rax, rsp
	mov	QWORD PTR __$ArrayPad$[rsp], rax

; 301  : 			T Coef00 = m[2][2] * m[3][3] - m[3][2] * m[2][3];

	mov	edx, 2
	mov	rcx, QWORD PTR m$[rsp]
	call	??A?$tmat4x4@M$0A@@glm@@QEBAAEBU?$tvec4@M$0A@@1@H@Z ; glm::tmat4x4<float,0>::operator[]
	mov	edx, 2
	mov	rcx, rax
	call	??A?$tvec4@M$0A@@glm@@QEBAAEBMH@Z	; glm::tvec4<float,0>::operator[]
	mov	QWORD PTR tv68[rsp], rax
	mov	edx, 3
	mov	rcx, QWORD PTR m$[rsp]
	call	??A?$tmat4x4@M$0A@@glm@@QEBAAEBU?$tvec4@M$0A@@1@H@Z ; glm::tmat4x4<float,0>::operator[]
	mov	edx, 3
	mov	rcx, rax
	call	??A?$tvec4@M$0A@@glm@@QEBAAEBMH@Z	; glm::tvec4<float,0>::operator[]
	mov	rcx, QWORD PTR tv68[rsp]
	movss	xmm0, DWORD PTR [rcx]
	mulss	xmm0, DWORD PTR [rax]
	movss	DWORD PTR tv76[rsp], xmm0
	mov	edx, 3
	mov	rcx, QWORD PTR m$[rsp]
	call	??A?$tmat4x4@M$0A@@glm@@QEBAAEBU?$tvec4@M$0A@@1@H@Z ; glm::tmat4x4<float,0>::operator[]
	mov	edx, 2
	mov	rcx, rax
	call	??A?$tvec4@M$0A@@glm@@QEBAAEBMH@Z	; glm::tvec4<float,0>::operator[]
	mov	QWORD PTR tv81[rsp], rax
	mov	edx, 2
	mov	rcx, QWORD PTR m$[rsp]
	call	??A?$tmat4x4@M$0A@@glm@@QEBAAEBU?$tvec4@M$0A@@1@H@Z ; glm::tmat4x4<float,0>::operator[]
	mov	edx, 3
	mov	rcx, rax
	call	??A?$tvec4@M$0A@@glm@@QEBAAEBMH@Z	; glm::tvec4<float,0>::operator[]
	mov	rcx, QWORD PTR tv81[rsp]
	movss	xmm0, DWORD PTR [rcx]
	mulss	xmm0, DWORD PTR [rax]
	movss	xmm1, DWORD PTR tv76[rsp]
	subss	xmm1, xmm0
	movaps	xmm0, xmm1
	movss	DWORD PTR Coef00$[rsp], xmm0

; 302  : 			T Coef02 = m[1][2] * m[3][3] - m[3][2] * m[1][3];

	mov	edx, 1
	mov	rcx, QWORD PTR m$[rsp]
	call	??A?$tmat4x4@M$0A@@glm@@QEBAAEBU?$tvec4@M$0A@@1@H@Z ; glm::tmat4x4<float,0>::operator[]
	mov	edx, 2
	mov	rcx, rax
	call	??A?$tvec4@M$0A@@glm@@QEBAAEBMH@Z	; glm::tvec4<float,0>::operator[]
	mov	QWORD PTR tv95[rsp], rax
	mov	edx, 3
	mov	rcx, QWORD PTR m$[rsp]
	call	??A?$tmat4x4@M$0A@@glm@@QEBAAEBU?$tvec4@M$0A@@1@H@Z ; glm::tmat4x4<float,0>::operator[]
	mov	edx, 3
	mov	rcx, rax
	call	??A?$tvec4@M$0A@@glm@@QEBAAEBMH@Z	; glm::tvec4<float,0>::operator[]
	mov	rcx, QWORD PTR tv95[rsp]
	movss	xmm0, DWORD PTR [rcx]
	mulss	xmm0, DWORD PTR [rax]
	movss	DWORD PTR tv135[rsp], xmm0
	mov	edx, 3
	mov	rcx, QWORD PTR m$[rsp]
	call	??A?$tmat4x4@M$0A@@glm@@QEBAAEBU?$tvec4@M$0A@@1@H@Z ; glm::tmat4x4<float,0>::operator[]
	mov	edx, 2
	mov	rcx, rax
	call	??A?$tvec4@M$0A@@glm@@QEBAAEBMH@Z	; glm::tvec4<float,0>::operator[]
	mov	QWORD PTR tv140[rsp], rax
	mov	edx, 1
	mov	rcx, QWORD PTR m$[rsp]
	call	??A?$tmat4x4@M$0A@@glm@@QEBAAEBU?$tvec4@M$0A@@1@H@Z ; glm::tmat4x4<float,0>::operator[]
	mov	edx, 3
	mov	rcx, rax
	call	??A?$tvec4@M$0A@@glm@@QEBAAEBMH@Z	; glm::tvec4<float,0>::operator[]
	mov	rcx, QWORD PTR tv140[rsp]
	movss	xmm0, DWORD PTR [rcx]
	mulss	xmm0, DWORD PTR [rax]
	movss	xmm1, DWORD PTR tv135[rsp]
	subss	xmm1, xmm0
	movaps	xmm0, xmm1
	movss	DWORD PTR Coef02$[rsp], xmm0

; 303  : 			T Coef03 = m[1][2] * m[2][3] - m[2][2] * m[1][3];

	mov	edx, 1
	mov	rcx, QWORD PTR m$[rsp]
	call	??A?$tmat4x4@M$0A@@glm@@QEBAAEBU?$tvec4@M$0A@@1@H@Z ; glm::tmat4x4<float,0>::operator[]
	mov	edx, 2
	mov	rcx, rax
	call	??A?$tvec4@M$0A@@glm@@QEBAAEBMH@Z	; glm::tvec4<float,0>::operator[]
	mov	QWORD PTR tv154[rsp], rax
	mov	edx, 2
	mov	rcx, QWORD PTR m$[rsp]
	call	??A?$tmat4x4@M$0A@@glm@@QEBAAEBU?$tvec4@M$0A@@1@H@Z ; glm::tmat4x4<float,0>::operator[]
	mov	edx, 3
	mov	rcx, rax
	call	??A?$tvec4@M$0A@@glm@@QEBAAEBMH@Z	; glm::tvec4<float,0>::operator[]
	mov	rcx, QWORD PTR tv154[rsp]
	movss	xmm0, DWORD PTR [rcx]
	mulss	xmm0, DWORD PTR [rax]
	movss	DWORD PTR tv162[rsp], xmm0
	mov	edx, 2
	mov	rcx, QWORD PTR m$[rsp]
	call	??A?$tmat4x4@M$0A@@glm@@QEBAAEBU?$tvec4@M$0A@@1@H@Z ; glm::tmat4x4<float,0>::operator[]
	mov	edx, 2
	mov	rcx, rax
	call	??A?$tvec4@M$0A@@glm@@QEBAAEBMH@Z	; glm::tvec4<float,0>::operator[]
	mov	QWORD PTR tv167[rsp], rax
	mov	edx, 1
	mov	rcx, QWORD PTR m$[rsp]
	call	??A?$tmat4x4@M$0A@@glm@@QEBAAEBU?$tvec4@M$0A@@1@H@Z ; glm::tmat4x4<float,0>::operator[]
	mov	edx, 3
	mov	rcx, rax
	call	??A?$tvec4@M$0A@@glm@@QEBAAEBMH@Z	; glm::tvec4<float,0>::operator[]
	mov	rcx, QWORD PTR tv167[rsp]
	movss	xmm0, DWORD PTR [rcx]
	mulss	xmm0, DWORD PTR [rax]
	movss	xmm1, DWORD PTR tv162[rsp]
	subss	xmm1, xmm0
	movaps	xmm0, xmm1
	movss	DWORD PTR Coef03$[rsp], xmm0

; 304  : 
; 305  : 			T Coef04 = m[2][1] * m[3][3] - m[3][1] * m[2][3];

	mov	edx, 2
	mov	rcx, QWORD PTR m$[rsp]
	call	??A?$tmat4x4@M$0A@@glm@@QEBAAEBU?$tvec4@M$0A@@1@H@Z ; glm::tmat4x4<float,0>::operator[]
	mov	edx, 1
	mov	rcx, rax
	call	??A?$tvec4@M$0A@@glm@@QEBAAEBMH@Z	; glm::tvec4<float,0>::operator[]
	mov	QWORD PTR tv181[rsp], rax
	mov	edx, 3
	mov	rcx, QWORD PTR m$[rsp]
	call	??A?$tmat4x4@M$0A@@glm@@QEBAAEBU?$tvec4@M$0A@@1@H@Z ; glm::tmat4x4<float,0>::operator[]
	mov	edx, 3
	mov	rcx, rax
	call	??A?$tvec4@M$0A@@glm@@QEBAAEBMH@Z	; glm::tvec4<float,0>::operator[]
	mov	rcx, QWORD PTR tv181[rsp]
	movss	xmm0, DWORD PTR [rcx]
	mulss	xmm0, DWORD PTR [rax]
	movss	DWORD PTR tv189[rsp], xmm0
	mov	edx, 3
	mov	rcx, QWORD PTR m$[rsp]
	call	??A?$tmat4x4@M$0A@@glm@@QEBAAEBU?$tvec4@M$0A@@1@H@Z ; glm::tmat4x4<float,0>::operator[]
	mov	edx, 1
	mov	rcx, rax
	call	??A?$tvec4@M$0A@@glm@@QEBAAEBMH@Z	; glm::tvec4<float,0>::operator[]
	mov	QWORD PTR tv194[rsp], rax
	mov	edx, 2
	mov	rcx, QWORD PTR m$[rsp]
	call	??A?$tmat4x4@M$0A@@glm@@QEBAAEBU?$tvec4@M$0A@@1@H@Z ; glm::tmat4x4<float,0>::operator[]
	mov	edx, 3
	mov	rcx, rax
	call	??A?$tvec4@M$0A@@glm@@QEBAAEBMH@Z	; glm::tvec4<float,0>::operator[]
	mov	rcx, QWORD PTR tv194[rsp]
	movss	xmm0, DWORD PTR [rcx]
	mulss	xmm0, DWORD PTR [rax]
	movss	xmm1, DWORD PTR tv189[rsp]
	subss	xmm1, xmm0
	movaps	xmm0, xmm1
	movss	DWORD PTR Coef04$[rsp], xmm0

; 306  : 			T Coef06 = m[1][1] * m[3][3] - m[3][1] * m[1][3];

	mov	edx, 1
	mov	rcx, QWORD PTR m$[rsp]
	call	??A?$tmat4x4@M$0A@@glm@@QEBAAEBU?$tvec4@M$0A@@1@H@Z ; glm::tmat4x4<float,0>::operator[]
	mov	edx, 1
	mov	rcx, rax
	call	??A?$tvec4@M$0A@@glm@@QEBAAEBMH@Z	; glm::tvec4<float,0>::operator[]
	mov	QWORD PTR tv208[rsp], rax
	mov	edx, 3
	mov	rcx, QWORD PTR m$[rsp]
	call	??A?$tmat4x4@M$0A@@glm@@QEBAAEBU?$tvec4@M$0A@@1@H@Z ; glm::tmat4x4<float,0>::operator[]
	mov	edx, 3
	mov	rcx, rax
	call	??A?$tvec4@M$0A@@glm@@QEBAAEBMH@Z	; glm::tvec4<float,0>::operator[]
	mov	rcx, QWORD PTR tv208[rsp]
	movss	xmm0, DWORD PTR [rcx]
	mulss	xmm0, DWORD PTR [rax]
	movss	DWORD PTR tv216[rsp], xmm0
	mov	edx, 3
	mov	rcx, QWORD PTR m$[rsp]
	call	??A?$tmat4x4@M$0A@@glm@@QEBAAEBU?$tvec4@M$0A@@1@H@Z ; glm::tmat4x4<float,0>::operator[]
	mov	edx, 1
	mov	rcx, rax
	call	??A?$tvec4@M$0A@@glm@@QEBAAEBMH@Z	; glm::tvec4<float,0>::operator[]
	mov	QWORD PTR tv221[rsp], rax
	mov	edx, 1
	mov	rcx, QWORD PTR m$[rsp]
	call	??A?$tmat4x4@M$0A@@glm@@QEBAAEBU?$tvec4@M$0A@@1@H@Z ; glm::tmat4x4<float,0>::operator[]
	mov	edx, 3
	mov	rcx, rax
	call	??A?$tvec4@M$0A@@glm@@QEBAAEBMH@Z	; glm::tvec4<float,0>::operator[]
	mov	rcx, QWORD PTR tv221[rsp]
	movss	xmm0, DWORD PTR [rcx]
	mulss	xmm0, DWORD PTR [rax]
	movss	xmm1, DWORD PTR tv216[rsp]
	subss	xmm1, xmm0
	movaps	xmm0, xmm1
	movss	DWORD PTR Coef06$[rsp], xmm0

; 307  : 			T Coef07 = m[1][1] * m[2][3] - m[2][1] * m[1][3];

	mov	edx, 1
	mov	rcx, QWORD PTR m$[rsp]
	call	??A?$tmat4x4@M$0A@@glm@@QEBAAEBU?$tvec4@M$0A@@1@H@Z ; glm::tmat4x4<float,0>::operator[]
	mov	edx, 1
	mov	rcx, rax
	call	??A?$tvec4@M$0A@@glm@@QEBAAEBMH@Z	; glm::tvec4<float,0>::operator[]
	mov	QWORD PTR tv235[rsp], rax
	mov	edx, 2
	mov	rcx, QWORD PTR m$[rsp]
	call	??A?$tmat4x4@M$0A@@glm@@QEBAAEBU?$tvec4@M$0A@@1@H@Z ; glm::tmat4x4<float,0>::operator[]
	mov	edx, 3
	mov	rcx, rax
	call	??A?$tvec4@M$0A@@glm@@QEBAAEBMH@Z	; glm::tvec4<float,0>::operator[]
	mov	rcx, QWORD PTR tv235[rsp]
	movss	xmm0, DWORD PTR [rcx]
	mulss	xmm0, DWORD PTR [rax]
	movss	DWORD PTR tv243[rsp], xmm0
	mov	edx, 2
	mov	rcx, QWORD PTR m$[rsp]
	call	??A?$tmat4x4@M$0A@@glm@@QEBAAEBU?$tvec4@M$0A@@1@H@Z ; glm::tmat4x4<float,0>::operator[]
	mov	edx, 1
	mov	rcx, rax
	call	??A?$tvec4@M$0A@@glm@@QEBAAEBMH@Z	; glm::tvec4<float,0>::operator[]
	mov	QWORD PTR tv248[rsp], rax
	mov	edx, 1
	mov	rcx, QWORD PTR m$[rsp]
	call	??A?$tmat4x4@M$0A@@glm@@QEBAAEBU?$tvec4@M$0A@@1@H@Z ; glm::tmat4x4<float,0>::operator[]
	mov	edx, 3
	mov	rcx, rax
	call	??A?$tvec4@M$0A@@glm@@QEBAAEBMH@Z	; glm::tvec4<float,0>::operator[]
	mov	rcx, QWORD PTR tv248[rsp]
	movss	xmm0, DWORD PTR [rcx]
	mulss	xmm0, DWORD PTR [rax]
	movss	xmm1, DWORD PTR tv243[rsp]
	subss	xmm1, xmm0
	movaps	xmm0, xmm1
	movss	DWORD PTR Coef07$[rsp], xmm0

; 308  : 
; 309  : 			T Coef08 = m[2][1] * m[3][2] - m[3][1] * m[2][2];

	mov	edx, 2
	mov	rcx, QWORD PTR m$[rsp]
	call	??A?$tmat4x4@M$0A@@glm@@QEBAAEBU?$tvec4@M$0A@@1@H@Z ; glm::tmat4x4<float,0>::operator[]
	mov	edx, 1
	mov	rcx, rax
	call	??A?$tvec4@M$0A@@glm@@QEBAAEBMH@Z	; glm::tvec4<float,0>::operator[]
	mov	QWORD PTR tv262[rsp], rax
	mov	edx, 3
	mov	rcx, QWORD PTR m$[rsp]
	call	??A?$tmat4x4@M$0A@@glm@@QEBAAEBU?$tvec4@M$0A@@1@H@Z ; glm::tmat4x4<float,0>::operator[]
	mov	edx, 2
	mov	rcx, rax
	call	??A?$tvec4@M$0A@@glm@@QEBAAEBMH@Z	; glm::tvec4<float,0>::operator[]
	mov	rcx, QWORD PTR tv262[rsp]
	movss	xmm0, DWORD PTR [rcx]
	mulss	xmm0, DWORD PTR [rax]
	movss	DWORD PTR tv270[rsp], xmm0
	mov	edx, 3
	mov	rcx, QWORD PTR m$[rsp]
	call	??A?$tmat4x4@M$0A@@glm@@QEBAAEBU?$tvec4@M$0A@@1@H@Z ; glm::tmat4x4<float,0>::operator[]
	mov	edx, 1
	mov	rcx, rax
	call	??A?$tvec4@M$0A@@glm@@QEBAAEBMH@Z	; glm::tvec4<float,0>::operator[]
	mov	QWORD PTR tv275[rsp], rax
	mov	edx, 2
	mov	rcx, QWORD PTR m$[rsp]
	call	??A?$tmat4x4@M$0A@@glm@@QEBAAEBU?$tvec4@M$0A@@1@H@Z ; glm::tmat4x4<float,0>::operator[]
	mov	edx, 2
	mov	rcx, rax
	call	??A?$tvec4@M$0A@@glm@@QEBAAEBMH@Z	; glm::tvec4<float,0>::operator[]
	mov	rcx, QWORD PTR tv275[rsp]
	movss	xmm0, DWORD PTR [rcx]
	mulss	xmm0, DWORD PTR [rax]
	movss	xmm1, DWORD PTR tv270[rsp]
	subss	xmm1, xmm0
	movaps	xmm0, xmm1
	movss	DWORD PTR Coef08$[rsp], xmm0

; 310  : 			T Coef10 = m[1][1] * m[3][2] - m[3][1] * m[1][2];

	mov	edx, 1
	mov	rcx, QWORD PTR m$[rsp]
	call	??A?$tmat4x4@M$0A@@glm@@QEBAAEBU?$tvec4@M$0A@@1@H@Z ; glm::tmat4x4<float,0>::operator[]
	mov	edx, 1
	mov	rcx, rax
	call	??A?$tvec4@M$0A@@glm@@QEBAAEBMH@Z	; glm::tvec4<float,0>::operator[]
	mov	QWORD PTR tv289[rsp], rax
	mov	edx, 3
	mov	rcx, QWORD PTR m$[rsp]
	call	??A?$tmat4x4@M$0A@@glm@@QEBAAEBU?$tvec4@M$0A@@1@H@Z ; glm::tmat4x4<float,0>::operator[]
	mov	edx, 2
	mov	rcx, rax
	call	??A?$tvec4@M$0A@@glm@@QEBAAEBMH@Z	; glm::tvec4<float,0>::operator[]
	mov	rcx, QWORD PTR tv289[rsp]
	movss	xmm0, DWORD PTR [rcx]
	mulss	xmm0, DWORD PTR [rax]
	movss	DWORD PTR tv297[rsp], xmm0
	mov	edx, 3
	mov	rcx, QWORD PTR m$[rsp]
	call	??A?$tmat4x4@M$0A@@glm@@QEBAAEBU?$tvec4@M$0A@@1@H@Z ; glm::tmat4x4<float,0>::operator[]
	mov	edx, 1
	mov	rcx, rax
	call	??A?$tvec4@M$0A@@glm@@QEBAAEBMH@Z	; glm::tvec4<float,0>::operator[]
	mov	QWORD PTR tv302[rsp], rax
	mov	edx, 1
	mov	rcx, QWORD PTR m$[rsp]
	call	??A?$tmat4x4@M$0A@@glm@@QEBAAEBU?$tvec4@M$0A@@1@H@Z ; glm::tmat4x4<float,0>::operator[]
	mov	edx, 2
	mov	rcx, rax
	call	??A?$tvec4@M$0A@@glm@@QEBAAEBMH@Z	; glm::tvec4<float,0>::operator[]
	mov	rcx, QWORD PTR tv302[rsp]
	movss	xmm0, DWORD PTR [rcx]
	mulss	xmm0, DWORD PTR [rax]
	movss	xmm1, DWORD PTR tv297[rsp]
	subss	xmm1, xmm0
	movaps	xmm0, xmm1
	movss	DWORD PTR Coef10$[rsp], xmm0

; 311  : 			T Coef11 = m[1][1] * m[2][2] - m[2][1] * m[1][2];

	mov	edx, 1
	mov	rcx, QWORD PTR m$[rsp]
	call	??A?$tmat4x4@M$0A@@glm@@QEBAAEBU?$tvec4@M$0A@@1@H@Z ; glm::tmat4x4<float,0>::operator[]
	mov	edx, 1
	mov	rcx, rax
	call	??A?$tvec4@M$0A@@glm@@QEBAAEBMH@Z	; glm::tvec4<float,0>::operator[]
	mov	QWORD PTR tv316[rsp], rax
	mov	edx, 2
	mov	rcx, QWORD PTR m$[rsp]
	call	??A?$tmat4x4@M$0A@@glm@@QEBAAEBU?$tvec4@M$0A@@1@H@Z ; glm::tmat4x4<float,0>::operator[]
	mov	edx, 2
	mov	rcx, rax
	call	??A?$tvec4@M$0A@@glm@@QEBAAEBMH@Z	; glm::tvec4<float,0>::operator[]
	mov	rcx, QWORD PTR tv316[rsp]
	movss	xmm0, DWORD PTR [rcx]
	mulss	xmm0, DWORD PTR [rax]
	movss	DWORD PTR tv324[rsp], xmm0
	mov	edx, 2
	mov	rcx, QWORD PTR m$[rsp]
	call	??A?$tmat4x4@M$0A@@glm@@QEBAAEBU?$tvec4@M$0A@@1@H@Z ; glm::tmat4x4<float,0>::operator[]
	mov	edx, 1
	mov	rcx, rax
	call	??A?$tvec4@M$0A@@glm@@QEBAAEBMH@Z	; glm::tvec4<float,0>::operator[]
	mov	QWORD PTR tv329[rsp], rax
	mov	edx, 1
	mov	rcx, QWORD PTR m$[rsp]
	call	??A?$tmat4x4@M$0A@@glm@@QEBAAEBU?$tvec4@M$0A@@1@H@Z ; glm::tmat4x4<float,0>::operator[]
	mov	edx, 2
	mov	rcx, rax
	call	??A?$tvec4@M$0A@@glm@@QEBAAEBMH@Z	; glm::tvec4<float,0>::operator[]
	mov	rcx, QWORD PTR tv329[rsp]
	movss	xmm0, DWORD PTR [rcx]
	mulss	xmm0, DWORD PTR [rax]
	movss	xmm1, DWORD PTR tv324[rsp]
	subss	xmm1, xmm0
	movaps	xmm0, xmm1
	movss	DWORD PTR Coef11$[rsp], xmm0

; 312  : 
; 313  : 			T Coef12 = m[2][0] * m[3][3] - m[3][0] * m[2][3];

	mov	edx, 2
	mov	rcx, QWORD PTR m$[rsp]
	call	??A?$tmat4x4@M$0A@@glm@@QEBAAEBU?$tvec4@M$0A@@1@H@Z ; glm::tmat4x4<float,0>::operator[]
	xor	edx, edx
	mov	rcx, rax
	call	??A?$tvec4@M$0A@@glm@@QEBAAEBMH@Z	; glm::tvec4<float,0>::operator[]
	mov	QWORD PTR tv343[rsp], rax
	mov	edx, 3
	mov	rcx, QWORD PTR m$[rsp]
	call	??A?$tmat4x4@M$0A@@glm@@QEBAAEBU?$tvec4@M$0A@@1@H@Z ; glm::tmat4x4<float,0>::operator[]
	mov	edx, 3
	mov	rcx, rax
	call	??A?$tvec4@M$0A@@glm@@QEBAAEBMH@Z	; glm::tvec4<float,0>::operator[]
	mov	rcx, QWORD PTR tv343[rsp]
	movss	xmm0, DWORD PTR [rcx]
	mulss	xmm0, DWORD PTR [rax]
	movss	DWORD PTR tv351[rsp], xmm0
	mov	edx, 3
	mov	rcx, QWORD PTR m$[rsp]
	call	??A?$tmat4x4@M$0A@@glm@@QEBAAEBU?$tvec4@M$0A@@1@H@Z ; glm::tmat4x4<float,0>::operator[]
	xor	edx, edx
	mov	rcx, rax
	call	??A?$tvec4@M$0A@@glm@@QEBAAEBMH@Z	; glm::tvec4<float,0>::operator[]
	mov	QWORD PTR tv356[rsp], rax
	mov	edx, 2
	mov	rcx, QWORD PTR m$[rsp]
	call	??A?$tmat4x4@M$0A@@glm@@QEBAAEBU?$tvec4@M$0A@@1@H@Z ; glm::tmat4x4<float,0>::operator[]
	mov	edx, 3
	mov	rcx, rax
	call	??A?$tvec4@M$0A@@glm@@QEBAAEBMH@Z	; glm::tvec4<float,0>::operator[]
	mov	rcx, QWORD PTR tv356[rsp]
	movss	xmm0, DWORD PTR [rcx]
	mulss	xmm0, DWORD PTR [rax]
	movss	xmm1, DWORD PTR tv351[rsp]
	subss	xmm1, xmm0
	movaps	xmm0, xmm1
	movss	DWORD PTR Coef12$[rsp], xmm0

; 314  : 			T Coef14 = m[1][0] * m[3][3] - m[3][0] * m[1][3];

	mov	edx, 1
	mov	rcx, QWORD PTR m$[rsp]
	call	??A?$tmat4x4@M$0A@@glm@@QEBAAEBU?$tvec4@M$0A@@1@H@Z ; glm::tmat4x4<float,0>::operator[]
	xor	edx, edx
	mov	rcx, rax
	call	??A?$tvec4@M$0A@@glm@@QEBAAEBMH@Z	; glm::tvec4<float,0>::operator[]
	mov	QWORD PTR tv370[rsp], rax
	mov	edx, 3
	mov	rcx, QWORD PTR m$[rsp]
	call	??A?$tmat4x4@M$0A@@glm@@QEBAAEBU?$tvec4@M$0A@@1@H@Z ; glm::tmat4x4<float,0>::operator[]
	mov	edx, 3
	mov	rcx, rax
	call	??A?$tvec4@M$0A@@glm@@QEBAAEBMH@Z	; glm::tvec4<float,0>::operator[]
	mov	rcx, QWORD PTR tv370[rsp]
	movss	xmm0, DWORD PTR [rcx]
	mulss	xmm0, DWORD PTR [rax]
	movss	DWORD PTR tv378[rsp], xmm0
	mov	edx, 3
	mov	rcx, QWORD PTR m$[rsp]
	call	??A?$tmat4x4@M$0A@@glm@@QEBAAEBU?$tvec4@M$0A@@1@H@Z ; glm::tmat4x4<float,0>::operator[]
	xor	edx, edx
	mov	rcx, rax
	call	??A?$tvec4@M$0A@@glm@@QEBAAEBMH@Z	; glm::tvec4<float,0>::operator[]
	mov	QWORD PTR tv383[rsp], rax
	mov	edx, 1
	mov	rcx, QWORD PTR m$[rsp]
	call	??A?$tmat4x4@M$0A@@glm@@QEBAAEBU?$tvec4@M$0A@@1@H@Z ; glm::tmat4x4<float,0>::operator[]
	mov	edx, 3
	mov	rcx, rax
	call	??A?$tvec4@M$0A@@glm@@QEBAAEBMH@Z	; glm::tvec4<float,0>::operator[]
	mov	rcx, QWORD PTR tv383[rsp]
	movss	xmm0, DWORD PTR [rcx]
	mulss	xmm0, DWORD PTR [rax]
	movss	xmm1, DWORD PTR tv378[rsp]
	subss	xmm1, xmm0
	movaps	xmm0, xmm1
	movss	DWORD PTR Coef14$[rsp], xmm0

; 315  : 			T Coef15 = m[1][0] * m[2][3] - m[2][0] * m[1][3];

	mov	edx, 1
	mov	rcx, QWORD PTR m$[rsp]
	call	??A?$tmat4x4@M$0A@@glm@@QEBAAEBU?$tvec4@M$0A@@1@H@Z ; glm::tmat4x4<float,0>::operator[]
	xor	edx, edx
	mov	rcx, rax
	call	??A?$tvec4@M$0A@@glm@@QEBAAEBMH@Z	; glm::tvec4<float,0>::operator[]
	mov	QWORD PTR tv397[rsp], rax
	mov	edx, 2
	mov	rcx, QWORD PTR m$[rsp]
	call	??A?$tmat4x4@M$0A@@glm@@QEBAAEBU?$tvec4@M$0A@@1@H@Z ; glm::tmat4x4<float,0>::operator[]
	mov	edx, 3
	mov	rcx, rax
	call	??A?$tvec4@M$0A@@glm@@QEBAAEBMH@Z	; glm::tvec4<float,0>::operator[]
	mov	rcx, QWORD PTR tv397[rsp]
	movss	xmm0, DWORD PTR [rcx]
	mulss	xmm0, DWORD PTR [rax]
	movss	DWORD PTR tv405[rsp], xmm0
	mov	edx, 2
	mov	rcx, QWORD PTR m$[rsp]
	call	??A?$tmat4x4@M$0A@@glm@@QEBAAEBU?$tvec4@M$0A@@1@H@Z ; glm::tmat4x4<float,0>::operator[]
	xor	edx, edx
	mov	rcx, rax
	call	??A?$tvec4@M$0A@@glm@@QEBAAEBMH@Z	; glm::tvec4<float,0>::operator[]
	mov	QWORD PTR tv410[rsp], rax
	mov	edx, 1
	mov	rcx, QWORD PTR m$[rsp]
	call	??A?$tmat4x4@M$0A@@glm@@QEBAAEBU?$tvec4@M$0A@@1@H@Z ; glm::tmat4x4<float,0>::operator[]
	mov	edx, 3
	mov	rcx, rax
	call	??A?$tvec4@M$0A@@glm@@QEBAAEBMH@Z	; glm::tvec4<float,0>::operator[]
	mov	rcx, QWORD PTR tv410[rsp]
	movss	xmm0, DWORD PTR [rcx]
	mulss	xmm0, DWORD PTR [rax]
	movss	xmm1, DWORD PTR tv405[rsp]
	subss	xmm1, xmm0
	movaps	xmm0, xmm1
	movss	DWORD PTR Coef15$[rsp], xmm0

; 316  : 
; 317  : 			T Coef16 = m[2][0] * m[3][2] - m[3][0] * m[2][2];

	mov	edx, 2
	mov	rcx, QWORD PTR m$[rsp]
	call	??A?$tmat4x4@M$0A@@glm@@QEBAAEBU?$tvec4@M$0A@@1@H@Z ; glm::tmat4x4<float,0>::operator[]
	xor	edx, edx
	mov	rcx, rax
	call	??A?$tvec4@M$0A@@glm@@QEBAAEBMH@Z	; glm::tvec4<float,0>::operator[]
	mov	QWORD PTR tv424[rsp], rax
	mov	edx, 3
	mov	rcx, QWORD PTR m$[rsp]
	call	??A?$tmat4x4@M$0A@@glm@@QEBAAEBU?$tvec4@M$0A@@1@H@Z ; glm::tmat4x4<float,0>::operator[]
	mov	edx, 2
	mov	rcx, rax
	call	??A?$tvec4@M$0A@@glm@@QEBAAEBMH@Z	; glm::tvec4<float,0>::operator[]
	mov	rcx, QWORD PTR tv424[rsp]
	movss	xmm0, DWORD PTR [rcx]
	mulss	xmm0, DWORD PTR [rax]
	movss	DWORD PTR tv432[rsp], xmm0
	mov	edx, 3
	mov	rcx, QWORD PTR m$[rsp]
	call	??A?$tmat4x4@M$0A@@glm@@QEBAAEBU?$tvec4@M$0A@@1@H@Z ; glm::tmat4x4<float,0>::operator[]
	xor	edx, edx
	mov	rcx, rax
	call	??A?$tvec4@M$0A@@glm@@QEBAAEBMH@Z	; glm::tvec4<float,0>::operator[]
	mov	QWORD PTR tv437[rsp], rax
	mov	edx, 2
	mov	rcx, QWORD PTR m$[rsp]
	call	??A?$tmat4x4@M$0A@@glm@@QEBAAEBU?$tvec4@M$0A@@1@H@Z ; glm::tmat4x4<float,0>::operator[]
	mov	edx, 2
	mov	rcx, rax
	call	??A?$tvec4@M$0A@@glm@@QEBAAEBMH@Z	; glm::tvec4<float,0>::operator[]
	mov	rcx, QWORD PTR tv437[rsp]
	movss	xmm0, DWORD PTR [rcx]
	mulss	xmm0, DWORD PTR [rax]
	movss	xmm1, DWORD PTR tv432[rsp]
	subss	xmm1, xmm0
	movaps	xmm0, xmm1
	movss	DWORD PTR Coef16$[rsp], xmm0

; 318  : 			T Coef18 = m[1][0] * m[3][2] - m[3][0] * m[1][2];

	mov	edx, 1
	mov	rcx, QWORD PTR m$[rsp]
	call	??A?$tmat4x4@M$0A@@glm@@QEBAAEBU?$tvec4@M$0A@@1@H@Z ; glm::tmat4x4<float,0>::operator[]
	xor	edx, edx
	mov	rcx, rax
	call	??A?$tvec4@M$0A@@glm@@QEBAAEBMH@Z	; glm::tvec4<float,0>::operator[]
	mov	QWORD PTR tv451[rsp], rax
	mov	edx, 3
	mov	rcx, QWORD PTR m$[rsp]
	call	??A?$tmat4x4@M$0A@@glm@@QEBAAEBU?$tvec4@M$0A@@1@H@Z ; glm::tmat4x4<float,0>::operator[]
	mov	edx, 2
	mov	rcx, rax
	call	??A?$tvec4@M$0A@@glm@@QEBAAEBMH@Z	; glm::tvec4<float,0>::operator[]
	mov	rcx, QWORD PTR tv451[rsp]
	movss	xmm0, DWORD PTR [rcx]
	mulss	xmm0, DWORD PTR [rax]
	movss	DWORD PTR tv459[rsp], xmm0
	mov	edx, 3
	mov	rcx, QWORD PTR m$[rsp]
	call	??A?$tmat4x4@M$0A@@glm@@QEBAAEBU?$tvec4@M$0A@@1@H@Z ; glm::tmat4x4<float,0>::operator[]
	xor	edx, edx
	mov	rcx, rax
	call	??A?$tvec4@M$0A@@glm@@QEBAAEBMH@Z	; glm::tvec4<float,0>::operator[]
	mov	QWORD PTR tv464[rsp], rax
	mov	edx, 1
	mov	rcx, QWORD PTR m$[rsp]
	call	??A?$tmat4x4@M$0A@@glm@@QEBAAEBU?$tvec4@M$0A@@1@H@Z ; glm::tmat4x4<float,0>::operator[]
	mov	edx, 2
	mov	rcx, rax
	call	??A?$tvec4@M$0A@@glm@@QEBAAEBMH@Z	; glm::tvec4<float,0>::operator[]
	mov	rcx, QWORD PTR tv464[rsp]
	movss	xmm0, DWORD PTR [rcx]
	mulss	xmm0, DWORD PTR [rax]
	movss	xmm1, DWORD PTR tv459[rsp]
	subss	xmm1, xmm0
	movaps	xmm0, xmm1
	movss	DWORD PTR Coef18$[rsp], xmm0

; 319  : 			T Coef19 = m[1][0] * m[2][2] - m[2][0] * m[1][2];

	mov	edx, 1
	mov	rcx, QWORD PTR m$[rsp]
	call	??A?$tmat4x4@M$0A@@glm@@QEBAAEBU?$tvec4@M$0A@@1@H@Z ; glm::tmat4x4<float,0>::operator[]
	xor	edx, edx
	mov	rcx, rax
	call	??A?$tvec4@M$0A@@glm@@QEBAAEBMH@Z	; glm::tvec4<float,0>::operator[]
	mov	QWORD PTR tv478[rsp], rax
	mov	edx, 2
	mov	rcx, QWORD PTR m$[rsp]
	call	??A?$tmat4x4@M$0A@@glm@@QEBAAEBU?$tvec4@M$0A@@1@H@Z ; glm::tmat4x4<float,0>::operator[]
	mov	edx, 2
	mov	rcx, rax
	call	??A?$tvec4@M$0A@@glm@@QEBAAEBMH@Z	; glm::tvec4<float,0>::operator[]
	mov	rcx, QWORD PTR tv478[rsp]
	movss	xmm0, DWORD PTR [rcx]
	mulss	xmm0, DWORD PTR [rax]
	movss	DWORD PTR tv486[rsp], xmm0
	mov	edx, 2
	mov	rcx, QWORD PTR m$[rsp]
	call	??A?$tmat4x4@M$0A@@glm@@QEBAAEBU?$tvec4@M$0A@@1@H@Z ; glm::tmat4x4<float,0>::operator[]
	xor	edx, edx
	mov	rcx, rax
	call	??A?$tvec4@M$0A@@glm@@QEBAAEBMH@Z	; glm::tvec4<float,0>::operator[]
	mov	QWORD PTR tv491[rsp], rax
	mov	edx, 1
	mov	rcx, QWORD PTR m$[rsp]
	call	??A?$tmat4x4@M$0A@@glm@@QEBAAEBU?$tvec4@M$0A@@1@H@Z ; glm::tmat4x4<float,0>::operator[]
	mov	edx, 2
	mov	rcx, rax
	call	??A?$tvec4@M$0A@@glm@@QEBAAEBMH@Z	; glm::tvec4<float,0>::operator[]
	mov	rcx, QWORD PTR tv491[rsp]
	movss	xmm0, DWORD PTR [rcx]
	mulss	xmm0, DWORD PTR [rax]
	movss	xmm1, DWORD PTR tv486[rsp]
	subss	xmm1, xmm0
	movaps	xmm0, xmm1
	movss	DWORD PTR Coef19$[rsp], xmm0

; 320  : 
; 321  : 			T Coef20 = m[2][0] * m[3][1] - m[3][0] * m[2][1];

	mov	edx, 2
	mov	rcx, QWORD PTR m$[rsp]
	call	??A?$tmat4x4@M$0A@@glm@@QEBAAEBU?$tvec4@M$0A@@1@H@Z ; glm::tmat4x4<float,0>::operator[]
	xor	edx, edx
	mov	rcx, rax
	call	??A?$tvec4@M$0A@@glm@@QEBAAEBMH@Z	; glm::tvec4<float,0>::operator[]
	mov	QWORD PTR tv505[rsp], rax
	mov	edx, 3
	mov	rcx, QWORD PTR m$[rsp]
	call	??A?$tmat4x4@M$0A@@glm@@QEBAAEBU?$tvec4@M$0A@@1@H@Z ; glm::tmat4x4<float,0>::operator[]
	mov	edx, 1
	mov	rcx, rax
	call	??A?$tvec4@M$0A@@glm@@QEBAAEBMH@Z	; glm::tvec4<float,0>::operator[]
	mov	rcx, QWORD PTR tv505[rsp]
	movss	xmm0, DWORD PTR [rcx]
	mulss	xmm0, DWORD PTR [rax]
	movss	DWORD PTR tv513[rsp], xmm0
	mov	edx, 3
	mov	rcx, QWORD PTR m$[rsp]
	call	??A?$tmat4x4@M$0A@@glm@@QEBAAEBU?$tvec4@M$0A@@1@H@Z ; glm::tmat4x4<float,0>::operator[]
	xor	edx, edx
	mov	rcx, rax
	call	??A?$tvec4@M$0A@@glm@@QEBAAEBMH@Z	; glm::tvec4<float,0>::operator[]
	mov	QWORD PTR tv518[rsp], rax
	mov	edx, 2
	mov	rcx, QWORD PTR m$[rsp]
	call	??A?$tmat4x4@M$0A@@glm@@QEBAAEBU?$tvec4@M$0A@@1@H@Z ; glm::tmat4x4<float,0>::operator[]
	mov	edx, 1
	mov	rcx, rax
	call	??A?$tvec4@M$0A@@glm@@QEBAAEBMH@Z	; glm::tvec4<float,0>::operator[]
	mov	rcx, QWORD PTR tv518[rsp]
	movss	xmm0, DWORD PTR [rcx]
	mulss	xmm0, DWORD PTR [rax]
	movss	xmm1, DWORD PTR tv513[rsp]
	subss	xmm1, xmm0
	movaps	xmm0, xmm1
	movss	DWORD PTR Coef20$[rsp], xmm0

; 322  : 			T Coef22 = m[1][0] * m[3][1] - m[3][0] * m[1][1];

	mov	edx, 1
	mov	rcx, QWORD PTR m$[rsp]
	call	??A?$tmat4x4@M$0A@@glm@@QEBAAEBU?$tvec4@M$0A@@1@H@Z ; glm::tmat4x4<float,0>::operator[]
	xor	edx, edx
	mov	rcx, rax
	call	??A?$tvec4@M$0A@@glm@@QEBAAEBMH@Z	; glm::tvec4<float,0>::operator[]
	mov	QWORD PTR tv532[rsp], rax
	mov	edx, 3
	mov	rcx, QWORD PTR m$[rsp]
	call	??A?$tmat4x4@M$0A@@glm@@QEBAAEBU?$tvec4@M$0A@@1@H@Z ; glm::tmat4x4<float,0>::operator[]
	mov	edx, 1
	mov	rcx, rax
	call	??A?$tvec4@M$0A@@glm@@QEBAAEBMH@Z	; glm::tvec4<float,0>::operator[]
	mov	rcx, QWORD PTR tv532[rsp]
	movss	xmm0, DWORD PTR [rcx]
	mulss	xmm0, DWORD PTR [rax]
	movss	DWORD PTR tv540[rsp], xmm0
	mov	edx, 3
	mov	rcx, QWORD PTR m$[rsp]
	call	??A?$tmat4x4@M$0A@@glm@@QEBAAEBU?$tvec4@M$0A@@1@H@Z ; glm::tmat4x4<float,0>::operator[]
	xor	edx, edx
	mov	rcx, rax
	call	??A?$tvec4@M$0A@@glm@@QEBAAEBMH@Z	; glm::tvec4<float,0>::operator[]
	mov	QWORD PTR tv545[rsp], rax
	mov	edx, 1
	mov	rcx, QWORD PTR m$[rsp]
	call	??A?$tmat4x4@M$0A@@glm@@QEBAAEBU?$tvec4@M$0A@@1@H@Z ; glm::tmat4x4<float,0>::operator[]
	mov	edx, 1
	mov	rcx, rax
	call	??A?$tvec4@M$0A@@glm@@QEBAAEBMH@Z	; glm::tvec4<float,0>::operator[]
	mov	rcx, QWORD PTR tv545[rsp]
	movss	xmm0, DWORD PTR [rcx]
	mulss	xmm0, DWORD PTR [rax]
	movss	xmm1, DWORD PTR tv540[rsp]
	subss	xmm1, xmm0
	movaps	xmm0, xmm1
	movss	DWORD PTR Coef22$[rsp], xmm0

; 323  : 			T Coef23 = m[1][0] * m[2][1] - m[2][0] * m[1][1];

	mov	edx, 1
	mov	rcx, QWORD PTR m$[rsp]
	call	??A?$tmat4x4@M$0A@@glm@@QEBAAEBU?$tvec4@M$0A@@1@H@Z ; glm::tmat4x4<float,0>::operator[]
	xor	edx, edx
	mov	rcx, rax
	call	??A?$tvec4@M$0A@@glm@@QEBAAEBMH@Z	; glm::tvec4<float,0>::operator[]
	mov	QWORD PTR tv559[rsp], rax
	mov	edx, 2
	mov	rcx, QWORD PTR m$[rsp]
	call	??A?$tmat4x4@M$0A@@glm@@QEBAAEBU?$tvec4@M$0A@@1@H@Z ; glm::tmat4x4<float,0>::operator[]
	mov	edx, 1
	mov	rcx, rax
	call	??A?$tvec4@M$0A@@glm@@QEBAAEBMH@Z	; glm::tvec4<float,0>::operator[]
	mov	rcx, QWORD PTR tv559[rsp]
	movss	xmm0, DWORD PTR [rcx]
	mulss	xmm0, DWORD PTR [rax]
	movss	DWORD PTR tv567[rsp], xmm0
	mov	edx, 2
	mov	rcx, QWORD PTR m$[rsp]
	call	??A?$tmat4x4@M$0A@@glm@@QEBAAEBU?$tvec4@M$0A@@1@H@Z ; glm::tmat4x4<float,0>::operator[]
	xor	edx, edx
	mov	rcx, rax
	call	??A?$tvec4@M$0A@@glm@@QEBAAEBMH@Z	; glm::tvec4<float,0>::operator[]
	mov	QWORD PTR tv572[rsp], rax
	mov	edx, 1
	mov	rcx, QWORD PTR m$[rsp]
	call	??A?$tmat4x4@M$0A@@glm@@QEBAAEBU?$tvec4@M$0A@@1@H@Z ; glm::tmat4x4<float,0>::operator[]
	mov	edx, 1
	mov	rcx, rax
	call	??A?$tvec4@M$0A@@glm@@QEBAAEBMH@Z	; glm::tvec4<float,0>::operator[]
	mov	rcx, QWORD PTR tv572[rsp]
	movss	xmm0, DWORD PTR [rcx]
	mulss	xmm0, DWORD PTR [rax]
	movss	xmm1, DWORD PTR tv567[rsp]
	subss	xmm1, xmm0
	movaps	xmm0, xmm1
	movss	DWORD PTR Coef23$[rsp], xmm0

; 324  : 
; 325  : 			tvec4<T, P> Fac0(Coef00, Coef00, Coef02, Coef03);

	movss	xmm0, DWORD PTR Coef03$[rsp]
	movss	DWORD PTR [rsp+32], xmm0
	movss	xmm3, DWORD PTR Coef02$[rsp]
	movss	xmm2, DWORD PTR Coef00$[rsp]
	movss	xmm1, DWORD PTR Coef00$[rsp]
	lea	rcx, QWORD PTR Fac0$[rsp]
	call	??0?$tvec4@M$0A@@glm@@QEAA@MMMM@Z	; glm::tvec4<float,0>::tvec4<float,0>

; 326  : 			tvec4<T, P> Fac1(Coef04, Coef04, Coef06, Coef07);

	movss	xmm0, DWORD PTR Coef07$[rsp]
	movss	DWORD PTR [rsp+32], xmm0
	movss	xmm3, DWORD PTR Coef06$[rsp]
	movss	xmm2, DWORD PTR Coef04$[rsp]
	movss	xmm1, DWORD PTR Coef04$[rsp]
	lea	rcx, QWORD PTR Fac1$[rsp]
	call	??0?$tvec4@M$0A@@glm@@QEAA@MMMM@Z	; glm::tvec4<float,0>::tvec4<float,0>

; 327  : 			tvec4<T, P> Fac2(Coef08, Coef08, Coef10, Coef11);

	movss	xmm0, DWORD PTR Coef11$[rsp]
	movss	DWORD PTR [rsp+32], xmm0
	movss	xmm3, DWORD PTR Coef10$[rsp]
	movss	xmm2, DWORD PTR Coef08$[rsp]
	movss	xmm1, DWORD PTR Coef08$[rsp]
	lea	rcx, QWORD PTR Fac2$[rsp]
	call	??0?$tvec4@M$0A@@glm@@QEAA@MMMM@Z	; glm::tvec4<float,0>::tvec4<float,0>

; 328  : 			tvec4<T, P> Fac3(Coef12, Coef12, Coef14, Coef15);

	movss	xmm0, DWORD PTR Coef15$[rsp]
	movss	DWORD PTR [rsp+32], xmm0
	movss	xmm3, DWORD PTR Coef14$[rsp]
	movss	xmm2, DWORD PTR Coef12$[rsp]
	movss	xmm1, DWORD PTR Coef12$[rsp]
	lea	rcx, QWORD PTR Fac3$[rsp]
	call	??0?$tvec4@M$0A@@glm@@QEAA@MMMM@Z	; glm::tvec4<float,0>::tvec4<float,0>

; 329  : 			tvec4<T, P> Fac4(Coef16, Coef16, Coef18, Coef19);

	movss	xmm0, DWORD PTR Coef19$[rsp]
	movss	DWORD PTR [rsp+32], xmm0
	movss	xmm3, DWORD PTR Coef18$[rsp]
	movss	xmm2, DWORD PTR Coef16$[rsp]
	movss	xmm1, DWORD PTR Coef16$[rsp]
	lea	rcx, QWORD PTR Fac4$[rsp]
	call	??0?$tvec4@M$0A@@glm@@QEAA@MMMM@Z	; glm::tvec4<float,0>::tvec4<float,0>

; 330  : 			tvec4<T, P> Fac5(Coef20, Coef20, Coef22, Coef23);

	movss	xmm0, DWORD PTR Coef23$[rsp]
	movss	DWORD PTR [rsp+32], xmm0
	movss	xmm3, DWORD PTR Coef22$[rsp]
	movss	xmm2, DWORD PTR Coef20$[rsp]
	movss	xmm1, DWORD PTR Coef20$[rsp]
	lea	rcx, QWORD PTR Fac5$[rsp]
	call	??0?$tvec4@M$0A@@glm@@QEAA@MMMM@Z	; glm::tvec4<float,0>::tvec4<float,0>

; 331  : 
; 332  : 			tvec4<T, P> Vec0(m[1][0], m[0][0], m[0][0], m[0][0]);

	xor	edx, edx
	mov	rcx, QWORD PTR m$[rsp]
	call	??A?$tmat4x4@M$0A@@glm@@QEBAAEBU?$tvec4@M$0A@@1@H@Z ; glm::tmat4x4<float,0>::operator[]
	xor	edx, edx
	mov	rcx, rax
	call	??A?$tvec4@M$0A@@glm@@QEBAAEBMH@Z	; glm::tvec4<float,0>::operator[]
	mov	QWORD PTR tv618[rsp], rax
	xor	edx, edx
	mov	rcx, QWORD PTR m$[rsp]
	call	??A?$tmat4x4@M$0A@@glm@@QEBAAEBU?$tvec4@M$0A@@1@H@Z ; glm::tmat4x4<float,0>::operator[]
	xor	edx, edx
	mov	rcx, rax
	call	??A?$tvec4@M$0A@@glm@@QEBAAEBMH@Z	; glm::tvec4<float,0>::operator[]
	mov	QWORD PTR tv625[rsp], rax
	xor	edx, edx
	mov	rcx, QWORD PTR m$[rsp]
	call	??A?$tmat4x4@M$0A@@glm@@QEBAAEBU?$tvec4@M$0A@@1@H@Z ; glm::tmat4x4<float,0>::operator[]
	xor	edx, edx
	mov	rcx, rax
	call	??A?$tvec4@M$0A@@glm@@QEBAAEBMH@Z	; glm::tvec4<float,0>::operator[]
	mov	QWORD PTR tv632[rsp], rax
	mov	edx, 1
	mov	rcx, QWORD PTR m$[rsp]
	call	??A?$tmat4x4@M$0A@@glm@@QEBAAEBU?$tvec4@M$0A@@1@H@Z ; glm::tmat4x4<float,0>::operator[]
	xor	edx, edx
	mov	rcx, rax
	call	??A?$tvec4@M$0A@@glm@@QEBAAEBMH@Z	; glm::tvec4<float,0>::operator[]
	mov	rcx, QWORD PTR tv618[rsp]
	movss	xmm0, DWORD PTR [rcx]
	movss	DWORD PTR [rsp+32], xmm0
	mov	rcx, QWORD PTR tv625[rsp]
	movss	xmm3, DWORD PTR [rcx]
	mov	rcx, QWORD PTR tv632[rsp]
	movss	xmm2, DWORD PTR [rcx]
	movss	xmm1, DWORD PTR [rax]
	lea	rcx, QWORD PTR Vec0$[rsp]
	call	??0?$tvec4@M$0A@@glm@@QEAA@MMMM@Z	; glm::tvec4<float,0>::tvec4<float,0>

; 333  : 			tvec4<T, P> Vec1(m[1][1], m[0][1], m[0][1], m[0][1]);

	xor	edx, edx
	mov	rcx, QWORD PTR m$[rsp]
	call	??A?$tmat4x4@M$0A@@glm@@QEBAAEBU?$tvec4@M$0A@@1@H@Z ; glm::tmat4x4<float,0>::operator[]
	mov	edx, 1
	mov	rcx, rax
	call	??A?$tvec4@M$0A@@glm@@QEBAAEBMH@Z	; glm::tvec4<float,0>::operator[]
	mov	QWORD PTR tv647[rsp], rax
	xor	edx, edx
	mov	rcx, QWORD PTR m$[rsp]
	call	??A?$tmat4x4@M$0A@@glm@@QEBAAEBU?$tvec4@M$0A@@1@H@Z ; glm::tmat4x4<float,0>::operator[]
	mov	edx, 1
	mov	rcx, rax
	call	??A?$tvec4@M$0A@@glm@@QEBAAEBMH@Z	; glm::tvec4<float,0>::operator[]
	mov	QWORD PTR tv654[rsp], rax
	xor	edx, edx
	mov	rcx, QWORD PTR m$[rsp]
	call	??A?$tmat4x4@M$0A@@glm@@QEBAAEBU?$tvec4@M$0A@@1@H@Z ; glm::tmat4x4<float,0>::operator[]
	mov	edx, 1
	mov	rcx, rax
	call	??A?$tvec4@M$0A@@glm@@QEBAAEBMH@Z	; glm::tvec4<float,0>::operator[]
	mov	QWORD PTR tv661[rsp], rax
	mov	edx, 1
	mov	rcx, QWORD PTR m$[rsp]
	call	??A?$tmat4x4@M$0A@@glm@@QEBAAEBU?$tvec4@M$0A@@1@H@Z ; glm::tmat4x4<float,0>::operator[]
	mov	edx, 1
	mov	rcx, rax
	call	??A?$tvec4@M$0A@@glm@@QEBAAEBMH@Z	; glm::tvec4<float,0>::operator[]
	mov	rcx, QWORD PTR tv647[rsp]
	movss	xmm0, DWORD PTR [rcx]
	movss	DWORD PTR [rsp+32], xmm0
	mov	rcx, QWORD PTR tv654[rsp]
	movss	xmm3, DWORD PTR [rcx]
	mov	rcx, QWORD PTR tv661[rsp]
	movss	xmm2, DWORD PTR [rcx]
	movss	xmm1, DWORD PTR [rax]
	lea	rcx, QWORD PTR Vec1$[rsp]
	call	??0?$tvec4@M$0A@@glm@@QEAA@MMMM@Z	; glm::tvec4<float,0>::tvec4<float,0>

; 334  : 			tvec4<T, P> Vec2(m[1][2], m[0][2], m[0][2], m[0][2]);

	xor	edx, edx
	mov	rcx, QWORD PTR m$[rsp]
	call	??A?$tmat4x4@M$0A@@glm@@QEBAAEBU?$tvec4@M$0A@@1@H@Z ; glm::tmat4x4<float,0>::operator[]
	mov	edx, 2
	mov	rcx, rax
	call	??A?$tvec4@M$0A@@glm@@QEBAAEBMH@Z	; glm::tvec4<float,0>::operator[]
	mov	QWORD PTR tv676[rsp], rax
	xor	edx, edx
	mov	rcx, QWORD PTR m$[rsp]
	call	??A?$tmat4x4@M$0A@@glm@@QEBAAEBU?$tvec4@M$0A@@1@H@Z ; glm::tmat4x4<float,0>::operator[]
	mov	edx, 2
	mov	rcx, rax
	call	??A?$tvec4@M$0A@@glm@@QEBAAEBMH@Z	; glm::tvec4<float,0>::operator[]
	mov	QWORD PTR tv683[rsp], rax
	xor	edx, edx
	mov	rcx, QWORD PTR m$[rsp]
	call	??A?$tmat4x4@M$0A@@glm@@QEBAAEBU?$tvec4@M$0A@@1@H@Z ; glm::tmat4x4<float,0>::operator[]
	mov	edx, 2
	mov	rcx, rax
	call	??A?$tvec4@M$0A@@glm@@QEBAAEBMH@Z	; glm::tvec4<float,0>::operator[]
	mov	QWORD PTR tv690[rsp], rax
	mov	edx, 1
	mov	rcx, QWORD PTR m$[rsp]
	call	??A?$tmat4x4@M$0A@@glm@@QEBAAEBU?$tvec4@M$0A@@1@H@Z ; glm::tmat4x4<float,0>::operator[]
	mov	edx, 2
	mov	rcx, rax
	call	??A?$tvec4@M$0A@@glm@@QEBAAEBMH@Z	; glm::tvec4<float,0>::operator[]
	mov	rcx, QWORD PTR tv676[rsp]
	movss	xmm0, DWORD PTR [rcx]
	movss	DWORD PTR [rsp+32], xmm0
	mov	rcx, QWORD PTR tv683[rsp]
	movss	xmm3, DWORD PTR [rcx]
	mov	rcx, QWORD PTR tv690[rsp]
	movss	xmm2, DWORD PTR [rcx]
	movss	xmm1, DWORD PTR [rax]
	lea	rcx, QWORD PTR Vec2$[rsp]
	call	??0?$tvec4@M$0A@@glm@@QEAA@MMMM@Z	; glm::tvec4<float,0>::tvec4<float,0>

; 335  : 			tvec4<T, P> Vec3(m[1][3], m[0][3], m[0][3], m[0][3]);

	xor	edx, edx
	mov	rcx, QWORD PTR m$[rsp]
	call	??A?$tmat4x4@M$0A@@glm@@QEBAAEBU?$tvec4@M$0A@@1@H@Z ; glm::tmat4x4<float,0>::operator[]
	mov	edx, 3
	mov	rcx, rax
	call	??A?$tvec4@M$0A@@glm@@QEBAAEBMH@Z	; glm::tvec4<float,0>::operator[]
	mov	QWORD PTR tv705[rsp], rax
	xor	edx, edx
	mov	rcx, QWORD PTR m$[rsp]
	call	??A?$tmat4x4@M$0A@@glm@@QEBAAEBU?$tvec4@M$0A@@1@H@Z ; glm::tmat4x4<float,0>::operator[]
	mov	edx, 3
	mov	rcx, rax
	call	??A?$tvec4@M$0A@@glm@@QEBAAEBMH@Z	; glm::tvec4<float,0>::operator[]
	mov	QWORD PTR tv712[rsp], rax
	xor	edx, edx
	mov	rcx, QWORD PTR m$[rsp]
	call	??A?$tmat4x4@M$0A@@glm@@QEBAAEBU?$tvec4@M$0A@@1@H@Z ; glm::tmat4x4<float,0>::operator[]
	mov	edx, 3
	mov	rcx, rax
	call	??A?$tvec4@M$0A@@glm@@QEBAAEBMH@Z	; glm::tvec4<float,0>::operator[]
	mov	QWORD PTR tv719[rsp], rax
	mov	edx, 1
	mov	rcx, QWORD PTR m$[rsp]
	call	??A?$tmat4x4@M$0A@@glm@@QEBAAEBU?$tvec4@M$0A@@1@H@Z ; glm::tmat4x4<float,0>::operator[]
	mov	edx, 3
	mov	rcx, rax
	call	??A?$tvec4@M$0A@@glm@@QEBAAEBMH@Z	; glm::tvec4<float,0>::operator[]
	mov	rcx, QWORD PTR tv705[rsp]
	movss	xmm0, DWORD PTR [rcx]
	movss	DWORD PTR [rsp+32], xmm0
	mov	rcx, QWORD PTR tv712[rsp]
	movss	xmm3, DWORD PTR [rcx]
	mov	rcx, QWORD PTR tv719[rsp]
	movss	xmm2, DWORD PTR [rcx]
	movss	xmm1, DWORD PTR [rax]
	lea	rcx, QWORD PTR Vec3$[rsp]
	call	??0?$tvec4@M$0A@@glm@@QEAA@MMMM@Z	; glm::tvec4<float,0>::tvec4<float,0>

; 336  : 
; 337  : 			tvec4<T, P> Inv0(Vec1 * Fac0 - Vec2 * Fac1 + Vec3 * Fac2);

	lea	r8, QWORD PTR Fac2$[rsp]
	lea	rdx, QWORD PTR Vec3$[rsp]
	lea	rcx, QWORD PTR $T23[rsp]
	call	??$?DM$0A@@glm@@YA?AU?$tvec4@M$0A@@0@AEBU10@0@Z ; glm::operator*<float,0>
	mov	QWORD PTR tv729[rsp], rax
	lea	r8, QWORD PTR Fac1$[rsp]
	lea	rdx, QWORD PTR Vec2$[rsp]
	lea	rcx, QWORD PTR $T24[rsp]
	call	??$?DM$0A@@glm@@YA?AU?$tvec4@M$0A@@0@AEBU10@0@Z ; glm::operator*<float,0>
	mov	QWORD PTR tv735[rsp], rax
	lea	r8, QWORD PTR Fac0$[rsp]
	lea	rdx, QWORD PTR Vec1$[rsp]
	lea	rcx, QWORD PTR $T25[rsp]
	call	??$?DM$0A@@glm@@YA?AU?$tvec4@M$0A@@0@AEBU10@0@Z ; glm::operator*<float,0>
	mov	rcx, QWORD PTR tv735[rsp]
	mov	r8, rcx
	mov	rdx, rax
	lea	rcx, QWORD PTR $T26[rsp]
	call	??$?GM$0A@@glm@@YA?AU?$tvec4@M$0A@@0@AEBU10@0@Z ; glm::operator-<float,0>
	mov	rcx, QWORD PTR tv729[rsp]
	mov	r8, rcx
	mov	rdx, rax
	lea	rcx, QWORD PTR Inv0$[rsp]
	call	??$?HM$0A@@glm@@YA?AU?$tvec4@M$0A@@0@AEBU10@0@Z ; glm::operator+<float,0>

; 338  : 			tvec4<T, P> Inv1(Vec0 * Fac0 - Vec2 * Fac3 + Vec3 * Fac4);

	lea	r8, QWORD PTR Fac4$[rsp]
	lea	rdx, QWORD PTR Vec3$[rsp]
	lea	rcx, QWORD PTR $T27[rsp]
	call	??$?DM$0A@@glm@@YA?AU?$tvec4@M$0A@@0@AEBU10@0@Z ; glm::operator*<float,0>
	mov	QWORD PTR tv780[rsp], rax
	lea	r8, QWORD PTR Fac3$[rsp]
	lea	rdx, QWORD PTR Vec2$[rsp]
	lea	rcx, QWORD PTR $T28[rsp]
