; Listing generated by Microsoft (R) Optimizing Compiler Version 19.32.31329.0 

include listing.inc

INCLUDELIB MSVCRTD

CONST	SEGMENT
$SG33770 DB	'mat4(', 0aH, 00H
	ORG $+1
$SG33771 DB	09H, 'vec4(%2.9f, %2.9f, %2.9f, %2.9f)', 0aH, 00H
	ORG $+1
$SG38884 DB	'%s', 00H
	ORG $+1
$SG33772 DB	09H, 'vec4(%2.9f, %2.9f, %2.9f, %2.9f)', 0aH, 00H
	ORG $+1
$SG38887 DB	00H, 00H
	ORG $+2
$SG33773 DB	09H, 'vec4(%2.9f, %2.9f, %2.9f, %2.9f)', 0aH, 00H
	ORG $+5
$SG33774 DB	09H, 'vec4(%2.9f, %2.9f, %2.9f, %2.9f))', 0aH, 0aH, 00H
	ORG $+3
$SG35016 DB	'mat4(', 0aH, 00H
	ORG $+1
$SG35017 DB	09H, 'vec4(%2.9f, %2.9f, %2.9f, %2.9f)', 0aH, 00H
	ORG $+5
$SG35018 DB	09H, 'vec4(%2.9f, %2.9f, %2.9f, %2.9f)', 0aH, 00H
	ORG $+5
$SG35019 DB	09H, 'vec4(%2.9f, %2.9f, %2.9f, %2.9f)', 0aH, 00H
	ORG $+5
$SG35020 DB	09H, 'vec4(%2.9f, %2.9f, %2.9f, %2.9f))', 0aH, 0aH, 00H
	ORG $+3
$SG36207 DB	'mat4(', 0aH, 00H
	ORG $+1
$SG36208 DB	09H, 'vec4(%2.9f, %2.9f, %2.9f, %2.9f)', 0aH, 00H
	ORG $+5
$SG36209 DB	09H, 'vec4(%2.9f, %2.9f, %2.9f, %2.9f)', 0aH, 00H
	ORG $+5
$SG36210 DB	09H, 'vec4(%2.9f, %2.9f, %2.9f, %2.9f)', 0aH, 00H
	ORG $+5
$SG36211 DB	09H, 'vec4(%2.9f, %2.9f, %2.9f, %2.9f))', 0aH, 0aH, 00H
	ORG $+3
$SG38883 DB	'invalid argument', 00H
	ORG $+3
$SG32628 DB	'mat4(', 0aH, 00H
	ORG $+5
$SG38888 DB	'"', 00H, 'i', 00H, 'n', 00H, 'v', 00H, 'a', 00H, 'l', 00H
	DB	'i', 00H, 'd', 00H, ' ', 00H, 'a', 00H, 'r', 00H, 'g', 00H, 'u'
	DB	00H, 'm', 00H, 'e', 00H, 'n', 00H, 't', 00H, '"', 00H, 00H, 00H
	ORG $+2
$SG38885 DB	'C:\Program Files\Microsoft Visual Studio\2022\Community\'
	DB	'VC\Tools\MSVC\14.32.31326\include\xmemory', 00H
	ORG $+6
$SG31150 DB	'highp_mat4 inverse', 0aH, 00H
	ORG $+4
$SG38886 DB	'C', 00H, ':', 00H, '\', 00H, 'P', 00H, 'r', 00H, 'o', 00H
	DB	'g', 00H, 'r', 00H, 'a', 00H, 'm', 00H, ' ', 00H, 'F', 00H, 'i'
	DB	00H, 'l', 00H, 'e', 00H, 's', 00H, '\', 00H, 'M', 00H, 'i', 00H
	DB	'c', 00H, 'r', 00H, 'o', 00H, 's', 00H, 'o', 00H, 'f', 00H, 't'
	DB	00H, ' ', 00H, 'V', 00H, 'i', 00H, 's', 00H, 'u', 00H, 'a', 00H
	DB	'l', 00H, ' ', 00H, 'S', 00H, 't', 00H, 'u', 00H, 'd', 00H, 'i'
	DB	00H, 'o', 00H, '\', 00H, '2', 00H, '0', 00H, '2', 00H, '2', 00H
	DB	'\', 00H, 'C', 00H, 'o', 00H, 'm', 00H, 'm', 00H, 'u', 00H, 'n'
	DB	00H, 'i', 00H, 't', 00H, 'y', 00H, '\', 00H, 'V', 00H, 'C', 00H
	DB	'\', 00H, 'T', 00H, 'o', 00H, 'o', 00H, 'l', 00H, 's', 00H, '\'
	DB	00H, 'M', 00H, 'S', 00H, 'V', 00H, 'C', 00H, '\', 00H, '1', 00H
	DB	'4', 00H, '.', 00H, '3', 00H, '2', 00H, '.', 00H, '3', 00H, '1'
	DB	00H, '3', 00H, '2', 00H, '6', 00H, '\', 00H, 'i', 00H, 'n', 00H
	DB	'c', 00H, 'l', 00H, 'u', 00H, 'd', 00H, 'e', 00H, '\', 00H, 'x'
	DB	00H, 'm', 00H, 'e', 00H, 'm', 00H, 'o', 00H, 'r', 00H, 'y', 00H
	DB	00H, 00H
	ORG $+4
$SG31151 DB	'mediump_mat4 inverse', 0aH, 00H
	ORG $+2
$SG31152 DB	'lowp_mat4 inverse', 0aH, 00H
	ORG $+5
$SG32629 DB	09H, 'vec4(%2.9f, %2.9f, %2.9f, %2.9f)', 0aH, 00H
	ORG $+5
$SG32630 DB	09H, 'vec4(%2.9f, %2.9f, %2.9f, %2.9f)', 0aH, 00H
	ORG $+5
$SG32631 DB	09H, 'vec4(%2.9f, %2.9f, %2.9f, %2.9f)', 0aH, 00H
	ORG $+5
$SG32632 DB	09H, 'vec4(%2.9f, %2.9f, %2.9f, %2.9f))', 0aH, 0aH, 00H
CONST	ENDS
PUBLIC	??_H@YAXPEAX_K1P6APEAX0@Z@Z			; `vector constructor iterator'
PUBLIC	__local_stdio_printf_options
PUBLIC	_vfprintf_l
PUBLIC	printf
PUBLIC	?max@?$numeric_limits@_J@std@@SA_JXZ		; std::numeric_limits<__int64>::max
PUBLIC	??2@YAPEAX_KPEAX@Z				; operator new
PUBLIC	??$abs@M@glm@@YAMM@Z				; glm::abs<float>
PUBLIC	??0exception@std@@QEAA@QEBDH@Z			; std::exception::exception
PUBLIC	??0exception@std@@QEAA@AEBV01@@Z		; std::exception::exception
PUBLIC	??1exception@std@@UEAA@XZ			; std::exception::~exception
PUBLIC	?what@exception@std@@UEBAPEBDXZ			; std::exception::what
PUBLIC	??_Gexception@std@@UEAAPEAXI@Z			; std::exception::`scalar deleting destructor'
PUBLIC	??0bad_alloc@std@@AEAA@QEBD@Z			; std::bad_alloc::bad_alloc
PUBLIC	??1bad_alloc@std@@UEAA@XZ			; std::bad_alloc::~bad_alloc
PUBLIC	??0bad_alloc@std@@QEAA@AEBV01@@Z		; std::bad_alloc::bad_alloc
PUBLIC	??_Gbad_alloc@std@@UEAAPEAXI@Z			; std::bad_alloc::`scalar deleting destructor'
PUBLIC	??0bad_array_new_length@std@@QEAA@XZ		; std::bad_array_new_length::bad_array_new_length
PUBLIC	??1bad_array_new_length@std@@UEAA@XZ		; std::bad_array_new_length::~bad_array_new_length
PUBLIC	??0bad_array_new_length@std@@QEAA@AEBV01@@Z	; std::bad_array_new_length::bad_array_new_length
PUBLIC	??_Gbad_array_new_length@std@@UEAAPEAXI@Z	; std::bad_array_new_length::`scalar deleting destructor'
PUBLIC	?_Throw_bad_array_new_length@std@@YAXXZ		; std::_Throw_bad_array_new_length
PUBLIC	?_Allocate@_Default_allocate_traits@std@@SAPEAX_K@Z ; std::_Default_allocate_traits::_Allocate
PUBLIC	?_Adjust_manually_vector_aligned@std@@YAXAEAPEAXAEA_K@Z ; std::_Adjust_manually_vector_aligned
PUBLIC	??0_Container_proxy@std@@QEAA@PEAU_Container_base12@1@@Z ; std::_Container_proxy::_Container_proxy
PUBLIC	??0_Container_base12@std@@QEAA@XZ		; std::_Container_base12::_Container_base12
PUBLIC	?_Orphan_all@_Container_base12@std@@QEAAXXZ	; std::_Container_base12::_Orphan_all
PUBLIC	?_Orphan_all_unlocked_v3@_Container_base12@std@@AEAAXXZ ; std::_Container_base12::_Orphan_all_unlocked_v3
PUBLIC	?_Orphan_all_locked_v3@_Container_base12@std@@AEAAXXZ ; std::_Container_base12::_Orphan_all_locked_v3
PUBLIC	?_Release@_Basic_container_proxy_ptr12@std@@QEAAXXZ ; std::_Basic_container_proxy_ptr12::_Release
PUBLIC	??0_Basic_container_proxy_ptr12@std@@IEAA@XZ	; std::_Basic_container_proxy_ptr12::_Basic_container_proxy_ptr12
PUBLIC	?test_inverse_mat4x4@@YAHXZ			; test_inverse_mat4x4
PUBLIC	?length@?$tvec4@M$0A@@glm@@SAHXZ		; glm::tvec4<float,0>::length
PUBLIC	??A?$tvec4@M$0A@@glm@@QEAAAEAMH@Z		; glm::tvec4<float,0>::operator[]
PUBLIC	??A?$tvec4@M$0A@@glm@@QEBAAEBMH@Z		; glm::tvec4<float,0>::operator[]
PUBLIC	??0?$tvec4@M$0A@@glm@@QEAA@XZ			; glm::tvec4<float,0>::tvec4<float,0>
PUBLIC	??0?$tvec4@M$0A@@glm@@QEAA@M@Z			; glm::tvec4<float,0>::tvec4<float,0>
PUBLIC	??0?$tvec4@M$0A@@glm@@QEAA@MMMM@Z		; glm::tvec4<float,0>::tvec4<float,0>
PUBLIC	??0?$tmat4x4@M$0A@@glm@@QEAA@XZ			; glm::tmat4x4<float,0>::tmat4x4<float,0>
PUBLIC	??0?$tmat4x4@M$0A@@glm@@QEAA@W4ctor@1@@Z	; glm::tmat4x4<float,0>::tmat4x4<float,0>
PUBLIC	??0?$tmat4x4@M$0A@@glm@@QEAA@AEBM@Z		; glm::tmat4x4<float,0>::tmat4x4<float,0>
PUBLIC	??0?$tmat4x4@M$0A@@glm@@QEAA@AEBU?$tvec4@M$0A@@1@000@Z ; glm::tmat4x4<float,0>::tmat4x4<float,0>
PUBLIC	??0?$tmat4x4@M$0A@@glm@@QEAA@AEBU?$tmat2x2@M$0A@@1@@Z ; glm::tmat4x4<float,0>::tmat4x4<float,0>
PUBLIC	??0?$tmat4x4@M$0A@@glm@@QEAA@AEBU?$tmat3x3@M$0A@@1@@Z ; glm::tmat4x4<float,0>::tmat4x4<float,0>
PUBLIC	??0?$tmat4x4@M$0A@@glm@@QEAA@AEBU?$tmat2x3@M$0A@@1@@Z ; glm::tmat4x4<float,0>::tmat4x4<float,0>
PUBLIC	??0?$tmat4x4@M$0A@@glm@@QEAA@AEBU?$tmat3x2@M$0A@@1@@Z ; glm::tmat4x4<float,0>::tmat4x4<float,0>
PUBLIC	??0?$tmat4x4@M$0A@@glm@@QEAA@AEBU?$tmat2x4@M$0A@@1@@Z ; glm::tmat4x4<float,0>::tmat4x4<float,0>
PUBLIC	??0?$tmat4x4@M$0A@@glm@@QEAA@AEBU?$tmat4x2@M$0A@@1@@Z ; glm::tmat4x4<float,0>::tmat4x4<float,0>
PUBLIC	??0?$tmat4x4@M$0A@@glm@@QEAA@AEBU?$tmat3x4@M$0A@@1@@Z ; glm::tmat4x4<float,0>::tmat4x4<float,0>
PUBLIC	??0?$tmat4x4@M$0A@@glm@@QEAA@AEBU?$tmat4x3@M$0A@@1@@Z ; glm::tmat4x4<float,0>::tmat4x4<float,0>
PUBLIC	?length@?$tmat4x4@M$0A@@glm@@SAHXZ		; glm::tmat4x4<float,0>::length
PUBLIC	??A?$tmat4x4@M$0A@@glm@@QEAAAEAU?$tvec4@M$0A@@1@H@Z ; glm::tmat4x4<float,0>::operator[]
PUBLIC	??A?$tmat4x4@M$0A@@glm@@QEBAAEBU?$tvec4@M$0A@@1@H@Z ; glm::tmat4x4<float,0>::operator[]
PUBLIC	??$inverse@M$0A@Utmat4x4@glm@@@glm@@YA?AU?$tmat4x4@M$0A@@0@AEBU10@@Z ; glm::inverse<float,0,glm::tmat4x4>
PUBLIC	??$?DM$0A@@glm@@YA?AU?$tvec4@M$0A@@0@AEBU?$tmat4x4@M$0A@@0@AEBU10@@Z ; glm::operator*<float,0>
PUBLIC	??$?DM$0A@@glm@@YA?AU?$tvec4@M$0A@@0@AEBU10@AEBU?$tmat4x4@M$0A@@0@@Z ; glm::operator*<float,0>
PUBLIC	??$?DM$0A@@glm@@YA?AU?$tmat4x4@M$0A@@0@AEBU10@0@Z ; glm::operator*<float,0>
PUBLIC	??$print@U?$tmat4x4@M$0A@@glm@@@@YAXAEBU?$tmat4x4@M$0A@@glm@@@Z ; print<glm::tmat4x4<float,0> >
PUBLIC	?test_inverse_dmat4x4@@YAHXZ			; test_inverse_dmat4x4
PUBLIC	?length@?$tvec4@N$0A@@glm@@SAHXZ		; glm::tvec4<double,0>::length
PUBLIC	??A?$tvec4@N$0A@@glm@@QEAAAEANH@Z		; glm::tvec4<double,0>::operator[]
PUBLIC	??A?$tvec4@N$0A@@glm@@QEBAAEBNH@Z		; glm::tvec4<double,0>::operator[]
PUBLIC	??0?$tvec4@N$0A@@glm@@QEAA@XZ			; glm::tvec4<double,0>::tvec4<double,0>
PUBLIC	??0?$tvec4@N$0A@@glm@@QEAA@N@Z			; glm::tvec4<double,0>::tvec4<double,0>
PUBLIC	??0?$tvec4@N$0A@@glm@@QEAA@NNNN@Z		; glm::tvec4<double,0>::tvec4<double,0>
PUBLIC	??$?0MMMM@?$tvec4@N$0A@@glm@@QEAA@MMMM@Z	; glm::tvec4<double,0>::tvec4<double,0><float,float,float,float>
PUBLIC	??0?$tmat4x4@N$0A@@glm@@QEAA@XZ			; glm::tmat4x4<double,0>::tmat4x4<double,0>
PUBLIC	??0?$tmat4x4@N$0A@@glm@@QEAA@W4ctor@1@@Z	; glm::tmat4x4<double,0>::tmat4x4<double,0>
PUBLIC	??0?$tmat4x4@N$0A@@glm@@QEAA@AEBU?$tvec4@N$0A@@1@000@Z ; glm::tmat4x4<double,0>::tmat4x4<double,0>
PUBLIC	?length@?$tmat4x4@N$0A@@glm@@SAHXZ		; glm::tmat4x4<double,0>::length
PUBLIC	??A?$tmat4x4@N$0A@@glm@@QEAAAEAU?$tvec4@N$0A@@1@H@Z ; glm::tmat4x4<double,0>::operator[]
PUBLIC	??A?$tmat4x4@N$0A@@glm@@QEBAAEBU?$tvec4@N$0A@@1@H@Z ; glm::tmat4x4<double,0>::operator[]
PUBLIC	??$inverse@N$0A@Utmat4x4@glm@@@glm@@YA?AU?$tmat4x4@N$0A@@0@AEBU10@@Z ; glm::inverse<double,0,glm::tmat4x4>
PUBLIC	??$?DN$0A@@glm@@YA?AU?$tmat4x4@N$0A@@0@AEBU10@0@Z ; glm::operator*<double,0>
PUBLIC	??$print@U?$tmat4x4@N$0A@@glm@@@@YAXAEBU?$tmat4x4@N$0A@@glm@@@Z ; print<glm::tmat4x4<double,0> >
PUBLIC	??0?$tmat3x4@M$0A@@glm@@QEAA@M@Z		; glm::tmat3x4<float,0>::tmat3x4<float,0>
PUBLIC	?length@?$tmat3x4@M$0A@@glm@@SAHXZ		; glm::tmat3x4<float,0>::length
PUBLIC	??A?$tmat3x4@M$0A@@glm@@QEBAAEBU?$tvec4@M$0A@@1@H@Z ; glm::tmat3x4<float,0>::operator[]
PUBLIC	??0?$tvec2@M$0A@@glm@@QEAA@XZ			; glm::tvec2<float,0>::tvec2<float,0>
PUBLIC	??0?$tmat4x2@M$0A@@glm@@QEAA@M@Z		; glm::tmat4x2<float,0>::tmat4x2<float,0>
PUBLIC	?length@?$tmat4x2@M$0A@@glm@@SAHXZ		; glm::tmat4x2<float,0>::length
PUBLIC	??A?$tmat4x2@M$0A@@glm@@QEBAAEBU?$tvec2@M$0A@@1@H@Z ; glm::tmat4x2<float,0>::operator[]
PUBLIC	??0?$tmat2x4@M$0A@@glm@@QEAA@M@Z		; glm::tmat2x4<float,0>::tmat2x4<float,0>
PUBLIC	?length@?$tmat2x4@M$0A@@glm@@SAHXZ		; glm::tmat2x4<float,0>::length
PUBLIC	??A?$tmat2x4@M$0A@@glm@@QEBAAEBU?$tvec4@M$0A@@1@H@Z ; glm::tmat2x4<float,0>::operator[]
PUBLIC	??0?$tmat3x2@M$0A@@glm@@QEAA@M@Z		; glm::tmat3x2<float,0>::tmat3x2<float,0>
PUBLIC	?length@?$tmat3x2@M$0A@@glm@@SAHXZ		; glm::tmat3x2<float,0>::length
PUBLIC	??A?$tmat3x2@M$0A@@glm@@QEBAAEBU?$tvec2@M$0A@@1@H@Z ; glm::tmat3x2<float,0>::operator[]
PUBLIC	??0?$tvec3@M$0A@@glm@@QEAA@XZ			; glm::tvec3<float,0>::tvec3<float,0>
PUBLIC	??0?$tmat2x3@M$0A@@glm@@QEAA@M@Z		; glm::tmat2x3<float,0>::tmat2x3<float,0>
PUBLIC	?length@?$tmat2x3@M$0A@@glm@@SAHXZ		; glm::tmat2x3<float,0>::length
PUBLIC	??A?$tmat2x3@M$0A@@glm@@QEBAAEBU?$tvec3@M$0A@@1@H@Z ; glm::tmat2x3<float,0>::operator[]
PUBLIC	??0?$tmat3x3@M$0A@@glm@@QEAA@M@Z		; glm::tmat3x3<float,0>::tmat3x3<float,0>
PUBLIC	?length@?$tmat3x3@M$0A@@glm@@SAHXZ		; glm::tmat3x3<float,0>::length
PUBLIC	??A?$tmat3x3@M$0A@@glm@@QEBAAEBU?$tvec3@M$0A@@1@H@Z ; glm::tmat3x3<float,0>::operator[]
PUBLIC	??0?$tmat2x2@M$0A@@glm@@QEAA@M@Z		; glm::tmat2x2<float,0>::tmat2x2<float,0>
PUBLIC	?length@?$tmat2x2@M$0A@@glm@@SAHXZ		; glm::tmat2x2<float,0>::length
PUBLIC	??A?$tmat2x2@M$0A@@glm@@QEBAAEBU?$tvec2@M$0A@@1@H@Z ; glm::tmat2x2<float,0>::operator[]
PUBLIC	??0?$tmat4x3@M$0A@@glm@@QEAA@AEBM@Z		; glm::tmat4x3<float,0>::tmat4x3<float,0>
PUBLIC	?length@?$tmat4x3@M$0A@@glm@@SAHXZ		; glm::tmat4x3<float,0>::length
PUBLIC	??A?$tmat4x3@M$0A@@glm@@QEBAAEBU?$tvec3@M$0A@@1@H@Z ; glm::tmat4x3<float,0>::operator[]
PUBLIC	??$?KM$0A@@glm@@YA?AU?$tmat4x4@M$0A@@0@AEBMAEBU10@@Z ; glm::operator/<float,0>
PUBLIC	??$?KM$0A@@glm@@YA?AU?$tmat4x4@M$0A@@0@AEBU10@AEBM@Z ; glm::operator/<float,0>
PUBLIC	??$?DM$0A@@glm@@YA?AU?$tmat4x4@M$0A@@0@AEBMAEBU10@@Z ; glm::operator*<float,0>
PUBLIC	??$?DM$0A@@glm@@YA?AU?$tmat4x4@M$0A@@0@AEBU10@AEBM@Z ; glm::operator*<float,0>
PUBLIC	??$?9M$0A@@glm@@YA_NAEBU?$tmat4x4@M$0A@@0@0@Z	; glm::operator!=<float,0>
PUBLIC	??$?8M$0A@@glm@@YA_NAEBU?$tmat4x4@M$0A@@0@0@Z	; glm::operator==<float,0>
PUBLIC	?test_inverse@@YAHXZ				; test_inverse
PUBLIC	??$epsilonEqual@M$0A@Utvec4@glm@@@glm@@YA?AU?$tvec4@_N$0A@@0@AEBU?$tvec4@M$0A@@0@00@Z ; glm::epsilonEqual<float,0,glm::tvec4>
PUBLIC	?length@?$tvec4@_N$0A@@glm@@SAHXZ		; glm::tvec4<bool,0>::length
PUBLIC	??A?$tvec4@_N$0A@@glm@@QEAAAEA_NH@Z		; glm::tvec4<bool,0>::operator[]
PUBLIC	??A?$tvec4@_N$0A@@glm@@QEBAAEB_NH@Z		; glm::tvec4<bool,0>::operator[]
PUBLIC	??0?$tvec4@_N$0A@@glm@@QEAA@W4ctor@1@@Z		; glm::tvec4<bool,0>::tvec4<bool,0>
PUBLIC	??$all@$0A@Utvec4@glm@@@glm@@YA_NAEBU?$tvec4@_N$0A@@0@@Z ; glm::all<0,glm::tvec4>
PUBLIC	?length@?$tvec4@M$00@glm@@SAHXZ			; glm::tvec4<float,1>::length
PUBLIC	??A?$tvec4@M$00@glm@@QEAAAEAMH@Z		; glm::tvec4<float,1>::operator[]
PUBLIC	??A?$tvec4@M$00@glm@@QEBAAEBMH@Z		; glm::tvec4<float,1>::operator[]
PUBLIC	??0?$tvec4@M$00@glm@@QEAA@XZ			; glm::tvec4<float,1>::tvec4<float,1>
PUBLIC	??0?$tvec4@M$00@glm@@QEAA@M@Z			; glm::tvec4<float,1>::tvec4<float,1>
PUBLIC	??0?$tvec4@M$00@glm@@QEAA@MMMM@Z		; glm::tvec4<float,1>::tvec4<float,1>
PUBLIC	??0?$tmat4x4@M$00@glm@@QEAA@W4ctor@1@@Z		; glm::tmat4x4<float,1>::tmat4x4<float,1>
PUBLIC	??0?$tmat4x4@M$00@glm@@QEAA@AEBU?$tvec4@M$00@1@000@Z ; glm::tmat4x4<float,1>::tmat4x4<float,1>
PUBLIC	?length@?$tmat4x4@M$00@glm@@SAHXZ		; glm::tmat4x4<float,1>::length
PUBLIC	??A?$tmat4x4@M$00@glm@@QEAAAEAU?$tvec4@M$00@1@H@Z ; glm::tmat4x4<float,1>::operator[]
PUBLIC	??A?$tmat4x4@M$00@glm@@QEBAAEBU?$tvec4@M$00@1@H@Z ; glm::tmat4x4<float,1>::operator[]
PUBLIC	??$inverse@M$00Utmat4x4@glm@@@glm@@YA?AU?$tmat4x4@M$00@0@AEBU10@@Z ; glm::inverse<float,1,glm::tmat4x4>
PUBLIC	??$?DM$00@glm@@YA?AU?$tmat4x4@M$00@0@AEBU10@0@Z	; glm::operator*<float,1>
PUBLIC	??$print@U?$tmat4x4@M$00@glm@@@@YAXAEBU?$tmat4x4@M$00@glm@@@Z ; print<glm::tmat4x4<float,1> >
PUBLIC	??$epsilonEqual@M$00Utvec4@glm@@@glm@@YA?AU?$tvec4@_N$00@0@AEBU?$tvec4@M$00@0@00@Z ; glm::epsilonEqual<float,1,glm::tvec4>
PUBLIC	?length@?$tvec4@_N$00@glm@@SAHXZ		; glm::tvec4<bool,1>::length
PUBLIC	??A?$tvec4@_N$00@glm@@QEAAAEA_NH@Z		; glm::tvec4<bool,1>::operator[]
PUBLIC	??A?$tvec4@_N$00@glm@@QEBAAEB_NH@Z		; glm::tvec4<bool,1>::operator[]
PUBLIC	??0?$tvec4@_N$00@glm@@QEAA@W4ctor@1@@Z		; glm::tvec4<bool,1>::tvec4<bool,1>
PUBLIC	??$all@$00Utvec4@glm@@@glm@@YA_NAEBU?$tvec4@_N$00@0@@Z ; glm::all<1,glm::tvec4>
PUBLIC	?length@?$tvec4@M$01@glm@@SAHXZ			; glm::tvec4<float,2>::length
PUBLIC	??A?$tvec4@M$01@glm@@QEAAAEAMH@Z		; glm::tvec4<float,2>::operator[]
PUBLIC	??A?$tvec4@M$01@glm@@QEBAAEBMH@Z		; glm::tvec4<float,2>::operator[]
PUBLIC	??0?$tvec4@M$01@glm@@QEAA@XZ			; glm::tvec4<float,2>::tvec4<float,2>
PUBLIC	??0?$tvec4@M$01@glm@@QEAA@M@Z			; glm::tvec4<float,2>::tvec4<float,2>
PUBLIC	??0?$tvec4@M$01@glm@@QEAA@MMMM@Z		; glm::tvec4<float,2>::tvec4<float,2>
PUBLIC	??0?$tmat4x4@M$01@glm@@QEAA@W4ctor@1@@Z		; glm::tmat4x4<float,2>::tmat4x4<float,2>
PUBLIC	??0?$tmat4x4@M$01@glm@@QEAA@AEBU?$tvec4@M$01@1@000@Z ; glm::tmat4x4<float,2>::tmat4x4<float,2>
PUBLIC	?length@?$tmat4x4@M$01@glm@@SAHXZ		; glm::tmat4x4<float,2>::length
PUBLIC	??A?$tmat4x4@M$01@glm@@QEAAAEAU?$tvec4@M$01@1@H@Z ; glm::tmat4x4<float,2>::operator[]
PUBLIC	??A?$tmat4x4@M$01@glm@@QEBAAEBU?$tvec4@M$01@1@H@Z ; glm::tmat4x4<float,2>::operator[]
PUBLIC	??$inverse@M$01Utmat4x4@glm@@@glm@@YA?AU?$tmat4x4@M$01@0@AEBU10@@Z ; glm::inverse<float,2,glm::tmat4x4>
PUBLIC	??$?DM$01@glm@@YA?AU?$tmat4x4@M$01@0@AEBU10@0@Z	; glm::operator*<float,2>
PUBLIC	??$print@U?$tmat4x4@M$01@glm@@@@YAXAEBU?$tmat4x4@M$01@glm@@@Z ; print<glm::tmat4x4<float,2> >
PUBLIC	??$epsilonEqual@M$01Utvec4@glm@@@glm@@YA?AU?$tvec4@_N$01@0@AEBU?$tvec4@M$01@0@00@Z ; glm::epsilonEqual<float,2,glm::tvec4>
PUBLIC	?length@?$tvec4@_N$01@glm@@SAHXZ		; glm::tvec4<bool,2>::length
PUBLIC	??A?$tvec4@_N$01@glm@@QEAAAEA_NH@Z		; glm::tvec4<bool,2>::operator[]
PUBLIC	??A?$tvec4@_N$01@glm@@QEBAAEB_NH@Z		; glm::tvec4<bool,2>::operator[]
PUBLIC	??0?$tvec4@_N$01@glm@@QEAA@W4ctor@1@@Z		; glm::tvec4<bool,2>::tvec4<bool,2>
PUBLIC	??$all@$01Utvec4@glm@@@glm@@YA_NAEBU?$tvec4@_N$01@0@@Z ; glm::all<2,glm::tvec4>
PUBLIC	??$?KM$0A@@glm@@YA?AU?$tmat4x4@M$0A@@0@AEBU10@0@Z ; glm::operator/<float,0>
PUBLIC	?test_ctr@@YAHXZ				; test_ctr
PUBLIC	??$?0HHHH@?$tvec4@M$0A@@glm@@QEAA@HHHH@Z	; glm::tvec4<float,0>::tvec4<float,0><int,int,int,int>
PUBLIC	??$?0HHHHHHHHHHHHHHHH@?$tmat4x4@M$0A@@glm@@QEAA@AEBH000000000000000@Z ; glm::tmat4x4<float,0>::tmat4x4<float,0><int,int,int,int,int,int,int,int,int,int,int,int,int,int,int,int>
PUBLIC	??$equal@M$0A@Utvec4@glm@@@glm@@YA?AU?$tvec4@_N$0A@@0@AEBU?$tvec4@M$0A@@0@0@Z ; glm::equal<float,0,glm::tvec4>
PUBLIC	??0?$allocator@U?$tmat4x4@M$0A@@glm@@@std@@QEAA@XZ ; std::allocator<glm::tmat4x4<float,0> >::allocator<glm::tmat4x4<float,0> >
PUBLIC	?deallocate@?$allocator@U?$tmat4x4@M$0A@@glm@@@std@@QEAAXQEAU?$tmat4x4@M$0A@@glm@@_K@Z ; std::allocator<glm::tmat4x4<float,0> >::deallocate
PUBLIC	?allocate@?$allocator@U?$tmat4x4@M$0A@@glm@@@std@@QEAAPEAU?$tmat4x4@M$0A@@glm@@_K@Z ; std::allocator<glm::tmat4x4<float,0> >::allocate
PUBLIC	?max_size@?$_Default_allocator_traits@V?$allocator@U?$tmat4x4@M$0A@@glm@@@std@@@std@@SA_KAEBV?$allocator@U?$tmat4x4@M$0A@@glm@@@2@@Z ; std::_Default_allocator_traits<std::allocator<glm::tmat4x4<float,0> > >::max_size
PUBLIC	??0?$vector@U?$tmat4x4@M$0A@@glm@@V?$allocator@U?$tmat4x4@M$0A@@glm@@@std@@@std@@QEAA@V?$initializer_list@U?$tmat4x4@M$0A@@glm@@@1@AEBV?$allocator@U?$tmat4x4@M$0A@@glm@@@1@@Z ; std::vector<glm::tmat4x4<float,0>,std::allocator<glm::tmat4x4<float,0> > >::vector<glm::tmat4x4<float,0>,std::allocator<glm::tmat4x4<float,0> > >
PUBLIC	??1?$vector@U?$tmat4x4@M$0A@@glm@@V?$allocator@U?$tmat4x4@M$0A@@glm@@@std@@@std@@QEAA@XZ ; std::vector<glm::tmat4x4<float,0>,std::allocator<glm::tmat4x4<float,0> > >::~vector<glm::tmat4x4<float,0>,std::allocator<glm::tmat4x4<float,0> > >
PUBLIC	?max_size@?$vector@U?$tmat4x4@M$0A@@glm@@V?$allocator@U?$tmat4x4@M$0A@@glm@@@std@@@std@@QEBA_KXZ ; std::vector<glm::tmat4x4<float,0>,std::allocator<glm::tmat4x4<float,0> > >::max_size
PUBLIC	?_Buy_raw@?$vector@U?$tmat4x4@M$0A@@glm@@V?$allocator@U?$tmat4x4@M$0A@@glm@@@std@@@std@@AEAAX_K@Z ; std::vector<glm::tmat4x4<float,0>,std::allocator<glm::tmat4x4<float,0> > >::_Buy_raw
PUBLIC	?_Buy_nonzero@?$vector@U?$tmat4x4@M$0A@@glm@@V?$allocator@U?$tmat4x4@M$0A@@glm@@@std@@@std@@AEAAX_K@Z ; std::vector<glm::tmat4x4<float,0>,std::allocator<glm::tmat4x4<float,0> > >::_Buy_nonzero
PUBLIC	?_Tidy@?$vector@U?$tmat4x4@M$0A@@glm@@V?$allocator@U?$tmat4x4@M$0A@@glm@@@std@@@std@@AEAAXXZ ; std::vector<glm::tmat4x4<float,0>,std::allocator<glm::tmat4x4<float,0> > >::_Tidy
PUBLIC	?_Xlength@?$vector@U?$tmat4x4@M$0A@@glm@@V?$allocator@U?$tmat4x4@M$0A@@glm@@@std@@@std@@CAXXZ ; std::vector<glm::tmat4x4<float,0>,std::allocator<glm::tmat4x4<float,0> > >::_Xlength
PUBLIC	?_Getal@?$vector@U?$tmat4x4@M$0A@@glm@@V?$allocator@U?$tmat4x4@M$0A@@glm@@@std@@@std@@AEAAAEAV?$allocator@U?$tmat4x4@M$0A@@glm@@@2@XZ ; std::vector<glm::tmat4x4<float,0>,std::allocator<glm::tmat4x4<float,0> > >::_Getal
PUBLIC	?_Getal@?$vector@U?$tmat4x4@M$0A@@glm@@V?$allocator@U?$tmat4x4@M$0A@@glm@@@std@@@std@@AEBAAEBV?$allocator@U?$tmat4x4@M$0A@@glm@@@2@XZ ; std::vector<glm::tmat4x4<float,0>,std::allocator<glm::tmat4x4<float,0> > >::_Getal
PUBLIC	??0?$_Vector_val@U?$_Simple_types@U?$tmat4x4@M$0A@@glm@@@std@@@std@@QEAA@XZ ; std::_Vector_val<std::_Simple_types<glm::tmat4x4<float,0> > >::_Vector_val<std::_Simple_types<glm::tmat4x4<float,0> > >
PUBLIC	?_Get_first@?$_Compressed_pair@V?$allocator@U?$tmat4x4@M$0A@@glm@@@std@@V?$_Vector_val@U?$_Simple_types@U?$tmat4x4@M$0A@@glm@@@std@@@2@$00@std@@QEAAAEAV?$allocator@U?$tmat4x4@M$0A@@glm@@@2@XZ ; std::_Compressed_pair<std::allocator<glm::tmat4x4<float,0> >,std::_Vector_val<std::_Simple_types<glm::tmat4x4<float,0> > >,1>::_Get_first
PUBLIC	?_Get_first@?$_Compressed_pair@V?$allocator@U?$tmat4x4@M$0A@@glm@@@std@@V?$_Vector_val@U?$_Simple_types@U?$tmat4x4@M$0A@@glm@@@std@@@2@$00@std@@QEBAAEBV?$allocator@U?$tmat4x4@M$0A@@glm@@@2@XZ ; std::_Compressed_pair<std::allocator<glm::tmat4x4<float,0> >,std::_Vector_val<std::_Simple_types<glm::tmat4x4<float,0> > >,1>::_Get_first
PUBLIC	??0?$initializer_list@U?$tmat4x4@M$0A@@glm@@@std@@QEAA@PEBU?$tmat4x4@M$0A@@glm@@0@Z ; std::initializer_list<glm::tmat4x4<float,0> >::initializer_list<glm::tmat4x4<float,0> >
PUBLIC	?begin@?$initializer_list@U?$tmat4x4@M$0A@@glm@@@std@@QEBAPEBU?$tmat4x4@M$0A@@glm@@XZ ; std::initializer_list<glm::tmat4x4<float,0> >::begin
PUBLIC	?end@?$initializer_list@U?$tmat4x4@M$0A@@glm@@@std@@QEBAPEBU?$tmat4x4@M$0A@@glm@@XZ ; std::initializer_list<glm::tmat4x4<float,0> >::end
PUBLIC	?size@?$initializer_list@U?$tmat4x4@M$0A@@glm@@@std@@QEBA_KXZ ; std::initializer_list<glm::tmat4x4<float,0> >::size
PUBLIC	?perf_mul@@YAHXZ				; perf_mul
PUBLIC	?test@cast@@YAHXZ				; cast::test
PUBLIC	??$entry@U?$tmat2x2@M$0A@@glm@@@cast@@YAHXZ	; cast::entry<glm::tmat2x2<float,0> >
PUBLIC	??$entry@U?$tmat2x3@M$0A@@glm@@@cast@@YAHXZ	; cast::entry<glm::tmat2x3<float,0> >
PUBLIC	??$entry@U?$tmat2x4@M$0A@@glm@@@cast@@YAHXZ	; cast::entry<glm::tmat2x4<float,0> >
PUBLIC	??$entry@U?$tmat3x2@M$0A@@glm@@@cast@@YAHXZ	; cast::entry<glm::tmat3x2<float,0> >
PUBLIC	??$entry@U?$tmat3x3@M$0A@@glm@@@cast@@YAHXZ	; cast::entry<glm::tmat3x3<float,0> >
PUBLIC	??$entry@U?$tmat3x4@M$0A@@glm@@@cast@@YAHXZ	; cast::entry<glm::tmat3x4<float,0> >
PUBLIC	??$entry@U?$tmat4x2@M$0A@@glm@@@cast@@YAHXZ	; cast::entry<glm::tmat4x2<float,0> >
PUBLIC	??$entry@U?$tmat4x3@M$0A@@glm@@@cast@@YAHXZ	; cast::entry<glm::tmat4x3<float,0> >
PUBLIC	??$entry@U?$tmat4x4@M$0A@@glm@@@cast@@YAHXZ	; cast::entry<glm::tmat4x4<float,0> >
PUBLIC	??0repro@@QEAA@XZ				; repro::repro
PUBLIC	??1repro@@QEAA@XZ				; repro::~repro
PUBLIC	?test_size@@YAHXZ				; test_size
PUBLIC	main
PUBLIC	?allocate@?$allocator@U_Container_proxy@std@@@std@@QEAAPEAU_Container_proxy@2@_K@Z ; std::allocator<std::_Container_proxy>::allocate
PUBLIC	??$?0U?$tmat4x4@M$0A@@glm@@@?$allocator@U_Container_proxy@std@@@std@@QEAA@AEBV?$allocator@U?$tmat4x4@M$0A@@glm@@@1@@Z ; std::allocator<std::_Container_proxy>::allocator<std::_Container_proxy><glm::tmat4x4<float,0> >
PUBLIC	??$exchange@PEAU_Container_proxy@std@@$$T@std@@YAPEAU_Container_proxy@0@AEAPEAU10@$$QEA$$T@Z ; std::exchange<std::_Container_proxy *,std::nullptr_t>
PUBLIC	??$_Delete_plain_internal@V?$allocator@U_Container_proxy@std@@@std@@@std@@YAXAEAV?$allocator@U_Container_proxy@std@@@0@QEAU_Container_proxy@0@@Z ; std::_Delete_plain_internal<std::allocator<std::_Container_proxy> >
PUBLIC	??$?0AEBV?$allocator@U?$tmat4x4@M$0A@@glm@@@std@@$$V@?$_Compressed_pair@V?$allocator@U?$tmat4x4@M$0A@@glm@@@std@@V?$_Vector_val@U?$_Simple_types@U?$tmat4x4@M$0A@@glm@@@std@@@2@$00@std@@QEAA@U_One_then_variadic_args_t@1@AEBV?$allocator@U?$tmat4x4@M$0A@@glm@@@1@@Z ; std::_Compressed_pair<std::allocator<glm::tmat4x4<float,0> >,std::_Vector_val<std::_Simple_types<glm::tmat4x4<float,0> > >,1>::_Compressed_pair<std::allocator<glm::tmat4x4<float,0> >,std::_Vector_val<std::_Simple_types<glm::tmat4x4<float,0> > >,1><std::allocator<glm::tmat4x4<float,0> > const &>
PUBLIC	??$_Convert_size@_K@std@@YA_K_K@Z		; std::_Convert_size<unsigned __int64>
PUBLIC	??$_Construct_n@PEBU?$tmat4x4@M$0A@@glm@@PEBU12@@?$vector@U?$tmat4x4@M$0A@@glm@@V?$allocator@U?$tmat4x4@M$0A@@glm@@@std@@@std@@AEAAX_K$$QEAPEBU?$tmat4x4@M$0A@@glm@@1@Z ; std::vector<glm::tmat4x4<float,0>,std::allocator<glm::tmat4x4<float,0> > >::_Construct_n<glm::tmat4x4<float,0> const *,glm::tmat4x4<float,0> const *>
PUBLIC	??$_Destroy_range@V?$allocator@U?$tmat4x4@M$0A@@glm@@@std@@@std@@YAXPEAU?$tmat4x4@M$0A@@glm@@QEAU12@AEAV?$allocator@U?$tmat4x4@M$0A@@glm@@@0@@Z ; std::_Destroy_range<std::allocator<glm::tmat4x4<float,0> > >
PUBLIC	??$_Deallocate@$0BA@$0A@@std@@YAXPEAX_K@Z	; std::_Deallocate<16,0>
PUBLIC	??$?0MHHH@?$tvec4@M$0A@@glm@@QEAA@MHHH@Z	; glm::tvec4<float,0>::tvec4<float,0><float,int,int,int>
PUBLIC	??$?0HMHH@?$tvec4@M$0A@@glm@@QEAA@HMHH@Z	; glm::tvec4<float,0>::tvec4<float,0><int,float,int,int>
PUBLIC	??$?0HHMH@?$tvec4@M$0A@@glm@@QEAA@HHMH@Z	; glm::tvec4<float,0>::tvec4<float,0><int,int,float,int>
PUBLIC	??$?0HHHM@?$tvec4@M$0A@@glm@@QEAA@HHHM@Z	; glm::tvec4<float,0>::tvec4<float,0><int,int,int,float>
PUBLIC	??$?0HHHH@?$tvec4@N$0A@@glm@@QEAA@HHHH@Z	; glm::tvec4<double,0>::tvec4<double,0><int,int,int,int>
PUBLIC	?call@?$compute_abs@M$00@detail@glm@@SAMM@Z	; glm::detail::compute_abs<float,1>::call
PUBLIC	?call@?$compute_inverse@Utmat4x4@glm@@M$0A@$0A@@detail@glm@@SA?AU?$tmat4x4@M$0A@@3@AEBU43@@Z ; glm::detail::compute_inverse<glm::tmat4x4,float,0,0>::call
PUBLIC	??$?DM$0A@@glm@@YA?AU?$tvec4@M$0A@@0@AEBU10@0@Z	; glm::operator*<float,0>
PUBLIC	??$?HM$0A@@glm@@YA?AU?$tvec4@M$0A@@0@AEBU10@0@Z	; glm::operator+<float,0>
PUBLIC	??$?DM$0A@@glm@@YA?AU?$tvec4@M$0A@@0@AEBU10@M@Z	; glm::operator*<float,0>
PUBLIC	?call@?$compute_inverse@Utmat4x4@glm@@N$0A@$0A@@detail@glm@@SA?AU?$tmat4x4@N$0A@@3@AEBU43@@Z ; glm::detail::compute_inverse<glm::tmat4x4,double,0,0>::call
PUBLIC	??$?DN$0A@@glm@@YA?AU?$tvec4@N$0A@@0@AEBU10@N@Z	; glm::operator*<double,0>
PUBLIC	??$?HN$0A@@glm@@YA?AU?$tvec4@N$0A@@0@AEBU10@0@Z	; glm::operator+<double,0>
PUBLIC	??$?KM$0A@@glm@@YA?AU?$tvec4@M$0A@@0@MAEBU10@@Z	; glm::operator/<float,0>
PUBLIC	??$?KM$0A@@glm@@YA?AU?$tvec4@M$0A@@0@AEBU10@M@Z	; glm::operator/<float,0>
PUBLIC	??$?9M$0A@@glm@@YA_NAEBU?$tvec4@M$0A@@0@0@Z	; glm::operator!=<float,0>
PUBLIC	??$?8M$0A@@glm@@YA_NAEBU?$tvec4@M$0A@@0@0@Z	; glm::operator==<float,0>
PUBLIC	??$?GM$0A@@glm@@YA?AU?$tvec4@M$0A@@0@AEBU10@0@Z	; glm::operator-<float,0>
PUBLIC	??$abs@M$0A@Utvec4@glm@@@glm@@YA?AU?$tvec4@M$0A@@0@AEBU10@@Z ; glm::abs<float,0,glm::tvec4>
PUBLIC	??$lessThan@M$0A@Utvec4@glm@@@glm@@YA?AU?$tvec4@_N$0A@@0@AEBU?$tvec4@M$0A@@0@0@Z ; glm::lessThan<float,0,glm::tvec4>
PUBLIC	?call@?$compute_inverse@Utmat4x4@glm@@M$00$0A@@detail@glm@@SA?AU?$tmat4x4@M$00@3@AEBU43@@Z ; glm::detail::compute_inverse<glm::tmat4x4,float,1,0>::call
PUBLIC	??$?DM$00@glm@@YA?AU?$tvec4@M$00@0@AEBU10@M@Z	; glm::operator*<float,1>
PUBLIC	??$?HM$00@glm@@YA?AU?$tvec4@M$00@0@AEBU10@0@Z	; glm::operator+<float,1>
PUBLIC	??$?GM$00@glm@@YA?AU?$tvec4@M$00@0@AEBU10@0@Z	; glm::operator-<float,1>
PUBLIC	??$abs@M$00Utvec4@glm@@@glm@@YA?AU?$tvec4@M$00@0@AEBU10@@Z ; glm::abs<float,1,glm::tvec4>
PUBLIC	??$lessThan@M$00Utvec4@glm@@@glm@@YA?AU?$tvec4@_N$00@0@AEBU?$tvec4@M$00@0@0@Z ; glm::lessThan<float,1,glm::tvec4>
PUBLIC	?call@?$compute_inverse@Utmat4x4@glm@@M$01$0A@@detail@glm@@SA?AU?$tmat4x4@M$01@3@AEBU43@@Z ; glm::detail::compute_inverse<glm::tmat4x4,float,2,0>::call
PUBLIC	??$?DM$01@glm@@YA?AU?$tvec4@M$01@0@AEBU10@M@Z	; glm::operator*<float,2>
PUBLIC	??$?HM$01@glm@@YA?AU?$tvec4@M$01@0@AEBU10@0@Z	; glm::operator+<float,2>
PUBLIC	??$?GM$01@glm@@YA?AU?$tvec4@M$01@0@AEBU10@0@Z	; glm::operator-<float,2>
PUBLIC	??$abs@M$01Utvec4@glm@@@glm@@YA?AU?$tvec4@M$01@0@AEBU10@@Z ; glm::abs<float,2,glm::tvec4>
PUBLIC	??$lessThan@M$01Utvec4@glm@@@glm@@YA?AU?$tvec4@_N$01@0@AEBU?$tvec4@M$01@0@0@Z ; glm::lessThan<float,2,glm::tvec4>
PUBLIC	??$?_0M@?$tmat4x4@M$0A@@glm@@QEAAAEAU01@AEBU01@@Z ; glm::tmat4x4<float,0>::operator/=<float>
PUBLIC	??$_Deallocate_plain@V?$allocator@U_Container_proxy@std@@@std@@@std@@YAXAEAV?$allocator@U_Container_proxy@std@@@0@QEAU_Container_proxy@0@@Z ; std::_Deallocate_plain<std::allocator<std::_Container_proxy> >
PUBLIC	??$forward@AEBV?$allocator@U?$tmat4x4@M$0A@@glm@@@std@@@std@@YAAEBV?$allocator@U?$tmat4x4@M$0A@@glm@@@0@AEBV10@@Z ; std::forward<std::allocator<glm::tmat4x4<float,0> > const &>
PUBLIC	??0?$_Container_proxy_ptr12@V?$allocator@U_Container_proxy@std@@@std@@@std@@QEAA@AEAV?$allocator@U_Container_proxy@std@@@1@AEAU_Container_base12@1@@Z ; std::_Container_proxy_ptr12<std::allocator<std::_Container_proxy> >::_Container_proxy_ptr12<std::allocator<std::_Container_proxy> >
PUBLIC	??1?$_Container_proxy_ptr12@V?$allocator@U_Container_proxy@std@@@std@@@std@@QEAA@XZ ; std::_Container_proxy_ptr12<std::allocator<std::_Container_proxy> >::~_Container_proxy_ptr12<std::allocator<std::_Container_proxy> >
PUBLIC	??1?$_Tidy_guard@V?$vector@U?$tmat4x4@M$0A@@glm@@V?$allocator@U?$tmat4x4@M$0A@@glm@@@std@@@std@@@std@@QEAA@XZ ; std::_Tidy_guard<std::vector<glm::tmat4x4<float,0>,std::allocator<glm::tmat4x4<float,0> > > >::~_Tidy_guard<std::vector<glm::tmat4x4<float,0>,std::allocator<glm::tmat4x4<float,0> > > >
PUBLIC	??$forward@PEBU?$tmat4x4@M$0A@@glm@@@std@@YA$$QEAPEBU?$tmat4x4@M$0A@@glm@@AEAPEBU12@@Z ; std::forward<glm::tmat4x4<float,0> const *>
PUBLIC	??$_Uninitialized_copy@PEBU?$tmat4x4@M$0A@@glm@@V?$allocator@U?$tmat4x4@M$0A@@glm@@@std@@@std@@YAPEAU?$tmat4x4@M$0A@@glm@@QEBU12@0PEAU12@AEAV?$allocator@U?$tmat4x4@M$0A@@glm@@@0@@Z ; std::_Uninitialized_copy<glm::tmat4x4<float,0> const *,std::allocator<glm::tmat4x4<float,0> > >
PUBLIC	??$_Unfancy@U_Container_proxy@std@@@std@@YAPEAU_Container_proxy@0@PEAU10@@Z ; std::_Unfancy<std::_Container_proxy>
PUBLIC	??$addressof@U_Container_base12@std@@@std@@YAPEAU_Container_base12@0@AEAU10@@Z ; std::addressof<std::_Container_base12>
PUBLIC	??$_Construct_in_place@U_Container_proxy@std@@PEAU_Container_base12@2@@std@@YAXAEAU_Container_proxy@0@$$QEAPEAU_Container_base12@0@@Z ; std::_Construct_in_place<std::_Container_proxy,std::_Container_base12 *>
PUBLIC	??$?DM$01@glm@@YA?AU?$tvec4@M$01@0@AEBU10@0@Z	; glm::operator*<float,2>
PUBLIC	??$?0HHHH@?$tvec4@M$01@glm@@QEAA@HHHH@Z		; glm::tvec4<float,2>::tvec4<float,2><int,int,int,int>
PUBLIC	??$?DM$01@glm@@YA?AU?$tmat4x4@M$01@0@AEBU10@AEBM@Z ; glm::operator*<float,2>
PUBLIC	??$?DM$00@glm@@YA?AU?$tvec4@M$00@0@AEBU10@0@Z	; glm::operator*<float,1>
PUBLIC	??$?0HHHH@?$tvec4@M$00@glm@@QEAA@HHHH@Z		; glm::tvec4<float,1>::tvec4<float,1><int,int,int,int>
PUBLIC	??$?DM$00@glm@@YA?AU?$tmat4x4@M$00@0@AEBU10@AEBM@Z ; glm::operator*<float,1>
PUBLIC	??$?DN$0A@@glm@@YA?AU?$tvec4@N$0A@@0@AEBU10@0@Z	; glm::operator*<double,0>
PUBLIC	??$?GN$0A@@glm@@YA?AU?$tvec4@N$0A@@0@AEBU10@0@Z	; glm::operator-<double,0>
PUBLIC	??$?DN$0A@@glm@@YA?AU?$tmat4x4@N$0A@@0@AEBU10@AEBN@Z ; glm::operator*<double,0>
PUBLIC	??$_Get_size_of_n@$0BA@@std@@YA_K_K@Z		; std::_Get_size_of_n<16>
PUBLIC	??$_Allocate@$0BA@U_Default_allocate_traits@std@@$0A@@std@@YAPEAX_K@Z ; std::_Allocate<16,std::_Default_allocate_traits,0>
PUBLIC	??$min@_K@std@@YAAEB_KAEB_K0@Z			; std::min<unsigned __int64>
PUBLIC	??$_Get_size_of_n@$0EA@@std@@YA_K_K@Z		; std::_Get_size_of_n<64>
PUBLIC	??$?0MH@?$tvec2@M$0A@@glm@@QEAA@MH@Z		; glm::tvec2<float,0>::tvec2<float,0><float,int>
PUBLIC	??$?0HM@?$tvec2@M$0A@@glm@@QEAA@HM@Z		; glm::tvec2<float,0>::tvec2<float,0><int,float>
PUBLIC	??$?0MHH@?$tvec3@M$0A@@glm@@QEAA@MHH@Z		; glm::tvec3<float,0>::tvec3<float,0><float,int,int>
PUBLIC	??$?0HMH@?$tvec3@M$0A@@glm@@QEAA@HMH@Z		; glm::tvec3<float,0>::tvec3<float,0><int,float,int>
PUBLIC	??$?0HH@?$tvec2@M$0A@@glm@@QEAA@HH@Z		; glm::tvec2<float,0>::tvec2<float,0><int,int>
PUBLIC	??$?0HHM@?$tvec3@M$0A@@glm@@QEAA@HHM@Z		; glm::tvec3<float,0>::tvec3<float,0><int,int,float>
PUBLIC	??$?0HHH@?$tvec3@M$0A@@glm@@QEAA@HHH@Z		; glm::tvec3<float,0>::tvec3<float,0><int,int,int>
PUBLIC	??$?0MH$0A@@?$tvec4@M$0A@@glm@@QEAA@AEBU?$tvec3@M$0A@@1@H@Z ; glm::tvec4<float,0>::tvec4<float,0><float,int,0>
PUBLIC	??$?0MHH$0A@@?$tvec4@M$0A@@glm@@QEAA@AEBU?$tvec2@M$0A@@1@HH@Z ; glm::tvec4<float,0>::tvec4<float,0><float,int,int,0>
PUBLIC	??$?XM@?$tvec4@M$0A@@glm@@QEAAAEAU01@AEBU01@@Z	; glm::tvec4<float,0>::operator*=<float>
PUBLIC	??$?YM@?$tvec4@M$0A@@glm@@QEAAAEAU01@AEBU01@@Z	; glm::tvec4<float,0>::operator+=<float>
PUBLIC	??$?XM@?$tvec4@M$0A@@glm@@QEAAAEAU01@M@Z	; glm::tvec4<float,0>::operator*=<float>
PUBLIC	??$?XN@?$tvec4@N$0A@@glm@@QEAAAEAU01@N@Z	; glm::tvec4<double,0>::operator*=<double>
PUBLIC	??$?YN@?$tvec4@N$0A@@glm@@QEAAAEAU01@AEBU01@@Z	; glm::tvec4<double,0>::operator+=<double>
PUBLIC	??$?_0M@?$tvec4@M$0A@@glm@@QEAAAEAU01@AEBU01@@Z	; glm::tvec4<float,0>::operator/=<float>
PUBLIC	??$?_0M@?$tvec4@M$0A@@glm@@QEAAAEAU01@M@Z	; glm::tvec4<float,0>::operator/=<float>
PUBLIC	?call@?$compute_vec4_nequal@M$0A@$0A@$0CA@$0A@@detail@glm@@SA_NAEBU?$tvec4@M$0A@@3@0@Z ; glm::detail::compute_vec4_nequal<float,0,0,32,0>::call
PUBLIC	?call@?$compute_vec4_equal@M$0A@$0A@$0CA@$0A@@detail@glm@@SA_NAEBU?$tvec4@M$0A@@3@0@Z ; glm::detail::compute_vec4_equal<float,0,0,32,0>::call
PUBLIC	??$?ZM@?$tvec4@M$0A@@glm@@QEAAAEAU01@AEBU01@@Z	; glm::tvec4<float,0>::operator-=<float>
PUBLIC	?call@?$compute_abs_vector@M$0A@Utvec4@glm@@$0A@@detail@glm@@SA?AU?$tvec4@M$0A@@3@AEBU43@@Z ; glm::detail::compute_abs_vector<float,0,glm::tvec4,0>::call
PUBLIC	??$?XM@?$tvec4@M$00@glm@@QEAAAEAU01@M@Z		; glm::tvec4<float,1>::operator*=<float>
PUBLIC	??$?YM@?$tvec4@M$00@glm@@QEAAAEAU01@AEBU01@@Z	; glm::tvec4<float,1>::operator+=<float>
PUBLIC	??$?ZM@?$tvec4@M$00@glm@@QEAAAEAU01@AEBU01@@Z	; glm::tvec4<float,1>::operator-=<float>
PUBLIC	?call@?$compute_abs_vector@M$00Utvec4@glm@@$0A@@detail@glm@@SA?AU?$tvec4@M$00@3@AEBU43@@Z ; glm::detail::compute_abs_vector<float,1,glm::tvec4,0>::call
PUBLIC	??$?XM@?$tvec4@M$01@glm@@QEAAAEAU01@M@Z		; glm::tvec4<float,2>::operator*=<float>
PUBLIC	??$?YM@?$tvec4@M$01@glm@@QEAAAEAU01@AEBU01@@Z	; glm::tvec4<float,2>::operator+=<float>
PUBLIC	??$?ZM@?$tvec4@M$01@glm@@QEAAAEAU01@AEBU01@@Z	; glm::tvec4<float,2>::operator-=<float>
PUBLIC	?call@?$compute_abs_vector@M$01Utvec4@glm@@$0A@@detail@glm@@SA?AU?$tvec4@M$01@3@AEBU43@@Z ; glm::detail::compute_abs_vector<float,2,glm::tvec4,0>::call
PUBLIC	??$?XM@?$tmat4x4@M$0A@@glm@@QEAAAEAU01@AEBU01@@Z ; glm::tmat4x4<float,0>::operator*=<float>
PUBLIC	?deallocate@?$_Default_allocator_traits@V?$allocator@U_Container_proxy@std@@@std@@@std@@SAXAEAV?$allocator@U_Container_proxy@std@@@2@QEAU_Container_proxy@2@_K@Z ; std::_Default_allocator_traits<std::allocator<std::_Container_proxy> >::deallocate
PUBLIC	??$_Get_unwrapped@AEBQEBU?$tmat4x4@M$0A@@glm@@@std@@YA?A_TAEBQEBU?$tmat4x4@M$0A@@glm@@@Z ; std::_Get_unwrapped<glm::tmat4x4<float,0> const * const &>
PUBLIC	??$_Unfancy@U?$tmat4x4@M$0A@@glm@@@std@@YAPEAU?$tmat4x4@M$0A@@glm@@PEAU12@@Z ; std::_Unfancy<glm::tmat4x4<float,0> >
PUBLIC	??$_Copy_memmove@PEBU?$tmat4x4@M$0A@@glm@@PEAU12@@std@@YAPEAU?$tmat4x4@M$0A@@glm@@PEBU12@0PEAU12@@Z ; std::_Copy_memmove<glm::tmat4x4<float,0> const *,glm::tmat4x4<float,0> *>
PUBLIC	??0?$_Uninitialized_backout_al@V?$allocator@U?$tmat4x4@M$0A@@glm@@@std@@@std@@QEAA@PEAU?$tmat4x4@M$0A@@glm@@AEAV?$allocator@U?$tmat4x4@M$0A@@glm@@@1@@Z ; std::_Uninitialized_backout_al<std::allocator<glm::tmat4x4<float,0> > >::_Uninitialized_backout_al<std::allocator<glm::tmat4x4<float,0> > >
PUBLIC	??1?$_Uninitialized_backout_al@V?$allocator@U?$tmat4x4@M$0A@@glm@@@std@@@std@@QEAA@XZ ; std::_Uninitialized_backout_al<std::allocator<glm::tmat4x4<float,0> > >::~_Uninitialized_backout_al<std::allocator<glm::tmat4x4<float,0> > >
PUBLIC	?_Release@?$_Uninitialized_backout_al@V?$allocator@U?$tmat4x4@M$0A@@glm@@@std@@@std@@QEAAPEAU?$tmat4x4@M$0A@@glm@@XZ ; std::_Uninitialized_backout_al<std::allocator<glm::tmat4x4<float,0> > >::_Release
PUBLIC	??$_Emplace_back@AEBU?$tmat4x4@M$0A@@glm@@@?$_Uninitialized_backout_al@V?$allocator@U?$tmat4x4@M$0A@@glm@@@std@@@std@@QEAAXAEBU?$tmat4x4@M$0A@@glm@@@Z ; std::_Uninitialized_backout_al<std::allocator<glm::tmat4x4<float,0> > >::_Emplace_back<glm::tmat4x4<float,0> const &>
PUBLIC	??$addressof@U_Container_proxy@std@@@std@@YAPEAU_Container_proxy@0@AEAU10@@Z ; std::addressof<std::_Container_proxy>
PUBLIC	??$_Voidify_iter@PEAU_Container_proxy@std@@@std@@YAPEAXPEAU_Container_proxy@0@@Z ; std::_Voidify_iter<std::_Container_proxy *>
PUBLIC	??$forward@PEAU_Container_base12@std@@@std@@YA$$QEAPEAU_Container_base12@0@AEAPEAU10@@Z ; std::forward<std::_Container_base12 *>
PUBLIC	??$?XM@?$tvec4@M$01@glm@@QEAAAEAU01@AEBU01@@Z	; glm::tvec4<float,2>::operator*=<float>
PUBLIC	??$?XM@?$tvec4@M$00@glm@@QEAAAEAU01@AEBU01@@Z	; glm::tvec4<float,1>::operator*=<float>
PUBLIC	??$?XN@?$tvec4@N$0A@@glm@@QEAAAEAU01@AEBU01@@Z	; glm::tvec4<double,0>::operator*=<double>
PUBLIC	??$?ZN@?$tvec4@N$0A@@glm@@QEAAAEAU01@AEBU01@@Z	; glm::tvec4<double,0>::operator-=<double>
PUBLIC	??$_Allocate_manually_vector_aligned@U_Default_allocate_traits@std@@@std@@YAPEAX_K@Z ; std::_Allocate_manually_vector_aligned<std::_Default_allocate_traits>
PUBLIC	?call@?$functor1@MM$01Utvec4@glm@@@detail@glm@@SA?AU?$tvec4@M$01@3@P6AMM@ZAEBU43@@Z ; glm::detail::functor1<float,float,2,glm::tvec4>::call
PUBLIC	?call@?$functor1@MM$00Utvec4@glm@@@detail@glm@@SA?AU?$tvec4@M$00@3@P6AMM@ZAEBU43@@Z ; glm::detail::functor1<float,float,1,glm::tvec4>::call
PUBLIC	?call@?$functor1@MM$0A@Utvec4@glm@@@detail@glm@@SA?AU?$tvec4@M$0A@@3@P6AMM@ZAEBU43@@Z ; glm::detail::functor1<float,float,0,glm::tvec4>::call
PUBLIC	?call@?$compute_vec4_mul@M$0A@$0A@@detail@glm@@SA?AU?$tvec4@M$0A@@3@AEBU43@0@Z ; glm::detail::compute_vec4_mul<float,0,0>::call
PUBLIC	?call@?$compute_vec4_add@M$0A@$0A@@detail@glm@@SA?AU?$tvec4@M$0A@@3@AEBU43@0@Z ; glm::detail::compute_vec4_add<float,0,0>::call
PUBLIC	?call@?$compute_vec4_mul@N$0A@$0A@@detail@glm@@SA?AU?$tvec4@N$0A@@3@AEBU43@0@Z ; glm::detail::compute_vec4_mul<double,0,0>::call
PUBLIC	?call@?$compute_vec4_add@N$0A@$0A@@detail@glm@@SA?AU?$tvec4@N$0A@@3@AEBU43@0@Z ; glm::detail::compute_vec4_add<double,0,0>::call
PUBLIC	?call@?$compute_vec4_div@M$0A@$0A@@detail@glm@@SA?AU?$tvec4@M$0A@@3@AEBU43@0@Z ; glm::detail::compute_vec4_div<float,0,0>::call
PUBLIC	?call@?$compute_vec4_sub@M$0A@$0A@@detail@glm@@SA?AU?$tvec4@M$0A@@3@AEBU43@0@Z ; glm::detail::compute_vec4_sub<float,0,0>::call
PUBLIC	?call@?$compute_vec4_mul@M$00$0A@@detail@glm@@SA?AU?$tvec4@M$00@3@AEBU43@0@Z ; glm::detail::compute_vec4_mul<float,1,0>::call
PUBLIC	?call@?$compute_vec4_add@M$00$0A@@detail@glm@@SA?AU?$tvec4@M$00@3@AEBU43@0@Z ; glm::detail::compute_vec4_add<float,1,0>::call
PUBLIC	?call@?$compute_vec4_sub@M$00$0A@@detail@glm@@SA?AU?$tvec4@M$00@3@AEBU43@0@Z ; glm::detail::compute_vec4_sub<float,1,0>::call
PUBLIC	?call@?$compute_vec4_mul@M$01$0A@@detail@glm@@SA?AU?$tvec4@M$01@3@AEBU43@0@Z ; glm::detail::compute_vec4_mul<float,2,0>::call
PUBLIC	?call@?$compute_vec4_add@M$01$0A@@detail@glm@@SA?AU?$tvec4@M$01@3@AEBU43@0@Z ; glm::detail::compute_vec4_add<float,2,0>::call
PUBLIC	?call@?$compute_vec4_sub@M$01$0A@@detail@glm@@SA?AU?$tvec4@M$01@3@AEBU43@0@Z ; glm::detail::compute_vec4_sub<float,2,0>::call
PUBLIC	??$_To_address@PEBU?$tmat4x4@M$0A@@glm@@@std@@YA?A_PAEBQEBU?$tmat4x4@M$0A@@glm@@@Z ; std::_To_address<glm::tmat4x4<float,0> const *>
PUBLIC	??$_To_address@PEAU?$tmat4x4@M$0A@@glm@@@std@@YA?A_PAEBQEAU?$tmat4x4@M$0A@@glm@@@Z ; std::_To_address<glm::tmat4x4<float,0> *>
PUBLIC	??$forward@AEBU?$tmat4x4@M$0A@@glm@@@std@@YAAEBU?$tmat4x4@M$0A@@glm@@AEBU12@@Z ; std::forward<glm::tmat4x4<float,0> const &>
PUBLIC	??$construct@U?$tmat4x4@M$0A@@glm@@AEBU12@@?$_Default_allocator_traits@V?$allocator@U?$tmat4x4@M$0A@@glm@@@std@@@std@@SAXAEAV?$allocator@U?$tmat4x4@M$0A@@glm@@@1@QEAU?$tmat4x4@M$0A@@glm@@AEBU34@@Z ; std::_Default_allocator_traits<std::allocator<glm::tmat4x4<float,0> > >::construct<glm::tmat4x4<float,0>,glm::tmat4x4<float,0> const &>
PUBLIC	?call@?$compute_vec4_sub@N$0A@$0A@@detail@glm@@SA?AU?$tvec4@N$0A@@3@AEBU43@0@Z ; glm::detail::compute_vec4_sub<double,0,0>::call
PUBLIC	??$_Voidify_iter@PEAU?$tmat4x4@M$0A@@glm@@@std@@YAPEAXPEAU?$tmat4x4@M$0A@@glm@@@Z ; std::_Voidify_iter<glm::tmat4x4<float,0> *>
PUBLIC	?_OptionsStorage@?1??__local_stdio_printf_options@@9@4_KA ; `__local_stdio_printf_options'::`2'::_OptionsStorage
PUBLIC	??_7exception@std@@6B@				; std::exception::`vftable'
PUBLIC	??_C@_0BC@EOODALEL@Unknown?5exception@		; `string'
PUBLIC	??_7bad_alloc@std@@6B@				; std::bad_alloc::`vftable'
PUBLIC	??_7bad_array_new_length@std@@6B@		; std::bad_array_new_length::`vftable'
PUBLIC	??_C@_0BF@KINCDENJ@bad?5array?5new?5length@	; `string'
PUBLIC	_TI3?AVbad_array_new_length@std@@
PUBLIC	_CTA3?AVbad_array_new_length@std@@
PUBLIC	??_R0?AVbad_array_new_length@std@@@8		; std::bad_array_new_length `RTTI Type Descriptor'
PUBLIC	_CT??_R0?AVbad_array_new_length@std@@@8??0bad_array_new_length@std@@QEAA@AEBV01@@Z24
PUBLIC	??_R0?AVbad_alloc@std@@@8			; std::bad_alloc `RTTI Type Descriptor'
PUBLIC	_CT??_R0?AVbad_alloc@std@@@8??0bad_alloc@std@@QEAA@AEBV01@@Z24
PUBLIC	??_R0?AVexception@std@@@8			; std::exception `RTTI Type Descriptor'
PUBLIC	_CT??_R0?AVexception@std@@@8??0exception@std@@QEAA@AEBV01@@Z24
PUBLIC	??_C@_0BB@FCMFBGOM@invalid?5argument@		; `string'
PUBLIC	??_C@_02DKCKIIND@?$CFs@				; `string'
PUBLIC	??_C@_0GC@DJFHHHKN@C?3?2Program?5Files?2Microsoft?5Visu@ ; `string'
PUBLIC	??_C@_1ME@GEFGDEOM@?$AAC?$AA?3?$AA?2?$AAP?$AAr?$AAo?$AAg?$AAr?$AAa?$AAm?$AA?5?$AAF?$AAi?$AAl?$AAe@ ; `string'
PUBLIC	??_C@_11LOCGONAA@@				; `string'
PUBLIC	??_C@_1CG@JNLFBNGN@?$AA?$CC?$AAi?$AAn?$AAv?$AAa?$AAl?$AAi?$AAd?$AA?5?$AAa?$AAr?$AAg?$AAu?$AAm?$AAe@ ; `string'
PUBLIC	??_C@_0DG@KGHKKGBC@null?5pointer?5cannot?5point?5to?5a?5@ ; `string'
PUBLIC	??_C@_1HA@FACCKGGH@?$AA?$CC?$AAn?$AAu?$AAl?$AAl?$AA?5?$AAp?$AAo?$AAi?$AAn?$AAt?$AAe?$AAr?$AA?5?$AAc@ ; `string'
PUBLIC	??_C@_1LK@BAPNPALB@?$AAC?$AA?3?$AA?2?$AAU?$AAs?$AAe?$AAr?$AAs?$AA?2?$AAk?$AAs?$AAa?$AAr?$AAt?$AA?2@ ; `string'
PUBLIC	??_C@_1CG@KOFHLCJL@?$AAi?$AA?5?$AA?$DM?$AA?5?$AAt?$AAh?$AAi?$AAs?$AA?9?$AA?$DO?$AAl?$AAe?$AAn?$AAg?$AAt@ ; `string'
PUBLIC	??_C@_1NA@OPABFNEN@?$AAC?$AA?3?$AA?2?$AAU?$AAs?$AAe?$AAr?$AAs?$AA?2?$AAk?$AAs?$AAa?$AAr?$AAt?$AA?2@ ; `string'
PUBLIC	??_C@_1DC@HHLCGOLC@?$AAx?$AA?4?$AAl?$AAe?$AAn?$AAg?$AAt?$AAh?$AA?$CI?$AA?$CJ?$AA?5?$AA?$DN?$AA?$DN?$AA?5?$AAy@ ; `string'
PUBLIC	??_C@_0BA@FOIKENOD@vector?5too?5long@		; `string'
PUBLIC	??_C@_1LG@LAANPDHN@?$AAC?$AA?3?$AA?2?$AAU?$AAs?$AAe?$AAr?$AAs?$AA?2?$AAk?$AAs?$AAa?$AAr?$AAt?$AA?2@ ; `string'
PUBLIC	??_C@_1DK@BGNCJAPL@?$AAi?$AA?5?$AA?$DO?$AA?$DN?$AA?5?$AA0?$AA?5?$AA?$CG?$AA?$CG?$AA?5?$AAi?$AA?5?$AA?$DM?$AA?5?$AAt@ ; `string'
PUBLIC	??_C@_1LK@KMFBDMLF@?$AAC?$AA?3?$AA?2?$AAU?$AAs?$AAe?$AAr?$AAs?$AA?2?$AAk?$AAs?$AAa?$AAr?$AAt?$AA?2@ ; `string'
PUBLIC	??_C@_1LK@DHPEHANK@?$AAC?$AA?3?$AA?2?$AAU?$AAs?$AAe?$AAr?$AAs?$AA?2?$AAk?$AAs?$AAa?$AAr?$AAt?$AA?2@ ; `string'
PUBLIC	??_C@_1LK@EDGMJJFF@?$AAC?$AA?3?$AA?2?$AAU?$AAs?$AAe?$AAr?$AAs?$AA?2?$AAk?$AAs?$AAa?$AAr?$AAt?$AA?2@ ; `string'
PUBLIC	??_C@_1LK@CDJKNCE@?$AAC?$AA?3?$AA?2?$AAU?$AAs?$AAe?$AAr?$AAs?$AA?2?$AAk?$AAs?$AAa?$AAr?$AAt?$AA?2@ ; `string'
PUBLIC	??_C@_1LK@JJJMOBEL@?$AAC?$AA?3?$AA?2?$AAU?$AAs?$AAe?$AAr?$AAs?$AA?2?$AAk?$AAs?$AAa?$AAr?$AAt?$AA?2@ ; `string'
PUBLIC	??_C@_1LK@ONAEAIME@?$AAC?$AA?3?$AA?2?$AAU?$AAs?$AAe?$AAr?$AAs?$AA?2?$AAk?$AAs?$AAa?$AAr?$AAt?$AA?2@ ; `string'
PUBLIC	??_C@_1LK@PPMAFFFB@?$AAC?$AA?3?$AA?2?$AAU?$AAs?$AAe?$AAr?$AAs?$AA?2?$AAk?$AAs?$AAa?$AAr?$AAt?$AA?2@ ; `string'
PUBLIC	??_C@_1LK@GEGFBJDO@?$AAC?$AA?3?$AA?2?$AAU?$AAs?$AAe?$AAr?$AAs?$AA?2?$AAk?$AAs?$AAa?$AAr?$AAt?$AA?2@ ; `string'
PUBLIC	??_R4exception@std@@6B@				; std::exception::`RTTI Complete Object Locator'
PUBLIC	??_R3exception@std@@8				; std::exception::`RTTI Class Hierarchy Descriptor'
PUBLIC	??_R2exception@std@@8				; std::exception::`RTTI Base Class Array'
PUBLIC	??_R1A@?0A@EA@exception@std@@8			; std::exception::`RTTI Base Class Descriptor at (0,-1,0,64)'
PUBLIC	??_R4bad_alloc@std@@6B@				; std::bad_alloc::`RTTI Complete Object Locator'
PUBLIC	??_R3bad_alloc@std@@8				; std::bad_alloc::`RTTI Class Hierarchy Descriptor'
PUBLIC	??_R2bad_alloc@std@@8				; std::bad_alloc::`RTTI Base Class Array'
PUBLIC	??_R1A@?0A@EA@bad_alloc@std@@8			; std::bad_alloc::`RTTI Base Class Descriptor at (0,-1,0,64)'
PUBLIC	??_R4bad_array_new_length@std@@6B@		; std::bad_array_new_length::`RTTI Complete Object Locator'
PUBLIC	??_R3bad_array_new_length@std@@8		; std::bad_array_new_length::`RTTI Class Hierarchy Descriptor'
PUBLIC	??_R2bad_array_new_length@std@@8		; std::bad_array_new_length::`RTTI Base Class Array'
PUBLIC	??_R1A@?0A@EA@bad_array_new_length@std@@8	; std::bad_array_new_length::`RTTI Base Class Descriptor at (0,-1,0,64)'
PUBLIC	__real@00000000
PUBLIC	__real@3c23d70a
PUBLIC	__real@3e4ccccd
PUBLIC	__real@3e99999a
PUBLIC	__real@3ecccccd
PUBLIC	__real@3f000000
PUBLIC	__real@3f19999a
PUBLIC	__real@3f333333
PUBLIC	__real@3f800000
PUBLIC	__real@3ff0000000000000
PUBLIC	__xmm@80000000800000008000000080000000
EXTRN	??2@YAPEAX_K@Z:PROC				; operator new
EXTRN	??3@YAXPEAX_K@Z:PROC				; operator delete
EXTRN	__imp__invalid_parameter:PROC
EXTRN	__imp__wassert:PROC
EXTRN	__imp___acrt_iob_func:PROC
EXTRN	__imp___stdio_common_vfprintf:PROC
EXTRN	memmove:PROC
EXTRN	__imp__CrtDbgReport:PROC
EXTRN	__imp_??0_Lockit@std@@QEAA@H@Z:PROC
EXTRN	__imp_??1_Lockit@std@@QEAA@XZ:PROC
EXTRN	__std_exception_copy:PROC
EXTRN	__std_exception_destroy:PROC
EXTRN	??_Eexception@std@@UEAAPEAXI@Z:PROC		; std::exception::`vector deleting destructor'
EXTRN	??_Ebad_alloc@std@@UEAAPEAXI@Z:PROC		; std::bad_alloc::`vector deleting destructor'
EXTRN	??_Ebad_array_new_length@std@@UEAAPEAXI@Z:PROC	; std::bad_array_new_length::`vector deleting destructor'
EXTRN	?_Xlength_error@std@@YAXPEBD@Z:PROC		; std::_Xlength_error
EXTRN	_CxxThrowException:PROC
EXTRN	_RTC_CheckStackVars:PROC
EXTRN	_RTC_InitBase:PROC
EXTRN	_RTC_Shutdown:PROC
EXTRN	__CxxFrameHandler4:PROC
EXTRN	__GSHandlerCheck:PROC
EXTRN	__GSHandlerCheck_EH4:PROC
EXTRN	__security_check_cookie:PROC
EXTRN	??_7type_info@@6B@:BYTE				; type_info::`vftable'
EXTRN	__security_cookie:QWORD
EXTRN	_fltused:DWORD
;	COMDAT ?_OptionsStorage@?1??__local_stdio_printf_options@@9@4_KA
_BSS	SEGMENT
?_OptionsStorage@?1??__local_stdio_printf_options@@9@4_KA DQ 01H DUP (?) ; `__local_stdio_printf_options'::`2'::_OptionsStorage
_BSS	ENDS
;	COMDAT pdata
pdata	SEGMENT
$pdata$??_H@YAXPEAX_K1P6APEAX0@Z@Z DD imagerel $LN7
	DD	imagerel $LN7+119
	DD	imagerel $unwind$??_H@YAXPEAX_K1P6APEAX0@Z@Z
pdata	ENDS
;	COMDAT pdata
pdata	SEGMENT
$pdata$__local_stdio_printf_options DD imagerel $LN3
	DD	imagerel $LN3+11
	DD	imagerel $unwind$__local_stdio_printf_options
pdata	ENDS
;	COMDAT pdata
pdata	SEGMENT
$pdata$_vfprintf_l DD imagerel $LN3
	DD	imagerel $LN3+70
	DD	imagerel $unwind$_vfprintf_l
pdata	ENDS
;	COMDAT pdata
pdata	SEGMENT
$pdata$printf DD imagerel $LN3
	DD	imagerel $LN3+131
	DD	imagerel $unwind$printf
pdata	ENDS
;	COMDAT pdata
pdata	SEGMENT
$pdata$?max@?$numeric_limits@_J@std@@SA_JXZ DD imagerel $LN3
	DD	imagerel $LN3+14
	DD	imagerel $unwind$?max@?$numeric_limits@_J@std@@SA_JXZ
pdata	ENDS
;	COMDAT pdata
pdata	SEGMENT
$pdata$??2@YAPEAX_KPEAX@Z DD imagerel $LN3
	DD	imagerel $LN3+18
	DD	imagerel $unwind$??2@YAPEAX_KPEAX@Z
pdata	ENDS
;	COMDAT pdata
pdata	SEGMENT
$pdata$??$abs@M@glm@@YAMM@Z DD imagerel $LN3
	DD	imagerel $LN3+28
	DD	imagerel $unwind$??$abs@M@glm@@YAMM@Z
pdata	ENDS
;	COMDAT pdata
pdata	SEGMENT
$pdata$??0exception@std@@QEAA@QEBDH@Z DD imagerel $LN3
	DD	imagerel $LN3+73
	DD	imagerel $unwind$??0exception@std@@QEAA@QEBDH@Z
pdata	ENDS
;	COMDAT pdata
pdata	SEGMENT
$pdata$??0exception@std@@QEAA@AEBV01@@Z DD imagerel $LN3
	DD	imagerel $LN3+88
	DD	imagerel $unwind$??0exception@std@@QEAA@AEBV01@@Z
pdata	ENDS
;	COMDAT pdata
pdata	SEGMENT
$pdata$??1exception@std@@UEAA@XZ DD imagerel $LN3
	DD	imagerel $LN3+48
	DD	imagerel $unwind$??1exception@std@@UEAA@XZ
pdata	ENDS
;	COMDAT pdata
pdata	SEGMENT
$pdata$?what@exception@std@@UEBAPEBDXZ DD imagerel $LN5
	DD	imagerel $LN5+58
	DD	imagerel $unwind$?what@exception@std@@UEBAPEBDXZ
pdata	ENDS
;	COMDAT pdata
pdata	SEGMENT
$pdata$??_Gexception@std@@UEAAPEAXI@Z DD imagerel $LN4
	DD	imagerel $LN4+61
	DD	imagerel $unwind$??_Gexception@std@@UEAAPEAXI@Z
pdata	ENDS
;	COMDAT pdata
pdata	SEGMENT
$pdata$??0bad_alloc@std@@AEAA@QEBD@Z DD imagerel $LN3
	DD	imagerel $LN3+62
	DD	imagerel $unwind$??0bad_alloc@std@@AEAA@QEBD@Z
pdata	ENDS
;	COMDAT pdata
pdata	SEGMENT
$pdata$??1bad_alloc@std@@UEAA@XZ DD imagerel $LN3
	DD	imagerel $LN3+26
	DD	imagerel $unwind$??1bad_alloc@std@@UEAA@XZ
pdata	ENDS
;	COMDAT pdata
pdata	SEGMENT
$pdata$??0bad_alloc@std@@QEAA@AEBV01@@Z DD imagerel $LN3
	DD	imagerel $LN3+56
	DD	imagerel $unwind$??0bad_alloc@std@@QEAA@AEBV01@@Z
pdata	ENDS
;	COMDAT pdata
pdata	SEGMENT
$pdata$??_Gbad_alloc@std@@UEAAPEAXI@Z DD imagerel $LN4
	DD	imagerel $LN4+61
	DD	imagerel $unwind$??_Gbad_alloc@std@@UEAAPEAXI@Z
pdata	ENDS
;	COMDAT pdata
pdata	SEGMENT
$pdata$??0bad_array_new_length@std@@QEAA@XZ DD imagerel $LN3
	DD	imagerel $LN3+53
	DD	imagerel $unwind$??0bad_array_new_length@std@@QEAA@XZ
pdata	ENDS
;	COMDAT pdata
pdata	SEGMENT
$pdata$??1bad_array_new_length@std@@UEAA@XZ DD imagerel $LN3
	DD	imagerel $LN3+26
	DD	imagerel $unwind$??1bad_array_new_length@std@@UEAA@XZ
pdata	ENDS
;	COMDAT pdata
pdata	SEGMENT
$pdata$??0bad_array_new_length@std@@QEAA@AEBV01@@Z DD imagerel $LN3
	DD	imagerel $LN3+56
	DD	imagerel $unwind$??0bad_array_new_length@std@@QEAA@AEBV01@@Z
pdata	ENDS
;	COMDAT pdata
pdata	SEGMENT
$pdata$??_Gbad_array_new_length@std@@UEAAPEAXI@Z DD imagerel $LN4
	DD	imagerel $LN4+61
	DD	imagerel $unwind$??_Gbad_array_new_length@std@@UEAAPEAXI@Z
pdata	ENDS
;	COMDAT pdata
pdata	SEGMENT
$pdata$?_Throw_bad_array_new_length@std@@YAXXZ DD imagerel $LN3
	DD	imagerel $LN3+39
	DD	imagerel $unwind$?_Throw_bad_array_new_length@std@@YAXXZ
pdata	ENDS
;	COMDAT pdata
pdata	SEGMENT
$pdata$?_Allocate@_Default_allocate_traits@std@@SAPEAX_K@Z DD imagerel $LN3
	DD	imagerel $LN3+26
	DD	imagerel $unwind$?_Allocate@_Default_allocate_traits@std@@SAPEAX_K@Z
pdata	ENDS
;	COMDAT pdata
pdata	SEGMENT
$pdata$?_Adjust_manually_vector_aligned@std@@YAXAEAPEAXAEA_K@Z DD imagerel $LN21
	DD	imagerel $LN21+404
	DD	imagerel $unwind$?_Adjust_manually_vector_aligned@std@@YAXAEAPEAXAEA_K@Z
pdata	ENDS
;	COMDAT pdata
pdata	SEGMENT
$pdata$??0_Container_proxy@std@@QEAA@PEAU_Container_base12@1@@Z DD imagerel $LN3
	DD	imagerel $LN3+44
	DD	imagerel $unwind$??0_Container_proxy@std@@QEAA@PEAU_Container_base12@1@@Z
pdata	ENDS
;	COMDAT pdata
pdata	SEGMENT
$pdata$??0_Container_base12@std@@QEAA@XZ DD imagerel $LN3
	DD	imagerel $LN3+25
	DD	imagerel $unwind$??0_Container_base12@std@@QEAA@XZ
pdata	ENDS
;	COMDAT pdata
pdata	SEGMENT
$pdata$?_Orphan_all@_Container_base12@std@@QEAAXXZ DD imagerel $LN3
	DD	imagerel $LN3+26
	DD	imagerel $unwind$?_Orphan_all@_Container_base12@std@@QEAAXXZ
pdata	ENDS
;	COMDAT pdata
pdata	SEGMENT
$pdata$?_Orphan_all_unlocked_v3@_Container_base12@std@@AEAAXXZ DD imagerel $LN7
	DD	imagerel $LN7+107
	DD	imagerel $unwind$?_Orphan_all_unlocked_v3@_Container_base12@std@@AEAAXXZ
pdata	ENDS
;	COMDAT pdata
pdata	SEGMENT
$pdata$?_Orphan_all_locked_v3@_Container_base12@std@@AEAAXXZ DD imagerel $LN3
	DD	imagerel $LN3+90
	DD	imagerel $unwind$?_Orphan_all_locked_v3@_Container_base12@std@@AEAAXXZ
pdata	ENDS
;	COMDAT pdata
pdata	SEGMENT
$pdata$?_Release@_Basic_container_proxy_ptr12@std@@QEAAXXZ DD imagerel $LN3
	DD	imagerel $LN3+20
	DD	imagerel $unwind$?_Release@_Basic_container_proxy_ptr12@std@@QEAAXXZ
pdata	ENDS
;	COMDAT pdata
pdata	SEGMENT
$pdata$??0_Basic_container_proxy_ptr12@std@@IEAA@XZ DD imagerel $LN3
	DD	imagerel $LN3+25
	DD	imagerel $unwind$??0_Basic_container_proxy_ptr12@std@@IEAA@XZ
pdata	ENDS
pdata	SEGMENT
$pdata$?test_inverse_mat4x4@@YAHXZ DD imagerel $LN3
	DD	imagerel $LN3+446
	DD	imagerel $unwind$?test_inverse_mat4x4@@YAHXZ
pdata	ENDS
;	COMDAT pdata
pdata	SEGMENT
$pdata$?length@?$tvec4@M$0A@@glm@@SAHXZ DD imagerel $LN3
	DD	imagerel $LN3+9
	DD	imagerel $unwind$?length@?$tvec4@M$0A@@glm@@SAHXZ
pdata	ENDS
;	COMDAT pdata
pdata	SEGMENT
$pdata$??A?$tvec4@M$0A@@glm@@QEAAAEAMH@Z DD imagerel $LN5
	DD	imagerel $LN5+80
	DD	imagerel $unwind$??A?$tvec4@M$0A@@glm@@QEAAAEAMH@Z
pdata	ENDS
;	COMDAT pdata
pdata	SEGMENT
$pdata$??A?$tvec4@M$0A@@glm@@QEBAAEBMH@Z DD imagerel $LN5
	DD	imagerel $LN5+80
	DD	imagerel $unwind$??A?$tvec4@M$0A@@glm@@QEBAAEBMH@Z
pdata	ENDS
;	COMDAT pdata
pdata	SEGMENT
$pdata$??0?$tvec4@M$0A@@glm@@QEAA@XZ DD imagerel $LN3
	DD	imagerel $LN3+64
	DD	imagerel $unwind$??0?$tvec4@M$0A@@glm@@QEAA@XZ
pdata	ENDS
;	COMDAT pdata
pdata	SEGMENT
$pdata$??0?$tvec4@M$0A@@glm@@QEAA@M@Z DD imagerel $LN3
	DD	imagerel $LN3+82
	DD	imagerel $unwind$??0?$tvec4@M$0A@@glm@@QEAA@M@Z
pdata	ENDS
;	COMDAT pdata
pdata	SEGMENT
$pdata$??0?$tvec4@M$0A@@glm@@QEAA@MMMM@Z DD imagerel $LN3
	DD	imagerel $LN3+94
	DD	imagerel $unwind$??0?$tvec4@M$0A@@glm@@QEAA@MMMM@Z
pdata	ENDS
;	COMDAT pdata
pdata	SEGMENT
$pdata$??0?$tmat4x4@M$0A@@glm@@QEAA@XZ DD imagerel $LN3
	DD	imagerel $LN3+297
	DD	imagerel $unwind$??0?$tmat4x4@M$0A@@glm@@QEAA@XZ
pdata	ENDS
;	COMDAT pdata
pdata	SEGMENT
$pdata$??0?$tmat4x4@M$0A@@glm@@QEAA@W4ctor@1@@Z DD imagerel $LN3
	DD	imagerel $LN3+56
	DD	imagerel $unwind$??0?$tmat4x4@M$0A@@glm@@QEAA@W4ctor@1@@Z
pdata	ENDS
;	COMDAT pdata
pdata	SEGMENT
$pdata$??0?$tmat4x4@M$0A@@glm@@QEAA@AEBM@Z DD imagerel $LN3
	DD	imagerel $LN3+331
	DD	imagerel $unwind$??0?$tmat4x4@M$0A@@glm@@QEAA@AEBM@Z
pdata	ENDS
;	COMDAT pdata
pdata	SEGMENT
$pdata$??0?$tmat4x4@M$0A@@glm@@QEAA@AEBU?$tvec4@M$0A@@1@000@Z DD imagerel $LN3
	DD	imagerel $LN3+189
	DD	imagerel $unwind$??0?$tmat4x4@M$0A@@glm@@QEAA@AEBU?$tvec4@M$0A@@1@000@Z
pdata	ENDS
;	COMDAT pdata
pdata	SEGMENT
$pdata$??0?$tmat4x4@M$0A@@glm@@QEAA@AEBU?$tmat2x2@M$0A@@1@@Z DD imagerel $LN3
	DD	imagerel $LN3+315
	DD	imagerel $unwind$??0?$tmat4x4@M$0A@@glm@@QEAA@AEBU?$tmat2x2@M$0A@@1@@Z
pdata	ENDS
;	COMDAT pdata
pdata	SEGMENT
$pdata$??0?$tmat4x4@M$0A@@glm@@QEAA@AEBU?$tmat3x3@M$0A@@1@@Z DD imagerel $LN3
	DD	imagerel $LN3+314
	DD	imagerel $unwind$??0?$tmat4x4@M$0A@@glm@@QEAA@AEBU?$tmat3x3@M$0A@@1@@Z
pdata	ENDS
;	COMDAT pdata
pdata	SEGMENT
$pdata$??0?$tmat4x4@M$0A@@glm@@QEAA@AEBU?$tmat2x3@M$0A@@1@@Z DD imagerel $LN3
	DD	imagerel $LN3+309
	DD	imagerel $unwind$??0?$tmat4x4@M$0A@@glm@@QEAA@AEBU?$tmat2x3@M$0A@@1@@Z
pdata	ENDS
;	COMDAT pdata
pdata	SEGMENT
$pdata$??0?$tmat4x4@M$0A@@glm@@QEAA@AEBU?$tmat3x2@M$0A@@1@@Z DD imagerel $LN3
	DD	imagerel $LN3+326
	DD	imagerel $unwind$??0?$tmat4x4@M$0A@@glm@@QEAA@AEBU?$tmat3x2@M$0A@@1@@Z
pdata	ENDS
;	COMDAT pdata
pdata	SEGMENT
$pdata$??0?$tmat4x4@M$0A@@glm@@QEAA@AEBU?$tmat2x4@M$0A@@1@@Z DD imagerel $LN3
	DD	imagerel $LN3+253
	DD	imagerel $unwind$??0?$tmat4x4@M$0A@@glm@@QEAA@AEBU?$tmat2x4@M$0A@@1@@Z
pdata	ENDS
;	COMDAT pdata
pdata	SEGMENT
$pdata$??0?$tmat4x4@M$0A@@glm@@QEAA@AEBU?$tmat4x2@M$0A@@1@@Z DD imagerel $LN3
	DD	imagerel $LN3+315
	DD	imagerel $unwind$??0?$tmat4x4@M$0A@@glm@@QEAA@AEBU?$tmat4x2@M$0A@@1@@Z
pdata	ENDS
;	COMDAT pdata
pdata	SEGMENT
$pdata$??0?$tmat4x4@M$0A@@glm@@QEAA@AEBU?$tmat3x4@M$0A@@1@@Z DD imagerel $LN3
	DD	imagerel $LN3+239
	DD	imagerel $unwind$??0?$tmat4x4@M$0A@@glm@@QEAA@AEBU?$tmat3x4@M$0A@@1@@Z
pdata	ENDS
;	COMDAT pdata
pdata	SEGMENT
$pdata$??0?$tmat4x4@M$0A@@glm@@QEAA@AEBU?$tmat4x3@M$0A@@1@@Z DD imagerel $LN3
	DD	imagerel $LN3+325
	DD	imagerel $unwind$??0?$tmat4x4@M$0A@@glm@@QEAA@AEBU?$tmat4x3@M$0A@@1@@Z
pdata	ENDS
;	COMDAT pdata
pdata	SEGMENT
$pdata$?length@?$tmat4x4@M$0A@@glm@@SAHXZ DD imagerel $LN3
	DD	imagerel $LN3+9
	DD	imagerel $unwind$?length@?$tmat4x4@M$0A@@glm@@SAHXZ
pdata	ENDS
;	COMDAT pdata
pdata	SEGMENT
$pdata$??A?$tmat4x4@M$0A@@glm@@QEAAAEAU?$tvec4@M$0A@@1@H@Z DD imagerel $LN4
	DD	imagerel $LN4+79
	DD	imagerel $unwind$??A?$tmat4x4@M$0A@@glm@@QEAAAEAU?$tvec4@M$0A@@1@H@Z
pdata	ENDS
;	COMDAT pdata
pdata	SEGMENT
$pdata$??A?$tmat4x4@M$0A@@glm@@QEBAAEBU?$tvec4@M$0A@@1@H@Z DD imagerel $LN4
	DD	imagerel $LN4+79
	DD	imagerel $unwind$??A?$tmat4x4@M$0A@@glm@@QEBAAEBU?$tvec4@M$0A@@1@H@Z
pdata	ENDS
;	COMDAT pdata
pdata	SEGMENT
$pdata$??$inverse@M$0A@Utmat4x4@glm@@@glm@@YA?AU?$tmat4x4@M$0A@@0@AEBU10@@Z DD imagerel $LN3
	DD	imagerel $LN3+41
	DD	imagerel $unwind$??$inverse@M$0A@Utmat4x4@glm@@@glm@@YA?AU?$tmat4x4@M$0A@@0@AEBU10@@Z
pdata	ENDS
;	COMDAT pdata
pdata	SEGMENT
$pdata$??$?DM$0A@@glm@@YA?AU?$tvec4@M$0A@@0@AEBU?$tmat4x4@M$0A@@0@AEBU10@@Z DD imagerel $LN3
	DD	imagerel $LN3+491
	DD	imagerel $unwind$??$?DM$0A@@glm@@YA?AU?$tvec4@M$0A@@0@AEBU?$tmat4x4@M$0A@@0@AEBU10@@Z
pdata	ENDS
;	COMDAT pdata
pdata	SEGMENT
$pdata$??$?DM$0A@@glm@@YA?AU?$tvec4@M$0A@@0@AEBU10@AEBU?$tmat4x4@M$0A@@0@@Z DD imagerel $LN3
	DD	imagerel $LN3+1494
	DD	imagerel $unwind$??$?DM$0A@@glm@@YA?AU?$tvec4@M$0A@@0@AEBU10@AEBU?$tmat4x4@M$0A@@0@@Z
pdata	ENDS
;	COMDAT pdata
pdata	SEGMENT
$pdata$??$?DM$0A@@glm@@YA?AU?$tmat4x4@M$0A@@0@AEBU10@0@Z DD imagerel $LN3
	DD	imagerel $LN3+1720
	DD	imagerel $unwind$??$?DM$0A@@glm@@YA?AU?$tmat4x4@M$0A@@0@AEBU10@0@Z
pdata	ENDS
;	COMDAT pdata
pdata	SEGMENT
$pdata$??$print@U?$tmat4x4@M$0A@@glm@@@@YAXAEBU?$tmat4x4@M$0A@@glm@@@Z DD imagerel $LN3
	DD	imagerel $LN3+894
	DD	imagerel $unwind$??$print@U?$tmat4x4@M$0A@@glm@@@@YAXAEBU?$tmat4x4@M$0A@@glm@@@Z
pdata	ENDS
pdata	SEGMENT
$pdata$?test_inverse_dmat4x4@@YAHXZ DD imagerel $LN3
	DD	imagerel $LN3+446
	DD	imagerel $unwind$?test_inverse_dmat4x4@@YAHXZ
pdata	ENDS
;	COMDAT pdata
pdata	SEGMENT
$pdata$?length@?$tvec4@N$0A@@glm@@SAHXZ DD imagerel $LN3
	DD	imagerel $LN3+9
	DD	imagerel $unwind$?length@?$tvec4@N$0A@@glm@@SAHXZ
pdata	ENDS
;	COMDAT pdata
pdata	SEGMENT
$pdata$??A?$tvec4@N$0A@@glm@@QEAAAEANH@Z DD imagerel $LN5
	DD	imagerel $LN5+80
	DD	imagerel $unwind$??A?$tvec4@N$0A@@glm@@QEAAAEANH@Z
pdata	ENDS
;	COMDAT pdata
pdata	SEGMENT
$pdata$??A?$tvec4@N$0A@@glm@@QEBAAEBNH@Z DD imagerel $LN5
	DD	imagerel $LN5+80
	DD	imagerel $unwind$??A?$tvec4@N$0A@@glm@@QEBAAEBNH@Z
pdata	ENDS
;	COMDAT pdata
pdata	SEGMENT
$pdata$??0?$tvec4@N$0A@@glm@@QEAA@XZ DD imagerel $LN3
	DD	imagerel $LN3+64
	DD	imagerel $unwind$??0?$tvec4@N$0A@@glm@@QEAA@XZ
pdata	ENDS
;	COMDAT pdata
pdata	SEGMENT
$pdata$??0?$tvec4@N$0A@@glm@@QEAA@N@Z DD imagerel $LN3
	DD	imagerel $LN3+82
	DD	imagerel $unwind$??0?$tvec4@N$0A@@glm@@QEAA@N@Z
pdata	ENDS
;	COMDAT pdata
pdata	SEGMENT
$pdata$??0?$tvec4@N$0A@@glm@@QEAA@NNNN@Z DD imagerel $LN3
	DD	imagerel $LN3+94
	DD	imagerel $unwind$??0?$tvec4@N$0A@@glm@@QEAA@NNNN@Z
pdata	ENDS
;	COMDAT pdata
pdata	SEGMENT
$pdata$??$?0MMMM@?$tvec4@N$0A@@glm@@QEAA@MMMM@Z DD imagerel $LN3
	DD	imagerel $LN3+94
	DD	imagerel $unwind$??$?0MMMM@?$tvec4@N$0A@@glm@@QEAA@MMMM@Z
pdata	ENDS
;	COMDAT pdata
pdata	SEGMENT
$pdata$??0?$tmat4x4@N$0A@@glm@@QEAA@XZ DD imagerel $LN3
	DD	imagerel $LN3+306
	DD	imagerel $unwind$??0?$tmat4x4@N$0A@@glm@@QEAA@XZ
pdata	ENDS
;	COMDAT pdata
pdata	SEGMENT
$pdata$??0?$tmat4x4@N$0A@@glm@@QEAA@W4ctor@1@@Z DD imagerel $LN3
	DD	imagerel $LN3+56
	DD	imagerel $unwind$??0?$tmat4x4@N$0A@@glm@@QEAA@W4ctor@1@@Z
pdata	ENDS
;	COMDAT pdata
pdata	SEGMENT
$pdata$??0?$tmat4x4@N$0A@@glm@@QEAA@AEBU?$tvec4@N$0A@@1@000@Z DD imagerel $LN3
	DD	imagerel $LN3+189
	DD	imagerel $unwind$??0?$tmat4x4@N$0A@@glm@@QEAA@AEBU?$tvec4@N$0A@@1@000@Z
pdata	ENDS
;	COMDAT pdata
pdata	SEGMENT
$pdata$?length@?$tmat4x4@N$0A@@glm@@SAHXZ DD imagerel $LN3
	DD	imagerel $LN3+9
	DD	imagerel $unwind$?length@?$tmat4x4@N$0A@@glm@@SAHXZ
pdata	ENDS
;	COMDAT pdata
pdata	SEGMENT
$pdata$??A?$tmat4x4@N$0A@@glm@@QEAAAEAU?$tvec4@N$0A@@1@H@Z DD imagerel $LN4
	DD	imagerel $LN4+79
	DD	imagerel $unwind$??A?$tmat4x4@N$0A@@glm@@QEAAAEAU?$tvec4@N$0A@@1@H@Z
pdata	ENDS
;	COMDAT pdata
pdata	SEGMENT
$pdata$??A?$tmat4x4@N$0A@@glm@@QEBAAEBU?$tvec4@N$0A@@1@H@Z DD imagerel $LN4
	DD	imagerel $LN4+79
	DD	imagerel $unwind$??A?$tmat4x4@N$0A@@glm@@QEBAAEBU?$tvec4@N$0A@@1@H@Z
pdata	ENDS
;	COMDAT pdata
pdata	SEGMENT
$pdata$??$inverse@N$0A@Utmat4x4@glm@@@glm@@YA?AU?$tmat4x4@N$0A@@0@AEBU10@@Z DD imagerel $LN3
	DD	imagerel $LN3+41
	DD	imagerel $unwind$??$inverse@N$0A@Utmat4x4@glm@@@glm@@YA?AU?$tmat4x4@N$0A@@0@AEBU10@@Z
pdata	ENDS
;	COMDAT pdata
pdata	SEGMENT
$pdata$??$?DN$0A@@glm@@YA?AU?$tmat4x4@N$0A@@0@AEBU10@0@Z DD imagerel $LN3
	DD	imagerel $LN3+1720
	DD	imagerel $unwind$??$?DN$0A@@glm@@YA?AU?$tmat4x4@N$0A@@0@AEBU10@0@Z
pdata	ENDS
;	COMDAT pdata
pdata	SEGMENT
$pdata$??$print@U?$tmat4x4@N$0A@@glm@@@@YAXAEBU?$tmat4x4@N$0A@@glm@@@Z DD imagerel $LN3
	DD	imagerel $LN3+834
	DD	imagerel $unwind$??$print@U?$tmat4x4@N$0A@@glm@@@@YAXAEBU?$tmat4x4@N$0A@@glm@@@Z
pdata	ENDS
pdata	SEGMENT
$pdata$?test_operators@@YA_NXZ DD imagerel ?test_operators@@YA_NXZ
	DD	imagerel ?test_operators@@YA_NXZ+503
	DD	imagerel $unwind$?test_operators@@YA_NXZ
pdata	ENDS
;	COMDAT pdata
pdata	SEGMENT
$pdata$??0?$tmat3x4@M$0A@@glm@@QEAA@M@Z DD imagerel $LN3
	DD	imagerel $LN3+256
	DD	imagerel $unwind$??0?$tmat3x4@M$0A@@glm@@QEAA@M@Z
pdata	ENDS
;	COMDAT pdata
pdata	SEGMENT
$pdata$?length@?$tmat3x4@M$0A@@glm@@SAHXZ DD imagerel $LN3
	DD	imagerel $LN3+9
	DD	imagerel $unwind$?length@?$tmat3x4@M$0A@@glm@@SAHXZ
pdata	ENDS
;	COMDAT pdata
pdata	SEGMENT
$pdata$??A?$tmat3x4@M$0A@@glm@@QEBAAEBU?$tvec4@M$0A@@1@H@Z DD imagerel $LN4
	DD	imagerel $LN4+79
	DD	imagerel $unwind$??A?$tmat3x4@M$0A@@glm@@QEBAAEBU?$tvec4@M$0A@@1@H@Z
pdata	ENDS
;	COMDAT pdata
pdata	SEGMENT
$pdata$??0?$tvec2@M$0A@@glm@@QEAA@XZ DD imagerel $LN3
	DD	imagerel $LN3+38
	DD	imagerel $unwind$??0?$tvec2@M$0A@@glm@@QEAA@XZ
pdata	ENDS
;	COMDAT pdata
pdata	SEGMENT
$pdata$??0?$tmat4x2@M$0A@@glm@@QEAA@M@Z DD imagerel $LN3
	DD	imagerel $LN3+209
	DD	imagerel $unwind$??0?$tmat4x2@M$0A@@glm@@QEAA@M@Z
pdata	ENDS
;	COMDAT pdata
pdata	SEGMENT
$pdata$?length@?$tmat4x2@M$0A@@glm@@SAHXZ DD imagerel $LN3
	DD	imagerel $LN3+9
	DD	imagerel $unwind$?length@?$tmat4x2@M$0A@@glm@@SAHXZ
pdata	ENDS
;	COMDAT pdata
pdata	SEGMENT
$pdata$??A?$tmat4x2@M$0A@@glm@@QEBAAEBU?$tvec2@M$0A@@1@H@Z DD imagerel $LN4
	DD	imagerel $LN4+73
	DD	imagerel $unwind$??A?$tmat4x2@M$0A@@glm@@QEBAAEBU?$tvec2@M$0A@@1@H@Z
pdata	ENDS
;	COMDAT pdata
pdata	SEGMENT
$pdata$??0?$tmat2x4@M$0A@@glm@@QEAA@M@Z DD imagerel $LN3
	DD	imagerel $LN3+205
	DD	imagerel $unwind$??0?$tmat2x4@M$0A@@glm@@QEAA@M@Z
pdata	ENDS
;	COMDAT pdata
pdata	SEGMENT
$pdata$?length@?$tmat2x4@M$0A@@glm@@SAHXZ DD imagerel $LN3
	DD	imagerel $LN3+9
	DD	imagerel $unwind$?length@?$tmat2x4@M$0A@@glm@@SAHXZ
pdata	ENDS
;	COMDAT pdata
pdata	SEGMENT
$pdata$??A?$tmat2x4@M$0A@@glm@@QEBAAEBU?$tvec4@M$0A@@1@H@Z DD imagerel $LN4
	DD	imagerel $LN4+79
	DD	imagerel $unwind$??A?$tmat2x4@M$0A@@glm@@QEBAAEBU?$tvec4@M$0A@@1@H@Z
pdata	ENDS
;	COMDAT pdata
pdata	SEGMENT
$pdata$??0?$tmat3x2@M$0A@@glm@@QEAA@M@Z DD imagerel $LN3
	DD	imagerel $LN3+173
	DD	imagerel $unwind$??0?$tmat3x2@M$0A@@glm@@QEAA@M@Z
pdata	ENDS
;	COMDAT pdata
pdata	SEGMENT
$pdata$?length@?$tmat3x2@M$0A@@glm@@SAHXZ DD imagerel $LN3
	DD	imagerel $LN3+9
	DD	imagerel $unwind$?length@?$tmat3x2@M$0A@@glm@@SAHXZ
pdata	ENDS
;	COMDAT pdata
pdata	SEGMENT
$pdata$??A?$tmat3x2@M$0A@@glm@@QEBAAEBU?$tvec2@M$0A@@1@H@Z DD imagerel $LN4
	DD	imagerel $LN4+73
	DD	imagerel $unwind$??A?$tmat3x2@M$0A@@glm@@QEBAAEBU?$tvec2@M$0A@@1@H@Z
pdata	ENDS
;	COMDAT pdata
pdata	SEGMENT
$pdata$??0?$tvec3@M$0A@@glm@@QEAA@XZ DD imagerel $LN3
	DD	imagerel $LN3+51
	DD	imagerel $unwind$??0?$tvec3@M$0A@@glm@@QEAA@XZ
pdata	ENDS
;	COMDAT pdata
pdata	SEGMENT
$pdata$??0?$tmat2x3@M$0A@@glm@@QEAA@M@Z DD imagerel $LN3
	DD	imagerel $LN3+159
	DD	imagerel $unwind$??0?$tmat2x3@M$0A@@glm@@QEAA@M@Z
pdata	ENDS
;	COMDAT pdata
pdata	SEGMENT
$pdata$?length@?$tmat2x3@M$0A@@glm@@SAHXZ DD imagerel $LN3
	DD	imagerel $LN3+9
	DD	imagerel $unwind$?length@?$tmat2x3@M$0A@@glm@@SAHXZ
pdata	ENDS
;	COMDAT pdata
pdata	SEGMENT
$pdata$??A?$tmat2x3@M$0A@@glm@@QEBAAEBU?$tvec3@M$0A@@1@H@Z DD imagerel $LN4
	DD	imagerel $LN4+79
	DD	imagerel $unwind$??A?$tmat2x3@M$0A@@glm@@QEBAAEBU?$tvec3@M$0A@@1@H@Z
pdata	ENDS
;	COMDAT pdata
pdata	SEGMENT
$pdata$??0?$tmat3x3@M$0A@@glm@@QEAA@M@Z DD imagerel $LN3
	DD	imagerel $LN3+208
	DD	imagerel $unwind$??0?$tmat3x3@M$0A@@glm@@QEAA@M@Z
pdata	ENDS
;	COMDAT pdata
pdata	SEGMENT
$pdata$?length@?$tmat3x3@M$0A@@glm@@SAHXZ DD imagerel $LN3
	DD	imagerel $LN3+9
	DD	imagerel $unwind$?length@?$tmat3x3@M$0A@@glm@@SAHXZ
pdata	ENDS
;	COMDAT pdata
pdata	SEGMENT
$pdata$??A?$tmat3x3@M$0A@@glm@@QEBAAEBU?$tvec3@M$0A@@1@H@Z DD imagerel $LN4
	DD	imagerel $LN4+79
	DD	imagerel $unwind$??A?$tmat3x3@M$0A@@glm@@QEBAAEBU?$tvec3@M$0A@@1@H@Z
pdata	ENDS
;	COMDAT pdata
pdata	SEGMENT
$pdata$??0?$tmat2x2@M$0A@@glm@@QEAA@M@Z DD imagerel $LN3
	DD	imagerel $LN3+137
	DD	imagerel $unwind$??0?$tmat2x2@M$0A@@glm@@QEAA@M@Z
pdata	ENDS
;	COMDAT pdata
pdata	SEGMENT
$pdata$?length@?$tmat2x2@M$0A@@glm@@SAHXZ DD imagerel $LN3
	DD	imagerel $LN3+9
	DD	imagerel $unwind$?length@?$tmat2x2@M$0A@@glm@@SAHXZ
pdata	ENDS
;	COMDAT pdata
pdata	SEGMENT
$pdata$??A?$tmat2x2@M$0A@@glm@@QEBAAEBU?$tvec2@M$0A@@1@H@Z DD imagerel $LN4
	DD	imagerel $LN4+73
	DD	imagerel $unwind$??A?$tmat2x2@M$0A@@glm@@QEBAAEBU?$tvec2@M$0A@@1@H@Z
pdata	ENDS
;	COMDAT pdata
pdata	SEGMENT
$pdata$??0?$tmat4x3@M$0A@@glm@@QEAA@AEBM@Z DD imagerel $LN3
	DD	imagerel $LN3+262
	DD	imagerel $unwind$??0?$tmat4x3@M$0A@@glm@@QEAA@AEBM@Z
pdata	ENDS
;	COMDAT pdata
pdata	SEGMENT
$pdata$?length@?$tmat4x3@M$0A@@glm@@SAHXZ DD imagerel $LN3
	DD	imagerel $LN3+9
	DD	imagerel $unwind$?length@?$tmat4x3@M$0A@@glm@@SAHXZ
pdata	ENDS
;	COMDAT pdata
pdata	SEGMENT
$pdata$??A?$tmat4x3@M$0A@@glm@@QEBAAEBU?$tvec3@M$0A@@1@H@Z DD imagerel $LN4
	DD	imagerel $LN4+79
	DD	imagerel $unwind$??A?$tmat4x3@M$0A@@glm@@QEBAAEBU?$tvec3@M$0A@@1@H@Z
pdata	ENDS
;	COMDAT pdata
pdata	SEGMENT
$pdata$??$?KM$0A@@glm@@YA?AU?$tmat4x4@M$0A@@0@AEBMAEBU10@@Z DD imagerel $LN3
	DD	imagerel $LN3+272
	DD	imagerel $unwind$??$?KM$0A@@glm@@YA?AU?$tmat4x4@M$0A@@0@AEBMAEBU10@@Z
pdata	ENDS
;	COMDAT pdata
pdata	SEGMENT
$pdata$??$?KM$0A@@glm@@YA?AU?$tmat4x4@M$0A@@0@AEBU10@AEBM@Z DD imagerel $LN3
	DD	imagerel $LN3+272
	DD	imagerel $unwind$??$?KM$0A@@glm@@YA?AU?$tmat4x4@M$0A@@0@AEBU10@AEBM@Z
pdata	ENDS
;	COMDAT pdata
pdata	SEGMENT
$pdata$??$?DM$0A@@glm@@YA?AU?$tmat4x4@M$0A@@0@AEBMAEBU10@@Z DD imagerel $LN3
	DD	imagerel $LN3+272
	DD	imagerel $unwind$??$?DM$0A@@glm@@YA?AU?$tmat4x4@M$0A@@0@AEBMAEBU10@@Z
pdata	ENDS
;	COMDAT pdata
pdata	SEGMENT
$pdata$??$?DM$0A@@glm@@YA?AU?$tmat4x4@M$0A@@0@AEBU10@AEBM@Z DD imagerel $LN3
	DD	imagerel $LN3+272
	DD	imagerel $unwind$??$?DM$0A@@glm@@YA?AU?$tmat4x4@M$0A@@0@AEBU10@AEBM@Z
pdata	ENDS
;	COMDAT pdata
pdata	SEGMENT
$pdata$??$?9M$0A@@glm@@YA_NAEBU?$tmat4x4@M$0A@@0@0@Z DD imagerel $LN5
	DD	imagerel $LN5+274
	DD	imagerel $unwind$??$?9M$0A@@glm@@YA_NAEBU?$tmat4x4@M$0A@@0@0@Z
pdata	ENDS
;	COMDAT pdata
pdata	SEGMENT
$pdata$??$?8M$0A@@glm@@YA_NAEBU?$tmat4x4@M$0A@@0@0@Z DD imagerel $LN5
	DD	imagerel $LN5+274
	DD	imagerel $unwind$??$?8M$0A@@glm@@YA_NAEBU?$tmat4x4@M$0A@@0@0@Z
pdata	ENDS
pdata	SEGMENT
$pdata$?test_inverse@@YAHXZ DD imagerel $LN43
	DD	imagerel $LN43+5629
	DD	imagerel $unwind$?test_inverse@@YAHXZ
pdata	ENDS
;	COMDAT pdata
pdata	SEGMENT
$pdata$??$epsilonEqual@M$0A@Utvec4@glm@@@glm@@YA?AU?$tvec4@_N$0A@@0@AEBU?$tvec4@M$0A@@0@00@Z DD imagerel $LN3
	DD	imagerel $LN3+115
	DD	imagerel $unwind$??$epsilonEqual@M$0A@Utvec4@glm@@@glm@@YA?AU?$tvec4@_N$0A@@0@AEBU?$tvec4@M$0A@@0@00@Z
pdata	ENDS
;	COMDAT pdata
pdata	SEGMENT
$pdata$?length@?$tvec4@_N$0A@@glm@@SAHXZ DD imagerel $LN3
	DD	imagerel $LN3+9
	DD	imagerel $unwind$?length@?$tvec4@_N$0A@@glm@@SAHXZ
pdata	ENDS
;	COMDAT pdata
pdata	SEGMENT
$pdata$??A?$tvec4@_N$0A@@glm@@QEAAAEA_NH@Z DD imagerel $LN5
	DD	imagerel $LN5+82
	DD	imagerel $unwind$??A?$tvec4@_N$0A@@glm@@QEAAAEA_NH@Z
pdata	ENDS
;	COMDAT pdata
pdata	SEGMENT
$pdata$??A?$tvec4@_N$0A@@glm@@QEBAAEB_NH@Z DD imagerel $LN5
	DD	imagerel $LN5+82
	DD	imagerel $unwind$??A?$tvec4@_N$0A@@glm@@QEBAAEB_NH@Z
pdata	ENDS
;	COMDAT pdata
pdata	SEGMENT
$pdata$??0?$tvec4@_N$0A@@glm@@QEAA@W4ctor@1@@Z DD imagerel $LN3
	DD	imagerel $LN3+17
	DD	imagerel $unwind$??0?$tvec4@_N$0A@@glm@@QEAA@W4ctor@1@@Z
pdata	ENDS
;	COMDAT pdata
pdata	SEGMENT
$pdata$??$all@$0A@Utvec4@glm@@@glm@@YA_NAEBU?$tvec4@_N$0A@@0@@Z DD imagerel $LN8
	DD	imagerel $LN8+116
	DD	imagerel $unwind$??$all@$0A@Utvec4@glm@@@glm@@YA_NAEBU?$tvec4@_N$0A@@0@@Z
pdata	ENDS
;	COMDAT pdata
pdata	SEGMENT
$pdata$?length@?$tvec4@M$00@glm@@SAHXZ DD imagerel $LN3
	DD	imagerel $LN3+9
	DD	imagerel $unwind$?length@?$tvec4@M$00@glm@@SAHXZ
pdata	ENDS
;	COMDAT pdata
pdata	SEGMENT
$pdata$??A?$tvec4@M$00@glm@@QEAAAEAMH@Z DD imagerel $LN5
	DD	imagerel $LN5+80
	DD	imagerel $unwind$??A?$tvec4@M$00@glm@@QEAAAEAMH@Z
pdata	ENDS
;	COMDAT pdata
pdata	SEGMENT
$pdata$??A?$tvec4@M$00@glm@@QEBAAEBMH@Z DD imagerel $LN5
	DD	imagerel $LN5+80
	DD	imagerel $unwind$??A?$tvec4@M$00@glm@@QEBAAEBMH@Z
pdata	ENDS
;	COMDAT pdata
pdata	SEGMENT
$pdata$??0?$tvec4@M$00@glm@@QEAA@XZ DD imagerel $LN3
	DD	imagerel $LN3+64
	DD	imagerel $unwind$??0?$tvec4@M$00@glm@@QEAA@XZ
pdata	ENDS
;	COMDAT pdata
pdata	SEGMENT
$pdata$??0?$tvec4@M$00@glm@@QEAA@M@Z DD imagerel $LN3
	DD	imagerel $LN3+82
	DD	imagerel $unwind$??0?$tvec4@M$00@glm@@QEAA@M@Z
pdata	ENDS
;	COMDAT pdata
pdata	SEGMENT
$pdata$??0?$tvec4@M$00@glm@@QEAA@MMMM@Z DD imagerel $LN3
	DD	imagerel $LN3+94
	DD	imagerel $unwind$??0?$tvec4@M$00@glm@@QEAA@MMMM@Z
pdata	ENDS
;	COMDAT pdata
pdata	SEGMENT
$pdata$??0?$tmat4x4@M$00@glm@@QEAA@W4ctor@1@@Z DD imagerel $LN3
	DD	imagerel $LN3+56
	DD	imagerel $unwind$??0?$tmat4x4@M$00@glm@@QEAA@W4ctor@1@@Z
pdata	ENDS
;	COMDAT pdata
pdata	SEGMENT
$pdata$??0?$tmat4x4@M$00@glm@@QEAA@AEBU?$tvec4@M$00@1@000@Z DD imagerel $LN3
	DD	imagerel $LN3+189
	DD	imagerel $unwind$??0?$tmat4x4@M$00@glm@@QEAA@AEBU?$tvec4@M$00@1@000@Z
pdata	ENDS
;	COMDAT pdata
pdata	SEGMENT
$pdata$?length@?$tmat4x4@M$00@glm@@SAHXZ DD imagerel $LN3
	DD	imagerel $LN3+9
	DD	imagerel $unwind$?length@?$tmat4x4@M$00@glm@@SAHXZ
pdata	ENDS
;	COMDAT pdata
pdata	SEGMENT
$pdata$??A?$tmat4x4@M$00@glm@@QEAAAEAU?$tvec4@M$00@1@H@Z DD imagerel $LN4
	DD	imagerel $LN4+79
	DD	imagerel $unwind$??A?$tmat4x4@M$00@glm@@QEAAAEAU?$tvec4@M$00@1@H@Z
pdata	ENDS
;	COMDAT pdata
pdata	SEGMENT
$pdata$??A?$tmat4x4@M$00@glm@@QEBAAEBU?$tvec4@M$00@1@H@Z DD imagerel $LN4
	DD	imagerel $LN4+79
	DD	imagerel $unwind$??A?$tmat4x4@M$00@glm@@QEBAAEBU?$tvec4@M$00@1@H@Z
pdata	ENDS
;	COMDAT pdata
pdata	SEGMENT
$pdata$??$inverse@M$00Utmat4x4@glm@@@glm@@YA?AU?$tmat4x4@M$00@0@AEBU10@@Z DD imagerel $LN3
	DD	imagerel $LN3+41
	DD	imagerel $unwind$??$inverse@M$00Utmat4x4@glm@@@glm@@YA?AU?$tmat4x4@M$00@0@AEBU10@@Z
pdata	ENDS
;	COMDAT pdata
pdata	SEGMENT
$pdata$??$?DM$00@glm@@YA?AU?$tmat4x4@M$00@0@AEBU10@0@Z DD imagerel $LN3
	DD	imagerel $LN3+1720
	DD	imagerel $unwind$??$?DM$00@glm@@YA?AU?$tmat4x4@M$00@0@AEBU10@0@Z
pdata	ENDS
;	COMDAT pdata
pdata	SEGMENT
$pdata$??$print@U?$tmat4x4@M$00@glm@@@@YAXAEBU?$tmat4x4@M$00@glm@@@Z DD imagerel $LN3
	DD	imagerel $LN3+894
	DD	imagerel $unwind$??$print@U?$tmat4x4@M$00@glm@@@@YAXAEBU?$tmat4x4@M$00@glm@@@Z
pdata	ENDS
;	COMDAT pdata
pdata	SEGMENT
$pdata$??$epsilonEqual@M$00Utvec4@glm@@@glm@@YA?AU?$tvec4@_N$00@0@AEBU?$tvec4@M$00@0@00@Z DD imagerel $LN3
	DD	imagerel $LN3+115
	DD	imagerel $unwind$??$epsilonEqual@M$00Utvec4@glm@@@glm@@YA?AU?$tvec4@_N$00@0@AEBU?$tvec4@M$00@0@00@Z
pdata	ENDS
;	COMDAT pdata
pdata	SEGMENT
$pdata$?length@?$tvec4@_N$00@glm@@SAHXZ DD imagerel $LN3
	DD	imagerel $LN3+9
	DD	imagerel $unwind$?length@?$tvec4@_N$00@glm@@SAHXZ
pdata	ENDS
;	COMDAT pdata
pdata	SEGMENT
$pdata$??A?$tvec4@_N$00@glm@@QEAAAEA_NH@Z DD imagerel $LN5
	DD	imagerel $LN5+82
	DD	imagerel $unwind$??A?$tvec4@_N$00@glm@@QEAAAEA_NH@Z
pdata	ENDS
;	COMDAT pdata
pdata	SEGMENT
$pdata$??A?$tvec4@_N$00@glm@@QEBAAEB_NH@Z DD imagerel $LN5
	DD	imagerel $LN5+82
	DD	imagerel $unwind$??A?$tvec4@_N$00@glm@@QEBAAEB_NH@Z
pdata	ENDS
;	COMDAT pdata
pdata	SEGMENT
$pdata$??0?$tvec4@_N$00@glm@@QEAA@W4ctor@1@@Z DD imagerel $LN3
	DD	imagerel $LN3+17
	DD	imagerel $unwind$??0?$tvec4@_N$00@glm@@QEAA@W4ctor@1@@Z
pdata	ENDS
;	COMDAT pdata
pdata	SEGMENT
$pdata$??$all@$00Utvec4@glm@@@glm@@YA_NAEBU?$tvec4@_N$00@0@@Z DD imagerel $LN8
	DD	imagerel $LN8+116
	DD	imagerel $unwind$??$all@$00Utvec4@glm@@@glm@@YA_NAEBU?$tvec4@_N$00@0@@Z
pdata	ENDS
;	COMDAT pdata
pdata	SEGMENT
$pdata$?length@?$tvec4@M$01@glm@@SAHXZ DD imagerel $LN3
	DD	imagerel $LN3+9
	DD	imagerel $unwind$?length@?$tvec4@M$01@glm@@SAHXZ
pdata	ENDS
;	COMDAT pdata
pdata	SEGMENT
$pdata$??A?$tvec4@M$01@glm@@QEAAAEAMH@Z DD imagerel $LN5
	DD	imagerel $LN5+80
	DD	imagerel $unwind$??A?$tvec4@M$01@glm@@QEAAAEAMH@Z
pdata	ENDS
;	COMDAT pdata
pdata	SEGMENT
$pdata$??A?$tvec4@M$01@glm@@QEBAAEBMH@Z DD imagerel $LN5
	DD	imagerel $LN5+80
	DD	imagerel $unwind$??A?$tvec4@M$01@glm@@QEBAAEBMH@Z
pdata	ENDS
;	COMDAT pdata
pdata	SEGMENT
$pdata$??0?$tvec4@M$01@glm@@QEAA@XZ DD imagerel $LN3
	DD	imagerel $LN3+64
	DD	imagerel $unwind$??0?$tvec4@M$01@glm@@QEAA@XZ
pdata	ENDS
;	COMDAT pdata
pdata	SEGMENT
$pdata$??0?$tvec4@M$01@glm@@QEAA@M@Z DD imagerel $LN3
	DD	imagerel $LN3+82
	DD	imagerel $unwind$??0?$tvec4@M$01@glm@@QEAA@M@Z
pdata	ENDS
;	COMDAT pdata
pdata	SEGMENT
$pdata$??0?$tvec4@M$01@glm@@QEAA@MMMM@Z DD imagerel $LN3
	DD	imagerel $LN3+94
	DD	imagerel $unwind$??0?$tvec4@M$01@glm@@QEAA@MMMM@Z
pdata	ENDS
;	COMDAT pdata
pdata	SEGMENT
$pdata$??0?$tmat4x4@M$01@glm@@QEAA@W4ctor@1@@Z DD imagerel $LN3
	DD	imagerel $LN3+56
	DD	imagerel $unwind$??0?$tmat4x4@M$01@glm@@QEAA@W4ctor@1@@Z
pdata	ENDS
;	COMDAT pdata
pdata	SEGMENT
$pdata$??0?$tmat4x4@M$01@glm@@QEAA@AEBU?$tvec4@M$01@1@000@Z DD imagerel $LN3
	DD	imagerel $LN3+189
	DD	imagerel $unwind$??0?$tmat4x4@M$01@glm@@QEAA@AEBU?$tvec4@M$01@1@000@Z
pdata	ENDS
;	COMDAT pdata
pdata	SEGMENT
$pdata$?length@?$tmat4x4@M$01@glm@@SAHXZ DD imagerel $LN3
	DD	imagerel $LN3+9
	DD	imagerel $unwind$?length@?$tmat4x4@M$01@glm@@SAHXZ
pdata	ENDS
;	COMDAT pdata
pdata	SEGMENT
$pdata$??A?$tmat4x4@M$01@glm@@QEAAAEAU?$tvec4@M$01@1@H@Z DD imagerel $LN4
	DD	imagerel $LN4+79
	DD	imagerel $unwind$??A?$tmat4x4@M$01@glm@@QEAAAEAU?$tvec4@M$01@1@H@Z
pdata	ENDS
;	COMDAT pdata
pdata	SEGMENT
$pdata$??A?$tmat4x4@M$01@glm@@QEBAAEBU?$tvec4@M$01@1@H@Z DD imagerel $LN4
	DD	imagerel $LN4+79
	DD	imagerel $unwind$??A?$tmat4x4@M$01@glm@@QEBAAEBU?$tvec4@M$01@1@H@Z
pdata	ENDS
;	COMDAT pdata
pdata	SEGMENT
$pdata$??$inverse@M$01Utmat4x4@glm@@@glm@@YA?AU?$tmat4x4@M$01@0@AEBU10@@Z DD imagerel $LN3
	DD	imagerel $LN3+41
	DD	imagerel $unwind$??$inverse@M$01Utmat4x4@glm@@@glm@@YA?AU?$tmat4x4@M$01@0@AEBU10@@Z
pdata	ENDS
;	COMDAT pdata
pdata	SEGMENT
$pdata$??$?DM$01@glm@@YA?AU?$tmat4x4@M$01@0@AEBU10@0@Z DD imagerel $LN3
	DD	imagerel $LN3+1720
	DD	imagerel $unwind$??$?DM$01@glm@@YA?AU?$tmat4x4@M$01@0@AEBU10@0@Z
pdata	ENDS
;	COMDAT pdata
pdata	SEGMENT
$pdata$??$print@U?$tmat4x4@M$01@glm@@@@YAXAEBU?$tmat4x4@M$01@glm@@@Z DD imagerel $LN3
	DD	imagerel $LN3+894
	DD	imagerel $unwind$??$print@U?$tmat4x4@M$01@glm@@@@YAXAEBU?$tmat4x4@M$01@glm@@@Z
pdata	ENDS
;	COMDAT pdata
pdata	SEGMENT
$pdata$??$epsilonEqual@M$01Utvec4@glm@@@glm@@YA?AU?$tvec4@_N$01@0@AEBU?$tvec4@M$01@0@00@Z DD imagerel $LN3
	DD	imagerel $LN3+115
	DD	imagerel $unwind$??$epsilonEqual@M$01Utvec4@glm@@@glm@@YA?AU?$tvec4@_N$01@0@AEBU?$tvec4@M$01@0@00@Z
pdata	ENDS
;	COMDAT pdata
pdata	SEGMENT
$pdata$?length@?$tvec4@_N$01@glm@@SAHXZ DD imagerel $LN3
	DD	imagerel $LN3+9
	DD	imagerel $unwind$?length@?$tvec4@_N$01@glm@@SAHXZ
pdata	ENDS
;	COMDAT pdata
pdata	SEGMENT
$pdata$??A?$tvec4@_N$01@glm@@QEAAAEA_NH@Z DD imagerel $LN5
	DD	imagerel $LN5+82
	DD	imagerel $unwind$??A?$tvec4@_N$01@glm@@QEAAAEA_NH@Z
pdata	ENDS
;	COMDAT pdata
pdata	SEGMENT
$pdata$??A?$tvec4@_N$01@glm@@QEBAAEB_NH@Z DD imagerel $LN5
	DD	imagerel $LN5+82
	DD	imagerel $unwind$??A?$tvec4@_N$01@glm@@QEBAAEB_NH@Z
pdata	ENDS
;	COMDAT pdata
pdata	SEGMENT
$pdata$??0?$tvec4@_N$01@glm@@QEAA@W4ctor@1@@Z DD imagerel $LN3
	DD	imagerel $LN3+17
	DD	imagerel $unwind$??0?$tvec4@_N$01@glm@@QEAA@W4ctor@1@@Z
pdata	ENDS
;	COMDAT pdata
pdata	SEGMENT
$pdata$??$all@$01Utvec4@glm@@@glm@@YA_NAEBU?$tvec4@_N$01@0@@Z DD imagerel $LN8
	DD	imagerel $LN8+116
	DD	imagerel $unwind$??$all@$01Utvec4@glm@@@glm@@YA_NAEBU?$tvec4@_N$01@0@@Z
pdata	ENDS
;	COMDAT pdata
pdata	SEGMENT
$pdata$??$?KM$0A@@glm@@YA?AU?$tmat4x4@M$0A@@0@AEBU10@0@Z DD imagerel $LN3
	DD	imagerel $LN3+181
	DD	imagerel $unwind$??$?KM$0A@@glm@@YA?AU?$tmat4x4@M$0A@@0@AEBU10@0@Z
pdata	ENDS
pdata	SEGMENT
$pdata$?test_ctr@@YAHXZ DD imagerel $LN16
	DD	imagerel $LN16+4419
	DD	imagerel $unwind$?test_ctr@@YAHXZ
pdata	ENDS
pdata	SEGMENT
$pdata$?dtor$0@?0??test_ctr@@YAHXZ@4HA DD imagerel ?dtor$0@?0??test_ctr@@YAHXZ@4HA
	DD	imagerel ?dtor$0@?0??test_ctr@@YAHXZ@4HA+38
	DD	imagerel $unwind$?dtor$0@?0??test_ctr@@YAHXZ@4HA
$pdata$?dtor$1@?0??test_ctr@@YAHXZ@4HA DD imagerel ?dtor$1@?0??test_ctr@@YAHXZ@4HA
	DD	imagerel ?dtor$1@?0??test_ctr@@YAHXZ@4HA+38
	DD	imagerel $unwind$?dtor$1@?0??test_ctr@@YAHXZ@4HA
pdata	ENDS
;	COMDAT pdata
pdata	SEGMENT
$pdata$??$?0HHHH@?$tvec4@M$0A@@glm@@QEAA@HHHH@Z DD imagerel $LN3
	DD	imagerel $LN3+90
	DD	imagerel $unwind$??$?0HHHH@?$tvec4@M$0A@@glm@@QEAA@HHHH@Z
pdata	ENDS
;	COMDAT pdata
pdata	SEGMENT
$pdata$??$?0HHHHHHHHHHHHHHHH@?$tmat4x4@M$0A@@glm@@QEAA@AEBH000000000000000@Z DD imagerel $LN3
	DD	imagerel $LN3+533
	DD	imagerel $unwind$??$?0HHHHHHHHHHHHHHHH@?$tmat4x4@M$0A@@glm@@QEAA@AEBH000000000000000@Z
pdata	ENDS
;	COMDAT pdata
pdata	SEGMENT
$pdata$??$equal@M$0A@Utvec4@glm@@@glm@@YA?AU?$tvec4@_N$0A@@0@AEBU?$tvec4@M$0A@@0@0@Z DD imagerel $LN9
	DD	imagerel $LN9+268
	DD	imagerel $unwind$??$equal@M$0A@Utvec4@glm@@@glm@@YA?AU?$tvec4@_N$0A@@0@AEBU?$tvec4@M$0A@@0@0@Z
pdata	ENDS
;	COMDAT pdata
pdata	SEGMENT
$pdata$??0?$allocator@U?$tmat4x4@M$0A@@glm@@@std@@QEAA@XZ DD imagerel $LN3
	DD	imagerel $LN3+13
	DD	imagerel $unwind$??0?$allocator@U?$tmat4x4@M$0A@@glm@@@std@@QEAA@XZ
pdata	ENDS
;	COMDAT pdata
pdata	SEGMENT
$pdata$?deallocate@?$allocator@U?$tmat4x4@M$0A@@glm@@@std@@QEAAXQEAU?$tmat4x4@M$0A@@glm@@_K@Z DD imagerel $LN13
	DD	imagerel $LN13+180
	DD	imagerel $unwind$?deallocate@?$allocator@U?$tmat4x4@M$0A@@glm@@@std@@QEAAXQEAU?$tmat4x4@M$0A@@glm@@_K@Z
pdata	ENDS
;	COMDAT pdata
pdata	SEGMENT
$pdata$?allocate@?$allocator@U?$tmat4x4@M$0A@@glm@@@std@@QEAAPEAU?$tmat4x4@M$0A@@glm@@_K@Z DD imagerel $LN3
	DD	imagerel $LN3+39
	DD	imagerel $unwind$?allocate@?$allocator@U?$tmat4x4@M$0A@@glm@@@std@@QEAAPEAU?$tmat4x4@M$0A@@glm@@_K@Z
pdata	ENDS
;	COMDAT pdata
pdata	SEGMENT
$pdata$?max_size@?$_Default_allocator_traits@V?$allocator@U?$tmat4x4@M$0A@@glm@@@std@@@std@@SA_KAEBV?$allocator@U?$tmat4x4@M$0A@@glm@@@2@@Z DD imagerel $LN3
	DD	imagerel $LN3+18
	DD	imagerel $unwind$?max_size@?$_Default_allocator_traits@V?$allocator@U?$tmat4x4@M$0A@@glm@@@std@@@std@@SA_KAEBV?$allocator@U?$tmat4x4@M$0A@@glm@@@2@@Z
pdata	ENDS
;	COMDAT pdata
pdata	SEGMENT
$pdata$??0?$vector@U?$tmat4x4@M$0A@@glm@@V?$allocator@U?$tmat4x4@M$0A@@glm@@@std@@@std@@QEAA@V?$initializer_list@U?$tmat4x4@M$0A@@glm@@@1@AEBV?$allocator@U?$tmat4x4@M$0A@@glm@@@1@@Z DD imagerel $LN3
	DD	imagerel $LN3+125
	DD	imagerel $unwind$??0?$vector@U?$tmat4x4@M$0A@@glm@@V?$allocator@U?$tmat4x4@M$0A@@glm@@@std@@@std@@QEAA@V?$initializer_list@U?$tmat4x4@M$0A@@glm@@@1@AEBV?$allocator@U?$tmat4x4@M$0A@@glm@@@1@@Z
pdata	ENDS
;	COMDAT pdata
pdata	SEGMENT
$pdata$??1?$vector@U?$tmat4x4@M$0A@@glm@@V?$allocator@U?$tmat4x4@M$0A@@glm@@@std@@@std@@QEAA@XZ DD imagerel $LN3
	DD	imagerel $LN3+136
	DD	imagerel $unwind$??1?$vector@U?$tmat4x4@M$0A@@glm@@V?$allocator@U?$tmat4x4@M$0A@@glm@@@std@@@std@@QEAA@XZ
pdata	ENDS
;	COMDAT pdata
pdata	SEGMENT
$pdata$?max_size@?$vector@U?$tmat4x4@M$0A@@glm@@V?$allocator@U?$tmat4x4@M$0A@@glm@@@std@@@std@@QEBA_KXZ DD imagerel $LN3
	DD	imagerel $LN3+67
	DD	imagerel $unwind$?max_size@?$vector@U?$tmat4x4@M$0A@@glm@@V?$allocator@U?$tmat4x4@M$0A@@glm@@@std@@@std@@QEBA_KXZ
pdata	ENDS
;	COMDAT pdata
pdata	SEGMENT
$pdata$?_Buy_raw@?$vector@U?$tmat4x4@M$0A@@glm@@V?$allocator@U?$tmat4x4@M$0A@@glm@@@std@@@std@@AEAAX_K@Z DD imagerel $LN3
	DD	imagerel $LN3+152
	DD	imagerel $unwind$?_Buy_raw@?$vector@U?$tmat4x4@M$0A@@glm@@V?$allocator@U?$tmat4x4@M$0A@@glm@@@std@@@std@@AEAAX_K@Z
pdata	ENDS
;	COMDAT pdata
pdata	SEGMENT
$pdata$?_Buy_nonzero@?$vector@U?$tmat4x4@M$0A@@glm@@V?$allocator@U?$tmat4x4@M$0A@@glm@@@std@@@std@@AEAAX_K@Z DD imagerel $LN4
	DD	imagerel $LN4+58
	DD	imagerel $unwind$?_Buy_nonzero@?$vector@U?$tmat4x4@M$0A@@glm@@V?$allocator@U?$tmat4x4@M$0A@@glm@@@std@@@std@@AEAAX_K@Z
pdata	ENDS
;	COMDAT pdata
pdata	SEGMENT
$pdata$?_Tidy@?$vector@U?$tmat4x4@M$0A@@glm@@V?$allocator@U?$tmat4x4@M$0A@@glm@@@std@@@std@@AEAAXXZ DD imagerel $LN4
	DD	imagerel $LN4+210
	DD	imagerel $unwind$?_Tidy@?$vector@U?$tmat4x4@M$0A@@glm@@V?$allocator@U?$tmat4x4@M$0A@@glm@@@std@@@std@@AEAAXXZ
pdata	ENDS
;	COMDAT pdata
pdata	SEGMENT
$pdata$?_Xlength@?$vector@U?$tmat4x4@M$0A@@glm@@V?$allocator@U?$tmat4x4@M$0A@@glm@@@std@@@std@@CAXXZ DD imagerel $LN3
	DD	imagerel $LN3+24
	DD	imagerel $unwind$?_Xlength@?$vector@U?$tmat4x4@M$0A@@glm@@V?$allocator@U?$tmat4x4@M$0A@@glm@@@std@@@std@@CAXXZ
pdata	ENDS
;	COMDAT pdata
pdata	SEGMENT
$pdata$?_Getal@?$vector@U?$tmat4x4@M$0A@@glm@@V?$allocator@U?$tmat4x4@M$0A@@glm@@@std@@@std@@AEAAAEAV?$allocator@U?$tmat4x4@M$0A@@glm@@@2@XZ DD imagerel $LN3
	DD	imagerel $LN3+29
	DD	imagerel $unwind$?_Getal@?$vector@U?$tmat4x4@M$0A@@glm@@V?$allocator@U?$tmat4x4@M$0A@@glm@@@std@@@std@@AEAAAEAV?$allocator@U?$tmat4x4@M$0A@@glm@@@2@XZ
pdata	ENDS
;	COMDAT pdata
pdata	SEGMENT
$pdata$?_Getal@?$vector@U?$tmat4x4@M$0A@@glm@@V?$allocator@U?$tmat4x4@M$0A@@glm@@@std@@@std@@AEBAAEBV?$allocator@U?$tmat4x4@M$0A@@glm@@@2@XZ DD imagerel $LN3
	DD	imagerel $LN3+29
	DD	imagerel $unwind$?_Getal@?$vector@U?$tmat4x4@M$0A@@glm@@V?$allocator@U?$tmat4x4@M$0A@@glm@@@std@@@std@@AEBAAEBV?$allocator@U?$tmat4x4@M$0A@@glm@@@2@XZ
pdata	ENDS
;	COMDAT pdata
pdata	SEGMENT
$pdata$??0?$_Vector_val@U?$_Simple_types@U?$tmat4x4@M$0A@@glm@@@std@@@std@@QEAA@XZ DD imagerel $LN3
	DD	imagerel $LN3+70
	DD	imagerel $unwind$??0?$_Vector_val@U?$_Simple_types@U?$tmat4x4@M$0A@@glm@@@std@@@std@@QEAA@XZ
pdata	ENDS
;	COMDAT pdata
pdata	SEGMENT
$pdata$?_Get_first@?$_Compressed_pair@V?$allocator@U?$tmat4x4@M$0A@@glm@@@std@@V?$_Vector_val@U?$_Simple_types@U?$tmat4x4@M$0A@@glm@@@std@@@2@$00@std@@QEAAAEAV?$allocator@U?$tmat4x4@M$0A@@glm@@@2@XZ DD imagerel $LN3
	DD	imagerel $LN3+13
	DD	imagerel $unwind$?_Get_first@?$_Compressed_pair@V?$allocator@U?$tmat4x4@M$0A@@glm@@@std@@V?$_Vector_val@U?$_Simple_types@U?$tmat4x4@M$0A@@glm@@@std@@@2@$00@std@@QEAAAEAV?$allocator@U?$tmat4x4@M$0A@@glm@@@2@XZ
pdata	ENDS
;	COMDAT pdata
pdata	SEGMENT
$pdata$?_Get_first@?$_Compressed_pair@V?$allocator@U?$tmat4x4@M$0A@@glm@@@std@@V?$_Vector_val@U?$_Simple_types@U?$tmat4x4@M$0A@@glm@@@std@@@2@$00@std@@QEBAAEBV?$allocator@U?$tmat4x4@M$0A@@glm@@@2@XZ DD imagerel $LN3
	DD	imagerel $LN3+13
	DD	imagerel $unwind$?_Get_first@?$_Compressed_pair@V?$allocator@U?$tmat4x4@M$0A@@glm@@@std@@V?$_Vector_val@U?$_Simple_types@U?$tmat4x4@M$0A@@glm@@@std@@@2@$00@std@@QEBAAEBV?$allocator@U?$tmat4x4@M$0A@@glm@@@2@XZ
pdata	ENDS
;	COMDAT pdata
pdata	SEGMENT
$pdata$??0?$initializer_list@U?$tmat4x4@M$0A@@glm@@@std@@QEAA@PEBU?$tmat4x4@M$0A@@glm@@0@Z DD imagerel $LN3
	DD	imagerel $LN3+50
	DD	imagerel $unwind$??0?$initializer_list@U?$tmat4x4@M$0A@@glm@@@std@@QEAA@PEBU?$tmat4x4@M$0A@@glm@@0@Z
pdata	ENDS
;	COMDAT pdata
pdata	SEGMENT
$pdata$?begin@?$initializer_list@U?$tmat4x4@M$0A@@glm@@@std@@QEBAPEBU?$tmat4x4@M$0A@@glm@@XZ DD imagerel $LN3
	DD	imagerel $LN3+16
	DD	imagerel $unwind$?begin@?$initializer_list@U?$tmat4x4@M$0A@@glm@@@std@@QEBAPEBU?$tmat4x4@M$0A@@glm@@XZ
pdata	ENDS
;	COMDAT pdata
pdata	SEGMENT
$pdata$?end@?$initializer_list@U?$tmat4x4@M$0A@@glm@@@std@@QEBAPEBU?$tmat4x4@M$0A@@glm@@XZ DD imagerel $LN3
	DD	imagerel $LN3+17
	DD	imagerel $unwind$?end@?$initializer_list@U?$tmat4x4@M$0A@@glm@@@std@@QEBAPEBU?$tmat4x4@M$0A@@glm@@XZ
pdata	ENDS
;	COMDAT pdata
pdata	SEGMENT
$pdata$?size@?$initializer_list@U?$tmat4x4@M$0A@@glm@@@std@@QEBA_KXZ DD imagerel $LN3
	DD	imagerel $LN3+32
	DD	imagerel $unwind$?size@?$initializer_list@U?$tmat4x4@M$0A@@glm@@@std@@QEBA_KXZ
pdata	ENDS
pdata	SEGMENT
$pdata$?perf_mul@@YAHXZ DD imagerel $LN3
	DD	imagerel $LN3+22
	DD	imagerel $unwind$?perf_mul@@YAHXZ
$pdata$?test@cast@@YAHXZ DD imagerel $LN3
	DD	imagerel $LN3+177
	DD	imagerel $unwind$?test@cast@@YAHXZ
pdata	ENDS
;	COMDAT pdata
pdata	SEGMENT
$pdata$??$entry@U?$tmat2x2@M$0A@@glm@@@cast@@YAHXZ DD imagerel $LN8
	DD	imagerel $LN8+367
	DD	imagerel $unwind$??$entry@U?$tmat2x2@M$0A@@glm@@@cast@@YAHXZ
pdata	ENDS
;	COMDAT pdata
pdata	SEGMENT
$pdata$??$entry@U?$tmat2x3@M$0A@@glm@@@cast@@YAHXZ DD imagerel $LN8
	DD	imagerel $LN8+367
	DD	imagerel $unwind$??$entry@U?$tmat2x3@M$0A@@glm@@@cast@@YAHXZ
pdata	ENDS
;	COMDAT pdata
pdata	SEGMENT
$pdata$??$entry@U?$tmat2x4@M$0A@@glm@@@cast@@YAHXZ DD imagerel $LN8
	DD	imagerel $LN8+373
	DD	imagerel $unwind$??$entry@U?$tmat2x4@M$0A@@glm@@@cast@@YAHXZ
pdata	ENDS
;	COMDAT pdata
pdata	SEGMENT
$pdata$??$entry@U?$tmat3x2@M$0A@@glm@@@cast@@YAHXZ DD imagerel $LN8
	DD	imagerel $LN8+367
	DD	imagerel $unwind$??$entry@U?$tmat3x2@M$0A@@glm@@@cast@@YAHXZ
pdata	ENDS
;	COMDAT pdata
pdata	SEGMENT
$pdata$??$entry@U?$tmat3x3@M$0A@@glm@@@cast@@YAHXZ DD imagerel $LN8
	DD	imagerel $LN8+373
	DD	imagerel $unwind$??$entry@U?$tmat3x3@M$0A@@glm@@@cast@@YAHXZ
pdata	ENDS
;	COMDAT pdata
pdata	SEGMENT
$pdata$??$entry@U?$tmat3x4@M$0A@@glm@@@cast@@YAHXZ DD imagerel $LN8
	DD	imagerel $LN8+373
	DD	imagerel $unwind$??$entry@U?$tmat3x4@M$0A@@glm@@@cast@@YAHXZ
pdata	ENDS
;	COMDAT pdata
pdata	SEGMENT
$pdata$??$entry@U?$tmat4x2@M$0A@@glm@@@cast@@YAHXZ DD imagerel $LN8
	DD	imagerel $LN8+373
	DD	imagerel $unwind$??$entry@U?$tmat4x2@M$0A@@glm@@@cast@@YAHXZ
pdata	ENDS
;	COMDAT pdata
pdata	SEGMENT
$pdata$??$entry@U?$tmat4x3@M$0A@@glm@@@cast@@YAHXZ DD imagerel $LN8
	DD	imagerel $LN8+390
	DD	imagerel $unwind$??$entry@U?$tmat4x3@M$0A@@glm@@@cast@@YAHXZ
pdata	ENDS
;	COMDAT pdata
pdata	SEGMENT
$pdata$??$entry@U?$tmat4x4@M$0A@@glm@@@cast@@YAHXZ DD imagerel $LN8
	DD	imagerel $LN8+400
	DD	imagerel $unwind$??$entry@U?$tmat4x4@M$0A@@glm@@@cast@@YAHXZ
pdata	ENDS
;	COMDAT pdata
pdata	SEGMENT
$pdata$??0repro@@QEAA@XZ DD imagerel $LN6
	DD	imagerel $LN6+93
	DD	imagerel $unwind$??0repro@@QEAA@XZ
pdata	ENDS
;	COMDAT pdata
pdata	SEGMENT
$pdata$?dtor$0@?0???0repro@@QEAA@XZ@4HA DD imagerel ?dtor$0@?0???0repro@@QEAA@XZ@4HA
	DD	imagerel ?dtor$0@?0???0repro@@QEAA@XZ@4HA+40
	DD	imagerel $unwind$?dtor$0@?0???0repro@@QEAA@XZ@4HA
pdata	ENDS
;	COMDAT pdata
pdata	SEGMENT
$pdata$??1repro@@QEAA@XZ DD imagerel $LN3
	DD	imagerel $LN3+44
	DD	imagerel $unwind$??1repro@@QEAA@XZ
pdata	ENDS
pdata	SEGMENT
$pdata$?test_size@@YAHXZ DD imagerel $LN11
	DD	imagerel $LN11+312
	DD	imagerel $unwind$?test_size@@YAHXZ
$pdata$main DD	imagerel $LN4
	DD	imagerel $LN4+228
	DD	imagerel $unwind$main
pdata	ENDS
pdata	SEGMENT
$pdata$main$dtor$0 DD imagerel main$dtor$0
	DD	imagerel main$dtor$0+35
	DD	imagerel $unwind$main$dtor$0
pdata	ENDS
;	COMDAT pdata
pdata	SEGMENT
$pdata$?allocate@?$allocator@U_Container_proxy@std@@@std@@QEAAPEAU_Container_proxy@2@_K@Z DD imagerel $LN3
	DD	imagerel $LN3+39
	DD	imagerel $unwind$?allocate@?$allocator@U_Container_proxy@std@@@std@@QEAAPEAU_Container_proxy@2@_K@Z
pdata	ENDS
;	COMDAT pdata
pdata	SEGMENT
$pdata$??$?0U?$tmat4x4@M$0A@@glm@@@?$allocator@U_Container_proxy@std@@@std@@QEAA@AEBV?$allocator@U?$tmat4x4@M$0A@@glm@@@1@@Z DD imagerel $LN3
	DD	imagerel $LN3+18
	DD	imagerel $unwind$??$?0U?$tmat4x4@M$0A@@glm@@@?$allocator@U_Container_proxy@std@@@std@@QEAA@AEBV?$allocator@U?$tmat4x4@M$0A@@glm@@@1@@Z
pdata	ENDS
;	COMDAT pdata
pdata	SEGMENT
$pdata$??$exchange@PEAU_Container_proxy@std@@$$T@std@@YAPEAU_Container_proxy@0@AEAPEAU10@$$QEA$$T@Z DD imagerel $LN3
	DD	imagerel $LN3+53
	DD	imagerel $unwind$??$exchange@PEAU_Container_proxy@std@@$$T@std@@YAPEAU_Container_proxy@0@AEAPEAU10@$$QEA$$T@Z
pdata	ENDS
;	COMDAT pdata
pdata	SEGMENT
$pdata$??$_Delete_plain_internal@V?$allocator@U_Container_proxy@std@@@std@@@std@@YAXAEAV?$allocator@U_Container_proxy@std@@@0@QEAU_Container_proxy@0@@Z DD imagerel $LN3
	DD	imagerel $LN3+36
	DD	imagerel $unwind$??$_Delete_plain_internal@V?$allocator@U_Container_proxy@std@@@std@@@std@@YAXAEAV?$allocator@U_Container_proxy@std@@@0@QEAU_Container_proxy@0@@Z
pdata	ENDS
;	COMDAT pdata
pdata	SEGMENT
$pdata$??$?0AEBV?$allocator@U?$tmat4x4@M$0A@@glm@@@std@@$$V@?$_Compressed_pair@V?$allocator@U?$tmat4x4@M$0A@@glm@@@std@@V?$_Vector_val@U?$_Simple_types@U?$tmat4x4@M$0A@@glm@@@std@@@2@$00@std@@QEAA@U_One_then_variadic_args_t@1@AEBV?$allocator@U?$tmat4x4@M$0A@@glm@@@1@@Z DD imagerel $LN3
	DD	imagerel $LN3+53
	DD	imagerel $unwind$??$?0AEBV?$allocator@U?$tmat4x4@M$0A@@glm@@@std@@$$V@?$_Compressed_pair@V?$allocator@U?$tmat4x4@M$0A@@glm@@@std@@V?$_Vector_val@U?$_Simple_types@U?$tmat4x4@M$0A@@glm@@@std@@@2@$00@std@@QEAA@U_One_then_variadic_args_t@1@AEBV?$allocator@U?$tmat4x4@M$0A@@glm@@@1@@Z
pdata	ENDS
;	COMDAT pdata
pdata	SEGMENT
$pdata$??$_Convert_size@_K@std@@YA_K_K@Z DD imagerel $LN3
	DD	imagerel $LN3+13
	DD	imagerel $unwind$??$_Convert_size@_K@std@@YA_K_K@Z
pdata	ENDS
;	COMDAT pdata
pdata	SEGMENT
$pdata$??$_Construct_n@PEBU?$tmat4x4@M$0A@@glm@@PEBU12@@?$vector@U?$tmat4x4@M$0A@@glm@@V?$allocator@U?$tmat4x4@M$0A@@glm@@@std@@@std@@AEAAX_K$$QEAPEBU?$tmat4x4@M$0A@@glm@@1@Z DD imagerel $LN6
	DD	imagerel $LN6+328
	DD	imagerel $unwind$??$_Construct_n@PEBU?$tmat4x4@M$0A@@glm@@PEBU12@@?$vector@U?$tmat4x4@M$0A@@glm@@V?$allocator@U?$tmat4x4@M$0A@@glm@@@std@@@std@@AEAAX_K$$QEAPEBU?$tmat4x4@M$0A@@glm@@1@Z
pdata	ENDS
;	COMDAT pdata
pdata	SEGMENT
$pdata$?dtor$0@?0???$_Construct_n@PEBU?$tmat4x4@M$0A@@glm@@PEBU12@@?$vector@U?$tmat4x4@M$0A@@glm@@V?$allocator@U?$tmat4x4@M$0A@@glm@@@std@@@std@@AEAAX_K$$QEAPEBU?$tmat4x4@M$0A@@glm@@1@Z@4HA DD imagerel ?dtor$0@?0???$_Construct_n@PEBU?$tmat4x4@M$0A@@glm@@PEBU12@@?$vector@U?$tmat4x4@M$0A@@glm@@V?$allocator@U?$tmat4x4@M$0A@@glm@@@std@@@std@@AEAAX_K$$QEAPEBU?$tmat4x4@M$0A@@glm@@1@Z@4HA
	DD	imagerel ?dtor$0@?0???$_Construct_n@PEBU?$tmat4x4@M$0A@@glm@@PEBU12@@?$vector@U?$tmat4x4@M$0A@@glm@@V?$allocator@U?$tmat4x4@M$0A@@glm@@@std@@@std@@AEAAX_K$$QEAPEBU?$tmat4x4@M$0A@@glm@@1@Z@4HA+35
	DD	imagerel $unwind$?dtor$0@?0???$_Construct_n@PEBU?$tmat4x4@M$0A@@glm@@PEBU12@@?$vector@U?$tmat4x4@M$0A@@glm@@V?$allocator@U?$tmat4x4@M$0A@@glm@@@std@@@std@@AEAAX_K$$QEAPEBU?$tmat4x4@M$0A@@glm@@1@Z@4HA
pdata	ENDS
;	COMDAT pdata
pdata	SEGMENT
$pdata$?dtor$1@?0???$_Construct_n@PEBU?$tmat4x4@M$0A@@glm@@PEBU12@@?$vector@U?$tmat4x4@M$0A@@glm@@V?$allocator@U?$tmat4x4@M$0A@@glm@@@std@@@std@@AEAAX_K$$QEAPEBU?$tmat4x4@M$0A@@glm@@1@Z@4HA DD imagerel ?dtor$1@?0???$_Construct_n@PEBU?$tmat4x4@M$0A@@glm@@PEBU12@@?$vector@U?$tmat4x4@M$0A@@glm@@V?$allocator@U?$tmat4x4@M$0A@@glm@@@std@@@std@@AEAAX_K$$QEAPEBU?$tmat4x4@M$0A@@glm@@1@Z@4HA
	DD	imagerel ?dtor$1@?0???$_Construct_n@PEBU?$tmat4x4@M$0A@@glm@@PEBU12@@?$vector@U?$tmat4x4@M$0A@@glm@@V?$allocator@U?$tmat4x4@M$0A@@glm@@@std@@@std@@AEAAX_K$$QEAPEBU?$tmat4x4@M$0A@@glm@@1@Z@4HA+38
	DD	imagerel $unwind$?dtor$1@?0???$_Construct_n@PEBU?$tmat4x4@M$0A@@glm@@PEBU12@@?$vector@U?$tmat4x4@M$0A@@glm@@V?$allocator@U?$tmat4x4@M$0A@@glm@@@std@@@std@@AEAAX_K$$QEAPEBU?$tmat4x4@M$0A@@glm@@1@Z@4HA
pdata	ENDS
;	COMDAT pdata
pdata	SEGMENT
$pdata$??$_Destroy_range@V?$allocator@U?$tmat4x4@M$0A@@glm@@@std@@@std@@YAXPEAU?$tmat4x4@M$0A@@glm@@QEAU12@AEAV?$allocator@U?$tmat4x4@M$0A@@glm@@@0@@Z DD imagerel $LN3
	DD	imagerel $LN3+18
	DD	imagerel $unwind$??$_Destroy_range@V?$allocator@U?$tmat4x4@M$0A@@glm@@@std@@@std@@YAXPEAU?$tmat4x4@M$0A@@glm@@QEAU12@AEAV?$allocator@U?$tmat4x4@M$0A@@glm@@@0@@Z
pdata	ENDS
;	COMDAT pdata
pdata	SEGMENT
$pdata$??$_Deallocate@$0BA@$0A@@std@@YAXPEAX_K@Z DD imagerel $LN4
	DD	imagerel $LN4+63
	DD	imagerel $unwind$??$_Deallocate@$0BA@$0A@@std@@YAXPEAX_K@Z
pdata	ENDS
;	COMDAT pdata
pdata	SEGMENT
$pdata$??$?0MHHH@?$tvec4@M$0A@@glm@@QEAA@MHHH@Z DD imagerel $LN3
	DD	imagerel $LN3+92
	DD	imagerel $unwind$??$?0MHHH@?$tvec4@M$0A@@glm@@QEAA@MHHH@Z
pdata	ENDS
;	COMDAT pdata
pdata	SEGMENT
$pdata$??$?0HMHH@?$tvec4@M$0A@@glm@@QEAA@HMHH@Z DD imagerel $LN3
	DD	imagerel $LN3+91
	DD	imagerel $unwind$??$?0HMHH@?$tvec4@M$0A@@glm@@QEAA@HMHH@Z
pdata	ENDS
;	COMDAT pdata
pdata	SEGMENT
$pdata$??$?0HHMH@?$tvec4@M$0A@@glm@@QEAA@HHMH@Z DD imagerel $LN3
	DD	imagerel $LN3+91
	DD	imagerel $unwind$??$?0HHMH@?$tvec4@M$0A@@glm@@QEAA@HHMH@Z
pdata	ENDS
;	COMDAT pdata
pdata	SEGMENT
$pdata$??$?0HHHM@?$tvec4@M$0A@@glm@@QEAA@HHHM@Z DD imagerel $LN3
	DD	imagerel $LN3+90
	DD	imagerel $unwind$??$?0HHHM@?$tvec4@M$0A@@glm@@QEAA@HHHM@Z
pdata	ENDS
;	COMDAT pdata
pdata	SEGMENT
$pdata$??$?0HHHH@?$tvec4@N$0A@@glm@@QEAA@HHHH@Z DD imagerel $LN3
	DD	imagerel $LN3+90
	DD	imagerel $unwind$??$?0HHHH@?$tvec4@N$0A@@glm@@QEAA@HHHH@Z
pdata	ENDS
;	COMDAT pdata
pdata	SEGMENT
$pdata$?call@?$compute_abs@M$00@detail@glm@@SAMM@Z DD imagerel $LN5
	DD	imagerel $LN5+71
	DD	imagerel $unwind$?call@?$compute_abs@M$00@detail@glm@@SAMM@Z
pdata	ENDS
;	COMDAT pdata
pdata	SEGMENT
$pdata$?call@?$compute_inverse@Utmat4x4@glm@@M$0A@$0A@@detail@glm@@SA?AU?$tmat4x4@M$0A@@3@AEBU43@@Z DD imagerel $LN3
	DD	imagerel $LN3+5983
	DD	imagerel $unwind$?call@?$compute_inverse@Utmat4x4@glm@@M$0A@$0A@@detail@glm@@SA?AU?$tmat4x4@M$0A@@3@AEBU43@@Z
pdata	ENDS
;	COMDAT pdata
pdata	SEGMENT
$pdata$??$?DM$0A@@glm@@YA?AU?$tvec4@M$0A@@0@AEBU10@0@Z DD imagerel $LN3
	DD	imagerel $LN3+83
	DD	imagerel $unwind$??$?DM$0A@@glm@@YA?AU?$tvec4@M$0A@@0@AEBU10@0@Z
pdata	ENDS
;	COMDAT pdata
pdata	SEGMENT
$pdata$??$?HM$0A@@glm@@YA?AU?$tvec4@M$0A@@0@AEBU10@0@Z DD imagerel $LN3
	DD	imagerel $LN3+83
	DD	imagerel $unwind$??$?HM$0A@@glm@@YA?AU?$tvec4@M$0A@@0@AEBU10@0@Z
pdata	ENDS
;	COMDAT pdata
pdata	SEGMENT
$pdata$??$?DM$0A@@glm@@YA?AU?$tvec4@M$0A@@0@AEBU10@M@Z DD imagerel $LN3
	DD	imagerel $LN3+85
	DD	imagerel $unwind$??$?DM$0A@@glm@@YA?AU?$tvec4@M$0A@@0@AEBU10@M@Z
pdata	ENDS
;	COMDAT pdata
pdata	SEGMENT
$pdata$?call@?$compute_inverse@Utmat4x4@glm@@N$0A@$0A@@detail@glm@@SA?AU?$tmat4x4@N$0A@@3@AEBU43@@Z DD imagerel $LN3
	DD	imagerel $LN3+6037
	DD	imagerel $unwind$?call@?$compute_inverse@Utmat4x4@glm@@N$0A@$0A@@detail@glm@@SA?AU?$tmat4x4@N$0A@@3@AEBU43@@Z
pdata	ENDS
;	COMDAT pdata
pdata	SEGMENT
$pdata$??$?DN$0A@@glm@@YA?AU?$tvec4@N$0A@@0@AEBU10@N@Z DD imagerel $LN3
	DD	imagerel $LN3+85
	DD	imagerel $unwind$??$?DN$0A@@glm@@YA?AU?$tvec4@N$0A@@0@AEBU10@N@Z
pdata	ENDS
;	COMDAT pdata
pdata	SEGMENT
$pdata$??$?HN$0A@@glm@@YA?AU?$tvec4@N$0A@@0@AEBU10@0@Z DD imagerel $LN3
	DD	imagerel $LN3+83
	DD	imagerel $unwind$??$?HN$0A@@glm@@YA?AU?$tvec4@N$0A@@0@AEBU10@0@Z
pdata	ENDS
;	COMDAT pdata
pdata	SEGMENT
$pdata$??$?KM$0A@@glm@@YA?AU?$tvec4@M$0A@@0@MAEBU10@@Z DD imagerel $LN3
	DD	imagerel $LN3+78
	DD	imagerel $unwind$??$?KM$0A@@glm@@YA?AU?$tvec4@M$0A@@0@MAEBU10@@Z
pdata	ENDS
;	COMDAT pdata
pdata	SEGMENT
$pdata$??$?KM$0A@@glm@@YA?AU?$tvec4@M$0A@@0@AEBU10@M@Z DD imagerel $LN3
	DD	imagerel $LN3+85
	DD	imagerel $unwind$??$?KM$0A@@glm@@YA?AU?$tvec4@M$0A@@0@AEBU10@M@Z
pdata	ENDS
;	COMDAT pdata
pdata	SEGMENT
$pdata$??$?9M$0A@@glm@@YA_NAEBU?$tvec4@M$0A@@0@0@Z DD imagerel $LN3
	DD	imagerel $LN3+36
	DD	imagerel $unwind$??$?9M$0A@@glm@@YA_NAEBU?$tvec4@M$0A@@0@0@Z
pdata	ENDS
;	COMDAT pdata
pdata	SEGMENT
$pdata$??$?8M$0A@@glm@@YA_NAEBU?$tvec4@M$0A@@0@0@Z DD imagerel $LN3
	DD	imagerel $LN3+36
	DD	imagerel $unwind$??$?8M$0A@@glm@@YA_NAEBU?$tvec4@M$0A@@0@0@Z
pdata	ENDS
;	COMDAT pdata
pdata	SEGMENT
$pdata$??$?GM$0A@@glm@@YA?AU?$tvec4@M$0A@@0@AEBU10@0@Z DD imagerel $LN3
	DD	imagerel $LN3+83
	DD	imagerel $unwind$??$?GM$0A@@glm@@YA?AU?$tvec4@M$0A@@0@AEBU10@0@Z
pdata	ENDS
;	COMDAT pdata
pdata	SEGMENT
$pdata$??$abs@M$0A@Utvec4@glm@@@glm@@YA?AU?$tvec4@M$0A@@0@AEBU10@@Z DD imagerel $LN3
	DD	imagerel $LN3+41
	DD	imagerel $unwind$??$abs@M$0A@Utvec4@glm@@@glm@@YA?AU?$tvec4@M$0A@@0@AEBU10@@Z
pdata	ENDS
;	COMDAT pdata
pdata	SEGMENT
$pdata$??$lessThan@M$0A@Utvec4@glm@@@glm@@YA?AU?$tvec4@_N$0A@@0@AEBU?$tvec4@M$0A@@0@0@Z DD imagerel $LN9
	DD	imagerel $LN9+266
	DD	imagerel $unwind$??$lessThan@M$0A@Utvec4@glm@@@glm@@YA?AU?$tvec4@_N$0A@@0@AEBU?$tvec4@M$0A@@0@0@Z
pdata	ENDS
;	COMDAT pdata
pdata	SEGMENT
$pdata$?call@?$compute_inverse@Utmat4x4@glm@@M$00$0A@@detail@glm@@SA?AU?$tmat4x4@M$00@3@AEBU43@@Z DD imagerel $LN3
	DD	imagerel $LN3+5983
	DD	imagerel $unwind$?call@?$compute_inverse@Utmat4x4@glm@@M$00$0A@@detail@glm@@SA?AU?$tmat4x4@M$00@3@AEBU43@@Z
pdata	ENDS
;	COMDAT pdata
pdata	SEGMENT
$pdata$??$?DM$00@glm@@YA?AU?$tvec4@M$00@0@AEBU10@M@Z DD imagerel $LN3
	DD	imagerel $LN3+85
	DD	imagerel $unwind$??$?DM$00@glm@@YA?AU?$tvec4@M$00@0@AEBU10@M@Z
pdata	ENDS
;	COMDAT pdata
pdata	SEGMENT
$pdata$??$?HM$00@glm@@YA?AU?$tvec4@M$00@0@AEBU10@0@Z DD imagerel $LN3
	DD	imagerel $LN3+83
	DD	imagerel $unwind$??$?HM$00@glm@@YA?AU?$tvec4@M$00@0@AEBU10@0@Z
pdata	ENDS
;	COMDAT pdata
pdata	SEGMENT
$pdata$??$?GM$00@glm@@YA?AU?$tvec4@M$00@0@AEBU10@0@Z DD imagerel $LN3
	DD	imagerel $LN3+83
	DD	imagerel $unwind$??$?GM$00@glm@@YA?AU?$tvec4@M$00@0@AEBU10@0@Z
pdata	ENDS
;	COMDAT pdata
pdata	SEGMENT
$pdata$??$abs@M$00Utvec4@glm@@@glm@@YA?AU?$tvec4@M$00@0@AEBU10@@Z DD imagerel $LN3
	DD	imagerel $LN3+41
	DD	imagerel $unwind$??$abs@M$00Utvec4@glm@@@glm@@YA?AU?$tvec4@M$00@0@AEBU10@@Z
pdata	ENDS
;	COMDAT pdata
pdata	SEGMENT
$pdata$??$lessThan@M$00Utvec4@glm@@@glm@@YA?AU?$tvec4@_N$00@0@AEBU?$tvec4@M$00@0@0@Z DD imagerel $LN9
	DD	imagerel $LN9+266
	DD	imagerel $unwind$??$lessThan@M$00Utvec4@glm@@@glm@@YA?AU?$tvec4@_N$00@0@AEBU?$tvec4@M$00@0@0@Z
pdata	ENDS
;	COMDAT pdata
pdata	SEGMENT
$pdata$?call@?$compute_inverse@Utmat4x4@glm@@M$01$0A@@detail@glm@@SA?AU?$tmat4x4@M$01@3@AEBU43@@Z DD imagerel $LN3
	DD	imagerel $LN3+5983
	DD	imagerel $unwind$?call@?$compute_inverse@Utmat4x4@glm@@M$01$0A@@detail@glm@@SA?AU?$tmat4x4@M$01@3@AEBU43@@Z
pdata	ENDS
;	COMDAT pdata
pdata	SEGMENT
$pdata$??$?DM$01@glm@@YA?AU?$tvec4@M$01@0@AEBU10@M@Z DD imagerel $LN3
	DD	imagerel $LN3+85
	DD	imagerel $unwind$??$?DM$01@glm@@YA?AU?$tvec4@M$01@0@AEBU10@M@Z
pdata	ENDS
;	COMDAT pdata
pdata	SEGMENT
$pdata$??$?HM$01@glm@@YA?AU?$tvec4@M$01@0@AEBU10@0@Z DD imagerel $LN3
	DD	imagerel $LN3+83
	DD	imagerel $unwind$??$?HM$01@glm@@YA?AU?$tvec4@M$01@0@AEBU10@0@Z
pdata	ENDS
;	COMDAT pdata
pdata	SEGMENT
$pdata$??$?GM$01@glm@@YA?AU?$tvec4@M$01@0@AEBU10@0@Z DD imagerel $LN3
	DD	imagerel $LN3+83
	DD	imagerel $unwind$??$?GM$01@glm@@YA?AU?$tvec4@M$01@0@AEBU10@0@Z
pdata	ENDS
;	COMDAT pdata
pdata	SEGMENT
$pdata$??$abs@M$01Utvec4@glm@@@glm@@YA?AU?$tvec4@M$01@0@AEBU10@@Z DD imagerel $LN3
	DD	imagerel $LN3+41
	DD	imagerel $unwind$??$abs@M$01Utvec4@glm@@@glm@@YA?AU?$tvec4@M$01@0@AEBU10@@Z
pdata	ENDS
;	COMDAT pdata
pdata	SEGMENT
$pdata$??$lessThan@M$01Utvec4@glm@@@glm@@YA?AU?$tvec4@_N$01@0@AEBU?$tvec4@M$01@0@0@Z DD imagerel $LN9
	DD	imagerel $LN9+266
	DD	imagerel $unwind$??$lessThan@M$01Utvec4@glm@@@glm@@YA?AU?$tvec4@_N$01@0@AEBU?$tvec4@M$01@0@0@Z
pdata	ENDS
;	COMDAT pdata
pdata	SEGMENT
$pdata$??$?_0M@?$tmat4x4@M$0A@@glm@@QEAAAEAU01@AEBU01@@Z DD imagerel $LN3
	DD	imagerel $LN3+83
	DD	imagerel $unwind$??$?_0M@?$tmat4x4@M$0A@@glm@@QEAAAEAU01@AEBU01@@Z
pdata	ENDS
;	COMDAT pdata
pdata	SEGMENT
$pdata$??$_Deallocate_plain@V?$allocator@U_Container_proxy@std@@@std@@@std@@YAXAEAV?$allocator@U_Container_proxy@std@@@0@QEAU_Container_proxy@0@@Z DD imagerel $LN3
	DD	imagerel $LN3+43
	DD	imagerel $unwind$??$_Deallocate_plain@V?$allocator@U_Container_proxy@std@@@std@@@std@@YAXAEAV?$allocator@U_Container_proxy@std@@@0@QEAU_Container_proxy@0@@Z
pdata	ENDS
;	COMDAT pdata
pdata	SEGMENT
$pdata$??$forward@AEBV?$allocator@U?$tmat4x4@M$0A@@glm@@@std@@@std@@YAAEBV?$allocator@U?$tmat4x4@M$0A@@glm@@@0@AEBV10@@Z DD imagerel $LN3
	DD	imagerel $LN3+13
	DD	imagerel $unwind$??$forward@AEBV?$allocator@U?$tmat4x4@M$0A@@glm@@@std@@@std@@YAAEBV?$allocator@U?$tmat4x4@M$0A@@glm@@@0@AEBV10@@Z
pdata	ENDS
;	COMDAT pdata
pdata	SEGMENT
$pdata$??0?$_Container_proxy_ptr12@V?$allocator@U_Container_proxy@std@@@std@@@std@@QEAA@AEAV?$allocator@U_Container_proxy@std@@@1@AEAU_Container_base12@1@@Z DD imagerel $LN3
	DD	imagerel $LN3+135
	DD	imagerel $unwind$??0?$_Container_proxy_ptr12@V?$allocator@U_Container_proxy@std@@@std@@@std@@QEAA@AEAV?$allocator@U_Container_proxy@std@@@1@AEAU_Container_base12@1@@Z
pdata	ENDS
;	COMDAT pdata
pdata	SEGMENT
$pdata$??1?$_Container_proxy_ptr12@V?$allocator@U_Container_proxy@std@@@std@@@std@@QEAA@XZ DD imagerel $LN4
	DD	imagerel $LN4+49
	DD	imagerel $unwind$??1?$_Container_proxy_ptr12@V?$allocator@U_Container_proxy@std@@@std@@@std@@QEAA@XZ
pdata	ENDS
;	COMDAT pdata
pdata	SEGMENT
$pdata$??1?$_Tidy_guard@V?$vector@U?$tmat4x4@M$0A@@glm@@V?$allocator@U?$tmat4x4@M$0A@@glm@@@std@@@std@@@std@@QEAA@XZ DD imagerel $LN4
	DD	imagerel $LN4+40
	DD	imagerel $unwind$??1?$_Tidy_guard@V?$vector@U?$tmat4x4@M$0A@@glm@@V?$allocator@U?$tmat4x4@M$0A@@glm@@@std@@@std@@@std@@QEAA@XZ
pdata	ENDS
;	COMDAT pdata
pdata	SEGMENT
$pdata$??$forward@PEBU?$tmat4x4@M$0A@@glm@@@std@@YA$$QEAPEBU?$tmat4x4@M$0A@@glm@@AEAPEBU12@@Z DD imagerel $LN3
	DD	imagerel $LN3+13
	DD	imagerel $unwind$??$forward@PEBU?$tmat4x4@M$0A@@glm@@@std@@YA$$QEAPEBU?$tmat4x4@M$0A@@glm@@AEAPEBU12@@Z
pdata	ENDS
;	COMDAT pdata
pdata	SEGMENT
$pdata$??$_Uninitialized_copy@PEBU?$tmat4x4@M$0A@@glm@@V?$allocator@U?$tmat4x4@M$0A@@glm@@@std@@@std@@YAPEAU?$tmat4x4@M$0A@@glm@@QEBU12@0PEAU12@AEAV?$allocator@U?$tmat4x4@M$0A@@glm@@@0@@Z DD imagerel $LN7
	DD	imagerel $LN7+292
	DD	imagerel $unwind$??$_Uninitialized_copy@PEBU?$tmat4x4@M$0A@@glm@@V?$allocator@U?$tmat4x4@M$0A@@glm@@@std@@@std@@YAPEAU?$tmat4x4@M$0A@@glm@@QEBU12@0PEAU12@AEAV?$allocator@U?$tmat4x4@M$0A@@glm@@@0@@Z
pdata	ENDS
;	COMDAT pdata
pdata	SEGMENT
$pdata$?dtor$0@?0???$_Uninitialized_copy@PEBU?$tmat4x4@M$0A@@glm@@V?$allocator@U?$tmat4x4@M$0A@@glm@@@std@@@std@@YAPEAU?$tmat4x4@M$0A@@glm@@QEBU12@0PEAU12@AEAV?$allocator@U?$tmat4x4@M$0A@@glm@@@0@@Z@4HA DD imagerel ?dtor$0@?0???$_Uninitialized_copy@PEBU?$tmat4x4@M$0A@@glm@@V?$allocator@U?$tmat4x4@M$0A@@glm@@@std@@@std@@YAPEAU?$tmat4x4@M$0A@@glm@@QEBU12@0PEAU12@AEAV?$allocator@U?$tmat4x4@M$0A@@glm@@@0@@Z@4HA
	DD	imagerel ?dtor$0@?0???$_Uninitialized_copy@PEBU?$tmat4x4@M$0A@@glm@@V?$allocator@U?$tmat4x4@M$0A@@glm@@@std@@@std@@YAPEAU?$tmat4x4@M$0A@@glm@@QEBU12@0PEAU12@AEAV?$allocator@U?$tmat4x4@M$0A@@glm@@@0@@Z@4HA+35
	DD	imagerel $unwind$?dtor$0@?0???$_Uninitialized_copy@PEBU?$tmat4x4@M$0A@@glm@@V?$allocator@U?$tmat4x4@M$0A@@glm@@@std@@@std@@YAPEAU?$tmat4x4@M$0A@@glm@@QEBU12@0PEAU12@AEAV?$allocator@U?$tmat4x4@M$0A@@glm@@@0@@Z@4HA
pdata	ENDS
;	COMDAT pdata
pdata	SEGMENT
$pdata$??$_Unfancy@U_Container_proxy@std@@@std@@YAPEAU_Container_proxy@0@PEAU10@@Z DD imagerel $LN3
	DD	imagerel $LN3+13
	DD	imagerel $unwind$??$_Unfancy@U_Container_proxy@std@@@std@@YAPEAU_Container_proxy@0@PEAU10@@Z
pdata	ENDS
;	COMDAT pdata
pdata	SEGMENT
$pdata$??$addressof@U_Container_base12@std@@@std@@YAPEAU_Container_base12@0@AEAU10@@Z DD imagerel $LN3
	DD	imagerel $LN3+13
	DD	imagerel $unwind$??$addressof@U_Container_base12@std@@@std@@YAPEAU_Container_base12@0@AEAU10@@Z
pdata	ENDS
;	COMDAT pdata
pdata	SEGMENT
$pdata$??$_Construct_in_place@U_Container_proxy@std@@PEAU_Container_base12@2@@std@@YAXAEAU_Container_proxy@0@$$QEAPEAU_Container_base12@0@@Z DD imagerel $LN3
	DD	imagerel $LN3+80
	DD	imagerel $unwind$??$_Construct_in_place@U_Container_proxy@std@@PEAU_Container_base12@2@@std@@YAXAEAU_Container_proxy@0@$$QEAPEAU_Container_base12@0@@Z
pdata	ENDS
;	COMDAT pdata
pdata	SEGMENT
$pdata$??$?DM$01@glm@@YA?AU?$tvec4@M$01@0@AEBU10@0@Z DD imagerel $LN3
	DD	imagerel $LN3+83
	DD	imagerel $unwind$??$?DM$01@glm@@YA?AU?$tvec4@M$01@0@AEBU10@0@Z
pdata	ENDS
;	COMDAT pdata
pdata	SEGMENT
$pdata$??$?0HHHH@?$tvec4@M$01@glm@@QEAA@HHHH@Z DD imagerel $LN3
	DD	imagerel $LN3+90
	DD	imagerel $unwind$??$?0HHHH@?$tvec4@M$01@glm@@QEAA@HHHH@Z
pdata	ENDS
;	COMDAT pdata
pdata	SEGMENT
$pdata$??$?DM$01@glm@@YA?AU?$tmat4x4@M$01@0@AEBU10@AEBM@Z DD imagerel $LN3
	DD	imagerel $LN3+272
	DD	imagerel $unwind$??$?DM$01@glm@@YA?AU?$tmat4x4@M$01@0@AEBU10@AEBM@Z
pdata	ENDS
;	COMDAT pdata
pdata	SEGMENT
$pdata$??$?DM$00@glm@@YA?AU?$tvec4@M$00@0@AEBU10@0@Z DD imagerel $LN3
	DD	imagerel $LN3+83
	DD	imagerel $unwind$??$?DM$00@glm@@YA?AU?$tvec4@M$00@0@AEBU10@0@Z
pdata	ENDS
;	COMDAT pdata
pdata	SEGMENT
$pdata$??$?0HHHH@?$tvec4@M$00@glm@@QEAA@HHHH@Z DD imagerel $LN3
	DD	imagerel $LN3+90
	DD	imagerel $unwind$??$?0HHHH@?$tvec4@M$00@glm@@QEAA@HHHH@Z
pdata	ENDS
;	COMDAT pdata
pdata	SEGMENT
$pdata$??$?DM$00@glm@@YA?AU?$tmat4x4@M$00@0@AEBU10@AEBM@Z DD imagerel $LN3
	DD	imagerel $LN3+272
	DD	imagerel $unwind$??$?DM$00@glm@@YA?AU?$tmat4x4@M$00@0@AEBU10@AEBM@Z
pdata	ENDS
;	COMDAT pdata
pdata	SEGMENT
$pdata$??$?DN$0A@@glm@@YA?AU?$tvec4@N$0A@@0@AEBU10@0@Z DD imagerel $LN3
	DD	imagerel $LN3+83
	DD	imagerel $unwind$??$?DN$0A@@glm@@YA?AU?$tvec4@N$0A@@0@AEBU10@0@Z
pdata	ENDS
;	COMDAT pdata
pdata	SEGMENT
$pdata$??$?GN$0A@@glm@@YA?AU?$tvec4@N$0A@@0@AEBU10@0@Z DD imagerel $LN3
	DD	imagerel $LN3+83
	DD	imagerel $unwind$??$?GN$0A@@glm@@YA?AU?$tvec4@N$0A@@0@AEBU10@0@Z
pdata	ENDS
;	COMDAT pdata
pdata	SEGMENT
$pdata$??$?DN$0A@@glm@@YA?AU?$tmat4x4@N$0A@@0@AEBU10@AEBN@Z DD imagerel $LN3
	DD	imagerel $LN3+287
	DD	imagerel $unwind$??$?DN$0A@@glm@@YA?AU?$tmat4x4@N$0A@@0@AEBU10@AEBN@Z
pdata	ENDS
;	COMDAT pdata
pdata	SEGMENT
$pdata$??$_Get_size_of_n@$0BA@@std@@YA_K_K@Z DD imagerel $LN4
	DD	imagerel $LN4+64
	DD	imagerel $unwind$??$_Get_size_of_n@$0BA@@std@@YA_K_K@Z
pdata	ENDS
;	COMDAT pdata
pdata	SEGMENT
$pdata$??$_Allocate@$0BA@U_Default_allocate_traits@std@@$0A@@std@@YAPEAX_K@Z DD imagerel $LN5
	DD	imagerel $LN5+61
	DD	imagerel $unwind$??$_Allocate@$0BA@U_Default_allocate_traits@std@@$0A@@std@@YAPEAX_K@Z
pdata	ENDS
;	COMDAT pdata
pdata	SEGMENT
$pdata$??$min@_K@std@@YAAEB_KAEB_K0@Z DD imagerel $LN5
	DD	imagerel $LN5+74
	DD	imagerel $unwind$??$min@_K@std@@YAAEB_KAEB_K0@Z
pdata	ENDS
;	COMDAT pdata
pdata	SEGMENT
$pdata$??$_Get_size_of_n@$0EA@@std@@YA_K_K@Z DD imagerel $LN4
	DD	imagerel $LN4+64
	DD	imagerel $unwind$??$_Get_size_of_n@$0EA@@std@@YA_K_K@Z
pdata	ENDS
;	COMDAT pdata
pdata	SEGMENT
$pdata$??$?0MH@?$tvec2@M$0A@@glm@@QEAA@MH@Z DD imagerel $LN3
	DD	imagerel $LN3+55
	DD	imagerel $unwind$??$?0MH@?$tvec2@M$0A@@glm@@QEAA@MH@Z
pdata	ENDS
;	COMDAT pdata
pdata	SEGMENT
$pdata$??$?0HM@?$tvec2@M$0A@@glm@@QEAA@HM@Z DD imagerel $LN3
	DD	imagerel $LN3+54
	DD	imagerel $unwind$??$?0HM@?$tvec2@M$0A@@glm@@QEAA@HM@Z
pdata	ENDS
;	COMDAT pdata
pdata	SEGMENT
$pdata$??$?0MHH@?$tvec3@M$0A@@glm@@QEAA@MHH@Z DD imagerel $LN3
	DD	imagerel $LN3+76
	DD	imagerel $unwind$??$?0MHH@?$tvec3@M$0A@@glm@@QEAA@MHH@Z
pdata	ENDS
;	COMDAT pdata
pdata	SEGMENT
$pdata$??$?0HMH@?$tvec3@M$0A@@glm@@QEAA@HMH@Z DD imagerel $LN3
	DD	imagerel $LN3+75
	DD	imagerel $unwind$??$?0HMH@?$tvec3@M$0A@@glm@@QEAA@HMH@Z
pdata	ENDS
;	COMDAT pdata
pdata	SEGMENT
$pdata$??$?0HH@?$tvec2@M$0A@@glm@@QEAA@HH@Z DD imagerel $LN3
	DD	imagerel $LN3+53
	DD	imagerel $unwind$??$?0HH@?$tvec2@M$0A@@glm@@QEAA@HH@Z
pdata	ENDS
;	COMDAT pdata
pdata	SEGMENT
$pdata$??$?0HHM@?$tvec3@M$0A@@glm@@QEAA@HHM@Z DD imagerel $LN3
	DD	imagerel $LN3+75
	DD	imagerel $unwind$??$?0HHM@?$tvec3@M$0A@@glm@@QEAA@HHM@Z
pdata	ENDS
;	COMDAT pdata
pdata	SEGMENT
$pdata$??$?0HHH@?$tvec3@M$0A@@glm@@QEAA@HHH@Z DD imagerel $LN3
	DD	imagerel $LN3+74
	DD	imagerel $unwind$??$?0HHH@?$tvec3@M$0A@@glm@@QEAA@HHH@Z
pdata	ENDS
;	COMDAT pdata
pdata	SEGMENT
$pdata$??$?0MH$0A@@?$tvec4@M$0A@@glm@@QEAA@AEBU?$tvec3@M$0A@@1@H@Z DD imagerel $LN3
	DD	imagerel $LN3+97
	DD	imagerel $unwind$??$?0MH$0A@@?$tvec4@M$0A@@glm@@QEAA@AEBU?$tvec3@M$0A@@1@H@Z
pdata	ENDS
;	COMDAT pdata
pdata	SEGMENT
$pdata$??$?0MHH$0A@@?$tvec4@M$0A@@glm@@QEAA@AEBU?$tvec2@M$0A@@1@HH@Z DD imagerel $LN3
	DD	imagerel $LN3+98
	DD	imagerel $unwind$??$?0MHH$0A@@?$tvec4@M$0A@@glm@@QEAA@AEBU?$tvec2@M$0A@@1@HH@Z
pdata	ENDS
;	COMDAT pdata
pdata	SEGMENT
$pdata$??$?XM@?$tvec4@M$0A@@glm@@QEAAAEAU01@AEBU01@@Z DD imagerel $LN3
	DD	imagerel $LN3+83
	DD	imagerel $unwind$??$?XM@?$tvec4@M$0A@@glm@@QEAAAEAU01@AEBU01@@Z
pdata	ENDS
;	COMDAT pdata
pdata	SEGMENT
$pdata$??$?YM@?$tvec4@M$0A@@glm@@QEAAAEAU01@AEBU01@@Z DD imagerel $LN3
	DD	imagerel $LN3+83
	DD	imagerel $unwind$??$?YM@?$tvec4@M$0A@@glm@@QEAAAEAU01@AEBU01@@Z
pdata	ENDS
;	COMDAT pdata
pdata	SEGMENT
$pdata$??$?XM@?$tvec4@M$0A@@glm@@QEAAAEAU01@M@Z DD imagerel $LN3
	DD	imagerel $LN3+78
	DD	imagerel $unwind$??$?XM@?$tvec4@M$0A@@glm@@QEAAAEAU01@M@Z
pdata	ENDS
;	COMDAT pdata
pdata	SEGMENT
$pdata$??$?XN@?$tvec4@N$0A@@glm@@QEAAAEAU01@N@Z DD imagerel $LN3
	DD	imagerel $LN3+90
	DD	imagerel $unwind$??$?XN@?$tvec4@N$0A@@glm@@QEAAAEAU01@N@Z
pdata	ENDS
;	COMDAT pdata
pdata	SEGMENT
$pdata$??$?YN@?$tvec4@N$0A@@glm@@QEAAAEAU01@AEBU01@@Z DD imagerel $LN3
	DD	imagerel $LN3+95
	DD	imagerel $unwind$??$?YN@?$tvec4@N$0A@@glm@@QEAAAEAU01@AEBU01@@Z
pdata	ENDS
;	COMDAT pdata
pdata	SEGMENT
$pdata$??$?_0M@?$tvec4@M$0A@@glm@@QEAAAEAU01@AEBU01@@Z DD imagerel $LN3
	DD	imagerel $LN3+83
	DD	imagerel $unwind$??$?_0M@?$tvec4@M$0A@@glm@@QEAAAEAU01@AEBU01@@Z
pdata	ENDS
;	COMDAT pdata
pdata	SEGMENT
$pdata$??$?_0M@?$tvec4@M$0A@@glm@@QEAAAEAU01@M@Z DD imagerel $LN3
	DD	imagerel $LN3+78
	DD	imagerel $unwind$??$?_0M@?$tvec4@M$0A@@glm@@QEAAAEAU01@M@Z
pdata	ENDS
;	COMDAT pdata
pdata	SEGMENT
$pdata$?call@?$compute_vec4_nequal@M$0A@$0A@$0CA@$0A@@detail@glm@@SA_NAEBU?$tvec4@M$0A@@3@0@Z DD imagerel $LN5
	DD	imagerel $LN5+131
	DD	imagerel $unwind$?call@?$compute_vec4_nequal@M$0A@$0A@$0CA@$0A@@detail@glm@@SA_NAEBU?$tvec4@M$0A@@3@0@Z
pdata	ENDS
;	COMDAT pdata
pdata	SEGMENT
$pdata$?call@?$compute_vec4_equal@M$0A@$0A@$0CA@$0A@@detail@glm@@SA_NAEBU?$tvec4@M$0A@@3@0@Z DD imagerel $LN5
	DD	imagerel $LN5+131
	DD	imagerel $unwind$?call@?$compute_vec4_equal@M$0A@$0A@$0CA@$0A@@detail@glm@@SA_NAEBU?$tvec4@M$0A@@3@0@Z
pdata	ENDS
;	COMDAT pdata
pdata	SEGMENT
$pdata$??$?ZM@?$tvec4@M$0A@@glm@@QEAAAEAU01@AEBU01@@Z DD imagerel $LN3
	DD	imagerel $LN3+83
	DD	imagerel $unwind$??$?ZM@?$tvec4@M$0A@@glm@@QEAAAEAU01@AEBU01@@Z
pdata	ENDS
;	COMDAT pdata
pdata	SEGMENT
$pdata$?call@?$compute_abs_vector@M$0A@Utvec4@glm@@$0A@@detail@glm@@SA?AU?$tvec4@M$0A@@3@AEBU43@@Z DD imagerel $LN3
	DD	imagerel $LN3+48
	DD	imagerel $unwind$?call@?$compute_abs_vector@M$0A@Utvec4@glm@@$0A@@detail@glm@@SA?AU?$tvec4@M$0A@@3@AEBU43@@Z
pdata	ENDS
;	COMDAT pdata
pdata	SEGMENT
$pdata$??$?XM@?$tvec4@M$00@glm@@QEAAAEAU01@M@Z DD imagerel $LN3
	DD	imagerel $LN3+78
	DD	imagerel $unwind$??$?XM@?$tvec4@M$00@glm@@QEAAAEAU01@M@Z
pdata	ENDS
;	COMDAT pdata
pdata	SEGMENT
$pdata$??$?YM@?$tvec4@M$00@glm@@QEAAAEAU01@AEBU01@@Z DD imagerel $LN3
	DD	imagerel $LN3+83
	DD	imagerel $unwind$??$?YM@?$tvec4@M$00@glm@@QEAAAEAU01@AEBU01@@Z
pdata	ENDS
;	COMDAT pdata
pdata	SEGMENT
$pdata$??$?ZM@?$tvec4@M$00@glm@@QEAAAEAU01@AEBU01@@Z DD imagerel $LN3
	DD	imagerel $LN3+83
	DD	imagerel $unwind$??$?ZM@?$tvec4@M$00@glm@@QEAAAEAU01@AEBU01@@Z
pdata	ENDS
;	COMDAT pdata
pdata	SEGMENT
$pdata$?call@?$compute_abs_vector@M$00Utvec4@glm@@$0A@@detail@glm@@SA?AU?$tvec4@M$00@3@AEBU43@@Z DD imagerel $LN3
	DD	imagerel $LN3+48
	DD	imagerel $unwind$?call@?$compute_abs_vector@M$00Utvec4@glm@@$0A@@detail@glm@@SA?AU?$tvec4@M$00@3@AEBU43@@Z
pdata	ENDS
;	COMDAT pdata
pdata	SEGMENT
$pdata$??$?XM@?$tvec4@M$01@glm@@QEAAAEAU01@M@Z DD imagerel $LN3
	DD	imagerel $LN3+78
	DD	imagerel $unwind$??$?XM@?$tvec4@M$01@glm@@QEAAAEAU01@M@Z
pdata	ENDS
;	COMDAT pdata
pdata	SEGMENT
$pdata$??$?YM@?$tvec4@M$01@glm@@QEAAAEAU01@AEBU01@@Z DD imagerel $LN3
	DD	imagerel $LN3+83
	DD	imagerel $unwind$??$?YM@?$tvec4@M$01@glm@@QEAAAEAU01@AEBU01@@Z
pdata	ENDS
;	COMDAT pdata
pdata	SEGMENT
$pdata$??$?ZM@?$tvec4@M$01@glm@@QEAAAEAU01@AEBU01@@Z DD imagerel $LN3
	DD	imagerel $LN3+83
	DD	imagerel $unwind$??$?ZM@?$tvec4@M$01@glm@@QEAAAEAU01@AEBU01@@Z
pdata	ENDS
;	COMDAT pdata
pdata	SEGMENT
$pdata$?call@?$compute_abs_vector@M$01Utvec4@glm@@$0A@@detail@glm@@SA?AU?$tvec4@M$01@3@AEBU43@@Z DD imagerel $LN3
	DD	imagerel $LN3+48
	DD	imagerel $unwind$?call@?$compute_abs_vector@M$01Utvec4@glm@@$0A@@detail@glm@@SA?AU?$tvec4@M$01@3@AEBU43@@Z
pdata	ENDS
;	COMDAT pdata
pdata	SEGMENT
$pdata$??$?XM@?$tmat4x4@M$0A@@glm@@QEAAAEAU01@AEBU01@@Z DD imagerel $LN3
	DD	imagerel $LN3+103
	DD	imagerel $unwind$??$?XM@?$tmat4x4@M$0A@@glm@@QEAAAEAU01@AEBU01@@Z
pdata	ENDS
;	COMDAT pdata
pdata	SEGMENT
$pdata$?deallocate@?$_Default_allocator_traits@V?$allocator@U_Container_proxy@std@@@std@@@std@@SAXAEAV?$allocator@U_Container_proxy@std@@@2@QEAU_Container_proxy@2@_K@Z DD imagerel $LN3
	DD	imagerel $LN3+45
	DD	imagerel $unwind$?deallocate@?$_Default_allocator_traits@V?$allocator@U_Container_proxy@std@@@std@@@std@@SAXAEAV?$allocator@U_Container_proxy@std@@@2@QEAU_Container_proxy@2@_K@Z
pdata	ENDS
;	COMDAT pdata
pdata	SEGMENT
$pdata$??$_Get_unwrapped@AEBQEBU?$tmat4x4@M$0A@@glm@@@std@@YA?A_TAEBQEBU?$tmat4x4@M$0A@@glm@@@Z DD imagerel $LN3
	DD	imagerel $LN3+16
	DD	imagerel $unwind$??$_Get_unwrapped@AEBQEBU?$tmat4x4@M$0A@@glm@@@std@@YA?A_TAEBQEBU?$tmat4x4@M$0A@@glm@@@Z
pdata	ENDS
;	COMDAT pdata
pdata	SEGMENT
$pdata$??$_Unfancy@U?$tmat4x4@M$0A@@glm@@@std@@YAPEAU?$tmat4x4@M$0A@@glm@@PEAU12@@Z DD imagerel $LN3
	DD	imagerel $LN3+13
	DD	imagerel $unwind$??$_Unfancy@U?$tmat4x4@M$0A@@glm@@@std@@YAPEAU?$tmat4x4@M$0A@@glm@@PEAU12@@Z
pdata	ENDS
;	COMDAT pdata
pdata	SEGMENT
$pdata$??$_Copy_memmove@PEBU?$tmat4x4@M$0A@@glm@@PEAU12@@std@@YAPEAU?$tmat4x4@M$0A@@glm@@PEBU12@0PEAU12@@Z DD imagerel $LN3
	DD	imagerel $LN3+161
	DD	imagerel $unwind$??$_Copy_memmove@PEBU?$tmat4x4@M$0A@@glm@@PEAU12@@std@@YAPEAU?$tmat4x4@M$0A@@glm@@PEBU12@0PEAU12@@Z
pdata	ENDS
;	COMDAT pdata
pdata	SEGMENT
$pdata$??0?$_Uninitialized_backout_al@V?$allocator@U?$tmat4x4@M$0A@@glm@@@std@@@std@@QEAA@PEAU?$tmat4x4@M$0A@@glm@@AEAV?$allocator@U?$tmat4x4@M$0A@@glm@@@1@@Z DD imagerel $LN3
	DD	imagerel $LN3+64
	DD	imagerel $unwind$??0?$_Uninitialized_backout_al@V?$allocator@U?$tmat4x4@M$0A@@glm@@@std@@@std@@QEAA@PEAU?$tmat4x4@M$0A@@glm@@AEAV?$allocator@U?$tmat4x4@M$0A@@glm@@@1@@Z
pdata	ENDS
;	COMDAT pdata
pdata	SEGMENT
$pdata$??1?$_Uninitialized_backout_al@V?$allocator@U?$tmat4x4@M$0A@@glm@@@std@@@std@@QEAA@XZ DD imagerel $LN3
	DD	imagerel $LN3+47
	DD	imagerel $unwind$??1?$_Uninitialized_backout_al@V?$allocator@U?$tmat4x4@M$0A@@glm@@@std@@@std@@QEAA@XZ
pdata	ENDS
;	COMDAT pdata
pdata	SEGMENT
$pdata$?_Release@?$_Uninitialized_backout_al@V?$allocator@U?$tmat4x4@M$0A@@glm@@@std@@@std@@QEAAPEAU?$tmat4x4@M$0A@@glm@@XZ DD imagerel $LN3
	DD	imagerel $LN3+34
	DD	imagerel $unwind$?_Release@?$_Uninitialized_backout_al@V?$allocator@U?$tmat4x4@M$0A@@glm@@@std@@@std@@QEAAPEAU?$tmat4x4@M$0A@@glm@@XZ
pdata	ENDS
;	COMDAT pdata
pdata	SEGMENT
$pdata$??$_Emplace_back@AEBU?$tmat4x4@M$0A@@glm@@@?$_Uninitialized_backout_al@V?$allocator@U?$tmat4x4@M$0A@@glm@@@std@@@std@@QEAAXAEBU?$tmat4x4@M$0A@@glm@@@Z DD imagerel $LN3
	DD	imagerel $LN3+97
	DD	imagerel $unwind$??$_Emplace_back@AEBU?$tmat4x4@M$0A@@glm@@@?$_Uninitialized_backout_al@V?$allocator@U?$tmat4x4@M$0A@@glm@@@std@@@std@@QEAAXAEBU?$tmat4x4@M$0A@@glm@@@Z
pdata	ENDS
;	COMDAT pdata
pdata	SEGMENT
$pdata$??$addressof@U_Container_proxy@std@@@std@@YAPEAU_Container_proxy@0@AEAU10@@Z DD imagerel $LN3
	DD	imagerel $LN3+13
	DD	imagerel $unwind$??$addressof@U_Container_proxy@std@@@std@@YAPEAU_Container_proxy@0@AEAU10@@Z
pdata	ENDS
;	COMDAT pdata
pdata	SEGMENT
$pdata$??$_Voidify_iter@PEAU_Container_proxy@std@@@std@@YAPEAXPEAU_Container_proxy@0@@Z DD imagerel $LN3
	DD	imagerel $LN3+13
	DD	imagerel $unwind$??$_Voidify_iter@PEAU_Container_proxy@std@@@std@@YAPEAXPEAU_Container_proxy@0@@Z
pdata	ENDS
;	COMDAT pdata
pdata	SEGMENT
$pdata$??$forward@PEAU_Container_base12@std@@@std@@YA$$QEAPEAU_Container_base12@0@AEAPEAU10@@Z DD imagerel $LN3
	DD	imagerel $LN3+13
	DD	imagerel $unwind$??$forward@PEAU_Container_base12@std@@@std@@YA$$QEAPEAU_Container_base12@0@AEAPEAU10@@Z
pdata	ENDS
;	COMDAT pdata
pdata	SEGMENT
$pdata$??$?XM@?$tvec4@M$01@glm@@QEAAAEAU01@AEBU01@@Z DD imagerel $LN3
	DD	imagerel $LN3+83
	DD	imagerel $unwind$??$?XM@?$tvec4@M$01@glm@@QEAAAEAU01@AEBU01@@Z
pdata	ENDS
;	COMDAT pdata
pdata	SEGMENT
$pdata$??$?XM@?$tvec4@M$00@glm@@QEAAAEAU01@AEBU01@@Z DD imagerel $LN3
	DD	imagerel $LN3+83
	DD	imagerel $unwind$??$?XM@?$tvec4@M$00@glm@@QEAAAEAU01@AEBU01@@Z
pdata	ENDS
;	COMDAT pdata
pdata	SEGMENT
$pdata$??$?XN@?$tvec4@N$0A@@glm@@QEAAAEAU01@AEBU01@@Z DD imagerel $LN3
	DD	imagerel $LN3+95
	DD	imagerel $unwind$??$?XN@?$tvec4@N$0A@@glm@@QEAAAEAU01@AEBU01@@Z
pdata	ENDS
;	COMDAT pdata
pdata	SEGMENT
$pdata$??$?ZN@?$tvec4@N$0A@@glm@@QEAAAEAU01@AEBU01@@Z DD imagerel $LN3
	DD	imagerel $LN3+95
	DD	imagerel $unwind$??$?ZN@?$tvec4@N$0A@@glm@@QEAAAEAU01@AEBU01@@Z
pdata	ENDS
;	COMDAT pdata
pdata	SEGMENT
$pdata$??$_Allocate_manually_vector_aligned@U_Default_allocate_traits@std@@@std@@YAPEAX_K@Z DD imagerel $LN13
	DD	imagerel $LN13+259
	DD	imagerel $unwind$??$_Allocate_manually_vector_aligned@U_Default_allocate_traits@std@@@std@@YAPEAX_K@Z
pdata	ENDS
;	COMDAT pdata
pdata	SEGMENT
$pdata$?call@?$functor1@MM$01Utvec4@glm@@@detail@glm@@SA?AU?$tvec4@M$01@3@P6AMM@ZAEBU43@@Z DD imagerel $LN3
	DD	imagerel $LN3+147
	DD	imagerel $unwind$?call@?$functor1@MM$01Utvec4@glm@@@detail@glm@@SA?AU?$tvec4@M$01@3@P6AMM@ZAEBU43@@Z
pdata	ENDS
;	COMDAT pdata
pdata	SEGMENT
$pdata$?call@?$functor1@MM$00Utvec4@glm@@@detail@glm@@SA?AU?$tvec4@M$00@3@P6AMM@ZAEBU43@@Z DD imagerel $LN3
	DD	imagerel $LN3+147
	DD	imagerel $unwind$?call@?$functor1@MM$00Utvec4@glm@@@detail@glm@@SA?AU?$tvec4@M$00@3@P6AMM@ZAEBU43@@Z
pdata	ENDS
;	COMDAT pdata
pdata	SEGMENT
$pdata$?call@?$functor1@MM$0A@Utvec4@glm@@@detail@glm@@SA?AU?$tvec4@M$0A@@3@P6AMM@ZAEBU43@@Z DD imagerel $LN3
	DD	imagerel $LN3+147
	DD	imagerel $unwind$?call@?$functor1@MM$0A@Utvec4@glm@@@detail@glm@@SA?AU?$tvec4@M$0A@@3@P6AMM@ZAEBU43@@Z
pdata	ENDS
;	COMDAT pdata
pdata	SEGMENT
$pdata$?call@?$compute_vec4_mul@M$0A@$0A@@detail@glm@@SA?AU?$tvec4@M$0A@@3@AEBU43@0@Z DD imagerel $LN3
	DD	imagerel $LN3+143
	DD	imagerel $unwind$?call@?$compute_vec4_mul@M$0A@$0A@@detail@glm@@SA?AU?$tvec4@M$0A@@3@AEBU43@0@Z
pdata	ENDS
;	COMDAT pdata
pdata	SEGMENT
$pdata$?call@?$compute_vec4_add@M$0A@$0A@@detail@glm@@SA?AU?$tvec4@M$0A@@3@AEBU43@0@Z DD imagerel $LN3
	DD	imagerel $LN3+143
	DD	imagerel $unwind$?call@?$compute_vec4_add@M$0A@$0A@@detail@glm@@SA?AU?$tvec4@M$0A@@3@AEBU43@0@Z
pdata	ENDS
;	COMDAT pdata
pdata	SEGMENT
$pdata$?call@?$compute_vec4_mul@N$0A@$0A@@detail@glm@@SA?AU?$tvec4@N$0A@@3@AEBU43@0@Z DD imagerel $LN3
	DD	imagerel $LN3+143
	DD	imagerel $unwind$?call@?$compute_vec4_mul@N$0A@$0A@@detail@glm@@SA?AU?$tvec4@N$0A@@3@AEBU43@0@Z
pdata	ENDS
;	COMDAT pdata
pdata	SEGMENT
$pdata$?call@?$compute_vec4_add@N$0A@$0A@@detail@glm@@SA?AU?$tvec4@N$0A@@3@AEBU43@0@Z DD imagerel $LN3
	DD	imagerel $LN3+143
	DD	imagerel $unwind$?call@?$compute_vec4_add@N$0A@$0A@@detail@glm@@SA?AU?$tvec4@N$0A@@3@AEBU43@0@Z
pdata	ENDS
;	COMDAT pdata
pdata	SEGMENT
$pdata$?call@?$compute_vec4_div@M$0A@$0A@@detail@glm@@SA?AU?$tvec4@M$0A@@3@AEBU43@0@Z DD imagerel $LN3
	DD	imagerel $LN3+143
	DD	imagerel $unwind$?call@?$compute_vec4_div@M$0A@$0A@@detail@glm@@SA?AU?$tvec4@M$0A@@3@AEBU43@0@Z
pdata	ENDS
;	COMDAT pdata
pdata	SEGMENT
$pdata$?call@?$compute_vec4_sub@M$0A@$0A@@detail@glm@@SA?AU?$tvec4@M$0A@@3@AEBU43@0@Z DD imagerel $LN3
	DD	imagerel $LN3+143
	DD	imagerel $unwind$?call@?$compute_vec4_sub@M$0A@$0A@@detail@glm@@SA?AU?$tvec4@M$0A@@3@AEBU43@0@Z
pdata	ENDS
;	COMDAT pdata
pdata	SEGMENT
$pdata$?call@?$compute_vec4_mul@M$00$0A@@detail@glm@@SA?AU?$tvec4@M$00@3@AEBU43@0@Z DD imagerel $LN3
	DD	imagerel $LN3+143
	DD	imagerel $unwind$?call@?$compute_vec4_mul@M$00$0A@@detail@glm@@SA?AU?$tvec4@M$00@3@AEBU43@0@Z
pdata	ENDS
;	COMDAT pdata
pdata	SEGMENT
$pdata$?call@?$compute_vec4_add@M$00$0A@@detail@glm@@SA?AU?$tvec4@M$00@3@AEBU43@0@Z DD imagerel $LN3
	DD	imagerel $LN3+143
	DD	imagerel $unwind$?call@?$compute_vec4_add@M$00$0A@@detail@glm@@SA?AU?$tvec4@M$00@3@AEBU43@0@Z
pdata	ENDS
;	COMDAT pdata
pdata	SEGMENT
$pdata$?call@?$compute_vec4_sub@M$00$0A@@detail@glm@@SA?AU?$tvec4@M$00@3@AEBU43@0@Z DD imagerel $LN3
	DD	imagerel $LN3+143
	DD	imagerel $unwind$?call@?$compute_vec4_sub@M$00$0A@@detail@glm@@SA?AU?$tvec4@M$00@3@AEBU43@0@Z
pdata	ENDS
;	COMDAT pdata
pdata	SEGMENT
$pdata$?call@?$compute_vec4_mul@M$01$0A@@detail@glm@@SA?AU?$tvec4@M$01@3@AEBU43@0@Z DD imagerel $LN3
	DD	imagerel $LN3+143
	DD	imagerel $unwind$?call@?$compute_vec4_mul@M$01$0A@@detail@glm@@SA?AU?$tvec4@M$01@3@AEBU43@0@Z
pdata	ENDS
;	COMDAT pdata
pdata	SEGMENT
$pdata$?call@?$compute_vec4_add@M$01$0A@@detail@glm@@SA?AU?$tvec4@M$01@3@AEBU43@0@Z DD imagerel $LN3
	DD	imagerel $LN3+143
	DD	imagerel $unwind$?call@?$compute_vec4_add@M$01$0A@@detail@glm@@SA?AU?$tvec4@M$01@3@AEBU43@0@Z
pdata	ENDS
;	COMDAT pdata
pdata	SEGMENT
$pdata$?call@?$compute_vec4_sub@M$01$0A@@detail@glm@@SA?AU?$tvec4@M$01@3@AEBU43@0@Z DD imagerel $LN3
	DD	imagerel $LN3+143
	DD	imagerel $unwind$?call@?$compute_vec4_sub@M$01$0A@@detail@glm@@SA?AU?$tvec4@M$01@3@AEBU43@0@Z
pdata	ENDS
;	COMDAT pdata
pdata	SEGMENT
$pdata$??$_To_address@PEBU?$tmat4x4@M$0A@@glm@@@std@@YA?A_PAEBQEBU?$tmat4x4@M$0A@@glm@@@Z DD imagerel $LN3
	DD	imagerel $LN3+16
	DD	imagerel $unwind$??$_To_address@PEBU?$tmat4x4@M$0A@@glm@@@std@@YA?A_PAEBQEBU?$tmat4x4@M$0A@@glm@@@Z
pdata	ENDS
;	COMDAT pdata
pdata	SEGMENT
$pdata$??$_To_address@PEAU?$tmat4x4@M$0A@@glm@@@std@@YA?A_PAEBQEAU?$tmat4x4@M$0A@@glm@@@Z DD imagerel $LN3
	DD	imagerel $LN3+16
	DD	imagerel $unwind$??$_To_address@PEAU?$tmat4x4@M$0A@@glm@@@std@@YA?A_PAEBQEAU?$tmat4x4@M$0A@@glm@@@Z
pdata	ENDS
;	COMDAT pdata
pdata	SEGMENT
$pdata$??$forward@AEBU?$tmat4x4@M$0A@@glm@@@std@@YAAEBU?$tmat4x4@M$0A@@glm@@AEBU12@@Z DD imagerel $LN3
	DD	imagerel $LN3+13
	DD	imagerel $unwind$??$forward@AEBU?$tmat4x4@M$0A@@glm@@@std@@YAAEBU?$tmat4x4@M$0A@@glm@@AEBU12@@Z
pdata	ENDS
;	COMDAT pdata
pdata	SEGMENT
$pdata$??$construct@U?$tmat4x4@M$0A@@glm@@AEBU12@@?$_Default_allocator_traits@V?$allocator@U?$tmat4x4@M$0A@@glm@@@std@@@std@@SAXAEAV?$allocator@U?$tmat4x4@M$0A@@glm@@@1@QEAU?$tmat4x4@M$0A@@glm@@AEBU34@@Z DD imagerel $LN3
	DD	imagerel $LN3+81
	DD	imagerel $unwind$??$construct@U?$tmat4x4@M$0A@@glm@@AEBU12@@?$_Default_allocator_traits@V?$allocator@U?$tmat4x4@M$0A@@glm@@@std@@@std@@SAXAEAV?$allocator@U?$tmat4x4@M$0A@@glm@@@1@QEAU?$tmat4x4@M$0A@@glm@@AEBU34@@Z
pdata	ENDS
;	COMDAT pdata
pdata	SEGMENT
$pdata$?call@?$compute_vec4_sub@N$0A@$0A@@detail@glm@@SA?AU?$tvec4@N$0A@@3@AEBU43@0@Z DD imagerel $LN3
	DD	imagerel $LN3+143
	DD	imagerel $unwind$?call@?$compute_vec4_sub@N$0A@$0A@@detail@glm@@SA?AU?$tvec4@N$0A@@3@AEBU43@0@Z
pdata	ENDS
;	COMDAT pdata
pdata	SEGMENT
$pdata$??$_Voidify_iter@PEAU?$tmat4x4@M$0A@@glm@@@std@@YAPEAXPEAU?$tmat4x4@M$0A@@glm@@@Z DD imagerel $LN3
	DD	imagerel $LN3+13
	DD	imagerel $unwind$??$_Voidify_iter@PEAU?$tmat4x4@M$0A@@glm@@@std@@YAPEAXPEAU?$tmat4x4@M$0A@@glm@@@Z
pdata	ENDS
;	COMDAT __xmm@80000000800000008000000080000000
CONST	SEGMENT
__xmm@80000000800000008000000080000000 DB 00H, 00H, 00H, 080H, 00H, 00H, 00H
	DB	080H, 00H, 00H, 00H, 080H, 00H, 00H, 00H, 080H
CONST	ENDS
;	COMDAT __real@3ff0000000000000
CONST	SEGMENT
__real@3ff0000000000000 DQ 03ff0000000000000r	; 1
CONST	ENDS
;	COMDAT __real@3f800000
CONST	SEGMENT
__real@3f800000 DD 03f800000r			; 1
CONST	ENDS
;	COMDAT __real@3f333333
CONST	SEGMENT
__real@3f333333 DD 03f333333r			; 0.7
CONST	ENDS
;	COMDAT __real@3f19999a
CONST	SEGMENT
__real@3f19999a DD 03f19999ar			; 0.6
CONST	ENDS
;	COMDAT __real@3f000000
CONST	SEGMENT
__real@3f000000 DD 03f000000r			; 0.5
CONST	ENDS
;	COMDAT __real@3ecccccd
CONST	SEGMENT
__real@3ecccccd DD 03ecccccdr			; 0.4
CONST	ENDS
;	COMDAT __real@3e99999a
CONST	SEGMENT
__real@3e99999a DD 03e99999ar			; 0.3
CONST	ENDS
;	COMDAT __real@3e4ccccd
CONST	SEGMENT
__real@3e4ccccd DD 03e4ccccdr			; 0.2
CONST	ENDS
;	COMDAT __real@3c23d70a
CONST	SEGMENT
__real@3c23d70a DD 03c23d70ar			; 0.01
CONST	ENDS
;	COMDAT __real@00000000
CONST	SEGMENT
__real@00000000 DD 000000000r			; 0
CONST	ENDS
;	COMDAT rtc$TMZ
rtc$TMZ	SEGMENT
_RTC_Shutdown.rtc$TMZ DQ FLAT:_RTC_Shutdown
rtc$TMZ	ENDS
;	COMDAT rtc$IMZ
rtc$IMZ	SEGMENT
_RTC_InitBase.rtc$IMZ DQ FLAT:_RTC_InitBase
rtc$IMZ	ENDS
;	COMDAT ??_R1A@?0A@EA@bad_array_new_length@std@@8
rdata$r	SEGMENT
??_R1A@?0A@EA@bad_array_new_length@std@@8 DD imagerel ??_R0?AVbad_array_new_length@std@@@8 ; std::bad_array_new_length::`RTTI Base Class Descriptor at (0,-1,0,64)'
	DD	02H
	DD	00H
	DD	0ffffffffH
	DD	00H
	DD	040H
	DD	imagerel ??_R3bad_array_new_length@std@@8
rdata$r	ENDS
;	COMDAT ??_R2bad_array_new_length@std@@8
rdata$r	SEGMENT
??_R2bad_array_new_length@std@@8 DD imagerel ??_R1A@?0A@EA@bad_array_new_length@std@@8 ; std::bad_array_new_length::`RTTI Base Class Array'
	DD	imagerel ??_R1A@?0A@EA@bad_alloc@std@@8
	DD	imagerel ??_R1A@?0A@EA@exception@std@@8
	ORG $+3
rdata$r	ENDS
;	COMDAT ??_R3bad_array_new_length@std@@8
rdata$r	SEGMENT
??_R3bad_array_new_length@std@@8 DD 00H			; std::bad_array_new_length::`RTTI Class Hierarchy Descriptor'
	DD	00H
	DD	03H
	DD	imagerel ??_R2bad_array_new_length@std@@8
rdata$r	ENDS
;	COMDAT ??_R4bad_array_new_length@std@@6B@
rdata$r	SEGMENT
??_R4bad_array_new_length@std@@6B@ DD 01H		; std::bad_array_new_length::`RTTI Complete Object Locator'
	DD	00H
	DD	00H
	DD	imagerel ??_R0?AVbad_array_new_length@std@@@8
	DD	imagerel ??_R3bad_array_new_length@std@@8
	DD	imagerel ??_R4bad_array_new_length@std@@6B@
rdata$r	ENDS
;	COMDAT ??_R1A@?0A@EA@bad_alloc@std@@8
rdata$r	SEGMENT
??_R1A@?0A@EA@bad_alloc@std@@8 DD imagerel ??_R0?AVbad_alloc@std@@@8 ; std::bad_alloc::`RTTI Base Class Descriptor at (0,-1,0,64)'
	DD	01H
	DD	00H
	DD	0ffffffffH
	DD	00H
	DD	040H
	DD	imagerel ??_R3bad_alloc@std@@8
rdata$r	ENDS
;	COMDAT ??_R2bad_alloc@std@@8
rdata$r	SEGMENT
??_R2bad_alloc@std@@8 DD imagerel ??_R1A@?0A@EA@bad_alloc@std@@8 ; std::bad_alloc::`RTTI Base Class Array'
	DD	imagerel ??_R1A@?0A@EA@exception@std@@8
	ORG $+3
rdata$r	ENDS
;	COMDAT ??_R3bad_alloc@std@@8
rdata$r	SEGMENT
??_R3bad_alloc@std@@8 DD 00H				; std::bad_alloc::`RTTI Class Hierarchy Descriptor'
	DD	00H
	DD	02H
	DD	imagerel ??_R2bad_alloc@std@@8
rdata$r	ENDS
;	COMDAT ??_R4bad_alloc@std@@6B@
rdata$r	SEGMENT
??_R4bad_alloc@std@@6B@ DD 01H				; std::bad_alloc::`RTTI Complete Object Locator'
	DD	00H
	DD	00H
	DD	imagerel ??_R0?AVbad_alloc@std@@@8
	DD	imagerel ??_R3bad_alloc@std@@8
	DD	imagerel ??_R4bad_alloc@std@@6B@
rdata$r	ENDS
;	COMDAT ??_R1A@?0A@EA@exception@std@@8
rdata$r	SEGMENT
??_R1A@?0A@EA@exception@std@@8 DD imagerel ??_R0?AVexception@std@@@8 ; std::exception::`RTTI Base Class Descriptor at (0,-1,0,64)'
	DD	00H
	DD	00H
	DD	0ffffffffH
	DD	00H
	DD	040H
	DD	imagerel ??_R3exception@std@@8
rdata$r	ENDS
;	COMDAT ??_R2exception@std@@8
rdata$r	SEGMENT
??_R2exception@std@@8 DD imagerel ??_R1A@?0A@EA@exception@std@@8 ; std::exception::`RTTI Base Class Array'
	ORG $+3
rdata$r	ENDS
;	COMDAT ??_R3exception@std@@8
rdata$r	SEGMENT
??_R3exception@std@@8 DD 00H				; std::exception::`RTTI Class Hierarchy Descriptor'
	DD	00H
	DD	01H
	DD	imagerel ??_R2exception@std@@8
rdata$r	ENDS
;	COMDAT ??_R4exception@std@@6B@
rdata$r	SEGMENT
??_R4exception@std@@6B@ DD 01H				; std::exception::`RTTI Complete Object Locator'
	DD	00H
	DD	00H
	DD	imagerel ??_R0?AVexception@std@@@8
	DD	imagerel ??_R3exception@std@@8
	DD	imagerel ??_R4exception@std@@6B@
rdata$r	ENDS
;	COMDAT ??_C@_1LK@GEGFBJDO@?$AAC?$AA?3?$AA?2?$AAU?$AAs?$AAe?$AAr?$AAs?$AA?2?$AAk?$AAs?$AAa?$AAr?$AAt?$AA?2@
CONST	SEGMENT
??_C@_1LK@GEGFBJDO@?$AAC?$AA?3?$AA?2?$AAU?$AAs?$AAe?$AAr?$AAs?$AA?2?$AAk?$AAs?$AAa?$AAr?$AAt?$AA?2@ DB 'C'
	DB	00H, ':', 00H, '\', 00H, 'U', 00H, 's', 00H, 'e', 00H, 'r', 00H
	DB	's', 00H, '\', 00H, 'k', 00H, 's', 00H, 'a', 00H, 'r', 00H, 't'
	DB	00H, '\', 00H, 'O', 00H, 'n', 00H, 'e', 00H, 'D', 00H, 'r', 00H
	DB	'i', 00H, 'v', 00H, 'e', 00H, '\', 00H, 'D', 00H, 'e', 00H, 's'
	DB	00H, 'k', 00H, 't', 00H, 'o', 00H, 'p', 00H, '\', 00H, 'F', 00H
	DB	'l', 00H, 'a', 00H, 'p', 00H, 'p', 00H, 'y', 00H, 'B', 00H, 'i'
	DB	00H, 'r', 00H, 'd', 00H, '\', 00H, 'l', 00H, 'i', 00H, 'b', 00H
	DB	'r', 00H, 'a', 00H, 'r', 00H, 'i', 00H, 'e', 00H, 's', 00H, '\'
	DB	00H, 'e', 00H, 'x', 00H, 't', 00H, 'e', 00H, 'r', 00H, 'n', 00H
	DB	'a', 00H, 'l', 00H, '\', 00H, 'g', 00H, 'l', 00H, 'm', 00H, '\'
	DB	00H, 'g', 00H, 'l', 00H, 'm', 00H, '\', 00H, 'd', 00H, 'e', 00H
	DB	't', 00H, 'a', 00H, 'i', 00H, 'l', 00H, '\', 00H, 't', 00H, 'y'
	DB	00H, 'p', 00H, 'e', 00H, '_', 00H, 'm', 00H, 'a', 00H, 't', 00H
	DB	'4', 00H, 'x', 00H, '3', 00H, '.', 00H, 'i', 00H, 'n', 00H, 'l'
	DB	00H, 00H, 00H				; `string'
CONST	ENDS
;	COMDAT ??_C@_1LK@PPMAFFFB@?$AAC?$AA?3?$AA?2?$AAU?$AAs?$AAe?$AAr?$AAs?$AA?2?$AAk?$AAs?$AAa?$AAr?$AAt?$AA?2@
CONST	SEGMENT
??_C@_1LK@PPMAFFFB@?$AAC?$AA?3?$AA?2?$AAU?$AAs?$AAe?$AAr?$AAs?$AA?2?$AAk?$AAs?$AAa?$AAr?$AAt?$AA?2@ DB 'C'
	DB	00H, ':', 00H, '\', 00H, 'U', 00H, 's', 00H, 'e', 00H, 'r', 00H
	DB	's', 00H, '\', 00H, 'k', 00H, 's', 00H, 'a', 00H, 'r', 00H, 't'
	DB	00H, '\', 00H, 'O', 00H, 'n', 00H, 'e', 00H, 'D', 00H, 'r', 00H
	DB	'i', 00H, 'v', 00H, 'e', 00H, '\', 00H, 'D', 00H, 'e', 00H, 's'
	DB	00H, 'k', 00H, 't', 00H, 'o', 00H, 'p', 00H, '\', 00H, 'F', 00H
	DB	'l', 00H, 'a', 00H, 'p', 00H, 'p', 00H, 'y', 00H, 'B', 00H, 'i'
	DB	00H, 'r', 00H, 'd', 00H, '\', 00H, 'l', 00H, 'i', 00H, 'b', 00H
	DB	'r', 00H, 'a', 00H, 'r', 00H, 'i', 00H, 'e', 00H, 's', 00H, '\'
	DB	00H, 'e', 00H, 'x', 00H, 't', 00H, 'e', 00H, 'r', 00H, 'n', 00H
	DB	'a', 00H, 'l', 00H, '\', 00H, 'g', 00H, 'l', 00H, 'm', 00H, '\'
	DB	00H, 'g', 00H, 'l', 00H, 'm', 00H, '\', 00H, 'd', 00H, 'e', 00H
	DB	't', 00H, 'a', 00H, 'i', 00H, 'l', 00H, '\', 00H, 't', 00H, 'y'
	DB	00H, 'p', 00H, 'e', 00H, '_', 00H, 'm', 00H, 'a', 00H, 't', 00H
	DB	'4', 00H, 'x', 00H, '2', 00H, '.', 00H, 'i', 00H, 'n', 00H, 'l'
	DB	00H, 00H, 00H				; `string'
CONST	ENDS
;	COMDAT ??_C@_1LK@ONAEAIME@?$AAC?$AA?3?$AA?2?$AAU?$AAs?$AAe?$AAr?$AAs?$AA?2?$AAk?$AAs?$AAa?$AAr?$AAt?$AA?2@
CONST	SEGMENT
??_C@_1LK@ONAEAIME@?$AAC?$AA?3?$AA?2?$AAU?$AAs?$AAe?$AAr?$AAs?$AA?2?$AAk?$AAs?$AAa?$AAr?$AAt?$AA?2@ DB 'C'
	DB	00H, ':', 00H, '\', 00H, 'U', 00H, 's', 00H, 'e', 00H, 'r', 00H
	DB	's', 00H, '\', 00H, 'k', 00H, 's', 00H, 'a', 00H, 'r', 00H, 't'
	DB	00H, '\', 00H, 'O', 00H, 'n', 00H, 'e', 00H, 'D', 00H, 'r', 00H
	DB	'i', 00H, 'v', 00H, 'e', 00H, '\', 00H, 'D', 00H, 'e', 00H, 's'
	DB	00H, 'k', 00H, 't', 00H, 'o', 00H, 'p', 00H, '\', 00H, 'F', 00H
	DB	'l', 00H, 'a', 00H, 'p', 00H, 'p', 00H, 'y', 00H, 'B', 00H, 'i'
	DB	00H, 'r', 00H, 'd', 00H, '\', 00H, 'l', 00H, 'i', 00H, 'b', 00H
	DB	'r', 00H, 'a', 00H, 'r', 00H, 'i', 00H, 'e', 00H, 's', 00H, '\'
	DB	00H, 'e', 00H, 'x', 00H, 't', 00H, 'e', 00H, 'r', 00H, 'n', 00H
	DB	'a', 00H, 'l', 00H, '\', 00H, 'g', 00H, 'l', 00H, 'm', 00H, '\'
	DB	00H, 'g', 00H, 'l', 00H, 'm', 00H, '\', 00H, 'd', 00H, 'e', 00H
	DB	't', 00H, 'a', 00H, 'i', 00H, 'l', 00H, '\', 00H, 't', 00H, 'y'
	DB	00H, 'p', 00H, 'e', 00H, '_', 00H, 'm', 00H, 'a', 00H, 't', 00H
	DB	'3', 00H, 'x', 00H, '4', 00H, '.', 00H, 'i', 00H, 'n', 00H, 'l'
	DB	00H, 00H, 00H				; `string'
CONST	ENDS
;	COMDAT ??_C@_1LK@JJJMOBEL@?$AAC?$AA?3?$AA?2?$AAU?$AAs?$AAe?$AAr?$AAs?$AA?2?$AAk?$AAs?$AAa?$AAr?$AAt?$AA?2@
CONST	SEGMENT
??_C@_1LK@JJJMOBEL@?$AAC?$AA?3?$AA?2?$AAU?$AAs?$AAe?$AAr?$AAs?$AA?2?$AAk?$AAs?$AAa?$AAr?$AAt?$AA?2@ DB 'C'
	DB	00H, ':', 00H, '\', 00H, 'U', 00H, 's', 00H, 'e', 00H, 'r', 00H
	DB	's', 00H, '\', 00H, 'k', 00H, 's', 00H, 'a', 00H, 'r', 00H, 't'
	DB	00H, '\', 00H, 'O', 00H, 'n', 00H, 'e', 00H, 'D', 00H, 'r', 00H
	DB	'i', 00H, 'v', 00H, 'e', 00H, '\', 00H, 'D', 00H, 'e', 00H, 's'
	DB	00H, 'k', 00H, 't', 00H, 'o', 00H, 'p', 00H, '\', 00H, 'F', 00H
	DB	'l', 00H, 'a', 00H, 'p', 00H, 'p', 00H, 'y', 00H, 'B', 00H, 'i'
	DB	00H, 'r', 00H, 'd', 00H, '\', 00H, 'l', 00H, 'i', 00H, 'b', 00H
	DB	'r', 00H, 'a', 00H, 'r', 00H, 'i', 00H, 'e', 00H, 's', 00H, '\'
	DB	00H, 'e', 00H, 'x', 00H, 't', 00H, 'e', 00H, 'r', 00H, 'n', 00H
	DB	'a', 00H, 'l', 00H, '\', 00H, 'g', 00H, 'l', 00H, 'm', 00H, '\'
	DB	00H, 'g', 00H, 'l', 00H, 'm', 00H, '\', 00H, 'd', 00H, 'e', 00H
	DB	't', 00H, 'a', 00H, 'i', 00H, 'l', 00H, '\', 00H, 't', 00H, 'y'
	DB	00H, 'p', 00H, 'e', 00H, '_', 00H, 'm', 00H, 'a', 00H, 't', 00H
	DB	'3', 00H, 'x', 00H, '3', 00H, '.', 00H, 'i', 00H, 'n', 00H, 'l'
	DB	00H, 00H, 00H				; `string'
CONST	ENDS
;	COMDAT ??_C@_1LK@CDJKNCE@?$AAC?$AA?3?$AA?2?$AAU?$AAs?$AAe?$AAr?$AAs?$AA?2?$AAk?$AAs?$AAa?$AAr?$AAt?$AA?2@
CONST	SEGMENT
??_C@_1LK@CDJKNCE@?$AAC?$AA?3?$AA?2?$AAU?$AAs?$AAe?$AAr?$AAs?$AA?2?$AAk?$AAs?$AAa?$AAr?$AAt?$AA?2@ DB 'C'
	DB	00H, ':', 00H, '\', 00H, 'U', 00H, 's', 00H, 'e', 00H, 'r', 00H
	DB	's', 00H, '\', 00H, 'k', 00H, 's', 00H, 'a', 00H, 'r', 00H, 't'
	DB	00H, '\', 00H, 'O', 00H, 'n', 00H, 'e', 00H, 'D', 00H, 'r', 00H
	DB	'i', 00H, 'v', 00H, 'e', 00H, '\', 00H, 'D', 00H, 'e', 00H, 's'
	DB	00H, 'k', 00H, 't', 00H, 'o', 00H, 'p', 00H, '\', 00H, 'F', 00H
	DB	'l', 00H, 'a', 00H, 'p', 00H, 'p', 00H, 'y', 00H, 'B', 00H, 'i'
	DB	00H, 'r', 00H, 'd', 00H, '\', 00H, 'l', 00H, 'i', 00H, 'b', 00H
	DB	'r', 00H, 'a', 00H, 'r', 00H, 'i', 00H, 'e', 00H, 's', 00H, '\'
	DB	00H, 'e', 00H, 'x', 00H, 't', 00H, 'e', 00H, 'r', 00H, 'n', 00H
	DB	'a', 00H, 'l', 00H, '\', 00H, 'g', 00H, 'l', 00H, 'm', 00H, '\'
	DB	00H, 'g', 00H, 'l', 00H, 'm', 00H, '\', 00H, 'd', 00H, 'e', 00H
	DB	't', 00H, 'a', 00H, 'i', 00H, 'l', 00H, '\', 00H, 't', 00H, 'y'
	DB	00H, 'p', 00H, 'e', 00H, '_', 00H, 'm', 00H, 'a', 00H, 't', 00H
	DB	'3', 00H, 'x', 00H, '2', 00H, '.', 00H, 'i', 00H, 'n', 00H, 'l'
	DB	00H, 00H, 00H				; `string'
CONST	ENDS
;	COMDAT ??_C@_1LK@EDGMJJFF@?$AAC?$AA?3?$AA?2?$AAU?$AAs?$AAe?$AAr?$AAs?$AA?2?$AAk?$AAs?$AAa?$AAr?$AAt?$AA?2@
CONST	SEGMENT
??_C@_1LK@EDGMJJFF@?$AAC?$AA?3?$AA?2?$AAU?$AAs?$AAe?$AAr?$AAs?$AA?2?$AAk?$AAs?$AAa?$AAr?$AAt?$AA?2@ DB 'C'
	DB	00H, ':', 00H, '\', 00H, 'U', 00H, 's', 00H, 'e', 00H, 'r', 00H
	DB	's', 00H, '\', 00H, 'k', 00H, 's', 00H, 'a', 00H, 'r', 00H, 't'
	DB	00H, '\', 00H, 'O', 00H, 'n', 00H, 'e', 00H, 'D', 00H, 'r', 00H
	DB	'i', 00H, 'v', 00H, 'e', 00H, '\', 00H, 'D', 00H, 'e', 00H, 's'
	DB	00H, 'k', 00H, 't', 00H, 'o', 00H, 'p', 00H, '\', 00H, 'F', 00H
	DB	'l', 00H, 'a', 00H, 'p', 00H, 'p', 00H, 'y', 00H, 'B', 00H, 'i'
	DB	00H, 'r', 00H, 'd', 00H, '\', 00H, 'l', 00H, 'i', 00H, 'b', 00H
	DB	'r', 00H, 'a', 00H, 'r', 00H, 'i', 00H, 'e', 00H, 's', 00H, '\'
	DB	00H, 'e', 00H, 'x', 00H, 't', 00H, 'e', 00H, 'r', 00H, 'n', 00H
	DB	'a', 00H, 'l', 00H, '\', 00H, 'g', 00H, 'l', 00H, 'm', 00H, '\'
	DB	00H, 'g', 00H, 'l', 00H, 'm', 00H, '\', 00H, 'd', 00H, 'e', 00H
	DB	't', 00H, 'a', 00H, 'i', 00H, 'l', 00H, '\', 00H, 't', 00H, 'y'
	DB	00H, 'p', 00H, 'e', 00H, '_', 00H, 'm', 00H, 'a', 00H, 't', 00H
	DB	'2', 00H, 'x', 00H, '4', 00H, '.', 00H, 'i', 00H, 'n', 00H, 'l'
	DB	00H, 00H, 00H				; `string'
CONST	ENDS
;	COMDAT ??_C@_1LK@DHPEHANK@?$AAC?$AA?3?$AA?2?$AAU?$AAs?$AAe?$AAr?$AAs?$AA?2?$AAk?$AAs?$AAa?$AAr?$AAt?$AA?2@
CONST	SEGMENT
??_C@_1LK@DHPEHANK@?$AAC?$AA?3?$AA?2?$AAU?$AAs?$AAe?$AAr?$AAs?$AA?2?$AAk?$AAs?$AAa?$AAr?$AAt?$AA?2@ DB 'C'
	DB	00H, ':', 00H, '\', 00H, 'U', 00H, 's', 00H, 'e', 00H, 'r', 00H
	DB	's', 00H, '\', 00H, 'k', 00H, 's', 00H, 'a', 00H, 'r', 00H, 't'
	DB	00H, '\', 00H, 'O', 00H, 'n', 00H, 'e', 00H, 'D', 00H, 'r', 00H
	DB	'i', 00H, 'v', 00H, 'e', 00H, '\', 00H, 'D', 00H, 'e', 00H, 's'
	DB	00H, 'k', 00H, 't', 00H, 'o', 00H, 'p', 00H, '\', 00H, 'F', 00H
	DB	'l', 00H, 'a', 00H, 'p', 00H, 'p', 00H, 'y', 00H, 'B', 00H, 'i'
	DB	00H, 'r', 00H, 'd', 00H, '\', 00H, 'l', 00H, 'i', 00H, 'b', 00H
	DB	'r', 00H, 'a', 00H, 'r', 00H, 'i', 00H, 'e', 00H, 's', 00H, '\'
	DB	00H, 'e', 00H, 'x', 00H, 't', 00H, 'e', 00H, 'r', 00H, 'n', 00H
	DB	'a', 00H, 'l', 00H, '\', 00H, 'g', 00H, 'l', 00H, 'm', 00H, '\'
	DB	00H, 'g', 00H, 'l', 00H, 'm', 00H, '\', 00H, 'd', 00H, 'e', 00H
	DB	't', 00H, 'a', 00H, 'i', 00H, 'l', 00H, '\', 00H, 't', 00H, 'y'
	DB	00H, 'p', 00H, 'e', 00H, '_', 00H, 'm', 00H, 'a', 00H, 't', 00H
	DB	'2', 00H, 'x', 00H, '3', 00H, '.', 00H, 'i', 00H, 'n', 00H, 'l'
	DB	00H, 00H, 00H				; `string'
CONST	ENDS
;	COMDAT ??_C@_1LK@KMFBDMLF@?$AAC?$AA?3?$AA?2?$AAU?$AAs?$AAe?$AAr?$AAs?$AA?2?$AAk?$AAs?$AAa?$AAr?$AAt?$AA?2@
CONST	SEGMENT
??_C@_1LK@KMFBDMLF@?$AAC?$AA?3?$AA?2?$AAU?$AAs?$AAe?$AAr?$AAs?$AA?2?$AAk?$AAs?$AAa?$AAr?$AAt?$AA?2@ DB 'C'
	DB	00H, ':', 00H, '\', 00H, 'U', 00H, 's', 00H, 'e', 00H, 'r', 00H
	DB	's', 00H, '\', 00H, 'k', 00H, 's', 00H, 'a', 00H, 'r', 00H, 't'
	DB	00H, '\', 00H, 'O', 00H, 'n', 00H, 'e', 00H, 'D', 00H, 'r', 00H
	DB	'i', 00H, 'v', 00H, 'e', 00H, '\', 00H, 'D', 00H, 'e', 00H, 's'
	DB	00H, 'k', 00H, 't', 00H, 'o', 00H, 'p', 00H, '\', 00H, 'F', 00H
	DB	'l', 00H, 'a', 00H, 'p', 00H, 'p', 00H, 'y', 00H, 'B', 00H, 'i'
	DB	00H, 'r', 00H, 'd', 00H, '\', 00H, 'l', 00H, 'i', 00H, 'b', 00H
	DB	'r', 00H, 'a', 00H, 'r', 00H, 'i', 00H, 'e', 00H, 's', 00H, '\'
	DB	00H, 'e', 00H, 'x', 00H, 't', 00H, 'e', 00H, 'r', 00H, 'n', 00H
	DB	'a', 00H, 'l', 00H, '\', 00H, 'g', 00H, 'l', 00H, 'm', 00H, '\'
	DB	00H, 'g', 00H, 'l', 00H, 'm', 00H, '\', 00H, 'd', 00H, 'e', 00H
	DB	't', 00H, 'a', 00H, 'i', 00H, 'l', 00H, '\', 00H, 't', 00H, 'y'
	DB	00H, 'p', 00H, 'e', 00H, '_', 00H, 'm', 00H, 'a', 00H, 't', 00H
	DB	'2', 00H, 'x', 00H, '2', 00H, '.', 00H, 'i', 00H, 'n', 00H, 'l'
	DB	00H, 00H, 00H				; `string'
CONST	ENDS
;	COMDAT ??_C@_1DK@BGNCJAPL@?$AAi?$AA?5?$AA?$DO?$AA?$DN?$AA?5?$AA0?$AA?5?$AA?$CG?$AA?$CG?$AA?5?$AAi?$AA?5?$AA?$DM?$AA?5?$AAt@
CONST	SEGMENT
??_C@_1DK@BGNCJAPL@?$AAi?$AA?5?$AA?$DO?$AA?$DN?$AA?5?$AA0?$AA?5?$AA?$CG?$AA?$CG?$AA?5?$AAi?$AA?5?$AA?$DM?$AA?5?$AAt@ DB 'i'
	DB	00H, ' ', 00H, '>', 00H, '=', 00H, ' ', 00H, '0', 00H, ' ', 00H
	DB	'&', 00H, '&', 00H, ' ', 00H, 'i', 00H, ' ', 00H, '<', 00H, ' '
	DB	00H, 't', 00H, 'h', 00H, 'i', 00H, 's', 00H, '-', 00H, '>', 00H
	DB	'l', 00H, 'e', 00H, 'n', 00H, 'g', 00H, 't', 00H, 'h', 00H, '('
	DB	00H, ')', 00H, 00H, 00H			; `string'
CONST	ENDS
;	COMDAT ??_C@_1LG@LAANPDHN@?$AAC?$AA?3?$AA?2?$AAU?$AAs?$AAe?$AAr?$AAs?$AA?2?$AAk?$AAs?$AAa?$AAr?$AAt?$AA?2@
CONST	SEGMENT
??_C@_1LG@LAANPDHN@?$AAC?$AA?3?$AA?2?$AAU?$AAs?$AAe?$AAr?$AAs?$AA?2?$AAk?$AAs?$AAa?$AAr?$AAt?$AA?2@ DB 'C'
	DB	00H, ':', 00H, '\', 00H, 'U', 00H, 's', 00H, 'e', 00H, 'r', 00H
	DB	's', 00H, '\', 00H, 'k', 00H, 's', 00H, 'a', 00H, 'r', 00H, 't'
	DB	00H, '\', 00H, 'O', 00H, 'n', 00H, 'e', 00H, 'D', 00H, 'r', 00H
	DB	'i', 00H, 'v', 00H, 'e', 00H, '\', 00H, 'D', 00H, 'e', 00H, 's'
	DB	00H, 'k', 00H, 't', 00H, 'o', 00H, 'p', 00H, '\', 00H, 'F', 00H
	DB	'l', 00H, 'a', 00H, 'p', 00H, 'p', 00H, 'y', 00H, 'B', 00H, 'i'
	DB	00H, 'r', 00H, 'd', 00H, '\', 00H, 'l', 00H, 'i', 00H, 'b', 00H
	DB	'r', 00H, 'a', 00H, 'r', 00H, 'i', 00H, 'e', 00H, 's', 00H, '\'
	DB	00H, 'e', 00H, 'x', 00H, 't', 00H, 'e', 00H, 'r', 00H, 'n', 00H
	DB	'a', 00H, 'l', 00H, '\', 00H, 'g', 00H, 'l', 00H, 'm', 00H, '\'
	DB	00H, 'g', 00H, 'l', 00H, 'm', 00H, '\', 00H, 'd', 00H, 'e', 00H
	DB	't', 00H, 'a', 00H, 'i', 00H, 'l', 00H, '\', 00H, 't', 00H, 'y'
	DB	00H, 'p', 00H, 'e', 00H, '_', 00H, 'v', 00H, 'e', 00H, 'c', 00H
	DB	'4', 00H, '.', 00H, 'i', 00H, 'n', 00H, 'l', 00H, 00H, 00H ; `string'
CONST	ENDS
;	COMDAT ??_C@_0BA@FOIKENOD@vector?5too?5long@
CONST	SEGMENT
??_C@_0BA@FOIKENOD@vector?5too?5long@ DB 'vector too long', 00H ; `string'
CONST	ENDS
;	COMDAT ??_C@_1DC@HHLCGOLC@?$AAx?$AA?4?$AAl?$AAe?$AAn?$AAg?$AAt?$AAh?$AA?$CI?$AA?$CJ?$AA?5?$AA?$DN?$AA?$DN?$AA?5?$AAy@
CONST	SEGMENT
??_C@_1DC@HHLCGOLC@?$AAx?$AA?4?$AAl?$AAe?$AAn?$AAg?$AAt?$AAh?$AA?$CI?$AA?$CJ?$AA?5?$AA?$DN?$AA?$DN?$AA?5?$AAy@ DB 'x'
	DB	00H, '.', 00H, 'l', 00H, 'e', 00H, 'n', 00H, 'g', 00H, 't', 00H
	DB	'h', 00H, '(', 00H, ')', 00H, ' ', 00H, '=', 00H, '=', 00H, ' '
	DB	00H, 'y', 00H, '.', 00H, 'l', 00H, 'e', 00H, 'n', 00H, 'g', 00H
	DB	't', 00H, 'h', 00H, '(', 00H, ')', 00H, 00H, 00H ; `string'
CONST	ENDS
;	COMDAT ??_C@_1NA@OPABFNEN@?$AAC?$AA?3?$AA?2?$AAU?$AAs?$AAe?$AAr?$AAs?$AA?2?$AAk?$AAs?$AAa?$AAr?$AAt?$AA?2@
CONST	SEGMENT
??_C@_1NA@OPABFNEN@?$AAC?$AA?3?$AA?2?$AAU?$AAs?$AAe?$AAr?$AAs?$AA?2?$AAk?$AAs?$AAa?$AAr?$AAt?$AA?2@ DB 'C'
	DB	00H, ':', 00H, '\', 00H, 'U', 00H, 's', 00H, 'e', 00H, 'r', 00H
	DB	's', 00H, '\', 00H, 'k', 00H, 's', 00H, 'a', 00H, 'r', 00H, 't'
	DB	00H, '\', 00H, 'O', 00H, 'n', 00H, 'e', 00H, 'D', 00H, 'r', 00H
	DB	'i', 00H, 'v', 00H, 'e', 00H, '\', 00H, 'D', 00H, 'e', 00H, 's'
	DB	00H, 'k', 00H, 't', 00H, 'o', 00H, 'p', 00H, '\', 00H, 'F', 00H
	DB	'l', 00H, 'a', 00H, 'p', 00H, 'p', 00H, 'y', 00H, 'B', 00H, 'i'
	DB	00H, 'r', 00H, 'd', 00H, '\', 00H, 'l', 00H, 'i', 00H, 'b', 00H
	DB	'r', 00H, 'a', 00H, 'r', 00H, 'i', 00H, 'e', 00H, 's', 00H, '\'
	DB	00H, 'e', 00H, 'x', 00H, 't', 00H, 'e', 00H, 'r', 00H, 'n', 00H
	DB	'a', 00H, 'l', 00H, '\', 00H, 'g', 00H, 'l', 00H, 'm', 00H, '\'
	DB	00H, 'g', 00H, 'l', 00H, 'm', 00H, '\', 00H, 'd', 00H, 'e', 00H
	DB	't', 00H, 'a', 00H, 'i', 00H, 'l', 00H, '\', 00H, 'f', 00H, 'u'
	DB	00H, 'n', 00H, 'c', 00H, '_', 00H, 'v', 00H, 'e', 00H, 'c', 00H
	DB	't', 00H, 'o', 00H, 'r', 00H, '_', 00H, 'r', 00H, 'e', 00H, 'l'
	DB	00H, 'a', 00H, 't', 00H, 'i', 00H, 'o', 00H, 'n', 00H, 'a', 00H
	DB	'l', 00H, '.', 00H, 'i', 00H, 'n', 00H, 'l', 00H, 00H, 00H ; `string'
CONST	ENDS
;	COMDAT ??_C@_1CG@KOFHLCJL@?$AAi?$AA?5?$AA?$DM?$AA?5?$AAt?$AAh?$AAi?$AAs?$AA?9?$AA?$DO?$AAl?$AAe?$AAn?$AAg?$AAt@
CONST	SEGMENT
??_C@_1CG@KOFHLCJL@?$AAi?$AA?5?$AA?$DM?$AA?5?$AAt?$AAh?$AAi?$AAs?$AA?9?$AA?$DO?$AAl?$AAe?$AAn?$AAg?$AAt@ DB 'i'
	DB	00H, ' ', 00H, '<', 00H, ' ', 00H, 't', 00H, 'h', 00H, 'i', 00H
	DB	's', 00H, '-', 00H, '>', 00H, 'l', 00H, 'e', 00H, 'n', 00H, 'g'
	DB	00H, 't', 00H, 'h', 00H, '(', 00H, ')', 00H, 00H, 00H ; `string'
CONST	ENDS
;	COMDAT ??_C@_1LK@BAPNPALB@?$AAC?$AA?3?$AA?2?$AAU?$AAs?$AAe?$AAr?$AAs?$AA?2?$AAk?$AAs?$AAa?$AAr?$AAt?$AA?2@
CONST	SEGMENT
??_C@_1LK@BAPNPALB@?$AAC?$AA?3?$AA?2?$AAU?$AAs?$AAe?$AAr?$AAs?$AA?2?$AAk?$AAs?$AAa?$AAr?$AAt?$AA?2@ DB 'C'
	DB	00H, ':', 00H, '\', 00H, 'U', 00H, 's', 00H, 'e', 00H, 'r', 00H
	DB	's', 00H, '\', 00H, 'k', 00H, 's', 00H, 'a', 00H, 'r', 00H, 't'
	DB	00H, '\', 00H, 'O', 00H, 'n', 00H, 'e', 00H, 'D', 00H, 'r', 00H
	DB	'i', 00H, 'v', 00H, 'e', 00H, '\', 00H, 'D', 00H, 'e', 00H, 's'
	DB	00H, 'k', 00H, 't', 00H, 'o', 00H, 'p', 00H, '\', 00H, 'F', 00H
	DB	'l', 00H, 'a', 00H, 'p', 00H, 'p', 00H, 'y', 00H, 'B', 00H, 'i'
	DB	00H, 'r', 00H, 'd', 00H, '\', 00H, 'l', 00H, 'i', 00H, 'b', 00H
	DB	'r', 00H, 'a', 00H, 'r', 00H, 'i', 00H, 'e', 00H, 's', 00H, '\'
	DB	00H, 'e', 00H, 'x', 00H, 't', 00H, 'e', 00H, 'r', 00H, 'n', 00H
	DB	'a', 00H, 'l', 00H, '\', 00H, 'g', 00H, 'l', 00H, 'm', 00H, '\'
	DB	00H, 'g', 00H, 'l', 00H, 'm', 00H, '\', 00H, 'd', 00H, 'e', 00H
	DB	't', 00H, 'a', 00H, 'i', 00H, 'l', 00H, '\', 00H, 't', 00H, 'y'
	DB	00H, 'p', 00H, 'e', 00H, '_', 00H, 'm', 00H, 'a', 00H, 't', 00H
	DB	'4', 00H, 'x', 00H, '4', 00H, '.', 00H, 'i', 00H, 'n', 00H, 'l'
	DB	00H, 00H, 00H				; `string'
CONST	ENDS
;	COMDAT ??_C@_1HA@FACCKGGH@?$AA?$CC?$AAn?$AAu?$AAl?$AAl?$AA?5?$AAp?$AAo?$AAi?$AAn?$AAt?$AAe?$AAr?$AA?5?$AAc@
CONST	SEGMENT
??_C@_1HA@FACCKGGH@?$AA?$CC?$AAn?$AAu?$AAl?$AAl?$AA?5?$AAp?$AAo?$AAi?$AAn?$AAt?$AAe?$AAr?$AA?5?$AAc@ DB '"'
	DB	00H, 'n', 00H, 'u', 00H, 'l', 00H, 'l', 00H, ' ', 00H, 'p', 00H
	DB	'o', 00H, 'i', 00H, 'n', 00H, 't', 00H, 'e', 00H, 'r', 00H, ' '
	DB	00H, 'c', 00H, 'a', 00H, 'n', 00H, 'n', 00H, 'o', 00H, 't', 00H
	DB	' ', 00H, 'p', 00H, 'o', 00H, 'i', 00H, 'n', 00H, 't', 00H, ' '
	DB	00H, 't', 00H, 'o', 00H, ' ', 00H, 'a', 00H, ' ', 00H, 'b', 00H
	DB	'l', 00H, 'o', 00H, 'c', 00H, 'k', 00H, ' ', 00H, 'o', 00H, 'f'
	DB	00H, ' ', 00H, 'n', 00H, 'o', 00H, 'n', 00H, '-', 00H, 'z', 00H
	DB	'e', 00H, 'r', 00H, 'o', 00H, ' ', 00H, 's', 00H, 'i', 00H, 'z'
	DB	00H, 'e', 00H, '"', 00H, 00H, 00H		; `string'
CONST	ENDS
;	COMDAT ??_C@_0DG@KGHKKGBC@null?5pointer?5cannot?5point?5to?5a?5@
CONST	SEGMENT
??_C@_0DG@KGHKKGBC@null?5pointer?5cannot?5point?5to?5a?5@ DB 'null pointe'
	DB	'r cannot point to a block of non-zero size', 00H ; `string'
CONST	ENDS
;	COMDAT ??_C@_1CG@JNLFBNGN@?$AA?$CC?$AAi?$AAn?$AAv?$AAa?$AAl?$AAi?$AAd?$AA?5?$AAa?$AAr?$AAg?$AAu?$AAm?$AAe@
CONST	SEGMENT
??_C@_1CG@JNLFBNGN@?$AA?$CC?$AAi?$AAn?$AAv?$AAa?$AAl?$AAi?$AAd?$AA?5?$AAa?$AAr?$AAg?$AAu?$AAm?$AAe@ DB '"'
	DB	00H, 'i', 00H, 'n', 00H, 'v', 00H, 'a', 00H, 'l', 00H, 'i', 00H
	DB	'd', 00H, ' ', 00H, 'a', 00H, 'r', 00H, 'g', 00H, 'u', 00H, 'm'
	DB	00H, 'e', 00H, 'n', 00H, 't', 00H, '"', 00H, 00H, 00H ; `string'
CONST	ENDS
;	COMDAT ??_C@_11LOCGONAA@@
CONST	SEGMENT
??_C@_11LOCGONAA@@ DB 00H, 00H				; `string'
CONST	ENDS
;	COMDAT ??_C@_1ME@GEFGDEOM@?$AAC?$AA?3?$AA?2?$AAP?$AAr?$AAo?$AAg?$AAr?$AAa?$AAm?$AA?5?$AAF?$AAi?$AAl?$AAe@
CONST	SEGMENT
??_C@_1ME@GEFGDEOM@?$AAC?$AA?3?$AA?2?$AAP?$AAr?$AAo?$AAg?$AAr?$AAa?$AAm?$AA?5?$AAF?$AAi?$AAl?$AAe@ DB 'C'
	DB	00H, ':', 00H, '\', 00H, 'P', 00H, 'r', 00H, 'o', 00H, 'g', 00H
	DB	'r', 00H, 'a', 00H, 'm', 00H, ' ', 00H, 'F', 00H, 'i', 00H, 'l'
	DB	00H, 'e', 00H, 's', 00H, '\', 00H, 'M', 00H, 'i', 00H, 'c', 00H
	DB	'r', 00H, 'o', 00H, 's', 00H, 'o', 00H, 'f', 00H, 't', 00H, ' '
	DB	00H, 'V', 00H, 'i', 00H, 's', 00H, 'u', 00H, 'a', 00H, 'l', 00H
	DB	' ', 00H, 'S', 00H, 't', 00H, 'u', 00H, 'd', 00H, 'i', 00H, 'o'
	DB	00H, '\', 00H, '2', 00H, '0', 00H, '2', 00H, '2', 00H, '\', 00H
	DB	'C', 00H, 'o', 00H, 'm', 00H, 'm', 00H, 'u', 00H, 'n', 00H, 'i'
	DB	00H, 't', 00H, 'y', 00H, '\', 00H, 'V', 00H, 'C', 00H, '\', 00H
	DB	'T', 00H, 'o', 00H, 'o', 00H, 'l', 00H, 's', 00H, '\', 00H, 'M'
	DB	00H, 'S', 00H, 'V', 00H, 'C', 00H, '\', 00H, '1', 00H, '4', 00H
	DB	'.', 00H, '3', 00H, '2', 00H, '.', 00H, '3', 00H, '1', 00H, '3'
	DB	00H, '2', 00H, '6', 00H, '\', 00H, 'i', 00H, 'n', 00H, 'c', 00H
	DB	'l', 00H, 'u', 00H, 'd', 00H, 'e', 00H, '\', 00H, 'x', 00H, 'm'
	DB	00H, 'e', 00H, 'm', 00H, 'o', 00H, 'r', 00H, 'y', 00H, 00H, 00H ; `string'
CONST	ENDS
;	COMDAT ??_C@_0GC@DJFHHHKN@C?3?2Program?5Files?2Microsoft?5Visu@
CONST	SEGMENT
??_C@_0GC@DJFHHHKN@C?3?2Program?5Files?2Microsoft?5Visu@ DB 'C:\Program F'
	DB	'iles\Microsoft Visual Studio\2022\Community\VC\Tools\MSVC\14.'
	DB	'32.31326\include\xmemory', 00H		; `string'
CONST	ENDS
;	COMDAT ??_C@_02DKCKIIND@?$CFs@
CONST	SEGMENT
??_C@_02DKCKIIND@?$CFs@ DB '%s', 00H			; `string'
CONST	ENDS
;	COMDAT ??_C@_0BB@FCMFBGOM@invalid?5argument@
CONST	SEGMENT
??_C@_0BB@FCMFBGOM@invalid?5argument@ DB 'invalid argument', 00H ; `string'
CONST	ENDS
;	COMDAT _CT??_R0?AVexception@std@@@8??0exception@std@@QEAA@AEBV01@@Z24
xdata$x	SEGMENT
_CT??_R0?AVexception@std@@@8??0exception@std@@QEAA@AEBV01@@Z24 DD 00H
	DD	imagerel ??_R0?AVexception@std@@@8
	DD	00H
	DD	0ffffffffH
	ORG $+4
	DD	018H
	DD	imagerel ??0exception@std@@QEAA@AEBV01@@Z
xdata$x	ENDS
;	COMDAT ??_R0?AVexception@std@@@8
data$r	SEGMENT
??_R0?AVexception@std@@@8 DQ FLAT:??_7type_info@@6B@	; std::exception `RTTI Type Descriptor'
	DQ	0000000000000000H
	DB	'.?AVexception@std@@', 00H
data$r	ENDS
;	COMDAT _CT??_R0?AVbad_alloc@std@@@8??0bad_alloc@std@@QEAA@AEBV01@@Z24
xdata$x	SEGMENT
_CT??_R0?AVbad_alloc@std@@@8??0bad_alloc@std@@QEAA@AEBV01@@Z24 DD 010H
	DD	imagerel ??_R0?AVbad_alloc@std@@@8
	DD	00H
	DD	0ffffffffH
	ORG $+4
	DD	018H
	DD	imagerel ??0bad_alloc@std@@QEAA@AEBV01@@Z
xdata$x	ENDS
;	COMDAT ??_R0?AVbad_alloc@std@@@8
data$r	SEGMENT
??_R0?AVbad_alloc@std@@@8 DQ FLAT:??_7type_info@@6B@	; std::bad_alloc `RTTI Type Descriptor'
	DQ	0000000000000000H
	DB	'.?AVbad_alloc@std@@', 00H
data$r	ENDS
;	COMDAT _CT??_R0?AVbad_array_new_length@std@@@8??0bad_array_new_length@std@@QEAA@AEBV01@@Z24
xdata$x	SEGMENT
_CT??_R0?AVbad_array_new_length@std@@@8??0bad_array_new_length@std@@QEAA@AEBV01@@Z24 DD 00H
	DD	imagerel ??_R0?AVbad_array_new_length@std@@@8
	DD	00H
	DD	0ffffffffH
	ORG $+4
	DD	018H
	DD	imagerel ??0bad_array_new_length@std@@QEAA@AEBV01@@Z
xdata$x	ENDS
;	COMDAT ??_R0?AVbad_array_new_length@std@@@8
data$r	SEGMENT
??_R0?AVbad_array_new_length@std@@@8 DQ FLAT:??_7type_info@@6B@ ; std::bad_array_new_length `RTTI Type Descriptor'
	DQ	0000000000000000H
	DB	'.?AVbad_array_new_length@std@@', 00H
data$r	ENDS
;	COMDAT _CTA3?AVbad_array_new_length@std@@
xdata$x	SEGMENT
_CTA3?AVbad_array_new_length@std@@ DD 03H
	DD	imagerel _CT??_R0?AVbad_array_new_length@std@@@8??0bad_array_new_length@std@@QEAA@AEBV01@@Z24
	DD	imagerel _CT??_R0?AVbad_alloc@std@@@8??0bad_alloc@std@@QEAA@AEBV01@@Z24
	DD	imagerel _CT??_R0?AVexception@std@@@8??0exception@std@@QEAA@AEBV01@@Z24
xdata$x	ENDS
;	COMDAT _TI3?AVbad_array_new_length@std@@
xdata$x	SEGMENT
_TI3?AVbad_array_new_length@std@@ DD 00H
	DD	imagerel ??1bad_array_new_length@std@@UEAA@XZ
	DD	00H
	DD	imagerel _CTA3?AVbad_array_new_length@std@@
xdata$x	ENDS
;	COMDAT ??_C@_0BF@KINCDENJ@bad?5array?5new?5length@
CONST	SEGMENT
??_C@_0BF@KINCDENJ@bad?5array?5new?5length@ DB 'bad array new length', 00H ; `string'
CONST	ENDS
;	COMDAT ??_7bad_array_new_length@std@@6B@
CONST	SEGMENT
??_7bad_array_new_length@std@@6B@ DQ FLAT:??_R4bad_array_new_length@std@@6B@ ; std::bad_array_new_length::`vftable'
	DQ	FLAT:??_Ebad_array_new_length@std@@UEAAPEAXI@Z
	DQ	FLAT:?what@exception@std@@UEBAPEBDXZ
CONST	ENDS
;	COMDAT ??_7bad_alloc@std@@6B@
CONST	SEGMENT
??_7bad_alloc@std@@6B@ DQ FLAT:??_R4bad_alloc@std@@6B@	; std::bad_alloc::`vftable'
	DQ	FLAT:??_Ebad_alloc@std@@UEAAPEAXI@Z
	DQ	FLAT:?what@exception@std@@UEBAPEBDXZ
CONST	ENDS
;	COMDAT ??_C@_0BC@EOODALEL@Unknown?5exception@
CONST	SEGMENT
??_C@_0BC@EOODALEL@Unknown?5exception@ DB 'Unknown exception', 00H ; `string'
CONST	ENDS
;	COMDAT ??_7exception@std@@6B@
CONST	SEGMENT
??_7exception@std@@6B@ DQ FLAT:??_R4exception@std@@6B@	; std::exception::`vftable'
	DQ	FLAT:??_Eexception@std@@UEAAPEAXI@Z
	DQ	FLAT:?what@exception@std@@UEBAPEBDXZ
CONST	ENDS
;	COMDAT xdata
xdata	SEGMENT
$unwind$??$_Voidify_iter@PEAU?$tmat4x4@M$0A@@glm@@@std@@YAPEAXPEAU?$tmat4x4@M$0A@@glm@@@Z DD 010601H
	DD	07006H
xdata	ENDS
;	COMDAT xdata
xdata	SEGMENT
$unwind$?call@?$compute_vec4_sub@N$0A@$0A@@detail@glm@@SA?AU?$tvec4@N$0A@@3@AEBU43@0@Z DD 021401H
	DD	070107214H
xdata	ENDS
;	COMDAT xdata
xdata	SEGMENT
$unwind$??$construct@U?$tmat4x4@M$0A@@glm@@AEBU12@@?$_Default_allocator_traits@V?$allocator@U?$tmat4x4@M$0A@@glm@@@std@@@std@@SAXAEAV?$allocator@U?$tmat4x4@M$0A@@glm@@@1@QEAU?$tmat4x4@M$0A@@glm@@AEBU34@@Z DD 031501H
	DD	070116215H
	DD	06010H
xdata	ENDS
;	COMDAT xdata
xdata	SEGMENT
$unwind$??$forward@AEBU?$tmat4x4@M$0A@@glm@@@std@@YAAEBU?$tmat4x4@M$0A@@glm@@AEBU12@@Z DD 010601H
	DD	07006H
xdata	ENDS
;	COMDAT xdata
xdata	SEGMENT
$unwind$??$_To_address@PEAU?$tmat4x4@M$0A@@glm@@@std@@YA?A_PAEBQEAU?$tmat4x4@M$0A@@glm@@@Z DD 010601H
	DD	07006H
xdata	ENDS
;	COMDAT xdata
xdata	SEGMENT
$unwind$??$_To_address@PEBU?$tmat4x4@M$0A@@glm@@@std@@YA?A_PAEBQEBU?$tmat4x4@M$0A@@glm@@@Z DD 010601H
	DD	07006H
xdata	ENDS
;	COMDAT xdata
xdata	SEGMENT
$unwind$?call@?$compute_vec4_sub@M$01$0A@@detail@glm@@SA?AU?$tvec4@M$01@3@AEBU43@0@Z DD 021401H
	DD	070107214H
xdata	ENDS
;	COMDAT xdata
xdata	SEGMENT
$unwind$?call@?$compute_vec4_add@M$01$0A@@detail@glm@@SA?AU?$tvec4@M$01@3@AEBU43@0@Z DD 021401H
	DD	070107214H
xdata	ENDS
;	COMDAT xdata
xdata	SEGMENT
$unwind$?call@?$compute_vec4_mul@M$01$0A@@detail@glm@@SA?AU?$tvec4@M$01@3@AEBU43@0@Z DD 021401H
	DD	070107214H
xdata	ENDS
;	COMDAT xdata
xdata	SEGMENT
$unwind$?call@?$compute_vec4_sub@M$00$0A@@detail@glm@@SA?AU?$tvec4@M$00@3@AEBU43@0@Z DD 021401H
	DD	070107214H
xdata	ENDS
;	COMDAT xdata
xdata	SEGMENT
$unwind$?call@?$compute_vec4_add@M$00$0A@@detail@glm@@SA?AU?$tvec4@M$00@3@AEBU43@0@Z DD 021401H
	DD	070107214H
xdata	ENDS
;	COMDAT xdata
xdata	SEGMENT
$unwind$?call@?$compute_vec4_mul@M$00$0A@@detail@glm@@SA?AU?$tvec4@M$00@3@AEBU43@0@Z DD 021401H
	DD	070107214H
xdata	ENDS
;	COMDAT xdata
xdata	SEGMENT
$unwind$?call@?$compute_vec4_sub@M$0A@$0A@@detail@glm@@SA?AU?$tvec4@M$0A@@3@AEBU43@0@Z DD 021401H
	DD	070107214H
xdata	ENDS
;	COMDAT xdata
xdata	SEGMENT
$unwind$?call@?$compute_vec4_div@M$0A@$0A@@detail@glm@@SA?AU?$tvec4@M$0A@@3@AEBU43@0@Z DD 021401H
	DD	070107214H
xdata	ENDS
;	COMDAT xdata
xdata	SEGMENT
$unwind$?call@?$compute_vec4_add@N$0A@$0A@@detail@glm@@SA?AU?$tvec4@N$0A@@3@AEBU43@0@Z DD 021401H
	DD	070107214H
xdata	ENDS
;	COMDAT xdata
xdata	SEGMENT
$unwind$?call@?$compute_vec4_mul@N$0A@$0A@@detail@glm@@SA?AU?$tvec4@N$0A@@3@AEBU43@0@Z DD 021401H
	DD	070107214H
xdata	ENDS
;	COMDAT xdata
xdata	SEGMENT
$unwind$?call@?$compute_vec4_add@M$0A@$0A@@detail@glm@@SA?AU?$tvec4@M$0A@@3@AEBU43@0@Z DD 021401H
	DD	070107214H
xdata	ENDS
;	COMDAT xdata
xdata	SEGMENT
$unwind$?call@?$compute_vec4_mul@M$0A@$0A@@detail@glm@@SA?AU?$tvec4@M$0A@@3@AEBU43@0@Z DD 021401H
	DD	070107214H
xdata	ENDS
;	COMDAT xdata
xdata	SEGMENT
$unwind$?call@?$functor1@MM$0A@Utvec4@glm@@@detail@glm@@SA?AU?$tvec4@M$0A@@3@P6AMM@ZAEBU43@@Z DD 021401H
	DD	070107214H
xdata	ENDS
;	COMDAT xdata
xdata	SEGMENT
$unwind$?call@?$functor1@MM$00Utvec4@glm@@@detail@glm@@SA?AU?$tvec4@M$00@3@P6AMM@ZAEBU43@@Z DD 021401H
	DD	070107214H
xdata	ENDS
;	COMDAT xdata
xdata	SEGMENT
$unwind$?call@?$functor1@MM$01Utvec4@glm@@@detail@glm@@SA?AU?$tvec4@M$01@3@P6AMM@ZAEBU43@@Z DD 021401H
	DD	070107214H
xdata	ENDS
;	COMDAT xdata
xdata	SEGMENT
$unwind$??$_Allocate_manually_vector_aligned@U_Default_allocate_traits@std@@@std@@YAPEAX_K@Z DD 020a01H
	DD	07006920aH
xdata	ENDS
;	COMDAT xdata
xdata	SEGMENT
$unwind$??$?ZN@?$tvec4@N$0A@@glm@@QEAAAEAU01@AEBU01@@Z DD 031001H
	DD	0700cc210H
	DD	0600bH
xdata	ENDS
;	COMDAT xdata
xdata	SEGMENT
$unwind$??$?XN@?$tvec4@N$0A@@glm@@QEAAAEAU01@AEBU01@@Z DD 031001H
	DD	0700cc210H
	DD	0600bH
xdata	ENDS
;	COMDAT xdata
xdata	SEGMENT
$unwind$??$?XM@?$tvec4@M$00@glm@@QEAAAEAU01@AEBU01@@Z DD 031001H
	DD	0700c8210H
	DD	0600bH
xdata	ENDS
;	COMDAT xdata
xdata	SEGMENT
$unwind$??$?XM@?$tvec4@M$01@glm@@QEAAAEAU01@AEBU01@@Z DD 031001H
	DD	0700c8210H
	DD	0600bH
xdata	ENDS
;	COMDAT xdata
xdata	SEGMENT
$unwind$??$forward@PEAU_Container_base12@std@@@std@@YA$$QEAPEAU_Container_base12@0@AEAPEAU10@@Z DD 010601H
	DD	07006H
xdata	ENDS
;	COMDAT xdata
xdata	SEGMENT
$unwind$??$_Voidify_iter@PEAU_Container_proxy@std@@@std@@YAPEAXPEAU_Container_proxy@0@@Z DD 010601H
	DD	07006H
xdata	ENDS
;	COMDAT xdata
xdata	SEGMENT
$unwind$??$addressof@U_Container_proxy@std@@@std@@YAPEAU_Container_proxy@0@AEAU10@@Z DD 010601H
	DD	07006H
xdata	ENDS
;	COMDAT xdata
xdata	SEGMENT
$unwind$??$_Emplace_back@AEBU?$tmat4x4@M$0A@@glm@@@?$_Uninitialized_backout_al@V?$allocator@U?$tmat4x4@M$0A@@glm@@@std@@@std@@QEAAXAEBU?$tmat4x4@M$0A@@glm@@@Z DD 020f01H
	DD	0700b520fH
xdata	ENDS
;	COMDAT xdata
xdata	SEGMENT
$unwind$?_Release@?$_Uninitialized_backout_al@V?$allocator@U?$tmat4x4@M$0A@@glm@@@std@@@std@@QEAAPEAU?$tmat4x4@M$0A@@glm@@XZ DD 010601H
	DD	07006H
xdata	ENDS
;	COMDAT xdata
xdata	SEGMENT
$unwind$??1?$_Uninitialized_backout_al@V?$allocator@U?$tmat4x4@M$0A@@glm@@@std@@@std@@QEAA@XZ DD 020a01H
	DD	07006320aH
xdata	ENDS
;	COMDAT xdata
xdata	SEGMENT
$unwind$??0?$_Uninitialized_backout_al@V?$allocator@U?$tmat4x4@M$0A@@glm@@@std@@@std@@QEAA@PEAU?$tmat4x4@M$0A@@glm@@AEAV?$allocator@U?$tmat4x4@M$0A@@glm@@@1@@Z DD 011001H
	DD	07010H
xdata	ENDS
;	COMDAT xdata
xdata	SEGMENT
$unwind$??$_Copy_memmove@PEBU?$tmat4x4@M$0A@@glm@@PEAU12@@std@@YAPEAU?$tmat4x4@M$0A@@glm@@PEBU12@0PEAU12@@Z DD 021401H
	DD	07010b214H
xdata	ENDS
;	COMDAT xdata
xdata	SEGMENT
$unwind$??$_Unfancy@U?$tmat4x4@M$0A@@glm@@@std@@YAPEAU?$tmat4x4@M$0A@@glm@@PEAU12@@Z DD 010601H
	DD	07006H
xdata	ENDS
;	COMDAT xdata
xdata	SEGMENT
$unwind$??$_Get_unwrapped@AEBQEBU?$tmat4x4@M$0A@@glm@@@std@@YA?A_TAEBQEBU?$tmat4x4@M$0A@@glm@@@Z DD 010601H
	DD	07006H
xdata	ENDS
;	COMDAT xdata
xdata	SEGMENT
$unwind$?deallocate@?$_Default_allocator_traits@V?$allocator@U_Container_proxy@std@@@std@@@std@@SAXAEAV?$allocator@U_Container_proxy@std@@@2@QEAU_Container_proxy@2@_K@Z DD 021401H
	DD	070103214H
xdata	ENDS
;	COMDAT voltbl
voltbl	SEGMENT
_volmd	DB	01aH
	DB	053H
voltbl	ENDS
;	COMDAT xdata
xdata	SEGMENT
$unwind$??$?XM@?$tmat4x4@M$0A@@glm@@QEAAAEAU01@AEBU01@@Z DD 031f19H
	DD	0700ce210H
	DD	0600bH
	DD	imagerel __GSHandlerCheck
	DD	068H
xdata	ENDS
;	COMDAT xdata
xdata	SEGMENT
$unwind$?call@?$compute_abs_vector@M$01Utvec4@glm@@$0A@@detail@glm@@SA?AU?$tvec4@M$01@3@AEBU43@@Z DD 020f01H
	DD	0700b320fH
xdata	ENDS
;	COMDAT xdata
xdata	SEGMENT
$unwind$??$?ZM@?$tvec4@M$01@glm@@QEAAAEAU01@AEBU01@@Z DD 031001H
	DD	0700c8210H
	DD	0600bH
xdata	ENDS
;	COMDAT xdata
xdata	SEGMENT
$unwind$??$?YM@?$tvec4@M$01@glm@@QEAAAEAU01@AEBU01@@Z DD 031001H
	DD	0700c8210H
	DD	0600bH
xdata	ENDS
;	COMDAT xdata
xdata	SEGMENT
$unwind$??$?XM@?$tvec4@M$01@glm@@QEAAAEAU01@M@Z DD 031101H
	DD	0700d8211H
	DD	0600cH
xdata	ENDS
;	COMDAT xdata
xdata	SEGMENT
$unwind$?call@?$compute_abs_vector@M$00Utvec4@glm@@$0A@@detail@glm@@SA?AU?$tvec4@M$00@3@AEBU43@@Z DD 020f01H
	DD	0700b320fH
xdata	ENDS
;	COMDAT xdata
xdata	SEGMENT
$unwind$??$?ZM@?$tvec4@M$00@glm@@QEAAAEAU01@AEBU01@@Z DD 031001H
	DD	0700c8210H
	DD	0600bH
xdata	ENDS
;	COMDAT xdata
xdata	SEGMENT
$unwind$??$?YM@?$tvec4@M$00@glm@@QEAAAEAU01@AEBU01@@Z DD 031001H
	DD	0700c8210H
	DD	0600bH
xdata	ENDS
;	COMDAT xdata
xdata	SEGMENT
$unwind$??$?XM@?$tvec4@M$00@glm@@QEAAAEAU01@M@Z DD 031101H
	DD	0700d8211H
	DD	0600cH
xdata	ENDS
;	COMDAT xdata
xdata	SEGMENT
$unwind$?call@?$compute_abs_vector@M$0A@Utvec4@glm@@$0A@@detail@glm@@SA?AU?$tvec4@M$0A@@3@AEBU43@@Z DD 020f01H
	DD	0700b320fH
xdata	ENDS
;	COMDAT xdata
xdata	SEGMENT
$unwind$??$?ZM@?$tvec4@M$0A@@glm@@QEAAAEAU01@AEBU01@@Z DD 031001H
	DD	0700c8210H
	DD	0600bH
xdata	ENDS
;	COMDAT xdata
xdata	SEGMENT
$unwind$?call@?$compute_vec4_equal@M$0A@$0A@$0CA@$0A@@detail@glm@@SA_NAEBU?$tvec4@M$0A@@3@0@Z DD 020f01H
	DD	0700b120fH
xdata	ENDS
;	COMDAT xdata
xdata	SEGMENT
$unwind$?call@?$compute_vec4_nequal@M$0A@$0A@$0CA@$0A@@detail@glm@@SA_NAEBU?$tvec4@M$0A@@3@0@Z DD 020f01H
	DD	0700b120fH
xdata	ENDS
;	COMDAT xdata
xdata	SEGMENT
$unwind$??$?_0M@?$tvec4@M$0A@@glm@@QEAAAEAU01@M@Z DD 031101H
	DD	0700d8211H
	DD	0600cH
xdata	ENDS
;	COMDAT xdata
xdata	SEGMENT
$unwind$??$?_0M@?$tvec4@M$0A@@glm@@QEAAAEAU01@AEBU01@@Z DD 031001H
	DD	0700c8210H
	DD	0600bH
xdata	ENDS
;	COMDAT xdata
xdata	SEGMENT
$unwind$??$?YN@?$tvec4@N$0A@@glm@@QEAAAEAU01@AEBU01@@Z DD 031001H
	DD	0700cc210H
	DD	0600bH
xdata	ENDS
;	COMDAT xdata
xdata	SEGMENT
$unwind$??$?XN@?$tvec4@N$0A@@glm@@QEAAAEAU01@N@Z DD 031101H
	DD	0700dc211H
	DD	0600cH
xdata	ENDS
;	COMDAT xdata
xdata	SEGMENT
$unwind$??$?XM@?$tvec4@M$0A@@glm@@QEAAAEAU01@M@Z DD 031101H
	DD	0700d8211H
	DD	0600cH
xdata	ENDS
;	COMDAT xdata
xdata	SEGMENT
$unwind$??$?YM@?$tvec4@M$0A@@glm@@QEAAAEAU01@AEBU01@@Z DD 031001H
	DD	0700c8210H
	DD	0600bH
xdata	ENDS
;	COMDAT xdata
xdata	SEGMENT
$unwind$??$?XM@?$tvec4@M$0A@@glm@@QEAAAEAU01@AEBU01@@Z DD 031001H
	DD	0700c8210H
	DD	0600bH
xdata	ENDS
;	COMDAT xdata
xdata	SEGMENT
$unwind$??$?0MHH$0A@@?$tvec4@M$0A@@glm@@QEAA@AEBU?$tvec2@M$0A@@1@HH@Z DD 011501H
	DD	07015H
xdata	ENDS
;	COMDAT xdata
xdata	SEGMENT
$unwind$??$?0MH$0A@@?$tvec4@M$0A@@glm@@QEAA@AEBU?$tvec3@M$0A@@1@H@Z DD 011001H
	DD	07010H
xdata	ENDS
;	COMDAT xdata
xdata	SEGMENT
$unwind$??$?0HHH@?$tvec3@M$0A@@glm@@QEAA@HHH@Z DD 011401H
	DD	07014H
xdata	ENDS
;	COMDAT xdata
xdata	SEGMENT
$unwind$??$?0HHM@?$tvec3@M$0A@@glm@@QEAA@HHM@Z DD 011501H
	DD	07015H
xdata	ENDS
;	COMDAT xdata
xdata	SEGMENT
$unwind$??$?0HH@?$tvec2@M$0A@@glm@@QEAA@HH@Z DD 010f01H
	DD	0700fH
xdata	ENDS
;	COMDAT xdata
xdata	SEGMENT
$unwind$??$?0HMH@?$tvec3@M$0A@@glm@@QEAA@HMH@Z DD 011501H
	DD	07015H
xdata	ENDS
;	COMDAT xdata
xdata	SEGMENT
$unwind$??$?0MHH@?$tvec3@M$0A@@glm@@QEAA@MHH@Z DD 011601H
	DD	07016H
xdata	ENDS
;	COMDAT xdata
xdata	SEGMENT
$unwind$??$?0HM@?$tvec2@M$0A@@glm@@QEAA@HM@Z DD 011001H
	DD	07010H
xdata	ENDS
;	COMDAT xdata
xdata	SEGMENT
$unwind$??$?0MH@?$tvec2@M$0A@@glm@@QEAA@MH@Z DD 011101H
	DD	07011H
xdata	ENDS
;	COMDAT xdata
xdata	SEGMENT
$unwind$??$_Get_size_of_n@$0EA@@std@@YA_K_K@Z DD 020a01H
	DD	07006520aH
xdata	ENDS
;	COMDAT xdata
xdata	SEGMENT
$unwind$??$min@_K@std@@YAAEB_KAEB_K0@Z DD 020f01H
	DD	0700b120fH
xdata	ENDS
;	COMDAT xdata
xdata	SEGMENT
$unwind$??$_Allocate@$0BA@U_Default_allocate_traits@std@@$0A@@std@@YAPEAX_K@Z DD 020a01H
	DD	07006320aH
xdata	ENDS
;	COMDAT xdata
xdata	SEGMENT
$unwind$??$_Get_size_of_n@$0BA@@std@@YA_K_K@Z DD 020a01H
	DD	07006520aH
xdata	ENDS
;	COMDAT xdata
xdata	SEGMENT
$unwind$??$?DN$0A@@glm@@YA?AU?$tmat4x4@N$0A@@0@AEBU10@AEBN@Z DD 031701H
	DD	01a0117H
	DD	07010H
xdata	ENDS
;	COMDAT xdata
xdata	SEGMENT
$unwind$??$?GN$0A@@glm@@YA?AU?$tvec4@N$0A@@0@AEBU10@0@Z DD 031501H
	DD	070118215H
	DD	06010H
xdata	ENDS
;	COMDAT xdata
xdata	SEGMENT
$unwind$??$?DN$0A@@glm@@YA?AU?$tvec4@N$0A@@0@AEBU10@0@Z DD 031501H
	DD	070118215H
	DD	06010H
xdata	ENDS
;	COMDAT xdata
xdata	SEGMENT
$unwind$??$?DM$00@glm@@YA?AU?$tmat4x4@M$00@0@AEBU10@AEBM@Z DD 031701H
	DD	0120117H
	DD	07010H
xdata	ENDS
;	COMDAT xdata
xdata	SEGMENT
$unwind$??$?0HHHH@?$tvec4@M$00@glm@@QEAA@HHHH@Z DD 011401H
	DD	07014H
xdata	ENDS
;	COMDAT xdata
xdata	SEGMENT
$unwind$??$?DM$00@glm@@YA?AU?$tvec4@M$00@0@AEBU10@0@Z DD 031501H
	DD	070116215H
	DD	06010H
xdata	ENDS
;	COMDAT xdata
xdata	SEGMENT
$unwind$??$?DM$01@glm@@YA?AU?$tmat4x4@M$01@0@AEBU10@AEBM@Z DD 031701H
	DD	0120117H
	DD	07010H
xdata	ENDS
;	COMDAT xdata
xdata	SEGMENT
$unwind$??$?0HHHH@?$tvec4@M$01@glm@@QEAA@HHHH@Z DD 011401H
	DD	07014H
xdata	ENDS
;	COMDAT xdata
xdata	SEGMENT
$unwind$??$?DM$01@glm@@YA?AU?$tvec4@M$01@0@AEBU10@0@Z DD 031501H
	DD	070116215H
	DD	06010H
xdata	ENDS
;	COMDAT xdata
xdata	SEGMENT
$unwind$??$_Construct_in_place@U_Container_proxy@std@@PEAU_Container_base12@2@@std@@YAXAEAU_Container_proxy@0@$$QEAPEAU_Container_base12@0@@Z DD 020f01H
	DD	0700b520fH
xdata	ENDS
;	COMDAT xdata
xdata	SEGMENT
$unwind$??$addressof@U_Container_base12@std@@@std@@YAPEAU_Container_base12@0@AEAU10@@Z DD 010601H
	DD	07006H
xdata	ENDS
;	COMDAT xdata
xdata	SEGMENT
$unwind$??$_Unfancy@U_Container_proxy@std@@@std@@YAPEAU_Container_proxy@0@PEAU10@@Z DD 010601H
	DD	07006H
xdata	ENDS
;	COMDAT voltbl
voltbl	SEGMENT
_volmd	DB	00H
	DB	05H
voltbl	ENDS
;	COMDAT xdata
xdata	SEGMENT
$unwind$?dtor$0@?0???$_Uninitialized_copy@PEBU?$tmat4x4@M$0A@@glm@@V?$allocator@U?$tmat4x4@M$0A@@glm@@@std@@@std@@YAPEAU?$tmat4x4@M$0A@@glm@@QEBU12@0PEAU12@AEAV?$allocator@U?$tmat4x4@M$0A@@glm@@@0@@Z@4HA DD 031001H
	DD	0700c4210H
	DD	0500bH
xdata	ENDS
;	COMDAT xdata
xdata	SEGMENT
$ip2state$??$_Uninitialized_copy@PEBU?$tmat4x4@M$0A@@glm@@V?$allocator@U?$tmat4x4@M$0A@@glm@@@std@@@std@@YAPEAU?$tmat4x4@M$0A@@glm@@QEBU12@0PEAU12@AEAV?$allocator@U?$tmat4x4@M$0A@@glm@@@0@@Z DB 02H
	DB	00H
	DB	00H
xdata	ENDS
;	COMDAT xdata
xdata	SEGMENT
$stateUnwindMap$??$_Uninitialized_copy@PEBU?$tmat4x4@M$0A@@glm@@V?$allocator@U?$tmat4x4@M$0A@@glm@@@std@@@std@@YAPEAU?$tmat4x4@M$0A@@glm@@QEBU12@0PEAU12@AEAV?$allocator@U?$tmat4x4@M$0A@@glm@@@0@@Z DB 02H
	DB	0eH
	DD	imagerel ?dtor$0@?0???$_Uninitialized_copy@PEBU?$tmat4x4@M$0A@@glm@@V?$allocator@U?$tmat4x4@M$0A@@glm@@@std@@@std@@YAPEAU?$tmat4x4@M$0A@@glm@@QEBU12@0PEAU12@AEAV?$allocator@U?$tmat4x4@M$0A@@glm@@@0@@Z@4HA
xdata	ENDS
;	COMDAT xdata
xdata	SEGMENT
$cppxdata$??$_Uninitialized_copy@PEBU?$tmat4x4@M$0A@@glm@@V?$allocator@U?$tmat4x4@M$0A@@glm@@@std@@@std@@YAPEAU?$tmat4x4@M$0A@@glm@@QEBU12@0PEAU12@AEAV?$allocator@U?$tmat4x4@M$0A@@glm@@@0@@Z DB 028H
	DD	imagerel $stateUnwindMap$??$_Uninitialized_copy@PEBU?$tmat4x4@M$0A@@glm@@V?$allocator@U?$tmat4x4@M$0A@@glm@@@std@@@std@@YAPEAU?$tmat4x4@M$0A@@glm@@QEBU12@0PEAU12@AEAV?$allocator@U?$tmat4x4@M$0A@@glm@@@0@@Z
	DD	imagerel $ip2state$??$_Uninitialized_copy@PEBU?$tmat4x4@M$0A@@glm@@V?$allocator@U?$tmat4x4@M$0A@@glm@@@std@@@std@@YAPEAU?$tmat4x4@M$0A@@glm@@QEBU12@0PEAU12@AEAV?$allocator@U?$tmat4x4@M$0A@@glm@@@0@@Z
xdata	ENDS
;	COMDAT xdata
xdata	SEGMENT
$unwind$??$_Uninitialized_copy@PEBU?$tmat4x4@M$0A@@glm@@V?$allocator@U?$tmat4x4@M$0A@@glm@@@std@@@std@@YAPEAU?$tmat4x4@M$0A@@glm@@QEBU12@0PEAU12@AEAV?$allocator@U?$tmat4x4@M$0A@@glm@@@0@@Z DD 022f11H
	DD	07015b219H
	DD	imagerel __CxxFrameHandler4
	DD	imagerel $cppxdata$??$_Uninitialized_copy@PEBU?$tmat4x4@M$0A@@glm@@V?$allocator@U?$tmat4x4@M$0A@@glm@@@std@@@std@@YAPEAU?$tmat4x4@M$0A@@glm@@QEBU12@0PEAU12@AEAV?$allocator@U?$tmat4x4@M$0A@@glm@@@0@@Z
xdata	ENDS
;	COMDAT CONST
CONST	SEGMENT
??$_Uninitialized_copy@PEBU?$tmat4x4@M$0A@@glm@@V?$allocator@U?$tmat4x4@M$0A@@glm@@@std@@@std@@YAPEAU?$tmat4x4@M$0A@@glm@@QEBU12@0PEAU12@AEAV?$allocator@U?$tmat4x4@M$0A@@glm@@@0@@Z$rtcName$0 DB 05fH ; std::_Uninitialized_copy<glm::tmat4x4<float,0> const *,std::allocator<glm::tmat4x4<float,0> > >
	DB	042H
	DB	061H
	DB	063H
	DB	06bH
	DB	06fH
	DB	075H
	DB	074H
	DB	00H
	ORG $+7
??$_Uninitialized_copy@PEBU?$tmat4x4@M$0A@@glm@@V?$allocator@U?$tmat4x4@M$0A@@glm@@@std@@@std@@YAPEAU?$tmat4x4@M$0A@@glm@@QEBU12@0PEAU12@AEAV?$allocator@U?$tmat4x4@M$0A@@glm@@@0@@Z$rtcVarDesc DD 038H ; std::_Uninitialized_copy<glm::tmat4x4<float,0> const *,std::allocator<glm::tmat4x4<float,0> > >
	DD	018H
	DQ	FLAT:??$_Uninitialized_copy@PEBU?$tmat4x4@M$0A@@glm@@V?$allocator@U?$tmat4x4@M$0A@@glm@@@std@@@std@@YAPEAU?$tmat4x4@M$0A@@glm@@QEBU12@0PEAU12@AEAV?$allocator@U?$tmat4x4@M$0A@@glm@@@0@@Z$rtcName$0
	ORG $+48
??$_Uninitialized_copy@PEBU?$tmat4x4@M$0A@@glm@@V?$allocator@U?$tmat4x4@M$0A@@glm@@@std@@@std@@YAPEAU?$tmat4x4@M$0A@@glm@@QEBU12@0PEAU12@AEAV?$allocator@U?$tmat4x4@M$0A@@glm@@@0@@Z$rtcFrameData DD 01H ; std::_Uninitialized_copy<glm::tmat4x4<float,0> const *,std::allocator<glm::tmat4x4<float,0> > >
	DD	00H
	DQ	FLAT:??$_Uninitialized_copy@PEBU?$tmat4x4@M$0A@@glm@@V?$allocator@U?$tmat4x4@M$0A@@glm@@@std@@@std@@YAPEAU?$tmat4x4@M$0A@@glm@@QEBU12@0PEAU12@AEAV?$allocator@U?$tmat4x4@M$0A@@glm@@@0@@Z$rtcVarDesc
CONST	ENDS
;	COMDAT xdata
xdata	SEGMENT
$unwind$??$forward@PEBU?$tmat4x4@M$0A@@glm@@@std@@YA$$QEAPEBU?$tmat4x4@M$0A@@glm@@AEAPEBU12@@Z DD 010601H
	DD	07006H
xdata	ENDS
;	COMDAT xdata
xdata	SEGMENT
$unwind$??1?$_Tidy_guard@V?$vector@U?$tmat4x4@M$0A@@glm@@V?$allocator@U?$tmat4x4@M$0A@@glm@@@std@@@std@@@std@@QEAA@XZ DD 020a01H
	DD	07006320aH
xdata	ENDS
;	COMDAT xdata
xdata	SEGMENT
$unwind$??1?$_Container_proxy_ptr12@V?$allocator@U_Container_proxy@std@@@std@@@std@@QEAA@XZ DD 020a01H
	DD	07006320aH
xdata	ENDS
;	COMDAT xdata
xdata	SEGMENT
$unwind$??0?$_Container_proxy_ptr12@V?$allocator@U_Container_proxy@std@@@std@@@std@@QEAA@AEAV?$allocator@U_Container_proxy@std@@@1@AEAU_Container_base12@1@@Z DD 021401H
	DD	070105214H
xdata	ENDS
;	COMDAT xdata
xdata	SEGMENT
$unwind$??$forward@AEBV?$allocator@U?$tmat4x4@M$0A@@glm@@@std@@@std@@YAAEBV?$allocator@U?$tmat4x4@M$0A@@glm@@@0@AEBV10@@Z DD 010601H
	DD	07006H
xdata	ENDS
;	COMDAT xdata
xdata	SEGMENT
$ip2state$??$_Deallocate_plain@V?$allocator@U_Container_proxy@std@@@std@@@std@@YAXAEAV?$allocator@U_Container_proxy@std@@@0@QEAU_Container_proxy@0@@Z DB 02H
	DB	00H
	DB	00H
xdata	ENDS
;	COMDAT xdata
xdata	SEGMENT
$cppxdata$??$_Deallocate_plain@V?$allocator@U_Container_proxy@std@@@std@@@std@@YAXAEAV?$allocator@U_Container_proxy@std@@@0@QEAU_Container_proxy@0@@Z DB 060H
	DD	imagerel $ip2state$??$_Deallocate_plain@V?$allocator@U_Container_proxy@std@@@std@@@std@@YAXAEAV?$allocator@U_Container_proxy@std@@@0@QEAU_Container_proxy@0@@Z
xdata	ENDS
;	COMDAT xdata
xdata	SEGMENT
$unwind$??$_Deallocate_plain@V?$allocator@U_Container_proxy@std@@@std@@@std@@YAXAEAV?$allocator@U_Container_proxy@std@@@0@QEAU_Container_proxy@0@@Z DD 020f19H
	DD	0700b320fH
	DD	imagerel __CxxFrameHandler4
	DD	imagerel $cppxdata$??$_Deallocate_plain@V?$allocator@U_Container_proxy@std@@@std@@@std@@YAXAEAV?$allocator@U_Container_proxy@std@@@0@QEAU_Container_proxy@0@@Z
xdata	ENDS
;	COMDAT voltbl
voltbl	SEGMENT
_volmd	DB	019H
	DB	040H
voltbl	ENDS
;	COMDAT xdata
xdata	SEGMENT
$unwind$??$?_0M@?$tmat4x4@M$0A@@glm@@QEAAAEAU01@AEBU01@@Z DD 021e19H
	DD	0700bd20fH
	DD	imagerel __GSHandlerCheck
	DD	068H
xdata	ENDS
;	COMDAT xdata
xdata	SEGMENT
$unwind$??$lessThan@M$01Utvec4@glm@@@glm@@YA?AU?$tvec4@_N$01@0@AEBU?$tvec4@M$01@0@0@Z DD 022a01H
	DD	070109214H
xdata	ENDS
;	COMDAT CONST
CONST	SEGMENT
??$lessThan@M$01Utvec4@glm@@@glm@@YA?AU?$tvec4@_N$01@0@AEBU?$tvec4@M$01@0@0@Z$rtcName$0 DB 052H ; glm::lessThan<float,2,glm::tvec4>
	DB	065H
	DB	073H
	DB	075H
	DB	06cH
	DB	074H
	DB	00H
	ORG $+9
??$lessThan@M$01Utvec4@glm@@@glm@@YA?AU?$tvec4@_N$01@0@AEBU?$tvec4@M$01@0@0@Z$rtcVarDesc DD 024H ; glm::lessThan<float,2,glm::tvec4>
	DD	04H
	DQ	FLAT:??$lessThan@M$01Utvec4@glm@@@glm@@YA?AU?$tvec4@_N$01@0@AEBU?$tvec4@M$01@0@0@Z$rtcName$0
	ORG $+48
??$lessThan@M$01Utvec4@glm@@@glm@@YA?AU?$tvec4@_N$01@0@AEBU?$tvec4@M$01@0@0@Z$rtcFrameData DD 01H ; glm::lessThan<float,2,glm::tvec4>
	DD	00H
	DQ	FLAT:??$lessThan@M$01Utvec4@glm@@@glm@@YA?AU?$tvec4@_N$01@0@AEBU?$tvec4@M$01@0@0@Z$rtcVarDesc
CONST	ENDS
;	COMDAT xdata
xdata	SEGMENT
$unwind$??$abs@M$01Utvec4@glm@@@glm@@YA?AU?$tvec4@M$01@0@AEBU10@@Z DD 020f01H
	DD	0700b320fH
xdata	ENDS
;	COMDAT xdata
xdata	SEGMENT
$unwind$??$?GM$01@glm@@YA?AU?$tvec4@M$01@0@AEBU10@0@Z DD 031501H
	DD	070116215H
	DD	06010H
xdata	ENDS
;	COMDAT xdata
xdata	SEGMENT
$unwind$??$?HM$01@glm@@YA?AU?$tvec4@M$01@0@AEBU10@0@Z DD 031501H
	DD	070116215H
	DD	06010H
xdata	ENDS
;	COMDAT xdata
xdata	SEGMENT
$unwind$??$?DM$01@glm@@YA?AU?$tvec4@M$01@0@AEBU10@M@Z DD 031601H
	DD	070126216H
	DD	06011H
xdata	ENDS
;	COMDAT voltbl
voltbl	SEGMENT
_volmd	DW	035H
	DW	01746H
voltbl	ENDS
;	COMDAT xdata
xdata	SEGMENT
$unwind$?call@?$compute_inverse@Utmat4x4@glm@@M$01$0A@@detail@glm@@SA?AU?$tmat4x4@M$01@3@AEBU43@@Z DD 033d19H
	DD	01060112H
	DD	0700bH
	DD	imagerel __GSHandlerCheck
	DD	0820H
xdata	ENDS
;	COMDAT CONST
CONST	SEGMENT
?call@?$compute_inverse@Utmat4x4@glm@@M$01$0A@@detail@glm@@SA?AU?$tmat4x4@M$01@3@AEBU43@@Z$rtcName$0 DB 046H ; glm::detail::compute_inverse<glm::tmat4x4,float,2,0>::call
	DB	061H
	DB	063H
	DB	030H
	DB	00H
	ORG $+3
?call@?$compute_inverse@Utmat4x4@glm@@M$01$0A@@detail@glm@@SA?AU?$tmat4x4@M$01@3@AEBU43@@Z$rtcName$1 DB 046H ; glm::detail::compute_inverse<glm::tmat4x4,float,2,0>::call
	DB	061H
	DB	063H
	DB	031H
	DB	00H
	ORG $+3
?call@?$compute_inverse@Utmat4x4@glm@@M$01$0A@@detail@glm@@SA?AU?$tmat4x4@M$01@3@AEBU43@@Z$rtcName$2 DB 046H ; glm::detail::compute_inverse<glm::tmat4x4,float,2,0>::call
	DB	061H
	DB	063H
	DB	032H
	DB	00H
	ORG $+3
?call@?$compute_inverse@Utmat4x4@glm@@M$01$0A@@detail@glm@@SA?AU?$tmat4x4@M$01@3@AEBU43@@Z$rtcName$3 DB 046H ; glm::detail::compute_inverse<glm::tmat4x4,float,2,0>::call
	DB	061H
	DB	063H
	DB	033H
	DB	00H
	ORG $+3
?call@?$compute_inverse@Utmat4x4@glm@@M$01$0A@@detail@glm@@SA?AU?$tmat4x4@M$01@3@AEBU43@@Z$rtcName$4 DB 046H ; glm::detail::compute_inverse<glm::tmat4x4,float,2,0>::call
	DB	061H
	DB	063H
	DB	034H
	DB	00H
	ORG $+3
?call@?$compute_inverse@Utmat4x4@glm@@M$01$0A@@detail@glm@@SA?AU?$tmat4x4@M$01@3@AEBU43@@Z$rtcName$5 DB 046H ; glm::detail::compute_inverse<glm::tmat4x4,float,2,0>::call
	DB	061H
	DB	063H
	DB	035H
	DB	00H
	ORG $+3
?call@?$compute_inverse@Utmat4x4@glm@@M$01$0A@@detail@glm@@SA?AU?$tmat4x4@M$01@3@AEBU43@@Z$rtcName$6 DB 056H ; glm::detail::compute_inverse<glm::tmat4x4,float,2,0>::call
	DB	065H
	DB	063H
	DB	030H
	DB	00H
	ORG $+3
?call@?$compute_inverse@Utmat4x4@glm@@M$01$0A@@detail@glm@@SA?AU?$tmat4x4@M$01@3@AEBU43@@Z$rtcName$7 DB 056H ; glm::detail::compute_inverse<glm::tmat4x4,float,2,0>::call
	DB	065H
	DB	063H
	DB	031H
	DB	00H
	ORG $+3
?call@?$compute_inverse@Utmat4x4@glm@@M$01$0A@@detail@glm@@SA?AU?$tmat4x4@M$01@3@AEBU43@@Z$rtcName$8 DB 056H ; glm::detail::compute_inverse<glm::tmat4x4,float,2,0>::call
	DB	065H
	DB	063H
	DB	032H
	DB	00H
	ORG $+3
?call@?$compute_inverse@Utmat4x4@glm@@M$01$0A@@detail@glm@@SA?AU?$tmat4x4@M$01@3@AEBU43@@Z$rtcName$9 DB 056H ; glm::detail::compute_inverse<glm::tmat4x4,float,2,0>::call
	DB	065H
	DB	063H
	DB	033H
	DB	00H
	ORG $+3
?call@?$compute_inverse@Utmat4x4@glm@@M$01$0A@@detail@glm@@SA?AU?$tmat4x4@M$01@3@AEBU43@@Z$rtcName$10 DB 049H ; glm::detail::compute_inverse<glm::tmat4x4,float,2,0>::call
	DB	06eH
	DB	076H
	DB	030H
	DB	00H
	ORG $+3
?call@?$compute_inverse@Utmat4x4@glm@@M$01$0A@@detail@glm@@SA?AU?$tmat4x4@M$01@3@AEBU43@@Z$rtcName$11 DB 049H ; glm::detail::compute_inverse<glm::tmat4x4,float,2,0>::call
	DB	06eH
	DB	076H
	DB	031H
	DB	00H
	ORG $+3
?call@?$compute_inverse@Utmat4x4@glm@@M$01$0A@@detail@glm@@SA?AU?$tmat4x4@M$01@3@AEBU43@@Z$rtcName$12 DB 049H ; glm::detail::compute_inverse<glm::tmat4x4,float,2,0>::call
	DB	06eH
	DB	076H
	DB	032H
	DB	00H
	ORG $+3
?call@?$compute_inverse@Utmat4x4@glm@@M$01$0A@@detail@glm@@SA?AU?$tmat4x4@M$01@3@AEBU43@@Z$rtcName$13 DB 049H ; glm::detail::compute_inverse<glm::tmat4x4,float,2,0>::call
	DB	06eH
	DB	076H
	DB	033H
	DB	00H
	ORG $+3
?call@?$compute_inverse@Utmat4x4@glm@@M$01$0A@@detail@glm@@SA?AU?$tmat4x4@M$01@3@AEBU43@@Z$rtcName$14 DB 053H ; glm::detail::compute_inverse<glm::tmat4x4,float,2,0>::call
	DB	069H
	DB	067H
	DB	06eH
	DB	041H
	DB	00H
	ORG $+2
?call@?$compute_inverse@Utmat4x4@glm@@M$01$0A@@detail@glm@@SA?AU?$tmat4x4@M$01@3@AEBU43@@Z$rtcName$15 DB 053H ; glm::detail::compute_inverse<glm::tmat4x4,float,2,0>::call
	DB	069H
	DB	067H
	DB	06eH
	DB	042H
	DB	00H
	ORG $+2
?call@?$compute_inverse@Utmat4x4@glm@@M$01$0A@@detail@glm@@SA?AU?$tmat4x4@M$01@3@AEBU43@@Z$rtcName$16 DB 049H ; glm::detail::compute_inverse<glm::tmat4x4,float,2,0>::call
	DB	06eH
	DB	076H
	DB	065H
	DB	072H
	DB	073H
	DB	065H
	DB	00H
?call@?$compute_inverse@Utmat4x4@glm@@M$01$0A@@detail@glm@@SA?AU?$tmat4x4@M$01@3@AEBU43@@Z$rtcName$17 DB 052H ; glm::detail::compute_inverse<glm::tmat4x4,float,2,0>::call
	DB	06fH
	DB	077H
	DB	030H
	DB	00H
	ORG $+3
?call@?$compute_inverse@Utmat4x4@glm@@M$01$0A@@detail@glm@@SA?AU?$tmat4x4@M$01@3@AEBU43@@Z$rtcName$18 DB 044H ; glm::detail::compute_inverse<glm::tmat4x4,float,2,0>::call
	DB	06fH
	DB	074H
	DB	030H
	DB	00H
	ORG $+3
?call@?$compute_inverse@Utmat4x4@glm@@M$01$0A@@detail@glm@@SA?AU?$tmat4x4@M$01@3@AEBU43@@Z$rtcName$19 DB 04fH ; glm::detail::compute_inverse<glm::tmat4x4,float,2,0>::call
	DB	06eH
	DB	065H
	DB	04fH
	DB	076H
	DB	065H
	DB	072H
	DB	044H
	DB	065H
	DB	074H
	DB	065H
	DB	072H
	DB	06dH
	DB	069H
	DB	06eH
	DB	061H
	DB	06eH
	DB	074H
	DB	00H
	ORG $+5
?call@?$compute_inverse@Utmat4x4@glm@@M$01$0A@@detail@glm@@SA?AU?$tmat4x4@M$01@3@AEBU43@@Z$rtcVarDesc DD 0444H ; glm::detail::compute_inverse<glm::tmat4x4,float,2,0>::call
	DD	04H
	DQ	FLAT:?call@?$compute_inverse@Utmat4x4@glm@@M$01$0A@@detail@glm@@SA?AU?$tmat4x4@M$01@3@AEBU43@@Z$rtcName$19
	DD	0418H
	DD	010H
	DQ	FLAT:?call@?$compute_inverse@Utmat4x4@glm@@M$01$0A@@detail@glm@@SA?AU?$tmat4x4@M$01@3@AEBU43@@Z$rtcName$18
	DD	03e8H
	DD	010H
	DQ	FLAT:?call@?$compute_inverse@Utmat4x4@glm@@M$01$0A@@detail@glm@@SA?AU?$tmat4x4@M$01@3@AEBU43@@Z$rtcName$17
	DD	0390H
	DD	040H
	DQ	FLAT:?call@?$compute_inverse@Utmat4x4@glm@@M$01$0A@@detail@glm@@SA?AU?$tmat4x4@M$01@3@AEBU43@@Z$rtcName$16
	DD	0358H
	DD	010H
	DQ	FLAT:?call@?$compute_inverse@Utmat4x4@glm@@M$01$0A@@detail@glm@@SA?AU?$tmat4x4@M$01@3@AEBU43@@Z$rtcName$15
	DD	0328H
	DD	010H
	DQ	FLAT:?call@?$compute_inverse@Utmat4x4@glm@@M$01$0A@@detail@glm@@SA?AU?$tmat4x4@M$01@3@AEBU43@@Z$rtcName$14
	DD	02f8H
	DD	010H
	DQ	FLAT:?call@?$compute_inverse@Utmat4x4@glm@@M$01$0A@@detail@glm@@SA?AU?$tmat4x4@M$01@3@AEBU43@@Z$rtcName$13
	DD	02c8H
	DD	010H
	DQ	FLAT:?call@?$compute_inverse@Utmat4x4@glm@@M$01$0A@@detail@glm@@SA?AU?$tmat4x4@M$01@3@AEBU43@@Z$rtcName$12
	DD	0298H
	DD	010H
	DQ	FLAT:?call@?$compute_inverse@Utmat4x4@glm@@M$01$0A@@detail@glm@@SA?AU?$tmat4x4@M$01@3@AEBU43@@Z$rtcName$11
	DD	0268H
	DD	010H
	DQ	FLAT:?call@?$compute_inverse@Utmat4x4@glm@@M$01$0A@@detail@glm@@SA?AU?$tmat4x4@M$01@3@AEBU43@@Z$rtcName$10
	DD	0238H
	DD	010H
	DQ	FLAT:?call@?$compute_inverse@Utmat4x4@glm@@M$01$0A@@detail@glm@@SA?AU?$tmat4x4@M$01@3@AEBU43@@Z$rtcName$9
	DD	0208H
	DD	010H
	DQ	FLAT:?call@?$compute_inverse@Utmat4x4@glm@@M$01$0A@@detail@glm@@SA?AU?$tmat4x4@M$01@3@AEBU43@@Z$rtcName$8
	DD	01d8H
	DD	010H
	DQ	FLAT:?call@?$compute_inverse@Utmat4x4@glm@@M$01$0A@@detail@glm@@SA?AU?$tmat4x4@M$01@3@AEBU43@@Z$rtcName$7
	DD	01a8H
	DD	010H
	DQ	FLAT:?call@?$compute_inverse@Utmat4x4@glm@@M$01$0A@@detail@glm@@SA?AU?$tmat4x4@M$01@3@AEBU43@@Z$rtcName$6
	DD	0178H
	DD	010H
	DQ	FLAT:?call@?$compute_inverse@Utmat4x4@glm@@M$01$0A@@detail@glm@@SA?AU?$tmat4x4@M$01@3@AEBU43@@Z$rtcName$5
	DD	0148H
	DD	010H
	DQ	FLAT:?call@?$compute_inverse@Utmat4x4@glm@@M$01$0A@@detail@glm@@SA?AU?$tmat4x4@M$01@3@AEBU43@@Z$rtcName$4
	DD	0118H
	DD	010H
	DQ	FLAT:?call@?$compute_inverse@Utmat4x4@glm@@M$01$0A@@detail@glm@@SA?AU?$tmat4x4@M$01@3@AEBU43@@Z$rtcName$3
	DD	0e8H
	DD	010H
	DQ	FLAT:?call@?$compute_inverse@Utmat4x4@glm@@M$01$0A@@detail@glm@@SA?AU?$tmat4x4@M$01@3@AEBU43@@Z$rtcName$2
	DD	0b8H
	DD	010H
	DQ	FLAT:?call@?$compute_inverse@Utmat4x4@glm@@M$01$0A@@detail@glm@@SA?AU?$tmat4x4@M$01@3@AEBU43@@Z$rtcName$1
	DD	088H
	DD	010H
	DQ	FLAT:?call@?$compute_inverse@Utmat4x4@glm@@M$01$0A@@detail@glm@@SA?AU?$tmat4x4@M$01@3@AEBU43@@Z$rtcName$0
	ORG $+960
?call@?$compute_inverse@Utmat4x4@glm@@M$01$0A@@detail@glm@@SA?AU?$tmat4x4@M$01@3@AEBU43@@Z$rtcFrameData DD 014H ; glm::detail::compute_inverse<glm::tmat4x4,float,2,0>::call
	DD	00H
	DQ	FLAT:?call@?$compute_inverse@Utmat4x4@glm@@M$01$0A@@detail@glm@@SA?AU?$tmat4x4@M$01@3@AEBU43@@Z$rtcVarDesc
CONST	ENDS
;	COMDAT xdata
xdata	SEGMENT
$unwind$??$lessThan@M$00Utvec4@glm@@@glm@@YA?AU?$tvec4@_N$00@0@AEBU?$tvec4@M$00@0@0@Z DD 022a01H
	DD	070109214H
xdata	ENDS
;	COMDAT CONST
CONST	SEGMENT
??$lessThan@M$00Utvec4@glm@@@glm@@YA?AU?$tvec4@_N$00@0@AEBU?$tvec4@M$00@0@0@Z$rtcName$0 DB 052H ; glm::lessThan<float,1,glm::tvec4>
	DB	065H
	DB	073H
	DB	075H
	DB	06cH
	DB	074H
	DB	00H
	ORG $+9
??$lessThan@M$00Utvec4@glm@@@glm@@YA?AU?$tvec4@_N$00@0@AEBU?$tvec4@M$00@0@0@Z$rtcVarDesc DD 024H ; glm::lessThan<float,1,glm::tvec4>
	DD	04H
	DQ	FLAT:??$lessThan@M$00Utvec4@glm@@@glm@@YA?AU?$tvec4@_N$00@0@AEBU?$tvec4@M$00@0@0@Z$rtcName$0
	ORG $+48
??$lessThan@M$00Utvec4@glm@@@glm@@YA?AU?$tvec4@_N$00@0@AEBU?$tvec4@M$00@0@0@Z$rtcFrameData DD 01H ; glm::lessThan<float,1,glm::tvec4>
	DD	00H
	DQ	FLAT:??$lessThan@M$00Utvec4@glm@@@glm@@YA?AU?$tvec4@_N$00@0@AEBU?$tvec4@M$00@0@0@Z$rtcVarDesc
CONST	ENDS
;	COMDAT xdata
xdata	SEGMENT
$unwind$??$abs@M$00Utvec4@glm@@@glm@@YA?AU?$tvec4@M$00@0@AEBU10@@Z DD 020f01H
	DD	0700b320fH
xdata	ENDS
;	COMDAT xdata
xdata	SEGMENT
$unwind$??$?GM$00@glm@@YA?AU?$tvec4@M$00@0@AEBU10@0@Z DD 031501H
	DD	070116215H
	DD	06010H
xdata	ENDS
;	COMDAT xdata
xdata	SEGMENT
$unwind$??$?HM$00@glm@@YA?AU?$tvec4@M$00@0@AEBU10@0@Z DD 031501H
	DD	070116215H
	DD	06010H
xdata	ENDS
;	COMDAT xdata
xdata	SEGMENT
$unwind$??$?DM$00@glm@@YA?AU?$tvec4@M$00@0@AEBU10@M@Z DD 031601H
	DD	070126216H
	DD	06011H
xdata	ENDS
;	COMDAT voltbl
voltbl	SEGMENT
_volmd	DW	035H
	DW	01746H
voltbl	ENDS
;	COMDAT xdata
xdata	SEGMENT
$unwind$?call@?$compute_inverse@Utmat4x4@glm@@M$00$0A@@detail@glm@@SA?AU?$tmat4x4@M$00@3@AEBU43@@Z DD 033d19H
	DD	01060112H
	DD	0700bH
	DD	imagerel __GSHandlerCheck
	DD	0820H
xdata	ENDS
;	COMDAT CONST
CONST	SEGMENT
?call@?$compute_inverse@Utmat4x4@glm@@M$00$0A@@detail@glm@@SA?AU?$tmat4x4@M$00@3@AEBU43@@Z$rtcName$0 DB 046H ; glm::detail::compute_inverse<glm::tmat4x4,float,1,0>::call
	DB	061H
	DB	063H
	DB	030H
	DB	00H
	ORG $+3
?call@?$compute_inverse@Utmat4x4@glm@@M$00$0A@@detail@glm@@SA?AU?$tmat4x4@M$00@3@AEBU43@@Z$rtcName$1 DB 046H ; glm::detail::compute_inverse<glm::tmat4x4,float,1,0>::call
	DB	061H
	DB	063H
	DB	031H
	DB	00H
	ORG $+3
?call@?$compute_inverse@Utmat4x4@glm@@M$00$0A@@detail@glm@@SA?AU?$tmat4x4@M$00@3@AEBU43@@Z$rtcName$2 DB 046H ; glm::detail::compute_inverse<glm::tmat4x4,float,1,0>::call
	DB	061H
	DB	063H
	DB	032H
	DB	00H
	ORG $+3
?call@?$compute_inverse@Utmat4x4@glm@@M$00$0A@@detail@glm@@SA?AU?$tmat4x4@M$00@3@AEBU43@@Z$rtcName$3 DB 046H ; glm::detail::compute_inverse<glm::tmat4x4,float,1,0>::call
	DB	061H
	DB	063H
	DB	033H
	DB	00H
	ORG $+3
?call@?$compute_inverse@Utmat4x4@glm@@M$00$0A@@detail@glm@@SA?AU?$tmat4x4@M$00@3@AEBU43@@Z$rtcName$4 DB 046H ; glm::detail::compute_inverse<glm::tmat4x4,float,1,0>::call
	DB	061H
	DB	063H
	DB	034H
	DB	00H
	ORG $+3
?call@?$compute_inverse@Utmat4x4@glm@@M$00$0A@@detail@glm@@SA?AU?$tmat4x4@M$00@3@AEBU43@@Z$rtcName$5 DB 046H ; glm::detail::compute_inverse<glm::tmat4x4,float,1,0>::call
	DB	061H
	DB	063H
	DB	035H
	DB	00H
	ORG $+3
?call@?$compute_inverse@Utmat4x4@glm@@M$00$0A@@detail@glm@@SA?AU?$tmat4x4@M$00@3@AEBU43@@Z$rtcName$6 DB 056H ; glm::detail::compute_inverse<glm::tmat4x4,float,1,0>::call
	DB	065H
	DB	063H
	DB	030H
	DB	00H
	ORG $+3
?call@?$compute_inverse@Utmat4x4@glm@@M$00$0A@@detail@glm@@SA?AU?$tmat4x4@M$00@3@AEBU43@@Z$rtcName$7 DB 056H ; glm::detail::compute_inverse<glm::tmat4x4,float,1,0>::call
	DB	065H
	DB	063H
	DB	031H
	DB	00H
	ORG $+3
?call@?$compute_inverse@Utmat4x4@glm@@M$00$0A@@detail@glm@@SA?AU?$tmat4x4@M$00@3@AEBU43@@Z$rtcName$8 DB 056H ; glm::detail::compute_inverse<glm::tmat4x4,float,1,0>::call
	DB	065H
	DB	063H
	DB	032H
	DB	00H
	ORG $+3
?call@?$compute_inverse@Utmat4x4@glm@@M$00$0A@@detail@glm@@SA?AU?$tmat4x4@M$00@3@AEBU43@@Z$rtcName$9 DB 056H ; glm::detail::compute_inverse<glm::tmat4x4,float,1,0>::call
	DB	065H
	DB	063H
	DB	033H
	DB	00H
	ORG $+3
?call@?$compute_inverse@Utmat4x4@glm@@M$00$0A@@detail@glm@@SA?AU?$tmat4x4@M$00@3@AEBU43@@Z$rtcName$10 DB 049H ; glm::detail::compute_inverse<glm::tmat4x4,float,1,0>::call
	DB	06eH
	DB	076H
	DB	030H
	DB	00H
	ORG $+3
?call@?$compute_inverse@Utmat4x4@glm@@M$00$0A@@detail@glm@@SA?AU?$tmat4x4@M$00@3@AEBU43@@Z$rtcName$11 DB 049H ; glm::detail::compute_inverse<glm::tmat4x4,float,1,0>::call
	DB	06eH
	DB	076H
	DB	031H
	DB	00H
	ORG $+3
?call@?$compute_inverse@Utmat4x4@glm@@M$00$0A@@detail@glm@@SA?AU?$tmat4x4@M$00@3@AEBU43@@Z$rtcName$12 DB 049H ; glm::detail::compute_inverse<glm::tmat4x4,float,1,0>::call
	DB	06eH
	DB	076H
	DB	032H
	DB	00H
	ORG $+3
?call@?$compute_inverse@Utmat4x4@glm@@M$00$0A@@detail@glm@@SA?AU?$tmat4x4@M$00@3@AEBU43@@Z$rtcName$13 DB 049H ; glm::detail::compute_inverse<glm::tmat4x4,float,1,0>::call
	DB	06eH
	DB	076H
	DB	033H
	DB	00H
	ORG $+3
?call@?$compute_inverse@Utmat4x4@glm@@M$00$0A@@detail@glm@@SA?AU?$tmat4x4@M$00@3@AEBU43@@Z$rtcName$14 DB 053H ; glm::detail::compute_inverse<glm::tmat4x4,float,1,0>::call
	DB	069H
	DB	067H
	DB	06eH
	DB	041H
	DB	00H
	ORG $+2
?call@?$compute_inverse@Utmat4x4@glm@@M$00$0A@@detail@glm@@SA?AU?$tmat4x4@M$00@3@AEBU43@@Z$rtcName$15 DB 053H ; glm::detail::compute_inverse<glm::tmat4x4,float,1,0>::call
	DB	069H
	DB	067H
	DB	06eH
	DB	042H
	DB	00H
	ORG $+2
?call@?$compute_inverse@Utmat4x4@glm@@M$00$0A@@detail@glm@@SA?AU?$tmat4x4@M$00@3@AEBU43@@Z$rtcName$16 DB 049H ; glm::detail::compute_inverse<glm::tmat4x4,float,1,0>::call
	DB	06eH
	DB	076H
	DB	065H
	DB	072H
	DB	073H
	DB	065H
	DB	00H
?call@?$compute_inverse@Utmat4x4@glm@@M$00$0A@@detail@glm@@SA?AU?$tmat4x4@M$00@3@AEBU43@@Z$rtcName$17 DB 052H ; glm::detail::compute_inverse<glm::tmat4x4,float,1,0>::call
	DB	06fH
	DB	077H
	DB	030H
	DB	00H
	ORG $+3
?call@?$compute_inverse@Utmat4x4@glm@@M$00$0A@@detail@glm@@SA?AU?$tmat4x4@M$00@3@AEBU43@@Z$rtcName$18 DB 044H ; glm::detail::compute_inverse<glm::tmat4x4,float,1,0>::call
	DB	06fH
	DB	074H
	DB	030H
	DB	00H
	ORG $+3
?call@?$compute_inverse@Utmat4x4@glm@@M$00$0A@@detail@glm@@SA?AU?$tmat4x4@M$00@3@AEBU43@@Z$rtcName$19 DB 04fH ; glm::detail::compute_inverse<glm::tmat4x4,float,1,0>::call
	DB	06eH
	DB	065H
	DB	04fH
	DB	076H
	DB	065H
	DB	072H
	DB	044H
	DB	065H
	DB	074H
	DB	065H
	DB	072H
	DB	06dH
	DB	069H
	DB	06eH
	DB	061H
	DB	06eH
	DB	074H
	DB	00H
	ORG $+5
?call@?$compute_inverse@Utmat4x4@glm@@M$00$0A@@detail@glm@@SA?AU?$tmat4x4@M$00@3@AEBU43@@Z$rtcVarDesc DD 0444H ; glm::detail::compute_inverse<glm::tmat4x4,float,1,0>::call
	DD	04H
	DQ	FLAT:?call@?$compute_inverse@Utmat4x4@glm@@M$00$0A@@detail@glm@@SA?AU?$tmat4x4@M$00@3@AEBU43@@Z$rtcName$19
	DD	0418H
	DD	010H
	DQ	FLAT:?call@?$compute_inverse@Utmat4x4@glm@@M$00$0A@@detail@glm@@SA?AU?$tmat4x4@M$00@3@AEBU43@@Z$rtcName$18
	DD	03e8H
	DD	010H
	DQ	FLAT:?call@?$compute_inverse@Utmat4x4@glm@@M$00$0A@@detail@glm@@SA?AU?$tmat4x4@M$00@3@AEBU43@@Z$rtcName$17
	DD	0390H
	DD	040H
	DQ	FLAT:?call@?$compute_inverse@Utmat4x4@glm@@M$00$0A@@detail@glm@@SA?AU?$tmat4x4@M$00@3@AEBU43@@Z$rtcName$16
	DD	0358H
	DD	010H
	DQ	FLAT:?call@?$compute_inverse@Utmat4x4@glm@@M$00$0A@@detail@glm@@SA?AU?$tmat4x4@M$00@3@AEBU43@@Z$rtcName$15
	DD	0328H
	DD	010H
	DQ	FLAT:?call@?$compute_inverse@Utmat4x4@glm@@M$00$0A@@detail@glm@@SA?AU?$tmat4x4@M$00@3@AEBU43@@Z$rtcName$14
	DD	02f8H
	DD	010H
	DQ	FLAT:?call@?$compute_inverse@Utmat4x4@glm@@M$00$0A@@detail@glm@@SA?AU?$tmat4x4@M$00@3@AEBU43@@Z$rtcName$13
	DD	02c8H
	DD	010H
	DQ	FLAT:?call@?$compute_inverse@Utmat4x4@glm@@M$00$0A@@detail@glm@@SA?AU?$tmat4x4@M$00@3@AEBU43@@Z$rtcName$12
	DD	0298H
	DD	010H
	DQ	FLAT:?call@?$compute_inverse@Utmat4x4@glm@@M$00$0A@@detail@glm@@SA?AU?$tmat4x4@M$00@3@AEBU43@@Z$rtcName$11
	DD	0268H
	DD	010H
	DQ	FLAT:?call@?$compute_inverse@Utmat4x4@glm@@M$00$0A@@detail@glm@@SA?AU?$tmat4x4@M$00@3@AEBU43@@Z$rtcName$10
	DD	0238H
	DD	010H
	DQ	FLAT:?call@?$compute_inverse@Utmat4x4@glm@@M$00$0A@@detail@glm@@SA?AU?$tmat4x4@M$00@3@AEBU43@@Z$rtcName$9
	DD	0208H
	DD	010H
	DQ	FLAT:?call@?$compute_inverse@Utmat4x4@glm@@M$00$0A@@detail@glm@@SA?AU?$tmat4x4@M$00@3@AEBU43@@Z$rtcName$8
	DD	01d8H
	DD	010H
	DQ	FLAT:?call@?$compute_inverse@Utmat4x4@glm@@M$00$0A@@detail@glm@@SA?AU?$tmat4x4@M$00@3@AEBU43@@Z$rtcName$7
	DD	01a8H
	DD	010H
	DQ	FLAT:?call@?$compute_inverse@Utmat4x4@glm@@M$00$0A@@detail@glm@@SA?AU?$tmat4x4@M$00@3@AEBU43@@Z$rtcName$6
	DD	0178H
	DD	010H
	DQ	FLAT:?call@?$compute_inverse@Utmat4x4@glm@@M$00$0A@@detail@glm@@SA?AU?$tmat4x4@M$00@3@AEBU43@@Z$rtcName$5
	DD	0148H
	DD	010H
	DQ	FLAT:?call@?$compute_inverse@Utmat4x4@glm@@M$00$0A@@detail@glm@@SA?AU?$tmat4x4@M$00@3@AEBU43@@Z$rtcName$4
	DD	0118H
	DD	010H
	DQ	FLAT:?call@?$compute_inverse@Utmat4x4@glm@@M$00$0A@@detail@glm@@SA?AU?$tmat4x4@M$00@3@AEBU43@@Z$rtcName$3
	DD	0e8H
	DD	010H
	DQ	FLAT:?call@?$compute_inverse@Utmat4x4@glm@@M$00$0A@@detail@glm@@SA?AU?$tmat4x4@M$00@3@AEBU43@@Z$rtcName$2
	DD	0b8H
	DD	010H
	DQ	FLAT:?call@?$compute_inverse@Utmat4x4@glm@@M$00$0A@@detail@glm@@SA?AU?$tmat4x4@M$00@3@AEBU43@@Z$rtcName$1
	DD	088H
	DD	010H
	DQ	FLAT:?call@?$compute_inverse@Utmat4x4@glm@@M$00$0A@@detail@glm@@SA?AU?$tmat4x4@M$00@3@AEBU43@@Z$rtcName$0
	ORG $+960
?call@?$compute_inverse@Utmat4x4@glm@@M$00$0A@@detail@glm@@SA?AU?$tmat4x4@M$00@3@AEBU43@@Z$rtcFrameData DD 014H ; glm::detail::compute_inverse<glm::tmat4x4,float,1,0>::call
	DD	00H
	DQ	FLAT:?call@?$compute_inverse@Utmat4x4@glm@@M$00$0A@@detail@glm@@SA?AU?$tmat4x4@M$00@3@AEBU43@@Z$rtcVarDesc
CONST	ENDS
;	COMDAT xdata
xdata	SEGMENT
$unwind$??$lessThan@M$0A@Utvec4@glm@@@glm@@YA?AU?$tvec4@_N$0A@@0@AEBU?$tvec4@M$0A@@0@0@Z DD 022a01H
	DD	070109214H
xdata	ENDS
;	COMDAT CONST
CONST	SEGMENT
??$lessThan@M$0A@Utvec4@glm@@@glm@@YA?AU?$tvec4@_N$0A@@0@AEBU?$tvec4@M$0A@@0@0@Z$rtcName$0 DB 052H ; glm::lessThan<float,0,glm::tvec4>
	DB	065H
	DB	073H
	DB	075H
	DB	06cH
	DB	074H
	DB	00H
	ORG $+9
??$lessThan@M$0A@Utvec4@glm@@@glm@@YA?AU?$tvec4@_N$0A@@0@AEBU?$tvec4@M$0A@@0@0@Z$rtcVarDesc DD 024H ; glm::lessThan<float,0,glm::tvec4>
	DD	04H
	DQ	FLAT:??$lessThan@M$0A@Utvec4@glm@@@glm@@YA?AU?$tvec4@_N$0A@@0@AEBU?$tvec4@M$0A@@0@0@Z$rtcName$0
	ORG $+48
??$lessThan@M$0A@Utvec4@glm@@@glm@@YA?AU?$tvec4@_N$0A@@0@AEBU?$tvec4@M$0A@@0@0@Z$rtcFrameData DD 01H ; glm::lessThan<float,0,glm::tvec4>
	DD	00H
	DQ	FLAT:??$lessThan@M$0A@Utvec4@glm@@@glm@@YA?AU?$tvec4@_N$0A@@0@AEBU?$tvec4@M$0A@@0@0@Z$rtcVarDesc
CONST	ENDS
;	COMDAT xdata
xdata	SEGMENT
$unwind$??$abs@M$0A@Utvec4@glm@@@glm@@YA?AU?$tvec4@M$0A@@0@AEBU10@@Z DD 020f01H
	DD	0700b320fH
xdata	ENDS
;	COMDAT xdata
xdata	SEGMENT
$unwind$??$?GM$0A@@glm@@YA?AU?$tvec4@M$0A@@0@AEBU10@0@Z DD 031501H
	DD	070116215H
	DD	06010H
xdata	ENDS
;	COMDAT xdata
xdata	SEGMENT
$unwind$??$?8M$0A@@glm@@YA_NAEBU?$tvec4@M$0A@@0@0@Z DD 020f01H
	DD	0700b320fH
xdata	ENDS
;	COMDAT xdata
xdata	SEGMENT
$unwind$??$?9M$0A@@glm@@YA_NAEBU?$tvec4@M$0A@@0@0@Z DD 020f01H
	DD	0700b320fH
xdata	ENDS
;	COMDAT xdata
xdata	SEGMENT
$unwind$??$?KM$0A@@glm@@YA?AU?$tvec4@M$0A@@0@AEBU10@M@Z DD 031601H
	DD	070126216H
	DD	06011H
xdata	ENDS
;	COMDAT xdata
xdata	SEGMENT
$unwind$??$?KM$0A@@glm@@YA?AU?$tvec4@M$0A@@0@MAEBU10@@Z DD 031601H
	DD	070126216H
	DD	06011H
xdata	ENDS
;	COMDAT xdata
xdata	SEGMENT
$unwind$??$?HN$0A@@glm@@YA?AU?$tvec4@N$0A@@0@AEBU10@0@Z DD 031501H
	DD	070118215H
	DD	06010H
xdata	ENDS
;	COMDAT xdata
xdata	SEGMENT
$unwind$??$?DN$0A@@glm@@YA?AU?$tvec4@N$0A@@0@AEBU10@N@Z DD 031601H
	DD	070128216H
	DD	06011H
xdata	ENDS
;	COMDAT voltbl
voltbl	SEGMENT
_volmd	DW	035H
	DW	0177cH
voltbl	ENDS
;	COMDAT xdata
xdata	SEGMENT
$unwind$?call@?$compute_inverse@Utmat4x4@glm@@N$0A@$0A@@detail@glm@@SA?AU?$tmat4x4@N$0A@@3@AEBU43@@Z DD 033d19H
	DD	01620112H
	DD	0700bH
	DD	imagerel __GSHandlerCheck
	DD	0b00H
xdata	ENDS
;	COMDAT CONST
CONST	SEGMENT
?call@?$compute_inverse@Utmat4x4@glm@@N$0A@$0A@@detail@glm@@SA?AU?$tmat4x4@N$0A@@3@AEBU43@@Z$rtcName$0 DB 046H ; glm::detail::compute_inverse<glm::tmat4x4,double,0,0>::call
	DB	061H
	DB	063H
	DB	030H
	DB	00H
	ORG $+3
?call@?$compute_inverse@Utmat4x4@glm@@N$0A@$0A@@detail@glm@@SA?AU?$tmat4x4@N$0A@@3@AEBU43@@Z$rtcName$1 DB 046H ; glm::detail::compute_inverse<glm::tmat4x4,double,0,0>::call
	DB	061H
	DB	063H
	DB	031H
	DB	00H
	ORG $+3
?call@?$compute_inverse@Utmat4x4@glm@@N$0A@$0A@@detail@glm@@SA?AU?$tmat4x4@N$0A@@3@AEBU43@@Z$rtcName$2 DB 046H ; glm::detail::compute_inverse<glm::tmat4x4,double,0,0>::call
	DB	061H
	DB	063H
	DB	032H
	DB	00H
	ORG $+3
?call@?$compute_inverse@Utmat4x4@glm@@N$0A@$0A@@detail@glm@@SA?AU?$tmat4x4@N$0A@@3@AEBU43@@Z$rtcName$3 DB 046H ; glm::detail::compute_inverse<glm::tmat4x4,double,0,0>::call
	DB	061H
	DB	063H
	DB	033H
	DB	00H
	ORG $+3
?call@?$compute_inverse@Utmat4x4@glm@@N$0A@$0A@@detail@glm@@SA?AU?$tmat4x4@N$0A@@3@AEBU43@@Z$rtcName$4 DB 046H ; glm::detail::compute_inverse<glm::tmat4x4,double,0,0>::call
	DB	061H
	DB	063H
	DB	034H
	DB	00H
	ORG $+3
?call@?$compute_inverse@Utmat4x4@glm@@N$0A@$0A@@detail@glm@@SA?AU?$tmat4x4@N$0A@@3@AEBU43@@Z$rtcName$5 DB 046H ; glm::detail::compute_inverse<glm::tmat4x4,double,0,0>::call
	DB	061H
	DB	063H
	DB	035H
	DB	00H
	ORG $+3
?call@?$compute_inverse@Utmat4x4@glm@@N$0A@$0A@@detail@glm@@SA?AU?$tmat4x4@N$0A@@3@AEBU43@@Z$rtcName$6 DB 056H ; glm::detail::compute_inverse<glm::tmat4x4,double,0,0>::call
	DB	065H
	DB	063H
	DB	030H
	DB	00H
	ORG $+3
?call@?$compute_inverse@Utmat4x4@glm@@N$0A@$0A@@detail@glm@@SA?AU?$tmat4x4@N$0A@@3@AEBU43@@Z$rtcName$7 DB 056H ; glm::detail::compute_inverse<glm::tmat4x4,double,0,0>::call
	DB	065H
	DB	063H
	DB	031H
	DB	00H
	ORG $+3
?call@?$compute_inverse@Utmat4x4@glm@@N$0A@$0A@@detail@glm@@SA?AU?$tmat4x4@N$0A@@3@AEBU43@@Z$rtcName$8 DB 056H ; glm::detail::compute_inverse<glm::tmat4x4,double,0,0>::call
	DB	065H
	DB	063H
	DB	032H
	DB	00H
	ORG $+3
?call@?$compute_inverse@Utmat4x4@glm@@N$0A@$0A@@detail@glm@@SA?AU?$tmat4x4@N$0A@@3@AEBU43@@Z$rtcName$9 DB 056H ; glm::detail::compute_inverse<glm::tmat4x4,double,0,0>::call
	DB	065H
	DB	063H
	DB	033H
	DB	00H
	ORG $+3
?call@?$compute_inverse@Utmat4x4@glm@@N$0A@$0A@@detail@glm@@SA?AU?$tmat4x4@N$0A@@3@AEBU43@@Z$rtcName$10 DB 049H ; glm::detail::compute_inverse<glm::tmat4x4,double,0,0>::call
	DB	06eH
	DB	076H
	DB	030H
	DB	00H
	ORG $+3
?call@?$compute_inverse@Utmat4x4@glm@@N$0A@$0A@@detail@glm@@SA?AU?$tmat4x4@N$0A@@3@AEBU43@@Z$rtcName$11 DB 049H ; glm::detail::compute_inverse<glm::tmat4x4,double,0,0>::call
	DB	06eH
	DB	076H
	DB	031H
	DB	00H
	ORG $+3
?call@?$compute_inverse@Utmat4x4@glm@@N$0A@$0A@@detail@glm@@SA?AU?$tmat4x4@N$0A@@3@AEBU43@@Z$rtcName$12 DB 049H ; glm::detail::compute_inverse<glm::tmat4x4,double,0,0>::call
	DB	06eH
	DB	076H
	DB	032H
	DB	00H
	ORG $+3
?call@?$compute_inverse@Utmat4x4@glm@@N$0A@$0A@@detail@glm@@SA?AU?$tmat4x4@N$0A@@3@AEBU43@@Z$rtcName$13 DB 049H ; glm::detail::compute_inverse<glm::tmat4x4,double,0,0>::call
	DB	06eH
	DB	076H
	DB	033H
	DB	00H
	ORG $+3
?call@?$compute_inverse@Utmat4x4@glm@@N$0A@$0A@@detail@glm@@SA?AU?$tmat4x4@N$0A@@3@AEBU43@@Z$rtcName$14 DB 053H ; glm::detail::compute_inverse<glm::tmat4x4,double,0,0>::call
	DB	069H
	DB	067H
	DB	06eH
	DB	041H
	DB	00H
	ORG $+2
?call@?$compute_inverse@Utmat4x4@glm@@N$0A@$0A@@detail@glm@@SA?AU?$tmat4x4@N$0A@@3@AEBU43@@Z$rtcName$15 DB 053H ; glm::detail::compute_inverse<glm::tmat4x4,double,0,0>::call
	DB	069H
	DB	067H
	DB	06eH
	DB	042H
	DB	00H
	ORG $+2
?call@?$compute_inverse@Utmat4x4@glm@@N$0A@$0A@@detail@glm@@SA?AU?$tmat4x4@N$0A@@3@AEBU43@@Z$rtcName$16 DB 049H ; glm::detail::compute_inverse<glm::tmat4x4,double,0,0>::call
	DB	06eH
	DB	076H
	DB	065H
	DB	072H
	DB	073H
	DB	065H
	DB	00H
?call@?$compute_inverse@Utmat4x4@glm@@N$0A@$0A@@detail@glm@@SA?AU?$tmat4x4@N$0A@@3@AEBU43@@Z$rtcName$17 DB 052H ; glm::detail::compute_inverse<glm::tmat4x4,double,0,0>::call
	DB	06fH
	DB	077H
	DB	030H
	DB	00H
	ORG $+3
?call@?$compute_inverse@Utmat4x4@glm@@N$0A@$0A@@detail@glm@@SA?AU?$tmat4x4@N$0A@@3@AEBU43@@Z$rtcName$18 DB 044H ; glm::detail::compute_inverse<glm::tmat4x4,double,0,0>::call
	DB	06fH
	DB	074H
	DB	030H
	DB	00H
	ORG $+3
?call@?$compute_inverse@Utmat4x4@glm@@N$0A@$0A@@detail@glm@@SA?AU?$tmat4x4@N$0A@@3@AEBU43@@Z$rtcName$19 DB 04fH ; glm::detail::compute_inverse<glm::tmat4x4,double,0,0>::call
	DB	06eH
	DB	065H
	DB	04fH
	DB	076H
	DB	065H
	DB	072H
	DB	044H
	DB	065H
	DB	074H
	DB	065H
	DB	072H
	DB	06dH
	DB	069H
	DB	06eH
	DB	061H
	DB	06eH
	DB	074H
	DB	00H
	ORG $+5
?call@?$compute_inverse@Utmat4x4@glm@@N$0A@$0A@@detail@glm@@SA?AU?$tmat4x4@N$0A@@3@AEBU43@@Z$rtcVarDesc DD 05e8H ; glm::detail::compute_inverse<glm::tmat4x4,double,0,0>::call
	DD	08H
	DQ	FLAT:?call@?$compute_inverse@Utmat4x4@glm@@N$0A@$0A@@detail@glm@@SA?AU?$tmat4x4@N$0A@@3@AEBU43@@Z$rtcName$19
	DD	05a8H
	DD	020H
	DQ	FLAT:?call@?$compute_inverse@Utmat4x4@glm@@N$0A@$0A@@detail@glm@@SA?AU?$tmat4x4@N$0A@@3@AEBU43@@Z$rtcName$18
	DD	0568H
	DD	020H
	DQ	FLAT:?call@?$compute_inverse@Utmat4x4@glm@@N$0A@$0A@@detail@glm@@SA?AU?$tmat4x4@N$0A@@3@AEBU43@@Z$rtcName$17
	DD	04d0H
	DD	080H
	DQ	FLAT:?call@?$compute_inverse@Utmat4x4@glm@@N$0A@$0A@@detail@glm@@SA?AU?$tmat4x4@N$0A@@3@AEBU43@@Z$rtcName$16
	DD	0488H
	DD	020H
	DQ	FLAT:?call@?$compute_inverse@Utmat4x4@glm@@N$0A@$0A@@detail@glm@@SA?AU?$tmat4x4@N$0A@@3@AEBU43@@Z$rtcName$15
	DD	0448H
	DD	020H
	DQ	FLAT:?call@?$compute_inverse@Utmat4x4@glm@@N$0A@$0A@@detail@glm@@SA?AU?$tmat4x4@N$0A@@3@AEBU43@@Z$rtcName$14
	DD	0408H
	DD	020H
	DQ	FLAT:?call@?$compute_inverse@Utmat4x4@glm@@N$0A@$0A@@detail@glm@@SA?AU?$tmat4x4@N$0A@@3@AEBU43@@Z$rtcName$13
	DD	03c8H
	DD	020H
	DQ	FLAT:?call@?$compute_inverse@Utmat4x4@glm@@N$0A@$0A@@detail@glm@@SA?AU?$tmat4x4@N$0A@@3@AEBU43@@Z$rtcName$12
	DD	0388H
	DD	020H
	DQ	FLAT:?call@?$compute_inverse@Utmat4x4@glm@@N$0A@$0A@@detail@glm@@SA?AU?$tmat4x4@N$0A@@3@AEBU43@@Z$rtcName$11
	DD	0348H
	DD	020H
	DQ	FLAT:?call@?$compute_inverse@Utmat4x4@glm@@N$0A@$0A@@detail@glm@@SA?AU?$tmat4x4@N$0A@@3@AEBU43@@Z$rtcName$10
	DD	0308H
	DD	020H
	DQ	FLAT:?call@?$compute_inverse@Utmat4x4@glm@@N$0A@$0A@@detail@glm@@SA?AU?$tmat4x4@N$0A@@3@AEBU43@@Z$rtcName$9
	DD	02c8H
	DD	020H
	DQ	FLAT:?call@?$compute_inverse@Utmat4x4@glm@@N$0A@$0A@@detail@glm@@SA?AU?$tmat4x4@N$0A@@3@AEBU43@@Z$rtcName$8
	DD	0288H
	DD	020H
	DQ	FLAT:?call@?$compute_inverse@Utmat4x4@glm@@N$0A@$0A@@detail@glm@@SA?AU?$tmat4x4@N$0A@@3@AEBU43@@Z$rtcName$7
	DD	0248H
	DD	020H
	DQ	FLAT:?call@?$compute_inverse@Utmat4x4@glm@@N$0A@$0A@@detail@glm@@SA?AU?$tmat4x4@N$0A@@3@AEBU43@@Z$rtcName$6
	DD	0208H
	DD	020H
	DQ	FLAT:?call@?$compute_inverse@Utmat4x4@glm@@N$0A@$0A@@detail@glm@@SA?AU?$tmat4x4@N$0A@@3@AEBU43@@Z$rtcName$5
	DD	01c8H
	DD	020H
	DQ	FLAT:?call@?$compute_inverse@Utmat4x4@glm@@N$0A@$0A@@detail@glm@@SA?AU?$tmat4x4@N$0A@@3@AEBU43@@Z$rtcName$4
	DD	0188H
	DD	020H
	DQ	FLAT:?call@?$compute_inverse@Utmat4x4@glm@@N$0A@$0A@@detail@glm@@SA?AU?$tmat4x4@N$0A@@3@AEBU43@@Z$rtcName$3
	DD	0148H
	DD	020H
	DQ	FLAT:?call@?$compute_inverse@Utmat4x4@glm@@N$0A@$0A@@detail@glm@@SA?AU?$tmat4x4@N$0A@@3@AEBU43@@Z$rtcName$2
	DD	0108H
	DD	020H
	DQ	FLAT:?call@?$compute_inverse@Utmat4x4@glm@@N$0A@$0A@@detail@glm@@SA?AU?$tmat4x4@N$0A@@3@AEBU43@@Z$rtcName$1
	DD	0c8H
	DD	020H
	DQ	FLAT:?call@?$compute_inverse@Utmat4x4@glm@@N$0A@$0A@@detail@glm@@SA?AU?$tmat4x4@N$0A@@3@AEBU43@@Z$rtcName$0
	ORG $+960
?call@?$compute_inverse@Utmat4x4@glm@@N$0A@$0A@@detail@glm@@SA?AU?$tmat4x4@N$0A@@3@AEBU43@@Z$rtcFrameData DD 014H ; glm::detail::compute_inverse<glm::tmat4x4,double,0,0>::call
	DD	00H
	DQ	FLAT:?call@?$compute_inverse@Utmat4x4@glm@@N$0A@$0A@@detail@glm@@SA?AU?$tmat4x4@N$0A@@3@AEBU43@@Z$rtcVarDesc
CONST	ENDS
;	COMDAT xdata
xdata	SEGMENT
$unwind$??$?DM$0A@@glm@@YA?AU?$tvec4@M$0A@@0@AEBU10@M@Z DD 031601H
	DD	070126216H
	DD	06011H
xdata	ENDS
;	COMDAT xdata
xdata	SEGMENT
$unwind$??$?HM$0A@@glm@@YA?AU?$tvec4@M$0A@@0@AEBU10@0@Z DD 031501H
	DD	070116215H
	DD	06010H
xdata	ENDS
;	COMDAT xdata
xdata	SEGMENT
$unwind$??$?DM$0A@@glm@@YA?AU?$tvec4@M$0A@@0@AEBU10@0@Z DD 031501H
	DD	070116215H
	DD	06010H
xdata	ENDS
;	COMDAT voltbl
voltbl	SEGMENT
_volmd	DW	035H
	DW	01746H
voltbl	ENDS
;	COMDAT xdata
xdata	SEGMENT
$unwind$?call@?$compute_inverse@Utmat4x4@glm@@M$0A@$0A@@detail@glm@@SA?AU?$tmat4x4@M$0A@@3@AEBU43@@Z DD 033d19H
	DD	01060112H
	DD	0700bH
	DD	imagerel __GSHandlerCheck
	DD	0820H
xdata	ENDS
;	COMDAT CONST
CONST	SEGMENT
?call@?$compute_inverse@Utmat4x4@glm@@M$0A@$0A@@detail@glm@@SA?AU?$tmat4x4@M$0A@@3@AEBU43@@Z$rtcName$0 DB 046H ; glm::detail::compute_inverse<glm::tmat4x4,float,0,0>::call
	DB	061H
	DB	063H
	DB	030H
	DB	00H
	ORG $+3
?call@?$compute_inverse@Utmat4x4@glm@@M$0A@$0A@@detail@glm@@SA?AU?$tmat4x4@M$0A@@3@AEBU43@@Z$rtcName$1 DB 046H ; glm::detail::compute_inverse<glm::tmat4x4,float,0,0>::call
	DB	061H
	DB	063H
	DB	031H
	DB	00H
	ORG $+3
?call@?$compute_inverse@Utmat4x4@glm@@M$0A@$0A@@detail@glm@@SA?AU?$tmat4x4@M$0A@@3@AEBU43@@Z$rtcName$2 DB 046H ; glm::detail::compute_inverse<glm::tmat4x4,float,0,0>::call
	DB	061H
	DB	063H
	DB	032H
	DB	00H
	ORG $+3
?call@?$compute_inverse@Utmat4x4@glm@@M$0A@$0A@@detail@glm@@SA?AU?$tmat4x4@M$0A@@3@AEBU43@@Z$rtcName$3 DB 046H ; glm::detail::compute_inverse<glm::tmat4x4,float,0,0>::call
	DB	061H
	DB	063H
	DB	033H
	DB	00H
	ORG $+3
?call@?$compute_inverse@Utmat4x4@glm@@M$0A@$0A@@detail@glm@@SA?AU?$tmat4x4@M$0A@@3@AEBU43@@Z$rtcName$4 DB 046H ; glm::detail::compute_inverse<glm::tmat4x4,float,0,0>::call
	DB	061H
	DB	063H
	DB	034H
	DB	00H
	ORG $+3
?call@?$compute_inverse@Utmat4x4@glm@@M$0A@$0A@@detail@glm@@SA?AU?$tmat4x4@M$0A@@3@AEBU43@@Z$rtcName$5 DB 046H ; glm::detail::compute_inverse<glm::tmat4x4,float,0,0>::call
	DB	061H
	DB	063H
	DB	035H
	DB	00H
	ORG $+3
?call@?$compute_inverse@Utmat4x4@glm@@M$0A@$0A@@detail@glm@@SA?AU?$tmat4x4@M$0A@@3@AEBU43@@Z$rtcName$6 DB 056H ; glm::detail::compute_inverse<glm::tmat4x4,float,0,0>::call
	DB	065H
	DB	063H
	DB	030H
	DB	00H
	ORG $+3
?call@?$compute_inverse@Utmat4x4@glm@@M$0A@$0A@@detail@glm@@SA?AU?$tmat4x4@M$0A@@3@AEBU43@@Z$rtcName$7 DB 056H ; glm::detail::compute_inverse<glm::tmat4x4,float,0,0>::call
	DB	065H
	DB	063H
	DB	031H
	DB	00H
	ORG $+3
?call@?$compute_inverse@Utmat4x4@glm@@M$0A@$0A@@detail@glm@@SA?AU?$tmat4x4@M$0A@@3@AEBU43@@Z$rtcName$8 DB 056H ; glm::detail::compute_inverse<glm::tmat4x4,float,0,0>::call
	DB	065H
	DB	063H
	DB	032H
	DB	00H
	ORG $+3
?call@?$compute_inverse@Utmat4x4@glm@@M$0A@$0A@@detail@glm@@SA?AU?$tmat4x4@M$0A@@3@AEBU43@@Z$rtcName$9 DB 056H ; glm::detail::compute_inverse<glm::tmat4x4,float,0,0>::call
	DB	065H
	DB	063H
	DB	033H
	DB	00H
	ORG $+3
?call@?$compute_inverse@Utmat4x4@glm@@M$0A@$0A@@detail@glm@@SA?AU?$tmat4x4@M$0A@@3@AEBU43@@Z$rtcName$10 DB 049H ; glm::detail::compute_inverse<glm::tmat4x4,float,0,0>::call
	DB	06eH
	DB	076H
	DB	030H
	DB	00H
	ORG $+3
?call@?$compute_inverse@Utmat4x4@glm@@M$0A@$0A@@detail@glm@@SA?AU?$tmat4x4@M$0A@@3@AEBU43@@Z$rtcName$11 DB 049H ; glm::detail::compute_inverse<glm::tmat4x4,float,0,0>::call
	DB	06eH
	DB	076H
	DB	031H
	DB	00H
	ORG $+3
?call@?$compute_inverse@Utmat4x4@glm@@M$0A@$0A@@detail@glm@@SA?AU?$tmat4x4@M$0A@@3@AEBU43@@Z$rtcName$12 DB 049H ; glm::detail::compute_inverse<glm::tmat4x4,float,0,0>::call
	DB	06eH
	DB	076H
	DB	032H
	DB	00H
	ORG $+3
?call@?$compute_inverse@Utmat4x4@glm@@M$0A@$0A@@detail@glm@@SA?AU?$tmat4x4@M$0A@@3@AEBU43@@Z$rtcName$13 DB 049H ; glm::detail::compute_inverse<glm::tmat4x4,float,0,0>::call
	DB	06eH
	DB	076H
	DB	033H
	DB	00H
	ORG $+3
?call@?$compute_inverse@Utmat4x4@glm@@M$0A@$0A@@detail@glm@@SA?AU?$tmat4x4@M$0A@@3@AEBU43@@Z$rtcName$14 DB 053H ; glm::detail::compute_inverse<glm::tmat4x4,float,0,0>::call
	DB	069H
	DB	067H
	DB	06eH
	DB	041H
	DB	00H
	ORG $+2
?call@?$compute_inverse@Utmat4x4@glm@@M$0A@$0A@@detail@glm@@SA?AU?$tmat4x4@M$0A@@3@AEBU43@@Z$rtcName$15 DB 053H ; glm::detail::compute_inverse<glm::tmat4x4,float,0,0>::call
	DB	069H
	DB	067H
	DB	06eH
	DB	042H
	DB	00H
	ORG $+2
?call@?$compute_inverse@Utmat4x4@glm@@M$0A@$0A@@detail@glm@@SA?AU?$tmat4x4@M$0A@@3@AEBU43@@Z$rtcName$16 DB 049H ; glm::detail::compute_inverse<glm::tmat4x4,float,0,0>::call
	DB	06eH
	DB	076H
	DB	065H
	DB	072H
	DB	073H
	DB	065H
	DB	00H
?call@?$compute_inverse@Utmat4x4@glm@@M$0A@$0A@@detail@glm@@SA?AU?$tmat4x4@M$0A@@3@AEBU43@@Z$rtcName$17 DB 052H ; glm::detail::compute_inverse<glm::tmat4x4,float,0,0>::call
	DB	06fH
	DB	077H
	DB	030H
	DB	00H
	ORG $+3
?call@?$compute_inverse@Utmat4x4@glm@@M$0A@$0A@@detail@glm@@SA?AU?$tmat4x4@M$0A@@3@AEBU43@@Z$rtcName$18 DB 044H ; glm::detail::compute_inverse<glm::tmat4x4,float,0,0>::call
	DB	06fH
	DB	074H
	DB	030H
	DB	00H
	ORG $+3
?call@?$compute_inverse@Utmat4x4@glm@@M$0A@$0A@@detail@glm@@SA?AU?$tmat4x4@M$0A@@3@AEBU43@@Z$rtcName$19 DB 04fH ; glm::detail::compute_inverse<glm::tmat4x4,float,0,0>::call
	DB	06eH
	DB	065H
	DB	04fH
	DB	076H
	DB	065H
	DB	072H
	DB	044H
	DB	065H
	DB	074H
	DB	065H
	DB	072H
	DB	06dH
	DB	069H
	DB	06eH
	DB	061H
	DB	06eH
	DB	074H
	DB	00H
	ORG $+5
?call@?$compute_inverse@Utmat4x4@glm@@M$0A@$0A@@detail@glm@@SA?AU?$tmat4x4@M$0A@@3@AEBU43@@Z$rtcVarDesc DD 0444H ; glm::detail::compute_inverse<glm::tmat4x4,float,0,0>::call
	DD	04H
	DQ	FLAT:?call@?$compute_inverse@Utmat4x4@glm@@M$0A@$0A@@detail@glm@@SA?AU?$tmat4x4@M$0A@@3@AEBU43@@Z$rtcName$19
	DD	0418H
	DD	010H
	DQ	FLAT:?call@?$compute_inverse@Utmat4x4@glm@@M$0A@$0A@@detail@glm@@SA?AU?$tmat4x4@M$0A@@3@AEBU43@@Z$rtcName$18
	DD	03e8H
	DD	010H
	DQ	FLAT:?call@?$compute_inverse@Utmat4x4@glm@@M$0A@$0A@@detail@glm@@SA?AU?$tmat4x4@M$0A@@3@AEBU43@@Z$rtcName$17
	DD	0390H
	DD	040H
	DQ	FLAT:?call@?$compute_inverse@Utmat4x4@glm@@M$0A@$0A@@detail@glm@@SA?AU?$tmat4x4@M$0A@@3@AEBU43@@Z$rtcName$16
	DD	0358H
	DD	010H
	DQ	FLAT:?call@?$compute_inverse@Utmat4x4@glm@@M$0A@$0A@@detail@glm@@SA?AU?$tmat4x4@M$0A@@3@AEBU43@@Z$rtcName$15
	DD	0328H
	DD	010H
	DQ	FLAT:?call@?$compute_inverse@Utmat4x4@glm@@M$0A@$0A@@detail@glm@@SA?AU?$tmat4x4@M$0A@@3@AEBU43@@Z$rtcName$14
	DD	02f8H
	DD	010H
	DQ	FLAT:?call@?$compute_inverse@Utmat4x4@glm@@M$0A@$0A@@detail@glm@@SA?AU?$tmat4x4@M$0A@@3@AEBU43@@Z$rtcName$13
	DD	02c8H
	DD	010H
	DQ	FLAT:?call@?$compute_inverse@Utmat4x4@glm@@M$0A@$0A@@detail@glm@@SA?AU?$tmat4x4@M$0A@@3@AEBU43@@Z$rtcName$12
	DD	0298H
	DD	010H
	DQ	FLAT:?call@?$compute_inverse@Utmat4x4@glm@@M$0A@$0A@@detail@glm@@SA?AU?$tmat4x4@M$0A@@3@AEBU43@@Z$rtcName$11
	DD	0268H
	DD	010H
	DQ	FLAT:?call@?$compute_inverse@Utmat4x4@glm@@M$0A@$0A@@detail@glm@@SA?AU?$tmat4x4@M$0A@@3@AEBU43@@Z$rtcName$10
	DD	0238H
	DD	010H
	DQ	FLAT:?call@?$compute_inverse@Utmat4x4@glm@@M$0A@$0A@@detail@glm@@SA?AU?$tmat4x4@M$0A@@3@AEBU43@@Z$rtcName$9
	DD	0208H
	DD	010H
	DQ	FLAT:?call@?$compute_inverse@Utmat4x4@glm@@M$0A@$0A@@detail@glm@@SA?AU?$tmat4x4@M$0A@@3@AEBU43@@Z$rtcName$8
	DD	01d8H
	DD	010H
	DQ	FLAT:?call@?$compute_inverse@Utmat4x4@glm@@M$0A@$0A@@detail@glm@@SA?AU?$tmat4x4@M$0A@@3@AEBU43@@Z$rtcName$7
	DD	01a8H
	DD	010H
	DQ	FLAT:?call@?$compute_inverse@Utmat4x4@glm@@M$0A@$0A@@detail@glm@@SA?AU?$tmat4x4@M$0A@@3@AEBU43@@Z$rtcName$6
	DD	0178H
	DD	010H
	DQ	FLAT:?call@?$compute_inverse@Utmat4x4@glm@@M$0A@$0A@@detail@glm@@SA?AU?$tmat4x4@M$0A@@3@AEBU43@@Z$rtcName$5
	DD	0148H
	DD	010H
	DQ	FLAT:?call@?$compute_inverse@Utmat4x4@glm@@M$0A@$0A@@detail@glm@@SA?AU?$tmat4x4@M$0A@@3@AEBU43@@Z$rtcName$4
	DD	0118H
	DD	010H
	DQ	FLAT:?call@?$compute_inverse@Utmat4x4@glm@@M$0A@$0A@@detail@glm@@SA?AU?$tmat4x4@M$0A@@3@AEBU43@@Z$rtcName$3
	DD	0e8H
	DD	010H
	DQ	FLAT:?call@?$compute_inverse@Utmat4x4@glm@@M$0A@$0A@@detail@glm@@SA?AU?$tmat4x4@M$0A@@3@AEBU43@@Z$rtcName$2
	DD	0b8H
	DD	010H
	DQ	FLAT:?call@?$compute_inverse@Utmat4x4@glm@@M$0A@$0A@@detail@glm@@SA?AU?$tmat4x4@M$0A@@3@AEBU43@@Z$rtcName$1
	DD	088H
	DD	010H
	DQ	FLAT:?call@?$compute_inverse@Utmat4x4@glm@@M$0A@$0A@@detail@glm@@SA?AU?$tmat4x4@M$0A@@3@AEBU43@@Z$rtcName$0
	ORG $+960
?call@?$compute_inverse@Utmat4x4@glm@@M$0A@$0A@@detail@glm@@SA?AU?$tmat4x4@M$0A@@3@AEBU43@@Z$rtcFrameData DD 014H ; glm::detail::compute_inverse<glm::tmat4x4,float,0,0>::call
	DD	00H
	DQ	FLAT:?call@?$compute_inverse@Utmat4x4@glm@@M$0A@$0A@@detail@glm@@SA?AU?$tmat4x4@M$0A@@3@AEBU43@@Z$rtcVarDesc
CONST	ENDS
;	COMDAT xdata
xdata	SEGMENT
$unwind$?call@?$compute_abs@M$00@detail@glm@@SAMM@Z DD 020b01H
	DD	07007320bH
xdata	ENDS
;	COMDAT xdata
xdata	SEGMENT
$unwind$??$?0HHHH@?$tvec4@N$0A@@glm@@QEAA@HHHH@Z DD 011401H
	DD	07014H
xdata	ENDS
;	COMDAT xdata
xdata	SEGMENT
$unwind$??$?0HHHM@?$tvec4@M$0A@@glm@@QEAA@HHHM@Z DD 011401H
	DD	07014H
xdata	ENDS
;	COMDAT xdata
xdata	SEGMENT
$unwind$??$?0HHMH@?$tvec4@M$0A@@glm@@QEAA@HHMH@Z DD 011501H
	DD	07015H
xdata	ENDS
;	COMDAT xdata
xdata	SEGMENT
$unwind$??$?0HMHH@?$tvec4@M$0A@@glm@@QEAA@HMHH@Z DD 011501H
	DD	07015H
xdata	ENDS
;	COMDAT xdata
xdata	SEGMENT
$unwind$??$?0MHHH@?$tvec4@M$0A@@glm@@QEAA@MHHH@Z DD 011601H
	DD	07016H
xdata	ENDS
;	COMDAT xdata
xdata	SEGMENT
$ip2state$??$_Deallocate@$0BA@$0A@@std@@YAXPEAX_K@Z DB 02H
	DB	00H
	DB	00H
xdata	ENDS
;	COMDAT xdata
xdata	SEGMENT
$cppxdata$??$_Deallocate@$0BA@$0A@@std@@YAXPEAX_K@Z DB 060H
	DD	imagerel $ip2state$??$_Deallocate@$0BA@$0A@@std@@YAXPEAX_K@Z
xdata	ENDS
;	COMDAT xdata
xdata	SEGMENT
$unwind$??$_Deallocate@$0BA@$0A@@std@@YAXPEAX_K@Z DD 020f19H
	DD	0700b320fH
	DD	imagerel __CxxFrameHandler4
	DD	imagerel $cppxdata$??$_Deallocate@$0BA@$0A@@std@@YAXPEAX_K@Z
xdata	ENDS
;	COMDAT xdata
xdata	SEGMENT
$unwind$??$_Destroy_range@V?$allocator@U?$tmat4x4@M$0A@@glm@@@std@@@std@@YAXPEAU?$tmat4x4@M$0A@@glm@@QEAU12@AEAV?$allocator@U?$tmat4x4@M$0A@@glm@@@0@@Z DD 011001H
	DD	07010H
xdata	ENDS
;	COMDAT voltbl
voltbl	SEGMENT
_volmd	DB	00H
	DB	05H
voltbl	ENDS
;	COMDAT voltbl
voltbl	SEGMENT
_volmd	DB	00H
	DB	05H
voltbl	ENDS
;	COMDAT xdata
xdata	SEGMENT
$unwind$?dtor$1@?0???$_Construct_n@PEBU?$tmat4x4@M$0A@@glm@@PEBU12@@?$vector@U?$tmat4x4@M$0A@@glm@@V?$allocator@U?$tmat4x4@M$0A@@glm@@@std@@@std@@AEAAX_K$$QEAPEBU?$tmat4x4@M$0A@@glm@@1@Z@4HA DD 031001H
	DD	0700c4210H
	DD	0500bH
xdata	ENDS
;	COMDAT xdata
xdata	SEGMENT
$unwind$?dtor$0@?0???$_Construct_n@PEBU?$tmat4x4@M$0A@@glm@@PEBU12@@?$vector@U?$tmat4x4@M$0A@@glm@@V?$allocator@U?$tmat4x4@M$0A@@glm@@@std@@@std@@AEAAX_K$$QEAPEBU?$tmat4x4@M$0A@@glm@@1@Z@4HA DD 031001H
	DD	0700c4210H
	DD	0500bH
xdata	ENDS
;	COMDAT xdata
xdata	SEGMENT
$ip2state$??$_Construct_n@PEBU?$tmat4x4@M$0A@@glm@@PEBU12@@?$vector@U?$tmat4x4@M$0A@@glm@@V?$allocator@U?$tmat4x4@M$0A@@glm@@@std@@@std@@AEAAX_K$$QEAPEBU?$tmat4x4@M$0A@@glm@@1@Z DB 0aH
	DB	00H
	DB	00H
	DB	09H, 02H
	DB	02H
	DB	'h'
	DB	04H
	DB	0b0H
	DB	02H
	DB	'0'
	DB	00H
xdata	ENDS
;	COMDAT xdata
xdata	SEGMENT
$stateUnwindMap$??$_Construct_n@PEBU?$tmat4x4@M$0A@@glm@@PEBU12@@?$vector@U?$tmat4x4@M$0A@@glm@@V?$allocator@U?$tmat4x4@M$0A@@glm@@@std@@@std@@AEAAX_K$$QEAPEBU?$tmat4x4@M$0A@@glm@@1@Z DB 04H
	DB	0eH
	DD	imagerel ?dtor$0@?0???$_Construct_n@PEBU?$tmat4x4@M$0A@@glm@@PEBU12@@?$vector@U?$tmat4x4@M$0A@@glm@@V?$allocator@U?$tmat4x4@M$0A@@glm@@@std@@@std@@AEAAX_K$$QEAPEBU?$tmat4x4@M$0A@@glm@@1@Z@4HA
	DB	02eH
	DD	imagerel ?dtor$1@?0???$_Construct_n@PEBU?$tmat4x4@M$0A@@glm@@PEBU12@@?$vector@U?$tmat4x4@M$0A@@glm@@V?$allocator@U?$tmat4x4@M$0A@@glm@@@std@@@std@@AEAAX_K$$QEAPEBU?$tmat4x4@M$0A@@glm@@1@Z@4HA
xdata	ENDS
;	COMDAT xdata
xdata	SEGMENT
$cppxdata$??$_Construct_n@PEBU?$tmat4x4@M$0A@@glm@@PEBU12@@?$vector@U?$tmat4x4@M$0A@@glm@@V?$allocator@U?$tmat4x4@M$0A@@glm@@@std@@@std@@AEAAX_K$$QEAPEBU?$tmat4x4@M$0A@@glm@@1@Z DB 028H
	DD	imagerel $stateUnwindMap$??$_Construct_n@PEBU?$tmat4x4@M$0A@@glm@@PEBU12@@?$vector@U?$tmat4x4@M$0A@@glm@@V?$allocator@U?$tmat4x4@M$0A@@glm@@@std@@@std@@AEAAX_K$$QEAPEBU?$tmat4x4@M$0A@@glm@@1@Z
	DD	imagerel $ip2state$??$_Construct_n@PEBU?$tmat4x4@M$0A@@glm@@PEBU12@@?$vector@U?$tmat4x4@M$0A@@glm@@V?$allocator@U?$tmat4x4@M$0A@@glm@@@std@@@std@@AEAAX_K$$QEAPEBU?$tmat4x4@M$0A@@glm@@1@Z
xdata	ENDS
;	COMDAT xdata
xdata	SEGMENT
$unwind$??$_Construct_n@PEBU?$tmat4x4@M$0A@@glm@@PEBU12@@?$vector@U?$tmat4x4@M$0A@@glm@@V?$allocator@U?$tmat4x4@M$0A@@glm@@@std@@@std@@AEAAX_K$$QEAPEBU?$tmat4x4@M$0A@@glm@@1@Z DD 033511H
	DD	014011cH
	DD	07015H
	DD	imagerel __CxxFrameHandler4
	DD	imagerel $cppxdata$??$_Construct_n@PEBU?$tmat4x4@M$0A@@glm@@PEBU12@@?$vector@U?$tmat4x4@M$0A@@glm@@V?$allocator@U?$tmat4x4@M$0A@@glm@@@std@@@std@@AEAAX_K$$QEAPEBU?$tmat4x4@M$0A@@glm@@1@Z
xdata	ENDS
;	COMDAT CONST
CONST	SEGMENT
??$_Construct_n@PEBU?$tmat4x4@M$0A@@glm@@PEBU12@@?$vector@U?$tmat4x4@M$0A@@glm@@V?$allocator@U?$tmat4x4@M$0A@@glm@@@std@@@std@@AEAAX_K$$QEAPEBU?$tmat4x4@M$0A@@glm@@1@Z$rtcName$0 DB 024H ; std::vector<glm::tmat4x4<float,0>,std::allocator<glm::tmat4x4<float,0> > >::_Construct_n<glm::tmat4x4<float,0> const *,glm::tmat4x4<float,0> const *>
	DB	053H
	DB	032H
	DB	00H
??$_Construct_n@PEBU?$tmat4x4@M$0A@@glm@@PEBU12@@?$vector@U?$tmat4x4@M$0A@@glm@@V?$allocator@U?$tmat4x4@M$0A@@glm@@@std@@@std@@AEAAX_K$$QEAPEBU?$tmat4x4@M$0A@@glm@@1@Z$rtcName$1 DB 05fH ; std::vector<glm::tmat4x4<float,0>,std::allocator<glm::tmat4x4<float,0> > >::_Construct_n<glm::tmat4x4<float,0> const *,glm::tmat4x4<float,0> const *>
	DB	050H
	DB	072H
	DB	06fH
	DB	078H
	DB	079H
	DB	00H
	ORG $+1
??$_Construct_n@PEBU?$tmat4x4@M$0A@@glm@@PEBU12@@?$vector@U?$tmat4x4@M$0A@@glm@@V?$allocator@U?$tmat4x4@M$0A@@glm@@@std@@@std@@AEAAX_K$$QEAPEBU?$tmat4x4@M$0A@@glm@@1@Z$rtcName$2 DB 05fH ; std::vector<glm::tmat4x4<float,0>,std::allocator<glm::tmat4x4<float,0> > >::_Construct_n<glm::tmat4x4<float,0> const *,glm::tmat4x4<float,0> const *>
	DB	047H
	DB	075H
	DB	061H
	DB	072H
	DB	064H
	DB	00H
	ORG $+13
??$_Construct_n@PEBU?$tmat4x4@M$0A@@glm@@PEBU12@@?$vector@U?$tmat4x4@M$0A@@glm@@V?$allocator@U?$tmat4x4@M$0A@@glm@@@std@@@std@@AEAAX_K$$QEAPEBU?$tmat4x4@M$0A@@glm@@1@Z$rtcVarDesc DD 088H ; std::vector<glm::tmat4x4<float,0>,std::allocator<glm::tmat4x4<float,0> > >::_Construct_n<glm::tmat4x4<float,0> const *,glm::tmat4x4<float,0> const *>
	DD	08H
	DQ	FLAT:??$_Construct_n@PEBU?$tmat4x4@M$0A@@glm@@PEBU12@@?$vector@U?$tmat4x4@M$0A@@glm@@V?$allocator@U?$tmat4x4@M$0A@@glm@@@std@@@std@@AEAAX_K$$QEAPEBU?$tmat4x4@M$0A@@glm@@1@Z$rtcName$2
	DD	058H
	DD	010H
	DQ	FLAT:??$_Construct_n@PEBU?$tmat4x4@M$0A@@glm@@PEBU12@@?$vector@U?$tmat4x4@M$0A@@glm@@V?$allocator@U?$tmat4x4@M$0A@@glm@@@std@@@std@@AEAAX_K$$QEAPEBU?$tmat4x4@M$0A@@glm@@1@Z$rtcName$1
	DD	034H
	DD	01H
	DQ	FLAT:??$_Construct_n@PEBU?$tmat4x4@M$0A@@glm@@PEBU12@@?$vector@U?$tmat4x4@M$0A@@glm@@V?$allocator@U?$tmat4x4@M$0A@@glm@@@std@@@std@@AEAAX_K$$QEAPEBU?$tmat4x4@M$0A@@glm@@1@Z$rtcName$0
	ORG $+144
??$_Construct_n@PEBU?$tmat4x4@M$0A@@glm@@PEBU12@@?$vector@U?$tmat4x4@M$0A@@glm@@V?$allocator@U?$tmat4x4@M$0A@@glm@@@std@@@std@@AEAAX_K$$QEAPEBU?$tmat4x4@M$0A@@glm@@1@Z$rtcFrameData DD 03H ; std::vector<glm::tmat4x4<float,0>,std::allocator<glm::tmat4x4<float,0> > >::_Construct_n<glm::tmat4x4<float,0> const *,glm::tmat4x4<float,0> const *>
	DD	00H
	DQ	FLAT:??$_Construct_n@PEBU?$tmat4x4@M$0A@@glm@@PEBU12@@?$vector@U?$tmat4x4@M$0A@@glm@@V?$allocator@U?$tmat4x4@M$0A@@glm@@@std@@@std@@AEAAX_K$$QEAPEBU?$tmat4x4@M$0A@@glm@@1@Z$rtcVarDesc
CONST	ENDS
;	COMDAT xdata
xdata	SEGMENT
$unwind$??$_Convert_size@_K@std@@YA_K_K@Z DD 010601H
	DD	07006H
xdata	ENDS
;	COMDAT xdata
xdata	SEGMENT
$unwind$??$?0AEBV?$allocator@U?$tmat4x4@M$0A@@glm@@@std@@$$V@?$_Compressed_pair@V?$allocator@U?$tmat4x4@M$0A@@glm@@@std@@V?$_Vector_val@U?$_Simple_types@U?$tmat4x4@M$0A@@glm@@@std@@@2@$00@std@@QEAA@U_One_then_variadic_args_t@1@AEBV?$allocator@U?$tmat4x4@M$0A@@glm@@@1@@Z DD 021301H
	DD	0700f3213H
xdata	ENDS
;	COMDAT xdata
xdata	SEGMENT
$unwind$??$_Delete_plain_internal@V?$allocator@U_Container_proxy@std@@@std@@@std@@YAXAEAV?$allocator@U_Container_proxy@std@@@0@QEAU_Container_proxy@0@@Z DD 020f01H
	DD	0700b320fH
xdata	ENDS
;	COMDAT xdata
xdata	SEGMENT
$unwind$??$exchange@PEAU_Container_proxy@std@@$$T@std@@YAPEAU_Container_proxy@0@AEAPEAU10@$$QEA$$T@Z DD 020f01H
	DD	0700b120fH
xdata	ENDS
;	COMDAT xdata
xdata	SEGMENT
$unwind$??$?0U?$tmat4x4@M$0A@@glm@@@?$allocator@U_Container_proxy@std@@@std@@QEAA@AEBV?$allocator@U?$tmat4x4@M$0A@@glm@@@1@@Z DD 010b01H
	DD	0700bH
xdata	ENDS
;	COMDAT xdata
xdata	SEGMENT
$unwind$?allocate@?$allocator@U_Container_proxy@std@@@std@@QEAAPEAU_Container_proxy@2@_K@Z DD 020f01H
	DD	0700b320fH
xdata	ENDS
;	COMDAT xdata
xdata	SEGMENT
$unwind$??1repro@@QEAA@XZ DD 020a01H
	DD	07006520aH
xdata	ENDS
;	COMDAT voltbl
voltbl	SEGMENT
_volmd	DB	00H
	DB	05H
voltbl	ENDS
;	COMDAT xdata
xdata	SEGMENT
$unwind$?dtor$0@?0???0repro@@QEAA@XZ@4HA DD 031001H
	DD	0700c4210H
	DD	0500bH
xdata	ENDS
;	COMDAT xdata
xdata	SEGMENT
$ip2state$??0repro@@QEAA@XZ DB 06H
	DB	00H
	DB	00H
	DB	'2'
	DB	02H
	DB	'X'
	DB	00H
xdata	ENDS
;	COMDAT xdata
xdata	SEGMENT
$stateUnwindMap$??0repro@@QEAA@XZ DB 02H
	DB	0eH
	DD	imagerel ?dtor$0@?0???0repro@@QEAA@XZ@4HA
xdata	ENDS
;	COMDAT xdata
xdata	SEGMENT
$cppxdata$??0repro@@QEAA@XZ DB 028H
	DD	imagerel $stateUnwindMap$??0repro@@QEAA@XZ
	DD	imagerel $ip2state$??0repro@@QEAA@XZ
xdata	ENDS
;	COMDAT xdata
xdata	SEGMENT
$unwind$??0repro@@QEAA@XZ DD 020a11H
	DD	07006720aH
	DD	imagerel __CxxFrameHandler4
	DD	imagerel $cppxdata$??0repro@@QEAA@XZ
xdata	ENDS
;	COMDAT voltbl
voltbl	SEGMENT
_volmd	DW	025H
	DW	0176H
voltbl	ENDS
;	COMDAT xdata
xdata	SEGMENT
$unwind$??$entry@U?$tmat4x4@M$0A@@glm@@@cast@@YAHXZ DD 042d19H
	DD	031010aH
	DD	060027003H
	DD	imagerel __GSHandlerCheck
	DD	0178H
xdata	ENDS
;	COMDAT CONST
CONST	SEGMENT
??$entry@U?$tmat4x4@M$0A@@glm@@@cast@@YAHXZ$rtcName$0 DB 041H ; cast::entry<glm::tmat4x4<float,0> >
	DB	00H
	ORG $+2
??$entry@U?$tmat4x4@M$0A@@glm@@@cast@@YAHXZ$rtcName$1 DB 042H ; cast::entry<glm::tmat4x4<float,0> >
	DB	00H
	ORG $+2
??$entry@U?$tmat4x4@M$0A@@glm@@@cast@@YAHXZ$rtcName$2 DB 049H ; cast::entry<glm::tmat4x4<float,0> >
	DB	064H
	DB	065H
	DB	06eH
	DB	074H
	DB	069H
	DB	074H
	DB	079H
	DB	00H
	ORG $+15
??$entry@U?$tmat4x4@M$0A@@glm@@@cast@@YAHXZ$rtcVarDesc DD 0100H ; cast::entry<glm::tmat4x4<float,0> >
	DD	040H
	DQ	FLAT:??$entry@U?$tmat4x4@M$0A@@glm@@@cast@@YAHXZ$rtcName$2
	DD	0a0H
	DD	040H
	DQ	FLAT:??$entry@U?$tmat4x4@M$0A@@glm@@@cast@@YAHXZ$rtcName$1
	DD	040H
	DD	040H
	DQ	FLAT:??$entry@U?$tmat4x4@M$0A@@glm@@@cast@@YAHXZ$rtcName$0
	ORG $+144
??$entry@U?$tmat4x4@M$0A@@glm@@@cast@@YAHXZ$rtcFrameData DD 03H ; cast::entry<glm::tmat4x4<float,0> >
	DD	00H
	DQ	FLAT:??$entry@U?$tmat4x4@M$0A@@glm@@@cast@@YAHXZ$rtcVarDesc
CONST	ENDS
;	COMDAT voltbl
voltbl	SEGMENT
_volmd	DW	024H
	DW	016dH
voltbl	ENDS
;	COMDAT xdata
xdata	SEGMENT
$unwind$??$entry@U?$tmat4x3@M$0A@@glm@@@cast@@YAHXZ DD 032c19H
	DD	02e0109H
	DD	07002H
	DD	imagerel __GSHandlerCheck
	DD	0168H
xdata	ENDS
;	COMDAT CONST
CONST	SEGMENT
??$entry@U?$tmat4x3@M$0A@@glm@@@cast@@YAHXZ$rtcName$0 DB 041H ; cast::entry<glm::tmat4x3<float,0> >
	DB	00H
	ORG $+2
??$entry@U?$tmat4x3@M$0A@@glm@@@cast@@YAHXZ$rtcName$1 DB 042H ; cast::entry<glm::tmat4x3<float,0> >
	DB	00H
	ORG $+2
??$entry@U?$tmat4x3@M$0A@@glm@@@cast@@YAHXZ$rtcName$2 DB 049H ; cast::entry<glm::tmat4x3<float,0> >
	DB	064H
	DB	065H
	DB	06eH
	DB	074H
	DB	069H
	DB	074H
	DB	079H
	DB	00H
	ORG $+15
??$entry@U?$tmat4x3@M$0A@@glm@@@cast@@YAHXZ$rtcVarDesc DD 0f0H ; cast::entry<glm::tmat4x3<float,0> >
	DD	040H
	DQ	FLAT:??$entry@U?$tmat4x3@M$0A@@glm@@@cast@@YAHXZ$rtcName$2
	DD	090H
	DD	040H
	DQ	FLAT:??$entry@U?$tmat4x3@M$0A@@glm@@@cast@@YAHXZ$rtcName$1
	DD	038H
	DD	030H
	DQ	FLAT:??$entry@U?$tmat4x3@M$0A@@glm@@@cast@@YAHXZ$rtcName$0
	ORG $+144
??$entry@U?$tmat4x3@M$0A@@glm@@@cast@@YAHXZ$rtcFrameData DD 03H ; cast::entry<glm::tmat4x3<float,0> >
	DD	00H
	DQ	FLAT:??$entry@U?$tmat4x3@M$0A@@glm@@@cast@@YAHXZ$rtcVarDesc
CONST	ENDS
;	COMDAT voltbl
voltbl	SEGMENT
_volmd	DW	024H
	DW	015cH
voltbl	ENDS
;	COMDAT xdata
xdata	SEGMENT
$unwind$??$entry@U?$tmat4x2@M$0A@@glm@@@cast@@YAHXZ DD 032c19H
	DD	02c0109H
	DD	07002H
	DD	imagerel __GSHandlerCheck
	DD	0150H
xdata	ENDS
;	COMDAT CONST
CONST	SEGMENT
??$entry@U?$tmat4x2@M$0A@@glm@@@cast@@YAHXZ$rtcName$0 DB 041H ; cast::entry<glm::tmat4x2<float,0> >
	DB	00H
	ORG $+2
??$entry@U?$tmat4x2@M$0A@@glm@@@cast@@YAHXZ$rtcName$1 DB 042H ; cast::entry<glm::tmat4x2<float,0> >
	DB	00H
	ORG $+2
??$entry@U?$tmat4x2@M$0A@@glm@@@cast@@YAHXZ$rtcName$2 DB 049H ; cast::entry<glm::tmat4x2<float,0> >
	DB	064H
	DB	065H
	DB	06eH
	DB	074H
	DB	069H
	DB	074H
	DB	079H
	DB	00H
	ORG $+15
??$entry@U?$tmat4x2@M$0A@@glm@@@cast@@YAHXZ$rtcVarDesc DD 0e0H ; cast::entry<glm::tmat4x2<float,0> >
	DD	040H
	DQ	FLAT:??$entry@U?$tmat4x2@M$0A@@glm@@@cast@@YAHXZ$rtcName$2
	DD	080H
	DD	040H
	DQ	FLAT:??$entry@U?$tmat4x2@M$0A@@glm@@@cast@@YAHXZ$rtcName$1
	DD	038H
	DD	020H
	DQ	FLAT:??$entry@U?$tmat4x2@M$0A@@glm@@@cast@@YAHXZ$rtcName$0
	ORG $+144
??$entry@U?$tmat4x2@M$0A@@glm@@@cast@@YAHXZ$rtcFrameData DD 03H ; cast::entry<glm::tmat4x2<float,0> >
	DD	00H
	DQ	FLAT:??$entry@U?$tmat4x2@M$0A@@glm@@@cast@@YAHXZ$rtcVarDesc
CONST	ENDS
;	COMDAT voltbl
voltbl	SEGMENT
_volmd	DW	024H
	DW	015cH
voltbl	ENDS
;	COMDAT xdata
xdata	SEGMENT
$unwind$??$entry@U?$tmat3x4@M$0A@@glm@@@cast@@YAHXZ DD 032c19H
	DD	02e0109H
	DD	07002H
	DD	imagerel __GSHandlerCheck
	DD	0160H
xdata	ENDS
;	COMDAT CONST
CONST	SEGMENT
??$entry@U?$tmat3x4@M$0A@@glm@@@cast@@YAHXZ$rtcName$0 DB 041H ; cast::entry<glm::tmat3x4<float,0> >
	DB	00H
	ORG $+2
??$entry@U?$tmat3x4@M$0A@@glm@@@cast@@YAHXZ$rtcName$1 DB 042H ; cast::entry<glm::tmat3x4<float,0> >
	DB	00H
	ORG $+2
??$entry@U?$tmat3x4@M$0A@@glm@@@cast@@YAHXZ$rtcName$2 DB 049H ; cast::entry<glm::tmat3x4<float,0> >
	DB	064H
	DB	065H
	DB	06eH
	DB	074H
	DB	069H
	DB	074H
	DB	079H
	DB	00H
	ORG $+15
??$entry@U?$tmat3x4@M$0A@@glm@@@cast@@YAHXZ$rtcVarDesc DD 0f0H ; cast::entry<glm::tmat3x4<float,0> >
	DD	040H
	DQ	FLAT:??$entry@U?$tmat3x4@M$0A@@glm@@@cast@@YAHXZ$rtcName$2
	DD	090H
	DD	040H
	DQ	FLAT:??$entry@U?$tmat3x4@M$0A@@glm@@@cast@@YAHXZ$rtcName$1
	DD	038H
	DD	030H
	DQ	FLAT:??$entry@U?$tmat3x4@M$0A@@glm@@@cast@@YAHXZ$rtcName$0
	ORG $+144
??$entry@U?$tmat3x4@M$0A@@glm@@@cast@@YAHXZ$rtcFrameData DD 03H ; cast::entry<glm::tmat3x4<float,0> >
	DD	00H
	DQ	FLAT:??$entry@U?$tmat3x4@M$0A@@glm@@@cast@@YAHXZ$rtcVarDesc
CONST	ENDS
;	COMDAT voltbl
voltbl	SEGMENT
_volmd	DW	024H
	DW	015cH
voltbl	ENDS
;	COMDAT xdata
xdata	SEGMENT
$unwind$??$entry@U?$tmat3x3@M$0A@@glm@@@cast@@YAHXZ DD 032c19H
	DD	02c0109H
	DD	07002H
	DD	imagerel __GSHandlerCheck
	DD	0150H
xdata	ENDS
;	COMDAT CONST
CONST	SEGMENT
??$entry@U?$tmat3x3@M$0A@@glm@@@cast@@YAHXZ$rtcName$0 DB 041H ; cast::entry<glm::tmat3x3<float,0> >
	DB	00H
	ORG $+2
??$entry@U?$tmat3x3@M$0A@@glm@@@cast@@YAHXZ$rtcName$1 DB 042H ; cast::entry<glm::tmat3x3<float,0> >
	DB	00H
	ORG $+2
??$entry@U?$tmat3x3@M$0A@@glm@@@cast@@YAHXZ$rtcName$2 DB 049H ; cast::entry<glm::tmat3x3<float,0> >
	DB	064H
	DB	065H
	DB	06eH
	DB	074H
	DB	069H
	DB	074H
	DB	079H
	DB	00H
	ORG $+15
??$entry@U?$tmat3x3@M$0A@@glm@@@cast@@YAHXZ$rtcVarDesc DD 0e0H ; cast::entry<glm::tmat3x3<float,0> >
	DD	040H
	DQ	FLAT:??$entry@U?$tmat3x3@M$0A@@glm@@@cast@@YAHXZ$rtcName$2
	DD	080H
	DD	040H
	DQ	FLAT:??$entry@U?$tmat3x3@M$0A@@glm@@@cast@@YAHXZ$rtcName$1
	DD	038H
	DD	024H
	DQ	FLAT:??$entry@U?$tmat3x3@M$0A@@glm@@@cast@@YAHXZ$rtcName$0
	ORG $+144
??$entry@U?$tmat3x3@M$0A@@glm@@@cast@@YAHXZ$rtcFrameData DD 03H ; cast::entry<glm::tmat3x3<float,0> >
	DD	00H
	DQ	FLAT:??$entry@U?$tmat3x3@M$0A@@glm@@@cast@@YAHXZ$rtcVarDesc
CONST	ENDS
;	COMDAT voltbl
voltbl	SEGMENT
_volmd	DW	024H
	DW	0156H
voltbl	ENDS
;	COMDAT xdata
xdata	SEGMENT
$unwind$??$entry@U?$tmat3x2@M$0A@@glm@@@cast@@YAHXZ DD 032c19H
	DD	02a0109H
	DD	07002H
	DD	imagerel __GSHandlerCheck
	DD	0140H
xdata	ENDS
;	COMDAT CONST
CONST	SEGMENT
??$entry@U?$tmat3x2@M$0A@@glm@@@cast@@YAHXZ$rtcName$0 DB 041H ; cast::entry<glm::tmat3x2<float,0> >
	DB	00H
	ORG $+2
??$entry@U?$tmat3x2@M$0A@@glm@@@cast@@YAHXZ$rtcName$1 DB 042H ; cast::entry<glm::tmat3x2<float,0> >
	DB	00H
	ORG $+2
??$entry@U?$tmat3x2@M$0A@@glm@@@cast@@YAHXZ$rtcName$2 DB 049H ; cast::entry<glm::tmat3x2<float,0> >
	DB	064H
	DB	065H
	DB	06eH
	DB	074H
	DB	069H
	DB	074H
	DB	079H
	DB	00H
	ORG $+15
??$entry@U?$tmat3x2@M$0A@@glm@@@cast@@YAHXZ$rtcVarDesc DD 0d0H ; cast::entry<glm::tmat3x2<float,0> >
	DD	040H
	DQ	FLAT:??$entry@U?$tmat3x2@M$0A@@glm@@@cast@@YAHXZ$rtcName$2
	DD	070H
	DD	040H
	DQ	FLAT:??$entry@U?$tmat3x2@M$0A@@glm@@@cast@@YAHXZ$rtcName$1
	DD	038H
	DD	018H
	DQ	FLAT:??$entry@U?$tmat3x2@M$0A@@glm@@@cast@@YAHXZ$rtcName$0
	ORG $+144
??$entry@U?$tmat3x2@M$0A@@glm@@@cast@@YAHXZ$rtcFrameData DD 03H ; cast::entry<glm::tmat3x2<float,0> >
	DD	00H
	DQ	FLAT:??$entry@U?$tmat3x2@M$0A@@glm@@@cast@@YAHXZ$rtcVarDesc
CONST	ENDS
;	COMDAT voltbl
voltbl	SEGMENT
_volmd	DW	024H
	DW	015cH
voltbl	ENDS
;	COMDAT xdata
xdata	SEGMENT
$unwind$??$entry@U?$tmat2x4@M$0A@@glm@@@cast@@YAHXZ DD 032c19H
	DD	02c0109H
	DD	07002H
	DD	imagerel __GSHandlerCheck
	DD	0150H
xdata	ENDS
;	COMDAT CONST
CONST	SEGMENT
??$entry@U?$tmat2x4@M$0A@@glm@@@cast@@YAHXZ$rtcName$0 DB 041H ; cast::entry<glm::tmat2x4<float,0> >
	DB	00H
	ORG $+2
??$entry@U?$tmat2x4@M$0A@@glm@@@cast@@YAHXZ$rtcName$1 DB 042H ; cast::entry<glm::tmat2x4<float,0> >
	DB	00H
	ORG $+2
??$entry@U?$tmat2x4@M$0A@@glm@@@cast@@YAHXZ$rtcName$2 DB 049H ; cast::entry<glm::tmat2x4<float,0> >
	DB	064H
	DB	065H
	DB	06eH
	DB	074H
	DB	069H
	DB	074H
	DB	079H
	DB	00H
	ORG $+15
??$entry@U?$tmat2x4@M$0A@@glm@@@cast@@YAHXZ$rtcVarDesc DD 0e0H ; cast::entry<glm::tmat2x4<float,0> >
	DD	040H
	DQ	FLAT:??$entry@U?$tmat2x4@M$0A@@glm@@@cast@@YAHXZ$rtcName$2
	DD	080H
	DD	040H
	DQ	FLAT:??$entry@U?$tmat2x4@M$0A@@glm@@@cast@@YAHXZ$rtcName$1
	DD	038H
	DD	020H
	DQ	FLAT:??$entry@U?$tmat2x4@M$0A@@glm@@@cast@@YAHXZ$rtcName$0
	ORG $+144
??$entry@U?$tmat2x4@M$0A@@glm@@@cast@@YAHXZ$rtcFrameData DD 03H ; cast::entry<glm::tmat2x4<float,0> >
	DD	00H
	DQ	FLAT:??$entry@U?$tmat2x4@M$0A@@glm@@@cast@@YAHXZ$rtcVarDesc
CONST	ENDS
;	COMDAT voltbl
voltbl	SEGMENT
_volmd	DW	024H
	DW	0156H
voltbl	ENDS
;	COMDAT xdata
xdata	SEGMENT
$unwind$??$entry@U?$tmat2x3@M$0A@@glm@@@cast@@YAHXZ DD 032c19H
	DD	02a0109H
	DD	07002H
	DD	imagerel __GSHandlerCheck
	DD	0140H
xdata	ENDS
;	COMDAT CONST
CONST	SEGMENT
??$entry@U?$tmat2x3@M$0A@@glm@@@cast@@YAHXZ$rtcName$0 DB 041H ; cast::entry<glm::tmat2x3<float,0> >
	DB	00H
	ORG $+2
??$entry@U?$tmat2x3@M$0A@@glm@@@cast@@YAHXZ$rtcName$1 DB 042H ; cast::entry<glm::tmat2x3<float,0> >
	DB	00H
	ORG $+2
??$entry@U?$tmat2x3@M$0A@@glm@@@cast@@YAHXZ$rtcName$2 DB 049H ; cast::entry<glm::tmat2x3<float,0> >
	DB	064H
	DB	065H
	DB	06eH
	DB	074H
	DB	069H
	DB	074H
	DB	079H
	DB	00H
	ORG $+15
??$entry@U?$tmat2x3@M$0A@@glm@@@cast@@YAHXZ$rtcVarDesc DD 0d0H ; cast::entry<glm::tmat2x3<float,0> >
	DD	040H
	DQ	FLAT:??$entry@U?$tmat2x3@M$0A@@glm@@@cast@@YAHXZ$rtcName$2
	DD	070H
	DD	040H
	DQ	FLAT:??$entry@U?$tmat2x3@M$0A@@glm@@@cast@@YAHXZ$rtcName$1
	DD	038H
	DD	018H
	DQ	FLAT:??$entry@U?$tmat2x3@M$0A@@glm@@@cast@@YAHXZ$rtcName$0
	ORG $+144
??$entry@U?$tmat2x3@M$0A@@glm@@@cast@@YAHXZ$rtcFrameData DD 03H ; cast::entry<glm::tmat2x3<float,0> >
	DD	00H
	DQ	FLAT:??$entry@U?$tmat2x3@M$0A@@glm@@@cast@@YAHXZ$rtcVarDesc
CONST	ENDS
;	COMDAT voltbl
voltbl	SEGMENT
_volmd	DW	024H
	DW	0156H
voltbl	ENDS
;	COMDAT xdata
xdata	SEGMENT
$unwind$??$entry@U?$tmat2x2@M$0A@@glm@@@cast@@YAHXZ DD 032c19H
	DD	02a0109H
	DD	07002H
	DD	imagerel __GSHandlerCheck
	DD	0140H
xdata	ENDS
;	COMDAT CONST
CONST	SEGMENT
??$entry@U?$tmat2x2@M$0A@@glm@@@cast@@YAHXZ$rtcName$0 DB 041H ; cast::entry<glm::tmat2x2<float,0> >
	DB	00H
	ORG $+2
??$entry@U?$tmat2x2@M$0A@@glm@@@cast@@YAHXZ$rtcName$1 DB 042H ; cast::entry<glm::tmat2x2<float,0> >
	DB	00H
	ORG $+2
??$entry@U?$tmat2x2@M$0A@@glm@@@cast@@YAHXZ$rtcName$2 DB 049H ; cast::entry<glm::tmat2x2<float,0> >
	DB	064H
	DB	065H
	DB	06eH
	DB	074H
	DB	069H
	DB	074H
	DB	079H
	DB	00H
	ORG $+15
??$entry@U?$tmat2x2@M$0A@@glm@@@cast@@YAHXZ$rtcVarDesc DD 0d0H ; cast::entry<glm::tmat2x2<float,0> >
	DD	040H
	DQ	FLAT:??$entry@U?$tmat2x2@M$0A@@glm@@@cast@@YAHXZ$rtcName$2
	DD	070H
	DD	040H
	DQ	FLAT:??$entry@U?$tmat2x2@M$0A@@glm@@@cast@@YAHXZ$rtcName$1
	DD	038H
	DD	010H
	DQ	FLAT:??$entry@U?$tmat2x2@M$0A@@glm@@@cast@@YAHXZ$rtcName$0
	ORG $+144
??$entry@U?$tmat2x2@M$0A@@glm@@@cast@@YAHXZ$rtcFrameData DD 03H ; cast::entry<glm::tmat2x2<float,0> >
	DD	00H
	DQ	FLAT:??$entry@U?$tmat2x2@M$0A@@glm@@@cast@@YAHXZ$rtcVarDesc
CONST	ENDS
;	COMDAT xdata
xdata	SEGMENT
$unwind$?size@?$initializer_list@U?$tmat4x4@M$0A@@glm@@@std@@QEBA_KXZ DD 010601H
	DD	07006H
xdata	ENDS
;	COMDAT xdata
xdata	SEGMENT
$unwind$?end@?$initializer_list@U?$tmat4x4@M$0A@@glm@@@std@@QEBAPEBU?$tmat4x4@M$0A@@glm@@XZ DD 010601H
	DD	07006H
xdata	ENDS
;	COMDAT xdata
xdata	SEGMENT
$unwind$?begin@?$initializer_list@U?$tmat4x4@M$0A@@glm@@@std@@QEBAPEBU?$tmat4x4@M$0A@@glm@@XZ DD 010601H
	DD	07006H
xdata	ENDS
;	COMDAT xdata
xdata	SEGMENT
$unwind$??0?$initializer_list@U?$tmat4x4@M$0A@@glm@@@std@@QEAA@PEBU?$tmat4x4@M$0A@@glm@@0@Z DD 011001H
	DD	07010H
xdata	ENDS
;	COMDAT xdata
xdata	SEGMENT
$unwind$?_Get_first@?$_Compressed_pair@V?$allocator@U?$tmat4x4@M$0A@@glm@@@std@@V?$_Vector_val@U?$_Simple_types@U?$tmat4x4@M$0A@@glm@@@std@@@2@$00@std@@QEBAAEBV?$allocator@U?$tmat4x4@M$0A@@glm@@@2@XZ DD 010601H
	DD	07006H
xdata	ENDS
;	COMDAT xdata
xdata	SEGMENT
$unwind$?_Get_first@?$_Compressed_pair@V?$allocator@U?$tmat4x4@M$0A@@glm@@@std@@V?$_Vector_val@U?$_Simple_types@U?$tmat4x4@M$0A@@glm@@@std@@@2@$00@std@@QEAAAEAV?$allocator@U?$tmat4x4@M$0A@@glm@@@2@XZ DD 010601H
	DD	07006H
xdata	ENDS
;	COMDAT xdata
xdata	SEGMENT
$unwind$??0?$_Vector_val@U?$_Simple_types@U?$tmat4x4@M$0A@@glm@@@std@@@std@@QEAA@XZ DD 020a01H
	DD	07006320aH
xdata	ENDS
;	COMDAT xdata
xdata	SEGMENT
$unwind$?_Getal@?$vector@U?$tmat4x4@M$0A@@glm@@V?$allocator@U?$tmat4x4@M$0A@@glm@@@std@@@std@@AEBAAEBV?$allocator@U?$tmat4x4@M$0A@@glm@@@2@XZ DD 020a01H
	DD	07006320aH
xdata	ENDS
;	COMDAT xdata
xdata	SEGMENT
$unwind$?_Getal@?$vector@U?$tmat4x4@M$0A@@glm@@V?$allocator@U?$tmat4x4@M$0A@@glm@@@std@@@std@@AEAAAEAV?$allocator@U?$tmat4x4@M$0A@@glm@@@2@XZ DD 020a01H
	DD	07006320aH
xdata	ENDS
;	COMDAT xdata
xdata	SEGMENT
$unwind$?_Xlength@?$vector@U?$tmat4x4@M$0A@@glm@@V?$allocator@U?$tmat4x4@M$0A@@glm@@@std@@@std@@CAXXZ DD 020601H
	DD	070023206H
xdata	ENDS
;	COMDAT xdata
xdata	SEGMENT
$ip2state$?_Tidy@?$vector@U?$tmat4x4@M$0A@@glm@@V?$allocator@U?$tmat4x4@M$0A@@glm@@@std@@@std@@AEAAXXZ DB 02H
	DB	00H
	DB	00H
xdata	ENDS
;	COMDAT xdata
xdata	SEGMENT
$cppxdata$?_Tidy@?$vector@U?$tmat4x4@M$0A@@glm@@V?$allocator@U?$tmat4x4@M$0A@@glm@@@std@@@std@@AEAAXXZ DB 060H
	DD	imagerel $ip2state$?_Tidy@?$vector@U?$tmat4x4@M$0A@@glm@@V?$allocator@U?$tmat4x4@M$0A@@glm@@@std@@@std@@AEAAXXZ
xdata	ENDS
;	COMDAT xdata
xdata	SEGMENT
$unwind$?_Tidy@?$vector@U?$tmat4x4@M$0A@@glm@@V?$allocator@U?$tmat4x4@M$0A@@glm@@@std@@@std@@AEAAXXZ DD 020a19H
	DD	07006920aH
	DD	imagerel __CxxFrameHandler4
	DD	imagerel $cppxdata$?_Tidy@?$vector@U?$tmat4x4@M$0A@@glm@@V?$allocator@U?$tmat4x4@M$0A@@glm@@@std@@@std@@AEAAXXZ
xdata	ENDS
;	COMDAT xdata
xdata	SEGMENT
$unwind$?_Buy_nonzero@?$vector@U?$tmat4x4@M$0A@@glm@@V?$allocator@U?$tmat4x4@M$0A@@glm@@@std@@@std@@AEAAX_K@Z DD 020f01H
	DD	0700b320fH
xdata	ENDS
;	COMDAT xdata
xdata	SEGMENT
$unwind$?_Buy_raw@?$vector@U?$tmat4x4@M$0A@@glm@@V?$allocator@U?$tmat4x4@M$0A@@glm@@@std@@@std@@AEAAX_K@Z DD 020f01H
	DD	0700b920fH
xdata	ENDS
;	COMDAT xdata
xdata	SEGMENT
$unwind$?max_size@?$vector@U?$tmat4x4@M$0A@@glm@@V?$allocator@U?$tmat4x4@M$0A@@glm@@@std@@@std@@QEBA_KXZ DD 020a01H
	DD	07006520aH
xdata	ENDS
;	COMDAT xdata
xdata	SEGMENT
$unwind$??1?$vector@U?$tmat4x4@M$0A@@glm@@V?$allocator@U?$tmat4x4@M$0A@@glm@@@std@@@std@@QEAA@XZ DD 022001H
	DD	07006920aH
xdata	ENDS
;	COMDAT CONST
CONST	SEGMENT
??1?$vector@U?$tmat4x4@M$0A@@glm@@V?$allocator@U?$tmat4x4@M$0A@@glm@@@std@@@std@@QEAA@XZ$rtcName$0 DB 024H ; std::vector<glm::tmat4x4<float,0>,std::allocator<glm::tmat4x4<float,0> > >::~vector<glm::tmat4x4<float,0>,std::allocator<glm::tmat4x4<float,0> > >
	DB	053H
	DB	031H
	DB	00H
	ORG $+12
??1?$vector@U?$tmat4x4@M$0A@@glm@@V?$allocator@U?$tmat4x4@M$0A@@glm@@@std@@@std@@QEAA@XZ$rtcVarDesc DD 034H ; std::vector<glm::tmat4x4<float,0>,std::allocator<glm::tmat4x4<float,0> > >::~vector<glm::tmat4x4<float,0>,std::allocator<glm::tmat4x4<float,0> > >
	DD	01H
	DQ	FLAT:??1?$vector@U?$tmat4x4@M$0A@@glm@@V?$allocator@U?$tmat4x4@M$0A@@glm@@@std@@@std@@QEAA@XZ$rtcName$0
	ORG $+48
??1?$vector@U?$tmat4x4@M$0A@@glm@@V?$allocator@U?$tmat4x4@M$0A@@glm@@@std@@@std@@QEAA@XZ$rtcFrameData DD 01H ; std::vector<glm::tmat4x4<float,0>,std::allocator<glm::tmat4x4<float,0> > >::~vector<glm::tmat4x4<float,0>,std::allocator<glm::tmat4x4<float,0> > >
	DD	00H
	DQ	FLAT:??1?$vector@U?$tmat4x4@M$0A@@glm@@V?$allocator@U?$tmat4x4@M$0A@@glm@@@std@@@std@@QEAA@XZ$rtcVarDesc
CONST	ENDS
;	COMDAT xdata
xdata	SEGMENT
$unwind$??0?$vector@U?$tmat4x4@M$0A@@glm@@V?$allocator@U?$tmat4x4@M$0A@@glm@@@std@@@std@@QEAA@V?$initializer_list@U?$tmat4x4@M$0A@@glm@@@1@AEBV?$allocator@U?$tmat4x4@M$0A@@glm@@@1@@Z DD 021401H
	DD	070107214H
xdata	ENDS
;	COMDAT xdata
xdata	SEGMENT
$unwind$?max_size@?$_Default_allocator_traits@V?$allocator@U?$tmat4x4@M$0A@@glm@@@std@@@std@@SA_KAEBV?$allocator@U?$tmat4x4@M$0A@@glm@@@2@@Z DD 010601H
	DD	07006H
xdata	ENDS
;	COMDAT xdata
xdata	SEGMENT
$unwind$?allocate@?$allocator@U?$tmat4x4@M$0A@@glm@@@std@@QEAAPEAU?$tmat4x4@M$0A@@glm@@_K@Z DD 020f01H
	DD	0700b320fH
xdata	ENDS
;	COMDAT xdata
xdata	SEGMENT
$unwind$?deallocate@?$allocator@U?$tmat4x4@M$0A@@glm@@@std@@QEAAXQEAU?$tmat4x4@M$0A@@glm@@_K@Z DD 021401H
	DD	070105214H
xdata	ENDS
;	COMDAT xdata
xdata	SEGMENT
$unwind$??0?$allocator@U?$tmat4x4@M$0A@@glm@@@std@@QEAA@XZ DD 010601H
	DD	07006H
xdata	ENDS
;	COMDAT xdata
xdata	SEGMENT
$unwind$??$equal@M$0A@Utvec4@glm@@@glm@@YA?AU?$tvec4@_N$0A@@0@AEBU?$tvec4@M$0A@@0@0@Z DD 022a01H
	DD	070109214H
xdata	ENDS
;	COMDAT CONST
CONST	SEGMENT
??$equal@M$0A@Utvec4@glm@@@glm@@YA?AU?$tvec4@_N$0A@@0@AEBU?$tvec4@M$0A@@0@0@Z$rtcName$0 DB 052H ; glm::equal<float,0,glm::tvec4>
	DB	065H
	DB	073H
	DB	075H
	DB	06cH
	DB	074H
	DB	00H
	ORG $+9
??$equal@M$0A@Utvec4@glm@@@glm@@YA?AU?$tvec4@_N$0A@@0@AEBU?$tvec4@M$0A@@0@0@Z$rtcVarDesc DD 024H ; glm::equal<float,0,glm::tvec4>
	DD	04H
	DQ	FLAT:??$equal@M$0A@Utvec4@glm@@@glm@@YA?AU?$tvec4@_N$0A@@0@AEBU?$tvec4@M$0A@@0@0@Z$rtcName$0
	ORG $+48
??$equal@M$0A@Utvec4@glm@@@glm@@YA?AU?$tvec4@_N$0A@@0@AEBU?$tvec4@M$0A@@0@0@Z$rtcFrameData DD 01H ; glm::equal<float,0,glm::tvec4>
	DD	00H
	DQ	FLAT:??$equal@M$0A@Utvec4@glm@@@glm@@YA?AU?$tvec4@_N$0A@@0@AEBU?$tvec4@M$0A@@0@0@Z$rtcVarDesc
CONST	ENDS
;	COMDAT xdata
xdata	SEGMENT
$unwind$??$?0HHHHHHHHHHHHHHHH@?$tmat4x4@M$0A@@glm@@QEAA@AEBH000000000000000@Z DD 041d01H
	DD	011011dH
	DD	060157016H
xdata	ENDS
;	COMDAT xdata
xdata	SEGMENT
$unwind$??$?0HHHH@?$tvec4@M$0A@@glm@@QEAA@HHHH@Z DD 011401H
	DD	07014H
xdata	ENDS
voltbl	SEGMENT
_volmd	DD	0ffffffffH
	DDSymXIndex: 	FLAT:main$dtor$0
	DD	00H
	DD	05H
_volmd	DD	0ffffffffH
	DDSymXIndex: 	FLAT:?dtor$1@?0??test_ctr@@YAHXZ@4HA
	DD	00H
	DD	05H
_volmd	DD	0ffffffffH
	DDSymXIndex: 	FLAT:?dtor$0@?0??test_ctr@@YAHXZ@4HA
	DD	00H
	DD	05H
voltbl	ENDS
;	COMDAT voltbl
voltbl	SEGMENT
_volmd	DB	03bH
	DB	09bH
voltbl	ENDS
;	COMDAT xdata
xdata	SEGMENT
$unwind$??$?KM$0A@@glm@@YA?AU?$tmat4x4@M$0A@@0@AEBU10@0@Z DD 044319H
	DD	0130118H
	DD	060107011H
	DD	imagerel __GSHandlerCheck
	DD	080H
xdata	ENDS
;	COMDAT CONST
CONST	SEGMENT
??$?KM$0A@@glm@@YA?AU?$tmat4x4@M$0A@@0@AEBU10@0@Z$rtcName$0 DB 06dH ; glm::operator/<float,0>
	DB	031H
	DB	05fH
	DB	063H
	DB	06fH
	DB	070H
	DB	079H
	DB	00H
	ORG $+8
??$?KM$0A@@glm@@YA?AU?$tmat4x4@M$0A@@0@AEBU10@0@Z$rtcVarDesc DD 030H ; glm::operator/<float,0>
	DD	040H
	DQ	FLAT:??$?KM$0A@@glm@@YA?AU?$tmat4x4@M$0A@@0@AEBU10@0@Z$rtcName$0
	ORG $+48
??$?KM$0A@@glm@@YA?AU?$tmat4x4@M$0A@@0@AEBU10@0@Z$rtcFrameData DD 01H ; glm::operator/<float,0>
	DD	00H
	DQ	FLAT:??$?KM$0A@@glm@@YA?AU?$tmat4x4@M$0A@@0@AEBU10@0@Z$rtcVarDesc
CONST	ENDS
;	COMDAT xdata
xdata	SEGMENT
$unwind$??$all@$01Utvec4@glm@@@glm@@YA_NAEBU?$tvec4@_N$01@0@@Z DD 020a01H
	DD	07006520aH
xdata	ENDS
;	COMDAT xdata
xdata	SEGMENT
$unwind$??0?$tvec4@_N$01@glm@@QEAA@W4ctor@1@@Z DD 010a01H
	DD	0700aH
xdata	ENDS
;	COMDAT xdata
xdata	SEGMENT
$unwind$??A?$tvec4@_N$01@glm@@QEBAAEB_NH@Z DD 020e01H
	DD	0700a320eH
xdata	ENDS
;	COMDAT xdata
xdata	SEGMENT
$unwind$??A?$tvec4@_N$01@glm@@QEAAAEA_NH@Z DD 020e01H
	DD	0700a320eH
xdata	ENDS
;	COMDAT xdata
xdata	SEGMENT
$unwind$?length@?$tvec4@_N$01@glm@@SAHXZ DD 010201H
	DD	07002H
xdata	ENDS
;	COMDAT xdata
xdata	SEGMENT
$unwind$??$epsilonEqual@M$01Utvec4@glm@@@glm@@YA?AU?$tvec4@_N$01@0@AEBU?$tvec4@M$01@0@00@Z DD 031a01H
	DD	07016a21aH
	DD	06015H
xdata	ENDS
;	COMDAT xdata
xdata	SEGMENT
$unwind$??$print@U?$tmat4x4@M$01@glm@@@@YAXAEBU?$tmat4x4@M$01@glm@@@Z DD 030d01H
	DD	012010dH
	DD	07006H
xdata	ENDS
;	COMDAT voltbl
voltbl	SEGMENT
_volmd	DW	03bH
	DW	069eH
voltbl	ENDS
;	COMDAT xdata
xdata	SEGMENT
$unwind$??$?DM$01@glm@@YA?AU?$tmat4x4@M$01@0@AEBU10@0@Z DD 044319H
	DD	08b0118H
	DD	060107011H
	DD	imagerel __GSHandlerCheck
	DD	0440H
xdata	ENDS
;	COMDAT CONST
CONST	SEGMENT
??$?DM$01@glm@@YA?AU?$tmat4x4@M$01@0@AEBU10@0@Z$rtcName$0 DB 053H ; glm::operator*<float,2>
	DB	072H
	DB	063H
	DB	041H
	DB	030H
	DB	00H
	ORG $+2
??$?DM$01@glm@@YA?AU?$tmat4x4@M$01@0@AEBU10@0@Z$rtcName$1 DB 053H ; glm::operator*<float,2>
	DB	072H
	DB	063H
	DB	041H
	DB	031H
	DB	00H
	ORG $+2
??$?DM$01@glm@@YA?AU?$tmat4x4@M$01@0@AEBU10@0@Z$rtcName$2 DB 053H ; glm::operator*<float,2>
	DB	072H
	DB	063H
	DB	041H
	DB	032H
	DB	00H
	ORG $+2
??$?DM$01@glm@@YA?AU?$tmat4x4@M$01@0@AEBU10@0@Z$rtcName$3 DB 053H ; glm::operator*<float,2>
	DB	072H
	DB	063H
	DB	041H
	DB	033H
	DB	00H
	ORG $+2
??$?DM$01@glm@@YA?AU?$tmat4x4@M$01@0@AEBU10@0@Z$rtcName$4 DB 053H ; glm::operator*<float,2>
	DB	072H
	DB	063H
	DB	042H
	DB	030H
	DB	00H
	ORG $+2
??$?DM$01@glm@@YA?AU?$tmat4x4@M$01@0@AEBU10@0@Z$rtcName$5 DB 053H ; glm::operator*<float,2>
	DB	072H
	DB	063H
	DB	042H
	DB	031H
	DB	00H
	ORG $+2
??$?DM$01@glm@@YA?AU?$tmat4x4@M$01@0@AEBU10@0@Z$rtcName$6 DB 053H ; glm::operator*<float,2>
	DB	072H
	DB	063H
	DB	042H
	DB	032H
	DB	00H
	ORG $+2
??$?DM$01@glm@@YA?AU?$tmat4x4@M$01@0@AEBU10@0@Z$rtcName$7 DB 053H ; glm::operator*<float,2>
	DB	072H
	DB	063H
	DB	042H
	DB	033H
	DB	00H
	ORG $+2
??$?DM$01@glm@@YA?AU?$tmat4x4@M$01@0@AEBU10@0@Z$rtcName$8 DB 052H ; glm::operator*<float,2>
	DB	065H
	DB	073H
	DB	075H
	DB	06cH
	DB	074H
	DB	00H
	ORG $+1
??$?DM$01@glm@@YA?AU?$tmat4x4@M$01@0@AEBU10@0@Z$rtcFrameData DD 09H ; glm::operator*<float,2>
	DD	00H
	DQ	FLAT:??$?DM$01@glm@@YA?AU?$tmat4x4@M$01@0@AEBU10@0@Z$rtcVarDesc
	ORG $+8
??$?DM$01@glm@@YA?AU?$tmat4x4@M$01@0@AEBU10@0@Z$rtcVarDesc DD 01b0H ; glm::operator*<float,2>
	DD	040H
	DQ	FLAT:??$?DM$01@glm@@YA?AU?$tmat4x4@M$01@0@AEBU10@0@Z$rtcName$8
	DD	0178H
	DD	010H
	DQ	FLAT:??$?DM$01@glm@@YA?AU?$tmat4x4@M$01@0@AEBU10@0@Z$rtcName$7
	DD	0148H
	DD	010H
	DQ	FLAT:??$?DM$01@glm@@YA?AU?$tmat4x4@M$01@0@AEBU10@0@Z$rtcName$6
	DD	0118H
	DD	010H
	DQ	FLAT:??$?DM$01@glm@@YA?AU?$tmat4x4@M$01@0@AEBU10@0@Z$rtcName$5
	DD	0e8H
	DD	010H
	DQ	FLAT:??$?DM$01@glm@@YA?AU?$tmat4x4@M$01@0@AEBU10@0@Z$rtcName$4
	DD	0b8H
	DD	010H
	DQ	FLAT:??$?DM$01@glm@@YA?AU?$tmat4x4@M$01@0@AEBU10@0@Z$rtcName$3
	DD	088H
	DD	010H
	DQ	FLAT:??$?DM$01@glm@@YA?AU?$tmat4x4@M$01@0@AEBU10@0@Z$rtcName$2
	DD	058H
	DD	010H
	DQ	FLAT:??$?DM$01@glm@@YA?AU?$tmat4x4@M$01@0@AEBU10@0@Z$rtcName$1
	DD	028H
	DD	010H
	DQ	FLAT:??$?DM$01@glm@@YA?AU?$tmat4x4@M$01@0@AEBU10@0@Z$rtcName$0
CONST	ENDS
;	COMDAT xdata
xdata	SEGMENT
$unwind$??$inverse@M$01Utmat4x4@glm@@@glm@@YA?AU?$tmat4x4@M$01@0@AEBU10@@Z DD 020f01H
	DD	0700b320fH
xdata	ENDS
;	COMDAT xdata
xdata	SEGMENT
$unwind$??A?$tmat4x4@M$01@glm@@QEBAAEBU?$tvec4@M$01@1@H@Z DD 020e01H
	DD	0700a320eH
xdata	ENDS
;	COMDAT xdata
xdata	SEGMENT
$unwind$??A?$tmat4x4@M$01@glm@@QEAAAEAU?$tvec4@M$01@1@H@Z DD 020e01H
	DD	0700a320eH
xdata	ENDS
;	COMDAT xdata
xdata	SEGMENT
$unwind$?length@?$tmat4x4@M$01@glm@@SAHXZ DD 010201H
	DD	07002H
xdata	ENDS
;	COMDAT xdata
xdata	SEGMENT
$unwind$??0?$tmat4x4@M$01@glm@@QEAA@AEBU?$tvec4@M$01@1@000@Z DD 031a01H
	DD	07016421aH
	DD	06015H
xdata	ENDS
;	COMDAT xdata
xdata	SEGMENT
$unwind$??0?$tmat4x4@M$01@glm@@QEAA@W4ctor@1@@Z DD 020e01H
	DD	0700a320eH
xdata	ENDS
;	COMDAT xdata
xdata	SEGMENT
$unwind$??0?$tvec4@M$01@glm@@QEAA@MMMM@Z DD 011801H
	DD	07018H
xdata	ENDS
;	COMDAT xdata
xdata	SEGMENT
$unwind$??0?$tvec4@M$01@glm@@QEAA@M@Z DD 010c01H
	DD	0700cH
xdata	ENDS
;	COMDAT xdata
xdata	SEGMENT
$unwind$??0?$tvec4@M$01@glm@@QEAA@XZ DD 010601H
	DD	07006H
xdata	ENDS
;	COMDAT xdata
xdata	SEGMENT
$unwind$??A?$tvec4@M$01@glm@@QEBAAEBMH@Z DD 020e01H
	DD	0700a320eH
xdata	ENDS
;	COMDAT xdata
xdata	SEGMENT
$unwind$??A?$tvec4@M$01@glm@@QEAAAEAMH@Z DD 020e01H
	DD	0700a320eH
xdata	ENDS
;	COMDAT xdata
xdata	SEGMENT
$unwind$?length@?$tvec4@M$01@glm@@SAHXZ DD 010201H
	DD	07002H
xdata	ENDS
;	COMDAT xdata
xdata	SEGMENT
$unwind$??$all@$00Utvec4@glm@@@glm@@YA_NAEBU?$tvec4@_N$00@0@@Z DD 020a01H
	DD	07006520aH
xdata	ENDS
;	COMDAT xdata
xdata	SEGMENT
$unwind$??0?$tvec4@_N$00@glm@@QEAA@W4ctor@1@@Z DD 010a01H
	DD	0700aH
xdata	ENDS
;	COMDAT xdata
xdata	SEGMENT
$unwind$??A?$tvec4@_N$00@glm@@QEBAAEB_NH@Z DD 020e01H
	DD	0700a320eH
xdata	ENDS
;	COMDAT xdata
xdata	SEGMENT
$unwind$??A?$tvec4@_N$00@glm@@QEAAAEA_NH@Z DD 020e01H
	DD	0700a320eH
xdata	ENDS
;	COMDAT xdata
xdata	SEGMENT
$unwind$?length@?$tvec4@_N$00@glm@@SAHXZ DD 010201H
	DD	07002H
xdata	ENDS
;	COMDAT xdata
xdata	SEGMENT
$unwind$??$epsilonEqual@M$00Utvec4@glm@@@glm@@YA?AU?$tvec4@_N$00@0@AEBU?$tvec4@M$00@0@00@Z DD 031a01H
	DD	07016a21aH
	DD	06015H
xdata	ENDS
;	COMDAT xdata
xdata	SEGMENT
$unwind$??$print@U?$tmat4x4@M$00@glm@@@@YAXAEBU?$tmat4x4@M$00@glm@@@Z DD 030d01H
	DD	012010dH
	DD	07006H
xdata	ENDS
;	COMDAT voltbl
voltbl	SEGMENT
_volmd	DW	03bH
	DW	069eH
voltbl	ENDS
;	COMDAT xdata
xdata	SEGMENT
$unwind$??$?DM$00@glm@@YA?AU?$tmat4x4@M$00@0@AEBU10@0@Z DD 044319H
	DD	08b0118H
	DD	060107011H
	DD	imagerel __GSHandlerCheck
	DD	0440H
xdata	ENDS
;	COMDAT CONST
CONST	SEGMENT
??$?DM$00@glm@@YA?AU?$tmat4x4@M$00@0@AEBU10@0@Z$rtcName$0 DB 053H ; glm::operator*<float,1>
	DB	072H
	DB	063H
	DB	041H
	DB	030H
	DB	00H
	ORG $+2
??$?DM$00@glm@@YA?AU?$tmat4x4@M$00@0@AEBU10@0@Z$rtcName$1 DB 053H ; glm::operator*<float,1>
	DB	072H
	DB	063H
	DB	041H
	DB	031H
	DB	00H
	ORG $+2
??$?DM$00@glm@@YA?AU?$tmat4x4@M$00@0@AEBU10@0@Z$rtcName$2 DB 053H ; glm::operator*<float,1>
	DB	072H
	DB	063H
	DB	041H
	DB	032H
	DB	00H
	ORG $+2
??$?DM$00@glm@@YA?AU?$tmat4x4@M$00@0@AEBU10@0@Z$rtcName$3 DB 053H ; glm::operator*<float,1>
	DB	072H
	DB	063H
	DB	041H
	DB	033H
	DB	00H
	ORG $+2
??$?DM$00@glm@@YA?AU?$tmat4x4@M$00@0@AEBU10@0@Z$rtcName$4 DB 053H ; glm::operator*<float,1>
	DB	072H
	DB	063H
	DB	042H
	DB	030H
	DB	00H
	ORG $+2
??$?DM$00@glm@@YA?AU?$tmat4x4@M$00@0@AEBU10@0@Z$rtcName$5 DB 053H ; glm::operator*<float,1>
	DB	072H
	DB	063H
	DB	042H
	DB	031H
	DB	00H
	ORG $+2
??$?DM$00@glm@@YA?AU?$tmat4x4@M$00@0@AEBU10@0@Z$rtcName$6 DB 053H ; glm::operator*<float,1>
	DB	072H
	DB	063H
	DB	042H
	DB	032H
	DB	00H
	ORG $+2
??$?DM$00@glm@@YA?AU?$tmat4x4@M$00@0@AEBU10@0@Z$rtcName$7 DB 053H ; glm::operator*<float,1>
	DB	072H
	DB	063H
	DB	042H
	DB	033H
	DB	00H
	ORG $+2
??$?DM$00@glm@@YA?AU?$tmat4x4@M$00@0@AEBU10@0@Z$rtcName$8 DB 052H ; glm::operator*<float,1>
	DB	065H
	DB	073H
	DB	075H
	DB	06cH
	DB	074H
	DB	00H
	ORG $+1
??$?DM$00@glm@@YA?AU?$tmat4x4@M$00@0@AEBU10@0@Z$rtcFrameData DD 09H ; glm::operator*<float,1>
	DD	00H
	DQ	FLAT:??$?DM$00@glm@@YA?AU?$tmat4x4@M$00@0@AEBU10@0@Z$rtcVarDesc
	ORG $+8
??$?DM$00@glm@@YA?AU?$tmat4x4@M$00@0@AEBU10@0@Z$rtcVarDesc DD 01b0H ; glm::operator*<float,1>
	DD	040H
	DQ	FLAT:??$?DM$00@glm@@YA?AU?$tmat4x4@M$00@0@AEBU10@0@Z$rtcName$8
	DD	0178H
	DD	010H
	DQ	FLAT:??$?DM$00@glm@@YA?AU?$tmat4x4@M$00@0@AEBU10@0@Z$rtcName$7
	DD	0148H
	DD	010H
	DQ	FLAT:??$?DM$00@glm@@YA?AU?$tmat4x4@M$00@0@AEBU10@0@Z$rtcName$6
	DD	0118H
	DD	010H
	DQ	FLAT:??$?DM$00@glm@@YA?AU?$tmat4x4@M$00@0@AEBU10@0@Z$rtcName$5
	DD	0e8H
	DD	010H
	DQ	FLAT:??$?DM$00@glm@@YA?AU?$tmat4x4@M$00@0@AEBU10@0@Z$rtcName$4
	DD	0b8H
	DD	010H
	DQ	FLAT:??$?DM$00@glm@@YA?AU?$tmat4x4@M$00@0@AEBU10@0@Z$rtcName$3
	DD	088H
	DD	010H
	DQ	FLAT:??$?DM$00@glm@@YA?AU?$tmat4x4@M$00@0@AEBU10@0@Z$rtcName$2
	DD	058H
	DD	010H
	DQ	FLAT:??$?DM$00@glm@@YA?AU?$tmat4x4@M$00@0@AEBU10@0@Z$rtcName$1
	DD	028H
	DD	010H
	DQ	FLAT:??$?DM$00@glm@@YA?AU?$tmat4x4@M$00@0@AEBU10@0@Z$rtcName$0
CONST	ENDS
;	COMDAT xdata
xdata	SEGMENT
$unwind$??$inverse@M$00Utmat4x4@glm@@@glm@@YA?AU?$tmat4x4@M$00@0@AEBU10@@Z DD 020f01H
	DD	0700b320fH
xdata	ENDS
;	COMDAT xdata
xdata	SEGMENT
$unwind$??A?$tmat4x4@M$00@glm@@QEBAAEBU?$tvec4@M$00@1@H@Z DD 020e01H
	DD	0700a320eH
xdata	ENDS
;	COMDAT xdata
xdata	SEGMENT
$unwind$??A?$tmat4x4@M$00@glm@@QEAAAEAU?$tvec4@M$00@1@H@Z DD 020e01H
	DD	0700a320eH
xdata	ENDS
;	COMDAT xdata
xdata	SEGMENT
$unwind$?length@?$tmat4x4@M$00@glm@@SAHXZ DD 010201H
	DD	07002H
xdata	ENDS
;	COMDAT xdata
xdata	SEGMENT
$unwind$??0?$tmat4x4@M$00@glm@@QEAA@AEBU?$tvec4@M$00@1@000@Z DD 031a01H
	DD	07016421aH
	DD	06015H
xdata	ENDS
;	COMDAT xdata
xdata	SEGMENT
$unwind$??0?$tmat4x4@M$00@glm@@QEAA@W4ctor@1@@Z DD 020e01H
	DD	0700a320eH
xdata	ENDS
;	COMDAT xdata
xdata	SEGMENT
$unwind$??0?$tvec4@M$00@glm@@QEAA@MMMM@Z DD 011801H
	DD	07018H
xdata	ENDS
;	COMDAT xdata
xdata	SEGMENT
$unwind$??0?$tvec4@M$00@glm@@QEAA@M@Z DD 010c01H
	DD	0700cH
xdata	ENDS
;	COMDAT xdata
xdata	SEGMENT
$unwind$??0?$tvec4@M$00@glm@@QEAA@XZ DD 010601H
	DD	07006H
xdata	ENDS
;	COMDAT xdata
xdata	SEGMENT
$unwind$??A?$tvec4@M$00@glm@@QEBAAEBMH@Z DD 020e01H
	DD	0700a320eH
xdata	ENDS
;	COMDAT xdata
xdata	SEGMENT
$unwind$??A?$tvec4@M$00@glm@@QEAAAEAMH@Z DD 020e01H
	DD	0700a320eH
xdata	ENDS
;	COMDAT xdata
xdata	SEGMENT
$unwind$?length@?$tvec4@M$00@glm@@SAHXZ DD 010201H
	DD	07002H
xdata	ENDS
;	COMDAT xdata
xdata	SEGMENT
$unwind$??$all@$0A@Utvec4@glm@@@glm@@YA_NAEBU?$tvec4@_N$0A@@0@@Z DD 020a01H
	DD	07006520aH
xdata	ENDS
;	COMDAT xdata
xdata	SEGMENT
$unwind$??0?$tvec4@_N$0A@@glm@@QEAA@W4ctor@1@@Z DD 010a01H
	DD	0700aH
xdata	ENDS
;	COMDAT xdata
xdata	SEGMENT
$unwind$??A?$tvec4@_N$0A@@glm@@QEBAAEB_NH@Z DD 020e01H
	DD	0700a320eH
xdata	ENDS
;	COMDAT xdata
xdata	SEGMENT
$unwind$??A?$tvec4@_N$0A@@glm@@QEAAAEA_NH@Z DD 020e01H
	DD	0700a320eH
xdata	ENDS
;	COMDAT xdata
xdata	SEGMENT
$unwind$?length@?$tvec4@_N$0A@@glm@@SAHXZ DD 010201H
	DD	07002H
xdata	ENDS
;	COMDAT xdata
xdata	SEGMENT
$unwind$??$epsilonEqual@M$0A@Utvec4@glm@@@glm@@YA?AU?$tvec4@_N$0A@@0@AEBU?$tvec4@M$0A@@0@00@Z DD 031a01H
	DD	07016a21aH
	DD	06015H
xdata	ENDS
;	COMDAT xdata
xdata	SEGMENT
$unwind$??$?8M$0A@@glm@@YA_NAEBU?$tmat4x4@M$0A@@0@0@Z DD 020f01H
	DD	0700b920fH
xdata	ENDS
;	COMDAT xdata
xdata	SEGMENT
$unwind$??$?9M$0A@@glm@@YA_NAEBU?$tmat4x4@M$0A@@0@0@Z DD 020f01H
	DD	0700b920fH
xdata	ENDS
;	COMDAT xdata
xdata	SEGMENT
$unwind$??$?DM$0A@@glm@@YA?AU?$tmat4x4@M$0A@@0@AEBU10@AEBM@Z DD 031701H
	DD	0120117H
	DD	07010H
xdata	ENDS
;	COMDAT xdata
xdata	SEGMENT
$unwind$??$?DM$0A@@glm@@YA?AU?$tmat4x4@M$0A@@0@AEBMAEBU10@@Z DD 031701H
	DD	0120117H
	DD	07010H
xdata	ENDS
;	COMDAT xdata
xdata	SEGMENT
$unwind$??$?KM$0A@@glm@@YA?AU?$tmat4x4@M$0A@@0@AEBU10@AEBM@Z DD 031701H
	DD	0120117H
	DD	07010H
xdata	ENDS
;	COMDAT xdata
xdata	SEGMENT
$unwind$??$?KM$0A@@glm@@YA?AU?$tmat4x4@M$0A@@0@AEBMAEBU10@@Z DD 031701H
	DD	0120117H
	DD	07010H
xdata	ENDS
;	COMDAT xdata
xdata	SEGMENT
$unwind$??A?$tmat4x3@M$0A@@glm@@QEBAAEBU?$tvec3@M$0A@@1@H@Z DD 020e01H
	DD	0700a320eH
xdata	ENDS
;	COMDAT xdata
xdata	SEGMENT
$unwind$?length@?$tmat4x3@M$0A@@glm@@SAHXZ DD 010201H
	DD	07002H
xdata	ENDS
;	COMDAT xdata
xdata	SEGMENT
$unwind$??0?$tmat4x3@M$0A@@glm@@QEAA@AEBM@Z DD 031001H
	DD	0700ca210H
	DD	0600bH
xdata	ENDS
;	COMDAT xdata
xdata	SEGMENT
$unwind$??A?$tmat2x2@M$0A@@glm@@QEBAAEBU?$tvec2@M$0A@@1@H@Z DD 020e01H
	DD	0700a320eH
xdata	ENDS
;	COMDAT xdata
xdata	SEGMENT
$unwind$?length@?$tmat2x2@M$0A@@glm@@SAHXZ DD 010201H
	DD	07002H
xdata	ENDS
;	COMDAT xdata
xdata	SEGMENT
$unwind$??0?$tmat2x2@M$0A@@glm@@QEAA@M@Z DD 021001H
	DD	0700c5210H
xdata	ENDS
;	COMDAT xdata
xdata	SEGMENT
$unwind$??A?$tmat3x3@M$0A@@glm@@QEBAAEBU?$tvec3@M$0A@@1@H@Z DD 020e01H
	DD	0700a320eH
xdata	ENDS
;	COMDAT xdata
xdata	SEGMENT
$unwind$?length@?$tmat3x3@M$0A@@glm@@SAHXZ DD 010201H
	DD	07002H
xdata	ENDS
;	COMDAT xdata
xdata	SEGMENT
$unwind$??0?$tmat3x3@M$0A@@glm@@QEAA@M@Z DD 031101H
	DD	0700da211H
	DD	0600cH
xdata	ENDS
;	COMDAT xdata
xdata	SEGMENT
$unwind$??A?$tmat2x3@M$0A@@glm@@QEBAAEBU?$tvec3@M$0A@@1@H@Z DD 020e01H
	DD	0700a320eH
xdata	ENDS
;	COMDAT xdata
xdata	SEGMENT
$unwind$?length@?$tmat2x3@M$0A@@glm@@SAHXZ DD 010201H
	DD	07002H
xdata	ENDS
;	COMDAT xdata
xdata	SEGMENT
$unwind$??0?$tmat2x3@M$0A@@glm@@QEAA@M@Z DD 031101H
	DD	0700d8211H
	DD	0600cH
xdata	ENDS
;	COMDAT xdata
xdata	SEGMENT
$unwind$??0?$tvec3@M$0A@@glm@@QEAA@XZ DD 010601H
	DD	07006H
xdata	ENDS
;	COMDAT xdata
xdata	SEGMENT
$unwind$??A?$tmat3x2@M$0A@@glm@@QEBAAEBU?$tvec2@M$0A@@1@H@Z DD 020e01H
	DD	0700a320eH
xdata	ENDS
;	COMDAT xdata
xdata	SEGMENT
$unwind$?length@?$tmat3x2@M$0A@@glm@@SAHXZ DD 010201H
	DD	07002H
xdata	ENDS
;	COMDAT xdata
xdata	SEGMENT
$unwind$??0?$tmat3x2@M$0A@@glm@@QEAA@M@Z DD 021001H
	DD	0700c7210H
xdata	ENDS
;	COMDAT xdata
xdata	SEGMENT
$unwind$??A?$tmat2x4@M$0A@@glm@@QEBAAEBU?$tvec4@M$0A@@1@H@Z DD 020e01H
	DD	0700a320eH
xdata	ENDS
;	COMDAT xdata
xdata	SEGMENT
$unwind$?length@?$tmat2x4@M$0A@@glm@@SAHXZ DD 010201H
	DD	07002H
xdata	ENDS
;	COMDAT xdata
xdata	SEGMENT
$unwind$??0?$tmat2x4@M$0A@@glm@@QEAA@M@Z DD 031101H
	DD	0700dc211H
	DD	0600cH
xdata	ENDS
;	COMDAT xdata
xdata	SEGMENT
$unwind$??A?$tmat4x2@M$0A@@glm@@QEBAAEBU?$tvec2@M$0A@@1@H@Z DD 020e01H
	DD	0700a320eH
xdata	ENDS
;	COMDAT xdata
xdata	SEGMENT
$unwind$?length@?$tmat4x2@M$0A@@glm@@SAHXZ DD 010201H
	DD	07002H
xdata	ENDS
;	COMDAT xdata
xdata	SEGMENT
$unwind$??0?$tmat4x2@M$0A@@glm@@QEAA@M@Z DD 021001H
	DD	0700c7210H
xdata	ENDS
;	COMDAT xdata
xdata	SEGMENT
$unwind$??0?$tvec2@M$0A@@glm@@QEAA@XZ DD 010601H
	DD	07006H
xdata	ENDS
;	COMDAT xdata
xdata	SEGMENT
$unwind$??A?$tmat3x4@M$0A@@glm@@QEBAAEBU?$tvec4@M$0A@@1@H@Z DD 020e01H
	DD	0700a320eH
xdata	ENDS
;	COMDAT xdata
xdata	SEGMENT
$unwind$?length@?$tmat3x4@M$0A@@glm@@SAHXZ DD 010201H
	DD	07002H
xdata	ENDS
;	COMDAT xdata
xdata	SEGMENT
$unwind$??0?$tmat3x4@M$0A@@glm@@QEAA@M@Z DD 031101H
	DD	0700dc211H
	DD	0600cH
xdata	ENDS
;	COMDAT xdata
xdata	SEGMENT
$unwind$??$print@U?$tmat4x4@N$0A@@glm@@@@YAXAEBU?$tmat4x4@N$0A@@glm@@@Z DD 030d01H
	DD	012010dH
	DD	07006H
xdata	ENDS
;	COMDAT voltbl
voltbl	SEGMENT
_volmd	DW	03bH
	DW	069eH
voltbl	ENDS
;	COMDAT xdata
xdata	SEGMENT
$unwind$??$?DN$0A@@glm@@YA?AU?$tmat4x4@N$0A@@0@AEBU10@0@Z DD 044319H
	DD	0db0118H
	DD	060107011H
	DD	imagerel __GSHandlerCheck
	DD	06c0H
xdata	ENDS
;	COMDAT CONST
CONST	SEGMENT
??$?DN$0A@@glm@@YA?AU?$tmat4x4@N$0A@@0@AEBU10@0@Z$rtcName$0 DB 053H ; glm::operator*<double,0>
	DB	072H
	DB	063H
	DB	041H
	DB	030H
	DB	00H
	ORG $+2
??$?DN$0A@@glm@@YA?AU?$tmat4x4@N$0A@@0@AEBU10@0@Z$rtcName$1 DB 053H ; glm::operator*<double,0>
	DB	072H
	DB	063H
	DB	041H
	DB	031H
	DB	00H
	ORG $+2
??$?DN$0A@@glm@@YA?AU?$tmat4x4@N$0A@@0@AEBU10@0@Z$rtcName$2 DB 053H ; glm::operator*<double,0>
	DB	072H
	DB	063H
	DB	041H
	DB	032H
	DB	00H
	ORG $+2
??$?DN$0A@@glm@@YA?AU?$tmat4x4@N$0A@@0@AEBU10@0@Z$rtcName$3 DB 053H ; glm::operator*<double,0>
	DB	072H
	DB	063H
	DB	041H
	DB	033H
	DB	00H
	ORG $+2
??$?DN$0A@@glm@@YA?AU?$tmat4x4@N$0A@@0@AEBU10@0@Z$rtcName$4 DB 053H ; glm::operator*<double,0>
	DB	072H
	DB	063H
	DB	042H
	DB	030H
	DB	00H
	ORG $+2
??$?DN$0A@@glm@@YA?AU?$tmat4x4@N$0A@@0@AEBU10@0@Z$rtcName$5 DB 053H ; glm::operator*<double,0>
	DB	072H
	DB	063H
	DB	042H
	DB	031H
	DB	00H
	ORG $+2
??$?DN$0A@@glm@@YA?AU?$tmat4x4@N$0A@@0@AEBU10@0@Z$rtcName$6 DB 053H ; glm::operator*<double,0>
	DB	072H
	DB	063H
	DB	042H
	DB	032H
	DB	00H
	ORG $+2
??$?DN$0A@@glm@@YA?AU?$tmat4x4@N$0A@@0@AEBU10@0@Z$rtcName$7 DB 053H ; glm::operator*<double,0>
	DB	072H
	DB	063H
	DB	042H
	DB	033H
	DB	00H
	ORG $+2
??$?DN$0A@@glm@@YA?AU?$tmat4x4@N$0A@@0@AEBU10@0@Z$rtcName$8 DB 052H ; glm::operator*<double,0>
	DB	065H
	DB	073H
	DB	075H
	DB	06cH
	DB	074H
	DB	00H
	ORG $+1
??$?DN$0A@@glm@@YA?AU?$tmat4x4@N$0A@@0@AEBU10@0@Z$rtcFrameData DD 09H ; glm::operator*<double,0>
	DD	00H
	DQ	FLAT:??$?DN$0A@@glm@@YA?AU?$tmat4x4@N$0A@@0@AEBU10@0@Z$rtcVarDesc
	ORG $+8
??$?DN$0A@@glm@@YA?AU?$tmat4x4@N$0A@@0@AEBU10@0@Z$rtcVarDesc DD 0230H ; glm::operator*<double,0>
	DD	080H
	DQ	FLAT:??$?DN$0A@@glm@@YA?AU?$tmat4x4@N$0A@@0@AEBU10@0@Z$rtcName$8
	DD	01e8H
	DD	020H
	DQ	FLAT:??$?DN$0A@@glm@@YA?AU?$tmat4x4@N$0A@@0@AEBU10@0@Z$rtcName$7
	DD	01a8H
	DD	020H
	DQ	FLAT:??$?DN$0A@@glm@@YA?AU?$tmat4x4@N$0A@@0@AEBU10@0@Z$rtcName$6
	DD	0168H
	DD	020H
	DQ	FLAT:??$?DN$0A@@glm@@YA?AU?$tmat4x4@N$0A@@0@AEBU10@0@Z$rtcName$5
	DD	0128H
	DD	020H
	DQ	FLAT:??$?DN$0A@@glm@@YA?AU?$tmat4x4@N$0A@@0@AEBU10@0@Z$rtcName$4
	DD	0e8H
	DD	020H
	DQ	FLAT:??$?DN$0A@@glm@@YA?AU?$tmat4x4@N$0A@@0@AEBU10@0@Z$rtcName$3
	DD	0a8H
	DD	020H
	DQ	FLAT:??$?DN$0A@@glm@@YA?AU?$tmat4x4@N$0A@@0@AEBU10@0@Z$rtcName$2
	DD	068H
	DD	020H
	DQ	FLAT:??$?DN$0A@@glm@@YA?AU?$tmat4x4@N$0A@@0@AEBU10@0@Z$rtcName$1
	DD	028H
	DD	020H
	DQ	FLAT:??$?DN$0A@@glm@@YA?AU?$tmat4x4@N$0A@@0@AEBU10@0@Z$rtcName$0
CONST	ENDS
;	COMDAT xdata
xdata	SEGMENT
$unwind$??$inverse@N$0A@Utmat4x4@glm@@@glm@@YA?AU?$tmat4x4@N$0A@@0@AEBU10@@Z DD 020f01H
	DD	0700b320fH
xdata	ENDS
;	COMDAT xdata
xdata	SEGMENT
$unwind$??A?$tmat4x4@N$0A@@glm@@QEBAAEBU?$tvec4@N$0A@@1@H@Z DD 020e01H
	DD	0700a320eH
xdata	ENDS
;	COMDAT xdata
xdata	SEGMENT
$unwind$??A?$tmat4x4@N$0A@@glm@@QEAAAEAU?$tvec4@N$0A@@1@H@Z DD 020e01H
	DD	0700a320eH
xdata	ENDS
;	COMDAT xdata
xdata	SEGMENT
$unwind$?length@?$tmat4x4@N$0A@@glm@@SAHXZ DD 010201H
	DD	07002H
xdata	ENDS
;	COMDAT xdata
xdata	SEGMENT
$unwind$??0?$tmat4x4@N$0A@@glm@@QEAA@AEBU?$tvec4@N$0A@@1@000@Z DD 031a01H
	DD	07016421aH
	DD	06015H
xdata	ENDS
;	COMDAT xdata
xdata	SEGMENT
$unwind$??0?$tmat4x4@N$0A@@glm@@QEAA@W4ctor@1@@Z DD 020e01H
	DD	0700a320eH
xdata	ENDS
;	COMDAT xdata
xdata	SEGMENT
$unwind$??0?$tmat4x4@N$0A@@glm@@QEAA@XZ DD 040e01H
	DD	017010eH
	DD	060067007H
xdata	ENDS
;	COMDAT xdata
xdata	SEGMENT
$unwind$??$?0MMMM@?$tvec4@N$0A@@glm@@QEAA@MMMM@Z DD 011801H
	DD	07018H
xdata	ENDS
;	COMDAT xdata
xdata	SEGMENT
$unwind$??0?$tvec4@N$0A@@glm@@QEAA@NNNN@Z DD 011801H
	DD	07018H
xdata	ENDS
;	COMDAT xdata
xdata	SEGMENT
$unwind$??0?$tvec4@N$0A@@glm@@QEAA@N@Z DD 010c01H
	DD	0700cH
xdata	ENDS
;	COMDAT xdata
xdata	SEGMENT
$unwind$??0?$tvec4@N$0A@@glm@@QEAA@XZ DD 010601H
	DD	07006H
xdata	ENDS
;	COMDAT xdata
xdata	SEGMENT
$unwind$??A?$tvec4@N$0A@@glm@@QEBAAEBNH@Z DD 020e01H
	DD	0700a320eH
xdata	ENDS
;	COMDAT xdata
xdata	SEGMENT
$unwind$??A?$tvec4@N$0A@@glm@@QEAAAEANH@Z DD 020e01H
	DD	0700a320eH
xdata	ENDS
;	COMDAT xdata
xdata	SEGMENT
$unwind$?length@?$tvec4@N$0A@@glm@@SAHXZ DD 010201H
	DD	07002H
xdata	ENDS
;	COMDAT xdata
xdata	SEGMENT
$unwind$??$print@U?$tmat4x4@M$0A@@glm@@@@YAXAEBU?$tmat4x4@M$0A@@glm@@@Z DD 030d01H
	DD	012010dH
	DD	07006H
xdata	ENDS
;	COMDAT voltbl
voltbl	SEGMENT
_volmd	DW	03bH
	DW	069eH
voltbl	ENDS
;	COMDAT xdata
xdata	SEGMENT
$unwind$??$?DM$0A@@glm@@YA?AU?$tmat4x4@M$0A@@0@AEBU10@0@Z DD 044319H
	DD	08b0118H
	DD	060107011H
	DD	imagerel __GSHandlerCheck
	DD	0440H
xdata	ENDS
;	COMDAT CONST
CONST	SEGMENT
??$?DM$0A@@glm@@YA?AU?$tmat4x4@M$0A@@0@AEBU10@0@Z$rtcName$0 DB 053H ; glm::operator*<float,0>
	DB	072H
	DB	063H
	DB	041H
	DB	030H
	DB	00H
	ORG $+2
??$?DM$0A@@glm@@YA?AU?$tmat4x4@M$0A@@0@AEBU10@0@Z$rtcName$1 DB 053H ; glm::operator*<float,0>
	DB	072H
	DB	063H
	DB	041H
	DB	031H
	DB	00H
	ORG $+2
??$?DM$0A@@glm@@YA?AU?$tmat4x4@M$0A@@0@AEBU10@0@Z$rtcName$2 DB 053H ; glm::operator*<float,0>
	DB	072H
	DB	063H
	DB	041H
	DB	032H
	DB	00H
	ORG $+2
??$?DM$0A@@glm@@YA?AU?$tmat4x4@M$0A@@0@AEBU10@0@Z$rtcName$3 DB 053H ; glm::operator*<float,0>
	DB	072H
	DB	063H
	DB	041H
	DB	033H
	DB	00H
	ORG $+2
??$?DM$0A@@glm@@YA?AU?$tmat4x4@M$0A@@0@AEBU10@0@Z$rtcName$4 DB 053H ; glm::operator*<float,0>
	DB	072H
	DB	063H
	DB	042H
	DB	030H
	DB	00H
	ORG $+2
??$?DM$0A@@glm@@YA?AU?$tmat4x4@M$0A@@0@AEBU10@0@Z$rtcName$5 DB 053H ; glm::operator*<float,0>
	DB	072H
	DB	063H
	DB	042H
	DB	031H
	DB	00H
	ORG $+2
??$?DM$0A@@glm@@YA?AU?$tmat4x4@M$0A@@0@AEBU10@0@Z$rtcName$6 DB 053H ; glm::operator*<float,0>
	DB	072H
	DB	063H
	DB	042H
	DB	032H
	DB	00H
	ORG $+2
??$?DM$0A@@glm@@YA?AU?$tmat4x4@M$0A@@0@AEBU10@0@Z$rtcName$7 DB 053H ; glm::operator*<float,0>
	DB	072H
	DB	063H
	DB	042H
	DB	033H
	DB	00H
	ORG $+2
??$?DM$0A@@glm@@YA?AU?$tmat4x4@M$0A@@0@AEBU10@0@Z$rtcName$8 DB 052H ; glm::operator*<float,0>
	DB	065H
	DB	073H
	DB	075H
	DB	06cH
	DB	074H
	DB	00H
	ORG $+1
??$?DM$0A@@glm@@YA?AU?$tmat4x4@M$0A@@0@AEBU10@0@Z$rtcFrameData DD 09H ; glm::operator*<float,0>
	DD	00H
	DQ	FLAT:??$?DM$0A@@glm@@YA?AU?$tmat4x4@M$0A@@0@AEBU10@0@Z$rtcVarDesc
	ORG $+8
??$?DM$0A@@glm@@YA?AU?$tmat4x4@M$0A@@0@AEBU10@0@Z$rtcVarDesc DD 01b0H ; glm::operator*<float,0>
	DD	040H
	DQ	FLAT:??$?DM$0A@@glm@@YA?AU?$tmat4x4@M$0A@@0@AEBU10@0@Z$rtcName$8
	DD	0178H
	DD	010H
	DQ	FLAT:??$?DM$0A@@glm@@YA?AU?$tmat4x4@M$0A@@0@AEBU10@0@Z$rtcName$7
	DD	0148H
	DD	010H
	DQ	FLAT:??$?DM$0A@@glm@@YA?AU?$tmat4x4@M$0A@@0@AEBU10@0@Z$rtcName$6
	DD	0118H
	DD	010H
	DQ	FLAT:??$?DM$0A@@glm@@YA?AU?$tmat4x4@M$0A@@0@AEBU10@0@Z$rtcName$5
	DD	0e8H
	DD	010H
	DQ	FLAT:??$?DM$0A@@glm@@YA?AU?$tmat4x4@M$0A@@0@AEBU10@0@Z$rtcName$4
	DD	0b8H
	DD	010H
	DQ	FLAT:??$?DM$0A@@glm@@YA?AU?$tmat4x4@M$0A@@0@AEBU10@0@Z$rtcName$3
	DD	088H
	DD	010H
	DQ	FLAT:??$?DM$0A@@glm@@YA?AU?$tmat4x4@M$0A@@0@AEBU10@0@Z$rtcName$2
	DD	058H
	DD	010H
	DQ	FLAT:??$?DM$0A@@glm@@YA?AU?$tmat4x4@M$0A@@0@AEBU10@0@Z$rtcName$1
	DD	028H
	DD	010H
