; Listing generated by Microsoft (R) Optimizing Compiler Version 19.32.31329.0 

include listing.inc

INCLUDELIB MSVCRTD

PUBLIC	??_H@YAXPEAX_K1P6APEAX0@Z@Z			; `vector constructor iterator'
PUBLIC	?testVec@@YAHXZ					; testVec
PUBLIC	?length@?$tvec3@M$0A@@glm@@SAHXZ		; glm::tvec3<float,0>::length
PUBLIC	??A?$tvec3@M$0A@@glm@@QEBAAEBMH@Z		; glm::tvec3<float,0>::operator[]
PUBLIC	??0?$tvec3@M$0A@@glm@@QEAA@XZ			; glm::tvec3<float,0>::tvec3<float,0>
PUBLIC	??0?$tvec3@M$0A@@glm@@QEAA@MMM@Z		; glm::tvec3<float,0>::tvec3<float,0>
PUBLIC	??$?0HHH@?$tvec3@M$0A@@glm@@QEAA@HHH@Z		; glm::tvec3<float,0>::tvec3<float,0><int,int,int>
PUBLIC	??$begin@U?$tvec3@M$0A@@glm@@@glm@@YAPEAMAEAU?$tvec3@M$0A@@0@@Z ; glm::begin<glm::tvec3<float,0> >
PUBLIC	??$end@U?$tvec3@M$0A@@glm@@@glm@@YAPEAMAEAU?$tvec3@M$0A@@0@@Z ; glm::end<glm::tvec3<float,0> >
PUBLIC	??$equal@M$0A@Utvec3@glm@@@glm@@YA?AU?$tvec3@_N$0A@@0@AEBU?$tvec3@M$0A@@0@0@Z ; glm::equal<float,0,glm::tvec3>
PUBLIC	?length@?$tvec3@_N$0A@@glm@@SAHXZ		; glm::tvec3<bool,0>::length
PUBLIC	??A?$tvec3@_N$0A@@glm@@QEAAAEA_NH@Z		; glm::tvec3<bool,0>::operator[]
PUBLIC	??A?$tvec3@_N$0A@@glm@@QEBAAEB_NH@Z		; glm::tvec3<bool,0>::operator[]
PUBLIC	??0?$tvec3@_N$0A@@glm@@QEAA@W4ctor@1@@Z		; glm::tvec3<bool,0>::tvec3<bool,0>
PUBLIC	??$all@$0A@Utvec3@glm@@@glm@@YA_NAEBU?$tvec3@_N$0A@@0@@Z ; glm::all<0,glm::tvec3>
PUBLIC	?testMat@@YAHXZ					; testMat
PUBLIC	??0?$tmat4x3@M$0A@@glm@@QEAA@AEBM@Z		; glm::tmat4x3<float,0>::tmat4x3<float,0>
PUBLIC	?length@?$tmat4x3@M$0A@@glm@@SAHXZ		; glm::tmat4x3<float,0>::length
PUBLIC	??A?$tmat4x3@M$0A@@glm@@QEAAAEAU?$tvec3@M$0A@@1@H@Z ; glm::tmat4x3<float,0>::operator[]
PUBLIC	??A?$tmat4x3@M$0A@@glm@@QEBAAEBU?$tvec3@M$0A@@1@H@Z ; glm::tmat4x3<float,0>::operator[]
PUBLIC	??$begin@U?$tmat4x3@M$0A@@glm@@@glm@@YAPEAMAEAU?$tmat4x3@M$0A@@0@@Z ; glm::begin<glm::tmat4x3<float,0> >
PUBLIC	??$end@U?$tmat4x3@M$0A@@glm@@@glm@@YAPEAMAEAU?$tmat4x3@M$0A@@0@@Z ; glm::end<glm::tmat4x3<float,0> >
PUBLIC	??$?0HHHH@?$tvec4@M$0A@@glm@@QEAA@HHHH@Z	; glm::tvec4<float,0>::tvec4<float,0><int,int,int,int>
PUBLIC	??$?DM$0A@@glm@@YA?AU?$tvec3@M$0A@@0@AEBU?$tmat4x3@M$0A@@0@AEBU?$tvec4@M$0A@@0@@Z ; glm::operator*<float,0>
PUBLIC	main
PUBLIC	??$?0MHH@?$tvec3@M$0A@@glm@@QEAA@MHH@Z		; glm::tvec3<float,0>::tvec3<float,0><float,int,int>
PUBLIC	??$?0HMH@?$tvec3@M$0A@@glm@@QEAA@HMH@Z		; glm::tvec3<float,0>::tvec3<float,0><int,float,int>
PUBLIC	??$?0HHM@?$tvec3@M$0A@@glm@@QEAA@HHM@Z		; glm::tvec3<float,0>::tvec3<float,0><int,int,float>
PUBLIC	??$value_ptr@M$0A@@glm@@YAPEAMAEAU?$tvec3@M$0A@@0@@Z ; glm::value_ptr<float,0>
PUBLIC	??$components@M$0A@@glm@@YAHAEBU?$tvec3@M$0A@@0@@Z ; glm::components<float,0>
PUBLIC	??$value_ptr@M$0A@@glm@@YAPEAMAEAU?$tmat4x3@M$0A@@0@@Z ; glm::value_ptr<float,0>
PUBLIC	??$components@U?$tmat4x3@M$0A@@glm@@@glm@@YAHAEBU?$tmat4x3@M$0A@@0@@Z ; glm::components<glm::tmat4x3<float,0> >
PUBLIC	??_C@_1DK@BGNCJAPL@?$AAi?$AA?5?$AA?$DO?$AA?$DN?$AA?5?$AA0?$AA?5?$AA?$CG?$AA?$CG?$AA?5?$AAi?$AA?5?$AA?$DM?$AA?5?$AAt@ ; `string'
PUBLIC	??_C@_1NA@OPABFNEN@?$AAC?$AA?3?$AA?2?$AAU?$AAs?$AAe?$AAr?$AAs?$AA?2?$AAk?$AAs?$AAa?$AAr?$AAt?$AA?2@ ; `string'
PUBLIC	??_C@_1DC@HHLCGOLC@?$AAx?$AA?4?$AAl?$AAe?$AAn?$AAg?$AAt?$AAh?$AA?$CI?$AA?$CJ?$AA?5?$AA?$DN?$AA?$DN?$AA?5?$AAy@ ; `string'
PUBLIC	??_C@_1LG@MEJFBKPC@?$AAC?$AA?3?$AA?2?$AAU?$AAs?$AAe?$AAr?$AAs?$AA?2?$AAk?$AAs?$AAa?$AAr?$AAt?$AA?2@ ; `string'
PUBLIC	??_C@_1LK@GEGFBJDO@?$AAC?$AA?3?$AA?2?$AAU?$AAs?$AAe?$AAr?$AAs?$AA?2?$AAk?$AAs?$AAa?$AAr?$AAt?$AA?2@ ; `string'
PUBLIC	??_C@_1CG@KOFHLCJL@?$AAi?$AA?5?$AA?$DM?$AA?5?$AAt?$AAh?$AAi?$AAs?$AA?9?$AA?$DO?$AAl?$AAe?$AAn?$AAg?$AAt@ ; `string'
PUBLIC	__real@3f800000
EXTRN	__imp__wassert:PROC
EXTRN	_RTC_CheckStackVars:PROC
EXTRN	_RTC_InitBase:PROC
EXTRN	_RTC_Shutdown:PROC
EXTRN	__GSHandlerCheck:PROC
EXTRN	__security_check_cookie:PROC
EXTRN	__security_cookie:QWORD
EXTRN	_fltused:DWORD
;	COMDAT pdata
pdata	SEGMENT
$pdata$??_H@YAXPEAX_K1P6APEAX0@Z@Z DD imagerel $LN7
	DD	imagerel $LN7+119
	DD	imagerel $unwind$??_H@YAXPEAX_K1P6APEAX0@Z@Z
pdata	ENDS
pdata	SEGMENT
$pdata$?testVec@@YAHXZ DD imagerel $LN13
	DD	imagerel $LN13+465
	DD	imagerel $unwind$?testVec@@YAHXZ
pdata	ENDS
;	COMDAT pdata
pdata	SEGMENT
$pdata$?length@?$tvec3@M$0A@@glm@@SAHXZ DD imagerel $LN3
	DD	imagerel $LN3+9
	DD	imagerel $unwind$?length@?$tvec3@M$0A@@glm@@SAHXZ
pdata	ENDS
;	COMDAT pdata
pdata	SEGMENT
$pdata$??A?$tvec3@M$0A@@glm@@QEBAAEBMH@Z DD imagerel $LN5
	DD	imagerel $LN5+80
	DD	imagerel $unwind$??A?$tvec3@M$0A@@glm@@QEBAAEBMH@Z
pdata	ENDS
;	COMDAT pdata
pdata	SEGMENT
$pdata$??0?$tvec3@M$0A@@glm@@QEAA@XZ DD imagerel $LN3
	DD	imagerel $LN3+51
	DD	imagerel $unwind$??0?$tvec3@M$0A@@glm@@QEAA@XZ
pdata	ENDS
;	COMDAT pdata
pdata	SEGMENT
$pdata$??0?$tvec3@M$0A@@glm@@QEAA@MMM@Z DD imagerel $LN3
	DD	imagerel $LN3+78
	DD	imagerel $unwind$??0?$tvec3@M$0A@@glm@@QEAA@MMM@Z
pdata	ENDS
;	COMDAT pdata
pdata	SEGMENT
$pdata$??$?0HHH@?$tvec3@M$0A@@glm@@QEAA@HHH@Z DD imagerel $LN3
	DD	imagerel $LN3+74
	DD	imagerel $unwind$??$?0HHH@?$tvec3@M$0A@@glm@@QEAA@HHH@Z
pdata	ENDS
;	COMDAT pdata
pdata	SEGMENT
$pdata$??$begin@U?$tvec3@M$0A@@glm@@@glm@@YAPEAMAEAU?$tvec3@M$0A@@0@@Z DD imagerel $LN3
	DD	imagerel $LN3+26
	DD	imagerel $unwind$??$begin@U?$tvec3@M$0A@@glm@@@glm@@YAPEAMAEAU?$tvec3@M$0A@@0@@Z
pdata	ENDS
;	COMDAT pdata
pdata	SEGMENT
$pdata$??$end@U?$tvec3@M$0A@@glm@@@glm@@YAPEAMAEAU?$tvec3@M$0A@@0@@Z DD imagerel $LN3
	DD	imagerel $LN3+52
	DD	imagerel $unwind$??$end@U?$tvec3@M$0A@@glm@@@glm@@YAPEAMAEAU?$tvec3@M$0A@@0@@Z
pdata	ENDS
;	COMDAT pdata
pdata	SEGMENT
$pdata$??$equal@M$0A@Utvec3@glm@@@glm@@YA?AU?$tvec3@_N$0A@@0@AEBU?$tvec3@M$0A@@0@0@Z DD imagerel $LN9
	DD	imagerel $LN9+282
	DD	imagerel $unwind$??$equal@M$0A@Utvec3@glm@@@glm@@YA?AU?$tvec3@_N$0A@@0@AEBU?$tvec3@M$0A@@0@0@Z
pdata	ENDS
;	COMDAT pdata
pdata	SEGMENT
$pdata$?length@?$tvec3@_N$0A@@glm@@SAHXZ DD imagerel $LN3
	DD	imagerel $LN3+9
	DD	imagerel $unwind$?length@?$tvec3@_N$0A@@glm@@SAHXZ
pdata	ENDS
;	COMDAT pdata
pdata	SEGMENT
$pdata$??A?$tvec3@_N$0A@@glm@@QEAAAEA_NH@Z DD imagerel $LN5
	DD	imagerel $LN5+82
	DD	imagerel $unwind$??A?$tvec3@_N$0A@@glm@@QEAAAEA_NH@Z
pdata	ENDS
;	COMDAT pdata
pdata	SEGMENT
$pdata$??A?$tvec3@_N$0A@@glm@@QEBAAEB_NH@Z DD imagerel $LN5
	DD	imagerel $LN5+82
	DD	imagerel $unwind$??A?$tvec3@_N$0A@@glm@@QEBAAEB_NH@Z
pdata	ENDS
;	COMDAT pdata
pdata	SEGMENT
$pdata$??0?$tvec3@_N$0A@@glm@@QEAA@W4ctor@1@@Z DD imagerel $LN3
	DD	imagerel $LN3+17
	DD	imagerel $unwind$??0?$tvec3@_N$0A@@glm@@QEAA@W4ctor@1@@Z
pdata	ENDS
;	COMDAT pdata
pdata	SEGMENT
$pdata$??$all@$0A@Utvec3@glm@@@glm@@YA_NAEBU?$tvec3@_N$0A@@0@@Z DD imagerel $LN8
	DD	imagerel $LN8+116
	DD	imagerel $unwind$??$all@$0A@Utvec3@glm@@@glm@@YA_NAEBU?$tvec3@_N$0A@@0@@Z
pdata	ENDS
pdata	SEGMENT
$pdata$?testMat@@YAHXZ DD imagerel $LN13
	DD	imagerel $LN13+639
	DD	imagerel $unwind$?testMat@@YAHXZ
pdata	ENDS
;	COMDAT pdata
pdata	SEGMENT
$pdata$??0?$tmat4x3@M$0A@@glm@@QEAA@AEBM@Z DD imagerel $LN3
	DD	imagerel $LN3+262
	DD	imagerel $unwind$??0?$tmat4x3@M$0A@@glm@@QEAA@AEBM@Z
pdata	ENDS
;	COMDAT pdata
pdata	SEGMENT
$pdata$?length@?$tmat4x3@M$0A@@glm@@SAHXZ DD imagerel $LN3
	DD	imagerel $LN3+9
	DD	imagerel $unwind$?length@?$tmat4x3@M$0A@@glm@@SAHXZ
pdata	ENDS
;	COMDAT pdata
pdata	SEGMENT
$pdata$??A?$tmat4x3@M$0A@@glm@@QEAAAEAU?$tvec3@M$0A@@1@H@Z DD imagerel $LN4
	DD	imagerel $LN4+79
	DD	imagerel $unwind$??A?$tmat4x3@M$0A@@glm@@QEAAAEAU?$tvec3@M$0A@@1@H@Z
pdata	ENDS
;	COMDAT pdata
pdata	SEGMENT
$pdata$??A?$tmat4x3@M$0A@@glm@@QEBAAEBU?$tvec3@M$0A@@1@H@Z DD imagerel $LN4
	DD	imagerel $LN4+79
	DD	imagerel $unwind$??A?$tmat4x3@M$0A@@glm@@QEBAAEBU?$tvec3@M$0A@@1@H@Z
pdata	ENDS
;	COMDAT pdata
pdata	SEGMENT
$pdata$??$begin@U?$tmat4x3@M$0A@@glm@@@glm@@YAPEAMAEAU?$tmat4x3@M$0A@@0@@Z DD imagerel $LN3
	DD	imagerel $LN3+26
	DD	imagerel $unwind$??$begin@U?$tmat4x3@M$0A@@glm@@@glm@@YAPEAMAEAU?$tmat4x3@M$0A@@0@@Z
pdata	ENDS
;	COMDAT pdata
pdata	SEGMENT
$pdata$??$end@U?$tmat4x3@M$0A@@glm@@@glm@@YAPEAMAEAU?$tmat4x3@M$0A@@0@@Z DD imagerel $LN3
	DD	imagerel $LN3+52
	DD	imagerel $unwind$??$end@U?$tmat4x3@M$0A@@glm@@@glm@@YAPEAMAEAU?$tmat4x3@M$0A@@0@@Z
pdata	ENDS
;	COMDAT pdata
pdata	SEGMENT
$pdata$??$?0HHHH@?$tvec4@M$0A@@glm@@QEAA@HHHH@Z DD imagerel $LN3
	DD	imagerel $LN3+90
	DD	imagerel $unwind$??$?0HHHH@?$tvec4@M$0A@@glm@@QEAA@HHHH@Z
pdata	ENDS
;	COMDAT pdata
pdata	SEGMENT
$pdata$??$?DM$0A@@glm@@YA?AU?$tvec3@M$0A@@0@AEBU?$tmat4x3@M$0A@@0@AEBU?$tvec4@M$0A@@0@@Z DD imagerel $LN3
	DD	imagerel $LN3+725
	DD	imagerel $unwind$??$?DM$0A@@glm@@YA?AU?$tvec3@M$0A@@0@AEBU?$tmat4x3@M$0A@@0@AEBU?$tvec4@M$0A@@0@@Z
pdata	ENDS
pdata	SEGMENT
$pdata$main DD	imagerel $LN3
	DD	imagerel $LN3+58
	DD	imagerel $unwind$main
pdata	ENDS
;	COMDAT pdata
pdata	SEGMENT
$pdata$??$?0MHH@?$tvec3@M$0A@@glm@@QEAA@MHH@Z DD imagerel $LN3
	DD	imagerel $LN3+76
	DD	imagerel $unwind$??$?0MHH@?$tvec3@M$0A@@glm@@QEAA@MHH@Z
pdata	ENDS
;	COMDAT pdata
pdata	SEGMENT
$pdata$??$?0HMH@?$tvec3@M$0A@@glm@@QEAA@HMH@Z DD imagerel $LN3
	DD	imagerel $LN3+75
	DD	imagerel $unwind$??$?0HMH@?$tvec3@M$0A@@glm@@QEAA@HMH@Z
pdata	ENDS
;	COMDAT pdata
pdata	SEGMENT
$pdata$??$?0HHM@?$tvec3@M$0A@@glm@@QEAA@HHM@Z DD imagerel $LN3
	DD	imagerel $LN3+75
	DD	imagerel $unwind$??$?0HHM@?$tvec3@M$0A@@glm@@QEAA@HHM@Z
pdata	ENDS
;	COMDAT pdata
pdata	SEGMENT
$pdata$??$value_ptr@M$0A@@glm@@YAPEAMAEAU?$tvec3@M$0A@@0@@Z DD imagerel $LN3
	DD	imagerel $LN3+13
	DD	imagerel $unwind$??$value_ptr@M$0A@@glm@@YAPEAMAEAU?$tvec3@M$0A@@0@@Z
pdata	ENDS
;	COMDAT pdata
pdata	SEGMENT
$pdata$??$components@M$0A@@glm@@YAHAEBU?$tvec3@M$0A@@0@@Z DD imagerel $LN3
	DD	imagerel $LN3+21
	DD	imagerel $unwind$??$components@M$0A@@glm@@YAHAEBU?$tvec3@M$0A@@0@@Z
pdata	ENDS
;	COMDAT pdata
pdata	SEGMENT
$pdata$??$value_ptr@M$0A@@glm@@YAPEAMAEAU?$tmat4x3@M$0A@@0@@Z DD imagerel $LN3
	DD	imagerel $LN3+28
	DD	imagerel $unwind$??$value_ptr@M$0A@@glm@@YAPEAMAEAU?$tmat4x3@M$0A@@0@@Z
pdata	ENDS
;	COMDAT pdata
pdata	SEGMENT
$pdata$??$components@U?$tmat4x3@M$0A@@glm@@@glm@@YAHAEBU?$tmat4x3@M$0A@@0@@Z DD imagerel $LN3
	DD	imagerel $LN3+51
	DD	imagerel $unwind$??$components@U?$tmat4x3@M$0A@@glm@@@glm@@YAHAEBU?$tmat4x3@M$0A@@0@@Z
pdata	ENDS
;	COMDAT __real@3f800000
CONST	SEGMENT
__real@3f800000 DD 03f800000r			; 1
CONST	ENDS
;	COMDAT rtc$TMZ
rtc$TMZ	SEGMENT
_RTC_Shutdown.rtc$TMZ DQ FLAT:_RTC_Shutdown
rtc$TMZ	ENDS
;	COMDAT rtc$IMZ
rtc$IMZ	SEGMENT
_RTC_InitBase.rtc$IMZ DQ FLAT:_RTC_InitBase
rtc$IMZ	ENDS
;	COMDAT ??_C@_1CG@KOFHLCJL@?$AAi?$AA?5?$AA?$DM?$AA?5?$AAt?$AAh?$AAi?$AAs?$AA?9?$AA?$DO?$AAl?$AAe?$AAn?$AAg?$AAt@
CONST	SEGMENT
??_C@_1CG@KOFHLCJL@?$AAi?$AA?5?$AA?$DM?$AA?5?$AAt?$AAh?$AAi?$AAs?$AA?9?$AA?$DO?$AAl?$AAe?$AAn?$AAg?$AAt@ DB 'i'
	DB	00H, ' ', 00H, '<', 00H, ' ', 00H, 't', 00H, 'h', 00H, 'i', 00H
	DB	's', 00H, '-', 00H, '>', 00H, 'l', 00H, 'e', 00H, 'n', 00H, 'g'
	DB	00H, 't', 00H, 'h', 00H, '(', 00H, ')', 00H, 00H, 00H ; `string'
CONST	ENDS
;	COMDAT ??_C@_1LK@GEGFBJDO@?$AAC?$AA?3?$AA?2?$AAU?$AAs?$AAe?$AAr?$AAs?$AA?2?$AAk?$AAs?$AAa?$AAr?$AAt?$AA?2@
CONST	SEGMENT
??_C@_1LK@GEGFBJDO@?$AAC?$AA?3?$AA?2?$AAU?$AAs?$AAe?$AAr?$AAs?$AA?2?$AAk?$AAs?$AAa?$AAr?$AAt?$AA?2@ DB 'C'
	DB	00H, ':', 00H, '\', 00H, 'U', 00H, 's', 00H, 'e', 00H, 'r', 00H
	DB	's', 00H, '\', 00H, 'k', 00H, 's', 00H, 'a', 00H, 'r', 00H, 't'
	DB	00H, '\', 00H, 'O', 00H, 'n', 00H, 'e', 00H, 'D', 00H, 'r', 00H
	DB	'i', 00H, 'v', 00H, 'e', 00H, '\', 00H, 'D', 00H, 'e', 00H, 's'
	DB	00H, 'k', 00H, 't', 00H, 'o', 00H, 'p', 00H, '\', 00H, 'F', 00H
	DB	'l', 00H, 'a', 00H, 'p', 00H, 'p', 00H, 'y', 00H, 'B', 00H, 'i'
	DB	00H, 'r', 00H, 'd', 00H, '\', 00H, 'l', 00H, 'i', 00H, 'b', 00H
	DB	'r', 00H, 'a', 00H, 'r', 00H, 'i', 00H, 'e', 00H, 's', 00H, '\'
	DB	00H, 'e', 00H, 'x', 00H, 't', 00H, 'e', 00H, 'r', 00H, 'n', 00H
	DB	'a', 00H, 'l', 00H, '\', 00H, 'g', 00H, 'l', 00H, 'm', 00H, '\'
	DB	00H, 'g', 00H, 'l', 00H, 'm', 00H, '\', 00H, 'd', 00H, 'e', 00H
	DB	't', 00H, 'a', 00H, 'i', 00H, 'l', 00H, '\', 00H, 't', 00H, 'y'
	DB	00H, 'p', 00H, 'e', 00H, '_', 00H, 'm', 00H, 'a', 00H, 't', 00H
	DB	'4', 00H, 'x', 00H, '3', 00H, '.', 00H, 'i', 00H, 'n', 00H, 'l'
	DB	00H, 00H, 00H				; `string'
CONST	ENDS
;	COMDAT ??_C@_1LG@MEJFBKPC@?$AAC?$AA?3?$AA?2?$AAU?$AAs?$AAe?$AAr?$AAs?$AA?2?$AAk?$AAs?$AAa?$AAr?$AAt?$AA?2@
CONST	SEGMENT
??_C@_1LG@MEJFBKPC@?$AAC?$AA?3?$AA?2?$AAU?$AAs?$AAe?$AAr?$AAs?$AA?2?$AAk?$AAs?$AAa?$AAr?$AAt?$AA?2@ DB 'C'
	DB	00H, ':', 00H, '\', 00H, 'U', 00H, 's', 00H, 'e', 00H, 'r', 00H
	DB	's', 00H, '\', 00H, 'k', 00H, 's', 00H, 'a', 00H, 'r', 00H, 't'
	DB	00H, '\', 00H, 'O', 00H, 'n', 00H, 'e', 00H, 'D', 00H, 'r', 00H
	DB	'i', 00H, 'v', 00H, 'e', 00H, '\', 00H, 'D', 00H, 'e', 00H, 's'
	DB	00H, 'k', 00H, 't', 00H, 'o', 00H, 'p', 00H, '\', 00H, 'F', 00H
	DB	'l', 00H, 'a', 00H, 'p', 00H, 'p', 00H, 'y', 00H, 'B', 00H, 'i'
	DB	00H, 'r', 00H, 'd', 00H, '\', 00H, 'l', 00H, 'i', 00H, 'b', 00H
	DB	'r', 00H, 'a', 00H, 'r', 00H, 'i', 00H, 'e', 00H, 's', 00H, '\'
	DB	00H, 'e', 00H, 'x', 00H, 't', 00H, 'e', 00H, 'r', 00H, 'n', 00H
	DB	'a', 00H, 'l', 00H, '\', 00H, 'g', 00H, 'l', 00H, 'm', 00H, '\'
	DB	00H, 'g', 00H, 'l', 00H, 'm', 00H, '\', 00H, 'd', 00H, 'e', 00H
	DB	't', 00H, 'a', 00H, 'i', 00H, 'l', 00H, '\', 00H, 't', 00H, 'y'
	DB	00H, 'p', 00H, 'e', 00H, '_', 00H, 'v', 00H, 'e', 00H, 'c', 00H
	DB	'3', 00H, '.', 00H, 'i', 00H, 'n', 00H, 'l', 00H, 00H, 00H ; `string'
CONST	ENDS
;	COMDAT ??_C@_1DC@HHLCGOLC@?$AAx?$AA?4?$AAl?$AAe?$AAn?$AAg?$AAt?$AAh?$AA?$CI?$AA?$CJ?$AA?5?$AA?$DN?$AA?$DN?$AA?5?$AAy@
CONST	SEGMENT
??_C@_1DC@HHLCGOLC@?$AAx?$AA?4?$AAl?$AAe?$AAn?$AAg?$AAt?$AAh?$AA?$CI?$AA?$CJ?$AA?5?$AA?$DN?$AA?$DN?$AA?5?$AAy@ DB 'x'
	DB	00H, '.', 00H, 'l', 00H, 'e', 00H, 'n', 00H, 'g', 00H, 't', 00H
	DB	'h', 00H, '(', 00H, ')', 00H, ' ', 00H, '=', 00H, '=', 00H, ' '
	DB	00H, 'y', 00H, '.', 00H, 'l', 00H, 'e', 00H, 'n', 00H, 'g', 00H
	DB	't', 00H, 'h', 00H, '(', 00H, ')', 00H, 00H, 00H ; `string'
CONST	ENDS
;	COMDAT ??_C@_1NA@OPABFNEN@?$AAC?$AA?3?$AA?2?$AAU?$AAs?$AAe?$AAr?$AAs?$AA?2?$AAk?$AAs?$AAa?$AAr?$AAt?$AA?2@
CONST	SEGMENT
??_C@_1NA@OPABFNEN@?$AAC?$AA?3?$AA?2?$AAU?$AAs?$AAe?$AAr?$AAs?$AA?2?$AAk?$AAs?$AAa?$AAr?$AAt?$AA?2@ DB 'C'
	DB	00H, ':', 00H, '\', 00H, 'U', 00H, 's', 00H, 'e', 00H, 'r', 00H
	DB	's', 00H, '\', 00H, 'k', 00H, 's', 00H, 'a', 00H, 'r', 00H, 't'
	DB	00H, '\', 00H, 'O', 00H, 'n', 00H, 'e', 00H, 'D', 00H, 'r', 00H
	DB	'i', 00H, 'v', 00H, 'e', 00H, '\', 00H, 'D', 00H, 'e', 00H, 's'
	DB	00H, 'k', 00H, 't', 00H, 'o', 00H, 'p', 00H, '\', 00H, 'F', 00H
	DB	'l', 00H, 'a', 00H, 'p', 00H, 'p', 00H, 'y', 00H, 'B', 00H, 'i'
	DB	00H, 'r', 00H, 'd', 00H, '\', 00H, 'l', 00H, 'i', 00H, 'b', 00H
	DB	'r', 00H, 'a', 00H, 'r', 00H, 'i', 00H, 'e', 00H, 's', 00H, '\'
	DB	00H, 'e', 00H, 'x', 00H, 't', 00H, 'e', 00H, 'r', 00H, 'n', 00H
	DB	'a', 00H, 'l', 00H, '\', 00H, 'g', 00H, 'l', 00H, 'm', 00H, '\'
	DB	00H, 'g', 00H, 'l', 00H, 'm', 00H, '\', 00H, 'd', 00H, 'e', 00H
	DB	't', 00H, 'a', 00H, 'i', 00H, 'l', 00H, '\', 00H, 'f', 00H, 'u'
	DB	00H, 'n', 00H, 'c', 00H, '_', 00H, 'v', 00H, 'e', 00H, 'c', 00H
	DB	't', 00H, 'o', 00H, 'r', 00H, '_', 00H, 'r', 00H, 'e', 00H, 'l'
	DB	00H, 'a', 00H, 't', 00H, 'i', 00H, 'o', 00H, 'n', 00H, 'a', 00H
	DB	'l', 00H, '.', 00H, 'i', 00H, 'n', 00H, 'l', 00H, 00H, 00H ; `string'
CONST	ENDS
;	COMDAT ??_C@_1DK@BGNCJAPL@?$AAi?$AA?5?$AA?$DO?$AA?$DN?$AA?5?$AA0?$AA?5?$AA?$CG?$AA?$CG?$AA?5?$AAi?$AA?5?$AA?$DM?$AA?5?$AAt@
CONST	SEGMENT
??_C@_1DK@BGNCJAPL@?$AAi?$AA?5?$AA?$DO?$AA?$DN?$AA?5?$AA0?$AA?5?$AA?$CG?$AA?$CG?$AA?5?$AAi?$AA?5?$AA?$DM?$AA?5?$AAt@ DB 'i'
	DB	00H, ' ', 00H, '>', 00H, '=', 00H, ' ', 00H, '0', 00H, ' ', 00H
	DB	'&', 00H, '&', 00H, ' ', 00H, 'i', 00H, ' ', 00H, '<', 00H, ' '
	DB	00H, 't', 00H, 'h', 00H, 'i', 00H, 's', 00H, '-', 00H, '>', 00H
	DB	'l', 00H, 'e', 00H, 'n', 00H, 'g', 00H, 't', 00H, 'h', 00H, '('
	DB	00H, ')', 00H, 00H, 00H			; `string'
CONST	ENDS
;	COMDAT xdata
xdata	SEGMENT
$unwind$??$components@U?$tmat4x3@M$0A@@glm@@@glm@@YAHAEBU?$tmat4x3@M$0A@@0@@Z DD 020a01H
	DD	07006520aH
xdata	ENDS
;	COMDAT xdata
xdata	SEGMENT
$unwind$??$value_ptr@M$0A@@glm@@YAPEAMAEAU?$tmat4x3@M$0A@@0@@Z DD 020a01H
	DD	07006320aH
xdata	ENDS
;	COMDAT xdata
xdata	SEGMENT
$unwind$??$components@M$0A@@glm@@YAHAEBU?$tvec3@M$0A@@0@@Z DD 020a01H
	DD	07006320aH
xdata	ENDS
;	COMDAT xdata
xdata	SEGMENT
$unwind$??$value_ptr@M$0A@@glm@@YAPEAMAEAU?$tvec3@M$0A@@0@@Z DD 010601H
	DD	07006H
xdata	ENDS
;	COMDAT xdata
xdata	SEGMENT
$unwind$??$?0HHM@?$tvec3@M$0A@@glm@@QEAA@HHM@Z DD 011501H
	DD	07015H
xdata	ENDS
;	COMDAT xdata
xdata	SEGMENT
$unwind$??$?0HMH@?$tvec3@M$0A@@glm@@QEAA@HMH@Z DD 011501H
	DD	07015H
xdata	ENDS
;	COMDAT xdata
xdata	SEGMENT
$unwind$??$?0MHH@?$tvec3@M$0A@@glm@@QEAA@MHH@Z DD 011601H
	DD	07016H
xdata	ENDS
;	COMDAT xdata
xdata	SEGMENT
$unwind$??$?DM$0A@@glm@@YA?AU?$tvec3@M$0A@@0@AEBU?$tmat4x3@M$0A@@0@AEBU?$tvec4@M$0A@@0@@Z DD 021401H
	DD	070109214H
xdata	ENDS
;	COMDAT xdata
xdata	SEGMENT
$unwind$??$?0HHHH@?$tvec4@M$0A@@glm@@QEAA@HHHH@Z DD 011401H
	DD	07014H
xdata	ENDS
;	COMDAT xdata
xdata	SEGMENT
$unwind$??$end@U?$tmat4x3@M$0A@@glm@@@glm@@YAPEAMAEAU?$tmat4x3@M$0A@@0@@Z DD 020a01H
	DD	07006520aH
xdata	ENDS
;	COMDAT xdata
xdata	SEGMENT
$unwind$??$begin@U?$tmat4x3@M$0A@@glm@@@glm@@YAPEAMAEAU?$tmat4x3@M$0A@@0@@Z DD 020a01H
	DD	07006320aH
xdata	ENDS
;	COMDAT xdata
xdata	SEGMENT
$unwind$??A?$tmat4x3@M$0A@@glm@@QEBAAEBU?$tvec3@M$0A@@1@H@Z DD 020e01H
	DD	0700a320eH
xdata	ENDS
;	COMDAT xdata
xdata	SEGMENT
$unwind$??A?$tmat4x3@M$0A@@glm@@QEAAAEAU?$tvec3@M$0A@@1@H@Z DD 020e01H
	DD	0700a320eH
xdata	ENDS
;	COMDAT xdata
xdata	SEGMENT
$unwind$?length@?$tmat4x3@M$0A@@glm@@SAHXZ DD 010201H
	DD	07002H
xdata	ENDS
;	COMDAT xdata
xdata	SEGMENT
$unwind$??0?$tmat4x3@M$0A@@glm@@QEAA@AEBM@Z DD 031001H
	DD	0700ca210H
	DD	0600bH
xdata	ENDS
voltbl	SEGMENT
_volmd	DD	0ffffffffH
	DDSymXIndex: 	FLAT:?testMat@@YAHXZ
	DD	024H
	DD	0266H
voltbl	ENDS
;	COMDAT xdata
xdata	SEGMENT
$unwind$??$all@$0A@Utvec3@glm@@@glm@@YA_NAEBU?$tvec3@_N$0A@@0@@Z DD 020a01H
	DD	07006520aH
xdata	ENDS
;	COMDAT xdata
xdata	SEGMENT
$unwind$??0?$tvec3@_N$0A@@glm@@QEAA@W4ctor@1@@Z DD 010a01H
	DD	0700aH
xdata	ENDS
;	COMDAT xdata
xdata	SEGMENT
$unwind$??A?$tvec3@_N$0A@@glm@@QEBAAEB_NH@Z DD 020e01H
	DD	0700a320eH
xdata	ENDS
;	COMDAT xdata
xdata	SEGMENT
$unwind$??A?$tvec3@_N$0A@@glm@@QEAAAEA_NH@Z DD 020e01H
	DD	0700a320eH
xdata	ENDS
;	COMDAT xdata
xdata	SEGMENT
$unwind$?length@?$tvec3@_N$0A@@glm@@SAHXZ DD 010201H
	DD	07002H
xdata	ENDS
;	COMDAT xdata
xdata	SEGMENT
$unwind$??$equal@M$0A@Utvec3@glm@@@glm@@YA?AU?$tvec3@_N$0A@@0@AEBU?$tvec3@M$0A@@0@0@Z DD 032b01H
	DD	07011a215H
	DD	06010H
xdata	ENDS
;	COMDAT CONST
CONST	SEGMENT
??$equal@M$0A@Utvec3@glm@@@glm@@YA?AU?$tvec3@_N$0A@@0@AEBU?$tvec3@M$0A@@0@0@Z$rtcName$0 DB 052H ; glm::equal<float,0,glm::tvec3>
	DB	065H
	DB	073H
	DB	075H
	DB	06cH
	DB	074H
	DB	00H
	ORG $+9
??$equal@M$0A@Utvec3@glm@@@glm@@YA?AU?$tvec3@_N$0A@@0@AEBU?$tvec3@M$0A@@0@0@Z$rtcVarDesc DD 024H ; glm::equal<float,0,glm::tvec3>
	DD	03H
	DQ	FLAT:??$equal@M$0A@Utvec3@glm@@@glm@@YA?AU?$tvec3@_N$0A@@0@AEBU?$tvec3@M$0A@@0@0@Z$rtcName$0
	ORG $+48
??$equal@M$0A@Utvec3@glm@@@glm@@YA?AU?$tvec3@_N$0A@@0@AEBU?$tvec3@M$0A@@0@0@Z$rtcFrameData DD 01H ; glm::equal<float,0,glm::tvec3>
	DD	00H
	DQ	FLAT:??$equal@M$0A@Utvec3@glm@@@glm@@YA?AU?$tvec3@_N$0A@@0@AEBU?$tvec3@M$0A@@0@0@Z$rtcVarDesc
CONST	ENDS
;	COMDAT xdata
xdata	SEGMENT
$unwind$??$end@U?$tvec3@M$0A@@glm@@@glm@@YAPEAMAEAU?$tvec3@M$0A@@0@@Z DD 020a01H
	DD	07006520aH
xdata	ENDS
;	COMDAT xdata
xdata	SEGMENT
$unwind$??$begin@U?$tvec3@M$0A@@glm@@@glm@@YAPEAMAEAU?$tvec3@M$0A@@0@@Z DD 020a01H
	DD	07006320aH
xdata	ENDS
;	COMDAT xdata
xdata	SEGMENT
$unwind$??$?0HHH@?$tvec3@M$0A@@glm@@QEAA@HHH@Z DD 011401H
	DD	07014H
xdata	ENDS
;	COMDAT xdata
xdata	SEGMENT
$unwind$??0?$tvec3@M$0A@@glm@@QEAA@MMM@Z DD 011801H
	DD	07018H
xdata	ENDS
;	COMDAT xdata
xdata	SEGMENT
$unwind$??0?$tvec3@M$0A@@glm@@QEAA@XZ DD 010601H
	DD	07006H
xdata	ENDS
;	COMDAT xdata
xdata	SEGMENT
$unwind$??A?$tvec3@M$0A@@glm@@QEBAAEBMH@Z DD 020e01H
	DD	0700a320eH
xdata	ENDS
;	COMDAT xdata
xdata	SEGMENT
$unwind$?length@?$tvec3@M$0A@@glm@@SAHXZ DD 010201H
	DD	07002H
xdata	ENDS
xdata	SEGMENT
$unwind$?testVec@@YAHXZ DD 031a01H
	DD	0160109H
	DD	07002H
$unwind$?testMat@@YAHXZ DD 032c19H
	DD	0280109H
	DD	07002H
	DD	imagerel __GSHandlerCheck
	DD	0138H
$unwind$main DD	020601H
	DD	070025206H
xdata	ENDS
CONST	SEGMENT
?testVec@@YAHXZ$rtcName$0 DB 076H			; testVec
	DB	00H
	ORG $+14
?testVec@@YAHXZ$rtcVarDesc DD 038H			; testVec
	DD	0cH
	DQ	FLAT:?testVec@@YAHXZ$rtcName$0
	ORG $+48
?testVec@@YAHXZ$rtcFrameData DD 01H			; testVec
	DD	00H
	DQ	FLAT:?testVec@@YAHXZ$rtcVarDesc
?testMat@@YAHXZ$rtcName$0 DB 06dH			; testMat
	DB	00H
	ORG $+2
?testMat@@YAHXZ$rtcName$1 DB 076H			; testMat
	DB	00H
	ORG $+2
?testMat@@YAHXZ$rtcFrameData DD 02H			; testMat
	DD	00H
	DQ	FLAT:?testMat@@YAHXZ$rtcVarDesc
	ORG $+8
?testMat@@YAHXZ$rtcVarDesc DD 0d8H			; testMat
	DD	010H
	DQ	FLAT:?testMat@@YAHXZ$rtcName$1
	DD	048H
	DD	030H
	DQ	FLAT:?testMat@@YAHXZ$rtcName$0
CONST	ENDS
;	COMDAT xdata
xdata	SEGMENT
$unwind$??_H@YAXPEAX_K1P6APEAX0@Z@Z DD 021901H
	DD	070155219H
xdata	ENDS
; Function compile flags: /Odtp /RTCsu
; File C:\Users\ksart\OneDrive\Desktop\FlappyBird\libraries\external\glm\glm\gtx\range.hpp
;	COMDAT ??$components@U?$tmat4x3@M$0A@@glm@@@glm@@YAHAEBU?$tmat4x3@M$0A@@0@@Z
_TEXT	SEGMENT
tv64 = 32
m$ = 64
??$components@U?$tmat4x3@M$0A@@glm@@@glm@@YAHAEBU?$tmat4x3@M$0A@@0@@Z PROC ; glm::components<glm::tmat4x3<float,0> >, COMDAT

; 56   : 	{

$LN3:
	mov	QWORD PTR [rsp+8], rcx
	push	rdi
	sub	rsp, 48					; 00000030H

; 57   : 		return m.length() * m[0].length();

	xor	edx, edx
	mov	rcx, QWORD PTR m$[rsp]
	call	??A?$tmat4x3@M$0A@@glm@@QEBAAEBU?$tvec3@M$0A@@1@H@Z ; glm::tmat4x3<float,0>::operator[]
	call	?length@?$tmat4x3@M$0A@@glm@@SAHXZ	; glm::tmat4x3<float,0>::length
	mov	DWORD PTR tv64[rsp], eax
	call	?length@?$tvec3@M$0A@@glm@@SAHXZ	; glm::tvec3<float,0>::length
	mov	ecx, DWORD PTR tv64[rsp]
	imul	ecx, eax
	mov	eax, ecx

; 58   : 	}

	add	rsp, 48					; 00000030H
	pop	rdi
	ret	0
??$components@U?$tmat4x3@M$0A@@glm@@@glm@@YAHAEBU?$tmat4x3@M$0A@@0@@Z ENDP ; glm::components<glm::tmat4x3<float,0> >
_TEXT	ENDS
; Function compile flags: /Odtp /RTCsu
; File C:\Users\ksart\OneDrive\Desktop\FlappyBird\libraries\external\glm\glm\gtc\type_ptr.inl
;	COMDAT ??$value_ptr@M$0A@@glm@@YAPEAMAEAU?$tmat4x3@M$0A@@0@@Z
_TEXT	SEGMENT
mat$ = 48
??$value_ptr@M$0A@@glm@@YAPEAMAEAU?$tmat4x3@M$0A@@0@@Z PROC ; glm::value_ptr<float,0>, COMDAT

; 268  : 	{

$LN3:
	mov	QWORD PTR [rsp+8], rcx
	push	rdi
	sub	rsp, 32					; 00000020H

; 269  : 		return &(mat[0].x);

	xor	edx, edx
	mov	rcx, QWORD PTR mat$[rsp]
	call	??A?$tmat4x3@M$0A@@glm@@QEAAAEAU?$tvec3@M$0A@@1@H@Z ; glm::tmat4x3<float,0>::operator[]

; 270  : 	}

	add	rsp, 32					; 00000020H
	pop	rdi
	ret	0
??$value_ptr@M$0A@@glm@@YAPEAMAEAU?$tmat4x3@M$0A@@0@@Z ENDP ; glm::value_ptr<float,0>
_TEXT	ENDS
; Function compile flags: /Odtp /RTCsu
; File C:\Users\ksart\OneDrive\Desktop\FlappyBird\libraries\external\glm\glm\gtx\range.hpp
;	COMDAT ??$components@M$0A@@glm@@YAHAEBU?$tvec3@M$0A@@0@@Z
_TEXT	SEGMENT
v$ = 48
??$components@M$0A@@glm@@YAHAEBU?$tvec3@M$0A@@0@@Z PROC	; glm::components<float,0>, COMDAT

; 44   : 	{

$LN3:
	mov	QWORD PTR [rsp+8], rcx
	push	rdi
	sub	rsp, 32					; 00000020H

; 45   : 		return v.length();

	call	?length@?$tvec3@M$0A@@glm@@SAHXZ	; glm::tvec3<float,0>::length

; 46   : 	}

	add	rsp, 32					; 00000020H
	pop	rdi
	ret	0
??$components@M$0A@@glm@@YAHAEBU?$tvec3@M$0A@@0@@Z ENDP	; glm::components<float,0>
_TEXT	ENDS
; Function compile flags: /Odtp /RTCsu
; File C:\Users\ksart\OneDrive\Desktop\FlappyBird\libraries\external\glm\glm\gtc\type_ptr.inl
;	COMDAT ??$value_ptr@M$0A@@glm@@YAPEAMAEAU?$tvec3@M$0A@@0@@Z
_TEXT	SEGMENT
vec$ = 16
??$value_ptr@M$0A@@glm@@YAPEAMAEAU?$tvec3@M$0A@@0@@Z PROC ; glm::value_ptr<float,0>, COMDAT

; 51   : 	{

$LN3:
	mov	QWORD PTR [rsp+8], rcx
	push	rdi

; 52   : 		return &(vec.x);

	mov	rax, QWORD PTR vec$[rsp]

; 53   : 	}

	pop	rdi
	ret	0
??$value_ptr@M$0A@@glm@@YAPEAMAEAU?$tvec3@M$0A@@0@@Z ENDP ; glm::value_ptr<float,0>
_TEXT	ENDS
; Function compile flags: /Odtp /RTCsu
; File C:\Users\ksart\OneDrive\Desktop\FlappyBird\libraries\external\glm\glm\detail\type_vec3.inl
;	COMDAT ??$?0HHM@?$tvec3@M$0A@@glm@@QEAA@HHM@Z
_TEXT	SEGMENT
this$ = 16
a$ = 24
b$ = 32
c$ = 40
??$?0HHM@?$tvec3@M$0A@@glm@@QEAA@HHM@Z PROC		; glm::tvec3<float,0>::tvec3<float,0><int,int,float>, COMDAT

; 80   : 	{}

$LN3:
	movss	DWORD PTR [rsp+32], xmm3
	mov	DWORD PTR [rsp+24], r8d
	mov	DWORD PTR [rsp+16], edx
	mov	QWORD PTR [rsp+8], rcx
	push	rdi

; 77   : 		x(static_cast<T>(a)),

	cvtsi2ss xmm0, DWORD PTR a$[rsp]
	mov	rax, QWORD PTR this$[rsp]
	movss	DWORD PTR [rax], xmm0

; 78   : 		y(static_cast<T>(b)),

	cvtsi2ss xmm0, DWORD PTR b$[rsp]
	mov	rax, QWORD PTR this$[rsp]
	movss	DWORD PTR [rax+4], xmm0

; 79   : 		z(static_cast<T>(c))

	mov	rax, QWORD PTR this$[rsp]
	movss	xmm0, DWORD PTR c$[rsp]
	movss	DWORD PTR [rax+8], xmm0

; 80   : 	{}

	mov	rax, QWORD PTR this$[rsp]
	pop	rdi
	ret	0
??$?0HHM@?$tvec3@M$0A@@glm@@QEAA@HHM@Z ENDP		; glm::tvec3<float,0>::tvec3<float,0><int,int,float>
_TEXT	ENDS
; Function compile flags: /Odtp /RTCsu
; File C:\Users\ksart\OneDrive\Desktop\FlappyBird\libraries\external\glm\glm\detail\type_vec3.inl
;	COMDAT ??$?0HMH@?$tvec3@M$0A@@glm@@QEAA@HMH@Z
_TEXT	SEGMENT
this$ = 16
a$ = 24
b$ = 32
c$ = 40
??$?0HMH@?$tvec3@M$0A@@glm@@QEAA@HMH@Z PROC		; glm::tvec3<float,0>::tvec3<float,0><int,float,int>, COMDAT

; 80   : 	{}

$LN3:
	mov	DWORD PTR [rsp+32], r9d
	movss	DWORD PTR [rsp+24], xmm2
	mov	DWORD PTR [rsp+16], edx
	mov	QWORD PTR [rsp+8], rcx
	push	rdi

; 77   : 		x(static_cast<T>(a)),

	cvtsi2ss xmm0, DWORD PTR a$[rsp]
	mov	rax, QWORD PTR this$[rsp]
	movss	DWORD PTR [rax], xmm0

; 78   : 		y(static_cast<T>(b)),

	mov	rax, QWORD PTR this$[rsp]
	movss	xmm0, DWORD PTR b$[rsp]
	movss	DWORD PTR [rax+4], xmm0

; 79   : 		z(static_cast<T>(c))

	cvtsi2ss xmm0, DWORD PTR c$[rsp]
	mov	rax, QWORD PTR this$[rsp]
	movss	DWORD PTR [rax+8], xmm0

; 80   : 	{}

	mov	rax, QWORD PTR this$[rsp]
	pop	rdi
	ret	0
??$?0HMH@?$tvec3@M$0A@@glm@@QEAA@HMH@Z ENDP		; glm::tvec3<float,0>::tvec3<float,0><int,float,int>
_TEXT	ENDS
; Function compile flags: /Odtp /RTCsu
; File C:\Users\ksart\OneDrive\Desktop\FlappyBird\libraries\external\glm\glm\detail\type_vec3.inl
;	COMDAT ??$?0MHH@?$tvec3@M$0A@@glm@@QEAA@MHH@Z
_TEXT	SEGMENT
this$ = 16
a$ = 24
b$ = 32
c$ = 40
??$?0MHH@?$tvec3@M$0A@@glm@@QEAA@MHH@Z PROC		; glm::tvec3<float,0>::tvec3<float,0><float,int,int>, COMDAT

; 80   : 	{}

$LN3:
	mov	DWORD PTR [rsp+32], r9d
	mov	DWORD PTR [rsp+24], r8d
	movss	DWORD PTR [rsp+16], xmm1
	mov	QWORD PTR [rsp+8], rcx
	push	rdi

; 77   : 		x(static_cast<T>(a)),

	mov	rax, QWORD PTR this$[rsp]
	movss	xmm0, DWORD PTR a$[rsp]
	movss	DWORD PTR [rax], xmm0

; 78   : 		y(static_cast<T>(b)),

	cvtsi2ss xmm0, DWORD PTR b$[rsp]
	mov	rax, QWORD PTR this$[rsp]
	movss	DWORD PTR [rax+4], xmm0

; 79   : 		z(static_cast<T>(c))

	cvtsi2ss xmm0, DWORD PTR c$[rsp]
	mov	rax, QWORD PTR this$[rsp]
	movss	DWORD PTR [rax+8], xmm0

; 80   : 	{}

	mov	rax, QWORD PTR this$[rsp]
	pop	rdi
	ret	0
??$?0MHH@?$tvec3@M$0A@@glm@@QEAA@MHH@Z ENDP		; glm::tvec3<float,0>::tvec3<float,0><float,int,int>
_TEXT	ENDS
; Function compile flags: /Odtp /RTCsu
; File C:\Users\ksart\OneDrive\Desktop\FlappyBird\libraries\external\glm\test\gtx\gtx_range.cpp
_TEXT	SEGMENT
Error$ = 32
main	PROC

; 38   : {

$LN3:
	push	rdi
	sub	rsp, 48					; 00000030H

; 39   : 	int Error(0);

	mov	DWORD PTR Error$[rsp], 0

; 40   : 	Error += testVec();

	call	?testVec@@YAHXZ				; testVec
	mov	ecx, DWORD PTR Error$[rsp]
	add	ecx, eax
	mov	eax, ecx
	mov	DWORD PTR Error$[rsp], eax

; 41   : 	Error += testMat();

	call	?testMat@@YAHXZ				; testMat
	mov	ecx, DWORD PTR Error$[rsp]
	add	ecx, eax
	mov	eax, ecx
	mov	DWORD PTR Error$[rsp], eax

; 42   : 	return Error;

	mov	eax, DWORD PTR Error$[rsp]

; 43   : }

	add	rsp, 48					; 00000030H
	pop	rdi
	ret	0
main	ENDP
_TEXT	ENDS
; Function compile flags: /Odtp /RTCsu
; File C:\Users\ksart\OneDrive\Desktop\FlappyBird\libraries\external\glm\glm\detail\type_mat4x3.inl
;	COMDAT ??$?DM$0A@@glm@@YA?AU?$tvec3@M$0A@@0@AEBU?$tmat4x3@M$0A@@0@AEBU?$tvec4@M$0A@@0@@Z
_TEXT	SEGMENT
tv73 = 32
tv82 = 36
tv91 = 40
tv132 = 44
tv141 = 48
tv150 = 52
tv159 = 56
tv168 = 60
tv177 = 64
tv186 = 68
tv195 = 72
__$ReturnUdt$ = 96
m$ = 104
v$ = 112
??$?DM$0A@@glm@@YA?AU?$tvec3@M$0A@@0@AEBU?$tmat4x3@M$0A@@0@AEBU?$tvec4@M$0A@@0@@Z PROC ; glm::operator*<float,0>, COMDAT

; 437  : 	{

$LN3:
	mov	QWORD PTR [rsp+24], r8
	mov	QWORD PTR [rsp+16], rdx
	mov	QWORD PTR [rsp+8], rcx
	push	rdi
	sub	rsp, 80					; 00000050H

; 438  : 		return typename tmat4x3<T, P>::col_type(

	xor	edx, edx
	mov	rcx, QWORD PTR m$[rsp]
	call	??A?$tmat4x3@M$0A@@glm@@QEBAAEBU?$tvec3@M$0A@@1@H@Z ; glm::tmat4x3<float,0>::operator[]
	mov	edx, 2
	mov	rcx, rax
	call	??A?$tvec3@M$0A@@glm@@QEBAAEBMH@Z	; glm::tvec3<float,0>::operator[]
	mov	rcx, QWORD PTR v$[rsp]
	movss	xmm0, DWORD PTR [rax]
	mulss	xmm0, DWORD PTR [rcx]
	movss	DWORD PTR tv73[rsp], xmm0
	mov	edx, 1
	mov	rcx, QWORD PTR m$[rsp]
	call	??A?$tmat4x3@M$0A@@glm@@QEBAAEBU?$tvec3@M$0A@@1@H@Z ; glm::tmat4x3<float,0>::operator[]
	mov	edx, 2
	mov	rcx, rax
	call	??A?$tvec3@M$0A@@glm@@QEBAAEBMH@Z	; glm::tvec3<float,0>::operator[]
	mov	rcx, QWORD PTR v$[rsp]
	movss	xmm0, DWORD PTR [rax]
	mulss	xmm0, DWORD PTR [rcx+4]
	movss	xmm1, DWORD PTR tv73[rsp]
	addss	xmm1, xmm0
	movaps	xmm0, xmm1
	movss	DWORD PTR tv82[rsp], xmm0
	mov	edx, 2
	mov	rcx, QWORD PTR m$[rsp]
	call	??A?$tmat4x3@M$0A@@glm@@QEBAAEBU?$tvec3@M$0A@@1@H@Z ; glm::tmat4x3<float,0>::operator[]
	mov	edx, 2
	mov	rcx, rax
	call	??A?$tvec3@M$0A@@glm@@QEBAAEBMH@Z	; glm::tvec3<float,0>::operator[]
	mov	rcx, QWORD PTR v$[rsp]
	movss	xmm0, DWORD PTR [rax]
	mulss	xmm0, DWORD PTR [rcx+8]
	movss	xmm1, DWORD PTR tv82[rsp]
	addss	xmm1, xmm0
	movaps	xmm0, xmm1
	movss	DWORD PTR tv91[rsp], xmm0
	mov	edx, 3
	mov	rcx, QWORD PTR m$[rsp]
	call	??A?$tmat4x3@M$0A@@glm@@QEBAAEBU?$tvec3@M$0A@@1@H@Z ; glm::tmat4x3<float,0>::operator[]
	mov	edx, 2
	mov	rcx, rax
	call	??A?$tvec3@M$0A@@glm@@QEBAAEBMH@Z	; glm::tvec3<float,0>::operator[]
	mov	rcx, QWORD PTR v$[rsp]
	movss	xmm0, DWORD PTR [rax]
	mulss	xmm0, DWORD PTR [rcx+12]
	movss	xmm1, DWORD PTR tv91[rsp]
	addss	xmm1, xmm0
	movaps	xmm0, xmm1
	movss	DWORD PTR tv132[rsp], xmm0
	xor	edx, edx
	mov	rcx, QWORD PTR m$[rsp]
	call	??A?$tmat4x3@M$0A@@glm@@QEBAAEBU?$tvec3@M$0A@@1@H@Z ; glm::tmat4x3<float,0>::operator[]
	mov	edx, 1
	mov	rcx, rax
	call	??A?$tvec3@M$0A@@glm@@QEBAAEBMH@Z	; glm::tvec3<float,0>::operator[]
	mov	rcx, QWORD PTR v$[rsp]
	movss	xmm0, DWORD PTR [rax]
	mulss	xmm0, DWORD PTR [rcx]
	movss	DWORD PTR tv141[rsp], xmm0
	mov	edx, 1
	mov	rcx, QWORD PTR m$[rsp]
	call	??A?$tmat4x3@M$0A@@glm@@QEBAAEBU?$tvec3@M$0A@@1@H@Z ; glm::tmat4x3<float,0>::operator[]
	mov	edx, 1
	mov	rcx, rax
	call	??A?$tvec3@M$0A@@glm@@QEBAAEBMH@Z	; glm::tvec3<float,0>::operator[]
	mov	rcx, QWORD PTR v$[rsp]
	movss	xmm0, DWORD PTR [rax]
	mulss	xmm0, DWORD PTR [rcx+4]
	movss	xmm1, DWORD PTR tv141[rsp]
	addss	xmm1, xmm0
	movaps	xmm0, xmm1
	movss	DWORD PTR tv150[rsp], xmm0
	mov	edx, 2
	mov	rcx, QWORD PTR m$[rsp]
	call	??A?$tmat4x3@M$0A@@glm@@QEBAAEBU?$tvec3@M$0A@@1@H@Z ; glm::tmat4x3<float,0>::operator[]
	mov	edx, 1
	mov	rcx, rax
	call	??A?$tvec3@M$0A@@glm@@QEBAAEBMH@Z	; glm::tvec3<float,0>::operator[]
	mov	rcx, QWORD PTR v$[rsp]
	movss	xmm0, DWORD PTR [rax]
	mulss	xmm0, DWORD PTR [rcx+8]
	movss	xmm1, DWORD PTR tv150[rsp]
	addss	xmm1, xmm0
	movaps	xmm0, xmm1
	movss	DWORD PTR tv159[rsp], xmm0
	mov	edx, 3
	mov	rcx, QWORD PTR m$[rsp]
	call	??A?$tmat4x3@M$0A@@glm@@QEBAAEBU?$tvec3@M$0A@@1@H@Z ; glm::tmat4x3<float,0>::operator[]
	mov	edx, 1
	mov	rcx, rax
	call	??A?$tvec3@M$0A@@glm@@QEBAAEBMH@Z	; glm::tvec3<float,0>::operator[]
	mov	rcx, QWORD PTR v$[rsp]
	movss	xmm0, DWORD PTR [rax]
	mulss	xmm0, DWORD PTR [rcx+12]
	movss	xmm1, DWORD PTR tv159[rsp]
	addss	xmm1, xmm0
	movaps	xmm0, xmm1
	movss	DWORD PTR tv168[rsp], xmm0
	xor	edx, edx
	mov	rcx, QWORD PTR m$[rsp]
	call	??A?$tmat4x3@M$0A@@glm@@QEBAAEBU?$tvec3@M$0A@@1@H@Z ; glm::tmat4x3<float,0>::operator[]
	xor	edx, edx
	mov	rcx, rax
	call	??A?$tvec3@M$0A@@glm@@QEBAAEBMH@Z	; glm::tvec3<float,0>::operator[]
	mov	rcx, QWORD PTR v$[rsp]
	movss	xmm0, DWORD PTR [rax]
	mulss	xmm0, DWORD PTR [rcx]
	movss	DWORD PTR tv177[rsp], xmm0
	mov	edx, 1
	mov	rcx, QWORD PTR m$[rsp]
	call	??A?$tmat4x3@M$0A@@glm@@QEBAAEBU?$tvec3@M$0A@@1@H@Z ; glm::tmat4x3<float,0>::operator[]
	xor	edx, edx
	mov	rcx, rax
	call	??A?$tvec3@M$0A@@glm@@QEBAAEBMH@Z	; glm::tvec3<float,0>::operator[]
	mov	rcx, QWORD PTR v$[rsp]
	movss	xmm0, DWORD PTR [rax]
	mulss	xmm0, DWORD PTR [rcx+4]
	movss	xmm1, DWORD PTR tv177[rsp]
	addss	xmm1, xmm0
	movaps	xmm0, xmm1
	movss	DWORD PTR tv186[rsp], xmm0
	mov	edx, 2
	mov	rcx, QWORD PTR m$[rsp]
	call	??A?$tmat4x3@M$0A@@glm@@QEBAAEBU?$tvec3@M$0A@@1@H@Z ; glm::tmat4x3<float,0>::operator[]
	xor	edx, edx
	mov	rcx, rax
	call	??A?$tvec3@M$0A@@glm@@QEBAAEBMH@Z	; glm::tvec3<float,0>::operator[]
	mov	rcx, QWORD PTR v$[rsp]
	movss	xmm0, DWORD PTR [rax]
	mulss	xmm0, DWORD PTR [rcx+8]
	movss	xmm1, DWORD PTR tv186[rsp]
	addss	xmm1, xmm0
	movaps	xmm0, xmm1
	movss	DWORD PTR tv195[rsp], xmm0
	mov	edx, 3
	mov	rcx, QWORD PTR m$[rsp]
	call	??A?$tmat4x3@M$0A@@glm@@QEBAAEBU?$tvec3@M$0A@@1@H@Z ; glm::tmat4x3<float,0>::operator[]
	xor	edx, edx
	mov	rcx, rax
	call	??A?$tvec3@M$0A@@glm@@QEBAAEBMH@Z	; glm::tvec3<float,0>::operator[]
	mov	rcx, QWORD PTR v$[rsp]
	movss	xmm0, DWORD PTR [rax]
	mulss	xmm0, DWORD PTR [rcx+12]
	movss	xmm1, DWORD PTR tv195[rsp]
	addss	xmm1, xmm0
	movaps	xmm0, xmm1
	movss	xmm1, DWORD PTR tv132[rsp]
	movaps	xmm3, xmm1
	movss	xmm1, DWORD PTR tv168[rsp]
	movaps	xmm2, xmm1
	movaps	xmm1, xmm0
	mov	rcx, QWORD PTR __$ReturnUdt$[rsp]
	call	??0?$tvec3@M$0A@@glm@@QEAA@MMM@Z	; glm::tvec3<float,0>::tvec3<float,0>
	mov	rax, QWORD PTR __$ReturnUdt$[rsp]

; 439  : 			m[0][0] * v.x + m[1][0] * v.y + m[2][0] * v.z + m[3][0] * v.w,
; 440  : 			m[0][1] * v.x + m[1][1] * v.y + m[2][1] * v.z + m[3][1] * v.w,
; 441  : 			m[0][2] * v.x + m[1][2] * v.y + m[2][2] * v.z + m[3][2] * v.w);
; 442  : 	}

	add	rsp, 80					; 00000050H
	pop	rdi
	ret	0
??$?DM$0A@@glm@@YA?AU?$tvec3@M$0A@@0@AEBU?$tmat4x3@M$0A@@0@AEBU?$tvec4@M$0A@@0@@Z ENDP ; glm::operator*<float,0>
_TEXT	ENDS
; Function compile flags: /Odtp /RTCsu
; File C:\Users\ksart\OneDrive\Desktop\FlappyBird\libraries\external\glm\glm\detail\type_vec4.inl
;	COMDAT ??$?0HHHH@?$tvec4@M$0A@@glm@@QEAA@HHHH@Z
_TEXT	SEGMENT
this$ = 16
a$ = 24
b$ = 32
c$ = 40
d$ = 48
??$?0HHHH@?$tvec4@M$0A@@glm@@QEAA@HHHH@Z PROC		; glm::tvec4<float,0>::tvec4<float,0><int,int,int,int>, COMDAT

; 204  : 	{}

$LN3:
	mov	DWORD PTR [rsp+32], r9d
	mov	DWORD PTR [rsp+24], r8d
	mov	DWORD PTR [rsp+16], edx
	mov	QWORD PTR [rsp+8], rcx
	push	rdi

; 200  : 		x(static_cast<T>(a)),

	cvtsi2ss xmm0, DWORD PTR a$[rsp]
	mov	rax, QWORD PTR this$[rsp]
	movss	DWORD PTR [rax], xmm0

; 201  : 		y(static_cast<T>(b)),

	cvtsi2ss xmm0, DWORD PTR b$[rsp]
	mov	rax, QWORD PTR this$[rsp]
	movss	DWORD PTR [rax+4], xmm0

; 202  : 		z(static_cast<T>(c)),

	cvtsi2ss xmm0, DWORD PTR c$[rsp]
	mov	rax, QWORD PTR this$[rsp]
	movss	DWORD PTR [rax+8], xmm0

; 203  : 		w(static_cast<T>(d))

	cvtsi2ss xmm0, DWORD PTR d$[rsp]
	mov	rax, QWORD PTR this$[rsp]
	movss	DWORD PTR [rax+12], xmm0

; 204  : 	{}

	mov	rax, QWORD PTR this$[rsp]
	pop	rdi
	ret	0
??$?0HHHH@?$tvec4@M$0A@@glm@@QEAA@HHHH@Z ENDP		; glm::tvec4<float,0>::tvec4<float,0><int,int,int,int>
_TEXT	ENDS
; Function compile flags: /Odtp /RTCsu
; File C:\Users\ksart\OneDrive\Desktop\FlappyBird\libraries\external\glm\glm\gtx\range.hpp
;	COMDAT ??$end@U?$tmat4x3@M$0A@@glm@@@glm@@YAPEAMAEAU?$tmat4x3@M$0A@@0@@Z
_TEXT	SEGMENT
tv64 = 32
v$ = 64
??$end@U?$tmat4x3@M$0A@@glm@@@glm@@YAPEAMAEAU?$tmat4x3@M$0A@@0@@Z PROC ; glm::end<glm::tmat4x3<float,0> >, COMDAT

; 80   : 	{

$LN3:
	mov	QWORD PTR [rsp+8], rcx
	push	rdi
	sub	rsp, 48					; 00000030H

; 81   : 		return begin(v) + components(v);

	mov	rcx, QWORD PTR v$[rsp]
	call	??$begin@U?$tmat4x3@M$0A@@glm@@@glm@@YAPEAMAEAU?$tmat4x3@M$0A@@0@@Z ; glm::begin<glm::tmat4x3<float,0> >
	mov	QWORD PTR tv64[rsp], rax
	mov	rcx, QWORD PTR v$[rsp]
	call	??$components@U?$tmat4x3@M$0A@@glm@@@glm@@YAHAEBU?$tmat4x3@M$0A@@0@@Z ; glm::components<glm::tmat4x3<float,0> >
	cdqe
	mov	rcx, QWORD PTR tv64[rsp]
	lea	rax, QWORD PTR [rcx+rax*4]

; 82   : 	}

	add	rsp, 48					; 00000030H
	pop	rdi
	ret	0
??$end@U?$tmat4x3@M$0A@@glm@@@glm@@YAPEAMAEAU?$tmat4x3@M$0A@@0@@Z ENDP ; glm::end<glm::tmat4x3<float,0> >
_TEXT	ENDS
; Function compile flags: /Odtp /RTCsu
; File C:\Users\ksart\OneDrive\Desktop\FlappyBird\libraries\external\glm\glm\gtx\range.hpp
;	COMDAT ??$begin@U?$tmat4x3@M$0A@@glm@@@glm@@YAPEAMAEAU?$tmat4x3@M$0A@@0@@Z
_TEXT	SEGMENT
v$ = 48
??$begin@U?$tmat4x3@M$0A@@glm@@@glm@@YAPEAMAEAU?$tmat4x3@M$0A@@0@@Z PROC ; glm::begin<glm::tmat4x3<float,0> >, COMDAT

; 74   : 	{

$LN3:
	mov	QWORD PTR [rsp+8], rcx
	push	rdi
	sub	rsp, 32					; 00000020H

; 75   : 		return value_ptr(v);

	mov	rcx, QWORD PTR v$[rsp]
	call	??$value_ptr@M$0A@@glm@@YAPEAMAEAU?$tmat4x3@M$0A@@0@@Z ; glm::value_ptr<float,0>

; 76   : 	}

	add	rsp, 32					; 00000020H
	pop	rdi
	ret	0
??$begin@U?$tmat4x3@M$0A@@glm@@@glm@@YAPEAMAEAU?$tmat4x3@M$0A@@0@@Z ENDP ; glm::begin<glm::tmat4x3<float,0> >
_TEXT	ENDS
; Function compile flags: /Odtp /RTCsu
; File C:\Users\ksart\OneDrive\Desktop\FlappyBird\libraries\external\glm\glm\detail\type_mat4x3.inl
;	COMDAT ??A?$tmat4x3@M$0A@@glm@@QEBAAEBU?$tvec3@M$0A@@1@H@Z
_TEXT	SEGMENT
this$ = 48
i$ = 56
??A?$tmat4x3@M$0A@@glm@@QEBAAEBU?$tvec3@M$0A@@1@H@Z PROC ; glm::tmat4x3<float,0>::operator[], COMDAT

; 218  : 	{

$LN4:
	mov	DWORD PTR [rsp+16], edx
	mov	QWORD PTR [rsp+8], rcx
	push	rdi
	sub	rsp, 32					; 00000020H

; 219  : 		assert(i < this->length());

	call	?length@?$tmat4x3@M$0A@@glm@@SAHXZ	; glm::tmat4x3<float,0>::length
	cmp	DWORD PTR i$[rsp], eax
	jl	SHORT $LN3@operator
	mov	r8d, 219				; 000000dbH
	lea	rdx, OFFSET FLAT:??_C@_1LK@GEGFBJDO@?$AAC?$AA?3?$AA?2?$AAU?$AAs?$AAe?$AAr?$AAs?$AA?2?$AAk?$AAs?$AAa?$AAr?$AAt?$AA?2@
	lea	rcx, OFFSET FLAT:??_C@_1CG@KOFHLCJL@?$AAi?$AA?5?$AA?$DM?$AA?5?$AAt?$AAh?$AAi?$AAs?$AA?9?$AA?$DO?$AAl?$AAe?$AAn?$AAg?$AAt@
	call	QWORD PTR __imp__wassert
	xor	eax, eax
$LN3@operator:

; 220  : 		return this->value[i];

	movsxd	rax, DWORD PTR i$[rsp]
	imul	rax, rax, 12
	mov	rcx, QWORD PTR this$[rsp]
	add	rcx, rax
	mov	rax, rcx

; 221  : 	}

	add	rsp, 32					; 00000020H
	pop	rdi
	ret	0
??A?$tmat4x3@M$0A@@glm@@QEBAAEBU?$tvec3@M$0A@@1@H@Z ENDP ; glm::tmat4x3<float,0>::operator[]
_TEXT	ENDS
; Function compile flags: /Odtp /RTCsu
; File C:\Users\ksart\OneDrive\Desktop\FlappyBird\libraries\external\glm\glm\detail\type_mat4x3.inl
;	COMDAT ??A?$tmat4x3@M$0A@@glm@@QEAAAEAU?$tvec3@M$0A@@1@H@Z
_TEXT	SEGMENT
this$ = 48
i$ = 56
??A?$tmat4x3@M$0A@@glm@@QEAAAEAU?$tvec3@M$0A@@1@H@Z PROC ; glm::tmat4x3<float,0>::operator[], COMDAT

; 211  : 	{

$LN4:
	mov	DWORD PTR [rsp+16], edx
	mov	QWORD PTR [rsp+8], rcx
	push	rdi
	sub	rsp, 32					; 00000020H

; 212  : 		assert(i < this->length());

	call	?length@?$tmat4x3@M$0A@@glm@@SAHXZ	; glm::tmat4x3<float,0>::length
	cmp	DWORD PTR i$[rsp], eax
	jl	SHORT $LN3@operator
	mov	r8d, 212				; 000000d4H
	lea	rdx, OFFSET FLAT:??_C@_1LK@GEGFBJDO@?$AAC?$AA?3?$AA?2?$AAU?$AAs?$AAe?$AAr?$AAs?$AA?2?$AAk?$AAs?$AAa?$AAr?$AAt?$AA?2@
	lea	rcx, OFFSET FLAT:??_C@_1CG@KOFHLCJL@?$AAi?$AA?5?$AA?$DM?$AA?5?$AAt?$AAh?$AAi?$AAs?$AA?9?$AA?$DO?$AAl?$AAe?$AAn?$AAg?$AAt@
	call	QWORD PTR __imp__wassert
	xor	eax, eax
$LN3@operator:

; 213  : 		return this->value[i];

	movsxd	rax, DWORD PTR i$[rsp]
	imul	rax, rax, 12
	mov	rcx, QWORD PTR this$[rsp]
	add	rcx, rax
	mov	rax, rcx

; 214  : 	}

	add	rsp, 32					; 00000020H
	pop	rdi
	ret	0
??A?$tmat4x3@M$0A@@glm@@QEAAAEAU?$tvec3@M$0A@@1@H@Z ENDP ; glm::tmat4x3<float,0>::operator[]
_TEXT	ENDS
; Function compile flags: /Odtp /RTCsu
; File C:\Users\ksart\OneDrive\Desktop\FlappyBird\libraries\external\glm\glm\detail\type_mat4x3.hpp
;	COMDAT ?length@?$tmat4x3@M$0A@@glm@@SAHXZ
_TEXT	SEGMENT
?length@?$tmat4x3@M$0A@@glm@@SAHXZ PROC			; glm::tmat4x3<float,0>::length, COMDAT

; 85   : 		GLM_FUNC_DECL static length_type length(){return 4;}

$LN3:
	push	rdi
	mov	eax, 4
	pop	rdi
	ret	0
?length@?$tmat4x3@M$0A@@glm@@SAHXZ ENDP			; glm::tmat4x3<float,0>::length
_TEXT	ENDS
; Function compile flags: /Odtp /RTCsu
; File C:\Users\ksart\OneDrive\Desktop\FlappyBird\libraries\external\glm\glm\detail\type_mat4x3.inl
;	COMDAT ??0?$tmat4x3@M$0A@@glm@@QEAA@AEBM@Z
_TEXT	SEGMENT
$T1 = 32
$T2 = 44
$T3 = 56
$T4 = 68
this$ = 112
s$ = 120
??0?$tmat4x3@M$0A@@glm@@QEAA@AEBM@Z PROC		; glm::tmat4x3<float,0>::tmat4x3<float,0>, COMDAT

; 48   : 	{

$LN3:
	mov	QWORD PTR [rsp+16], rdx
	mov	QWORD PTR [rsp+8], rcx
	push	rsi
	push	rdi
	sub	rsp, 88					; 00000058H
	mov	rax, QWORD PTR this$[rsp]
	lea	r9, OFFSET FLAT:??0?$tvec3@M$0A@@glm@@QEAA@XZ ; glm::tvec3<float,0>::tvec3<float,0>
	mov	r8d, 4
	mov	edx, 12
	mov	rcx, rax
	call	??_H@YAXPEAX_K1P6APEAX0@Z@Z

; 49   : 		this->value[0] = col_type(s, 0, 0);

	xor	r9d, r9d
	xor	r8d, r8d
	mov	rax, QWORD PTR s$[rsp]
	movss	xmm1, DWORD PTR [rax]
	lea	rcx, QWORD PTR $T1[rsp]
	call	??$?0MHH@?$tvec3@M$0A@@glm@@QEAA@MHH@Z	; glm::tvec3<float,0>::tvec3<float,0><float,int,int>
	mov	ecx, 12
	imul	rcx, rcx, 0
	mov	rdx, QWORD PTR this$[rsp]
	lea	rdi, QWORD PTR [rdx+rcx]
	mov	rsi, rax
	mov	ecx, 12
	rep movsb

; 50   : 		this->value[1] = col_type(0, s, 0);

	xor	r9d, r9d
	mov	rax, QWORD PTR s$[rsp]
	movss	xmm2, DWORD PTR [rax]
	xor	edx, edx
	lea	rcx, QWORD PTR $T2[rsp]
	call	??$?0HMH@?$tvec3@M$0A@@glm@@QEAA@HMH@Z	; glm::tvec3<float,0>::tvec3<float,0><int,float,int>
	mov	ecx, 12
	imul	rcx, rcx, 1
	mov	rdx, QWORD PTR this$[rsp]
	lea	rdi, QWORD PTR [rdx+rcx]
	mov	rsi, rax
	mov	ecx, 12
	rep movsb

; 51   : 		this->value[2] = col_type(0, 0, s);

	mov	rax, QWORD PTR s$[rsp]
	movss	xmm3, DWORD PTR [rax]
	xor	r8d, r8d
	xor	edx, edx
	lea	rcx, QWORD PTR $T3[rsp]
	call	??$?0HHM@?$tvec3@M$0A@@glm@@QEAA@HHM@Z	; glm::tvec3<float,0>::tvec3<float,0><int,int,float>
	mov	ecx, 12
	imul	rcx, rcx, 2
	mov	rdx, QWORD PTR this$[rsp]
	lea	rdi, QWORD PTR [rdx+rcx]
	mov	rsi, rax
	mov	ecx, 12
	rep movsb

; 52   : 		this->value[3] = col_type(0, 0, 0);

	xor	r9d, r9d
	xor	r8d, r8d
	xor	edx, edx
	lea	rcx, QWORD PTR $T4[rsp]
	call	??$?0HHH@?$tvec3@M$0A@@glm@@QEAA@HHH@Z	; glm::tvec3<float,0>::tvec3<float,0><int,int,int>
	mov	ecx, 12
	imul	rcx, rcx, 3
	mov	rdx, QWORD PTR this$[rsp]
	lea	rdi, QWORD PTR [rdx+rcx]
	mov	rsi, rax
	mov	ecx, 12
	rep movsb

; 53   : 	}

	mov	rax, QWORD PTR this$[rsp]
	add	rsp, 88					; 00000058H
	pop	rdi
	pop	rsi
	ret	0
??0?$tmat4x3@M$0A@@glm@@QEAA@AEBM@Z ENDP		; glm::tmat4x3<float,0>::tmat4x3<float,0>
_TEXT	ENDS
; Function compile flags: /Odtp /RTCsu
; File C:\Users\ksart\OneDrive\Desktop\FlappyBird\libraries\external\glm\test\gtx\gtx_range.cpp
_TEXT	SEGMENT
Error$ = 48
m$ = 72
count$ = 132
<range>$L0$5 = 136
<begin>$L0$6 = 144
<end>$L0$7 = 152
x$8 = 160
<range>$L1$9 = 168
<begin>$L1$10 = 176
<end>$L1$11 = 184
x$12 = 192
v$ = 216
$T13 = 256
$T14 = 260
$T15 = 272
$T16 = 284
tv74 = 288
tv90 = 296
tv136 = 304
__$ArrayPad$ = 312
?testMat@@YAHXZ PROC					; testMat

; 23   : {

$LN13:
	push	rdi
	sub	rsp, 320				; 00000140H
	lea	rdi, QWORD PTR [rsp+48]
	mov	ecx, 68					; 00000044H
	mov	eax, -858993460				; ccccccccH
	rep stosd
	mov	rax, QWORD PTR __security_cookie
	xor	rax, rsp
	mov	QWORD PTR __$ArrayPad$[rsp], rax

; 24   : 	int Error(0);

	mov	DWORD PTR Error$[rsp], 0

; 25   : 	glm::mat4x3 m(1);

	movss	xmm0, DWORD PTR __real@3f800000
	movss	DWORD PTR $T13[rsp], xmm0
	lea	rdx, QWORD PTR $T13[rsp]
	lea	rcx, QWORD PTR m$[rsp]
	call	??0?$tmat4x3@M$0A@@glm@@QEAA@AEBM@Z	; glm::tmat4x3<float,0>::tmat4x3<float,0>

; 26   : 
; 27   : 	int count = 0;

	mov	DWORD PTR count$[rsp], 0

; 28   : 	for(float x : m){ count++; }

	lea	rax, QWORD PTR m$[rsp]
	mov	QWORD PTR <range>$L0$5[rsp], rax
	mov	rcx, QWORD PTR <range>$L0$5[rsp]
	call	??$begin@U?$tmat4x3@M$0A@@glm@@@glm@@YAPEAMAEAU?$tmat4x3@M$0A@@0@@Z ; glm::begin<glm::tmat4x3<float,0> >
	mov	QWORD PTR <begin>$L0$6[rsp], rax
	mov	rcx, QWORD PTR <range>$L0$5[rsp]
	call	??$end@U?$tmat4x3@M$0A@@glm@@@glm@@YAPEAMAEAU?$tmat4x3@M$0A@@0@@Z ; glm::end<glm::tmat4x3<float,0> >
	mov	QWORD PTR <end>$L0$7[rsp], rax
	jmp	SHORT $LN4@testMat
$LN2@testMat:
	mov	rax, QWORD PTR <begin>$L0$6[rsp]
	add	rax, 4
	mov	QWORD PTR <begin>$L0$6[rsp], rax
$LN4@testMat:
	mov	rax, QWORD PTR <end>$L0$7[rsp]
	cmp	QWORD PTR <begin>$L0$6[rsp], rax
	je	SHORT $LN3@testMat
	mov	rax, QWORD PTR <begin>$L0$6[rsp]
	movss	xmm0, DWORD PTR [rax]
	movss	DWORD PTR x$8[rsp], xmm0
	mov	eax, DWORD PTR count$[rsp]
	inc	eax
	mov	DWORD PTR count$[rsp], eax
	jmp	SHORT $LN2@testMat
$LN3@testMat:

; 29   : 	Error += count == 12 ? 0 : 1;

	cmp	DWORD PTR count$[rsp], 12
	jne	SHORT $LN9@testMat
	mov	DWORD PTR tv74[rsp], 0
	jmp	SHORT $LN10@testMat
$LN9@testMat:
	mov	DWORD PTR tv74[rsp], 1
$LN10@testMat:
	mov	eax, DWORD PTR tv74[rsp]
	mov	ecx, DWORD PTR Error$[rsp]
	add	ecx, eax
	mov	eax, ecx
	mov	DWORD PTR Error$[rsp], eax

; 30   : 
; 31   : 	for(float& x : m){ x = 0; }

	lea	rax, QWORD PTR m$[rsp]
	mov	QWORD PTR <range>$L1$9[rsp], rax
	mov	rcx, QWORD PTR <range>$L1$9[rsp]
	call	??$begin@U?$tmat4x3@M$0A@@glm@@@glm@@YAPEAMAEAU?$tmat4x3@M$0A@@0@@Z ; glm::begin<glm::tmat4x3<float,0> >
	mov	QWORD PTR <begin>$L1$10[rsp], rax
	mov	rcx, QWORD PTR <range>$L1$9[rsp]
	call	??$end@U?$tmat4x3@M$0A@@glm@@@glm@@YAPEAMAEAU?$tmat4x3@M$0A@@0@@Z ; glm::end<glm::tmat4x3<float,0> >
	mov	QWORD PTR <end>$L1$11[rsp], rax
	jmp	SHORT $LN7@testMat
$LN5@testMat:
	mov	rax, QWORD PTR <begin>$L1$10[rsp]
	add	rax, 4
	mov	QWORD PTR <begin>$L1$10[rsp], rax
$LN7@testMat:
	mov	rax, QWORD PTR <end>$L1$11[rsp]
	cmp	QWORD PTR <begin>$L1$10[rsp], rax
	je	SHORT $LN6@testMat
	mov	rax, QWORD PTR <begin>$L1$10[rsp]
	mov	QWORD PTR x$12[rsp], rax
	mov	rax, QWORD PTR x$12[rsp]
	xorps	xmm0, xmm0
	movss	DWORD PTR [rax], xmm0
	jmp	SHORT $LN5@testMat
$LN6@testMat:

; 32   : 	glm::vec4 v(1, 1, 1, 1);

	mov	DWORD PTR [rsp+32], 1
	mov	r9d, 1
	mov	r8d, 1
	mov	edx, 1
	lea	rcx, QWORD PTR v$[rsp]
	call	??$?0HHHH@?$tvec4@M$0A@@glm@@QEAA@HHHH@Z ; glm::tvec4<float,0>::tvec4<float,0><int,int,int,int>

; 33   : 	Error += glm::all(glm::equal(m*v, glm::vec3(0, 0, 0))) ? 0 : 1;

	xor	r9d, r9d
	xor	r8d, r8d
	xor	edx, edx
	lea	rcx, QWORD PTR $T14[rsp]
	call	??$?0HHH@?$tvec3@M$0A@@glm@@QEAA@HHH@Z	; glm::tvec3<float,0>::tvec3<float,0><int,int,int>
	mov	QWORD PTR tv90[rsp], rax
	lea	r8, QWORD PTR v$[rsp]
	lea	rdx, QWORD PTR m$[rsp]
	lea	rcx, QWORD PTR $T15[rsp]
	call	??$?DM$0A@@glm@@YA?AU?$tvec3@M$0A@@0@AEBU?$tmat4x3@M$0A@@0@AEBU?$tvec4@M$0A@@0@@Z ; glm::operator*<float,0>
	mov	rcx, QWORD PTR tv90[rsp]
	mov	r8, rcx
	mov	rdx, rax
	lea	rcx, QWORD PTR $T16[rsp]
	call	??$equal@M$0A@Utvec3@glm@@@glm@@YA?AU?$tvec3@_N$0A@@0@AEBU?$tvec3@M$0A@@0@0@Z ; glm::equal<float,0,glm::tvec3>
	mov	rcx, rax
	call	??$all@$0A@Utvec3@glm@@@glm@@YA_NAEBU?$tvec3@_N$0A@@0@@Z ; glm::all<0,glm::tvec3>
	movzx	eax, al
	test	eax, eax
	je	SHORT $LN11@testMat
	mov	DWORD PTR tv136[rsp], 0
	jmp	SHORT $LN12@testMat
$LN11@testMat:
	mov	DWORD PTR tv136[rsp], 1
$LN12@testMat:
	mov	eax, DWORD PTR tv136[rsp]
	mov	ecx, DWORD PTR Error$[rsp]
	add	ecx, eax
	mov	eax, ecx
	mov	DWORD PTR Error$[rsp], eax

; 34   : 	return Error;

	mov	eax, DWORD PTR Error$[rsp]

; 35   : }

	mov	edi, eax
	mov	rcx, rsp
	lea	rdx, OFFSET FLAT:?testMat@@YAHXZ$rtcFrameData
	call	_RTC_CheckStackVars
	mov	eax, edi
	mov	rcx, QWORD PTR __$ArrayPad$[rsp]
	xor	rcx, rsp
	call	__security_check_cookie
	add	rsp, 320				; 00000140H
	pop	rdi
	ret	0
?testMat@@YAHXZ ENDP					; testMat
_TEXT	ENDS
; Function compile flags: /Odtp /RTCsu
; File C:\Users\ksart\OneDrive\Desktop\FlappyBird\libraries\external\glm\glm\detail\func_vector_relational.inl
;	COMDAT ??$all@$0A@Utvec3@glm@@@glm@@YA_NAEBU?$tvec3@_N$0A@@0@@Z
_TEXT	SEGMENT
Result$ = 32
i$1 = 36
tv74 = 40
v$ = 64
??$all@$0A@Utvec3@glm@@@glm@@YA_NAEBU?$tvec3@_N$0A@@0@@Z PROC ; glm::all<0,glm::tvec3>, COMDAT

; 86   : 	{

$LN8:
	mov	QWORD PTR [rsp+8], rcx
	push	rdi
	sub	rsp, 48					; 00000030H

; 87   : 		bool Result = true;

	mov	BYTE PTR Result$[rsp], 1

; 88   : 		for(length_t i = 0; i < v.length(); ++i)

	mov	DWORD PTR i$1[rsp], 0
	jmp	SHORT $LN4@all
$LN2@all:
	mov	eax, DWORD PTR i$1[rsp]
	inc	eax
	mov	DWORD PTR i$1[rsp], eax
$LN4@all:
	call	?length@?$tvec3@_N$0A@@glm@@SAHXZ	; glm::tvec3<bool,0>::length
	cmp	DWORD PTR i$1[rsp], eax
	jge	SHORT $LN3@all

; 89   : 			Result = Result && v[i];

	movzx	eax, BYTE PTR Result$[rsp]
	test	eax, eax
	je	SHORT $LN6@all
	mov	edx, DWORD PTR i$1[rsp]
	mov	rcx, QWORD PTR v$[rsp]
	call	??A?$tvec3@_N$0A@@glm@@QEBAAEB_NH@Z	; glm::tvec3<bool,0>::operator[]
	movzx	eax, BYTE PTR [rax]
	test	eax, eax
	je	SHORT $LN6@all
	mov	DWORD PTR tv74[rsp], 1
	jmp	SHORT $LN7@all
$LN6@all:
	mov	DWORD PTR tv74[rsp], 0
$LN7@all:
	movzx	eax, BYTE PTR tv74[rsp]
	mov	BYTE PTR Result$[rsp], al
	jmp	SHORT $LN2@all
$LN3@all:

; 90   : 		return Result;

	movzx	eax, BYTE PTR Result$[rsp]

; 91   : 	}

	add	rsp, 48					; 00000030H
	pop	rdi
	ret	0
??$all@$0A@Utvec3@glm@@@glm@@YA_NAEBU?$tvec3@_N$0A@@0@@Z ENDP ; glm::all<0,glm::tvec3>
_TEXT	ENDS
; Function compile flags: /Odtp /RTCsu
; File C:\Users\ksart\OneDrive\Desktop\FlappyBird\libraries\external\glm\glm\detail\type_vec3.inl
;	COMDAT ??0?$tvec3@_N$0A@@glm@@QEAA@W4ctor@1@@Z
_TEXT	SEGMENT
this$ = 16
__formal$ = 24
??0?$tvec3@_N$0A@@glm@@QEAA@W4ctor@1@@Z PROC		; glm::tvec3<bool,0>::tvec3<bool,0>, COMDAT

; 60   : 	{}

$LN3:
	mov	DWORD PTR [rsp+16], edx
	mov	QWORD PTR [rsp+8], rcx
	push	rdi
	mov	rax, QWORD PTR this$[rsp]
	pop	rdi
	ret	0
??0?$tvec3@_N$0A@@glm@@QEAA@W4ctor@1@@Z ENDP		; glm::tvec3<bool,0>::tvec3<bool,0>
_TEXT	ENDS
; Function compile flags: /Odtp /RTCsu
; File C:\Users\ksart\OneDrive\Desktop\FlappyBird\libraries\external\glm\glm\detail\type_vec3.inl
;	COMDAT ??A?$tvec3@_N$0A@@glm@@QEBAAEB_NH@Z
_TEXT	SEGMENT
this$ = 48
i$ = 56
??A?$tvec3@_N$0A@@glm@@QEBAAEB_NH@Z PROC		; glm::tvec3<bool,0>::operator[], COMDAT

; 151  : 	{

$LN5:
	mov	DWORD PTR [rsp+16], edx
	mov	QWORD PTR [rsp+8], rcx
	push	rdi
	sub	rsp, 32					; 00000020H

; 152  : 		assert(i >= 0 && i < this->length());

	cmp	DWORD PTR i$[rsp], 0
	jl	SHORT $LN3@operator
	call	?length@?$tvec3@_N$0A@@glm@@SAHXZ	; glm::tvec3<bool,0>::length
	cmp	DWORD PTR i$[rsp], eax
	jl	SHORT $LN4@operator
$LN3@operator:
	mov	r8d, 152				; 00000098H
	lea	rdx, OFFSET FLAT:??_C@_1LG@MEJFBKPC@?$AAC?$AA?3?$AA?2?$AAU?$AAs?$AAe?$AAr?$AAs?$AA?2?$AAk?$AAs?$AAa?$AAr?$AAt?$AA?2@
	lea	rcx, OFFSET FLAT:??_C@_1DK@BGNCJAPL@?$AAi?$AA?5?$AA?$DO?$AA?$DN?$AA?5?$AA0?$AA?5?$AA?$CG?$AA?$CG?$AA?5?$AAi?$AA?5?$AA?$DM?$AA?5?$AAt@
	call	QWORD PTR __imp__wassert
	xor	eax, eax
$LN4@operator:

; 153  : 		return (&x)[i];

	movsxd	rax, DWORD PTR i$[rsp]
	mov	rcx, QWORD PTR this$[rsp]
	add	rcx, rax
	mov	rax, rcx

; 154  : 	}

	add	rsp, 32					; 00000020H
	pop	rdi
	ret	0
??A?$tvec3@_N$0A@@glm@@QEBAAEB_NH@Z ENDP		; glm::tvec3<bool,0>::operator[]
_TEXT	ENDS
; Function compile flags: /Odtp /RTCsu
; File C:\Users\ksart\OneDrive\Desktop\FlappyBird\libraries\external\glm\glm\detail\type_vec3.inl
;	COMDAT ??A?$tvec3@_N$0A@@glm@@QEAAAEA_NH@Z
_TEXT	SEGMENT
this$ = 48
i$ = 56
??A?$tvec3@_N$0A@@glm@@QEAAAEA_NH@Z PROC		; glm::tvec3<bool,0>::operator[], COMDAT

; 144  : 	{

$LN5:
	mov	DWORD PTR [rsp+16], edx
	mov	QWORD PTR [rsp+8], rcx
	push	rdi
	sub	rsp, 32					; 00000020H

; 145  : 		assert(i >= 0 && i < this->length());

	cmp	DWORD PTR i$[rsp], 0
	jl	SHORT $LN3@operator
	call	?length@?$tvec3@_N$0A@@glm@@SAHXZ	; glm::tvec3<bool,0>::length
	cmp	DWORD PTR i$[rsp], eax
	jl	SHORT $LN4@operator
$LN3@operator:
	mov	r8d, 145				; 00000091H
	lea	rdx, OFFSET FLAT:??_C@_1LG@MEJFBKPC@?$AAC?$AA?3?$AA?2?$AAU?$AAs?$AAe?$AAr?$AAs?$AA?2?$AAk?$AAs?$AAa?$AAr?$AAt?$AA?2@
	lea	rcx, OFFSET FLAT:??_C@_1DK@BGNCJAPL@?$AAi?$AA?5?$AA?$DO?$AA?$DN?$AA?5?$AA0?$AA?5?$AA?$CG?$AA?$CG?$AA?5?$AAi?$AA?5?$AA?$DM?$AA?5?$AAt@
	call	QWORD PTR __imp__wassert
	xor	eax, eax
$LN4@operator:

; 146  : 		return (&x)[i];

	movsxd	rax, DWORD PTR i$[rsp]
	mov	rcx, QWORD PTR this$[rsp]
	add	rcx, rax
	mov	rax, rcx

; 147  : 	}

	add	rsp, 32					; 00000020H
	pop	rdi
	ret	0
??A?$tvec3@_N$0A@@glm@@QEAAAEA_NH@Z ENDP		; glm::tvec3<bool,0>::operator[]
_TEXT	ENDS
; Function compile flags: /Odtp /RTCsu
; File C:\Users\ksart\OneDrive\Desktop\FlappyBird\libraries\external\glm\glm\detail\type_vec3.hpp
;	COMDAT ?length@?$tvec3@_N$0A@@glm@@SAHXZ
_TEXT	SEGMENT
?length@?$tvec3@_N$0A@@glm@@SAHXZ PROC			; glm::tvec3<bool,0>::length, COMDAT

; 82   : 		GLM_FUNC_DECL static length_type length(){return 3;}

$LN3:
	push	rdi
	mov	eax, 3
	pop	rdi
	ret	0
?length@?$tvec3@_N$0A@@glm@@SAHXZ ENDP			; glm::tvec3<bool,0>::length
_TEXT	ENDS
; Function compile flags: /Odtp /RTCsu
; File C:\Users\ksart\OneDrive\Desktop\FlappyBird\libraries\external\glm\glm\detail\func_vector_relational.inl
;	COMDAT ??$equal@M$0A@Utvec3@glm@@@glm@@YA?AU?$tvec3@_N$0A@@0@AEBU?$tvec3@M$0A@@0@0@Z
_TEXT	SEGMENT
Result$ = 36
i$4 = 52
tv64 = 56
tv80 = 64
tv86 = 72
__$ReturnUdt$ = 112
x$ = 120
y$ = 128
??$equal@M$0A@Utvec3@glm@@@glm@@YA?AU?$tvec3@_N$0A@@0@AEBU?$tvec3@M$0A@@0@0@Z PROC ; glm::equal<float,0,glm::tvec3>, COMDAT

; 55   : 	{

$LN9:
	mov	QWORD PTR [rsp+24], r8
	mov	QWORD PTR [rsp+16], rdx
	mov	QWORD PTR [rsp+8], rcx
	push	rsi
	push	rdi
	sub	rsp, 88					; 00000058H
	lea	rdi, QWORD PTR [rsp+32]
	mov	ecx, 14
	mov	eax, -858993460				; ccccccccH
	rep stosd
	mov	rcx, QWORD PTR [rsp+112]

; 56   : 		assert(x.length() == y.length());

	call	?length@?$tvec3@M$0A@@glm@@SAHXZ	; glm::tvec3<float,0>::length
	mov	DWORD PTR tv64[rsp], eax
	call	?length@?$tvec3@M$0A@@glm@@SAHXZ	; glm::tvec3<float,0>::length
	mov	ecx, DWORD PTR tv64[rsp]
	cmp	ecx, eax
	je	SHORT $LN6@equal
	mov	r8d, 56					; 00000038H
	lea	rdx, OFFSET FLAT:??_C@_1NA@OPABFNEN@?$AAC?$AA?3?$AA?2?$AAU?$AAs?$AAe?$AAr?$AAs?$AA?2?$AAk?$AAs?$AAa?$AAr?$AAt?$AA?2@
	lea	rcx, OFFSET FLAT:??_C@_1DC@HHLCGOLC@?$AAx?$AA?4?$AAl?$AAe?$AAn?$AAg?$AAt?$AAh?$AA?$CI?$AA?$CJ?$AA?5?$AA?$DN?$AA?$DN?$AA?5?$AAy@
	call	QWORD PTR __imp__wassert
	xor	eax, eax
$LN6@equal:

; 57   : 
; 58   : 		vecType<bool, P> Result(uninitialize);

	xor	edx, edx
	lea	rcx, QWORD PTR Result$[rsp]
	call	??0?$tvec3@_N$0A@@glm@@QEAA@W4ctor@1@@Z	; glm::tvec3<bool,0>::tvec3<bool,0>

; 59   : 		for(length_t i = 0; i < x.length(); ++i)

	mov	DWORD PTR i$4[rsp], 0
	jmp	SHORT $LN4@equal
$LN2@equal:
	mov	eax, DWORD PTR i$4[rsp]
	inc	eax
	mov	DWORD PTR i$4[rsp], eax
$LN4@equal:
	call	?length@?$tvec3@M$0A@@glm@@SAHXZ	; glm::tvec3<float,0>::length
	cmp	DWORD PTR i$4[rsp], eax
	jge	SHORT $LN3@equal

; 60   : 			Result[i] = x[i] == y[i];

	mov	edx, DWORD PTR i$4[rsp]
	mov	rcx, QWORD PTR x$[rsp]
	call	??A?$tvec3@M$0A@@glm@@QEBAAEBMH@Z	; glm::tvec3<float,0>::operator[]
	mov	QWORD PTR tv80[rsp], rax
	mov	edx, DWORD PTR i$4[rsp]
	mov	rcx, QWORD PTR y$[rsp]
	call	??A?$tvec3@M$0A@@glm@@QEBAAEBMH@Z	; glm::tvec3<float,0>::operator[]
	mov	rcx, QWORD PTR tv80[rsp]
	movss	xmm0, DWORD PTR [rcx]
	ucomiss	xmm0, DWORD PTR [rax]
	jp	SHORT $LN7@equal
	jne	SHORT $LN7@equal
	mov	DWORD PTR tv86[rsp], 1
	jmp	SHORT $LN8@equal
$LN7@equal:
	mov	DWORD PTR tv86[rsp], 0
$LN8@equal:
	mov	edx, DWORD PTR i$4[rsp]
	lea	rcx, QWORD PTR Result$[rsp]
	call	??A?$tvec3@_N$0A@@glm@@QEAAAEA_NH@Z	; glm::tvec3<bool,0>::operator[]
	movzx	ecx, BYTE PTR tv86[rsp]
	mov	BYTE PTR [rax], cl
	jmp	SHORT $LN2@equal
$LN3@equal:

; 61   : 		return Result;

	lea	rax, QWORD PTR Result$[rsp]
	mov	rdi, QWORD PTR __$ReturnUdt$[rsp]
	mov	rsi, rax
	mov	ecx, 3
	rep movsb
	mov	rax, QWORD PTR __$ReturnUdt$[rsp]

; 62   : 	}

	mov	rdi, rax
	mov	rcx, rsp
	lea	rdx, OFFSET FLAT:??$equal@M$0A@Utvec3@glm@@@glm@@YA?AU?$tvec3@_N$0A@@0@AEBU?$tvec3@M$0A@@0@0@Z$rtcFrameData
	call	_RTC_CheckStackVars
	mov	rax, rdi
	add	rsp, 88					; 00000058H
	pop	rdi
	pop	rsi
	ret	0
??$equal@M$0A@Utvec3@glm@@@glm@@YA?AU?$tvec3@_N$0A@@0@AEBU?$tvec3@M$0A@@0@0@Z ENDP ; glm::equal<float,0,glm::tvec3>
_TEXT	ENDS
; Function compile flags: /Odtp /RTCsu
; File C:\Users\ksart\OneDrive\Desktop\FlappyBird\libraries\external\glm\glm\gtx\range.hpp
;	COMDAT ??$end@U?$tvec3@M$0A@@glm@@@glm@@YAPEAMAEAU?$tvec3@M$0A@@0@@Z
_TEXT	SEGMENT
tv64 = 32
v$ = 64
??$end@U?$tvec3@M$0A@@glm@@@glm@@YAPEAMAEAU?$tvec3@M$0A@@0@@Z PROC ; glm::end<glm::tvec3<float,0> >, COMDAT

; 80   : 	{

$LN3:
	mov	QWORD PTR [rsp+8], rcx
	push	rdi
	sub	rsp, 48					; 00000030H

; 81   : 		return begin(v) + components(v);

	mov	rcx, QWORD PTR v$[rsp]
	call	??$begin@U?$tvec3@M$0A@@glm@@@glm@@YAPEAMAEAU?$tvec3@M$0A@@0@@Z ; glm::begin<glm::tvec3<float,0> >
	mov	QWORD PTR tv64[rsp], rax
	mov	rcx, QWORD PTR v$[rsp]
	call	??$components@M$0A@@glm@@YAHAEBU?$tvec3@M$0A@@0@@Z ; glm::components<float,0>
	cdqe
	mov	rcx, QWORD PTR tv64[rsp]
	lea	rax, QWORD PTR [rcx+rax*4]

; 82   : 	}

	add	rsp, 48					; 00000030H
	pop	rdi
	ret	0
??$end@U?$tvec3@M$0A@@glm@@@glm@@YAPEAMAEAU?$tvec3@M$0A@@0@@Z ENDP ; glm::end<glm::tvec3<float,0> >
_TEXT	ENDS
; Function compile flags: /Odtp /RTCsu
; File C:\Users\ksart\OneDrive\Desktop\FlappyBird\libraries\external\glm\glm\gtx\range.hpp
;	COMDAT ??$begin@U?$tvec3@M$0A@@glm@@@glm@@YAPEAMAEAU?$tvec3@M$0A@@0@@Z
_TEXT	SEGMENT
v$ = 48
??$begin@U?$tvec3@M$0A@@glm@@@glm@@YAPEAMAEAU?$tvec3@M$0A@@0@@Z PROC ; glm::begin<glm::tvec3<float,0> >, COMDAT

; 74   : 	{

$LN3:
	mov	QWORD PTR [rsp+8], rcx
	push	rdi
	sub	rsp, 32					; 00000020H

; 75   : 		return value_ptr(v);

	mov	rcx, QWORD PTR v$[rsp]
	call	??$value_ptr@M$0A@@glm@@YAPEAMAEAU?$tvec3@M$0A@@0@@Z ; glm::value_ptr<float,0>

; 76   : 	}

	add	rsp, 32					; 00000020H
	pop	rdi
	ret	0
??$begin@U?$tvec3@M$0A@@glm@@@glm@@YAPEAMAEAU?$tvec3@M$0A@@0@@Z ENDP ; glm::begin<glm::tvec3<float,0> >
_TEXT	ENDS
; Function compile flags: /Odtp /RTCsu
; File C:\Users\ksart\OneDrive\Desktop\FlappyBird\libraries\external\glm\glm\detail\type_vec3.inl
;	COMDAT ??$?0HHH@?$tvec3@M$0A@@glm@@QEAA@HHH@Z
_TEXT	SEGMENT
this$ = 16
a$ = 24
b$ = 32
c$ = 40
??$?0HHH@?$tvec3@M$0A@@glm@@QEAA@HHH@Z PROC		; glm::tvec3<float,0>::tvec3<float,0><int,int,int>, COMDAT

; 80   : 	{}

$LN3:
	mov	DWORD PTR [rsp+32], r9d
	mov	DWORD PTR [rsp+24], r8d
	mov	DWORD PTR [rsp+16], edx
	mov	QWORD PTR [rsp+8], rcx
	push	rdi

; 77   : 		x(static_cast<T>(a)),

	cvtsi2ss xmm0, DWORD PTR a$[rsp]
	mov	rax, QWORD PTR this$[rsp]
	movss	DWORD PTR [rax], xmm0

; 78   : 		y(static_cast<T>(b)),

	cvtsi2ss xmm0, DWORD PTR b$[rsp]
	mov	rax, QWORD PTR this$[rsp]
	movss	DWORD PTR [rax+4], xmm0

; 79   : 		z(static_cast<T>(c))

	cvtsi2ss xmm0, DWORD PTR c$[rsp]
	mov	rax, QWORD PTR this$[rsp]
	movss	DWORD PTR [rax+8], xmm0

; 80   : 	{}

	mov	rax, QWORD PTR this$[rsp]
	pop	rdi
	ret	0
??$?0HHH@?$tvec3@M$0A@@glm@@QEAA@HHH@Z ENDP		; glm::tvec3<float,0>::tvec3<float,0><int,int,int>
_TEXT	ENDS
; Function compile flags: /Odtp /RTCsu
; File C:\Users\ksart\OneDrive\Desktop\FlappyBird\libraries\external\glm\glm\detail\type_vec3.inl
;	COMDAT ??0?$tvec3@M$0A@@glm@@QEAA@MMM@Z
_TEXT	SEGMENT
this$ = 16
a$ = 24
b$ = 32
c$ = 40
??0?$tvec3@M$0A@@glm@@QEAA@MMM@Z PROC			; glm::tvec3<float,0>::tvec3<float,0>, COMDAT

; 70   : 	{}

$LN3:
	movss	DWORD PTR [rsp+32], xmm3
	movss	DWORD PTR [rsp+24], xmm2
	movss	DWORD PTR [rsp+16], xmm1
	mov	QWORD PTR [rsp+8], rcx
	push	rdi

; 69   : 		: x(a), y(b), z(c)

	mov	rax, QWORD PTR this$[rsp]
	movss	xmm0, DWORD PTR a$[rsp]
	movss	DWORD PTR [rax], xmm0
	mov	rax, QWORD PTR this$[rsp]
	movss	xmm0, DWORD PTR b$[rsp]
	movss	DWORD PTR [rax+4], xmm0
	mov	rax, QWORD PTR this$[rsp]
	movss	xmm0, DWORD PTR c$[rsp]
	movss	DWORD PTR [rax+8], xmm0

; 70   : 	{}

	mov	rax, QWORD PTR this$[rsp]
	pop	rdi
	ret	0
??0?$tvec3@M$0A@@glm@@QEAA@MMM@Z ENDP			; glm::tvec3<float,0>::tvec3<float,0>
_TEXT	ENDS
; Function compile flags: /Odtp /RTCsu
; File C:\Users\ksart\OneDrive\Desktop\FlappyBird\libraries\external\glm\glm\detail\type_vec3.inl
;	COMDAT ??0?$tvec3@M$0A@@glm@@QEAA@XZ
_TEXT	SEGMENT
this$ = 16
??0?$tvec3@M$0A@@glm@@QEAA@XZ PROC			; glm::tvec3<float,0>::tvec3<float,0>, COMDAT

; 40   : 		{}

$LN3:
	mov	QWORD PTR [rsp+8], rcx
	push	rdi

; 38   : 				: x(0), y(0), z(0)

	mov	rax, QWORD PTR this$[rsp]
	xorps	xmm0, xmm0
	movss	DWORD PTR [rax], xmm0
	mov	rax, QWORD PTR this$[rsp]
	xorps	xmm0, xmm0
	movss	DWORD PTR [rax+4], xmm0
	mov	rax, QWORD PTR this$[rsp]
	xorps	xmm0, xmm0
	movss	DWORD PTR [rax+8], xmm0

; 40   : 		{}

	mov	rax, QWORD PTR this$[rsp]
	pop	rdi
	ret	0
??0?$tvec3@M$0A@@glm@@QEAA@XZ ENDP			; glm::tvec3<float,0>::tvec3<float,0>
_TEXT	ENDS
; Function compile flags: /Odtp /RTCsu
; File C:\Users\ksart\OneDrive\Desktop\FlappyBird\libraries\external\glm\glm\detail\type_vec3.inl
;	COMDAT ??A?$tvec3@M$0A@@glm@@QEBAAEBMH@Z
_TEXT	SEGMENT
this$ = 48
i$ = 56
??A?$tvec3@M$0A@@glm@@QEBAAEBMH@Z PROC			; glm::tvec3<float,0>::operator[], COMDAT

; 151  : 	{

$LN5:
	mov	DWORD PTR [rsp+16], edx
	mov	QWORD PTR [rsp+8], rcx
	push	rdi
	sub	rsp, 32					; 00000020H

; 152  : 		assert(i >= 0 && i < this->length());

	cmp	DWORD PTR i$[rsp], 0
	jl	SHORT $LN3@operator
	call	?length@?$tvec3@M$0A@@glm@@SAHXZ	; glm::tvec3<float,0>::length
	cmp	DWORD PTR i$[rsp], eax
	jl	SHORT $LN4@operator
$LN3@operator:
	mov	r8d, 152				; 00000098H
	lea	rdx, OFFSET FLAT:??_C@_1LG@MEJFBKPC@?$AAC?$AA?3?$AA?2?$AAU?$AAs?$AAe?$AAr?$AAs?$AA?2?$AAk?$AAs?$AAa?$AAr?$AAt?$AA?2@
	lea	rcx, OFFSET FLAT:??_C@_1DK@BGNCJAPL@?$AAi?$AA?5?$AA?$DO?$AA?$DN?$AA?5?$AA0?$AA?5?$AA?$CG?$AA?$CG?$AA?5?$AAi?$AA?5?$AA?$DM?$AA?5?$AAt@
	call	QWORD PTR __imp__wassert
	xor	eax, eax
$LN4@operator:

; 153  : 		return (&x)[i];

	movsxd	rax, DWORD PTR i$[rsp]
	mov	rcx, QWORD PTR this$[rsp]
	lea	rax, QWORD PTR [rcx+rax*4]

; 154  : 	}

	add	rsp, 32					; 00000020H
	pop	rdi
	ret	0
??A?$tvec3@M$0A@@glm@@QEBAAEBMH@Z ENDP			; glm::tvec3<float,0>::operator[]
_TEXT	ENDS
; Function compile flags: /Odtp /RTCsu
; File C:\Users\ksart\OneDrive\Desktop\FlappyBird\libraries\external\glm\glm\detail\type_vec3.hpp
;	COMDAT ?length@?$tvec3@M$0A@@glm@@SAHXZ
_TEXT	SEGMENT
?length@?$tvec3@M$0A@@glm@@SAHXZ PROC			; glm::tvec3<float,0>::length, COMDAT

; 82   : 		GLM_FUNC_DECL static length_type length(){return 3;}

$LN3:
	push	rdi
	mov	eax, 3
	pop	rdi
	ret	0
?length@?$tvec3@M$0A@@glm@@SAHXZ ENDP			; glm::tvec3<float,0>::length
_TEXT	ENDS
; Function compile flags: /Odtp /RTCsu
; File C:\Users\ksart\OneDrive\Desktop\FlappyBird\libraries\external\glm\test\gtx\gtx_range.cpp
_TEXT	SEGMENT
Error$ = 32
v$ = 56
count$ = 84
<range>$L0$4 = 88
<begin>$L0$5 = 96
<end>$L0$6 = 104
x$7 = 112
<range>$L1$8 = 120
<begin>$L1$9 = 128
<end>$L1$10 = 136
x$11 = 144
$T12 = 152
$T13 = 164
tv76 = 168
tv129 = 172
?testVec@@YAHXZ PROC					; testVec

; 9    : {

$LN13:
	push	rdi
	sub	rsp, 176				; 000000b0H
	lea	rdi, QWORD PTR [rsp+32]
	mov	ecx, 36					; 00000024H
	mov	eax, -858993460				; ccccccccH
	rep stosd

; 10   : 	int Error(0);

	mov	DWORD PTR Error$[rsp], 0

; 11   : 	glm::vec3 v(1, 2, 3);

	mov	r9d, 3
	mov	r8d, 2
	mov	edx, 1
	lea	rcx, QWORD PTR v$[rsp]
	call	??$?0HHH@?$tvec3@M$0A@@glm@@QEAA@HHH@Z	; glm::tvec3<float,0>::tvec3<float,0><int,int,int>

; 12   : 
; 13   : 	int count = 0;

	mov	DWORD PTR count$[rsp], 0

; 14   : 	for(float x : v){ count++; }

	lea	rax, QWORD PTR v$[rsp]
	mov	QWORD PTR <range>$L0$4[rsp], rax
	mov	rcx, QWORD PTR <range>$L0$4[rsp]
	call	??$begin@U?$tvec3@M$0A@@glm@@@glm@@YAPEAMAEAU?$tvec3@M$0A@@0@@Z ; glm::begin<glm::tvec3<float,0> >
	mov	QWORD PTR <begin>$L0$5[rsp], rax
	mov	rcx, QWORD PTR <range>$L0$4[rsp]
	call	??$end@U?$tvec3@M$0A@@glm@@@glm@@YAPEAMAEAU?$tvec3@M$0A@@0@@Z ; glm::end<glm::tvec3<float,0> >
	mov	QWORD PTR <end>$L0$6[rsp], rax
	jmp	SHORT $LN4@testVec
$LN2@testVec:
	mov	rax, QWORD PTR <begin>$L0$5[rsp]
	add	rax, 4
	mov	QWORD PTR <begin>$L0$5[rsp], rax
$LN4@testVec:
	mov	rax, QWORD PTR <end>$L0$6[rsp]
	cmp	QWORD PTR <begin>$L0$5[rsp], rax
	je	SHORT $LN3@testVec
	mov	rax, QWORD PTR <begin>$L0$5[rsp]
	movss	xmm0, DWORD PTR [rax]
	movss	DWORD PTR x$7[rsp], xmm0
	mov	eax, DWORD PTR count$[rsp]
	inc	eax
	mov	DWORD PTR count$[rsp], eax
	jmp	SHORT $LN2@testVec
$LN3@testVec:

; 15   : 	Error += count == 3 ? 0 : 1;

	cmp	DWORD PTR count$[rsp], 3
	jne	SHORT $LN9@testVec
	mov	DWORD PTR tv76[rsp], 0
	jmp	SHORT $LN10@testVec
$LN9@testVec:
	mov	DWORD PTR tv76[rsp], 1
$LN10@testVec:
	mov	eax, DWORD PTR tv76[rsp]
	mov	ecx, DWORD PTR Error$[rsp]
	add	ecx, eax
	mov	eax, ecx
	mov	DWORD PTR Error$[rsp], eax

; 16   : 
; 17   : 	for(float& x : v){ x = 0; }

	lea	rax, QWORD PTR v$[rsp]
	mov	QWORD PTR <range>$L1$8[rsp], rax
	mov	rcx, QWORD PTR <range>$L1$8[rsp]
	call	??$begin@U?$tvec3@M$0A@@glm@@@glm@@YAPEAMAEAU?$tvec3@M$0A@@0@@Z ; glm::begin<glm::tvec3<float,0> >
	mov	QWORD PTR <begin>$L1$9[rsp], rax
	mov	rcx, QWORD PTR <range>$L1$8[rsp]
	call	??$end@U?$tvec3@M$0A@@glm@@@glm@@YAPEAMAEAU?$tvec3@M$0A@@0@@Z ; glm::end<glm::tvec3<float,0> >
	mov	QWORD PTR <end>$L1$10[rsp], rax
	jmp	SHORT $LN7@testVec
$LN5@testVec:
	mov	rax, QWORD PTR <begin>$L1$9[rsp]
	add	rax, 4
	mov	QWORD PTR <begin>$L1$9[rsp], rax
$LN7@testVec:
	mov	rax, QWORD PTR <end>$L1$10[rsp]
	cmp	QWORD PTR <begin>$L1$9[rsp], rax
	je	SHORT $LN6@testVec
	mov	rax, QWORD PTR <begin>$L1$9[rsp]
	mov	QWORD PTR x$11[rsp], rax
	mov	rax, QWORD PTR x$11[rsp]
	xorps	xmm0, xmm0
	movss	DWORD PTR [rax], xmm0
	jmp	SHORT $LN5@testVec
$LN6@testVec:

; 18   : 	Error += glm::all(glm::equal(v, glm::vec3(0, 0, 0))) ? 0 : 1;

	xor	r9d, r9d
	xor	r8d, r8d
	xor	edx, edx
	lea	rcx, QWORD PTR $T12[rsp]
	call	??$?0HHH@?$tvec3@M$0A@@glm@@QEAA@HHH@Z	; glm::tvec3<float,0>::tvec3<float,0><int,int,int>
	mov	r8, rax
	lea	rdx, QWORD PTR v$[rsp]
	lea	rcx, QWORD PTR $T13[rsp]
	call	??$equal@M$0A@Utvec3@glm@@@glm@@YA?AU?$tvec3@_N$0A@@0@AEBU?$tvec3@M$0A@@0@0@Z ; glm::equal<float,0,glm::tvec3>
	mov	rcx, rax
	call	??$all@$0A@Utvec3@glm@@@glm@@YA_NAEBU?$tvec3@_N$0A@@0@@Z ; glm::all<0,glm::tvec3>
	movzx	eax, al
	test	eax, eax
	je	SHORT $LN11@testVec
	mov	DWORD PTR tv129[rsp], 0
	jmp	SHORT $LN12@testVec
$LN11@testVec:
	mov	DWORD PTR tv129[rsp], 1
$LN12@testVec:
	mov	eax, DWORD PTR tv129[rsp]
	mov	ecx, DWORD PTR Error$[rsp]
	add	ecx, eax
	mov	eax, ecx
	mov	DWORD PTR Error$[rsp], eax

; 19   : 	return Error;

	mov	eax, DWORD PTR Error$[rsp]

; 20   : }

	mov	edi, eax
	mov	rcx, rsp
	lea	rdx, OFFSET FLAT:?testVec@@YAHXZ$rtcFrameData
	call	_RTC_CheckStackVars
	mov	eax, edi
	add	rsp, 176				; 000000b0H
	pop	rdi
	ret	0
?testVec@@YAHXZ ENDP					; testVec
_TEXT	ENDS
; Function compile flags: /Odtp /RTCsu
;	COMDAT ??_H@YAXPEAX_K1P6APEAX0@Z@Z
_TEXT	SEGMENT
tv66 = 32
tv67 = 40
__t$ = 64
__s$ = 72
__n$ = 80
__f$ = 88
??_H@YAXPEAX_K1P6APEAX0@Z@Z PROC			; `vector constructor iterator', COMDAT
$LN7:
	mov	QWORD PTR [rsp+32], r9
	mov	QWORD PTR [rsp+24], r8
	mov	QWORD PTR [rsp+16], rdx
	mov	QWORD PTR [rsp+8], rcx
	push	rdi
	sub	rsp, 48					; 00000030H
$LN2@vector:
	mov	rax, QWORD PTR __n$[rsp]
	mov	QWORD PTR tv66[rsp], rax
	mov	rax, QWORD PTR __n$[rsp]
	dec	rax
	mov	QWORD PTR __n$[rsp], rax
	cmp	QWORD PTR tv66[rsp], 0
	jbe	SHORT $LN5@vector
	mov	DWORD PTR tv67[rsp], 1
	jmp	SHORT $LN6@vector
$LN5@vector:
	mov	DWORD PTR tv67[rsp], 0
$LN6@vector:
	cmp	DWORD PTR tv67[rsp], 0
	je	SHORT $LN3@vector
	mov	rcx, QWORD PTR __t$[rsp]
	call	QWORD PTR __f$[rsp]
	mov	rax, QWORD PTR __s$[rsp]
	mov	rcx, QWORD PTR __t$[rsp]
	add	rcx, rax
	mov	rax, rcx
	mov	QWORD PTR __t$[rsp], rax
	jmp	SHORT $LN2@vector
$LN3@vector:
	add	rsp, 48					; 00000030H
	pop	rdi
	ret	0
??_H@YAXPEAX_K1P6APEAX0@Z@Z ENDP			; `vector constructor iterator'
_TEXT	ENDS
END
