; Listing generated by Microsoft (R) Optimizing Compiler Version 19.32.31329.0 

include listing.inc

INCLUDELIB MSVCRTD

PUBLIC	?epsilon@?$numeric_limits@M@std@@SAMXZ		; std::numeric_limits<float>::epsilon
PUBLIC	?epsilon@?$numeric_limits@N@std@@SANXZ		; std::numeric_limits<double>::epsilon
PUBLIC	??$epsilonEqual@M@glm@@YA_NAEBM00@Z		; glm::epsilonEqual<float>
PUBLIC	??$abs@M@glm@@YAMM@Z				; glm::abs<float>
PUBLIC	??$epsilonEqual@N@glm@@YA_NAEBN00@Z		; glm::epsilonEqual<double>
PUBLIC	??$abs@N@glm@@YANN@Z				; glm::abs<double>
PUBLIC	?test_defined@@YAHXZ				; test_defined
PUBLIC	?length@?$tvec2@M$0A@@glm@@SAHXZ		; glm::tvec2<float,0>::length
PUBLIC	??A?$tvec2@M$0A@@glm@@QEBAAEBMH@Z		; glm::tvec2<float,0>::operator[]
PUBLIC	??0?$tvec2@M$0A@@glm@@QEAA@XZ			; glm::tvec2<float,0>::tvec2<float,0>
PUBLIC	??0?$tvec2@M$0A@@glm@@QEAA@M@Z			; glm::tvec2<float,0>::tvec2<float,0>
PUBLIC	??0?$tvec2@M$0A@@glm@@QEAA@MM@Z			; glm::tvec2<float,0>::tvec2<float,0>
PUBLIC	??$epsilonEqual@M$0A@Utvec2@glm@@@glm@@YA?AU?$tvec2@_N$0A@@0@AEBU?$tvec2@M$0A@@0@00@Z ; glm::epsilonEqual<float,0,glm::tvec2>
PUBLIC	?length@?$tvec2@_N$0A@@glm@@SAHXZ		; glm::tvec2<bool,0>::length
PUBLIC	??A?$tvec2@_N$0A@@glm@@QEAAAEA_NH@Z		; glm::tvec2<bool,0>::operator[]
PUBLIC	??0?$tvec2@_N$0A@@glm@@QEAA@W4ctor@1@@Z		; glm::tvec2<bool,0>::tvec2<bool,0>
PUBLIC	?length@?$tvec3@M$0A@@glm@@SAHXZ		; glm::tvec3<float,0>::length
PUBLIC	??A?$tvec3@M$0A@@glm@@QEBAAEBMH@Z		; glm::tvec3<float,0>::operator[]
PUBLIC	??0?$tvec3@M$0A@@glm@@QEAA@XZ			; glm::tvec3<float,0>::tvec3<float,0>
PUBLIC	??0?$tvec3@M$0A@@glm@@QEAA@M@Z			; glm::tvec3<float,0>::tvec3<float,0>
PUBLIC	??0?$tvec3@M$0A@@glm@@QEAA@MMM@Z		; glm::tvec3<float,0>::tvec3<float,0>
PUBLIC	??$epsilonEqual@M$0A@Utvec3@glm@@@glm@@YA?AU?$tvec3@_N$0A@@0@AEBU?$tvec3@M$0A@@0@00@Z ; glm::epsilonEqual<float,0,glm::tvec3>
PUBLIC	?length@?$tvec3@_N$0A@@glm@@SAHXZ		; glm::tvec3<bool,0>::length
PUBLIC	??A?$tvec3@_N$0A@@glm@@QEAAAEA_NH@Z		; glm::tvec3<bool,0>::operator[]
PUBLIC	??0?$tvec3@_N$0A@@glm@@QEAA@W4ctor@1@@Z		; glm::tvec3<bool,0>::tvec3<bool,0>
PUBLIC	?length@?$tvec4@M$0A@@glm@@SAHXZ		; glm::tvec4<float,0>::length
PUBLIC	??A?$tvec4@M$0A@@glm@@QEBAAEBMH@Z		; glm::tvec4<float,0>::operator[]
PUBLIC	??0?$tvec4@M$0A@@glm@@QEAA@XZ			; glm::tvec4<float,0>::tvec4<float,0>
PUBLIC	??0?$tvec4@M$0A@@glm@@QEAA@M@Z			; glm::tvec4<float,0>::tvec4<float,0>
PUBLIC	??0?$tvec4@M$0A@@glm@@QEAA@MMMM@Z		; glm::tvec4<float,0>::tvec4<float,0>
PUBLIC	??$epsilonEqual@M$0A@Utvec4@glm@@@glm@@YA?AU?$tvec4@_N$0A@@0@AEBU?$tvec4@M$0A@@0@00@Z ; glm::epsilonEqual<float,0,glm::tvec4>
PUBLIC	?length@?$tvec4@_N$0A@@glm@@SAHXZ		; glm::tvec4<bool,0>::length
PUBLIC	??A?$tvec4@_N$0A@@glm@@QEAAAEA_NH@Z		; glm::tvec4<bool,0>::operator[]
PUBLIC	??0?$tvec4@_N$0A@@glm@@QEAA@W4ctor@1@@Z		; glm::tvec4<bool,0>::tvec4<bool,0>
PUBLIC	??$epsilonNotEqual@M$0A@Utvec2@glm@@@glm@@YA?AU?$tvec2@_N$0A@@0@AEBU?$tvec2@M$0A@@0@00@Z ; glm::epsilonNotEqual<float,0,glm::tvec2>
PUBLIC	??$epsilonNotEqual@M$0A@Utvec3@glm@@@glm@@YA?AU?$tvec3@_N$0A@@0@AEBU?$tvec3@M$0A@@0@00@Z ; glm::epsilonNotEqual<float,0,glm::tvec3>
PUBLIC	??$epsilonNotEqual@M$0A@Utvec4@glm@@@glm@@YA?AU?$tvec4@_N$0A@@0@AEBU?$tvec4@M$0A@@0@00@Z ; glm::epsilonNotEqual<float,0,glm::tvec4>
PUBLIC	??$epsilonEqual@M$0A@Utvec2@glm@@@glm@@YA?AU?$tvec2@_N$0A@@0@AEBU?$tvec2@M$0A@@0@0AEBM@Z ; glm::epsilonEqual<float,0,glm::tvec2>
PUBLIC	??$epsilonEqual@M$0A@Utvec3@glm@@@glm@@YA?AU?$tvec3@_N$0A@@0@AEBU?$tvec3@M$0A@@0@0AEBM@Z ; glm::epsilonEqual<float,0,glm::tvec3>
PUBLIC	??$epsilonEqual@M$0A@Utvec4@glm@@@glm@@YA?AU?$tvec4@_N$0A@@0@AEBU?$tvec4@M$0A@@0@0AEBM@Z ; glm::epsilonEqual<float,0,glm::tvec4>
PUBLIC	??0?$tquat@M$0A@@glm@@QEAA@XZ			; glm::tquat<float,0>::tquat<float,0>
PUBLIC	??$epsilonEqual@M$0A@@glm@@YA?AU?$tvec4@_N$0A@@0@AEBU?$tquat@M$0A@@0@0AEBM@Z ; glm::epsilonEqual<float,0>
PUBLIC	??$epsilonNotEqual@M$0A@Utvec2@glm@@@glm@@YA?AU?$tvec2@_N$0A@@0@AEBU?$tvec2@M$0A@@0@0AEBM@Z ; glm::epsilonNotEqual<float,0,glm::tvec2>
PUBLIC	??$epsilonNotEqual@M$0A@Utvec3@glm@@@glm@@YA?AU?$tvec3@_N$0A@@0@AEBU?$tvec3@M$0A@@0@0AEBM@Z ; glm::epsilonNotEqual<float,0,glm::tvec3>
PUBLIC	??$epsilonNotEqual@M$0A@Utvec4@glm@@@glm@@YA?AU?$tvec4@_N$0A@@0@AEBU?$tvec4@M$0A@@0@0AEBM@Z ; glm::epsilonNotEqual<float,0,glm::tvec4>
PUBLIC	??$epsilonNotEqual@M$0A@@glm@@YA?AU?$tvec4@_N$0A@@0@AEBU?$tquat@M$0A@@0@0AEBM@Z ; glm::epsilonNotEqual<float,0>
PUBLIC	main
PUBLIC	??$test_equal@M@@YAHXZ				; test_equal<float>
PUBLIC	??$test_equal@N@@YAHXZ				; test_equal<double>
PUBLIC	?call@?$compute_abs@M$00@detail@glm@@SAMM@Z	; glm::detail::compute_abs<float,1>::call
PUBLIC	?call@?$compute_abs@N$00@detail@glm@@SANN@Z	; glm::detail::compute_abs<double,1>::call
PUBLIC	??$?GM$0A@@glm@@YA?AU?$tvec2@M$0A@@0@AEBU10@0@Z	; glm::operator-<float,0>
PUBLIC	??$abs@M$0A@Utvec2@glm@@@glm@@YA?AU?$tvec2@M$0A@@0@AEBU10@@Z ; glm::abs<float,0,glm::tvec2>
PUBLIC	??$lessThan@M$0A@Utvec2@glm@@@glm@@YA?AU?$tvec2@_N$0A@@0@AEBU?$tvec2@M$0A@@0@0@Z ; glm::lessThan<float,0,glm::tvec2>
PUBLIC	??$?GM$0A@@glm@@YA?AU?$tvec3@M$0A@@0@AEBU10@0@Z	; glm::operator-<float,0>
PUBLIC	??$abs@M$0A@Utvec3@glm@@@glm@@YA?AU?$tvec3@M$0A@@0@AEBU10@@Z ; glm::abs<float,0,glm::tvec3>
PUBLIC	??$lessThan@M$0A@Utvec3@glm@@@glm@@YA?AU?$tvec3@_N$0A@@0@AEBU?$tvec3@M$0A@@0@0@Z ; glm::lessThan<float,0,glm::tvec3>
PUBLIC	??$?GM$0A@@glm@@YA?AU?$tvec4@M$0A@@0@AEBU10@0@Z	; glm::operator-<float,0>
PUBLIC	??$abs@M$0A@Utvec4@glm@@@glm@@YA?AU?$tvec4@M$0A@@0@AEBU10@@Z ; glm::abs<float,0,glm::tvec4>
PUBLIC	??$lessThan@M$0A@Utvec4@glm@@@glm@@YA?AU?$tvec4@_N$0A@@0@AEBU?$tvec4@M$0A@@0@0@Z ; glm::lessThan<float,0,glm::tvec4>
PUBLIC	??$greaterThanEqual@M$0A@Utvec2@glm@@@glm@@YA?AU?$tvec2@_N$0A@@0@AEBU?$tvec2@M$0A@@0@0@Z ; glm::greaterThanEqual<float,0,glm::tvec2>
PUBLIC	??$greaterThanEqual@M$0A@Utvec3@glm@@@glm@@YA?AU?$tvec3@_N$0A@@0@AEBU?$tvec3@M$0A@@0@0@Z ; glm::greaterThanEqual<float,0,glm::tvec3>
PUBLIC	??$greaterThanEqual@M$0A@Utvec4@glm@@@glm@@YA?AU?$tvec4@_N$0A@@0@AEBU?$tvec4@M$0A@@0@0@Z ; glm::greaterThanEqual<float,0,glm::tvec4>
PUBLIC	??$epsilon@M@glm@@YAMXZ				; glm::epsilon<float>
PUBLIC	??$epsilon@N@glm@@YANXZ				; glm::epsilon<double>
PUBLIC	?call@?$compute_abs_vector@M$0A@Utvec2@glm@@$0A@@detail@glm@@SA?AU?$tvec2@M$0A@@3@AEBU43@@Z ; glm::detail::compute_abs_vector<float,0,glm::tvec2,0>::call
PUBLIC	?call@?$compute_abs_vector@M$0A@Utvec3@glm@@$0A@@detail@glm@@SA?AU?$tvec3@M$0A@@3@AEBU43@@Z ; glm::detail::compute_abs_vector<float,0,glm::tvec3,0>::call
PUBLIC	??$?ZM@?$tvec4@M$0A@@glm@@QEAAAEAU01@AEBU01@@Z	; glm::tvec4<float,0>::operator-=<float>
PUBLIC	?call@?$compute_abs_vector@M$0A@Utvec4@glm@@$0A@@detail@glm@@SA?AU?$tvec4@M$0A@@3@AEBU43@@Z ; glm::detail::compute_abs_vector<float,0,glm::tvec4,0>::call
PUBLIC	?call@?$functor1@MM$0A@Utvec4@glm@@@detail@glm@@SA?AU?$tvec4@M$0A@@3@P6AMM@ZAEBU43@@Z ; glm::detail::functor1<float,float,0,glm::tvec4>::call
PUBLIC	?call@?$functor1@MM$0A@Utvec3@glm@@@detail@glm@@SA?AU?$tvec3@M$0A@@3@P6AMM@ZAEBU43@@Z ; glm::detail::functor1<float,float,0,glm::tvec3>::call
PUBLIC	?call@?$functor1@MM$0A@Utvec2@glm@@@detail@glm@@SA?AU?$tvec2@M$0A@@3@P6AMM@ZAEBU43@@Z ; glm::detail::functor1<float,float,0,glm::tvec2>::call
PUBLIC	?call@?$compute_vec4_sub@M$0A@$0A@@detail@glm@@SA?AU?$tvec4@M$0A@@3@AEBU43@0@Z ; glm::detail::compute_vec4_sub<float,0,0>::call
PUBLIC	??_C@_1NA@OPABFNEN@?$AAC?$AA?3?$AA?2?$AAU?$AAs?$AAe?$AAr?$AAs?$AA?2?$AAk?$AAs?$AAa?$AAr?$AAt?$AA?2@ ; `string'
PUBLIC	??_C@_1DC@HHLCGOLC@?$AAx?$AA?4?$AAl?$AAe?$AAn?$AAg?$AAt?$AAh?$AA?$CI?$AA?$CJ?$AA?5?$AA?$DN?$AA?$DN?$AA?5?$AAy@ ; `string'
PUBLIC	??_C@_1LG@FPDAFGJN@?$AAC?$AA?3?$AA?2?$AAU?$AAs?$AAe?$AAr?$AAs?$AA?2?$AAk?$AAs?$AAa?$AAr?$AAt?$AA?2@ ; `string'
PUBLIC	??_C@_1DK@BGNCJAPL@?$AAi?$AA?5?$AA?$DO?$AA?$DN?$AA?5?$AA0?$AA?5?$AA?$CG?$AA?$CG?$AA?5?$AAi?$AA?5?$AA?$DM?$AA?5?$AAt@ ; `string'
PUBLIC	??_C@_1LG@MEJFBKPC@?$AAC?$AA?3?$AA?2?$AAU?$AAs?$AAe?$AAr?$AAs?$AA?2?$AAk?$AAs?$AAa?$AAr?$AAt?$AA?2@ ; `string'
PUBLIC	??_C@_1LG@LAANPDHN@?$AAC?$AA?3?$AA?2?$AAU?$AAs?$AAe?$AAr?$AAs?$AA?2?$AAk?$AAs?$AAa?$AAr?$AAt?$AA?2@ ; `string'
PUBLIC	__real@00000000
PUBLIC	__real@0000000000000000
PUBLIC	__real@34000000
PUBLIC	__real@3cb0000000000000
PUBLIC	__real@3f800000
PUBLIC	__real@40000000
PUBLIC	__real@4000000000000000
PUBLIC	__xmm@80000000000000008000000000000000
PUBLIC	__xmm@80000000800000008000000080000000
EXTRN	__imp__wassert:PROC
EXTRN	_RTC_CheckStackVars:PROC
EXTRN	_RTC_InitBase:PROC
EXTRN	_RTC_Shutdown:PROC
EXTRN	_fltused:DWORD
;	COMDAT pdata
pdata	SEGMENT
$pdata$?epsilon@?$numeric_limits@M@std@@SAMXZ DD imagerel $LN3
	DD	imagerel $LN3+20
	DD	imagerel $unwind$?epsilon@?$numeric_limits@M@std@@SAMXZ
pdata	ENDS
;	COMDAT pdata
pdata	SEGMENT
$pdata$?epsilon@?$numeric_limits@N@std@@SANXZ DD imagerel $LN3
	DD	imagerel $LN3+20
	DD	imagerel $unwind$?epsilon@?$numeric_limits@N@std@@SANXZ
pdata	ENDS
;	COMDAT pdata
pdata	SEGMENT
$pdata$??$epsilonEqual@M@glm@@YA_NAEBM00@Z DD imagerel $LN5
	DD	imagerel $LN5+86
	DD	imagerel $unwind$??$epsilonEqual@M@glm@@YA_NAEBM00@Z
pdata	ENDS
;	COMDAT pdata
pdata	SEGMENT
$pdata$??$abs@M@glm@@YAMM@Z DD imagerel $LN3
	DD	imagerel $LN3+28
	DD	imagerel $unwind$??$abs@M@glm@@YAMM@Z
pdata	ENDS
;	COMDAT pdata
pdata	SEGMENT
$pdata$??$epsilonEqual@N@glm@@YA_NAEBN00@Z DD imagerel $LN5
	DD	imagerel $LN5+87
	DD	imagerel $unwind$??$epsilonEqual@N@glm@@YA_NAEBN00@Z
pdata	ENDS
;	COMDAT pdata
pdata	SEGMENT
$pdata$??$abs@N@glm@@YANN@Z DD imagerel $LN3
	DD	imagerel $LN3+28
	DD	imagerel $unwind$??$abs@N@glm@@YANN@Z
pdata	ENDS
pdata	SEGMENT
$pdata$?test_defined@@YAHXZ DD imagerel $LN3
	DD	imagerel $LN3+1196
	DD	imagerel $unwind$?test_defined@@YAHXZ
pdata	ENDS
;	COMDAT pdata
pdata	SEGMENT
$pdata$?length@?$tvec2@M$0A@@glm@@SAHXZ DD imagerel $LN3
	DD	imagerel $LN3+9
	DD	imagerel $unwind$?length@?$tvec2@M$0A@@glm@@SAHXZ
pdata	ENDS
;	COMDAT pdata
pdata	SEGMENT
$pdata$??A?$tvec2@M$0A@@glm@@QEBAAEBMH@Z DD imagerel $LN5
	DD	imagerel $LN5+80
	DD	imagerel $unwind$??A?$tvec2@M$0A@@glm@@QEBAAEBMH@Z
pdata	ENDS
;	COMDAT pdata
pdata	SEGMENT
$pdata$??0?$tvec2@M$0A@@glm@@QEAA@XZ DD imagerel $LN3
	DD	imagerel $LN3+38
	DD	imagerel $unwind$??0?$tvec2@M$0A@@glm@@QEAA@XZ
pdata	ENDS
;	COMDAT pdata
pdata	SEGMENT
$pdata$??0?$tvec2@M$0A@@glm@@QEAA@M@Z DD imagerel $LN3
	DD	imagerel $LN3+50
	DD	imagerel $unwind$??0?$tvec2@M$0A@@glm@@QEAA@M@Z
pdata	ENDS
;	COMDAT pdata
pdata	SEGMENT
$pdata$??0?$tvec2@M$0A@@glm@@QEAA@MM@Z DD imagerel $LN3
	DD	imagerel $LN3+56
	DD	imagerel $unwind$??0?$tvec2@M$0A@@glm@@QEAA@MM@Z
pdata	ENDS
;	COMDAT pdata
pdata	SEGMENT
$pdata$??$epsilonEqual@M$0A@Utvec2@glm@@@glm@@YA?AU?$tvec2@_N$0A@@0@AEBU?$tvec2@M$0A@@0@00@Z DD imagerel $LN3
	DD	imagerel $LN3+100
	DD	imagerel $unwind$??$epsilonEqual@M$0A@Utvec2@glm@@@glm@@YA?AU?$tvec2@_N$0A@@0@AEBU?$tvec2@M$0A@@0@00@Z
pdata	ENDS
;	COMDAT pdata
pdata	SEGMENT
$pdata$?length@?$tvec2@_N$0A@@glm@@SAHXZ DD imagerel $LN3
	DD	imagerel $LN3+9
	DD	imagerel $unwind$?length@?$tvec2@_N$0A@@glm@@SAHXZ
pdata	ENDS
;	COMDAT pdata
pdata	SEGMENT
$pdata$??A?$tvec2@_N$0A@@glm@@QEAAAEA_NH@Z DD imagerel $LN5
	DD	imagerel $LN5+82
	DD	imagerel $unwind$??A?$tvec2@_N$0A@@glm@@QEAAAEA_NH@Z
pdata	ENDS
;	COMDAT pdata
pdata	SEGMENT
$pdata$??0?$tvec2@_N$0A@@glm@@QEAA@W4ctor@1@@Z DD imagerel $LN3
	DD	imagerel $LN3+17
	DD	imagerel $unwind$??0?$tvec2@_N$0A@@glm@@QEAA@W4ctor@1@@Z
pdata	ENDS
;	COMDAT pdata
pdata	SEGMENT
$pdata$?length@?$tvec3@M$0A@@glm@@SAHXZ DD imagerel $LN3
	DD	imagerel $LN3+9
	DD	imagerel $unwind$?length@?$tvec3@M$0A@@glm@@SAHXZ
pdata	ENDS
;	COMDAT pdata
pdata	SEGMENT
$pdata$??A?$tvec3@M$0A@@glm@@QEBAAEBMH@Z DD imagerel $LN5
	DD	imagerel $LN5+80
	DD	imagerel $unwind$??A?$tvec3@M$0A@@glm@@QEBAAEBMH@Z
pdata	ENDS
;	COMDAT pdata
pdata	SEGMENT
$pdata$??0?$tvec3@M$0A@@glm@@QEAA@XZ DD imagerel $LN3
	DD	imagerel $LN3+51
	DD	imagerel $unwind$??0?$tvec3@M$0A@@glm@@QEAA@XZ
pdata	ENDS
;	COMDAT pdata
pdata	SEGMENT
$pdata$??0?$tvec3@M$0A@@glm@@QEAA@M@Z DD imagerel $LN3
	DD	imagerel $LN3+66
	DD	imagerel $unwind$??0?$tvec3@M$0A@@glm@@QEAA@M@Z
pdata	ENDS
;	COMDAT pdata
pdata	SEGMENT
$pdata$??0?$tvec3@M$0A@@glm@@QEAA@MMM@Z DD imagerel $LN3
	DD	imagerel $LN3+78
	DD	imagerel $unwind$??0?$tvec3@M$0A@@glm@@QEAA@MMM@Z
pdata	ENDS
;	COMDAT pdata
pdata	SEGMENT
$pdata$??$epsilonEqual@M$0A@Utvec3@glm@@@glm@@YA?AU?$tvec3@_N$0A@@0@AEBU?$tvec3@M$0A@@0@00@Z DD imagerel $LN3
	DD	imagerel $LN3+115
	DD	imagerel $unwind$??$epsilonEqual@M$0A@Utvec3@glm@@@glm@@YA?AU?$tvec3@_N$0A@@0@AEBU?$tvec3@M$0A@@0@00@Z
pdata	ENDS
;	COMDAT pdata
pdata	SEGMENT
$pdata$?length@?$tvec3@_N$0A@@glm@@SAHXZ DD imagerel $LN3
	DD	imagerel $LN3+9
	DD	imagerel $unwind$?length@?$tvec3@_N$0A@@glm@@SAHXZ
pdata	ENDS
;	COMDAT pdata
pdata	SEGMENT
$pdata$??A?$tvec3@_N$0A@@glm@@QEAAAEA_NH@Z DD imagerel $LN5
	DD	imagerel $LN5+82
	DD	imagerel $unwind$??A?$tvec3@_N$0A@@glm@@QEAAAEA_NH@Z
pdata	ENDS
;	COMDAT pdata
pdata	SEGMENT
$pdata$??0?$tvec3@_N$0A@@glm@@QEAA@W4ctor@1@@Z DD imagerel $LN3
	DD	imagerel $LN3+17
	DD	imagerel $unwind$??0?$tvec3@_N$0A@@glm@@QEAA@W4ctor@1@@Z
pdata	ENDS
;	COMDAT pdata
pdata	SEGMENT
$pdata$?length@?$tvec4@M$0A@@glm@@SAHXZ DD imagerel $LN3
	DD	imagerel $LN3+9
	DD	imagerel $unwind$?length@?$tvec4@M$0A@@glm@@SAHXZ
pdata	ENDS
;	COMDAT pdata
pdata	SEGMENT
$pdata$??A?$tvec4@M$0A@@glm@@QEBAAEBMH@Z DD imagerel $LN5
	DD	imagerel $LN5+80
	DD	imagerel $unwind$??A?$tvec4@M$0A@@glm@@QEBAAEBMH@Z
pdata	ENDS
;	COMDAT pdata
pdata	SEGMENT
$pdata$??0?$tvec4@M$0A@@glm@@QEAA@XZ DD imagerel $LN3
	DD	imagerel $LN3+64
	DD	imagerel $unwind$??0?$tvec4@M$0A@@glm@@QEAA@XZ
pdata	ENDS
;	COMDAT pdata
pdata	SEGMENT
$pdata$??0?$tvec4@M$0A@@glm@@QEAA@M@Z DD imagerel $LN3
	DD	imagerel $LN3+82
	DD	imagerel $unwind$??0?$tvec4@M$0A@@glm@@QEAA@M@Z
pdata	ENDS
;	COMDAT pdata
pdata	SEGMENT
$pdata$??0?$tvec4@M$0A@@glm@@QEAA@MMMM@Z DD imagerel $LN3
	DD	imagerel $LN3+94
	DD	imagerel $unwind$??0?$tvec4@M$0A@@glm@@QEAA@MMMM@Z
pdata	ENDS
;	COMDAT pdata
pdata	SEGMENT
$pdata$??$epsilonEqual@M$0A@Utvec4@glm@@@glm@@YA?AU?$tvec4@_N$0A@@0@AEBU?$tvec4@M$0A@@0@00@Z DD imagerel $LN3
	DD	imagerel $LN3+115
	DD	imagerel $unwind$??$epsilonEqual@M$0A@Utvec4@glm@@@glm@@YA?AU?$tvec4@_N$0A@@0@AEBU?$tvec4@M$0A@@0@00@Z
pdata	ENDS
;	COMDAT pdata
pdata	SEGMENT
$pdata$?length@?$tvec4@_N$0A@@glm@@SAHXZ DD imagerel $LN3
	DD	imagerel $LN3+9
	DD	imagerel $unwind$?length@?$tvec4@_N$0A@@glm@@SAHXZ
pdata	ENDS
;	COMDAT pdata
pdata	SEGMENT
$pdata$??A?$tvec4@_N$0A@@glm@@QEAAAEA_NH@Z DD imagerel $LN5
	DD	imagerel $LN5+82
	DD	imagerel $unwind$??A?$tvec4@_N$0A@@glm@@QEAAAEA_NH@Z
pdata	ENDS
;	COMDAT pdata
pdata	SEGMENT
$pdata$??0?$tvec4@_N$0A@@glm@@QEAA@W4ctor@1@@Z DD imagerel $LN3
	DD	imagerel $LN3+17
	DD	imagerel $unwind$??0?$tvec4@_N$0A@@glm@@QEAA@W4ctor@1@@Z
pdata	ENDS
;	COMDAT pdata
pdata	SEGMENT
$pdata$??$epsilonNotEqual@M$0A@Utvec2@glm@@@glm@@YA?AU?$tvec2@_N$0A@@0@AEBU?$tvec2@M$0A@@0@00@Z DD imagerel $LN3
	DD	imagerel $LN3+100
	DD	imagerel $unwind$??$epsilonNotEqual@M$0A@Utvec2@glm@@@glm@@YA?AU?$tvec2@_N$0A@@0@AEBU?$tvec2@M$0A@@0@00@Z
pdata	ENDS
;	COMDAT pdata
pdata	SEGMENT
$pdata$??$epsilonNotEqual@M$0A@Utvec3@glm@@@glm@@YA?AU?$tvec3@_N$0A@@0@AEBU?$tvec3@M$0A@@0@00@Z DD imagerel $LN3
	DD	imagerel $LN3+115
	DD	imagerel $unwind$??$epsilonNotEqual@M$0A@Utvec3@glm@@@glm@@YA?AU?$tvec3@_N$0A@@0@AEBU?$tvec3@M$0A@@0@00@Z
pdata	ENDS
;	COMDAT pdata
pdata	SEGMENT
$pdata$??$epsilonNotEqual@M$0A@Utvec4@glm@@@glm@@YA?AU?$tvec4@_N$0A@@0@AEBU?$tvec4@M$0A@@0@00@Z DD imagerel $LN3
	DD	imagerel $LN3+115
	DD	imagerel $unwind$??$epsilonNotEqual@M$0A@Utvec4@glm@@@glm@@YA?AU?$tvec4@_N$0A@@0@AEBU?$tvec4@M$0A@@0@00@Z
pdata	ENDS
;	COMDAT pdata
pdata	SEGMENT
$pdata$??$epsilonEqual@M$0A@Utvec2@glm@@@glm@@YA?AU?$tvec2@_N$0A@@0@AEBU?$tvec2@M$0A@@0@0AEBM@Z DD imagerel $LN3
	DD	imagerel $LN3+114
	DD	imagerel $unwind$??$epsilonEqual@M$0A@Utvec2@glm@@@glm@@YA?AU?$tvec2@_N$0A@@0@AEBU?$tvec2@M$0A@@0@0AEBM@Z
pdata	ENDS
;	COMDAT pdata
pdata	SEGMENT
$pdata$??$epsilonEqual@M$0A@Utvec3@glm@@@glm@@YA?AU?$tvec3@_N$0A@@0@AEBU?$tvec3@M$0A@@0@0AEBM@Z DD imagerel $LN3
	DD	imagerel $LN3+114
	DD	imagerel $unwind$??$epsilonEqual@M$0A@Utvec3@glm@@@glm@@YA?AU?$tvec3@_N$0A@@0@AEBU?$tvec3@M$0A@@0@0AEBM@Z
pdata	ENDS
;	COMDAT pdata
pdata	SEGMENT
$pdata$??$epsilonEqual@M$0A@Utvec4@glm@@@glm@@YA?AU?$tvec4@_N$0A@@0@AEBU?$tvec4@M$0A@@0@0AEBM@Z DD imagerel $LN3
	DD	imagerel $LN3+120
	DD	imagerel $unwind$??$epsilonEqual@M$0A@Utvec4@glm@@@glm@@YA?AU?$tvec4@_N$0A@@0@AEBU?$tvec4@M$0A@@0@0AEBM@Z
pdata	ENDS
;	COMDAT pdata
pdata	SEGMENT
$pdata$??0?$tquat@M$0A@@glm@@QEAA@XZ DD imagerel $LN3
	DD	imagerel $LN3+69
	DD	imagerel $unwind$??0?$tquat@M$0A@@glm@@QEAA@XZ
pdata	ENDS
;	COMDAT pdata
pdata	SEGMENT
$pdata$??$epsilonEqual@M$0A@@glm@@YA?AU?$tvec4@_N$0A@@0@AEBU?$tquat@M$0A@@0@0AEBM@Z DD imagerel $LN3
	DD	imagerel $LN3+293
	DD	imagerel $unwind$??$epsilonEqual@M$0A@@glm@@YA?AU?$tvec4@_N$0A@@0@AEBU?$tquat@M$0A@@0@0AEBM@Z
pdata	ENDS
;	COMDAT pdata
pdata	SEGMENT
$pdata$??$epsilonNotEqual@M$0A@Utvec2@glm@@@glm@@YA?AU?$tvec2@_N$0A@@0@AEBU?$tvec2@M$0A@@0@0AEBM@Z DD imagerel $LN3
	DD	imagerel $LN3+114
	DD	imagerel $unwind$??$epsilonNotEqual@M$0A@Utvec2@glm@@@glm@@YA?AU?$tvec2@_N$0A@@0@AEBU?$tvec2@M$0A@@0@0AEBM@Z
pdata	ENDS
;	COMDAT pdata
pdata	SEGMENT
$pdata$??$epsilonNotEqual@M$0A@Utvec3@glm@@@glm@@YA?AU?$tvec3@_N$0A@@0@AEBU?$tvec3@M$0A@@0@0AEBM@Z DD imagerel $LN3
	DD	imagerel $LN3+114
	DD	imagerel $unwind$??$epsilonNotEqual@M$0A@Utvec3@glm@@@glm@@YA?AU?$tvec3@_N$0A@@0@AEBU?$tvec3@M$0A@@0@0AEBM@Z
pdata	ENDS
;	COMDAT pdata
pdata	SEGMENT
$pdata$??$epsilonNotEqual@M$0A@Utvec4@glm@@@glm@@YA?AU?$tvec4@_N$0A@@0@AEBU?$tvec4@M$0A@@0@0AEBM@Z DD imagerel $LN3
	DD	imagerel $LN3+120
	DD	imagerel $unwind$??$epsilonNotEqual@M$0A@Utvec4@glm@@@glm@@YA?AU?$tvec4@_N$0A@@0@AEBU?$tvec4@M$0A@@0@0AEBM@Z
pdata	ENDS
;	COMDAT pdata
pdata	SEGMENT
$pdata$??$epsilonNotEqual@M$0A@@glm@@YA?AU?$tvec4@_N$0A@@0@AEBU?$tquat@M$0A@@0@0AEBM@Z DD imagerel $LN3
	DD	imagerel $LN3+293
	DD	imagerel $unwind$??$epsilonNotEqual@M$0A@@glm@@YA?AU?$tvec4@_N$0A@@0@AEBU?$tquat@M$0A@@0@0AEBM@Z
pdata	ENDS
pdata	SEGMENT
$pdata$main DD	imagerel $LN3
	DD	imagerel $LN3+75
	DD	imagerel $unwind$main
pdata	ENDS
;	COMDAT pdata
pdata	SEGMENT
$pdata$??$test_equal@M@@YAHXZ DD imagerel $LN13
	DD	imagerel $LN13+725
	DD	imagerel $unwind$??$test_equal@M@@YAHXZ
pdata	ENDS
;	COMDAT pdata
pdata	SEGMENT
$pdata$??$test_equal@N@@YAHXZ DD imagerel $LN13
	DD	imagerel $LN13+725
	DD	imagerel $unwind$??$test_equal@N@@YAHXZ
pdata	ENDS
;	COMDAT pdata
pdata	SEGMENT
$pdata$?call@?$compute_abs@M$00@detail@glm@@SAMM@Z DD imagerel $LN5
	DD	imagerel $LN5+71
	DD	imagerel $unwind$?call@?$compute_abs@M$00@detail@glm@@SAMM@Z
pdata	ENDS
;	COMDAT pdata
pdata	SEGMENT
$pdata$?call@?$compute_abs@N$00@detail@glm@@SANN@Z DD imagerel $LN5
	DD	imagerel $LN5+72
	DD	imagerel $unwind$?call@?$compute_abs@N$00@detail@glm@@SANN@Z
pdata	ENDS
;	COMDAT pdata
pdata	SEGMENT
$pdata$??$?GM$0A@@glm@@YA?AU?$tvec2@M$0A@@0@AEBU10@0@Z DD imagerel $LN3
	DD	imagerel $LN3+82
	DD	imagerel $unwind$??$?GM$0A@@glm@@YA?AU?$tvec2@M$0A@@0@AEBU10@0@Z
pdata	ENDS
;	COMDAT pdata
pdata	SEGMENT
$pdata$??$abs@M$0A@Utvec2@glm@@@glm@@YA?AU?$tvec2@M$0A@@0@AEBU10@@Z DD imagerel $LN3
	DD	imagerel $LN3+41
	DD	imagerel $unwind$??$abs@M$0A@Utvec2@glm@@@glm@@YA?AU?$tvec2@M$0A@@0@AEBU10@@Z
pdata	ENDS
;	COMDAT pdata
pdata	SEGMENT
$pdata$??$lessThan@M$0A@Utvec2@glm@@@glm@@YA?AU?$tvec2@_N$0A@@0@AEBU?$tvec2@M$0A@@0@0@Z DD imagerel $LN9
	DD	imagerel $LN9+268
	DD	imagerel $unwind$??$lessThan@M$0A@Utvec2@glm@@@glm@@YA?AU?$tvec2@_N$0A@@0@AEBU?$tvec2@M$0A@@0@0@Z
pdata	ENDS
;	COMDAT pdata
pdata	SEGMENT
$pdata$??$?GM$0A@@glm@@YA?AU?$tvec3@M$0A@@0@AEBU10@0@Z DD imagerel $LN3
	DD	imagerel $LN3+120
	DD	imagerel $unwind$??$?GM$0A@@glm@@YA?AU?$tvec3@M$0A@@0@AEBU10@0@Z
pdata	ENDS
;	COMDAT pdata
pdata	SEGMENT
$pdata$??$abs@M$0A@Utvec3@glm@@@glm@@YA?AU?$tvec3@M$0A@@0@AEBU10@@Z DD imagerel $LN3
	DD	imagerel $LN3+41
	DD	imagerel $unwind$??$abs@M$0A@Utvec3@glm@@@glm@@YA?AU?$tvec3@M$0A@@0@AEBU10@@Z
pdata	ENDS
;	COMDAT pdata
pdata	SEGMENT
$pdata$??$lessThan@M$0A@Utvec3@glm@@@glm@@YA?AU?$tvec3@_N$0A@@0@AEBU?$tvec3@M$0A@@0@0@Z DD imagerel $LN9
	DD	imagerel $LN9+280
	DD	imagerel $unwind$??$lessThan@M$0A@Utvec3@glm@@@glm@@YA?AU?$tvec3@_N$0A@@0@AEBU?$tvec3@M$0A@@0@0@Z
pdata	ENDS
;	COMDAT pdata
pdata	SEGMENT
$pdata$??$?GM$0A@@glm@@YA?AU?$tvec4@M$0A@@0@AEBU10@0@Z DD imagerel $LN3
	DD	imagerel $LN3+83
	DD	imagerel $unwind$??$?GM$0A@@glm@@YA?AU?$tvec4@M$0A@@0@AEBU10@0@Z
pdata	ENDS
;	COMDAT pdata
pdata	SEGMENT
$pdata$??$abs@M$0A@Utvec4@glm@@@glm@@YA?AU?$tvec4@M$0A@@0@AEBU10@@Z DD imagerel $LN3
	DD	imagerel $LN3+41
	DD	imagerel $unwind$??$abs@M$0A@Utvec4@glm@@@glm@@YA?AU?$tvec4@M$0A@@0@AEBU10@@Z
pdata	ENDS
;	COMDAT pdata
pdata	SEGMENT
$pdata$??$lessThan@M$0A@Utvec4@glm@@@glm@@YA?AU?$tvec4@_N$0A@@0@AEBU?$tvec4@M$0A@@0@0@Z DD imagerel $LN9
	DD	imagerel $LN9+266
	DD	imagerel $unwind$??$lessThan@M$0A@Utvec4@glm@@@glm@@YA?AU?$tvec4@_N$0A@@0@AEBU?$tvec4@M$0A@@0@0@Z
pdata	ENDS
;	COMDAT pdata
pdata	SEGMENT
$pdata$??$greaterThanEqual@M$0A@Utvec2@glm@@@glm@@YA?AU?$tvec2@_N$0A@@0@AEBU?$tvec2@M$0A@@0@0@Z DD imagerel $LN9
	DD	imagerel $LN9+268
	DD	imagerel $unwind$??$greaterThanEqual@M$0A@Utvec2@glm@@@glm@@YA?AU?$tvec2@_N$0A@@0@AEBU?$tvec2@M$0A@@0@0@Z
pdata	ENDS
;	COMDAT pdata
pdata	SEGMENT
$pdata$??$greaterThanEqual@M$0A@Utvec3@glm@@@glm@@YA?AU?$tvec3@_N$0A@@0@AEBU?$tvec3@M$0A@@0@0@Z DD imagerel $LN9
	DD	imagerel $LN9+280
	DD	imagerel $unwind$??$greaterThanEqual@M$0A@Utvec3@glm@@@glm@@YA?AU?$tvec3@_N$0A@@0@AEBU?$tvec3@M$0A@@0@0@Z
pdata	ENDS
;	COMDAT pdata
pdata	SEGMENT
$pdata$??$greaterThanEqual@M$0A@Utvec4@glm@@@glm@@YA?AU?$tvec4@_N$0A@@0@AEBU?$tvec4@M$0A@@0@0@Z DD imagerel $LN9
	DD	imagerel $LN9+266
	DD	imagerel $unwind$??$greaterThanEqual@M$0A@Utvec4@glm@@@glm@@YA?AU?$tvec4@_N$0A@@0@AEBU?$tvec4@M$0A@@0@0@Z
pdata	ENDS
;	COMDAT pdata
pdata	SEGMENT
$pdata$??$epsilon@M@glm@@YAMXZ DD imagerel $LN3
	DD	imagerel $LN3+17
	DD	imagerel $unwind$??$epsilon@M@glm@@YAMXZ
pdata	ENDS
;	COMDAT pdata
pdata	SEGMENT
$pdata$??$epsilon@N@glm@@YANXZ DD imagerel $LN3
	DD	imagerel $LN3+17
	DD	imagerel $unwind$??$epsilon@N@glm@@YANXZ
pdata	ENDS
;	COMDAT pdata
pdata	SEGMENT
$pdata$?call@?$compute_abs_vector@M$0A@Utvec2@glm@@$0A@@detail@glm@@SA?AU?$tvec2@M$0A@@3@AEBU43@@Z DD imagerel $LN3
	DD	imagerel $LN3+48
	DD	imagerel $unwind$?call@?$compute_abs_vector@M$0A@Utvec2@glm@@$0A@@detail@glm@@SA?AU?$tvec2@M$0A@@3@AEBU43@@Z
pdata	ENDS
;	COMDAT pdata
pdata	SEGMENT
$pdata$?call@?$compute_abs_vector@M$0A@Utvec3@glm@@$0A@@detail@glm@@SA?AU?$tvec3@M$0A@@3@AEBU43@@Z DD imagerel $LN3
	DD	imagerel $LN3+48
	DD	imagerel $unwind$?call@?$compute_abs_vector@M$0A@Utvec3@glm@@$0A@@detail@glm@@SA?AU?$tvec3@M$0A@@3@AEBU43@@Z
pdata	ENDS
;	COMDAT pdata
pdata	SEGMENT
$pdata$??$?ZM@?$tvec4@M$0A@@glm@@QEAAAEAU01@AEBU01@@Z DD imagerel $LN3
	DD	imagerel $LN3+83
	DD	imagerel $unwind$??$?ZM@?$tvec4@M$0A@@glm@@QEAAAEAU01@AEBU01@@Z
pdata	ENDS
;	COMDAT pdata
pdata	SEGMENT
$pdata$?call@?$compute_abs_vector@M$0A@Utvec4@glm@@$0A@@detail@glm@@SA?AU?$tvec4@M$0A@@3@AEBU43@@Z DD imagerel $LN3
	DD	imagerel $LN3+48
	DD	imagerel $unwind$?call@?$compute_abs_vector@M$0A@Utvec4@glm@@$0A@@detail@glm@@SA?AU?$tvec4@M$0A@@3@AEBU43@@Z
pdata	ENDS
;	COMDAT pdata
pdata	SEGMENT
$pdata$?call@?$functor1@MM$0A@Utvec4@glm@@@detail@glm@@SA?AU?$tvec4@M$0A@@3@P6AMM@ZAEBU43@@Z DD imagerel $LN3
	DD	imagerel $LN3+147
	DD	imagerel $unwind$?call@?$functor1@MM$0A@Utvec4@glm@@@detail@glm@@SA?AU?$tvec4@M$0A@@3@P6AMM@ZAEBU43@@Z
pdata	ENDS
;	COMDAT pdata
pdata	SEGMENT
$pdata$?call@?$functor1@MM$0A@Utvec3@glm@@@detail@glm@@SA?AU?$tvec3@M$0A@@3@P6AMM@ZAEBU43@@Z DD imagerel $LN3
	DD	imagerel $LN3+115
	DD	imagerel $unwind$?call@?$functor1@MM$0A@Utvec3@glm@@@detail@glm@@SA?AU?$tvec3@M$0A@@3@P6AMM@ZAEBU43@@Z
pdata	ENDS
;	COMDAT pdata
pdata	SEGMENT
$pdata$?call@?$functor1@MM$0A@Utvec2@glm@@@detail@glm@@SA?AU?$tvec2@M$0A@@3@P6AMM@ZAEBU43@@Z DD imagerel $LN3
	DD	imagerel $LN3+86
	DD	imagerel $unwind$?call@?$functor1@MM$0A@Utvec2@glm@@@detail@glm@@SA?AU?$tvec2@M$0A@@3@P6AMM@ZAEBU43@@Z
pdata	ENDS
;	COMDAT pdata
pdata	SEGMENT
$pdata$?call@?$compute_vec4_sub@M$0A@$0A@@detail@glm@@SA?AU?$tvec4@M$0A@@3@AEBU43@0@Z DD imagerel $LN3
	DD	imagerel $LN3+143
	DD	imagerel $unwind$?call@?$compute_vec4_sub@M$0A@$0A@@detail@glm@@SA?AU?$tvec4@M$0A@@3@AEBU43@0@Z
pdata	ENDS
;	COMDAT __xmm@80000000800000008000000080000000
CONST	SEGMENT
__xmm@80000000800000008000000080000000 DB 00H, 00H, 00H, 080H, 00H, 00H, 00H
	DB	080H, 00H, 00H, 00H, 080H, 00H, 00H, 00H, 080H
CONST	ENDS
;	COMDAT __xmm@80000000000000008000000000000000
CONST	SEGMENT
__xmm@80000000000000008000000000000000 DB 00H, 00H, 00H, 00H, 00H, 00H, 00H
	DB	080H, 00H, 00H, 00H, 00H, 00H, 00H, 00H, 080H
CONST	ENDS
;	COMDAT __real@4000000000000000
CONST	SEGMENT
__real@4000000000000000 DQ 04000000000000000r	; 2
CONST	ENDS
;	COMDAT __real@40000000
CONST	SEGMENT
__real@40000000 DD 040000000r			; 2
CONST	ENDS
;	COMDAT __real@3f800000
CONST	SEGMENT
__real@3f800000 DD 03f800000r			; 1
CONST	ENDS
;	COMDAT __real@3cb0000000000000
CONST	SEGMENT
__real@3cb0000000000000 DQ 03cb0000000000000r	; 2.22045e-16
CONST	ENDS
;	COMDAT __real@34000000
CONST	SEGMENT
__real@34000000 DD 034000000r			; 1.19209e-07
CONST	ENDS
;	COMDAT __real@0000000000000000
CONST	SEGMENT
__real@0000000000000000 DQ 00000000000000000r	; 0
CONST	ENDS
;	COMDAT __real@00000000
CONST	SEGMENT
__real@00000000 DD 000000000r			; 0
CONST	ENDS
;	COMDAT rtc$TMZ
rtc$TMZ	SEGMENT
_RTC_Shutdown.rtc$TMZ DQ FLAT:_RTC_Shutdown
rtc$TMZ	ENDS
;	COMDAT rtc$IMZ
rtc$IMZ	SEGMENT
_RTC_InitBase.rtc$IMZ DQ FLAT:_RTC_InitBase
rtc$IMZ	ENDS
;	COMDAT ??_C@_1LG@LAANPDHN@?$AAC?$AA?3?$AA?2?$AAU?$AAs?$AAe?$AAr?$AAs?$AA?2?$AAk?$AAs?$AAa?$AAr?$AAt?$AA?2@
CONST	SEGMENT
??_C@_1LG@LAANPDHN@?$AAC?$AA?3?$AA?2?$AAU?$AAs?$AAe?$AAr?$AAs?$AA?2?$AAk?$AAs?$AAa?$AAr?$AAt?$AA?2@ DB 'C'
	DB	00H, ':', 00H, '\', 00H, 'U', 00H, 's', 00H, 'e', 00H, 'r', 00H
	DB	's', 00H, '\', 00H, 'k', 00H, 's', 00H, 'a', 00H, 'r', 00H, 't'
	DB	00H, '\', 00H, 'O', 00H, 'n', 00H, 'e', 00H, 'D', 00H, 'r', 00H
	DB	'i', 00H, 'v', 00H, 'e', 00H, '\', 00H, 'D', 00H, 'e', 00H, 's'
	DB	00H, 'k', 00H, 't', 00H, 'o', 00H, 'p', 00H, '\', 00H, 'F', 00H
	DB	'l', 00H, 'a', 00H, 'p', 00H, 'p', 00H, 'y', 00H, 'B', 00H, 'i'
	DB	00H, 'r', 00H, 'd', 00H, '\', 00H, 'l', 00H, 'i', 00H, 'b', 00H
	DB	'r', 00H, 'a', 00H, 'r', 00H, 'i', 00H, 'e', 00H, 's', 00H, '\'
	DB	00H, 'e', 00H, 'x', 00H, 't', 00H, 'e', 00H, 'r', 00H, 'n', 00H
	DB	'a', 00H, 'l', 00H, '\', 00H, 'g', 00H, 'l', 00H, 'm', 00H, '\'
	DB	00H, 'g', 00H, 'l', 00H, 'm', 00H, '\', 00H, 'd', 00H, 'e', 00H
	DB	't', 00H, 'a', 00H, 'i', 00H, 'l', 00H, '\', 00H, 't', 00H, 'y'
	DB	00H, 'p', 00H, 'e', 00H, '_', 00H, 'v', 00H, 'e', 00H, 'c', 00H
	DB	'4', 00H, '.', 00H, 'i', 00H, 'n', 00H, 'l', 00H, 00H, 00H ; `string'
CONST	ENDS
;	COMDAT ??_C@_1LG@MEJFBKPC@?$AAC?$AA?3?$AA?2?$AAU?$AAs?$AAe?$AAr?$AAs?$AA?2?$AAk?$AAs?$AAa?$AAr?$AAt?$AA?2@
CONST	SEGMENT
??_C@_1LG@MEJFBKPC@?$AAC?$AA?3?$AA?2?$AAU?$AAs?$AAe?$AAr?$AAs?$AA?2?$AAk?$AAs?$AAa?$AAr?$AAt?$AA?2@ DB 'C'
	DB	00H, ':', 00H, '\', 00H, 'U', 00H, 's', 00H, 'e', 00H, 'r', 00H
	DB	's', 00H, '\', 00H, 'k', 00H, 's', 00H, 'a', 00H, 'r', 00H, 't'
	DB	00H, '\', 00H, 'O', 00H, 'n', 00H, 'e', 00H, 'D', 00H, 'r', 00H
	DB	'i', 00H, 'v', 00H, 'e', 00H, '\', 00H, 'D', 00H, 'e', 00H, 's'
	DB	00H, 'k', 00H, 't', 00H, 'o', 00H, 'p', 00H, '\', 00H, 'F', 00H
	DB	'l', 00H, 'a', 00H, 'p', 00H, 'p', 00H, 'y', 00H, 'B', 00H, 'i'
	DB	00H, 'r', 00H, 'd', 00H, '\', 00H, 'l', 00H, 'i', 00H, 'b', 00H
	DB	'r', 00H, 'a', 00H, 'r', 00H, 'i', 00H, 'e', 00H, 's', 00H, '\'
	DB	00H, 'e', 00H, 'x', 00H, 't', 00H, 'e', 00H, 'r', 00H, 'n', 00H
	DB	'a', 00H, 'l', 00H, '\', 00H, 'g', 00H, 'l', 00H, 'm', 00H, '\'
	DB	00H, 'g', 00H, 'l', 00H, 'm', 00H, '\', 00H, 'd', 00H, 'e', 00H
	DB	't', 00H, 'a', 00H, 'i', 00H, 'l', 00H, '\', 00H, 't', 00H, 'y'
	DB	00H, 'p', 00H, 'e', 00H, '_', 00H, 'v', 00H, 'e', 00H, 'c', 00H
	DB	'3', 00H, '.', 00H, 'i', 00H, 'n', 00H, 'l', 00H, 00H, 00H ; `string'
CONST	ENDS
;	COMDAT ??_C@_1DK@BGNCJAPL@?$AAi?$AA?5?$AA?$DO?$AA?$DN?$AA?5?$AA0?$AA?5?$AA?$CG?$AA?$CG?$AA?5?$AAi?$AA?5?$AA?$DM?$AA?5?$AAt@
CONST	SEGMENT
??_C@_1DK@BGNCJAPL@?$AAi?$AA?5?$AA?$DO?$AA?$DN?$AA?5?$AA0?$AA?5?$AA?$CG?$AA?$CG?$AA?5?$AAi?$AA?5?$AA?$DM?$AA?5?$AAt@ DB 'i'
	DB	00H, ' ', 00H, '>', 00H, '=', 00H, ' ', 00H, '0', 00H, ' ', 00H
	DB	'&', 00H, '&', 00H, ' ', 00H, 'i', 00H, ' ', 00H, '<', 00H, ' '
	DB	00H, 't', 00H, 'h', 00H, 'i', 00H, 's', 00H, '-', 00H, '>', 00H
	DB	'l', 00H, 'e', 00H, 'n', 00H, 'g', 00H, 't', 00H, 'h', 00H, '('
	DB	00H, ')', 00H, 00H, 00H			; `string'
CONST	ENDS
;	COMDAT ??_C@_1LG@FPDAFGJN@?$AAC?$AA?3?$AA?2?$AAU?$AAs?$AAe?$AAr?$AAs?$AA?2?$AAk?$AAs?$AAa?$AAr?$AAt?$AA?2@
CONST	SEGMENT
??_C@_1LG@FPDAFGJN@?$AAC?$AA?3?$AA?2?$AAU?$AAs?$AAe?$AAr?$AAs?$AA?2?$AAk?$AAs?$AAa?$AAr?$AAt?$AA?2@ DB 'C'
	DB	00H, ':', 00H, '\', 00H, 'U', 00H, 's', 00H, 'e', 00H, 'r', 00H
	DB	's', 00H, '\', 00H, 'k', 00H, 's', 00H, 'a', 00H, 'r', 00H, 't'
	DB	00H, '\', 00H, 'O', 00H, 'n', 00H, 'e', 00H, 'D', 00H, 'r', 00H
	DB	'i', 00H, 'v', 00H, 'e', 00H, '\', 00H, 'D', 00H, 'e', 00H, 's'
	DB	00H, 'k', 00H, 't', 00H, 'o', 00H, 'p', 00H, '\', 00H, 'F', 00H
	DB	'l', 00H, 'a', 00H, 'p', 00H, 'p', 00H, 'y', 00H, 'B', 00H, 'i'
	DB	00H, 'r', 00H, 'd', 00H, '\', 00H, 'l', 00H, 'i', 00H, 'b', 00H
	DB	'r', 00H, 'a', 00H, 'r', 00H, 'i', 00H, 'e', 00H, 's', 00H, '\'
	DB	00H, 'e', 00H, 'x', 00H, 't', 00H, 'e', 00H, 'r', 00H, 'n', 00H
	DB	'a', 00H, 'l', 00H, '\', 00H, 'g', 00H, 'l', 00H, 'm', 00H, '\'
	DB	00H, 'g', 00H, 'l', 00H, 'm', 00H, '\', 00H, 'd', 00H, 'e', 00H
	DB	't', 00H, 'a', 00H, 'i', 00H, 'l', 00H, '\', 00H, 't', 00H, 'y'
	DB	00H, 'p', 00H, 'e', 00H, '_', 00H, 'v', 00H, 'e', 00H, 'c', 00H
	DB	'2', 00H, '.', 00H, 'i', 00H, 'n', 00H, 'l', 00H, 00H, 00H ; `string'
CONST	ENDS
;	COMDAT ??_C@_1DC@HHLCGOLC@?$AAx?$AA?4?$AAl?$AAe?$AAn?$AAg?$AAt?$AAh?$AA?$CI?$AA?$CJ?$AA?5?$AA?$DN?$AA?$DN?$AA?5?$AAy@
CONST	SEGMENT
??_C@_1DC@HHLCGOLC@?$AAx?$AA?4?$AAl?$AAe?$AAn?$AAg?$AAt?$AAh?$AA?$CI?$AA?$CJ?$AA?5?$AA?$DN?$AA?$DN?$AA?5?$AAy@ DB 'x'
	DB	00H, '.', 00H, 'l', 00H, 'e', 00H, 'n', 00H, 'g', 00H, 't', 00H
	DB	'h', 00H, '(', 00H, ')', 00H, ' ', 00H, '=', 00H, '=', 00H, ' '
	DB	00H, 'y', 00H, '.', 00H, 'l', 00H, 'e', 00H, 'n', 00H, 'g', 00H
	DB	't', 00H, 'h', 00H, '(', 00H, ')', 00H, 00H, 00H ; `string'
CONST	ENDS
;	COMDAT ??_C@_1NA@OPABFNEN@?$AAC?$AA?3?$AA?2?$AAU?$AAs?$AAe?$AAr?$AAs?$AA?2?$AAk?$AAs?$AAa?$AAr?$AAt?$AA?2@
CONST	SEGMENT
??_C@_1NA@OPABFNEN@?$AAC?$AA?3?$AA?2?$AAU?$AAs?$AAe?$AAr?$AAs?$AA?2?$AAk?$AAs?$AAa?$AAr?$AAt?$AA?2@ DB 'C'
	DB	00H, ':', 00H, '\', 00H, 'U', 00H, 's', 00H, 'e', 00H, 'r', 00H
	DB	's', 00H, '\', 00H, 'k', 00H, 's', 00H, 'a', 00H, 'r', 00H, 't'
	DB	00H, '\', 00H, 'O', 00H, 'n', 00H, 'e', 00H, 'D', 00H, 'r', 00H
	DB	'i', 00H, 'v', 00H, 'e', 00H, '\', 00H, 'D', 00H, 'e', 00H, 's'
	DB	00H, 'k', 00H, 't', 00H, 'o', 00H, 'p', 00H, '\', 00H, 'F', 00H
	DB	'l', 00H, 'a', 00H, 'p', 00H, 'p', 00H, 'y', 00H, 'B', 00H, 'i'
	DB	00H, 'r', 00H, 'd', 00H, '\', 00H, 'l', 00H, 'i', 00H, 'b', 00H
	DB	'r', 00H, 'a', 00H, 'r', 00H, 'i', 00H, 'e', 00H, 's', 00H, '\'
	DB	00H, 'e', 00H, 'x', 00H, 't', 00H, 'e', 00H, 'r', 00H, 'n', 00H
	DB	'a', 00H, 'l', 00H, '\', 00H, 'g', 00H, 'l', 00H, 'm', 00H, '\'
	DB	00H, 'g', 00H, 'l', 00H, 'm', 00H, '\', 00H, 'd', 00H, 'e', 00H
	DB	't', 00H, 'a', 00H, 'i', 00H, 'l', 00H, '\', 00H, 'f', 00H, 'u'
	DB	00H, 'n', 00H, 'c', 00H, '_', 00H, 'v', 00H, 'e', 00H, 'c', 00H
	DB	't', 00H, 'o', 00H, 'r', 00H, '_', 00H, 'r', 00H, 'e', 00H, 'l'
	DB	00H, 'a', 00H, 't', 00H, 'i', 00H, 'o', 00H, 'n', 00H, 'a', 00H
	DB	'l', 00H, '.', 00H, 'i', 00H, 'n', 00H, 'l', 00H, 00H, 00H ; `string'
CONST	ENDS
;	COMDAT xdata
xdata	SEGMENT
$unwind$?call@?$compute_vec4_sub@M$0A@$0A@@detail@glm@@SA?AU?$tvec4@M$0A@@3@AEBU43@0@Z DD 021401H
	DD	070107214H
xdata	ENDS
;	COMDAT xdata
xdata	SEGMENT
$unwind$?call@?$functor1@MM$0A@Utvec2@glm@@@detail@glm@@SA?AU?$tvec2@M$0A@@3@P6AMM@ZAEBU43@@Z DD 021401H
	DD	070105214H
xdata	ENDS
;	COMDAT xdata
xdata	SEGMENT
$unwind$?call@?$functor1@MM$0A@Utvec3@glm@@@detail@glm@@SA?AU?$tvec3@M$0A@@3@P6AMM@ZAEBU43@@Z DD 021401H
	DD	070105214H
xdata	ENDS
;	COMDAT xdata
xdata	SEGMENT
$unwind$?call@?$functor1@MM$0A@Utvec4@glm@@@detail@glm@@SA?AU?$tvec4@M$0A@@3@P6AMM@ZAEBU43@@Z DD 021401H
	DD	070107214H
xdata	ENDS
;	COMDAT xdata
xdata	SEGMENT
$unwind$?call@?$compute_abs_vector@M$0A@Utvec4@glm@@$0A@@detail@glm@@SA?AU?$tvec4@M$0A@@3@AEBU43@@Z DD 020f01H
	DD	0700b320fH
xdata	ENDS
;	COMDAT xdata
xdata	SEGMENT
$unwind$??$?ZM@?$tvec4@M$0A@@glm@@QEAAAEAU01@AEBU01@@Z DD 031001H
	DD	0700c8210H
	DD	0600bH
xdata	ENDS
;	COMDAT xdata
xdata	SEGMENT
$unwind$?call@?$compute_abs_vector@M$0A@Utvec3@glm@@$0A@@detail@glm@@SA?AU?$tvec3@M$0A@@3@AEBU43@@Z DD 020f01H
	DD	0700b320fH
xdata	ENDS
;	COMDAT xdata
xdata	SEGMENT
$unwind$?call@?$compute_abs_vector@M$0A@Utvec2@glm@@$0A@@detail@glm@@SA?AU?$tvec2@M$0A@@3@AEBU43@@Z DD 020f01H
	DD	0700b320fH
xdata	ENDS
;	COMDAT xdata
xdata	SEGMENT
$unwind$??$epsilon@N@glm@@YANXZ DD 020601H
	DD	070025206H
xdata	ENDS
;	COMDAT xdata
xdata	SEGMENT
$unwind$??$epsilon@M@glm@@YAMXZ DD 020601H
	DD	070025206H
xdata	ENDS
;	COMDAT xdata
xdata	SEGMENT
$unwind$??$greaterThanEqual@M$0A@Utvec4@glm@@@glm@@YA?AU?$tvec4@_N$0A@@0@AEBU?$tvec4@M$0A@@0@0@Z DD 022a01H
	DD	070109214H
xdata	ENDS
;	COMDAT CONST
CONST	SEGMENT
??$greaterThanEqual@M$0A@Utvec4@glm@@@glm@@YA?AU?$tvec4@_N$0A@@0@AEBU?$tvec4@M$0A@@0@0@Z$rtcName$0 DB 052H ; glm::greaterThanEqual<float,0,glm::tvec4>
	DB	065H
	DB	073H
	DB	075H
	DB	06cH
	DB	074H
	DB	00H
	ORG $+9
??$greaterThanEqual@M$0A@Utvec4@glm@@@glm@@YA?AU?$tvec4@_N$0A@@0@AEBU?$tvec4@M$0A@@0@0@Z$rtcVarDesc DD 024H ; glm::greaterThanEqual<float,0,glm::tvec4>
	DD	04H
	DQ	FLAT:??$greaterThanEqual@M$0A@Utvec4@glm@@@glm@@YA?AU?$tvec4@_N$0A@@0@AEBU?$tvec4@M$0A@@0@0@Z$rtcName$0
	ORG $+48
??$greaterThanEqual@M$0A@Utvec4@glm@@@glm@@YA?AU?$tvec4@_N$0A@@0@AEBU?$tvec4@M$0A@@0@0@Z$rtcFrameData DD 01H ; glm::greaterThanEqual<float,0,glm::tvec4>
	DD	00H
	DQ	FLAT:??$greaterThanEqual@M$0A@Utvec4@glm@@@glm@@YA?AU?$tvec4@_N$0A@@0@AEBU?$tvec4@M$0A@@0@0@Z$rtcVarDesc
CONST	ENDS
;	COMDAT xdata
xdata	SEGMENT
$unwind$??$greaterThanEqual@M$0A@Utvec3@glm@@@glm@@YA?AU?$tvec3@_N$0A@@0@AEBU?$tvec3@M$0A@@0@0@Z DD 032b01H
	DD	07011a215H
	DD	06010H
xdata	ENDS
;	COMDAT CONST
CONST	SEGMENT
??$greaterThanEqual@M$0A@Utvec3@glm@@@glm@@YA?AU?$tvec3@_N$0A@@0@AEBU?$tvec3@M$0A@@0@0@Z$rtcName$0 DB 052H ; glm::greaterThanEqual<float,0,glm::tvec3>
	DB	065H
	DB	073H
	DB	075H
	DB	06cH
	DB	074H
	DB	00H
	ORG $+9
??$greaterThanEqual@M$0A@Utvec3@glm@@@glm@@YA?AU?$tvec3@_N$0A@@0@AEBU?$tvec3@M$0A@@0@0@Z$rtcVarDesc DD 024H ; glm::greaterThanEqual<float,0,glm::tvec3>
	DD	03H
	DQ	FLAT:??$greaterThanEqual@M$0A@Utvec3@glm@@@glm@@YA?AU?$tvec3@_N$0A@@0@AEBU?$tvec3@M$0A@@0@0@Z$rtcName$0
	ORG $+48
??$greaterThanEqual@M$0A@Utvec3@glm@@@glm@@YA?AU?$tvec3@_N$0A@@0@AEBU?$tvec3@M$0A@@0@0@Z$rtcFrameData DD 01H ; glm::greaterThanEqual<float,0,glm::tvec3>
	DD	00H
	DQ	FLAT:??$greaterThanEqual@M$0A@Utvec3@glm@@@glm@@YA?AU?$tvec3@_N$0A@@0@AEBU?$tvec3@M$0A@@0@0@Z$rtcVarDesc
CONST	ENDS
;	COMDAT xdata
xdata	SEGMENT
$unwind$??$greaterThanEqual@M$0A@Utvec2@glm@@@glm@@YA?AU?$tvec2@_N$0A@@0@AEBU?$tvec2@M$0A@@0@0@Z DD 022a01H
	DD	070109214H
xdata	ENDS
;	COMDAT CONST
CONST	SEGMENT
??$greaterThanEqual@M$0A@Utvec2@glm@@@glm@@YA?AU?$tvec2@_N$0A@@0@AEBU?$tvec2@M$0A@@0@0@Z$rtcName$0 DB 052H ; glm::greaterThanEqual<float,0,glm::tvec2>
	DB	065H
	DB	073H
	DB	075H
	DB	06cH
	DB	074H
	DB	00H
	ORG $+9
??$greaterThanEqual@M$0A@Utvec2@glm@@@glm@@YA?AU?$tvec2@_N$0A@@0@AEBU?$tvec2@M$0A@@0@0@Z$rtcVarDesc DD 024H ; glm::greaterThanEqual<float,0,glm::tvec2>
	DD	02H
	DQ	FLAT:??$greaterThanEqual@M$0A@Utvec2@glm@@@glm@@YA?AU?$tvec2@_N$0A@@0@AEBU?$tvec2@M$0A@@0@0@Z$rtcName$0
	ORG $+48
??$greaterThanEqual@M$0A@Utvec2@glm@@@glm@@YA?AU?$tvec2@_N$0A@@0@AEBU?$tvec2@M$0A@@0@0@Z$rtcFrameData DD 01H ; glm::greaterThanEqual<float,0,glm::tvec2>
	DD	00H
	DQ	FLAT:??$greaterThanEqual@M$0A@Utvec2@glm@@@glm@@YA?AU?$tvec2@_N$0A@@0@AEBU?$tvec2@M$0A@@0@0@Z$rtcVarDesc
CONST	ENDS
;	COMDAT xdata
xdata	SEGMENT
$unwind$??$lessThan@M$0A@Utvec4@glm@@@glm@@YA?AU?$tvec4@_N$0A@@0@AEBU?$tvec4@M$0A@@0@0@Z DD 022a01H
	DD	070109214H
xdata	ENDS
;	COMDAT CONST
CONST	SEGMENT
??$lessThan@M$0A@Utvec4@glm@@@glm@@YA?AU?$tvec4@_N$0A@@0@AEBU?$tvec4@M$0A@@0@0@Z$rtcName$0 DB 052H ; glm::lessThan<float,0,glm::tvec4>
	DB	065H
	DB	073H
	DB	075H
	DB	06cH
	DB	074H
	DB	00H
	ORG $+9
??$lessThan@M$0A@Utvec4@glm@@@glm@@YA?AU?$tvec4@_N$0A@@0@AEBU?$tvec4@M$0A@@0@0@Z$rtcVarDesc DD 024H ; glm::lessThan<float,0,glm::tvec4>
	DD	04H
	DQ	FLAT:??$lessThan@M$0A@Utvec4@glm@@@glm@@YA?AU?$tvec4@_N$0A@@0@AEBU?$tvec4@M$0A@@0@0@Z$rtcName$0
	ORG $+48
??$lessThan@M$0A@Utvec4@glm@@@glm@@YA?AU?$tvec4@_N$0A@@0@AEBU?$tvec4@M$0A@@0@0@Z$rtcFrameData DD 01H ; glm::lessThan<float,0,glm::tvec4>
	DD	00H
	DQ	FLAT:??$lessThan@M$0A@Utvec4@glm@@@glm@@YA?AU?$tvec4@_N$0A@@0@AEBU?$tvec4@M$0A@@0@0@Z$rtcVarDesc
CONST	ENDS
;	COMDAT xdata
xdata	SEGMENT
$unwind$??$abs@M$0A@Utvec4@glm@@@glm@@YA?AU?$tvec4@M$0A@@0@AEBU10@@Z DD 020f01H
	DD	0700b320fH
xdata	ENDS
;	COMDAT xdata
xdata	SEGMENT
$unwind$??$?GM$0A@@glm@@YA?AU?$tvec4@M$0A@@0@AEBU10@0@Z DD 031501H
	DD	070116215H
	DD	06010H
xdata	ENDS
;	COMDAT xdata
xdata	SEGMENT
$unwind$??$lessThan@M$0A@Utvec3@glm@@@glm@@YA?AU?$tvec3@_N$0A@@0@AEBU?$tvec3@M$0A@@0@0@Z DD 032b01H
	DD	07011a215H
	DD	06010H
xdata	ENDS
;	COMDAT CONST
CONST	SEGMENT
??$lessThan@M$0A@Utvec3@glm@@@glm@@YA?AU?$tvec3@_N$0A@@0@AEBU?$tvec3@M$0A@@0@0@Z$rtcName$0 DB 052H ; glm::lessThan<float,0,glm::tvec3>
	DB	065H
	DB	073H
	DB	075H
	DB	06cH
	DB	074H
	DB	00H
	ORG $+9
??$lessThan@M$0A@Utvec3@glm@@@glm@@YA?AU?$tvec3@_N$0A@@0@AEBU?$tvec3@M$0A@@0@0@Z$rtcVarDesc DD 024H ; glm::lessThan<float,0,glm::tvec3>
	DD	03H
	DQ	FLAT:??$lessThan@M$0A@Utvec3@glm@@@glm@@YA?AU?$tvec3@_N$0A@@0@AEBU?$tvec3@M$0A@@0@0@Z$rtcName$0
	ORG $+48
??$lessThan@M$0A@Utvec3@glm@@@glm@@YA?AU?$tvec3@_N$0A@@0@AEBU?$tvec3@M$0A@@0@0@Z$rtcFrameData DD 01H ; glm::lessThan<float,0,glm::tvec3>
	DD	00H
	DQ	FLAT:??$lessThan@M$0A@Utvec3@glm@@@glm@@YA?AU?$tvec3@_N$0A@@0@AEBU?$tvec3@M$0A@@0@0@Z$rtcVarDesc
CONST	ENDS
;	COMDAT xdata
xdata	SEGMENT
$unwind$??$abs@M$0A@Utvec3@glm@@@glm@@YA?AU?$tvec3@M$0A@@0@AEBU10@@Z DD 020f01H
	DD	0700b320fH
xdata	ENDS
;	COMDAT xdata
xdata	SEGMENT
$unwind$??$?GM$0A@@glm@@YA?AU?$tvec3@M$0A@@0@AEBU10@0@Z DD 021401H
	DD	070105214H
xdata	ENDS
;	COMDAT xdata
xdata	SEGMENT
$unwind$??$lessThan@M$0A@Utvec2@glm@@@glm@@YA?AU?$tvec2@_N$0A@@0@AEBU?$tvec2@M$0A@@0@0@Z DD 022a01H
	DD	070109214H
xdata	ENDS
;	COMDAT CONST
CONST	SEGMENT
??$lessThan@M$0A@Utvec2@glm@@@glm@@YA?AU?$tvec2@_N$0A@@0@AEBU?$tvec2@M$0A@@0@0@Z$rtcName$0 DB 052H ; glm::lessThan<float,0,glm::tvec2>
	DB	065H
	DB	073H
	DB	075H
	DB	06cH
	DB	074H
	DB	00H
	ORG $+9
??$lessThan@M$0A@Utvec2@glm@@@glm@@YA?AU?$tvec2@_N$0A@@0@AEBU?$tvec2@M$0A@@0@0@Z$rtcVarDesc DD 024H ; glm::lessThan<float,0,glm::tvec2>
	DD	02H
	DQ	FLAT:??$lessThan@M$0A@Utvec2@glm@@@glm@@YA?AU?$tvec2@_N$0A@@0@AEBU?$tvec2@M$0A@@0@0@Z$rtcName$0
	ORG $+48
??$lessThan@M$0A@Utvec2@glm@@@glm@@YA?AU?$tvec2@_N$0A@@0@AEBU?$tvec2@M$0A@@0@0@Z$rtcFrameData DD 01H ; glm::lessThan<float,0,glm::tvec2>
	DD	00H
	DQ	FLAT:??$lessThan@M$0A@Utvec2@glm@@@glm@@YA?AU?$tvec2@_N$0A@@0@AEBU?$tvec2@M$0A@@0@0@Z$rtcVarDesc
CONST	ENDS
;	COMDAT xdata
xdata	SEGMENT
$unwind$??$abs@M$0A@Utvec2@glm@@@glm@@YA?AU?$tvec2@M$0A@@0@AEBU10@@Z DD 020f01H
	DD	0700b320fH
xdata	ENDS
;	COMDAT xdata
xdata	SEGMENT
$unwind$??$?GM$0A@@glm@@YA?AU?$tvec2@M$0A@@0@AEBU10@0@Z DD 021401H
	DD	070103214H
xdata	ENDS
;	COMDAT xdata
xdata	SEGMENT
$unwind$?call@?$compute_abs@N$00@detail@glm@@SANN@Z DD 020b01H
	DD	07007320bH
xdata	ENDS
;	COMDAT xdata
xdata	SEGMENT
$unwind$?call@?$compute_abs@M$00@detail@glm@@SAMM@Z DD 020b01H
	DD	07007320bH
xdata	ENDS
;	COMDAT xdata
xdata	SEGMENT
$unwind$??$test_equal@N@@YAHXZ DD 031a01H
	DD	0360109H
	DD	07002H
xdata	ENDS
;	COMDAT CONST
CONST	SEGMENT
??$test_equal@N@@YAHXZ$rtcName$0 DB 041H		; test_equal<double>
	DB	00H
	ORG $+2
??$test_equal@N@@YAHXZ$rtcName$1 DB 042H		; test_equal<double>
	DB	00H
	ORG $+2
??$test_equal@N@@YAHXZ$rtcName$2 DB 041H		; test_equal<double>
	DB	00H
	ORG $+2
??$test_equal@N@@YAHXZ$rtcName$3 DB 042H		; test_equal<double>
	DB	00H
	ORG $+2
??$test_equal@N@@YAHXZ$rtcName$4 DB 041H		; test_equal<double>
	DB	00H
	ORG $+2
??$test_equal@N@@YAHXZ$rtcName$5 DB 042H		; test_equal<double>
	DB	00H
	ORG $+2
??$test_equal@N@@YAHXZ$rtcName$6 DB 041H		; test_equal<double>
	DB	00H
	ORG $+2
??$test_equal@N@@YAHXZ$rtcName$7 DB 042H		; test_equal<double>
	DB	00H
	ORG $+2
??$test_equal@N@@YAHXZ$rtcName$8 DB 041H		; test_equal<double>
	DB	00H
	ORG $+2
??$test_equal@N@@YAHXZ$rtcName$9 DB 042H		; test_equal<double>
	DB	00H
	ORG $+2
??$test_equal@N@@YAHXZ$rtcFrameData DD 0aH		; test_equal<double>
	DD	00H
	DQ	FLAT:??$test_equal@N@@YAHXZ$rtcVarDesc
	ORG $+8
??$test_equal@N@@YAHXZ$rtcVarDesc DD 0158H		; test_equal<double>
	DD	08H
	DQ	FLAT:??$test_equal@N@@YAHXZ$rtcName$9
	DD	0138H
	DD	08H
	DQ	FLAT:??$test_equal@N@@YAHXZ$rtcName$8
	DD	0118H
	DD	08H
	DQ	FLAT:??$test_equal@N@@YAHXZ$rtcName$7
	DD	0f8H
	DD	08H
	DQ	FLAT:??$test_equal@N@@YAHXZ$rtcName$6
	DD	0d8H
	DD	08H
	DQ	FLAT:??$test_equal@N@@YAHXZ$rtcName$5
	DD	0b8H
	DD	08H
	DQ	FLAT:??$test_equal@N@@YAHXZ$rtcName$4
	DD	098H
	DD	08H
	DQ	FLAT:??$test_equal@N@@YAHXZ$rtcName$3
	DD	078H
	DD	08H
	DQ	FLAT:??$test_equal@N@@YAHXZ$rtcName$2
	DD	058H
	DD	08H
	DQ	FLAT:??$test_equal@N@@YAHXZ$rtcName$1
	DD	038H
	DD	08H
	DQ	FLAT:??$test_equal@N@@YAHXZ$rtcName$0
CONST	ENDS
;	COMDAT xdata
xdata	SEGMENT
$unwind$??$test_equal@M@@YAHXZ DD 031a01H
	DD	0320109H
	DD	07002H
xdata	ENDS
;	COMDAT CONST
CONST	SEGMENT
??$test_equal@M@@YAHXZ$rtcName$0 DB 041H		; test_equal<float>
	DB	00H
	ORG $+2
??$test_equal@M@@YAHXZ$rtcName$1 DB 042H		; test_equal<float>
	DB	00H
	ORG $+2
??$test_equal@M@@YAHXZ$rtcName$2 DB 041H		; test_equal<float>
	DB	00H
	ORG $+2
??$test_equal@M@@YAHXZ$rtcName$3 DB 042H		; test_equal<float>
	DB	00H
	ORG $+2
??$test_equal@M@@YAHXZ$rtcName$4 DB 041H		; test_equal<float>
	DB	00H
	ORG $+2
??$test_equal@M@@YAHXZ$rtcName$5 DB 042H		; test_equal<float>
	DB	00H
	ORG $+2
??$test_equal@M@@YAHXZ$rtcName$6 DB 041H		; test_equal<float>
	DB	00H
	ORG $+2
??$test_equal@M@@YAHXZ$rtcName$7 DB 042H		; test_equal<float>
	DB	00H
	ORG $+2
??$test_equal@M@@YAHXZ$rtcName$8 DB 041H		; test_equal<float>
	DB	00H
	ORG $+2
??$test_equal@M@@YAHXZ$rtcName$9 DB 042H		; test_equal<float>
	DB	00H
	ORG $+2
??$test_equal@M@@YAHXZ$rtcFrameData DD 0aH		; test_equal<float>
	DD	00H
	DQ	FLAT:??$test_equal@M@@YAHXZ$rtcVarDesc
	ORG $+8
??$test_equal@M@@YAHXZ$rtcVarDesc DD 0154H		; test_equal<float>
	DD	04H
	DQ	FLAT:??$test_equal@M@@YAHXZ$rtcName$9
	DD	0134H
	DD	04H
	DQ	FLAT:??$test_equal@M@@YAHXZ$rtcName$8
	DD	0114H
	DD	04H
	DQ	FLAT:??$test_equal@M@@YAHXZ$rtcName$7
	DD	0f4H
	DD	04H
	DQ	FLAT:??$test_equal@M@@YAHXZ$rtcName$6
	DD	0d4H
	DD	04H
	DQ	FLAT:??$test_equal@M@@YAHXZ$rtcName$5
	DD	0b4H
	DD	04H
	DQ	FLAT:??$test_equal@M@@YAHXZ$rtcName$4
	DD	094H
	DD	04H
	DQ	FLAT:??$test_equal@M@@YAHXZ$rtcName$3
	DD	074H
	DD	04H
	DQ	FLAT:??$test_equal@M@@YAHXZ$rtcName$2
	DD	054H
	DD	04H
	DQ	FLAT:??$test_equal@M@@YAHXZ$rtcName$1
	DD	034H
	DD	04H
	DQ	FLAT:??$test_equal@M@@YAHXZ$rtcName$0
CONST	ENDS
;	COMDAT xdata
xdata	SEGMENT
$unwind$??$epsilonNotEqual@M$0A@@glm@@YA?AU?$tvec4@_N$0A@@0@AEBU?$tquat@M$0A@@0@0AEBM@Z DD 023501H
	DD	07015f21cH
xdata	ENDS
;	COMDAT CONST
CONST	SEGMENT
??$epsilonNotEqual@M$0A@@glm@@YA?AU?$tvec4@_N$0A@@0@AEBU?$tquat@M$0A@@0@0AEBM@Z$rtcName$0 DB 076H ; glm::epsilonNotEqual<float,0>
	DB	00H
	ORG $+14
??$epsilonNotEqual@M$0A@@glm@@YA?AU?$tvec4@_N$0A@@0@AEBU?$tquat@M$0A@@0@0AEBM@Z$rtcVarDesc DD 038H ; glm::epsilonNotEqual<float,0>
	DD	010H
	DQ	FLAT:??$epsilonNotEqual@M$0A@@glm@@YA?AU?$tvec4@_N$0A@@0@AEBU?$tquat@M$0A@@0@0AEBM@Z$rtcName$0
	ORG $+48
??$epsilonNotEqual@M$0A@@glm@@YA?AU?$tvec4@_N$0A@@0@AEBU?$tquat@M$0A@@0@0AEBM@Z$rtcFrameData DD 01H ; glm::epsilonNotEqual<float,0>
	DD	00H
	DQ	FLAT:??$epsilonNotEqual@M$0A@@glm@@YA?AU?$tvec4@_N$0A@@0@AEBU?$tquat@M$0A@@0@0AEBM@Z$rtcVarDesc
CONST	ENDS
;	COMDAT xdata
xdata	SEGMENT
$unwind$??$epsilonNotEqual@M$0A@Utvec4@glm@@@glm@@YA?AU?$tvec4@_N$0A@@0@AEBU?$tvec4@M$0A@@0@0AEBM@Z DD 021901H
	DD	07015b219H
xdata	ENDS
;	COMDAT xdata
xdata	SEGMENT
$unwind$??$epsilonNotEqual@M$0A@Utvec3@glm@@@glm@@YA?AU?$tvec3@_N$0A@@0@AEBU?$tvec3@M$0A@@0@0AEBM@Z DD 021901H
	DD	070159219H
xdata	ENDS
;	COMDAT xdata
xdata	SEGMENT
$unwind$??$epsilonNotEqual@M$0A@Utvec2@glm@@@glm@@YA?AU?$tvec2@_N$0A@@0@AEBU?$tvec2@M$0A@@0@0AEBM@Z DD 021901H
	DD	070157219H
xdata	ENDS
;	COMDAT xdata
xdata	SEGMENT
$unwind$??$epsilonEqual@M$0A@@glm@@YA?AU?$tvec4@_N$0A@@0@AEBU?$tquat@M$0A@@0@0AEBM@Z DD 023501H
	DD	07015f21cH
xdata	ENDS
;	COMDAT CONST
CONST	SEGMENT
??$epsilonEqual@M$0A@@glm@@YA?AU?$tvec4@_N$0A@@0@AEBU?$tquat@M$0A@@0@0AEBM@Z$rtcName$0 DB 076H ; glm::epsilonEqual<float,0>
	DB	00H
	ORG $+14
??$epsilonEqual@M$0A@@glm@@YA?AU?$tvec4@_N$0A@@0@AEBU?$tquat@M$0A@@0@0AEBM@Z$rtcVarDesc DD 038H ; glm::epsilonEqual<float,0>
	DD	010H
	DQ	FLAT:??$epsilonEqual@M$0A@@glm@@YA?AU?$tvec4@_N$0A@@0@AEBU?$tquat@M$0A@@0@0AEBM@Z$rtcName$0
	ORG $+48
??$epsilonEqual@M$0A@@glm@@YA?AU?$tvec4@_N$0A@@0@AEBU?$tquat@M$0A@@0@0AEBM@Z$rtcFrameData DD 01H ; glm::epsilonEqual<float,0>
	DD	00H
	DQ	FLAT:??$epsilonEqual@M$0A@@glm@@YA?AU?$tvec4@_N$0A@@0@AEBU?$tquat@M$0A@@0@0AEBM@Z$rtcVarDesc
CONST	ENDS
;	COMDAT xdata
xdata	SEGMENT
$unwind$??0?$tquat@M$0A@@glm@@QEAA@XZ DD 010601H
	DD	07006H
xdata	ENDS
;	COMDAT xdata
xdata	SEGMENT
$unwind$??$epsilonEqual@M$0A@Utvec4@glm@@@glm@@YA?AU?$tvec4@_N$0A@@0@AEBU?$tvec4@M$0A@@0@0AEBM@Z DD 021901H
	DD	07015b219H
xdata	ENDS
;	COMDAT xdata
xdata	SEGMENT
$unwind$??$epsilonEqual@M$0A@Utvec3@glm@@@glm@@YA?AU?$tvec3@_N$0A@@0@AEBU?$tvec3@M$0A@@0@0AEBM@Z DD 021901H
	DD	070159219H
xdata	ENDS
;	COMDAT xdata
xdata	SEGMENT
$unwind$??$epsilonEqual@M$0A@Utvec2@glm@@@glm@@YA?AU?$tvec2@_N$0A@@0@AEBU?$tvec2@M$0A@@0@0AEBM@Z DD 021901H
	DD	070157219H
xdata	ENDS
;	COMDAT xdata
xdata	SEGMENT
$unwind$??$epsilonNotEqual@M$0A@Utvec4@glm@@@glm@@YA?AU?$tvec4@_N$0A@@0@AEBU?$tvec4@M$0A@@0@00@Z DD 031a01H
	DD	07016a21aH
	DD	06015H
xdata	ENDS
;	COMDAT xdata
xdata	SEGMENT
$unwind$??$epsilonNotEqual@M$0A@Utvec3@glm@@@glm@@YA?AU?$tvec3@_N$0A@@0@AEBU?$tvec3@M$0A@@0@00@Z DD 031a01H
	DD	07016a21aH
	DD	06015H
xdata	ENDS
;	COMDAT xdata
xdata	SEGMENT
$unwind$??$epsilonNotEqual@M$0A@Utvec2@glm@@@glm@@YA?AU?$tvec2@_N$0A@@0@AEBU?$tvec2@M$0A@@0@00@Z DD 021901H
	DD	070157219H
xdata	ENDS
;	COMDAT xdata
xdata	SEGMENT
$unwind$??0?$tvec4@_N$0A@@glm@@QEAA@W4ctor@1@@Z DD 010a01H
	DD	0700aH
xdata	ENDS
;	COMDAT xdata
xdata	SEGMENT
$unwind$??A?$tvec4@_N$0A@@glm@@QEAAAEA_NH@Z DD 020e01H
	DD	0700a320eH
xdata	ENDS
;	COMDAT xdata
xdata	SEGMENT
$unwind$?length@?$tvec4@_N$0A@@glm@@SAHXZ DD 010201H
	DD	07002H
xdata	ENDS
;	COMDAT xdata
xdata	SEGMENT
$unwind$??$epsilonEqual@M$0A@Utvec4@glm@@@glm@@YA?AU?$tvec4@_N$0A@@0@AEBU?$tvec4@M$0A@@0@00@Z DD 031a01H
	DD	07016a21aH
	DD	06015H
xdata	ENDS
;	COMDAT xdata
xdata	SEGMENT
$unwind$??0?$tvec4@M$0A@@glm@@QEAA@MMMM@Z DD 011801H
	DD	07018H
xdata	ENDS
;	COMDAT xdata
xdata	SEGMENT
$unwind$??0?$tvec4@M$0A@@glm@@QEAA@M@Z DD 010c01H
	DD	0700cH
xdata	ENDS
;	COMDAT xdata
xdata	SEGMENT
$unwind$??0?$tvec4@M$0A@@glm@@QEAA@XZ DD 010601H
	DD	07006H
xdata	ENDS
;	COMDAT xdata
xdata	SEGMENT
$unwind$??A?$tvec4@M$0A@@glm@@QEBAAEBMH@Z DD 020e01H
	DD	0700a320eH
xdata	ENDS
;	COMDAT xdata
xdata	SEGMENT
$unwind$?length@?$tvec4@M$0A@@glm@@SAHXZ DD 010201H
	DD	07002H
xdata	ENDS
;	COMDAT xdata
xdata	SEGMENT
$unwind$??0?$tvec3@_N$0A@@glm@@QEAA@W4ctor@1@@Z DD 010a01H
	DD	0700aH
xdata	ENDS
;	COMDAT xdata
xdata	SEGMENT
$unwind$??A?$tvec3@_N$0A@@glm@@QEAAAEA_NH@Z DD 020e01H
	DD	0700a320eH
xdata	ENDS
;	COMDAT xdata
xdata	SEGMENT
$unwind$?length@?$tvec3@_N$0A@@glm@@SAHXZ DD 010201H
	DD	07002H
xdata	ENDS
;	COMDAT xdata
xdata	SEGMENT
$unwind$??$epsilonEqual@M$0A@Utvec3@glm@@@glm@@YA?AU?$tvec3@_N$0A@@0@AEBU?$tvec3@M$0A@@0@00@Z DD 031a01H
	DD	07016a21aH
	DD	06015H
xdata	ENDS
;	COMDAT xdata
xdata	SEGMENT
$unwind$??0?$tvec3@M$0A@@glm@@QEAA@MMM@Z DD 011801H
	DD	07018H
xdata	ENDS
;	COMDAT xdata
xdata	SEGMENT
$unwind$??0?$tvec3@M$0A@@glm@@QEAA@M@Z DD 010c01H
	DD	0700cH
xdata	ENDS
;	COMDAT xdata
xdata	SEGMENT
$unwind$??0?$tvec3@M$0A@@glm@@QEAA@XZ DD 010601H
	DD	07006H
xdata	ENDS
;	COMDAT xdata
xdata	SEGMENT
$unwind$??A?$tvec3@M$0A@@glm@@QEBAAEBMH@Z DD 020e01H
	DD	0700a320eH
xdata	ENDS
;	COMDAT xdata
xdata	SEGMENT
$unwind$?length@?$tvec3@M$0A@@glm@@SAHXZ DD 010201H
	DD	07002H
xdata	ENDS
;	COMDAT xdata
xdata	SEGMENT
$unwind$??0?$tvec2@_N$0A@@glm@@QEAA@W4ctor@1@@Z DD 010a01H
	DD	0700aH
xdata	ENDS
;	COMDAT xdata
xdata	SEGMENT
$unwind$??A?$tvec2@_N$0A@@glm@@QEAAAEA_NH@Z DD 020e01H
	DD	0700a320eH
xdata	ENDS
;	COMDAT xdata
xdata	SEGMENT
$unwind$?length@?$tvec2@_N$0A@@glm@@SAHXZ DD 010201H
	DD	07002H
xdata	ENDS
;	COMDAT xdata
xdata	SEGMENT
$unwind$??$epsilonEqual@M$0A@Utvec2@glm@@@glm@@YA?AU?$tvec2@_N$0A@@0@AEBU?$tvec2@M$0A@@0@00@Z DD 021901H
	DD	070157219H
xdata	ENDS
;	COMDAT xdata
xdata	SEGMENT
$unwind$??0?$tvec2@M$0A@@glm@@QEAA@MM@Z DD 011201H
	DD	07012H
xdata	ENDS
;	COMDAT xdata
xdata	SEGMENT
$unwind$??0?$tvec2@M$0A@@glm@@QEAA@M@Z DD 010c01H
	DD	0700cH
xdata	ENDS
;	COMDAT xdata
xdata	SEGMENT
$unwind$??0?$tvec2@M$0A@@glm@@QEAA@XZ DD 010601H
	DD	07006H
xdata	ENDS
;	COMDAT xdata
xdata	SEGMENT
$unwind$??A?$tvec2@M$0A@@glm@@QEBAAEBMH@Z DD 020e01H
	DD	0700a320eH
xdata	ENDS
;	COMDAT xdata
xdata	SEGMENT
$unwind$?length@?$tvec2@M$0A@@glm@@SAHXZ DD 010201H
	DD	07002H
xdata	ENDS
xdata	SEGMENT
$unwind$?test_defined@@YAHXZ DD 030901H
	DD	0580109H
	DD	07002H
$unwind$main DD	020601H
	DD	070025206H
xdata	ENDS
;	COMDAT xdata
xdata	SEGMENT
$unwind$??$abs@N@glm@@YANN@Z DD 020b01H
	DD	07007520bH
xdata	ENDS
;	COMDAT xdata
xdata	SEGMENT
$unwind$??$epsilonEqual@N@glm@@YA_NAEBN00@Z DD 021401H
	DD	070105214H
xdata	ENDS
;	COMDAT xdata
xdata	SEGMENT
$unwind$??$abs@M@glm@@YAMM@Z DD 020b01H
	DD	07007520bH
xdata	ENDS
;	COMDAT xdata
xdata	SEGMENT
$unwind$??$epsilonEqual@M@glm@@YA_NAEBM00@Z DD 021401H
	DD	070105214H
xdata	ENDS
;	COMDAT xdata
xdata	SEGMENT
$unwind$?epsilon@?$numeric_limits@N@std@@SANXZ DD 020601H
	DD	070021206H
xdata	ENDS
;	COMDAT xdata
xdata	SEGMENT
$unwind$?epsilon@?$numeric_limits@M@std@@SAMXZ DD 020601H
	DD	070021206H
xdata	ENDS
; Function compile flags: /Odtp /RTCsu
; File C:\Users\ksart\OneDrive\Desktop\FlappyBird\libraries\external\glm\glm\detail\type_vec4.inl
;	COMDAT ?call@?$compute_vec4_sub@M$0A@$0A@@detail@glm@@SA?AU?$tvec4@M$0A@@3@AEBU43@0@Z
_TEXT	SEGMENT
tv80 = 48
__$ReturnUdt$ = 80
a$ = 88
b$ = 96
?call@?$compute_vec4_sub@M$0A@$0A@@detail@glm@@SA?AU?$tvec4@M$0A@@3@AEBU43@0@Z PROC ; glm::detail::compute_vec4_sub<float,0,0>::call, COMDAT

; 50   : 		{

$LN3:
	mov	QWORD PTR [rsp+24], r8
	mov	QWORD PTR [rsp+16], rdx
	mov	QWORD PTR [rsp+8], rcx
	push	rdi
	sub	rsp, 64					; 00000040H

; 51   : 			return tvec4<T, P>(a.x - b.x, a.y - b.y, a.z - b.z, a.w - b.w);

	mov	rax, QWORD PTR a$[rsp]
	mov	rcx, QWORD PTR b$[rsp]
	movss	xmm0, DWORD PTR [rax+12]
	subss	xmm0, DWORD PTR [rcx+12]
	mov	rax, QWORD PTR a$[rsp]
	mov	rcx, QWORD PTR b$[rsp]
	movss	xmm1, DWORD PTR [rax+8]
	subss	xmm1, DWORD PTR [rcx+8]
	mov	rax, QWORD PTR a$[rsp]
	mov	rcx, QWORD PTR b$[rsp]
	movss	xmm2, DWORD PTR [rax+4]
	subss	xmm2, DWORD PTR [rcx+4]
	mov	rax, QWORD PTR a$[rsp]
	mov	rcx, QWORD PTR b$[rsp]
	movss	xmm3, DWORD PTR [rax]
	subss	xmm3, DWORD PTR [rcx]
	movss	DWORD PTR tv80[rsp], xmm3
	movss	DWORD PTR [rsp+32], xmm0
	movaps	xmm3, xmm1
	movss	xmm0, DWORD PTR tv80[rsp]
	movaps	xmm1, xmm0
	mov	rcx, QWORD PTR __$ReturnUdt$[rsp]
	call	??0?$tvec4@M$0A@@glm@@QEAA@MMMM@Z	; glm::tvec4<float,0>::tvec4<float,0>
	mov	rax, QWORD PTR __$ReturnUdt$[rsp]

; 52   : 		}

	add	rsp, 64					; 00000040H
	pop	rdi
	ret	0
?call@?$compute_vec4_sub@M$0A@$0A@@detail@glm@@SA?AU?$tvec4@M$0A@@3@AEBU43@0@Z ENDP ; glm::detail::compute_vec4_sub<float,0,0>::call
_TEXT	ENDS
; Function compile flags: /Odtp /RTCsu
; File C:\Users\ksart\OneDrive\Desktop\FlappyBird\libraries\external\glm\glm\detail\_vectorize.hpp
;	COMDAT ?call@?$functor1@MM$0A@Utvec2@glm@@@detail@glm@@SA?AU?$tvec2@M$0A@@3@P6AMM@ZAEBU43@@Z
_TEXT	SEGMENT
tv66 = 32
__$ReturnUdt$ = 64
Func$ = 72
v$ = 80
?call@?$functor1@MM$0A@Utvec2@glm@@@detail@glm@@SA?AU?$tvec2@M$0A@@3@P6AMM@ZAEBU43@@Z PROC ; glm::detail::functor1<float,float,0,glm::tvec2>::call, COMDAT

; 30   : 		{

$LN3:
	mov	QWORD PTR [rsp+24], r8
	mov	QWORD PTR [rsp+16], rdx
	mov	QWORD PTR [rsp+8], rcx
	push	rdi
	sub	rsp, 48					; 00000030H

; 31   : 			return tvec2<R, P>(Func(v.x), Func(v.y));

	mov	rax, QWORD PTR v$[rsp]
	movss	xmm0, DWORD PTR [rax+4]
	call	QWORD PTR Func$[rsp]
	movss	DWORD PTR tv66[rsp], xmm0
	mov	rax, QWORD PTR v$[rsp]
	movss	xmm0, DWORD PTR [rax]
	call	QWORD PTR Func$[rsp]
	movss	xmm1, DWORD PTR tv66[rsp]
	movaps	xmm2, xmm1
	movaps	xmm1, xmm0
	mov	rcx, QWORD PTR __$ReturnUdt$[rsp]
	call	??0?$tvec2@M$0A@@glm@@QEAA@MM@Z		; glm::tvec2<float,0>::tvec2<float,0>
	mov	rax, QWORD PTR __$ReturnUdt$[rsp]

; 32   : 		}

	add	rsp, 48					; 00000030H
	pop	rdi
	ret	0
?call@?$functor1@MM$0A@Utvec2@glm@@@detail@glm@@SA?AU?$tvec2@M$0A@@3@P6AMM@ZAEBU43@@Z ENDP ; glm::detail::functor1<float,float,0,glm::tvec2>::call
_TEXT	ENDS
; Function compile flags: /Odtp /RTCsu
; File C:\Users\ksart\OneDrive\Desktop\FlappyBird\libraries\external\glm\glm\detail\_vectorize.hpp
;	COMDAT ?call@?$functor1@MM$0A@Utvec3@glm@@@detail@glm@@SA?AU?$tvec3@M$0A@@3@P6AMM@ZAEBU43@@Z
_TEXT	SEGMENT
tv66 = 32
tv70 = 36
__$ReturnUdt$ = 64
Func$ = 72
v$ = 80
?call@?$functor1@MM$0A@Utvec3@glm@@@detail@glm@@SA?AU?$tvec3@M$0A@@3@P6AMM@ZAEBU43@@Z PROC ; glm::detail::functor1<float,float,0,glm::tvec3>::call, COMDAT

; 39   : 		{

$LN3:
	mov	QWORD PTR [rsp+24], r8
	mov	QWORD PTR [rsp+16], rdx
	mov	QWORD PTR [rsp+8], rcx
	push	rdi
	sub	rsp, 48					; 00000030H

; 40   : 			return tvec3<R, P>(Func(v.x), Func(v.y), Func(v.z));

	mov	rax, QWORD PTR v$[rsp]
	movss	xmm0, DWORD PTR [rax+8]
	call	QWORD PTR Func$[rsp]
	movss	DWORD PTR tv66[rsp], xmm0
	mov	rax, QWORD PTR v$[rsp]
	movss	xmm0, DWORD PTR [rax+4]
	call	QWORD PTR Func$[rsp]
	movss	DWORD PTR tv70[rsp], xmm0
	mov	rax, QWORD PTR v$[rsp]
	movss	xmm0, DWORD PTR [rax]
	call	QWORD PTR Func$[rsp]
	movss	xmm1, DWORD PTR tv66[rsp]
	movaps	xmm3, xmm1
	movss	xmm1, DWORD PTR tv70[rsp]
	movaps	xmm2, xmm1
	movaps	xmm1, xmm0
	mov	rcx, QWORD PTR __$ReturnUdt$[rsp]
	call	??0?$tvec3@M$0A@@glm@@QEAA@MMM@Z	; glm::tvec3<float,0>::tvec3<float,0>
	mov	rax, QWORD PTR __$ReturnUdt$[rsp]

; 41   : 		}

	add	rsp, 48					; 00000030H
	pop	rdi
	ret	0
?call@?$functor1@MM$0A@Utvec3@glm@@@detail@glm@@SA?AU?$tvec3@M$0A@@3@P6AMM@ZAEBU43@@Z ENDP ; glm::detail::functor1<float,float,0,glm::tvec3>::call
_TEXT	ENDS
; Function compile flags: /Odtp /RTCsu
; File C:\Users\ksart\OneDrive\Desktop\FlappyBird\libraries\external\glm\glm\detail\_vectorize.hpp
;	COMDAT ?call@?$functor1@MM$0A@Utvec4@glm@@@detail@glm@@SA?AU?$tvec4@M$0A@@3@P6AMM@ZAEBU43@@Z
_TEXT	SEGMENT
tv66 = 48
tv70 = 52
tv74 = 56
__$ReturnUdt$ = 80
Func$ = 88
v$ = 96
?call@?$functor1@MM$0A@Utvec4@glm@@@detail@glm@@SA?AU?$tvec4@M$0A@@3@P6AMM@ZAEBU43@@Z PROC ; glm::detail::functor1<float,float,0,glm::tvec4>::call, COMDAT

; 48   : 		{

$LN3:
	mov	QWORD PTR [rsp+24], r8
	mov	QWORD PTR [rsp+16], rdx
	mov	QWORD PTR [rsp+8], rcx
	push	rdi
	sub	rsp, 64					; 00000040H

; 49   : 			return tvec4<R, P>(Func(v.x), Func(v.y), Func(v.z), Func(v.w));

	mov	rax, QWORD PTR v$[rsp]
	movss	xmm0, DWORD PTR [rax+12]
	call	QWORD PTR Func$[rsp]
	movss	DWORD PTR tv66[rsp], xmm0
	mov	rax, QWORD PTR v$[rsp]
	movss	xmm0, DWORD PTR [rax+8]
	call	QWORD PTR Func$[rsp]
	movss	DWORD PTR tv70[rsp], xmm0
	mov	rax, QWORD PTR v$[rsp]
	movss	xmm0, DWORD PTR [rax+4]
	call	QWORD PTR Func$[rsp]
	movss	DWORD PTR tv74[rsp], xmm0
	mov	rax, QWORD PTR v$[rsp]
	movss	xmm0, DWORD PTR [rax]
	call	QWORD PTR Func$[rsp]
	movss	xmm1, DWORD PTR tv66[rsp]
	movss	DWORD PTR [rsp+32], xmm1
	movss	xmm1, DWORD PTR tv70[rsp]
	movaps	xmm3, xmm1
	movss	xmm1, DWORD PTR tv74[rsp]
	movaps	xmm2, xmm1
	movaps	xmm1, xmm0
	mov	rcx, QWORD PTR __$ReturnUdt$[rsp]
	call	??0?$tvec4@M$0A@@glm@@QEAA@MMMM@Z	; glm::tvec4<float,0>::tvec4<float,0>
	mov	rax, QWORD PTR __$ReturnUdt$[rsp]

; 50   : 		}

	add	rsp, 64					; 00000040H
	pop	rdi
	ret	0
?call@?$functor1@MM$0A@Utvec4@glm@@@detail@glm@@SA?AU?$tvec4@M$0A@@3@P6AMM@ZAEBU43@@Z ENDP ; glm::detail::functor1<float,float,0,glm::tvec4>::call
_TEXT	ENDS
; Function compile flags: /Odtp /RTCsu
; File C:\Users\ksart\OneDrive\Desktop\FlappyBird\libraries\external\glm\glm\detail\func_common.inl
;	COMDAT ?call@?$compute_abs_vector@M$0A@Utvec4@glm@@$0A@@detail@glm@@SA?AU?$tvec4@M$0A@@3@AEBU43@@Z
_TEXT	SEGMENT
__$ReturnUdt$ = 48
x$ = 56
?call@?$compute_abs_vector@M$0A@Utvec4@glm@@$0A@@detail@glm@@SA?AU?$tvec4@M$0A@@3@AEBU43@@Z PROC ; glm::detail::compute_abs_vector<float,0,glm::tvec4,0>::call, COMDAT

; 114  : 		{

$LN3:
	mov	QWORD PTR [rsp+16], rdx
	mov	QWORD PTR [rsp+8], rcx
	push	rdi
	sub	rsp, 32					; 00000020H

; 115  : 			return detail::functor1<T, T, P, vecType>::call(abs, x);

	mov	r8, QWORD PTR x$[rsp]
	lea	rdx, OFFSET FLAT:??$abs@M@glm@@YAMM@Z	; glm::abs<float>
	mov	rcx, QWORD PTR __$ReturnUdt$[rsp]
	call	?call@?$functor1@MM$0A@Utvec4@glm@@@detail@glm@@SA?AU?$tvec4@M$0A@@3@P6AMM@ZAEBU43@@Z ; glm::detail::functor1<float,float,0,glm::tvec4>::call
	mov	rax, QWORD PTR __$ReturnUdt$[rsp]

; 116  : 		}

	add	rsp, 32					; 00000020H
	pop	rdi
	ret	0
?call@?$compute_abs_vector@M$0A@Utvec4@glm@@$0A@@detail@glm@@SA?AU?$tvec4@M$0A@@3@AEBU43@@Z ENDP ; glm::detail::compute_abs_vector<float,0,glm::tvec4,0>::call
_TEXT	ENDS
; Function compile flags: /Odtp /RTCsu
; File C:\Users\ksart\OneDrive\Desktop\FlappyBird\libraries\external\glm\glm\detail\type_vec4.inl
;	COMDAT ??$?ZM@?$tvec4@M$0A@@glm@@QEAAAEAU01@AEBU01@@Z
_TEXT	SEGMENT
$T1 = 32
$T2 = 48
this$ = 96
v$ = 104
??$?ZM@?$tvec4@M$0A@@glm@@QEAAAEAU01@AEBU01@@Z PROC	; glm::tvec4<float,0>::operator-=<float>, COMDAT

; 404  : 	{

$LN3:
	mov	QWORD PTR [rsp+16], rdx
	mov	QWORD PTR [rsp+8], rcx
	push	rsi
	push	rdi
	sub	rsp, 72					; 00000048H

; 405  : 		return (*this = detail::compute_vec4_sub<T, P, detail::is_aligned<P>::value>::call(*this, tvec4<T, P>(v)));

	lea	rax, QWORD PTR $T1[rsp]
	mov	rdi, rax
	mov	rsi, QWORD PTR v$[rsp]
	mov	ecx, 16
	rep movsb
	lea	r8, QWORD PTR $T1[rsp]
	mov	rdx, QWORD PTR this$[rsp]
	lea	rcx, QWORD PTR $T2[rsp]
	call	?call@?$compute_vec4_sub@M$0A@$0A@@detail@glm@@SA?AU?$tvec4@M$0A@@3@AEBU43@0@Z ; glm::detail::compute_vec4_sub<float,0,0>::call
	mov	rdi, QWORD PTR this$[rsp]
	mov	rsi, rax
	mov	ecx, 16
	rep movsb
	mov	rax, QWORD PTR this$[rsp]

; 406  : 	}

	add	rsp, 72					; 00000048H
	pop	rdi
	pop	rsi
	ret	0
??$?ZM@?$tvec4@M$0A@@glm@@QEAAAEAU01@AEBU01@@Z ENDP	; glm::tvec4<float,0>::operator-=<float>
_TEXT	ENDS
; Function compile flags: /Odtp /RTCsu
; File C:\Users\ksart\OneDrive\Desktop\FlappyBird\libraries\external\glm\glm\detail\func_common.inl
;	COMDAT ?call@?$compute_abs_vector@M$0A@Utvec3@glm@@$0A@@detail@glm@@SA?AU?$tvec3@M$0A@@3@AEBU43@@Z
_TEXT	SEGMENT
__$ReturnUdt$ = 48
x$ = 56
?call@?$compute_abs_vector@M$0A@Utvec3@glm@@$0A@@detail@glm@@SA?AU?$tvec3@M$0A@@3@AEBU43@@Z PROC ; glm::detail::compute_abs_vector<float,0,glm::tvec3,0>::call, COMDAT

; 114  : 		{

$LN3:
	mov	QWORD PTR [rsp+16], rdx
	mov	QWORD PTR [rsp+8], rcx
	push	rdi
	sub	rsp, 32					; 00000020H

; 115  : 			return detail::functor1<T, T, P, vecType>::call(abs, x);

	mov	r8, QWORD PTR x$[rsp]
	lea	rdx, OFFSET FLAT:??$abs@M@glm@@YAMM@Z	; glm::abs<float>
	mov	rcx, QWORD PTR __$ReturnUdt$[rsp]
	call	?call@?$functor1@MM$0A@Utvec3@glm@@@detail@glm@@SA?AU?$tvec3@M$0A@@3@P6AMM@ZAEBU43@@Z ; glm::detail::functor1<float,float,0,glm::tvec3>::call
	mov	rax, QWORD PTR __$ReturnUdt$[rsp]

; 116  : 		}

	add	rsp, 32					; 00000020H
	pop	rdi
	ret	0
?call@?$compute_abs_vector@M$0A@Utvec3@glm@@$0A@@detail@glm@@SA?AU?$tvec3@M$0A@@3@AEBU43@@Z ENDP ; glm::detail::compute_abs_vector<float,0,glm::tvec3,0>::call
_TEXT	ENDS
; Function compile flags: /Odtp /RTCsu
; File C:\Users\ksart\OneDrive\Desktop\FlappyBird\libraries\external\glm\glm\detail\func_common.inl
;	COMDAT ?call@?$compute_abs_vector@M$0A@Utvec2@glm@@$0A@@detail@glm@@SA?AU?$tvec2@M$0A@@3@AEBU43@@Z
_TEXT	SEGMENT
__$ReturnUdt$ = 48
x$ = 56
?call@?$compute_abs_vector@M$0A@Utvec2@glm@@$0A@@detail@glm@@SA?AU?$tvec2@M$0A@@3@AEBU43@@Z PROC ; glm::detail::compute_abs_vector<float,0,glm::tvec2,0>::call, COMDAT

; 114  : 		{

$LN3:
	mov	QWORD PTR [rsp+16], rdx
	mov	QWORD PTR [rsp+8], rcx
	push	rdi
	sub	rsp, 32					; 00000020H

; 115  : 			return detail::functor1<T, T, P, vecType>::call(abs, x);

	mov	r8, QWORD PTR x$[rsp]
	lea	rdx, OFFSET FLAT:??$abs@M@glm@@YAMM@Z	; glm::abs<float>
	mov	rcx, QWORD PTR __$ReturnUdt$[rsp]
	call	?call@?$functor1@MM$0A@Utvec2@glm@@@detail@glm@@SA?AU?$tvec2@M$0A@@3@P6AMM@ZAEBU43@@Z ; glm::detail::functor1<float,float,0,glm::tvec2>::call
	mov	rax, QWORD PTR __$ReturnUdt$[rsp]

; 116  : 		}

	add	rsp, 32					; 00000020H
	pop	rdi
	ret	0
?call@?$compute_abs_vector@M$0A@Utvec2@glm@@$0A@@detail@glm@@SA?AU?$tvec2@M$0A@@3@AEBU43@@Z ENDP ; glm::detail::compute_abs_vector<float,0,glm::tvec2,0>::call
_TEXT	ENDS
; Function compile flags: /Odtp /RTCsu
; File C:\Users\ksart\OneDrive\Desktop\FlappyBird\libraries\external\glm\glm\gtc\constants.inl
;	COMDAT ??$epsilon@N@glm@@YANXZ
_TEXT	SEGMENT
??$epsilon@N@glm@@YANXZ PROC				; glm::epsilon<double>, COMDAT

; 10   : 	{

$LN3:
	push	rdi
	sub	rsp, 48					; 00000030H

; 11   : 		return std::numeric_limits<genType>::epsilon();

	call	?epsilon@?$numeric_limits@N@std@@SANXZ	; std::numeric_limits<double>::epsilon

; 12   : 	}

	add	rsp, 48					; 00000030H
	pop	rdi
	ret	0
??$epsilon@N@glm@@YANXZ ENDP				; glm::epsilon<double>
_TEXT	ENDS
; Function compile flags: /Odtp /RTCsu
; File C:\Users\ksart\OneDrive\Desktop\FlappyBird\libraries\external\glm\glm\gtc\constants.inl
;	COMDAT ??$epsilon@M@glm@@YAMXZ
_TEXT	SEGMENT
??$epsilon@M@glm@@YAMXZ PROC				; glm::epsilon<float>, COMDAT

; 10   : 	{

$LN3:
	push	rdi
	sub	rsp, 48					; 00000030H

; 11   : 		return std::numeric_limits<genType>::epsilon();

	call	?epsilon@?$numeric_limits@M@std@@SAMXZ	; std::numeric_limits<float>::epsilon

; 12   : 	}

	add	rsp, 48					; 00000030H
	pop	rdi
	ret	0
??$epsilon@M@glm@@YAMXZ ENDP				; glm::epsilon<float>
_TEXT	ENDS
; Function compile flags: /Odtp /RTCsu
; File C:\Users\ksart\OneDrive\Desktop\FlappyBird\libraries\external\glm\glm\detail\func_vector_relational.inl
;	COMDAT ??$greaterThanEqual@M$0A@Utvec4@glm@@@glm@@YA?AU?$tvec4@_N$0A@@0@AEBU?$tvec4@M$0A@@0@0@Z
_TEXT	SEGMENT
Result$ = 36
i$4 = 52
tv64 = 56
tv80 = 64
tv86 = 72
__$ReturnUdt$ = 96
x$ = 104
y$ = 112
??$greaterThanEqual@M$0A@Utvec4@glm@@@glm@@YA?AU?$tvec4@_N$0A@@0@AEBU?$tvec4@M$0A@@0@0@Z PROC ; glm::greaterThanEqual<float,0,glm::tvec4>, COMDAT

; 44   : 	{

$LN9:
	mov	QWORD PTR [rsp+24], r8
	mov	QWORD PTR [rsp+16], rdx
	mov	QWORD PTR [rsp+8], rcx
	push	rdi
	sub	rsp, 80					; 00000050H
	lea	rdi, QWORD PTR [rsp+32]
	mov	ecx, 12
	mov	eax, -858993460				; ccccccccH
	rep stosd
	mov	rcx, QWORD PTR [rsp+96]

; 45   : 		assert(x.length() == y.length());

	call	?length@?$tvec4@M$0A@@glm@@SAHXZ	; glm::tvec4<float,0>::length
	mov	DWORD PTR tv64[rsp], eax
	call	?length@?$tvec4@M$0A@@glm@@SAHXZ	; glm::tvec4<float,0>::length
	mov	ecx, DWORD PTR tv64[rsp]
	cmp	ecx, eax
	je	SHORT $LN6@greaterTha
	mov	r8d, 45					; 0000002dH
	lea	rdx, OFFSET FLAT:??_C@_1NA@OPABFNEN@?$AAC?$AA?3?$AA?2?$AAU?$AAs?$AAe?$AAr?$AAs?$AA?2?$AAk?$AAs?$AAa?$AAr?$AAt?$AA?2@
	lea	rcx, OFFSET FLAT:??_C@_1DC@HHLCGOLC@?$AAx?$AA?4?$AAl?$AAe?$AAn?$AAg?$AAt?$AAh?$AA?$CI?$AA?$CJ?$AA?5?$AA?$DN?$AA?$DN?$AA?5?$AAy@
	call	QWORD PTR __imp__wassert
	xor	eax, eax
$LN6@greaterTha:

; 46   : 
; 47   : 		vecType<bool, P> Result(uninitialize);

	xor	edx, edx
	lea	rcx, QWORD PTR Result$[rsp]
	call	??0?$tvec4@_N$0A@@glm@@QEAA@W4ctor@1@@Z	; glm::tvec4<bool,0>::tvec4<bool,0>

; 48   : 		for(length_t i = 0; i < x.length(); ++i)

	mov	DWORD PTR i$4[rsp], 0
	jmp	SHORT $LN4@greaterTha
$LN2@greaterTha:
	mov	eax, DWORD PTR i$4[rsp]
	inc	eax
	mov	DWORD PTR i$4[rsp], eax
$LN4@greaterTha:
	call	?length@?$tvec4@M$0A@@glm@@SAHXZ	; glm::tvec4<float,0>::length
	cmp	DWORD PTR i$4[rsp], eax
	jge	SHORT $LN3@greaterTha

; 49   : 			Result[i] = x[i] >= y[i];

	mov	edx, DWORD PTR i$4[rsp]
	mov	rcx, QWORD PTR x$[rsp]
	call	??A?$tvec4@M$0A@@glm@@QEBAAEBMH@Z	; glm::tvec4<float,0>::operator[]
	mov	QWORD PTR tv80[rsp], rax
	mov	edx, DWORD PTR i$4[rsp]
	mov	rcx, QWORD PTR y$[rsp]
	call	??A?$tvec4@M$0A@@glm@@QEBAAEBMH@Z	; glm::tvec4<float,0>::operator[]
	mov	rcx, QWORD PTR tv80[rsp]
	movss	xmm0, DWORD PTR [rcx]
	comiss	xmm0, DWORD PTR [rax]
	jb	SHORT $LN7@greaterTha
	mov	DWORD PTR tv86[rsp], 1
	jmp	SHORT $LN8@greaterTha
$LN7@greaterTha:
	mov	DWORD PTR tv86[rsp], 0
$LN8@greaterTha:
	mov	edx, DWORD PTR i$4[rsp]
	lea	rcx, QWORD PTR Result$[rsp]
	call	??A?$tvec4@_N$0A@@glm@@QEAAAEA_NH@Z	; glm::tvec4<bool,0>::operator[]
	movzx	ecx, BYTE PTR tv86[rsp]
	mov	BYTE PTR [rax], cl
	jmp	SHORT $LN2@greaterTha
$LN3@greaterTha:

; 50   : 		return Result;

	mov	rax, QWORD PTR __$ReturnUdt$[rsp]
	mov	ecx, DWORD PTR Result$[rsp]
	mov	DWORD PTR [rax], ecx
	mov	rax, QWORD PTR __$ReturnUdt$[rsp]

; 51   : 	}

	mov	rdi, rax
	mov	rcx, rsp
	lea	rdx, OFFSET FLAT:??$greaterThanEqual@M$0A@Utvec4@glm@@@glm@@YA?AU?$tvec4@_N$0A@@0@AEBU?$tvec4@M$0A@@0@0@Z$rtcFrameData
	call	_RTC_CheckStackVars
	mov	rax, rdi
	add	rsp, 80					; 00000050H
	pop	rdi
	ret	0
??$greaterThanEqual@M$0A@Utvec4@glm@@@glm@@YA?AU?$tvec4@_N$0A@@0@AEBU?$tvec4@M$0A@@0@0@Z ENDP ; glm::greaterThanEqual<float,0,glm::tvec4>
_TEXT	ENDS
; Function compile flags: /Odtp /RTCsu
; File C:\Users\ksart\OneDrive\Desktop\FlappyBird\libraries\external\glm\glm\detail\func_vector_relational.inl
;	COMDAT ??$greaterThanEqual@M$0A@Utvec3@glm@@@glm@@YA?AU?$tvec3@_N$0A@@0@AEBU?$tvec3@M$0A@@0@0@Z
_TEXT	SEGMENT
Result$ = 36
i$4 = 52
tv64 = 56
tv80 = 64
tv86 = 72
__$ReturnUdt$ = 112
x$ = 120
y$ = 128
??$greaterThanEqual@M$0A@Utvec3@glm@@@glm@@YA?AU?$tvec3@_N$0A@@0@AEBU?$tvec3@M$0A@@0@0@Z PROC ; glm::greaterThanEqual<float,0,glm::tvec3>, COMDAT

; 44   : 	{

$LN9:
	mov	QWORD PTR [rsp+24], r8
	mov	QWORD PTR [rsp+16], rdx
	mov	QWORD PTR [rsp+8], rcx
	push	rsi
	push	rdi
	sub	rsp, 88					; 00000058H
	lea	rdi, QWORD PTR [rsp+32]
	mov	ecx, 14
	mov	eax, -858993460				; ccccccccH
	rep stosd
	mov	rcx, QWORD PTR [rsp+112]

; 45   : 		assert(x.length() == y.length());

	call	?length@?$tvec3@M$0A@@glm@@SAHXZ	; glm::tvec3<float,0>::length
	mov	DWORD PTR tv64[rsp], eax
	call	?length@?$tvec3@M$0A@@glm@@SAHXZ	; glm::tvec3<float,0>::length
	mov	ecx, DWORD PTR tv64[rsp]
	cmp	ecx, eax
	je	SHORT $LN6@greaterTha
	mov	r8d, 45					; 0000002dH
	lea	rdx, OFFSET FLAT:??_C@_1NA@OPABFNEN@?$AAC?$AA?3?$AA?2?$AAU?$AAs?$AAe?$AAr?$AAs?$AA?2?$AAk?$AAs?$AAa?$AAr?$AAt?$AA?2@
	lea	rcx, OFFSET FLAT:??_C@_1DC@HHLCGOLC@?$AAx?$AA?4?$AAl?$AAe?$AAn?$AAg?$AAt?$AAh?$AA?$CI?$AA?$CJ?$AA?5?$AA?$DN?$AA?$DN?$AA?5?$AAy@
	call	QWORD PTR __imp__wassert
	xor	eax, eax
$LN6@greaterTha:

; 46   : 
; 47   : 		vecType<bool, P> Result(uninitialize);

	xor	edx, edx
	lea	rcx, QWORD PTR Result$[rsp]
	call	??0?$tvec3@_N$0A@@glm@@QEAA@W4ctor@1@@Z	; glm::tvec3<bool,0>::tvec3<bool,0>

; 48   : 		for(length_t i = 0; i < x.length(); ++i)

	mov	DWORD PTR i$4[rsp], 0
	jmp	SHORT $LN4@greaterTha
$LN2@greaterTha:
	mov	eax, DWORD PTR i$4[rsp]
	inc	eax
	mov	DWORD PTR i$4[rsp], eax
$LN4@greaterTha:
	call	?length@?$tvec3@M$0A@@glm@@SAHXZ	; glm::tvec3<float,0>::length
	cmp	DWORD PTR i$4[rsp], eax
	jge	SHORT $LN3@greaterTha

; 49   : 			Result[i] = x[i] >= y[i];

	mov	edx, DWORD PTR i$4[rsp]
	mov	rcx, QWORD PTR x$[rsp]
	call	??A?$tvec3@M$0A@@glm@@QEBAAEBMH@Z	; glm::tvec3<float,0>::operator[]
	mov	QWORD PTR tv80[rsp], rax
	mov	edx, DWORD PTR i$4[rsp]
	mov	rcx, QWORD PTR y$[rsp]
	call	??A?$tvec3@M$0A@@glm@@QEBAAEBMH@Z	; glm::tvec3<float,0>::operator[]
	mov	rcx, QWORD PTR tv80[rsp]
	movss	xmm0, DWORD PTR [rcx]
	comiss	xmm0, DWORD PTR [rax]
	jb	SHORT $LN7@greaterTha
	mov	DWORD PTR tv86[rsp], 1
	jmp	SHORT $LN8@greaterTha
$LN7@greaterTha:
	mov	DWORD PTR tv86[rsp], 0
$LN8@greaterTha:
	mov	edx, DWORD PTR i$4[rsp]
	lea	rcx, QWORD PTR Result$[rsp]
	call	??A?$tvec3@_N$0A@@glm@@QEAAAEA_NH@Z	; glm::tvec3<bool,0>::operator[]
	movzx	ecx, BYTE PTR tv86[rsp]
	mov	BYTE PTR [rax], cl
	jmp	SHORT $LN2@greaterTha
$LN3@greaterTha:

; 50   : 		return Result;

	lea	rax, QWORD PTR Result$[rsp]
	mov	rdi, QWORD PTR __$ReturnUdt$[rsp]
	mov	rsi, rax
	mov	ecx, 3
	rep movsb
	mov	rax, QWORD PTR __$ReturnUdt$[rsp]

; 51   : 	}

	mov	rdi, rax
	mov	rcx, rsp
	lea	rdx, OFFSET FLAT:??$greaterThanEqual@M$0A@Utvec3@glm@@@glm@@YA?AU?$tvec3@_N$0A@@0@AEBU?$tvec3@M$0A@@0@0@Z$rtcFrameData
	call	_RTC_CheckStackVars
	mov	rax, rdi
	add	rsp, 88					; 00000058H
	pop	rdi
	pop	rsi
	ret	0
??$greaterThanEqual@M$0A@Utvec3@glm@@@glm@@YA?AU?$tvec3@_N$0A@@0@AEBU?$tvec3@M$0A@@0@0@Z ENDP ; glm::greaterThanEqual<float,0,glm::tvec3>
_TEXT	ENDS
; Function compile flags: /Odtp /RTCsu
; File C:\Users\ksart\OneDrive\Desktop\FlappyBird\libraries\external\glm\glm\detail\func_vector_relational.inl
;	COMDAT ??$greaterThanEqual@M$0A@Utvec2@glm@@@glm@@YA?AU?$tvec2@_N$0A@@0@AEBU?$tvec2@M$0A@@0@0@Z
_TEXT	SEGMENT
Result$ = 36
i$4 = 52
tv64 = 56
tv80 = 64
tv86 = 72
__$ReturnUdt$ = 96
x$ = 104
y$ = 112
??$greaterThanEqual@M$0A@Utvec2@glm@@@glm@@YA?AU?$tvec2@_N$0A@@0@AEBU?$tvec2@M$0A@@0@0@Z PROC ; glm::greaterThanEqual<float,0,glm::tvec2>, COMDAT

; 44   : 	{

$LN9:
	mov	QWORD PTR [rsp+24], r8
	mov	QWORD PTR [rsp+16], rdx
	mov	QWORD PTR [rsp+8], rcx
	push	rdi
	sub	rsp, 80					; 00000050H
	lea	rdi, QWORD PTR [rsp+32]
	mov	ecx, 12
	mov	eax, -858993460				; ccccccccH
	rep stosd
	mov	rcx, QWORD PTR [rsp+96]

; 45   : 		assert(x.length() == y.length());

	call	?length@?$tvec2@M$0A@@glm@@SAHXZ	; glm::tvec2<float,0>::length
	mov	DWORD PTR tv64[rsp], eax
	call	?length@?$tvec2@M$0A@@glm@@SAHXZ	; glm::tvec2<float,0>::length
	mov	ecx, DWORD PTR tv64[rsp]
	cmp	ecx, eax
	je	SHORT $LN6@greaterTha
	mov	r8d, 45					; 0000002dH
	lea	rdx, OFFSET FLAT:??_C@_1NA@OPABFNEN@?$AAC?$AA?3?$AA?2?$AAU?$AAs?$AAe?$AAr?$AAs?$AA?2?$AAk?$AAs?$AAa?$AAr?$AAt?$AA?2@
	lea	rcx, OFFSET FLAT:??_C@_1DC@HHLCGOLC@?$AAx?$AA?4?$AAl?$AAe?$AAn?$AAg?$AAt?$AAh?$AA?$CI?$AA?$CJ?$AA?5?$AA?$DN?$AA?$DN?$AA?5?$AAy@
	call	QWORD PTR __imp__wassert
	xor	eax, eax
$LN6@greaterTha:

; 46   : 
; 47   : 		vecType<bool, P> Result(uninitialize);

	xor	edx, edx
	lea	rcx, QWORD PTR Result$[rsp]
	call	??0?$tvec2@_N$0A@@glm@@QEAA@W4ctor@1@@Z	; glm::tvec2<bool,0>::tvec2<bool,0>

; 48   : 		for(length_t i = 0; i < x.length(); ++i)

	mov	DWORD PTR i$4[rsp], 0
	jmp	SHORT $LN4@greaterTha
$LN2@greaterTha:
	mov	eax, DWORD PTR i$4[rsp]
	inc	eax
	mov	DWORD PTR i$4[rsp], eax
$LN4@greaterTha:
	call	?length@?$tvec2@M$0A@@glm@@SAHXZ	; glm::tvec2<float,0>::length
	cmp	DWORD PTR i$4[rsp], eax
	jge	SHORT $LN3@greaterTha

; 49   : 			Result[i] = x[i] >= y[i];

	mov	edx, DWORD PTR i$4[rsp]
	mov	rcx, QWORD PTR x$[rsp]
	call	??A?$tvec2@M$0A@@glm@@QEBAAEBMH@Z	; glm::tvec2<float,0>::operator[]
	mov	QWORD PTR tv80[rsp], rax
	mov	edx, DWORD PTR i$4[rsp]
	mov	rcx, QWORD PTR y$[rsp]
	call	??A?$tvec2@M$0A@@glm@@QEBAAEBMH@Z	; glm::tvec2<float,0>::operator[]
	mov	rcx, QWORD PTR tv80[rsp]
	movss	xmm0, DWORD PTR [rcx]
	comiss	xmm0, DWORD PTR [rax]
	jb	SHORT $LN7@greaterTha
	mov	DWORD PTR tv86[rsp], 1
	jmp	SHORT $LN8@greaterTha
$LN7@greaterTha:
	mov	DWORD PTR tv86[rsp], 0
$LN8@greaterTha:
	mov	edx, DWORD PTR i$4[rsp]
	lea	rcx, QWORD PTR Result$[rsp]
	call	??A?$tvec2@_N$0A@@glm@@QEAAAEA_NH@Z	; glm::tvec2<bool,0>::operator[]
	movzx	ecx, BYTE PTR tv86[rsp]
	mov	BYTE PTR [rax], cl
	jmp	SHORT $LN2@greaterTha
$LN3@greaterTha:

; 50   : 		return Result;

	mov	rax, QWORD PTR __$ReturnUdt$[rsp]
	movzx	ecx, WORD PTR Result$[rsp]
	mov	WORD PTR [rax], cx
	mov	rax, QWORD PTR __$ReturnUdt$[rsp]

; 51   : 	}

	mov	rdi, rax
	mov	rcx, rsp
	lea	rdx, OFFSET FLAT:??$greaterThanEqual@M$0A@Utvec2@glm@@@glm@@YA?AU?$tvec2@_N$0A@@0@AEBU?$tvec2@M$0A@@0@0@Z$rtcFrameData
	call	_RTC_CheckStackVars
	mov	rax, rdi
	add	rsp, 80					; 00000050H
	pop	rdi
	ret	0
??$greaterThanEqual@M$0A@Utvec2@glm@@@glm@@YA?AU?$tvec2@_N$0A@@0@AEBU?$tvec2@M$0A@@0@0@Z ENDP ; glm::greaterThanEqual<float,0,glm::tvec2>
_TEXT	ENDS
; Function compile flags: /Odtp /RTCsu
; File C:\Users\ksart\OneDrive\Desktop\FlappyBird\libraries\external\glm\glm\detail\func_vector_relational.inl
;	COMDAT ??$lessThan@M$0A@Utvec4@glm@@@glm@@YA?AU?$tvec4@_N$0A@@0@AEBU?$tvec4@M$0A@@0@0@Z
_TEXT	SEGMENT
Result$ = 36
i$4 = 52
tv64 = 56
tv80 = 64
tv86 = 72
__$ReturnUdt$ = 96
x$ = 104
y$ = 112
??$lessThan@M$0A@Utvec4@glm@@@glm@@YA?AU?$tvec4@_N$0A@@0@AEBU?$tvec4@M$0A@@0@0@Z PROC ; glm::lessThan<float,0,glm::tvec4>, COMDAT

; 10   : 	{

$LN9:
	mov	QWORD PTR [rsp+24], r8
	mov	QWORD PTR [rsp+16], rdx
	mov	QWORD PTR [rsp+8], rcx
	push	rdi
	sub	rsp, 80					; 00000050H
	lea	rdi, QWORD PTR [rsp+32]
	mov	ecx, 12
	mov	eax, -858993460				; ccccccccH
	rep stosd
	mov	rcx, QWORD PTR [rsp+96]

; 11   : 		assert(x.length() == y.length());

	call	?length@?$tvec4@M$0A@@glm@@SAHXZ	; glm::tvec4<float,0>::length
	mov	DWORD PTR tv64[rsp], eax
	call	?length@?$tvec4@M$0A@@glm@@SAHXZ	; glm::tvec4<float,0>::length
	mov	ecx, DWORD PTR tv64[rsp]
	cmp	ecx, eax
	je	SHORT $LN6@lessThan
	mov	r8d, 11
	lea	rdx, OFFSET FLAT:??_C@_1NA@OPABFNEN@?$AAC?$AA?3?$AA?2?$AAU?$AAs?$AAe?$AAr?$AAs?$AA?2?$AAk?$AAs?$AAa?$AAr?$AAt?$AA?2@
	lea	rcx, OFFSET FLAT:??_C@_1DC@HHLCGOLC@?$AAx?$AA?4?$AAl?$AAe?$AAn?$AAg?$AAt?$AAh?$AA?$CI?$AA?$CJ?$AA?5?$AA?$DN?$AA?$DN?$AA?5?$AAy@
	call	QWORD PTR __imp__wassert
	xor	eax, eax
$LN6@lessThan:

; 12   : 
; 13   : 		vecType<bool, P> Result(uninitialize);

	xor	edx, edx
	lea	rcx, QWORD PTR Result$[rsp]
	call	??0?$tvec4@_N$0A@@glm@@QEAA@W4ctor@1@@Z	; glm::tvec4<bool,0>::tvec4<bool,0>

; 14   : 		for(length_t i = 0; i < x.length(); ++i)

	mov	DWORD PTR i$4[rsp], 0
	jmp	SHORT $LN4@lessThan
$LN2@lessThan:
	mov	eax, DWORD PTR i$4[rsp]
	inc	eax
	mov	DWORD PTR i$4[rsp], eax
$LN4@lessThan:
	call	?length@?$tvec4@M$0A@@glm@@SAHXZ	; glm::tvec4<float,0>::length
	cmp	DWORD PTR i$4[rsp], eax
	jge	SHORT $LN3@lessThan

; 15   : 			Result[i] = x[i] < y[i];

	mov	edx, DWORD PTR i$4[rsp]
	mov	rcx, QWORD PTR x$[rsp]
	call	??A?$tvec4@M$0A@@glm@@QEBAAEBMH@Z	; glm::tvec4<float,0>::operator[]
	mov	QWORD PTR tv80[rsp], rax
	mov	edx, DWORD PTR i$4[rsp]
	mov	rcx, QWORD PTR y$[rsp]
	call	??A?$tvec4@M$0A@@glm@@QEBAAEBMH@Z	; glm::tvec4<float,0>::operator[]
	movss	xmm0, DWORD PTR [rax]
	mov	rax, QWORD PTR tv80[rsp]
	comiss	xmm0, DWORD PTR [rax]
	jbe	SHORT $LN7@lessThan
	mov	DWORD PTR tv86[rsp], 1
	jmp	SHORT $LN8@lessThan
$LN7@lessThan:
	mov	DWORD PTR tv86[rsp], 0
$LN8@lessThan:
	mov	edx, DWORD PTR i$4[rsp]
	lea	rcx, QWORD PTR Result$[rsp]
	call	??A?$tvec4@_N$0A@@glm@@QEAAAEA_NH@Z	; glm::tvec4<bool,0>::operator[]
	movzx	ecx, BYTE PTR tv86[rsp]
	mov	BYTE PTR [rax], cl
	jmp	SHORT $LN2@lessThan
$LN3@lessThan:

; 16   : 
; 17   : 		return Result;

	mov	rax, QWORD PTR __$ReturnUdt$[rsp]
	mov	ecx, DWORD PTR Result$[rsp]
	mov	DWORD PTR [rax], ecx
	mov	rax, QWORD PTR __$ReturnUdt$[rsp]

; 18   : 	}

	mov	rdi, rax
	mov	rcx, rsp
	lea	rdx, OFFSET FLAT:??$lessThan@M$0A@Utvec4@glm@@@glm@@YA?AU?$tvec4@_N$0A@@0@AEBU?$tvec4@M$0A@@0@0@Z$rtcFrameData
	call	_RTC_CheckStackVars
	mov	rax, rdi
	add	rsp, 80					; 00000050H
	pop	rdi
	ret	0
??$lessThan@M$0A@Utvec4@glm@@@glm@@YA?AU?$tvec4@_N$0A@@0@AEBU?$tvec4@M$0A@@0@0@Z ENDP ; glm::lessThan<float,0,glm::tvec4>
_TEXT	ENDS
; Function compile flags: /Odtp /RTCsu
; File C:\Users\ksart\OneDrive\Desktop\FlappyBird\libraries\external\glm\glm\detail\func_common.inl
;	COMDAT ??$abs@M$0A@Utvec4@glm@@@glm@@YA?AU?$tvec4@M$0A@@0@AEBU10@@Z
_TEXT	SEGMENT
__$ReturnUdt$ = 48
x$ = 56
??$abs@M$0A@Utvec4@glm@@@glm@@YA?AU?$tvec4@M$0A@@0@AEBU10@@Z PROC ; glm::abs<float,0,glm::tvec4>, COMDAT

; 316  : 	{

$LN3:
	mov	QWORD PTR [rsp+16], rdx
	mov	QWORD PTR [rsp+8], rcx
	push	rdi
	sub	rsp, 32					; 00000020H

; 317  : 		return detail::compute_abs_vector<T, P, vecType, detail::is_aligned<P>::value>::call(x);

	mov	rdx, QWORD PTR x$[rsp]
	mov	rcx, QWORD PTR __$ReturnUdt$[rsp]
	call	?call@?$compute_abs_vector@M$0A@Utvec4@glm@@$0A@@detail@glm@@SA?AU?$tvec4@M$0A@@3@AEBU43@@Z ; glm::detail::compute_abs_vector<float,0,glm::tvec4,0>::call
	mov	rax, QWORD PTR __$ReturnUdt$[rsp]

; 318  : 	}

	add	rsp, 32					; 00000020H
	pop	rdi
	ret	0
??$abs@M$0A@Utvec4@glm@@@glm@@YA?AU?$tvec4@M$0A@@0@AEBU10@@Z ENDP ; glm::abs<float,0,glm::tvec4>
_TEXT	ENDS
; Function compile flags: /Odtp /RTCsu
; File C:\Users\ksart\OneDrive\Desktop\FlappyBird\libraries\external\glm\glm\detail\type_vec4.inl
;	COMDAT ??$?GM$0A@@glm@@YA?AU?$tvec4@M$0A@@0@AEBU10@0@Z
_TEXT	SEGMENT
$T1 = 32
__$ReturnUdt$ = 80
v1$ = 88
v2$ = 96
??$?GM$0A@@glm@@YA?AU?$tvec4@M$0A@@0@AEBU10@0@Z PROC	; glm::operator-<float,0>, COMDAT

; 688  : 	{

$LN3:
	mov	QWORD PTR [rsp+24], r8
	mov	QWORD PTR [rsp+16], rdx
	mov	QWORD PTR [rsp+8], rcx
	push	rsi
	push	rdi
	sub	rsp, 56					; 00000038H

; 689  : 		return tvec4<T, P>(v1) -= v2;

	lea	rax, QWORD PTR $T1[rsp]
	mov	rdi, rax
	mov	rsi, QWORD PTR v1$[rsp]
	mov	ecx, 16
	rep movsb
	mov	rdx, QWORD PTR v2$[rsp]
	lea	rcx, QWORD PTR $T1[rsp]
	call	??$?ZM@?$tvec4@M$0A@@glm@@QEAAAEAU01@AEBU01@@Z ; glm::tvec4<float,0>::operator-=<float>
	mov	rdi, QWORD PTR __$ReturnUdt$[rsp]
	mov	rsi, rax
	mov	ecx, 16
	rep movsb
	mov	rax, QWORD PTR __$ReturnUdt$[rsp]

; 690  : 	}

	add	rsp, 56					; 00000038H
	pop	rdi
	pop	rsi
	ret	0
??$?GM$0A@@glm@@YA?AU?$tvec4@M$0A@@0@AEBU10@0@Z ENDP	; glm::operator-<float,0>
_TEXT	ENDS
; Function compile flags: /Odtp /RTCsu
; File C:\Users\ksart\OneDrive\Desktop\FlappyBird\libraries\external\glm\glm\detail\func_vector_relational.inl
;	COMDAT ??$lessThan@M$0A@Utvec3@glm@@@glm@@YA?AU?$tvec3@_N$0A@@0@AEBU?$tvec3@M$0A@@0@0@Z
_TEXT	SEGMENT
Result$ = 36
i$4 = 52
tv64 = 56
tv80 = 64
tv86 = 72
__$ReturnUdt$ = 112
x$ = 120
y$ = 128
??$lessThan@M$0A@Utvec3@glm@@@glm@@YA?AU?$tvec3@_N$0A@@0@AEBU?$tvec3@M$0A@@0@0@Z PROC ; glm::lessThan<float,0,glm::tvec3>, COMDAT

; 10   : 	{

$LN9:
	mov	QWORD PTR [rsp+24], r8
	mov	QWORD PTR [rsp+16], rdx
	mov	QWORD PTR [rsp+8], rcx
	push	rsi
	push	rdi
	sub	rsp, 88					; 00000058H
	lea	rdi, QWORD PTR [rsp+32]
	mov	ecx, 14
	mov	eax, -858993460				; ccccccccH
	rep stosd
	mov	rcx, QWORD PTR [rsp+112]

; 11   : 		assert(x.length() == y.length());

	call	?length@?$tvec3@M$0A@@glm@@SAHXZ	; glm::tvec3<float,0>::length
	mov	DWORD PTR tv64[rsp], eax
	call	?length@?$tvec3@M$0A@@glm@@SAHXZ	; glm::tvec3<float,0>::length
	mov	ecx, DWORD PTR tv64[rsp]
	cmp	ecx, eax
	je	SHORT $LN6@lessThan
	mov	r8d, 11
	lea	rdx, OFFSET FLAT:??_C@_1NA@OPABFNEN@?$AAC?$AA?3?$AA?2?$AAU?$AAs?$AAe?$AAr?$AAs?$AA?2?$AAk?$AAs?$AAa?$AAr?$AAt?$AA?2@
	lea	rcx, OFFSET FLAT:??_C@_1DC@HHLCGOLC@?$AAx?$AA?4?$AAl?$AAe?$AAn?$AAg?$AAt?$AAh?$AA?$CI?$AA?$CJ?$AA?5?$AA?$DN?$AA?$DN?$AA?5?$AAy@
	call	QWORD PTR __imp__wassert
	xor	eax, eax
$LN6@lessThan:

; 12   : 
; 13   : 		vecType<bool, P> Result(uninitialize);

	xor	edx, edx
	lea	rcx, QWORD PTR Result$[rsp]
	call	??0?$tvec3@_N$0A@@glm@@QEAA@W4ctor@1@@Z	; glm::tvec3<bool,0>::tvec3<bool,0>

; 14   : 		for(length_t i = 0; i < x.length(); ++i)

	mov	DWORD PTR i$4[rsp], 0
	jmp	SHORT $LN4@lessThan
$LN2@lessThan:
	mov	eax, DWORD PTR i$4[rsp]
	inc	eax
	mov	DWORD PTR i$4[rsp], eax
$LN4@lessThan:
	call	?length@?$tvec3@M$0A@@glm@@SAHXZ	; glm::tvec3<float,0>::length
	cmp	DWORD PTR i$4[rsp], eax
	jge	SHORT $LN3@lessThan

; 15   : 			Result[i] = x[i] < y[i];

	mov	edx, DWORD PTR i$4[rsp]
	mov	rcx, QWORD PTR x$[rsp]
	call	??A?$tvec3@M$0A@@glm@@QEBAAEBMH@Z	; glm::tvec3<float,0>::operator[]
	mov	QWORD PTR tv80[rsp], rax
	mov	edx, DWORD PTR i$4[rsp]
	mov	rcx, QWORD PTR y$[rsp]
	call	??A?$tvec3@M$0A@@glm@@QEBAAEBMH@Z	; glm::tvec3<float,0>::operator[]
	movss	xmm0, DWORD PTR [rax]
	mov	rax, QWORD PTR tv80[rsp]
	comiss	xmm0, DWORD PTR [rax]
	jbe	SHORT $LN7@lessThan
	mov	DWORD PTR tv86[rsp], 1
	jmp	SHORT $LN8@lessThan
$LN7@lessThan:
	mov	DWORD PTR tv86[rsp], 0
$LN8@lessThan:
	mov	edx, DWORD PTR i$4[rsp]
	lea	rcx, QWORD PTR Result$[rsp]
	call	??A?$tvec3@_N$0A@@glm@@QEAAAEA_NH@Z	; glm::tvec3<bool,0>::operator[]
	movzx	ecx, BYTE PTR tv86[rsp]
	mov	BYTE PTR [rax], cl
	jmp	SHORT $LN2@lessThan
$LN3@lessThan:

; 16   : 
; 17   : 		return Result;

	lea	rax, QWORD PTR Result$[rsp]
	mov	rdi, QWORD PTR __$ReturnUdt$[rsp]
	mov	rsi, rax
	mov	ecx, 3
	rep movsb
	mov	rax, QWORD PTR __$ReturnUdt$[rsp]

; 18   : 	}

	mov	rdi, rax
	mov	rcx, rsp
	lea	rdx, OFFSET FLAT:??$lessThan@M$0A@Utvec3@glm@@@glm@@YA?AU?$tvec3@_N$0A@@0@AEBU?$tvec3@M$0A@@0@0@Z$rtcFrameData
	call	_RTC_CheckStackVars
	mov	rax, rdi
	add	rsp, 88					; 00000058H
	pop	rdi
	pop	rsi
	ret	0
??$lessThan@M$0A@Utvec3@glm@@@glm@@YA?AU?$tvec3@_N$0A@@0@AEBU?$tvec3@M$0A@@0@0@Z ENDP ; glm::lessThan<float,0,glm::tvec3>
_TEXT	ENDS
; Function compile flags: /Odtp /RTCsu
; File C:\Users\ksart\OneDrive\Desktop\FlappyBird\libraries\external\glm\glm\detail\func_common.inl
;	COMDAT ??$abs@M$0A@Utvec3@glm@@@glm@@YA?AU?$tvec3@M$0A@@0@AEBU10@@Z
_TEXT	SEGMENT
__$ReturnUdt$ = 48
x$ = 56
??$abs@M$0A@Utvec3@glm@@@glm@@YA?AU?$tvec3@M$0A@@0@AEBU10@@Z PROC ; glm::abs<float,0,glm::tvec3>, COMDAT

; 316  : 	{

$LN3:
	mov	QWORD PTR [rsp+16], rdx
	mov	QWORD PTR [rsp+8], rcx
	push	rdi
	sub	rsp, 32					; 00000020H

; 317  : 		return detail::compute_abs_vector<T, P, vecType, detail::is_aligned<P>::value>::call(x);

	mov	rdx, QWORD PTR x$[rsp]
	mov	rcx, QWORD PTR __$ReturnUdt$[rsp]
	call	?call@?$compute_abs_vector@M$0A@Utvec3@glm@@$0A@@detail@glm@@SA?AU?$tvec3@M$0A@@3@AEBU43@@Z ; glm::detail::compute_abs_vector<float,0,glm::tvec3,0>::call
	mov	rax, QWORD PTR __$ReturnUdt$[rsp]

; 318  : 	}

	add	rsp, 32					; 00000020H
	pop	rdi
	ret	0
??$abs@M$0A@Utvec3@glm@@@glm@@YA?AU?$tvec3@M$0A@@0@AEBU10@@Z ENDP ; glm::abs<float,0,glm::tvec3>
_TEXT	ENDS
; Function compile flags: /Odtp /RTCsu
; File C:\Users\ksart\OneDrive\Desktop\FlappyBird\libraries\external\glm\glm\detail\type_vec3.inl
;	COMDAT ??$?GM$0A@@glm@@YA?AU?$tvec3@M$0A@@0@AEBU10@0@Z
_TEXT	SEGMENT
tv76 = 32
__$ReturnUdt$ = 64
v1$ = 72
v2$ = 80
??$?GM$0A@@glm@@YA?AU?$tvec3@M$0A@@0@AEBU10@0@Z PROC	; glm::operator-<float,0>, COMDAT

; 619  : 	{

$LN3:
	mov	QWORD PTR [rsp+24], r8
	mov	QWORD PTR [rsp+16], rdx
	mov	QWORD PTR [rsp+8], rcx
	push	rdi
	sub	rsp, 48					; 00000030H

; 620  : 		return tvec3<T, P>(

	mov	rax, QWORD PTR v1$[rsp]
	mov	rcx, QWORD PTR v2$[rsp]
	movss	xmm0, DWORD PTR [rax+8]
	subss	xmm0, DWORD PTR [rcx+8]
	mov	rax, QWORD PTR v1$[rsp]
	mov	rcx, QWORD PTR v2$[rsp]
	movss	xmm1, DWORD PTR [rax+4]
	subss	xmm1, DWORD PTR [rcx+4]
	mov	rax, QWORD PTR v1$[rsp]
	mov	rcx, QWORD PTR v2$[rsp]
	movss	xmm2, DWORD PTR [rax]
	subss	xmm2, DWORD PTR [rcx]
	movss	DWORD PTR tv76[rsp], xmm2
	movaps	xmm3, xmm0
	movaps	xmm2, xmm1
	movss	xmm0, DWORD PTR tv76[rsp]
	movaps	xmm1, xmm0
	mov	rcx, QWORD PTR __$ReturnUdt$[rsp]
	call	??0?$tvec3@M$0A@@glm@@QEAA@MMM@Z	; glm::tvec3<float,0>::tvec3<float,0>
	mov	rax, QWORD PTR __$ReturnUdt$[rsp]

; 621  : 			v1.x - v2.x,
; 622  : 			v1.y - v2.y,
; 623  : 			v1.z - v2.z);
; 624  : 	}

	add	rsp, 48					; 00000030H
	pop	rdi
	ret	0
??$?GM$0A@@glm@@YA?AU?$tvec3@M$0A@@0@AEBU10@0@Z ENDP	; glm::operator-<float,0>
_TEXT	ENDS
; Function compile flags: /Odtp /RTCsu
; File C:\Users\ksart\OneDrive\Desktop\FlappyBird\libraries\external\glm\glm\detail\func_vector_relational.inl
;	COMDAT ??$lessThan@M$0A@Utvec2@glm@@@glm@@YA?AU?$tvec2@_N$0A@@0@AEBU?$tvec2@M$0A@@0@0@Z
_TEXT	SEGMENT
Result$ = 36
i$4 = 52
tv64 = 56
tv80 = 64
tv86 = 72
__$ReturnUdt$ = 96
x$ = 104
y$ = 112
??$lessThan@M$0A@Utvec2@glm@@@glm@@YA?AU?$tvec2@_N$0A@@0@AEBU?$tvec2@M$0A@@0@0@Z PROC ; glm::lessThan<float,0,glm::tvec2>, COMDAT

; 10   : 	{

$LN9:
	mov	QWORD PTR [rsp+24], r8
	mov	QWORD PTR [rsp+16], rdx
	mov	QWORD PTR [rsp+8], rcx
	push	rdi
	sub	rsp, 80					; 00000050H
	lea	rdi, QWORD PTR [rsp+32]
	mov	ecx, 12
	mov	eax, -858993460				; ccccccccH
	rep stosd
	mov	rcx, QWORD PTR [rsp+96]

; 11   : 		assert(x.length() == y.length());

	call	?length@?$tvec2@M$0A@@glm@@SAHXZ	; glm::tvec2<float,0>::length
	mov	DWORD PTR tv64[rsp], eax
	call	?length@?$tvec2@M$0A@@glm@@SAHXZ	; glm::tvec2<float,0>::length
	mov	ecx, DWORD PTR tv64[rsp]
	cmp	ecx, eax
	je	SHORT $LN6@lessThan
	mov	r8d, 11
	lea	rdx, OFFSET FLAT:??_C@_1NA@OPABFNEN@?$AAC?$AA?3?$AA?2?$AAU?$AAs?$AAe?$AAr?$AAs?$AA?2?$AAk?$AAs?$AAa?$AAr?$AAt?$AA?2@
	lea	rcx, OFFSET FLAT:??_C@_1DC@HHLCGOLC@?$AAx?$AA?4?$AAl?$AAe?$AAn?$AAg?$AAt?$AAh?$AA?$CI?$AA?$CJ?$AA?5?$AA?$DN?$AA?$DN?$AA?5?$AAy@
	call	QWORD PTR __imp__wassert
	xor	eax, eax
$LN6@lessThan:

; 12   : 
; 13   : 		vecType<bool, P> Result(uninitialize);

	xor	edx, edx
	lea	rcx, QWORD PTR Result$[rsp]
	call	??0?$tvec2@_N$0A@@glm@@QEAA@W4ctor@1@@Z	; glm::tvec2<bool,0>::tvec2<bool,0>

; 14   : 		for(length_t i = 0; i < x.length(); ++i)

	mov	DWORD PTR i$4[rsp], 0
	jmp	SHORT $LN4@lessThan
$LN2@lessThan:
	mov	eax, DWORD PTR i$4[rsp]
	inc	eax
	mov	DWORD PTR i$4[rsp], eax
$LN4@lessThan:
	call	?length@?$tvec2@M$0A@@glm@@SAHXZ	; glm::tvec2<float,0>::length
	cmp	DWORD PTR i$4[rsp], eax
	jge	SHORT $LN3@lessThan

; 15   : 			Result[i] = x[i] < y[i];

	mov	edx, DWORD PTR i$4[rsp]
	mov	rcx, QWORD PTR x$[rsp]
	call	??A?$tvec2@M$0A@@glm@@QEBAAEBMH@Z	; glm::tvec2<float,0>::operator[]
	mov	QWORD PTR tv80[rsp], rax
	mov	edx, DWORD PTR i$4[rsp]
	mov	rcx, QWORD PTR y$[rsp]
	call	??A?$tvec2@M$0A@@glm@@QEBAAEBMH@Z	; glm::tvec2<float,0>::operator[]
	movss	xmm0, DWORD PTR [rax]
	mov	rax, QWORD PTR tv80[rsp]
	comiss	xmm0, DWORD PTR [rax]
	jbe	SHORT $LN7@lessThan
	mov	DWORD PTR tv86[rsp], 1
	jmp	SHORT $LN8@lessThan
$LN7@lessThan:
	mov	DWORD PTR tv86[rsp], 0
$LN8@lessThan:
	mov	edx, DWORD PTR i$4[rsp]
	lea	rcx, QWORD PTR Result$[rsp]
	call	??A?$tvec2@_N$0A@@glm@@QEAAAEA_NH@Z	; glm::tvec2<bool,0>::operator[]
	movzx	ecx, BYTE PTR tv86[rsp]
	mov	BYTE PTR [rax], cl
	jmp	SHORT $LN2@lessThan
$LN3@lessThan:

; 16   : 
; 17   : 		return Result;

	mov	rax, QWORD PTR __$ReturnUdt$[rsp]
	movzx	ecx, WORD PTR Result$[rsp]
	mov	WORD PTR [rax], cx
	mov	rax, QWORD PTR __$ReturnUdt$[rsp]

; 18   : 	}

	mov	rdi, rax
	mov	rcx, rsp
	lea	rdx, OFFSET FLAT:??$lessThan@M$0A@Utvec2@glm@@@glm@@YA?AU?$tvec2@_N$0A@@0@AEBU?$tvec2@M$0A@@0@0@Z$rtcFrameData
	call	_RTC_CheckStackVars
	mov	rax, rdi
	add	rsp, 80					; 00000050H
	pop	rdi
	ret	0
??$lessThan@M$0A@Utvec2@glm@@@glm@@YA?AU?$tvec2@_N$0A@@0@AEBU?$tvec2@M$0A@@0@0@Z ENDP ; glm::lessThan<float,0,glm::tvec2>
_TEXT	ENDS
; Function compile flags: /Odtp /RTCsu
; File C:\Users\ksart\OneDrive\Desktop\FlappyBird\libraries\external\glm\glm\detail\func_common.inl
;	COMDAT ??$abs@M$0A@Utvec2@glm@@@glm@@YA?AU?$tvec2@M$0A@@0@AEBU10@@Z
_TEXT	SEGMENT
__$ReturnUdt$ = 48
x$ = 56
??$abs@M$0A@Utvec2@glm@@@glm@@YA?AU?$tvec2@M$0A@@0@AEBU10@@Z PROC ; glm::abs<float,0,glm::tvec2>, COMDAT

; 316  : 	{

$LN3:
	mov	QWORD PTR [rsp+16], rdx
	mov	QWORD PTR [rsp+8], rcx
	push	rdi
	sub	rsp, 32					; 00000020H

; 317  : 		return detail::compute_abs_vector<T, P, vecType, detail::is_aligned<P>::value>::call(x);

	mov	rdx, QWORD PTR x$[rsp]
	mov	rcx, QWORD PTR __$ReturnUdt$[rsp]
	call	?call@?$compute_abs_vector@M$0A@Utvec2@glm@@$0A@@detail@glm@@SA?AU?$tvec2@M$0A@@3@AEBU43@@Z ; glm::detail::compute_abs_vector<float,0,glm::tvec2,0>::call
	mov	rax, QWORD PTR __$ReturnUdt$[rsp]

; 318  : 	}

	add	rsp, 32					; 00000020H
	pop	rdi
	ret	0
??$abs@M$0A@Utvec2@glm@@@glm@@YA?AU?$tvec2@M$0A@@0@AEBU10@@Z ENDP ; glm::abs<float,0,glm::tvec2>
_TEXT	ENDS
; Function compile flags: /Odtp /RTCsu
; File C:\Users\ksart\OneDrive\Desktop\FlappyBird\libraries\external\glm\glm\detail\type_vec2.inl
;	COMDAT ??$?GM$0A@@glm@@YA?AU?$tvec2@M$0A@@0@AEBU10@0@Z
_TEXT	SEGMENT
__$ReturnUdt$ = 48
v1$ = 56
v2$ = 64
??$?GM$0A@@glm@@YA?AU?$tvec2@M$0A@@0@AEBU10@0@Z PROC	; glm::operator-<float,0>, COMDAT

; 533  : 	{

$LN3:
	mov	QWORD PTR [rsp+24], r8
	mov	QWORD PTR [rsp+16], rdx
	mov	QWORD PTR [rsp+8], rcx
	push	rdi
	sub	rsp, 32					; 00000020H

; 534  : 		return tvec2<T, P>(

	mov	rax, QWORD PTR v1$[rsp]
	mov	rcx, QWORD PTR v2$[rsp]
	movss	xmm0, DWORD PTR [rax+4]
	subss	xmm0, DWORD PTR [rcx+4]
	mov	rax, QWORD PTR v1$[rsp]
	mov	rcx, QWORD PTR v2$[rsp]
	movss	xmm1, DWORD PTR [rax]
	subss	xmm1, DWORD PTR [rcx]
	movaps	xmm2, xmm0
	mov	rcx, QWORD PTR __$ReturnUdt$[rsp]
	call	??0?$tvec2@M$0A@@glm@@QEAA@MM@Z		; glm::tvec2<float,0>::tvec2<float,0>
	mov	rax, QWORD PTR __$ReturnUdt$[rsp]

; 535  : 			v1.x - v2.x,
; 536  : 			v1.y - v2.y);
; 537  : 	}

	add	rsp, 32					; 00000020H
	pop	rdi
	ret	0
??$?GM$0A@@glm@@YA?AU?$tvec2@M$0A@@0@AEBU10@0@Z ENDP	; glm::operator-<float,0>
_TEXT	ENDS
; Function compile flags: /Odtp /RTCsu
; File C:\Users\ksart\OneDrive\Desktop\FlappyBird\libraries\external\glm\glm\detail\func_common.inl
;	COMDAT ?call@?$compute_abs@N$00@detail@glm@@SANN@Z
_TEXT	SEGMENT
tv66 = 16
x$ = 48
?call@?$compute_abs@N$00@detail@glm@@SANN@Z PROC	; glm::detail::compute_abs<double,1>::call, COMDAT

; 77   : 		{

$LN5:
	movsd	QWORD PTR [rsp+8], xmm0
	push	rdi
	sub	rsp, 32					; 00000020H

; 78   : 			GLM_STATIC_ASSERT(
; 79   : 				std::numeric_limits<genFIType>::is_iec559 || std::numeric_limits<genFIType>::is_signed || GLM_UNRESTRICTED_GENTYPE,
; 80   : 				"'abs' only accept floating-point and integer scalar or vector inputs");
; 81   : 
; 82   : 			return x >= genFIType(0) ? x : -x;

	movsd	xmm0, QWORD PTR x$[rsp]
	comisd	xmm0, QWORD PTR __real@0000000000000000
	jb	SHORT $LN3@call
	movsd	xmm0, QWORD PTR x$[rsp]
	movsd	QWORD PTR tv66[rsp], xmm0
	jmp	SHORT $LN4@call
$LN3@call:
	movsd	xmm0, QWORD PTR x$[rsp]
	xorps	xmm0, QWORD PTR __xmm@80000000000000008000000000000000
	movsd	QWORD PTR tv66[rsp], xmm0
$LN4@call:
	movsd	xmm0, QWORD PTR tv66[rsp]

; 83   : 			// TODO, perf comp with: *(((int *) &x) + 1) &= 0x7fffffff;
; 84   : 		}

	add	rsp, 32					; 00000020H
	pop	rdi
	ret	0
?call@?$compute_abs@N$00@detail@glm@@SANN@Z ENDP	; glm::detail::compute_abs<double,1>::call
_TEXT	ENDS
; Function compile flags: /Odtp /RTCsu
; File C:\Users\ksart\OneDrive\Desktop\FlappyBird\libraries\external\glm\glm\detail\func_common.inl
;	COMDAT ?call@?$compute_abs@M$00@detail@glm@@SAMM@Z
_TEXT	SEGMENT
tv66 = 16
x$ = 48
?call@?$compute_abs@M$00@detail@glm@@SAMM@Z PROC	; glm::detail::compute_abs<float,1>::call, COMDAT

; 77   : 		{

$LN5:
	movss	DWORD PTR [rsp+8], xmm0
	push	rdi
	sub	rsp, 32					; 00000020H

; 78   : 			GLM_STATIC_ASSERT(
; 79   : 				std::numeric_limits<genFIType>::is_iec559 || std::numeric_limits<genFIType>::is_signed || GLM_UNRESTRICTED_GENTYPE,
; 80   : 				"'abs' only accept floating-point and integer scalar or vector inputs");
; 81   : 
; 82   : 			return x >= genFIType(0) ? x : -x;

	movss	xmm0, DWORD PTR x$[rsp]
	comiss	xmm0, DWORD PTR __real@00000000
	jb	SHORT $LN3@call
	movss	xmm0, DWORD PTR x$[rsp]
	movss	DWORD PTR tv66[rsp], xmm0
	jmp	SHORT $LN4@call
$LN3@call:
	movss	xmm0, DWORD PTR x$[rsp]
	xorps	xmm0, DWORD PTR __xmm@80000000800000008000000080000000
	movss	DWORD PTR tv66[rsp], xmm0
$LN4@call:
	movss	xmm0, DWORD PTR tv66[rsp]

; 83   : 			// TODO, perf comp with: *(((int *) &x) + 1) &= 0x7fffffff;
; 84   : 		}

	add	rsp, 32					; 00000020H
	pop	rdi
	ret	0
?call@?$compute_abs@M$00@detail@glm@@SAMM@Z ENDP	; glm::detail::compute_abs<float,1>::call
_TEXT	ENDS
; Function compile flags: /Odtp /RTCsu
; File C:\Users\ksart\OneDrive\Desktop\FlappyBird\libraries\external\glm\test\gtc\gtc_epsilon.cpp
;	COMDAT ??$test_equal@N@@YAHXZ
_TEXT	SEGMENT
Error$ = 32
A$13 = 56
B$14 = 88
A$15 = 120
B$16 = 152
A$17 = 184
B$18 = 216
A$19 = 248
B$20 = 280
A$21 = 312
B$22 = 344
$T23 = 360
$T24 = 368
$T25 = 376
$T26 = 384
$T27 = 392
tv74 = 400
tv86 = 404
tv130 = 408
tv142 = 412
tv154 = 416
??$test_equal@N@@YAHXZ PROC				; test_equal<double>, COMDAT

; 30   : {

$LN13:
	push	rdi
	sub	rsp, 432				; 000001b0H
	lea	rdi, QWORD PTR [rsp+32]
	mov	ecx, 100				; 00000064H
	mov	eax, -858993460				; ccccccccH
	rep stosd

; 31   : 	int Error(0);

	mov	DWORD PTR Error$[rsp], 0

; 32   : 	
; 33   : 	{
; 34   : 		T A = glm::epsilon<T>();

	call	??$epsilon@N@glm@@YANXZ			; glm::epsilon<double>
	movsd	QWORD PTR A$13[rsp], xmm0

; 35   : 		T B = glm::epsilon<T>();

	call	??$epsilon@N@glm@@YANXZ			; glm::epsilon<double>
	movsd	QWORD PTR B$14[rsp], xmm0

; 36   : 		Error += glm::epsilonEqual(A, B, glm::epsilon<T>() * T(2)) ? 0 : 1;

	call	??$epsilon@N@glm@@YANXZ			; glm::epsilon<double>
	mulsd	xmm0, QWORD PTR __real@4000000000000000
	movsd	QWORD PTR $T23[rsp], xmm0
	lea	r8, QWORD PTR $T23[rsp]
	lea	rdx, QWORD PTR B$14[rsp]
	lea	rcx, QWORD PTR A$13[rsp]
	call	??$epsilonEqual@N@glm@@YA_NAEBN00@Z	; glm::epsilonEqual<double>
	movzx	eax, al
	test	eax, eax
	je	SHORT $LN3@test_equal
	mov	DWORD PTR tv74[rsp], 0
	jmp	SHORT $LN4@test_equal
$LN3@test_equal:
	mov	DWORD PTR tv74[rsp], 1
$LN4@test_equal:
	mov	eax, DWORD PTR tv74[rsp]
	mov	ecx, DWORD PTR Error$[rsp]
	add	ecx, eax
	mov	eax, ecx
	mov	DWORD PTR Error$[rsp], eax

; 37   : 	}
; 38   : 
; 39   : 	{
; 40   : 		T A(0);

	xorps	xmm0, xmm0
	movsd	QWORD PTR A$15[rsp], xmm0

; 41   : 		T B = static_cast<T>(0) + glm::epsilon<T>();

	call	??$epsilon@N@glm@@YANXZ			; glm::epsilon<double>
	xorps	xmm1, xmm1
	addsd	xmm1, xmm0
	movaps	xmm0, xmm1
	movsd	QWORD PTR B$16[rsp], xmm0

; 42   : 		Error += glm::epsilonEqual(A, B, glm::epsilon<T>() * T(2)) ? 0 : 1;

	call	??$epsilon@N@glm@@YANXZ			; glm::epsilon<double>
	mulsd	xmm0, QWORD PTR __real@4000000000000000
	movsd	QWORD PTR $T24[rsp], xmm0
	lea	r8, QWORD PTR $T24[rsp]
	lea	rdx, QWORD PTR B$16[rsp]
	lea	rcx, QWORD PTR A$15[rsp]
	call	??$epsilonEqual@N@glm@@YA_NAEBN00@Z	; glm::epsilonEqual<double>
	movzx	eax, al
	test	eax, eax
	je	SHORT $LN5@test_equal
	mov	DWORD PTR tv86[rsp], 0
	jmp	SHORT $LN6@test_equal
$LN5@test_equal:
	mov	DWORD PTR tv86[rsp], 1
$LN6@test_equal:
	mov	eax, DWORD PTR tv86[rsp]
	mov	ecx, DWORD PTR Error$[rsp]
	add	ecx, eax
	mov	eax, ecx
	mov	DWORD PTR Error$[rsp], eax

; 43   : 	}
; 44   : 
; 45   : 	{
; 46   : 		T A(0);

	xorps	xmm0, xmm0
	movsd	QWORD PTR A$17[rsp], xmm0

; 47   : 		T B = static_cast<T>(0) - glm::epsilon<T>();

	call	??$epsilon@N@glm@@YANXZ			; glm::epsilon<double>
	xorps	xmm1, xmm1
	subsd	xmm1, xmm0
	movaps	xmm0, xmm1
	movsd	QWORD PTR B$18[rsp], xmm0

; 48   : 		Error += glm::epsilonEqual(A, B, glm::epsilon<T>() * T(2)) ? 0 : 1;

	call	??$epsilon@N@glm@@YANXZ			; glm::epsilon<double>
	mulsd	xmm0, QWORD PTR __real@4000000000000000
	movsd	QWORD PTR $T25[rsp], xmm0
	lea	r8, QWORD PTR $T25[rsp]
	lea	rdx, QWORD PTR B$18[rsp]
	lea	rcx, QWORD PTR A$17[rsp]
	call	??$epsilonEqual@N@glm@@YA_NAEBN00@Z	; glm::epsilonEqual<double>
	movzx	eax, al
	test	eax, eax
	je	SHORT $LN7@test_equal
	mov	DWORD PTR tv130[rsp], 0
	jmp	SHORT $LN8@test_equal
$LN7@test_equal:
	mov	DWORD PTR tv130[rsp], 1
$LN8@test_equal:
	mov	eax, DWORD PTR tv130[rsp]
	mov	ecx, DWORD PTR Error$[rsp]
	add	ecx, eax
	mov	eax, ecx
	mov	DWORD PTR Error$[rsp], eax

; 49   : 	}
; 50   : 
; 51   : 	{
; 52   : 		T A = static_cast<T>(0) + glm::epsilon<T>();

	call	??$epsilon@N@glm@@YANXZ			; glm::epsilon<double>
	xorps	xmm1, xmm1
	addsd	xmm1, xmm0
	movaps	xmm0, xmm1
	movsd	QWORD PTR A$19[rsp], xmm0

; 53   : 		T B = static_cast<T>(0);

	xorps	xmm0, xmm0
	movsd	QWORD PTR B$20[rsp], xmm0

; 54   : 		Error += glm::epsilonEqual(A, B, glm::epsilon<T>() * T(2)) ? 0 : 1;

	call	??$epsilon@N@glm@@YANXZ			; glm::epsilon<double>
	mulsd	xmm0, QWORD PTR __real@4000000000000000
	movsd	QWORD PTR $T26[rsp], xmm0
	lea	r8, QWORD PTR $T26[rsp]
	lea	rdx, QWORD PTR B$20[rsp]
	lea	rcx, QWORD PTR A$19[rsp]
	call	??$epsilonEqual@N@glm@@YA_NAEBN00@Z	; glm::epsilonEqual<double>
	movzx	eax, al
	test	eax, eax
	je	SHORT $LN9@test_equal
	mov	DWORD PTR tv142[rsp], 0
	jmp	SHORT $LN10@test_equal
$LN9@test_equal:
	mov	DWORD PTR tv142[rsp], 1
$LN10@test_equal:
	mov	eax, DWORD PTR tv142[rsp]
	mov	ecx, DWORD PTR Error$[rsp]
	add	ecx, eax
	mov	eax, ecx
	mov	DWORD PTR Error$[rsp], eax

; 55   : 	}
; 56   : 
; 57   : 	{
; 58   : 		T A = static_cast<T>(0) - glm::epsilon<T>();

	call	??$epsilon@N@glm@@YANXZ			; glm::epsilon<double>
	xorps	xmm1, xmm1
	subsd	xmm1, xmm0
	movaps	xmm0, xmm1
	movsd	QWORD PTR A$21[rsp], xmm0

; 59   : 		T B = static_cast<T>(0);

	xorps	xmm0, xmm0
	movsd	QWORD PTR B$22[rsp], xmm0

; 60   : 		Error += glm::epsilonEqual(A, B, glm::epsilon<T>() * T(2)) ? 0 : 1;

	call	??$epsilon@N@glm@@YANXZ			; glm::epsilon<double>
	mulsd	xmm0, QWORD PTR __real@4000000000000000
	movsd	QWORD PTR $T27[rsp], xmm0
	lea	r8, QWORD PTR $T27[rsp]
	lea	rdx, QWORD PTR B$22[rsp]
	lea	rcx, QWORD PTR A$21[rsp]
	call	??$epsilonEqual@N@glm@@YA_NAEBN00@Z	; glm::epsilonEqual<double>
	movzx	eax, al
	test	eax, eax
	je	SHORT $LN11@test_equal
	mov	DWORD PTR tv154[rsp], 0
	jmp	SHORT $LN12@test_equal
$LN11@test_equal:
	mov	DWORD PTR tv154[rsp], 1
$LN12@test_equal:
	mov	eax, DWORD PTR tv154[rsp]
	mov	ecx, DWORD PTR Error$[rsp]
	add	ecx, eax
	mov	eax, ecx
	mov	DWORD PTR Error$[rsp], eax

; 61   : 	}
; 62   : 
; 63   : 	return Error;

	mov	eax, DWORD PTR Error$[rsp]

; 64   : }

	mov	edi, eax
	mov	rcx, rsp
	lea	rdx, OFFSET FLAT:??$test_equal@N@@YAHXZ$rtcFrameData
	call	_RTC_CheckStackVars
	mov	eax, edi
	add	rsp, 432				; 000001b0H
	pop	rdi
	ret	0
??$test_equal@N@@YAHXZ ENDP				; test_equal<double>
_TEXT	ENDS
; Function compile flags: /Odtp /RTCsu
; File C:\Users\ksart\OneDrive\Desktop\FlappyBird\libraries\external\glm\test\gtc\gtc_epsilon.cpp
;	COMDAT ??$test_equal@M@@YAHXZ
_TEXT	SEGMENT
Error$ = 32
A$13 = 52
B$14 = 84
A$15 = 116
B$16 = 148
A$17 = 180
B$18 = 212
A$19 = 244
B$20 = 276
A$21 = 308
B$22 = 340
$T23 = 356
$T24 = 360
$T25 = 364
$T26 = 368
$T27 = 372
tv74 = 376
tv86 = 380
tv130 = 384
tv142 = 388
tv154 = 392
??$test_equal@M@@YAHXZ PROC				; test_equal<float>, COMDAT

; 30   : {

$LN13:
	push	rdi
	sub	rsp, 400				; 00000190H
	lea	rdi, QWORD PTR [rsp+32]
	mov	ecx, 92					; 0000005cH
	mov	eax, -858993460				; ccccccccH
	rep stosd

; 31   : 	int Error(0);

	mov	DWORD PTR Error$[rsp], 0

; 32   : 	
; 33   : 	{
; 34   : 		T A = glm::epsilon<T>();

	call	??$epsilon@M@glm@@YAMXZ			; glm::epsilon<float>
	movss	DWORD PTR A$13[rsp], xmm0

; 35   : 		T B = glm::epsilon<T>();

	call	??$epsilon@M@glm@@YAMXZ			; glm::epsilon<float>
	movss	DWORD PTR B$14[rsp], xmm0

; 36   : 		Error += glm::epsilonEqual(A, B, glm::epsilon<T>() * T(2)) ? 0 : 1;

	call	??$epsilon@M@glm@@YAMXZ			; glm::epsilon<float>
	mulss	xmm0, DWORD PTR __real@40000000
	movss	DWORD PTR $T23[rsp], xmm0
	lea	r8, QWORD PTR $T23[rsp]
	lea	rdx, QWORD PTR B$14[rsp]
	lea	rcx, QWORD PTR A$13[rsp]
	call	??$epsilonEqual@M@glm@@YA_NAEBM00@Z	; glm::epsilonEqual<float>
	movzx	eax, al
	test	eax, eax
	je	SHORT $LN3@test_equal
	mov	DWORD PTR tv74[rsp], 0
	jmp	SHORT $LN4@test_equal
$LN3@test_equal:
	mov	DWORD PTR tv74[rsp], 1
$LN4@test_equal:
	mov	eax, DWORD PTR tv74[rsp]
	mov	ecx, DWORD PTR Error$[rsp]
	add	ecx, eax
	mov	eax, ecx
	mov	DWORD PTR Error$[rsp], eax

; 37   : 	}
; 38   : 
; 39   : 	{
; 40   : 		T A(0);

	xorps	xmm0, xmm0
	movss	DWORD PTR A$15[rsp], xmm0

; 41   : 		T B = static_cast<T>(0) + glm::epsilon<T>();

	call	??$epsilon@M@glm@@YAMXZ			; glm::epsilon<float>
	xorps	xmm1, xmm1
	addss	xmm1, xmm0
	movaps	xmm0, xmm1
	movss	DWORD PTR B$16[rsp], xmm0

; 42   : 		Error += glm::epsilonEqual(A, B, glm::epsilon<T>() * T(2)) ? 0 : 1;

	call	??$epsilon@M@glm@@YAMXZ			; glm::epsilon<float>
	mulss	xmm0, DWORD PTR __real@40000000
	movss	DWORD PTR $T24[rsp], xmm0
	lea	r8, QWORD PTR $T24[rsp]
	lea	rdx, QWORD PTR B$16[rsp]
	lea	rcx, QWORD PTR A$15[rsp]
	call	??$epsilonEqual@M@glm@@YA_NAEBM00@Z	; glm::epsilonEqual<float>
	movzx	eax, al
	test	eax, eax
	je	SHORT $LN5@test_equal
	mov	DWORD PTR tv86[rsp], 0
	jmp	SHORT $LN6@test_equal
$LN5@test_equal:
	mov	DWORD PTR tv86[rsp], 1
$LN6@test_equal:
	mov	eax, DWORD PTR tv86[rsp]
	mov	ecx, DWORD PTR Error$[rsp]
	add	ecx, eax
	mov	eax, ecx
	mov	DWORD PTR Error$[rsp], eax

; 43   : 	}
; 44   : 
; 45   : 	{
; 46   : 		T A(0);

	xorps	xmm0, xmm0
	movss	DWORD PTR A$17[rsp], xmm0

; 47   : 		T B = static_cast<T>(0) - glm::epsilon<T>();

	call	??$epsilon@M@glm@@YAMXZ			; glm::epsilon<float>
	xorps	xmm1, xmm1
	subss	xmm1, xmm0
	movaps	xmm0, xmm1
	movss	DWORD PTR B$18[rsp], xmm0

; 48   : 		Error += glm::epsilonEqual(A, B, glm::epsilon<T>() * T(2)) ? 0 : 1;

	call	??$epsilon@M@glm@@YAMXZ			; glm::epsilon<float>
	mulss	xmm0, DWORD PTR __real@40000000
	movss	DWORD PTR $T25[rsp], xmm0
	lea	r8, QWORD PTR $T25[rsp]
	lea	rdx, QWORD PTR B$18[rsp]
	lea	rcx, QWORD PTR A$17[rsp]
	call	??$epsilonEqual@M@glm@@YA_NAEBM00@Z	; glm::epsilonEqual<float>
	movzx	eax, al
	test	eax, eax
	je	SHORT $LN7@test_equal
	mov	DWORD PTR tv130[rsp], 0
	jmp	SHORT $LN8@test_equal
$LN7@test_equal:
	mov	DWORD PTR tv130[rsp], 1
$LN8@test_equal:
	mov	eax, DWORD PTR tv130[rsp]
	mov	ecx, DWORD PTR Error$[rsp]
	add	ecx, eax
	mov	eax, ecx
	mov	DWORD PTR Error$[rsp], eax

; 49   : 	}
; 50   : 
; 51   : 	{
; 52   : 		T A = static_cast<T>(0) + glm::epsilon<T>();

	call	??$epsilon@M@glm@@YAMXZ			; glm::epsilon<float>
	xorps	xmm1, xmm1
	addss	xmm1, xmm0
	movaps	xmm0, xmm1
	movss	DWORD PTR A$19[rsp], xmm0

; 53   : 		T B = static_cast<T>(0);

	xorps	xmm0, xmm0
	movss	DWORD PTR B$20[rsp], xmm0

; 54   : 		Error += glm::epsilonEqual(A, B, glm::epsilon<T>() * T(2)) ? 0 : 1;

	call	??$epsilon@M@glm@@YAMXZ			; glm::epsilon<float>
	mulss	xmm0, DWORD PTR __real@40000000
	movss	DWORD PTR $T26[rsp], xmm0
	lea	r8, QWORD PTR $T26[rsp]
	lea	rdx, QWORD PTR B$20[rsp]
	lea	rcx, QWORD PTR A$19[rsp]
	call	??$epsilonEqual@M@glm@@YA_NAEBM00@Z	; glm::epsilonEqual<float>
	movzx	eax, al
	test	eax, eax
	je	SHORT $LN9@test_equal
	mov	DWORD PTR tv142[rsp], 0
	jmp	SHORT $LN10@test_equal
$LN9@test_equal:
	mov	DWORD PTR tv142[rsp], 1
$LN10@test_equal:
	mov	eax, DWORD PTR tv142[rsp]
	mov	ecx, DWORD PTR Error$[rsp]
	add	ecx, eax
	mov	eax, ecx
	mov	DWORD PTR Error$[rsp], eax

; 55   : 	}
; 56   : 
; 57   : 	{
; 58   : 		T A = static_cast<T>(0) - glm::epsilon<T>();

	call	??$epsilon@M@glm@@YAMXZ			; glm::epsilon<float>
	xorps	xmm1, xmm1
	subss	xmm1, xmm0
	movaps	xmm0, xmm1
	movss	DWORD PTR A$21[rsp], xmm0

; 59   : 		T B = static_cast<T>(0);

	xorps	xmm0, xmm0
	movss	DWORD PTR B$22[rsp], xmm0

; 60   : 		Error += glm::epsilonEqual(A, B, glm::epsilon<T>() * T(2)) ? 0 : 1;

	call	??$epsilon@M@glm@@YAMXZ			; glm::epsilon<float>
	mulss	xmm0, DWORD PTR __real@40000000
	movss	DWORD PTR $T27[rsp], xmm0
	lea	r8, QWORD PTR $T27[rsp]
	lea	rdx, QWORD PTR B$22[rsp]
	lea	rcx, QWORD PTR A$21[rsp]
	call	??$epsilonEqual@M@glm@@YA_NAEBM00@Z	; glm::epsilonEqual<float>
	movzx	eax, al
	test	eax, eax
	je	SHORT $LN11@test_equal
	mov	DWORD PTR tv154[rsp], 0
	jmp	SHORT $LN12@test_equal
$LN11@test_equal:
	mov	DWORD PTR tv154[rsp], 1
$LN12@test_equal:
	mov	eax, DWORD PTR tv154[rsp]
	mov	ecx, DWORD PTR Error$[rsp]
	add	ecx, eax
	mov	eax, ecx
	mov	DWORD PTR Error$[rsp], eax

; 61   : 	}
; 62   : 
; 63   : 	return Error;

	mov	eax, DWORD PTR Error$[rsp]

; 64   : }

	mov	edi, eax
	mov	rcx, rsp
	lea	rdx, OFFSET FLAT:??$test_equal@M@@YAHXZ$rtcFrameData
	call	_RTC_CheckStackVars
	mov	eax, edi
	add	rsp, 400				; 00000190H
	pop	rdi
	ret	0
??$test_equal@M@@YAHXZ ENDP				; test_equal<float>
_TEXT	ENDS
; Function compile flags: /Odtp /RTCsu
; File C:\Users\ksart\OneDrive\Desktop\FlappyBird\libraries\external\glm\test\gtc\gtc_epsilon.cpp
_TEXT	SEGMENT
Error$ = 32
main	PROC

; 67   : {

$LN3:
	push	rdi
	sub	rsp, 48					; 00000030H

; 68   : 	int Error(0);

	mov	DWORD PTR Error$[rsp], 0

; 69   : 
; 70   : 	Error += test_defined();

	call	?test_defined@@YAHXZ			; test_defined
	mov	ecx, DWORD PTR Error$[rsp]
	add	ecx, eax
	mov	eax, ecx
	mov	DWORD PTR Error$[rsp], eax

; 71   : 	Error += test_equal<float>();

	call	??$test_equal@M@@YAHXZ			; test_equal<float>
	mov	ecx, DWORD PTR Error$[rsp]
	add	ecx, eax
	mov	eax, ecx
	mov	DWORD PTR Error$[rsp], eax

; 72   : 	Error += test_equal<double>();

	call	??$test_equal@N@@YAHXZ			; test_equal<double>
	mov	ecx, DWORD PTR Error$[rsp]
	add	ecx, eax
	mov	eax, ecx
	mov	DWORD PTR Error$[rsp], eax

; 73   : 
; 74   : 	return Error;

	mov	eax, DWORD PTR Error$[rsp]

; 75   : }

	add	rsp, 48					; 00000030H
	pop	rdi
	ret	0
main	ENDP
_TEXT	ENDS
; Function compile flags: /Odtp /RTCsu
; File C:\Users\ksart\OneDrive\Desktop\FlappyBird\libraries\external\glm\glm\gtc\epsilon.inl
;	COMDAT ??$epsilonNotEqual@M$0A@@glm@@YA?AU?$tvec4@_N$0A@@0@AEBU?$tquat@M$0A@@0@0AEBM@Z
_TEXT	SEGMENT
v$ = 56
$T4 = 84
$T5 = 100
tv80 = 116
tv83 = 120
__$ReturnUdt$ = 144
x$ = 152
y$ = 160
epsilon$ = 168
??$epsilonNotEqual@M$0A@@glm@@YA?AU?$tvec4@_N$0A@@0@AEBU?$tquat@M$0A@@0@0AEBM@Z PROC ; glm::epsilonNotEqual<float,0>, COMDAT

; 121  : 	{

$LN3:
	mov	QWORD PTR [rsp+32], r9
	mov	QWORD PTR [rsp+24], r8
	mov	QWORD PTR [rsp+16], rdx
	mov	QWORD PTR [rsp+8], rcx
	push	rdi
	sub	rsp, 128				; 00000080H
	lea	rdi, QWORD PTR [rsp+48]
	mov	ecx, 20
	mov	eax, -858993460				; ccccccccH
	rep stosd
	mov	rcx, QWORD PTR [rsp+144]

; 122  : 		tvec4<T, P> v(x.x - y.x, x.y - y.y, x.z - y.z, x.w - y.w);

	mov	rax, QWORD PTR x$[rsp]
	mov	rcx, QWORD PTR y$[rsp]
	movss	xmm0, DWORD PTR [rax+12]
	subss	xmm0, DWORD PTR [rcx+12]
	mov	rax, QWORD PTR x$[rsp]
	mov	rcx, QWORD PTR y$[rsp]
	movss	xmm1, DWORD PTR [rax+8]
	subss	xmm1, DWORD PTR [rcx+8]
	mov	rax, QWORD PTR x$[rsp]
	mov	rcx, QWORD PTR y$[rsp]
	movss	xmm2, DWORD PTR [rax+4]
	subss	xmm2, DWORD PTR [rcx+4]
	mov	rax, QWORD PTR x$[rsp]
	mov	rcx, QWORD PTR y$[rsp]
	movss	xmm3, DWORD PTR [rax]
	subss	xmm3, DWORD PTR [rcx]
	movss	DWORD PTR tv80[rsp], xmm3
	movss	DWORD PTR [rsp+32], xmm0
	movaps	xmm3, xmm1
	movss	xmm0, DWORD PTR tv80[rsp]
	movaps	xmm1, xmm0
	lea	rcx, QWORD PTR v$[rsp]
	call	??0?$tvec4@M$0A@@glm@@QEAA@MMMM@Z	; glm::tvec4<float,0>::tvec4<float,0>

; 123  : 		return greaterThanEqual(abs(v), tvec4<T, P>(epsilon));

	mov	rax, QWORD PTR epsilon$[rsp]
	movss	xmm1, DWORD PTR [rax]
	lea	rcx, QWORD PTR $T4[rsp]
	call	??0?$tvec4@M$0A@@glm@@QEAA@M@Z		; glm::tvec4<float,0>::tvec4<float,0>
	mov	QWORD PTR tv83[rsp], rax
	lea	rdx, QWORD PTR v$[rsp]
	lea	rcx, QWORD PTR $T5[rsp]
	call	??$abs@M$0A@Utvec4@glm@@@glm@@YA?AU?$tvec4@M$0A@@0@AEBU10@@Z ; glm::abs<float,0,glm::tvec4>
	mov	rcx, QWORD PTR tv83[rsp]
	mov	r8, rcx
	mov	rdx, rax
	mov	rcx, QWORD PTR __$ReturnUdt$[rsp]
	call	??$greaterThanEqual@M$0A@Utvec4@glm@@@glm@@YA?AU?$tvec4@_N$0A@@0@AEBU?$tvec4@M$0A@@0@0@Z ; glm::greaterThanEqual<float,0,glm::tvec4>
	mov	rax, QWORD PTR __$ReturnUdt$[rsp]

; 124  : 	}

	mov	rdi, rax
	mov	rcx, rsp
	lea	rdx, OFFSET FLAT:??$epsilonNotEqual@M$0A@@glm@@YA?AU?$tvec4@_N$0A@@0@AEBU?$tquat@M$0A@@0@0AEBM@Z$rtcFrameData
	call	_RTC_CheckStackVars
	mov	rax, rdi
	add	rsp, 128				; 00000080H
	pop	rdi
	ret	0
??$epsilonNotEqual@M$0A@@glm@@YA?AU?$tvec4@_N$0A@@0@AEBU?$tquat@M$0A@@0@0AEBM@Z ENDP ; glm::epsilonNotEqual<float,0>
_TEXT	ENDS
; Function compile flags: /Odtp /RTCsu
; File C:\Users\ksart\OneDrive\Desktop\FlappyBird\libraries\external\glm\glm\gtc\epsilon.inl
;	COMDAT ??$epsilonNotEqual@M$0A@Utvec4@glm@@@glm@@YA?AU?$tvec4@_N$0A@@0@AEBU?$tvec4@M$0A@@0@0AEBM@Z
_TEXT	SEGMENT
$T1 = 32
$T2 = 48
$T3 = 64
tv66 = 80
__$ReturnUdt$ = 112
x$ = 120
y$ = 128
epsilon$ = 136
??$epsilonNotEqual@M$0A@Utvec4@glm@@@glm@@YA?AU?$tvec4@_N$0A@@0@AEBU?$tvec4@M$0A@@0@0AEBM@Z PROC ; glm::epsilonNotEqual<float,0,glm::tvec4>, COMDAT

; 87   : 	{

$LN3:
	mov	QWORD PTR [rsp+32], r9
	mov	QWORD PTR [rsp+24], r8
	mov	QWORD PTR [rsp+16], rdx
	mov	QWORD PTR [rsp+8], rcx
	push	rdi
	sub	rsp, 96					; 00000060H

; 88   : 		return greaterThanEqual(abs(x - y), vecType<T, P>(epsilon));

	mov	rax, QWORD PTR epsilon$[rsp]
	movss	xmm1, DWORD PTR [rax]
	lea	rcx, QWORD PTR $T1[rsp]
	call	??0?$tvec4@M$0A@@glm@@QEAA@M@Z		; glm::tvec4<float,0>::tvec4<float,0>
	mov	QWORD PTR tv66[rsp], rax
	mov	r8, QWORD PTR y$[rsp]
	mov	rdx, QWORD PTR x$[rsp]
	lea	rcx, QWORD PTR $T2[rsp]
	call	??$?GM$0A@@glm@@YA?AU?$tvec4@M$0A@@0@AEBU10@0@Z ; glm::operator-<float,0>
	mov	rdx, rax
	lea	rcx, QWORD PTR $T3[rsp]
	call	??$abs@M$0A@Utvec4@glm@@@glm@@YA?AU?$tvec4@M$0A@@0@AEBU10@@Z ; glm::abs<float,0,glm::tvec4>
	mov	rcx, QWORD PTR tv66[rsp]
	mov	r8, rcx
	mov	rdx, rax
	mov	rcx, QWORD PTR __$ReturnUdt$[rsp]
	call	??$greaterThanEqual@M$0A@Utvec4@glm@@@glm@@YA?AU?$tvec4@_N$0A@@0@AEBU?$tvec4@M$0A@@0@0@Z ; glm::greaterThanEqual<float,0,glm::tvec4>
	mov	rax, QWORD PTR __$ReturnUdt$[rsp]

; 89   : 	}

	add	rsp, 96					; 00000060H
	pop	rdi
	ret	0
??$epsilonNotEqual@M$0A@Utvec4@glm@@@glm@@YA?AU?$tvec4@_N$0A@@0@AEBU?$tvec4@M$0A@@0@0AEBM@Z ENDP ; glm::epsilonNotEqual<float,0,glm::tvec4>
_TEXT	ENDS
; Function compile flags: /Odtp /RTCsu
; File C:\Users\ksart\OneDrive\Desktop\FlappyBird\libraries\external\glm\glm\gtc\epsilon.inl
;	COMDAT ??$epsilonNotEqual@M$0A@Utvec3@glm@@@glm@@YA?AU?$tvec3@_N$0A@@0@AEBU?$tvec3@M$0A@@0@0AEBM@Z
_TEXT	SEGMENT
$T1 = 32
$T2 = 44
$T3 = 56
tv66 = 72
__$ReturnUdt$ = 96
x$ = 104
y$ = 112
epsilon$ = 120
??$epsilonNotEqual@M$0A@Utvec3@glm@@@glm@@YA?AU?$tvec3@_N$0A@@0@AEBU?$tvec3@M$0A@@0@0AEBM@Z PROC ; glm::epsilonNotEqual<float,0,glm::tvec3>, COMDAT

; 87   : 	{

$LN3:
	mov	QWORD PTR [rsp+32], r9
	mov	QWORD PTR [rsp+24], r8
	mov	QWORD PTR [rsp+16], rdx
	mov	QWORD PTR [rsp+8], rcx
	push	rdi
	sub	rsp, 80					; 00000050H

; 88   : 		return greaterThanEqual(abs(x - y), vecType<T, P>(epsilon));

	mov	rax, QWORD PTR epsilon$[rsp]
	movss	xmm1, DWORD PTR [rax]
	lea	rcx, QWORD PTR $T1[rsp]
	call	??0?$tvec3@M$0A@@glm@@QEAA@M@Z		; glm::tvec3<float,0>::tvec3<float,0>
	mov	QWORD PTR tv66[rsp], rax
	mov	r8, QWORD PTR y$[rsp]
	mov	rdx, QWORD PTR x$[rsp]
	lea	rcx, QWORD PTR $T2[rsp]
	call	??$?GM$0A@@glm@@YA?AU?$tvec3@M$0A@@0@AEBU10@0@Z ; glm::operator-<float,0>
	mov	rdx, rax
	lea	rcx, QWORD PTR $T3[rsp]
	call	??$abs@M$0A@Utvec3@glm@@@glm@@YA?AU?$tvec3@M$0A@@0@AEBU10@@Z ; glm::abs<float,0,glm::tvec3>
	mov	rcx, QWORD PTR tv66[rsp]
	mov	r8, rcx
	mov	rdx, rax
	mov	rcx, QWORD PTR __$ReturnUdt$[rsp]
	call	??$greaterThanEqual@M$0A@Utvec3@glm@@@glm@@YA?AU?$tvec3@_N$0A@@0@AEBU?$tvec3@M$0A@@0@0@Z ; glm::greaterThanEqual<float,0,glm::tvec3>
	mov	rax, QWORD PTR __$ReturnUdt$[rsp]

; 89   : 	}

	add	rsp, 80					; 00000050H
	pop	rdi
	ret	0
??$epsilonNotEqual@M$0A@Utvec3@glm@@@glm@@YA?AU?$tvec3@_N$0A@@0@AEBU?$tvec3@M$0A@@0@0AEBM@Z ENDP ; glm::epsilonNotEqual<float,0,glm::tvec3>
_TEXT	ENDS
; Function compile flags: /Odtp /RTCsu
; File C:\Users\ksart\OneDrive\Desktop\FlappyBird\libraries\external\glm\glm\gtc\epsilon.inl
;	COMDAT ??$epsilonNotEqual@M$0A@Utvec2@glm@@@glm@@YA?AU?$tvec2@_N$0A@@0@AEBU?$tvec2@M$0A@@0@0AEBM@Z
_TEXT	SEGMENT
$T1 = 32
$T2 = 40
$T3 = 48
tv66 = 56
__$ReturnUdt$ = 80
x$ = 88
y$ = 96
epsilon$ = 104
??$epsilonNotEqual@M$0A@Utvec2@glm@@@glm@@YA?AU?$tvec2@_N$0A@@0@AEBU?$tvec2@M$0A@@0@0AEBM@Z PROC ; glm::epsilonNotEqual<float,0,glm::tvec2>, COMDAT

; 87   : 	{

$LN3:
	mov	QWORD PTR [rsp+32], r9
	mov	QWORD PTR [rsp+24], r8
	mov	QWORD PTR [rsp+16], rdx
	mov	QWORD PTR [rsp+8], rcx
	push	rdi
	sub	rsp, 64					; 00000040H

; 88   : 		return greaterThanEqual(abs(x - y), vecType<T, P>(epsilon));

	mov	rax, QWORD PTR epsilon$[rsp]
	movss	xmm1, DWORD PTR [rax]
	lea	rcx, QWORD PTR $T1[rsp]
	call	??0?$tvec2@M$0A@@glm@@QEAA@M@Z		; glm::tvec2<float,0>::tvec2<float,0>
	mov	QWORD PTR tv66[rsp], rax
	mov	r8, QWORD PTR y$[rsp]
	mov	rdx, QWORD PTR x$[rsp]
	lea	rcx, QWORD PTR $T2[rsp]
	call	??$?GM$0A@@glm@@YA?AU?$tvec2@M$0A@@0@AEBU10@0@Z ; glm::operator-<float,0>
	mov	rdx, rax
	lea	rcx, QWORD PTR $T3[rsp]
	call	??$abs@M$0A@Utvec2@glm@@@glm@@YA?AU?$tvec2@M$0A@@0@AEBU10@@Z ; glm::abs<float,0,glm::tvec2>
	mov	rcx, QWORD PTR tv66[rsp]
	mov	r8, rcx
	mov	rdx, rax
	mov	rcx, QWORD PTR __$ReturnUdt$[rsp]
	call	??$greaterThanEqual@M$0A@Utvec2@glm@@@glm@@YA?AU?$tvec2@_N$0A@@0@AEBU?$tvec2@M$0A@@0@0@Z ; glm::greaterThanEqual<float,0,glm::tvec2>
	mov	rax, QWORD PTR __$ReturnUdt$[rsp]

; 89   : 	}

	add	rsp, 64					; 00000040H
	pop	rdi
	ret	0
??$epsilonNotEqual@M$0A@Utvec2@glm@@@glm@@YA?AU?$tvec2@_N$0A@@0@AEBU?$tvec2@M$0A@@0@0AEBM@Z ENDP ; glm::epsilonNotEqual<float,0,glm::tvec2>
_TEXT	ENDS
; Function compile flags: /Odtp /RTCsu
; File C:\Users\ksart\OneDrive\Desktop\FlappyBird\libraries\external\glm\glm\gtc\epsilon.inl
;	COMDAT ??$epsilonEqual@M$0A@@glm@@YA?AU?$tvec4@_N$0A@@0@AEBU?$tquat@M$0A@@0@0AEBM@Z
_TEXT	SEGMENT
v$ = 56
$T4 = 84
$T5 = 100
tv80 = 116
tv83 = 120
__$ReturnUdt$ = 144
x$ = 152
y$ = 160
epsilon$ = 168
??$epsilonEqual@M$0A@@glm@@YA?AU?$tvec4@_N$0A@@0@AEBU?$tquat@M$0A@@0@0AEBM@Z PROC ; glm::epsilonEqual<float,0>, COMDAT

; 109  : 	{

$LN3:
	mov	QWORD PTR [rsp+32], r9
	mov	QWORD PTR [rsp+24], r8
	mov	QWORD PTR [rsp+16], rdx
	mov	QWORD PTR [rsp+8], rcx
	push	rdi
	sub	rsp, 128				; 00000080H
	lea	rdi, QWORD PTR [rsp+48]
	mov	ecx, 20
	mov	eax, -858993460				; ccccccccH
	rep stosd
	mov	rcx, QWORD PTR [rsp+144]

; 110  : 		tvec4<T, P> v(x.x - y.x, x.y - y.y, x.z - y.z, x.w - y.w);

	mov	rax, QWORD PTR x$[rsp]
	mov	rcx, QWORD PTR y$[rsp]
	movss	xmm0, DWORD PTR [rax+12]
	subss	xmm0, DWORD PTR [rcx+12]
	mov	rax, QWORD PTR x$[rsp]
	mov	rcx, QWORD PTR y$[rsp]
	movss	xmm1, DWORD PTR [rax+8]
	subss	xmm1, DWORD PTR [rcx+8]
	mov	rax, QWORD PTR x$[rsp]
	mov	rcx, QWORD PTR y$[rsp]
	movss	xmm2, DWORD PTR [rax+4]
	subss	xmm2, DWORD PTR [rcx+4]
	mov	rax, QWORD PTR x$[rsp]
	mov	rcx, QWORD PTR y$[rsp]
	movss	xmm3, DWORD PTR [rax]
	subss	xmm3, DWORD PTR [rcx]
	movss	DWORD PTR tv80[rsp], xmm3
	movss	DWORD PTR [rsp+32], xmm0
	movaps	xmm3, xmm1
	movss	xmm0, DWORD PTR tv80[rsp]
	movaps	xmm1, xmm0
	lea	rcx, QWORD PTR v$[rsp]
	call	??0?$tvec4@M$0A@@glm@@QEAA@MMMM@Z	; glm::tvec4<float,0>::tvec4<float,0>

; 111  : 		return lessThan(abs(v), tvec4<T, P>(epsilon));

	mov	rax, QWORD PTR epsilon$[rsp]
	movss	xmm1, DWORD PTR [rax]
	lea	rcx, QWORD PTR $T4[rsp]
	call	??0?$tvec4@M$0A@@glm@@QEAA@M@Z		; glm::tvec4<float,0>::tvec4<float,0>
	mov	QWORD PTR tv83[rsp], rax
	lea	rdx, QWORD PTR v$[rsp]
	lea	rcx, QWORD PTR $T5[rsp]
	call	??$abs@M$0A@Utvec4@glm@@@glm@@YA?AU?$tvec4@M$0A@@0@AEBU10@@Z ; glm::abs<float,0,glm::tvec4>
	mov	rcx, QWORD PTR tv83[rsp]
	mov	r8, rcx
	mov	rdx, rax
	mov	rcx, QWORD PTR __$ReturnUdt$[rsp]
	call	??$lessThan@M$0A@Utvec4@glm@@@glm@@YA?AU?$tvec4@_N$0A@@0@AEBU?$tvec4@M$0A@@0@0@Z ; glm::lessThan<float,0,glm::tvec4>
	mov	rax, QWORD PTR __$ReturnUdt$[rsp]

; 112  : 	}

	mov	rdi, rax
	mov	rcx, rsp
	lea	rdx, OFFSET FLAT:??$epsilonEqual@M$0A@@glm@@YA?AU?$tvec4@_N$0A@@0@AEBU?$tquat@M$0A@@0@0AEBM@Z$rtcFrameData
	call	_RTC_CheckStackVars
	mov	rax, rdi
	add	rsp, 128				; 00000080H
	pop	rdi
	ret	0
??$epsilonEqual@M$0A@@glm@@YA?AU?$tvec4@_N$0A@@0@AEBU?$tquat@M$0A@@0@0AEBM@Z ENDP ; glm::epsilonEqual<float,0>
_TEXT	ENDS
; Function compile flags: /Odtp /RTCsu
; File C:\Users\ksart\OneDrive\Desktop\FlappyBird\libraries\external\glm\glm\gtc\quaternion.inl
;	COMDAT ??0?$tquat@M$0A@@glm@@QEAA@XZ
_TEXT	SEGMENT
this$ = 16
??0?$tquat@M$0A@@glm@@QEAA@XZ PROC			; glm::tquat<float,0>::tquat<float,0>, COMDAT

; 92   : 		{}

$LN3:
	mov	QWORD PTR [rsp+8], rcx
	push	rdi

; 90   : 				: x(0), y(0), z(0), w(1)

	mov	rax, QWORD PTR this$[rsp]
	xorps	xmm0, xmm0
	movss	DWORD PTR [rax], xmm0
	mov	rax, QWORD PTR this$[rsp]
	xorps	xmm0, xmm0
	movss	DWORD PTR [rax+4], xmm0
	mov	rax, QWORD PTR this$[rsp]
	xorps	xmm0, xmm0
	movss	DWORD PTR [rax+8], xmm0
	mov	rax, QWORD PTR this$[rsp]
	movss	xmm0, DWORD PTR __real@3f800000
	movss	DWORD PTR [rax+12], xmm0

; 92   : 		{}

	mov	rax, QWORD PTR this$[rsp]
	pop	rdi
	ret	0
??0?$tquat@M$0A@@glm@@QEAA@XZ ENDP			; glm::tquat<float,0>::tquat<float,0>
_TEXT	ENDS
; Function compile flags: /Odtp /RTCsu
; File C:\Users\ksart\OneDrive\Desktop\FlappyBird\libraries\external\glm\glm\gtc\epsilon.inl
;	COMDAT ??$epsilonEqual@M$0A@Utvec4@glm@@@glm@@YA?AU?$tvec4@_N$0A@@0@AEBU?$tvec4@M$0A@@0@0AEBM@Z
_TEXT	SEGMENT
$T1 = 32
$T2 = 48
$T3 = 64
tv66 = 80
__$ReturnUdt$ = 112
x$ = 120
y$ = 128
epsilon$ = 136
??$epsilonEqual@M$0A@Utvec4@glm@@@glm@@YA?AU?$tvec4@_N$0A@@0@AEBU?$tvec4@M$0A@@0@0AEBM@Z PROC ; glm::epsilonEqual<float,0,glm::tvec4>, COMDAT

; 65   : 	{

$LN3:
	mov	QWORD PTR [rsp+32], r9
	mov	QWORD PTR [rsp+24], r8
	mov	QWORD PTR [rsp+16], rdx
	mov	QWORD PTR [rsp+8], rcx
	push	rdi
	sub	rsp, 96					; 00000060H

; 66   : 		return lessThan(abs(x - y), vecType<T, P>(epsilon));

	mov	rax, QWORD PTR epsilon$[rsp]
	movss	xmm1, DWORD PTR [rax]
	lea	rcx, QWORD PTR $T1[rsp]
	call	??0?$tvec4@M$0A@@glm@@QEAA@M@Z		; glm::tvec4<float,0>::tvec4<float,0>
	mov	QWORD PTR tv66[rsp], rax
	mov	r8, QWORD PTR y$[rsp]
	mov	rdx, QWORD PTR x$[rsp]
	lea	rcx, QWORD PTR $T2[rsp]
	call	??$?GM$0A@@glm@@YA?AU?$tvec4@M$0A@@0@AEBU10@0@Z ; glm::operator-<float,0>
	mov	rdx, rax
	lea	rcx, QWORD PTR $T3[rsp]
	call	??$abs@M$0A@Utvec4@glm@@@glm@@YA?AU?$tvec4@M$0A@@0@AEBU10@@Z ; glm::abs<float,0,glm::tvec4>
	mov	rcx, QWORD PTR tv66[rsp]
	mov	r8, rcx
	mov	rdx, rax
	mov	rcx, QWORD PTR __$ReturnUdt$[rsp]
	call	??$lessThan@M$0A@Utvec4@glm@@@glm@@YA?AU?$tvec4@_N$0A@@0@AEBU?$tvec4@M$0A@@0@0@Z ; glm::lessThan<float,0,glm::tvec4>
	mov	rax, QWORD PTR __$ReturnUdt$[rsp]

; 67   : 	}

	add	rsp, 96					; 00000060H
	pop	rdi
	ret	0
??$epsilonEqual@M$0A@Utvec4@glm@@@glm@@YA?AU?$tvec4@_N$0A@@0@AEBU?$tvec4@M$0A@@0@0AEBM@Z ENDP ; glm::epsilonEqual<float,0,glm::tvec4>
_TEXT	ENDS
; Function compile flags: /Odtp /RTCsu
; File C:\Users\ksart\OneDrive\Desktop\FlappyBird\libraries\external\glm\glm\gtc\epsilon.inl
;	COMDAT ??$epsilonEqual@M$0A@Utvec3@glm@@@glm@@YA?AU?$tvec3@_N$0A@@0@AEBU?$tvec3@M$0A@@0@0AEBM@Z
_TEXT	SEGMENT
$T1 = 32
$T2 = 44
$T3 = 56
tv66 = 72
__$ReturnUdt$ = 96
x$ = 104
y$ = 112
epsilon$ = 120
??$epsilonEqual@M$0A@Utvec3@glm@@@glm@@YA?AU?$tvec3@_N$0A@@0@AEBU?$tvec3@M$0A@@0@0AEBM@Z PROC ; glm::epsilonEqual<float,0,glm::tvec3>, COMDAT

; 65   : 	{

$LN3:
	mov	QWORD PTR [rsp+32], r9
	mov	QWORD PTR [rsp+24], r8
	mov	QWORD PTR [rsp+16], rdx
	mov	QWORD PTR [rsp+8], rcx
	push	rdi
	sub	rsp, 80					; 00000050H

; 66   : 		return lessThan(abs(x - y), vecType<T, P>(epsilon));

	mov	rax, QWORD PTR epsilon$[rsp]
	movss	xmm1, DWORD PTR [rax]
	lea	rcx, QWORD PTR $T1[rsp]
	call	??0?$tvec3@M$0A@@glm@@QEAA@M@Z		; glm::tvec3<float,0>::tvec3<float,0>
	mov	QWORD PTR tv66[rsp], rax
	mov	r8, QWORD PTR y$[rsp]
	mov	rdx, QWORD PTR x$[rsp]
	lea	rcx, QWORD PTR $T2[rsp]
	call	??$?GM$0A@@glm@@YA?AU?$tvec3@M$0A@@0@AEBU10@0@Z ; glm::operator-<float,0>
	mov	rdx, rax
	lea	rcx, QWORD PTR $T3[rsp]
	call	??$abs@M$0A@Utvec3@glm@@@glm@@YA?AU?$tvec3@M$0A@@0@AEBU10@@Z ; glm::abs<float,0,glm::tvec3>
	mov	rcx, QWORD PTR tv66[rsp]
	mov	r8, rcx
	mov	rdx, rax
	mov	rcx, QWORD PTR __$ReturnUdt$[rsp]
	call	??$lessThan@M$0A@Utvec3@glm@@@glm@@YA?AU?$tvec3@_N$0A@@0@AEBU?$tvec3@M$0A@@0@0@Z ; glm::lessThan<float,0,glm::tvec3>
	mov	rax, QWORD PTR __$ReturnUdt$[rsp]

; 67   : 	}

	add	rsp, 80					; 00000050H
	pop	rdi
	ret	0
??$epsilonEqual@M$0A@Utvec3@glm@@@glm@@YA?AU?$tvec3@_N$0A@@0@AEBU?$tvec3@M$0A@@0@0AEBM@Z ENDP ; glm::epsilonEqual<float,0,glm::tvec3>
_TEXT	ENDS
; Function compile flags: /Odtp /RTCsu
; File C:\Users\ksart\OneDrive\Desktop\FlappyBird\libraries\external\glm\glm\gtc\epsilon.inl
;	COMDAT ??$epsilonEqual@M$0A@Utvec2@glm@@@glm@@YA?AU?$tvec2@_N$0A@@0@AEBU?$tvec2@M$0A@@0@0AEBM@Z
_TEXT	SEGMENT
$T1 = 32
$T2 = 40
$T3 = 48
tv66 = 56
__$ReturnUdt$ = 80
x$ = 88
y$ = 96
epsilon$ = 104
??$epsilonEqual@M$0A@Utvec2@glm@@@glm@@YA?AU?$tvec2@_N$0A@@0@AEBU?$tvec2@M$0A@@0@0AEBM@Z PROC ; glm::epsilonEqual<float,0,glm::tvec2>, COMDAT

; 65   : 	{

$LN3:
	mov	QWORD PTR [rsp+32], r9
	mov	QWORD PTR [rsp+24], r8
	mov	QWORD PTR [rsp+16], rdx
	mov	QWORD PTR [rsp+8], rcx
	push	rdi
	sub	rsp, 64					; 00000040H

; 66   : 		return lessThan(abs(x - y), vecType<T, P>(epsilon));

	mov	rax, QWORD PTR epsilon$[rsp]
	movss	xmm1, DWORD PTR [rax]
	lea	rcx, QWORD PTR $T1[rsp]
	call	??0?$tvec2@M$0A@@glm@@QEAA@M@Z		; glm::tvec2<float,0>::tvec2<float,0>
	mov	QWORD PTR tv66[rsp], rax
	mov	r8, QWORD PTR y$[rsp]
	mov	rdx, QWORD PTR x$[rsp]
	lea	rcx, QWORD PTR $T2[rsp]
	call	??$?GM$0A@@glm@@YA?AU?$tvec2@M$0A@@0@AEBU10@0@Z ; glm::operator-<float,0>
	mov	rdx, rax
	lea	rcx, QWORD PTR $T3[rsp]
	call	??$abs@M$0A@Utvec2@glm@@@glm@@YA?AU?$tvec2@M$0A@@0@AEBU10@@Z ; glm::abs<float,0,glm::tvec2>
	mov	rcx, QWORD PTR tv66[rsp]
	mov	r8, rcx
	mov	rdx, rax
	mov	rcx, QWORD PTR __$ReturnUdt$[rsp]
	call	??$lessThan@M$0A@Utvec2@glm@@@glm@@YA?AU?$tvec2@_N$0A@@0@AEBU?$tvec2@M$0A@@0@0@Z ; glm::lessThan<float,0,glm::tvec2>
	mov	rax, QWORD PTR __$ReturnUdt$[rsp]

; 67   : 	}

	add	rsp, 64					; 00000040H
	pop	rdi
	ret	0
??$epsilonEqual@M$0A@Utvec2@glm@@@glm@@YA?AU?$tvec2@_N$0A@@0@AEBU?$tvec2@M$0A@@0@0AEBM@Z ENDP ; glm::epsilonEqual<float,0,glm::tvec2>
_TEXT	ENDS
; Function compile flags: /Odtp /RTCsu
; File C:\Users\ksart\OneDrive\Desktop\FlappyBird\libraries\external\glm\glm\gtc\epsilon.inl
;	COMDAT ??$epsilonNotEqual@M$0A@Utvec4@glm@@@glm@@YA?AU?$tvec4@_N$0A@@0@AEBU?$tvec4@M$0A@@0@00@Z
_TEXT	SEGMENT
$T1 = 32
$T2 = 48
$T3 = 64
__$ReturnUdt$ = 112
x$ = 120
y$ = 128
epsilon$ = 136
??$epsilonNotEqual@M$0A@Utvec4@glm@@@glm@@YA?AU?$tvec4@_N$0A@@0@AEBU?$tvec4@M$0A@@0@00@Z PROC ; glm::epsilonNotEqual<float,0,glm::tvec4>, COMDAT

; 98   : 	{

$LN3:
	mov	QWORD PTR [rsp+32], r9
	mov	QWORD PTR [rsp+24], r8
	mov	QWORD PTR [rsp+16], rdx
	mov	QWORD PTR [rsp+8], rcx
	push	rsi
	push	rdi
	sub	rsp, 88					; 00000058H

; 99   : 		return greaterThanEqual(abs(x - y), vecType<T, P>(epsilon));

	lea	rax, QWORD PTR $T1[rsp]
	mov	rdi, rax
	mov	rsi, QWORD PTR epsilon$[rsp]
	mov	ecx, 16
	rep movsb
	mov	r8, QWORD PTR y$[rsp]
	mov	rdx, QWORD PTR x$[rsp]
	lea	rcx, QWORD PTR $T2[rsp]
	call	??$?GM$0A@@glm@@YA?AU?$tvec4@M$0A@@0@AEBU10@0@Z ; glm::operator-<float,0>
	mov	rdx, rax
	lea	rcx, QWORD PTR $T3[rsp]
	call	??$abs@M$0A@Utvec4@glm@@@glm@@YA?AU?$tvec4@M$0A@@0@AEBU10@@Z ; glm::abs<float,0,glm::tvec4>
	lea	r8, QWORD PTR $T1[rsp]
	mov	rdx, rax
	mov	rcx, QWORD PTR __$ReturnUdt$[rsp]
	call	??$greaterThanEqual@M$0A@Utvec4@glm@@@glm@@YA?AU?$tvec4@_N$0A@@0@AEBU?$tvec4@M$0A@@0@0@Z ; glm::greaterThanEqual<float,0,glm::tvec4>
	mov	rax, QWORD PTR __$ReturnUdt$[rsp]

; 100  : 	}

	add	rsp, 88					; 00000058H
	pop	rdi
	pop	rsi
	ret	0
??$epsilonNotEqual@M$0A@Utvec4@glm@@@glm@@YA?AU?$tvec4@_N$0A@@0@AEBU?$tvec4@M$0A@@0@00@Z ENDP ; glm::epsilonNotEqual<float,0,glm::tvec4>
_TEXT	ENDS
; Function compile flags: /Odtp /RTCsu
; File C:\Users\ksart\OneDrive\Desktop\FlappyBird\libraries\external\glm\glm\gtc\epsilon.inl
;	COMDAT ??$epsilonNotEqual@M$0A@Utvec3@glm@@@glm@@YA?AU?$tvec3@_N$0A@@0@AEBU?$tvec3@M$0A@@0@00@Z
_TEXT	SEGMENT
$T1 = 32
$T2 = 44
$T3 = 56
__$ReturnUdt$ = 112
x$ = 120
y$ = 128
epsilon$ = 136
??$epsilonNotEqual@M$0A@Utvec3@glm@@@glm@@YA?AU?$tvec3@_N$0A@@0@AEBU?$tvec3@M$0A@@0@00@Z PROC ; glm::epsilonNotEqual<float,0,glm::tvec3>, COMDAT

; 98   : 	{

$LN3:
	mov	QWORD PTR [rsp+32], r9
	mov	QWORD PTR [rsp+24], r8
	mov	QWORD PTR [rsp+16], rdx
	mov	QWORD PTR [rsp+8], rcx
	push	rsi
	push	rdi
	sub	rsp, 88					; 00000058H

; 99   : 		return greaterThanEqual(abs(x - y), vecType<T, P>(epsilon));

	lea	rax, QWORD PTR $T1[rsp]
	mov	rdi, rax
	mov	rsi, QWORD PTR epsilon$[rsp]
	mov	ecx, 12
	rep movsb
	mov	r8, QWORD PTR y$[rsp]
	mov	rdx, QWORD PTR x$[rsp]
	lea	rcx, QWORD PTR $T2[rsp]
	call	??$?GM$0A@@glm@@YA?AU?$tvec3@M$0A@@0@AEBU10@0@Z ; glm::operator-<float,0>
	mov	rdx, rax
	lea	rcx, QWORD PTR $T3[rsp]
	call	??$abs@M$0A@Utvec3@glm@@@glm@@YA?AU?$tvec3@M$0A@@0@AEBU10@@Z ; glm::abs<float,0,glm::tvec3>
	lea	r8, QWORD PTR $T1[rsp]
	mov	rdx, rax
	mov	rcx, QWORD PTR __$ReturnUdt$[rsp]
	call	??$greaterThanEqual@M$0A@Utvec3@glm@@@glm@@YA?AU?$tvec3@_N$0A@@0@AEBU?$tvec3@M$0A@@0@0@Z ; glm::greaterThanEqual<float,0,glm::tvec3>
	mov	rax, QWORD PTR __$ReturnUdt$[rsp]

; 100  : 	}

	add	rsp, 88					; 00000058H
	pop	rdi
	pop	rsi
	ret	0
??$epsilonNotEqual@M$0A@Utvec3@glm@@@glm@@YA?AU?$tvec3@_N$0A@@0@AEBU?$tvec3@M$0A@@0@00@Z ENDP ; glm::epsilonNotEqual<float,0,glm::tvec3>
_TEXT	ENDS
; Function compile flags: /Odtp /RTCsu
; File C:\Users\ksart\OneDrive\Desktop\FlappyBird\libraries\external\glm\glm\gtc\epsilon.inl
;	COMDAT ??$epsilonNotEqual@M$0A@Utvec2@glm@@@glm@@YA?AU?$tvec2@_N$0A@@0@AEBU?$tvec2@M$0A@@0@00@Z
_TEXT	SEGMENT
$T1 = 32
$T2 = 40
$T3 = 48
__$ReturnUdt$ = 80
x$ = 88
y$ = 96
epsilon$ = 104
??$epsilonNotEqual@M$0A@Utvec2@glm@@@glm@@YA?AU?$tvec2@_N$0A@@0@AEBU?$tvec2@M$0A@@0@00@Z PROC ; glm::epsilonNotEqual<float,0,glm::tvec2>, COMDAT

; 98   : 	{

$LN3:
	mov	QWORD PTR [rsp+32], r9
	mov	QWORD PTR [rsp+24], r8
	mov	QWORD PTR [rsp+16], rdx
	mov	QWORD PTR [rsp+8], rcx
	push	rdi
	sub	rsp, 64					; 00000040H

; 99   : 		return greaterThanEqual(abs(x - y), vecType<T, P>(epsilon));

	mov	rax, QWORD PTR epsilon$[rsp]
	mov	rax, QWORD PTR [rax]
	mov	QWORD PTR $T1[rsp], rax
	mov	r8, QWORD PTR y$[rsp]
	mov	rdx, QWORD PTR x$[rsp]
	lea	rcx, QWORD PTR $T2[rsp]
	call	??$?GM$0A@@glm@@YA?AU?$tvec2@M$0A@@0@AEBU10@0@Z ; glm::operator-<float,0>
	mov	rdx, rax
	lea	rcx, QWORD PTR $T3[rsp]
	call	??$abs@M$0A@Utvec2@glm@@@glm@@YA?AU?$tvec2@M$0A@@0@AEBU10@@Z ; glm::abs<float,0,glm::tvec2>
	lea	r8, QWORD PTR $T1[rsp]
	mov	rdx, rax
	mov	rcx, QWORD PTR __$ReturnUdt$[rsp]
	call	??$greaterThanEqual@M$0A@Utvec2@glm@@@glm@@YA?AU?$tvec2@_N$0A@@0@AEBU?$tvec2@M$0A@@0@0@Z ; glm::greaterThanEqual<float,0,glm::tvec2>
	mov	rax, QWORD PTR __$ReturnUdt$[rsp]

; 100  : 	}

	add	rsp, 64					; 00000040H
	pop	rdi
	ret	0
??$epsilonNotEqual@M$0A@Utvec2@glm@@@glm@@YA?AU?$tvec2@_N$0A@@0@AEBU?$tvec2@M$0A@@0@00@Z ENDP ; glm::epsilonNotEqual<float,0,glm::tvec2>
_TEXT	ENDS
; Function compile flags: /Odtp /RTCsu
; File C:\Users\ksart\OneDrive\Desktop\FlappyBird\libraries\external\glm\glm\detail\type_vec4.inl
;	COMDAT ??0?$tvec4@_N$0A@@glm@@QEAA@W4ctor@1@@Z
_TEXT	SEGMENT
this$ = 16
__formal$ = 24
??0?$tvec4@_N$0A@@glm@@QEAA@W4ctor@1@@Z PROC		; glm::tvec4<bool,0>::tvec4<bool,0>, COMDAT

; 183  : 	{}

$LN3:
	mov	DWORD PTR [rsp+16], edx
	mov	QWORD PTR [rsp+8], rcx
	push	rdi
	mov	rax, QWORD PTR this$[rsp]
	pop	rdi
	ret	0
??0?$tvec4@_N$0A@@glm@@QEAA@W4ctor@1@@Z ENDP		; glm::tvec4<bool,0>::tvec4<bool,0>
_TEXT	ENDS
; Function compile flags: /Odtp /RTCsu
; File C:\Users\ksart\OneDrive\Desktop\FlappyBird\libraries\external\glm\glm\detail\type_vec4.inl
;	COMDAT ??A?$tvec4@_N$0A@@glm@@QEAAAEA_NH@Z
_TEXT	SEGMENT
this$ = 48
i$ = 56
??A?$tvec4@_N$0A@@glm@@QEAAAEA_NH@Z PROC		; glm::tvec4<bool,0>::operator[], COMDAT

; 329  : 	{

$LN5:
	mov	DWORD PTR [rsp+16], edx
	mov	QWORD PTR [rsp+8], rcx
	push	rdi
	sub	rsp, 32					; 00000020H

; 330  : 		assert(i >= 0 && i < this->length());

	cmp	DWORD PTR i$[rsp], 0
	jl	SHORT $LN3@operator
	call	?length@?$tvec4@_N$0A@@glm@@SAHXZ	; glm::tvec4<bool,0>::length
	cmp	DWORD PTR i$[rsp], eax
	jl	SHORT $LN4@operator
$LN3@operator:
	mov	r8d, 330				; 0000014aH
	lea	rdx, OFFSET FLAT:??_C@_1LG@LAANPDHN@?$AAC?$AA?3?$AA?2?$AAU?$AAs?$AAe?$AAr?$AAs?$AA?2?$AAk?$AAs?$AAa?$AAr?$AAt?$AA?2@
	lea	rcx, OFFSET FLAT:??_C@_1DK@BGNCJAPL@?$AAi?$AA?5?$AA?$DO?$AA?$DN?$AA?5?$AA0?$AA?5?$AA?$CG?$AA?$CG?$AA?5?$AAi?$AA?5?$AA?$DM?$AA?5?$AAt@
	call	QWORD PTR __imp__wassert
	xor	eax, eax
$LN4@operator:

; 331  : 		return (&x)[i];

	movsxd	rax, DWORD PTR i$[rsp]
	mov	rcx, QWORD PTR this$[rsp]
	add	rcx, rax
	mov	rax, rcx

; 332  : 	}

	add	rsp, 32					; 00000020H
	pop	rdi
	ret	0
??A?$tvec4@_N$0A@@glm@@QEAAAEA_NH@Z ENDP		; glm::tvec4<bool,0>::operator[]
_TEXT	ENDS
; Function compile flags: /Odtp /RTCsu
; File C:\Users\ksart\OneDrive\Desktop\FlappyBird\libraries\external\glm\glm\detail\type_vec4.hpp
;	COMDAT ?length@?$tvec4@_N$0A@@glm@@SAHXZ
_TEXT	SEGMENT
?length@?$tvec4@_N$0A@@glm@@SAHXZ PROC			; glm::tvec4<bool,0>::length, COMDAT

; 85   : 		GLM_FUNC_DECL static length_type length(){return 4;}

$LN3:
	push	rdi
	mov	eax, 4
	pop	rdi
	ret	0
?length@?$tvec4@_N$0A@@glm@@SAHXZ ENDP			; glm::tvec4<bool,0>::length
_TEXT	ENDS
; Function compile flags: /Odtp /RTCsu
; File C:\Users\ksart\OneDrive\Desktop\FlappyBird\libraries\external\glm\glm\gtc\epsilon.inl
;	COMDAT ??$epsilonEqual@M$0A@Utvec4@glm@@@glm@@YA?AU?$tvec4@_N$0A@@0@AEBU?$tvec4@M$0A@@0@00@Z
_TEXT	SEGMENT
$T1 = 32
$T2 = 48
$T3 = 64
__$ReturnUdt$ = 112
x$ = 120
y$ = 128
epsilon$ = 136
??$epsilonEqual@M$0A@Utvec4@glm@@@glm@@YA?AU?$tvec4@_N$0A@@0@AEBU?$tvec4@M$0A@@0@00@Z PROC ; glm::epsilonEqual<float,0,glm::tvec4>, COMDAT

; 76   : 	{

$LN3:
	mov	QWORD PTR [rsp+32], r9
	mov	QWORD PTR [rsp+24], r8
	mov	QWORD PTR [rsp+16], rdx
	mov	QWORD PTR [rsp+8], rcx
	push	rsi
	push	rdi
	sub	rsp, 88					; 00000058H

; 77   : 		return lessThan(abs(x - y), vecType<T, P>(epsilon));

	lea	rax, QWORD PTR $T1[rsp]
	mov	rdi, rax
	mov	rsi, QWORD PTR epsilon$[rsp]
	mov	ecx, 16
	rep movsb
	mov	r8, QWORD PTR y$[rsp]
	mov	rdx, QWORD PTR x$[rsp]
	lea	rcx, QWORD PTR $T2[rsp]
	call	??$?GM$0A@@glm@@YA?AU?$tvec4@M$0A@@0@AEBU10@0@Z ; glm::operator-<float,0>
	mov	rdx, rax
	lea	rcx, QWORD PTR $T3[rsp]
	call	??$abs@M$0A@Utvec4@glm@@@glm@@YA?AU?$tvec4@M$0A@@0@AEBU10@@Z ; glm::abs<float,0,glm::tvec4>
	lea	r8, QWORD PTR $T1[rsp]
	mov	rdx, rax
	mov	rcx, QWORD PTR __$ReturnUdt$[rsp]
	call	??$lessThan@M$0A@Utvec4@glm@@@glm@@YA?AU?$tvec4@_N$0A@@0@AEBU?$tvec4@M$0A@@0@0@Z ; glm::lessThan<float,0,glm::tvec4>
	mov	rax, QWORD PTR __$ReturnUdt$[rsp]

; 78   : 	}

	add	rsp, 88					; 00000058H
	pop	rdi
	pop	rsi
	ret	0
??$epsilonEqual@M$0A@Utvec4@glm@@@glm@@YA?AU?$tvec4@_N$0A@@0@AEBU?$tvec4@M$0A@@0@00@Z ENDP ; glm::epsilonEqual<float,0,glm::tvec4>
_TEXT	ENDS
; Function compile flags: /Odtp /RTCsu
; File C:\Users\ksart\OneDrive\Desktop\FlappyBird\libraries\external\glm\glm\detail\type_vec4.inl
;	COMDAT ??0?$tvec4@M$0A@@glm@@QEAA@MMMM@Z
_TEXT	SEGMENT
this$ = 16
a$ = 24
b$ = 32
c$ = 40
d$ = 48
??0?$tvec4@M$0A@@glm@@QEAA@MMMM@Z PROC			; glm::tvec4<float,0>::tvec4<float,0>, COMDAT

; 193  : 	{}

$LN3:
	movss	DWORD PTR [rsp+32], xmm3
	movss	DWORD PTR [rsp+24], xmm2
	movss	DWORD PTR [rsp+16], xmm1
	mov	QWORD PTR [rsp+8], rcx
	push	rdi

; 192  : 		: x(a), y(b), z(c), w(d)

	mov	rax, QWORD PTR this$[rsp]
	movss	xmm0, DWORD PTR a$[rsp]
	movss	DWORD PTR [rax], xmm0
	mov	rax, QWORD PTR this$[rsp]
	movss	xmm0, DWORD PTR b$[rsp]
	movss	DWORD PTR [rax+4], xmm0
	mov	rax, QWORD PTR this$[rsp]
	movss	xmm0, DWORD PTR c$[rsp]
	movss	DWORD PTR [rax+8], xmm0
	mov	rax, QWORD PTR this$[rsp]
	movss	xmm0, DWORD PTR d$[rsp]
	movss	DWORD PTR [rax+12], xmm0

; 193  : 	{}

	mov	rax, QWORD PTR this$[rsp]
	pop	rdi
	ret	0
??0?$tvec4@M$0A@@glm@@QEAA@MMMM@Z ENDP			; glm::tvec4<float,0>::tvec4<float,0>
_TEXT	ENDS
; Function compile flags: /Odtp /RTCsu
; File C:\Users\ksart\OneDrive\Desktop\FlappyBird\libraries\external\glm\glm\detail\type_vec4.inl
;	COMDAT ??0?$tvec4@M$0A@@glm@@QEAA@M@Z
_TEXT	SEGMENT
this$ = 16
scalar$ = 24
??0?$tvec4@M$0A@@glm@@QEAA@M@Z PROC			; glm::tvec4<float,0>::tvec4<float,0>, COMDAT

; 188  : 	{}

$LN3:
	movss	DWORD PTR [rsp+16], xmm1
	mov	QWORD PTR [rsp+8], rcx
	push	rdi

; 187  : 		: x(scalar), y(scalar), z(scalar), w(scalar)

	mov	rax, QWORD PTR this$[rsp]
	movss	xmm0, DWORD PTR scalar$[rsp]
	movss	DWORD PTR [rax], xmm0
	mov	rax, QWORD PTR this$[rsp]
	movss	xmm0, DWORD PTR scalar$[rsp]
	movss	DWORD PTR [rax+4], xmm0
	mov	rax, QWORD PTR this$[rsp]
	movss	xmm0, DWORD PTR scalar$[rsp]
	movss	DWORD PTR [rax+8], xmm0
	mov	rax, QWORD PTR this$[rsp]
	movss	xmm0, DWORD PTR scalar$[rsp]
	movss	DWORD PTR [rax+12], xmm0

; 188  : 	{}

	mov	rax, QWORD PTR this$[rsp]
	pop	rdi
	ret	0
??0?$tvec4@M$0A@@glm@@QEAA@M@Z ENDP			; glm::tvec4<float,0>::tvec4<float,0>
_TEXT	ENDS
; Function compile flags: /Odtp /RTCsu
; File C:\Users\ksart\OneDrive\Desktop\FlappyBird\libraries\external\glm\glm\detail\type_vec4.inl
;	COMDAT ??0?$tvec4@M$0A@@glm@@QEAA@XZ
_TEXT	SEGMENT
this$ = 16
??0?$tvec4@M$0A@@glm@@QEAA@XZ PROC			; glm::tvec4<float,0>::tvec4<float,0>, COMDAT

; 163  : 		{}

$LN3:
	mov	QWORD PTR [rsp+8], rcx
	push	rdi

; 161  : 				: x(0), y(0), z(0), w(0)

	mov	rax, QWORD PTR this$[rsp]
	xorps	xmm0, xmm0
	movss	DWORD PTR [rax], xmm0
	mov	rax, QWORD PTR this$[rsp]
	xorps	xmm0, xmm0
	movss	DWORD PTR [rax+4], xmm0
	mov	rax, QWORD PTR this$[rsp]
	xorps	xmm0, xmm0
	movss	DWORD PTR [rax+8], xmm0
	mov	rax, QWORD PTR this$[rsp]
	xorps	xmm0, xmm0
	movss	DWORD PTR [rax+12], xmm0

; 163  : 		{}

	mov	rax, QWORD PTR this$[rsp]
	pop	rdi
	ret	0
??0?$tvec4@M$0A@@glm@@QEAA@XZ ENDP			; glm::tvec4<float,0>::tvec4<float,0>
_TEXT	ENDS
; Function compile flags: /Odtp /RTCsu
; File C:\Users\ksart\OneDrive\Desktop\FlappyBird\libraries\external\glm\glm\detail\type_vec4.inl
;	COMDAT ??A?$tvec4@M$0A@@glm@@QEBAAEBMH@Z
_TEXT	SEGMENT
this$ = 48
i$ = 56
??A?$tvec4@M$0A@@glm@@QEBAAEBMH@Z PROC			; glm::tvec4<float,0>::operator[], COMDAT

; 336  : 	{

$LN5:
	mov	DWORD PTR [rsp+16], edx
	mov	QWORD PTR [rsp+8], rcx
	push	rdi
	sub	rsp, 32					; 00000020H

; 337  : 		assert(i >= 0 && i < this->length());

	cmp	DWORD PTR i$[rsp], 0
	jl	SHORT $LN3@operator
	call	?length@?$tvec4@M$0A@@glm@@SAHXZ	; glm::tvec4<float,0>::length
	cmp	DWORD PTR i$[rsp], eax
	jl	SHORT $LN4@operator
$LN3@operator:
	mov	r8d, 337				; 00000151H
	lea	rdx, OFFSET FLAT:??_C@_1LG@LAANPDHN@?$AAC?$AA?3?$AA?2?$AAU?$AAs?$AAe?$AAr?$AAs?$AA?2?$AAk?$AAs?$AAa?$AAr?$AAt?$AA?2@
	lea	rcx, OFFSET FLAT:??_C@_1DK@BGNCJAPL@?$AAi?$AA?5?$AA?$DO?$AA?$DN?$AA?5?$AA0?$AA?5?$AA?$CG?$AA?$CG?$AA?5?$AAi?$AA?5?$AA?$DM?$AA?5?$AAt@
	call	QWORD PTR __imp__wassert
	xor	eax, eax
$LN4@operator:

; 338  : 		return (&x)[i];

	movsxd	rax, DWORD PTR i$[rsp]
	mov	rcx, QWORD PTR this$[rsp]
	lea	rax, QWORD PTR [rcx+rax*4]

; 339  : 	}

	add	rsp, 32					; 00000020H
	pop	rdi
	ret	0
??A?$tvec4@M$0A@@glm@@QEBAAEBMH@Z ENDP			; glm::tvec4<float,0>::operator[]
_TEXT	ENDS
; Function compile flags: /Odtp /RTCsu
; File C:\Users\ksart\OneDrive\Desktop\FlappyBird\libraries\external\glm\glm\detail\type_vec4.hpp
;	COMDAT ?length@?$tvec4@M$0A@@glm@@SAHXZ
_TEXT	SEGMENT
?length@?$tvec4@M$0A@@glm@@SAHXZ PROC			; glm::tvec4<float,0>::length, COMDAT

; 85   : 		GLM_FUNC_DECL static length_type length(){return 4;}

$LN3:
	push	rdi
	mov	eax, 4
	pop	rdi
	ret	0
?length@?$tvec4@M$0A@@glm@@SAHXZ ENDP			; glm::tvec4<float,0>::length
_TEXT	ENDS
; Function compile flags: /Odtp /RTCsu
; File C:\Users\ksart\OneDrive\Desktop\FlappyBird\libraries\external\glm\glm\detail\type_vec3.inl
;	COMDAT ??0?$tvec3@_N$0A@@glm@@QEAA@W4ctor@1@@Z
_TEXT	SEGMENT
this$ = 16
__formal$ = 24
??0?$tvec3@_N$0A@@glm@@QEAA@W4ctor@1@@Z PROC		; glm::tvec3<bool,0>::tvec3<bool,0>, COMDAT

; 60   : 	{}

$LN3:
	mov	DWORD PTR [rsp+16], edx
	mov	QWORD PTR [rsp+8], rcx
	push	rdi
	mov	rax, QWORD PTR this$[rsp]
	pop	rdi
	ret	0
??0?$tvec3@_N$0A@@glm@@QEAA@W4ctor@1@@Z ENDP		; glm::tvec3<bool,0>::tvec3<bool,0>
_TEXT	ENDS
; Function compile flags: /Odtp /RTCsu
; File C:\Users\ksart\OneDrive\Desktop\FlappyBird\libraries\external\glm\glm\detail\type_vec3.inl
;	COMDAT ??A?$tvec3@_N$0A@@glm@@QEAAAEA_NH@Z
_TEXT	SEGMENT
this$ = 48
i$ = 56
??A?$tvec3@_N$0A@@glm@@QEAAAEA_NH@Z PROC		; glm::tvec3<bool,0>::operator[], COMDAT

; 144  : 	{

$LN5:
	mov	DWORD PTR [rsp+16], edx
	mov	QWORD PTR [rsp+8], rcx
	push	rdi
	sub	rsp, 32					; 00000020H

; 145  : 		assert(i >= 0 && i < this->length());

	cmp	DWORD PTR i$[rsp], 0
	jl	SHORT $LN3@operator
	call	?length@?$tvec3@_N$0A@@glm@@SAHXZ	; glm::tvec3<bool,0>::length
	cmp	DWORD PTR i$[rsp], eax
	jl	SHORT $LN4@operator
$LN3@operator:
	mov	r8d, 145				; 00000091H
	lea	rdx, OFFSET FLAT:??_C@_1LG@MEJFBKPC@?$AAC?$AA?3?$AA?2?$AAU?$AAs?$AAe?$AAr?$AAs?$AA?2?$AAk?$AAs?$AAa?$AAr?$AAt?$AA?2@
	lea	rcx, OFFSET FLAT:??_C@_1DK@BGNCJAPL@?$AAi?$AA?5?$AA?$DO?$AA?$DN?$AA?5?$AA0?$AA?5?$AA?$CG?$AA?$CG?$AA?5?$AAi?$AA?5?$AA?$DM?$AA?5?$AAt@
	call	QWORD PTR __imp__wassert
	xor	eax, eax
$LN4@operator:

; 146  : 		return (&x)[i];

	movsxd	rax, DWORD PTR i$[rsp]
	mov	rcx, QWORD PTR this$[rsp]
	add	rcx, rax
	mov	rax, rcx

; 147  : 	}

	add	rsp, 32					; 00000020H
	pop	rdi
	ret	0
??A?$tvec3@_N$0A@@glm@@QEAAAEA_NH@Z ENDP		; glm::tvec3<bool,0>::operator[]
_TEXT	ENDS
; Function compile flags: /Odtp /RTCsu
; File C:\Users\ksart\OneDrive\Desktop\FlappyBird\libraries\external\glm\glm\detail\type_vec3.hpp
;	COMDAT ?length@?$tvec3@_N$0A@@glm@@SAHXZ
_TEXT	SEGMENT
?length@?$tvec3@_N$0A@@glm@@SAHXZ PROC			; glm::tvec3<bool,0>::length, COMDAT

; 82   : 		GLM_FUNC_DECL static length_type length(){return 3;}

$LN3:
	push	rdi
	mov	eax, 3
	pop	rdi
	ret	0
?length@?$tvec3@_N$0A@@glm@@SAHXZ ENDP			; glm::tvec3<bool,0>::length
_TEXT	ENDS
; Function compile flags: /Odtp /RTCsu
; File C:\Users\ksart\OneDrive\Desktop\FlappyBird\libraries\external\glm\glm\gtc\epsilon.inl
;	COMDAT ??$epsilonEqual@M$0A@Utvec3@glm@@@glm@@YA?AU?$tvec3@_N$0A@@0@AEBU?$tvec3@M$0A@@0@00@Z
_TEXT	SEGMENT
$T1 = 32
$T2 = 44
$T3 = 56
__$ReturnUdt$ = 112
x$ = 120
y$ = 128
epsilon$ = 136
??$epsilonEqual@M$0A@Utvec3@glm@@@glm@@YA?AU?$tvec3@_N$0A@@0@AEBU?$tvec3@M$0A@@0@00@Z PROC ; glm::epsilonEqual<float,0,glm::tvec3>, COMDAT

; 76   : 	{

$LN3:
	mov	QWORD PTR [rsp+32], r9
	mov	QWORD PTR [rsp+24], r8
	mov	QWORD PTR [rsp+16], rdx
	mov	QWORD PTR [rsp+8], rcx
	push	rsi
	push	rdi
	sub	rsp, 88					; 00000058H

; 77   : 		return lessThan(abs(x - y), vecType<T, P>(epsilon));

	lea	rax, QWORD PTR $T1[rsp]
	mov	rdi, rax
	mov	rsi, QWORD PTR epsilon$[rsp]
	mov	ecx, 12
	rep movsb
	mov	r8, QWORD PTR y$[rsp]
	mov	rdx, QWORD PTR x$[rsp]
	lea	rcx, QWORD PTR $T2[rsp]
	call	??$?GM$0A@@glm@@YA?AU?$tvec3@M$0A@@0@AEBU10@0@Z ; glm::operator-<float,0>
	mov	rdx, rax
	lea	rcx, QWORD PTR $T3[rsp]
	call	??$abs@M$0A@Utvec3@glm@@@glm@@YA?AU?$tvec3@M$0A@@0@AEBU10@@Z ; glm::abs<float,0,glm::tvec3>
	lea	r8, QWORD PTR $T1[rsp]
	mov	rdx, rax
	mov	rcx, QWORD PTR __$ReturnUdt$[rsp]
	call	??$lessThan@M$0A@Utvec3@glm@@@glm@@YA?AU?$tvec3@_N$0A@@0@AEBU?$tvec3@M$0A@@0@0@Z ; glm::lessThan<float,0,glm::tvec3>
	mov	rax, QWORD PTR __$ReturnUdt$[rsp]

; 78   : 	}

	add	rsp, 88					; 00000058H
	pop	rdi
	pop	rsi
	ret	0
??$epsilonEqual@M$0A@Utvec3@glm@@@glm@@YA?AU?$tvec3@_N$0A@@0@AEBU?$tvec3@M$0A@@0@00@Z ENDP ; glm::epsilonEqual<float,0,glm::tvec3>
_TEXT	ENDS
; Function compile flags: /Odtp /RTCsu
; File C:\Users\ksart\OneDrive\Desktop\FlappyBird\libraries\external\glm\glm\detail\type_vec3.inl
;	COMDAT ??0?$tvec3@M$0A@@glm@@QEAA@MMM@Z
_TEXT	SEGMENT
this$ = 16
a$ = 24
b$ = 32
c$ = 40
??0?$tvec3@M$0A@@glm@@QEAA@MMM@Z PROC			; glm::tvec3<float,0>::tvec3<float,0>, COMDAT

; 70   : 	{}

$LN3:
	movss	DWORD PTR [rsp+32], xmm3
	movss	DWORD PTR [rsp+24], xmm2
	movss	DWORD PTR [rsp+16], xmm1
	mov	QWORD PTR [rsp+8], rcx
	push	rdi

; 69   : 		: x(a), y(b), z(c)

	mov	rax, QWORD PTR this$[rsp]
	movss	xmm0, DWORD PTR a$[rsp]
	movss	DWORD PTR [rax], xmm0
	mov	rax, QWORD PTR this$[rsp]
	movss	xmm0, DWORD PTR b$[rsp]
	movss	DWORD PTR [rax+4], xmm0
	mov	rax, QWORD PTR this$[rsp]
	movss	xmm0, DWORD PTR c$[rsp]
	movss	DWORD PTR [rax+8], xmm0

; 70   : 	{}

	mov	rax, QWORD PTR this$[rsp]
	pop	rdi
	ret	0
??0?$tvec3@M$0A@@glm@@QEAA@MMM@Z ENDP			; glm::tvec3<float,0>::tvec3<float,0>
_TEXT	ENDS
; Function compile flags: /Odtp /RTCsu
; File C:\Users\ksart\OneDrive\Desktop\FlappyBird\libraries\external\glm\glm\detail\type_vec3.inl
;	COMDAT ??0?$tvec3@M$0A@@glm@@QEAA@M@Z
_TEXT	SEGMENT
this$ = 16
scalar$ = 24
??0?$tvec3@M$0A@@glm@@QEAA@M@Z PROC			; glm::tvec3<float,0>::tvec3<float,0>, COMDAT

; 65   : 	{}

$LN3:
	movss	DWORD PTR [rsp+16], xmm1
	mov	QWORD PTR [rsp+8], rcx
	push	rdi

; 64   : 		: x(scalar), y(scalar), z(scalar)

	mov	rax, QWORD PTR this$[rsp]
	movss	xmm0, DWORD PTR scalar$[rsp]
	movss	DWORD PTR [rax], xmm0
	mov	rax, QWORD PTR this$[rsp]
	movss	xmm0, DWORD PTR scalar$[rsp]
	movss	DWORD PTR [rax+4], xmm0
	mov	rax, QWORD PTR this$[rsp]
	movss	xmm0, DWORD PTR scalar$[rsp]
	movss	DWORD PTR [rax+8], xmm0

; 65   : 	{}

	mov	rax, QWORD PTR this$[rsp]
	pop	rdi
	ret	0
??0?$tvec3@M$0A@@glm@@QEAA@M@Z ENDP			; glm::tvec3<float,0>::tvec3<float,0>
_TEXT	ENDS
; Function compile flags: /Odtp /RTCsu
; File C:\Users\ksart\OneDrive\Desktop\FlappyBird\libraries\external\glm\glm\detail\type_vec3.inl
;	COMDAT ??0?$tvec3@M$0A@@glm@@QEAA@XZ
_TEXT	SEGMENT
this$ = 16
??0?$tvec3@M$0A@@glm@@QEAA@XZ PROC			; glm::tvec3<float,0>::tvec3<float,0>, COMDAT

; 40   : 		{}

$LN3:
	mov	QWORD PTR [rsp+8], rcx
	push	rdi

; 38   : 				: x(0), y(0), z(0)

	mov	rax, QWORD PTR this$[rsp]
	xorps	xmm0, xmm0
	movss	DWORD PTR [rax], xmm0
	mov	rax, QWORD PTR this$[rsp]
	xorps	xmm0, xmm0
	movss	DWORD PTR [rax+4], xmm0
	mov	rax, QWORD PTR this$[rsp]
	xorps	xmm0, xmm0
	movss	DWORD PTR [rax+8], xmm0

; 40   : 		{}

	mov	rax, QWORD PTR this$[rsp]
	pop	rdi
	ret	0
??0?$tvec3@M$0A@@glm@@QEAA@XZ ENDP			; glm::tvec3<float,0>::tvec3<float,0>
_TEXT	ENDS
; Function compile flags: /Odtp /RTCsu
; File C:\Users\ksart\OneDrive\Desktop\FlappyBird\libraries\external\glm\glm\detail\type_vec3.inl
;	COMDAT ??A?$tvec3@M$0A@@glm@@QEBAAEBMH@Z
_TEXT	SEGMENT
this$ = 48
i$ = 56
??A?$tvec3@M$0A@@glm@@QEBAAEBMH@Z PROC			; glm::tvec3<float,0>::operator[], COMDAT

; 151  : 	{

$LN5:
	mov	DWORD PTR [rsp+16], edx
	mov	QWORD PTR [rsp+8], rcx
	push	rdi
	sub	rsp, 32					; 00000020H

; 152  : 		assert(i >= 0 && i < this->length());

	cmp	DWORD PTR i$[rsp], 0
	jl	SHORT $LN3@operator
	call	?length@?$tvec3@M$0A@@glm@@SAHXZ	; glm::tvec3<float,0>::length
	cmp	DWORD PTR i$[rsp], eax
	jl	SHORT $LN4@operator
$LN3@operator:
	mov	r8d, 152				; 00000098H
	lea	rdx, OFFSET FLAT:??_C@_1LG@MEJFBKPC@?$AAC?$AA?3?$AA?2?$AAU?$AAs?$AAe?$AAr?$AAs?$AA?2?$AAk?$AAs?$AAa?$AAr?$AAt?$AA?2@
	lea	rcx, OFFSET FLAT:??_C@_1DK@BGNCJAPL@?$AAi?$AA?5?$AA?$DO?$AA?$DN?$AA?5?$AA0?$AA?5?$AA?$CG?$AA?$CG?$AA?5?$AAi?$AA?5?$AA?$DM?$AA?5?$AAt@
	call	QWORD PTR __imp__wassert
	xor	eax, eax
$LN4@operator:

; 153  : 		return (&x)[i];

	movsxd	rax, DWORD PTR i$[rsp]
	mov	rcx, QWORD PTR this$[rsp]
	lea	rax, QWORD PTR [rcx+rax*4]

; 154  : 	}

	add	rsp, 32					; 00000020H
	pop	rdi
	ret	0
??A?$tvec3@M$0A@@glm@@QEBAAEBMH@Z ENDP			; glm::tvec3<float,0>::operator[]
_TEXT	ENDS
; Function compile flags: /Odtp /RTCsu
; File C:\Users\ksart\OneDrive\Desktop\FlappyBird\libraries\external\glm\glm\detail\type_vec3.hpp
;	COMDAT ?length@?$tvec3@M$0A@@glm@@SAHXZ
_TEXT	SEGMENT
?length@?$tvec3@M$0A@@glm@@SAHXZ PROC			; glm::tvec3<float,0>::length, COMDAT

; 82   : 		GLM_FUNC_DECL static length_type length(){return 3;}

$LN3:
	push	rdi
	mov	eax, 3
	pop	rdi
	ret	0
?length@?$tvec3@M$0A@@glm@@SAHXZ ENDP			; glm::tvec3<float,0>::length
_TEXT	ENDS
; Function compile flags: /Odtp /RTCsu
; File C:\Users\ksart\OneDrive\Desktop\FlappyBird\libraries\external\glm\glm\detail\type_vec2.inl
;	COMDAT ??0?$tvec2@_N$0A@@glm@@QEAA@W4ctor@1@@Z
_TEXT	SEGMENT
this$ = 16
__formal$ = 24
??0?$tvec2@_N$0A@@glm@@QEAA@W4ctor@1@@Z PROC		; glm::tvec2<bool,0>::tvec2<bool,0>, COMDAT

; 47   : 	{}

$LN3:
	mov	DWORD PTR [rsp+16], edx
	mov	QWORD PTR [rsp+8], rcx
	push	rdi
	mov	rax, QWORD PTR this$[rsp]
	pop	rdi
	ret	0
??0?$tvec2@_N$0A@@glm@@QEAA@W4ctor@1@@Z ENDP		; glm::tvec2<bool,0>::tvec2<bool,0>
_TEXT	ENDS
; Function compile flags: /Odtp /RTCsu
; File C:\Users\ksart\OneDrive\Desktop\FlappyBird\libraries\external\glm\glm\detail\type_vec2.inl
;	COMDAT ??A?$tvec2@_N$0A@@glm@@QEAAAEA_NH@Z
_TEXT	SEGMENT
this$ = 48
i$ = 56
??A?$tvec2@_N$0A@@glm@@QEAAAEA_NH@Z PROC		; glm::tvec2<bool,0>::operator[], COMDAT

; 102  : 	{

$LN5:
	mov	DWORD PTR [rsp+16], edx
	mov	QWORD PTR [rsp+8], rcx
	push	rdi
	sub	rsp, 32					; 00000020H

; 103  : 		assert(i >= 0 && i < this->length());

	cmp	DWORD PTR i$[rsp], 0
	jl	SHORT $LN3@operator
	call	?length@?$tvec2@_N$0A@@glm@@SAHXZ	; glm::tvec2<bool,0>::length
	cmp	DWORD PTR i$[rsp], eax
	jl	SHORT $LN4@operator
$LN3@operator:
	mov	r8d, 103				; 00000067H
	lea	rdx, OFFSET FLAT:??_C@_1LG@FPDAFGJN@?$AAC?$AA?3?$AA?2?$AAU?$AAs?$AAe?$AAr?$AAs?$AA?2?$AAk?$AAs?$AAa?$AAr?$AAt?$AA?2@
	lea	rcx, OFFSET FLAT:??_C@_1DK@BGNCJAPL@?$AAi?$AA?5?$AA?$DO?$AA?$DN?$AA?5?$AA0?$AA?5?$AA?$CG?$AA?$CG?$AA?5?$AAi?$AA?5?$AA?$DM?$AA?5?$AAt@
	call	QWORD PTR __imp__wassert
	xor	eax, eax
$LN4@operator:

; 104  : 		return (&x)[i];

	movsxd	rax, DWORD PTR i$[rsp]
	mov	rcx, QWORD PTR this$[rsp]
	add	rcx, rax
	mov	rax, rcx

; 105  : 	}

	add	rsp, 32					; 00000020H
	pop	rdi
	ret	0
??A?$tvec2@_N$0A@@glm@@QEAAAEA_NH@Z ENDP		; glm::tvec2<bool,0>::operator[]
_TEXT	ENDS
; Function compile flags: /Odtp /RTCsu
; File C:\Users\ksart\OneDrive\Desktop\FlappyBird\libraries\external\glm\glm\detail\type_vec2.hpp
;	COMDAT ?length@?$tvec2@_N$0A@@glm@@SAHXZ
_TEXT	SEGMENT
?length@?$tvec2@_N$0A@@glm@@SAHXZ PROC			; glm::tvec2<bool,0>::length, COMDAT

; 82   : 		GLM_FUNC_DECL static length_type length(){return 2;}

$LN3:
	push	rdi
	mov	eax, 2
	pop	rdi
	ret	0
?length@?$tvec2@_N$0A@@glm@@SAHXZ ENDP			; glm::tvec2<bool,0>::length
_TEXT	ENDS
; Function compile flags: /Odtp /RTCsu
; File C:\Users\ksart\OneDrive\Desktop\FlappyBird\libraries\external\glm\glm\gtc\epsilon.inl
;	COMDAT ??$epsilonEqual@M$0A@Utvec2@glm@@@glm@@YA?AU?$tvec2@_N$0A@@0@AEBU?$tvec2@M$0A@@0@00@Z
_TEXT	SEGMENT
$T1 = 32
$T2 = 40
$T3 = 48
__$ReturnUdt$ = 80
x$ = 88
y$ = 96
epsilon$ = 104
??$epsilonEqual@M$0A@Utvec2@glm@@@glm@@YA?AU?$tvec2@_N$0A@@0@AEBU?$tvec2@M$0A@@0@00@Z PROC ; glm::epsilonEqual<float,0,glm::tvec2>, COMDAT

; 76   : 	{

$LN3:
	mov	QWORD PTR [rsp+32], r9
	mov	QWORD PTR [rsp+24], r8
	mov	QWORD PTR [rsp+16], rdx
	mov	QWORD PTR [rsp+8], rcx
	push	rdi
	sub	rsp, 64					; 00000040H

; 77   : 		return lessThan(abs(x - y), vecType<T, P>(epsilon));

	mov	rax, QWORD PTR epsilon$[rsp]
	mov	rax, QWORD PTR [rax]
	mov	QWORD PTR $T1[rsp], rax
	mov	r8, QWORD PTR y$[rsp]
	mov	rdx, QWORD PTR x$[rsp]
	lea	rcx, QWORD PTR $T2[rsp]
	call	??$?GM$0A@@glm@@YA?AU?$tvec2@M$0A@@0@AEBU10@0@Z ; glm::operator-<float,0>
	mov	rdx, rax
	lea	rcx, QWORD PTR $T3[rsp]
	call	??$abs@M$0A@Utvec2@glm@@@glm@@YA?AU?$tvec2@M$0A@@0@AEBU10@@Z ; glm::abs<float,0,glm::tvec2>
	lea	r8, QWORD PTR $T1[rsp]
	mov	rdx, rax
	mov	rcx, QWORD PTR __$ReturnUdt$[rsp]
	call	??$lessThan@M$0A@Utvec2@glm@@@glm@@YA?AU?$tvec2@_N$0A@@0@AEBU?$tvec2@M$0A@@0@0@Z ; glm::lessThan<float,0,glm::tvec2>
	mov	rax, QWORD PTR __$ReturnUdt$[rsp]

; 78   : 	}

	add	rsp, 64					; 00000040H
	pop	rdi
	ret	0
??$epsilonEqual@M$0A@Utvec2@glm@@@glm@@YA?AU?$tvec2@_N$0A@@0@AEBU?$tvec2@M$0A@@0@00@Z ENDP ; glm::epsilonEqual<float,0,glm::tvec2>
_TEXT	ENDS
; Function compile flags: /Odtp /RTCsu
; File C:\Users\ksart\OneDrive\Desktop\FlappyBird\libraries\external\glm\glm\detail\type_vec2.inl
;	COMDAT ??0?$tvec2@M$0A@@glm@@QEAA@MM@Z
_TEXT	SEGMENT
this$ = 16
s1$ = 24
s2$ = 32
??0?$tvec2@M$0A@@glm@@QEAA@MM@Z PROC			; glm::tvec2<float,0>::tvec2<float,0>, COMDAT

; 57   : 	{}

$LN3:
	movss	DWORD PTR [rsp+24], xmm2
	movss	DWORD PTR [rsp+16], xmm1
	mov	QWORD PTR [rsp+8], rcx
	push	rdi

; 56   : 		: x(s1), y(s2)

	mov	rax, QWORD PTR this$[rsp]
	movss	xmm0, DWORD PTR s1$[rsp]
	movss	DWORD PTR [rax], xmm0
	mov	rax, QWORD PTR this$[rsp]
	movss	xmm0, DWORD PTR s2$[rsp]
	movss	DWORD PTR [rax+4], xmm0

; 57   : 	{}

	mov	rax, QWORD PTR this$[rsp]
	pop	rdi
	ret	0
??0?$tvec2@M$0A@@glm@@QEAA@MM@Z ENDP			; glm::tvec2<float,0>::tvec2<float,0>
_TEXT	ENDS
; Function compile flags: /Odtp /RTCsu
; File C:\Users\ksart\OneDrive\Desktop\FlappyBird\libraries\external\glm\glm\detail\type_vec2.inl
;	COMDAT ??0?$tvec2@M$0A@@glm@@QEAA@M@Z
_TEXT	SEGMENT
this$ = 16
scalar$ = 24
??0?$tvec2@M$0A@@glm@@QEAA@M@Z PROC			; glm::tvec2<float,0>::tvec2<float,0>, COMDAT

; 52   : 	{}

$LN3:
	movss	DWORD PTR [rsp+16], xmm1
	mov	QWORD PTR [rsp+8], rcx
	push	rdi

; 51   : 		: x(scalar), y(scalar)

	mov	rax, QWORD PTR this$[rsp]
	movss	xmm0, DWORD PTR scalar$[rsp]
	movss	DWORD PTR [rax], xmm0
	mov	rax, QWORD PTR this$[rsp]
	movss	xmm0, DWORD PTR scalar$[rsp]
	movss	DWORD PTR [rax+4], xmm0

; 52   : 	{}

	mov	rax, QWORD PTR this$[rsp]
	pop	rdi
	ret	0
??0?$tvec2@M$0A@@glm@@QEAA@M@Z ENDP			; glm::tvec2<float,0>::tvec2<float,0>
_TEXT	ENDS
; Function compile flags: /Odtp /RTCsu
; File C:\Users\ksart\OneDrive\Desktop\FlappyBird\libraries\external\glm\glm\detail\type_vec2.inl
;	COMDAT ??0?$tvec2@M$0A@@glm@@QEAA@XZ
_TEXT	SEGMENT
this$ = 16
??0?$tvec2@M$0A@@glm@@QEAA@XZ PROC			; glm::tvec2<float,0>::tvec2<float,0>, COMDAT

; 27   : 		{}

$LN3:
	mov	QWORD PTR [rsp+8], rcx
	push	rdi

; 25   : 				: x(0), y(0)

	mov	rax, QWORD PTR this$[rsp]
	xorps	xmm0, xmm0
	movss	DWORD PTR [rax], xmm0
	mov	rax, QWORD PTR this$[rsp]
	xorps	xmm0, xmm0
	movss	DWORD PTR [rax+4], xmm0

; 27   : 		{}

	mov	rax, QWORD PTR this$[rsp]
	pop	rdi
	ret	0
??0?$tvec2@M$0A@@glm@@QEAA@XZ ENDP			; glm::tvec2<float,0>::tvec2<float,0>
_TEXT	ENDS
; Function compile flags: /Odtp /RTCsu
; File C:\Users\ksart\OneDrive\Desktop\FlappyBird\libraries\external\glm\glm\detail\type_vec2.inl
;	COMDAT ??A?$tvec2@M$0A@@glm@@QEBAAEBMH@Z
_TEXT	SEGMENT
this$ = 48
i$ = 56
??A?$tvec2@M$0A@@glm@@QEBAAEBMH@Z PROC			; glm::tvec2<float,0>::operator[], COMDAT

; 109  : 	{

$LN5:
	mov	DWORD PTR [rsp+16], edx
	mov	QWORD PTR [rsp+8], rcx
	push	rdi
	sub	rsp, 32					; 00000020H

; 110  : 		assert(i >= 0 && i < this->length());

	cmp	DWORD PTR i$[rsp], 0
	jl	SHORT $LN3@operator
	call	?length@?$tvec2@M$0A@@glm@@SAHXZ	; glm::tvec2<float,0>::length
	cmp	DWORD PTR i$[rsp], eax
	jl	SHORT $LN4@operator
$LN3@operator:
	mov	r8d, 110				; 0000006eH
	lea	rdx, OFFSET FLAT:??_C@_1LG@FPDAFGJN@?$AAC?$AA?3?$AA?2?$AAU?$AAs?$AAe?$AAr?$AAs?$AA?2?$AAk?$AAs?$AAa?$AAr?$AAt?$AA?2@
	lea	rcx, OFFSET FLAT:??_C@_1DK@BGNCJAPL@?$AAi?$AA?5?$AA?$DO?$AA?$DN?$AA?5?$AA0?$AA?5?$AA?$CG?$AA?$CG?$AA?5?$AAi?$AA?5?$AA?$DM?$AA?5?$AAt@
	call	QWORD PTR __imp__wassert
	xor	eax, eax
$LN4@operator:

; 111  : 		return (&x)[i];

	movsxd	rax, DWORD PTR i$[rsp]
	mov	rcx, QWORD PTR this$[rsp]
	lea	rax, QWORD PTR [rcx+rax*4]

; 112  : 	}

	add	rsp, 32					; 00000020H
	pop	rdi
	ret	0
??A?$tvec2@M$0A@@glm@@QEBAAEBMH@Z ENDP			; glm::tvec2<float,0>::operator[]
_TEXT	ENDS
; Function compile flags: /Odtp /RTCsu
; File C:\Users\ksart\OneDrive\Desktop\FlappyBird\libraries\external\glm\glm\detail\type_vec2.hpp
;	COMDAT ?length@?$tvec2@M$0A@@glm@@SAHXZ
_TEXT	SEGMENT
?length@?$tvec2@M$0A@@glm@@SAHXZ PROC			; glm::tvec2<float,0>::length, COMDAT

; 82   : 		GLM_FUNC_DECL static length_type length(){return 2;}

$LN3:
	push	rdi
	mov	eax, 2
	pop	rdi
	ret	0
?length@?$tvec2@M$0A@@glm@@SAHXZ ENDP			; glm::tvec2<float,0>::length
_TEXT	ENDS
; Function compile flags: /Odtp /RTCsu
; File C:\Users\ksart\OneDrive\Desktop\FlappyBird\libraries\external\glm\test\gtc\gtc_epsilon.cpp
_TEXT	SEGMENT
$T1 = 32
$T2 = 40
$T3 = 48
$T4 = 56
$T5 = 60
$T6 = 72
$T7 = 84
$T8 = 96
$T9 = 100
$T10 = 116
$T11 = 132
$T12 = 148
$T13 = 152
$T14 = 160
$T15 = 168
$T16 = 176
$T17 = 180
$T18 = 192
$T19 = 204
$T20 = 216
$T21 = 220
$T22 = 236
$T23 = 252
$T24 = 268
$T25 = 272
$T26 = 276
$T27 = 284
$T28 = 292
$T29 = 296
$T30 = 300
$T31 = 312
$T32 = 324
$T33 = 328
$T34 = 332
$T35 = 348
$T36 = 364
$T37 = 368
$T38 = 372
$T39 = 388
$T40 = 404
$T41 = 408
$T42 = 412
$T43 = 420
$T44 = 428
$T45 = 432
$T46 = 436
$T47 = 448
$T48 = 460
$T49 = 464
$T50 = 468
$T51 = 484
$T52 = 500
$T53 = 504
$T54 = 508
$T55 = 524
$T56 = 540
tv66 = 544
tv69 = 552
tv76 = 560
tv79 = 568
tv86 = 576
tv89 = 584
tv128 = 592
tv131 = 600
tv138 = 608
tv141 = 616
tv148 = 624
tv151 = 632
tv159 = 640
tv167 = 648
tv175 = 656
tv183 = 664
tv191 = 672
tv231 = 680
tv239 = 688
tv247 = 696
?test_defined@@YAHXZ PROC				; test_defined

; 6    : {

$LN3:
	push	rdi
	sub	rsp, 704				; 000002c0H

; 7    : 	glm::epsilonEqual(glm::vec2(), glm::vec2(), glm::vec2());

	lea	rcx, QWORD PTR $T1[rsp]
	call	??0?$tvec2@M$0A@@glm@@QEAA@XZ		; glm::tvec2<float,0>::tvec2<float,0>
	mov	QWORD PTR tv66[rsp], rax
	lea	rcx, QWORD PTR $T2[rsp]
	call	??0?$tvec2@M$0A@@glm@@QEAA@XZ		; glm::tvec2<float,0>::tvec2<float,0>
	mov	QWORD PTR tv69[rsp], rax
	lea	rcx, QWORD PTR $T3[rsp]
	call	??0?$tvec2@M$0A@@glm@@QEAA@XZ		; glm::tvec2<float,0>::tvec2<float,0>
	mov	rcx, QWORD PTR tv66[rsp]
	mov	r9, rcx
	mov	rcx, QWORD PTR tv69[rsp]
	mov	r8, rcx
	mov	rdx, rax
	lea	rcx, QWORD PTR $T4[rsp]
	call	??$epsilonEqual@M$0A@Utvec2@glm@@@glm@@YA?AU?$tvec2@_N$0A@@0@AEBU?$tvec2@M$0A@@0@00@Z ; glm::epsilonEqual<float,0,glm::tvec2>

; 8    : 	glm::epsilonEqual(glm::vec3(), glm::vec3(), glm::vec3());

	lea	rcx, QWORD PTR $T5[rsp]
	call	??0?$tvec3@M$0A@@glm@@QEAA@XZ		; glm::tvec3<float,0>::tvec3<float,0>
	mov	QWORD PTR tv76[rsp], rax
	lea	rcx, QWORD PTR $T6[rsp]
	call	??0?$tvec3@M$0A@@glm@@QEAA@XZ		; glm::tvec3<float,0>::tvec3<float,0>
	mov	QWORD PTR tv79[rsp], rax
	lea	rcx, QWORD PTR $T7[rsp]
	call	??0?$tvec3@M$0A@@glm@@QEAA@XZ		; glm::tvec3<float,0>::tvec3<float,0>
	mov	rcx, QWORD PTR tv76[rsp]
	mov	r9, rcx
	mov	rcx, QWORD PTR tv79[rsp]
	mov	r8, rcx
	mov	rdx, rax
	lea	rcx, QWORD PTR $T8[rsp]
	call	??$epsilonEqual@M$0A@Utvec3@glm@@@glm@@YA?AU?$tvec3@_N$0A@@0@AEBU?$tvec3@M$0A@@0@00@Z ; glm::epsilonEqual<float,0,glm::tvec3>

; 9    : 	glm::epsilonEqual(glm::vec4(), glm::vec4(), glm::vec4());

	lea	rcx, QWORD PTR $T9[rsp]
	call	??0?$tvec4@M$0A@@glm@@QEAA@XZ		; glm::tvec4<float,0>::tvec4<float,0>
	mov	QWORD PTR tv86[rsp], rax
	lea	rcx, QWORD PTR $T10[rsp]
	call	??0?$tvec4@M$0A@@glm@@QEAA@XZ		; glm::tvec4<float,0>::tvec4<float,0>
	mov	QWORD PTR tv89[rsp], rax
	lea	rcx, QWORD PTR $T11[rsp]
	call	??0?$tvec4@M$0A@@glm@@QEAA@XZ		; glm::tvec4<float,0>::tvec4<float,0>
	mov	rcx, QWORD PTR tv86[rsp]
	mov	r9, rcx
	mov	rcx, QWORD PTR tv89[rsp]
	mov	r8, rcx
	mov	rdx, rax
	lea	rcx, QWORD PTR $T12[rsp]
	call	??$epsilonEqual@M$0A@Utvec4@glm@@@glm@@YA?AU?$tvec4@_N$0A@@0@AEBU?$tvec4@M$0A@@0@00@Z ; glm::epsilonEqual<float,0,glm::tvec4>

; 10   : 
; 11   : 	glm::epsilonNotEqual(glm::vec2(), glm::vec2(), glm::vec2());

	lea	rcx, QWORD PTR $T13[rsp]
	call	??0?$tvec2@M$0A@@glm@@QEAA@XZ		; glm::tvec2<float,0>::tvec2<float,0>
	mov	QWORD PTR tv128[rsp], rax
	lea	rcx, QWORD PTR $T14[rsp]
	call	??0?$tvec2@M$0A@@glm@@QEAA@XZ		; glm::tvec2<float,0>::tvec2<float,0>
	mov	QWORD PTR tv131[rsp], rax
	lea	rcx, QWORD PTR $T15[rsp]
	call	??0?$tvec2@M$0A@@glm@@QEAA@XZ		; glm::tvec2<float,0>::tvec2<float,0>
	mov	rcx, QWORD PTR tv128[rsp]
	mov	r9, rcx
	mov	rcx, QWORD PTR tv131[rsp]
	mov	r8, rcx
	mov	rdx, rax
	lea	rcx, QWORD PTR $T16[rsp]
	call	??$epsilonNotEqual@M$0A@Utvec2@glm@@@glm@@YA?AU?$tvec2@_N$0A@@0@AEBU?$tvec2@M$0A@@0@00@Z ; glm::epsilonNotEqual<float,0,glm::tvec2>

; 12   : 	glm::epsilonNotEqual(glm::vec3(), glm::vec3(), glm::vec3());

	lea	rcx, QWORD PTR $T17[rsp]
	call	??0?$tvec3@M$0A@@glm@@QEAA@XZ		; glm::tvec3<float,0>::tvec3<float,0>
	mov	QWORD PTR tv138[rsp], rax
	lea	rcx, QWORD PTR $T18[rsp]
	call	??0?$tvec3@M$0A@@glm@@QEAA@XZ		; glm::tvec3<float,0>::tvec3<float,0>
	mov	QWORD PTR tv141[rsp], rax
	lea	rcx, QWORD PTR $T19[rsp]
	call	??0?$tvec3@M$0A@@glm@@QEAA@XZ		; glm::tvec3<float,0>::tvec3<float,0>
	mov	rcx, QWORD PTR tv138[rsp]
	mov	r9, rcx
	mov	rcx, QWORD PTR tv141[rsp]
	mov	r8, rcx
	mov	rdx, rax
	lea	rcx, QWORD PTR $T20[rsp]
	call	??$epsilonNotEqual@M$0A@Utvec3@glm@@@glm@@YA?AU?$tvec3@_N$0A@@0@AEBU?$tvec3@M$0A@@0@00@Z ; glm::epsilonNotEqual<float,0,glm::tvec3>

; 13   : 	glm::epsilonNotEqual(glm::vec4(), glm::vec4(), glm::vec4());

	lea	rcx, QWORD PTR $T21[rsp]
	call	??0?$tvec4@M$0A@@glm@@QEAA@XZ		; glm::tvec4<float,0>::tvec4<float,0>
	mov	QWORD PTR tv148[rsp], rax
	lea	rcx, QWORD PTR $T22[rsp]
	call	??0?$tvec4@M$0A@@glm@@QEAA@XZ		; glm::tvec4<float,0>::tvec4<float,0>
	mov	QWORD PTR tv151[rsp], rax
	lea	rcx, QWORD PTR $T23[rsp]
	call	??0?$tvec4@M$0A@@glm@@QEAA@XZ		; glm::tvec4<float,0>::tvec4<float,0>
	mov	rcx, QWORD PTR tv148[rsp]
	mov	r9, rcx
	mov	rcx, QWORD PTR tv151[rsp]
	mov	r8, rcx
	mov	rdx, rax
	lea	rcx, QWORD PTR $T24[rsp]
	call	??$epsilonNotEqual@M$0A@Utvec4@glm@@@glm@@YA?AU?$tvec4@_N$0A@@0@AEBU?$tvec4@M$0A@@0@00@Z ; glm::epsilonNotEqual<float,0,glm::tvec4>

; 14   : 	
; 15   : 	glm::epsilonEqual(glm::vec2(), glm::vec2(), 0.0f);

	xorps	xmm0, xmm0
	movss	DWORD PTR $T25[rsp], xmm0
	lea	rcx, QWORD PTR $T26[rsp]
	call	??0?$tvec2@M$0A@@glm@@QEAA@XZ		; glm::tvec2<float,0>::tvec2<float,0>
	mov	QWORD PTR tv159[rsp], rax
	lea	rcx, QWORD PTR $T27[rsp]
	call	??0?$tvec2@M$0A@@glm@@QEAA@XZ		; glm::tvec2<float,0>::tvec2<float,0>
	lea	r9, QWORD PTR $T25[rsp]
	mov	rcx, QWORD PTR tv159[rsp]
	mov	r8, rcx
	mov	rdx, rax
	lea	rcx, QWORD PTR $T28[rsp]
	call	??$epsilonEqual@M$0A@Utvec2@glm@@@glm@@YA?AU?$tvec2@_N$0A@@0@AEBU?$tvec2@M$0A@@0@0AEBM@Z ; glm::epsilonEqual<float,0,glm::tvec2>

; 16   : 	glm::epsilonEqual(glm::vec3(), glm::vec3(), 0.0f);

	xorps	xmm0, xmm0
	movss	DWORD PTR $T29[rsp], xmm0
	lea	rcx, QWORD PTR $T30[rsp]
	call	??0?$tvec3@M$0A@@glm@@QEAA@XZ		; glm::tvec3<float,0>::tvec3<float,0>
	mov	QWORD PTR tv167[rsp], rax
	lea	rcx, QWORD PTR $T31[rsp]
	call	??0?$tvec3@M$0A@@glm@@QEAA@XZ		; glm::tvec3<float,0>::tvec3<float,0>
	lea	r9, QWORD PTR $T29[rsp]
	mov	rcx, QWORD PTR tv167[rsp]
	mov	r8, rcx
	mov	rdx, rax
	lea	rcx, QWORD PTR $T32[rsp]
	call	??$epsilonEqual@M$0A@Utvec3@glm@@@glm@@YA?AU?$tvec3@_N$0A@@0@AEBU?$tvec3@M$0A@@0@0AEBM@Z ; glm::epsilonEqual<float,0,glm::tvec3>

; 17   : 	glm::epsilonEqual(glm::vec4(), glm::vec4(), 0.0f);

	xorps	xmm0, xmm0
	movss	DWORD PTR $T33[rsp], xmm0
	lea	rcx, QWORD PTR $T34[rsp]
	call	??0?$tvec4@M$0A@@glm@@QEAA@XZ		; glm::tvec4<float,0>::tvec4<float,0>
	mov	QWORD PTR tv175[rsp], rax
	lea	rcx, QWORD PTR $T35[rsp]
	call	??0?$tvec4@M$0A@@glm@@QEAA@XZ		; glm::tvec4<float,0>::tvec4<float,0>
	lea	r9, QWORD PTR $T33[rsp]
	mov	rcx, QWORD PTR tv175[rsp]
	mov	r8, rcx
	mov	rdx, rax
	lea	rcx, QWORD PTR $T36[rsp]
	call	??$epsilonEqual@M$0A@Utvec4@glm@@@glm@@YA?AU?$tvec4@_N$0A@@0@AEBU?$tvec4@M$0A@@0@0AEBM@Z ; glm::epsilonEqual<float,0,glm::tvec4>

; 18   : 	glm::epsilonEqual(glm::quat(), glm::quat(), 0.0f);

	xorps	xmm0, xmm0
	movss	DWORD PTR $T37[rsp], xmm0
	lea	rcx, QWORD PTR $T38[rsp]
	call	??0?$tquat@M$0A@@glm@@QEAA@XZ		; glm::tquat<float,0>::tquat<float,0>
	mov	QWORD PTR tv183[rsp], rax
	lea	rcx, QWORD PTR $T39[rsp]
	call	??0?$tquat@M$0A@@glm@@QEAA@XZ		; glm::tquat<float,0>::tquat<float,0>
	lea	r9, QWORD PTR $T37[rsp]
	mov	rcx, QWORD PTR tv183[rsp]
	mov	r8, rcx
	mov	rdx, rax
	lea	rcx, QWORD PTR $T40[rsp]
	call	??$epsilonEqual@M$0A@@glm@@YA?AU?$tvec4@_N$0A@@0@AEBU?$tquat@M$0A@@0@0AEBM@Z ; glm::epsilonEqual<float,0>

; 19   : 
; 20   : 	glm::epsilonNotEqual(glm::vec2(), glm::vec2(), 0.0f);

	xorps	xmm0, xmm0
	movss	DWORD PTR $T41[rsp], xmm0
	lea	rcx, QWORD PTR $T42[rsp]
	call	??0?$tvec2@M$0A@@glm@@QEAA@XZ		; glm::tvec2<float,0>::tvec2<float,0>
	mov	QWORD PTR tv191[rsp], rax
	lea	rcx, QWORD PTR $T43[rsp]
	call	??0?$tvec2@M$0A@@glm@@QEAA@XZ		; glm::tvec2<float,0>::tvec2<float,0>
	lea	r9, QWORD PTR $T41[rsp]
	mov	rcx, QWORD PTR tv191[rsp]
	mov	r8, rcx
	mov	rdx, rax
	lea	rcx, QWORD PTR $T44[rsp]
	call	??$epsilonNotEqual@M$0A@Utvec2@glm@@@glm@@YA?AU?$tvec2@_N$0A@@0@AEBU?$tvec2@M$0A@@0@0AEBM@Z ; glm::epsilonNotEqual<float,0,glm::tvec2>

; 21   : 	glm::epsilonNotEqual(glm::vec3(), glm::vec3(), 0.0f);

	xorps	xmm0, xmm0
	movss	DWORD PTR $T45[rsp], xmm0
	lea	rcx, QWORD PTR $T46[rsp]
	call	??0?$tvec3@M$0A@@glm@@QEAA@XZ		; glm::tvec3<float,0>::tvec3<float,0>
	mov	QWORD PTR tv231[rsp], rax
	lea	rcx, QWORD PTR $T47[rsp]
	call	??0?$tvec3@M$0A@@glm@@QEAA@XZ		; glm::tvec3<float,0>::tvec3<float,0>
	lea	r9, QWORD PTR $T45[rsp]
	mov	rcx, QWORD PTR tv231[rsp]
	mov	r8, rcx
	mov	rdx, rax
	lea	rcx, QWORD PTR $T48[rsp]
	call	??$epsilonNotEqual@M$0A@Utvec3@glm@@@glm@@YA?AU?$tvec3@_N$0A@@0@AEBU?$tvec3@M$0A@@0@0AEBM@Z ; glm::epsilonNotEqual<float,0,glm::tvec3>

; 22   : 	glm::epsilonNotEqual(glm::vec4(), glm::vec4(), 0.0f);

	xorps	xmm0, xmm0
	movss	DWORD PTR $T49[rsp], xmm0
	lea	rcx, QWORD PTR $T50[rsp]
	call	??0?$tvec4@M$0A@@glm@@QEAA@XZ		; glm::tvec4<float,0>::tvec4<float,0>
	mov	QWORD PTR tv239[rsp], rax
	lea	rcx, QWORD PTR $T51[rsp]
	call	??0?$tvec4@M$0A@@glm@@QEAA@XZ		; glm::tvec4<float,0>::tvec4<float,0>
	lea	r9, QWORD PTR $T49[rsp]
	mov	rcx, QWORD PTR tv239[rsp]
	mov	r8, rcx
	mov	rdx, rax
	lea	rcx, QWORD PTR $T52[rsp]
	call	??$epsilonNotEqual@M$0A@Utvec4@glm@@@glm@@YA?AU?$tvec4@_N$0A@@0@AEBU?$tvec4@M$0A@@0@0AEBM@Z ; glm::epsilonNotEqual<float,0,glm::tvec4>

; 23   : 	glm::epsilonNotEqual(glm::quat(), glm::quat(), 0.0f);

	xorps	xmm0, xmm0
	movss	DWORD PTR $T53[rsp], xmm0
	lea	rcx, QWORD PTR $T54[rsp]
	call	??0?$tquat@M$0A@@glm@@QEAA@XZ		; glm::tquat<float,0>::tquat<float,0>
	mov	QWORD PTR tv247[rsp], rax
	lea	rcx, QWORD PTR $T55[rsp]
	call	??0?$tquat@M$0A@@glm@@QEAA@XZ		; glm::tquat<float,0>::tquat<float,0>
	lea	r9, QWORD PTR $T53[rsp]
	mov	rcx, QWORD PTR tv247[rsp]
	mov	r8, rcx
	mov	rdx, rax
	lea	rcx, QWORD PTR $T56[rsp]
	call	??$epsilonNotEqual@M$0A@@glm@@YA?AU?$tvec4@_N$0A@@0@AEBU?$tquat@M$0A@@0@0AEBM@Z ; glm::epsilonNotEqual<float,0>

; 24   : 
; 25   : 	return 0;

	xor	eax, eax

; 26   : }

	add	rsp, 704				; 000002c0H
	pop	rdi
	ret	0
?test_defined@@YAHXZ ENDP				; test_defined
_TEXT	ENDS
; Function compile flags: /Odtp /RTCsu
; File C:\Users\ksart\OneDrive\Desktop\FlappyBird\libraries\external\glm\glm\detail\func_common.inl
;	COMDAT ??$abs@N@glm@@YANN@Z
_TEXT	SEGMENT
x$ = 64
??$abs@N@glm@@YANN@Z PROC				; glm::abs<double>, COMDAT

; 310  : 	{

$LN3:
	movsd	QWORD PTR [rsp+8], xmm0
	push	rdi
	sub	rsp, 48					; 00000030H

; 311  : 		return detail::compute_abs<genFIType, std::numeric_limits<genFIType>::is_signed>::call(x);

	movsd	xmm0, QWORD PTR x$[rsp]
	call	?call@?$compute_abs@N$00@detail@glm@@SANN@Z ; glm::detail::compute_abs<double,1>::call

; 312  : 	}

	add	rsp, 48					; 00000030H
	pop	rdi
	ret	0
??$abs@N@glm@@YANN@Z ENDP				; glm::abs<double>
_TEXT	ENDS
; Function compile flags: /Odtp /RTCsu
; File C:\Users\ksart\OneDrive\Desktop\FlappyBird\libraries\external\glm\glm\gtc\epsilon.inl
;	COMDAT ??$epsilonEqual@N@glm@@YA_NAEBN00@Z
_TEXT	SEGMENT
tv68 = 32
x$ = 64
y$ = 72
epsilon$ = 80
??$epsilonEqual@N@glm@@YA_NAEBN00@Z PROC		; glm::epsilonEqual<double>, COMDAT

; 32   : 	{

$LN5:
	mov	QWORD PTR [rsp+24], r8
	mov	QWORD PTR [rsp+16], rdx
	mov	QWORD PTR [rsp+8], rcx
	push	rdi
	sub	rsp, 48					; 00000030H

; 33   : 		return abs(x - y) < epsilon;

	mov	rax, QWORD PTR x$[rsp]
	mov	rcx, QWORD PTR y$[rsp]
	movsd	xmm0, QWORD PTR [rax]
	subsd	xmm0, QWORD PTR [rcx]
	call	??$abs@N@glm@@YANN@Z			; glm::abs<double>
	mov	rax, QWORD PTR epsilon$[rsp]
	movsd	xmm1, QWORD PTR [rax]
	comisd	xmm1, xmm0
	jbe	SHORT $LN3@epsilonEqu
	mov	DWORD PTR tv68[rsp], 1
	jmp	SHORT $LN4@epsilonEqu
$LN3@epsilonEqu:
	mov	DWORD PTR tv68[rsp], 0
$LN4@epsilonEqu:
	movzx	eax, BYTE PTR tv68[rsp]

; 34   : 	}

	add	rsp, 48					; 00000030H
	pop	rdi
	ret	0
??$epsilonEqual@N@glm@@YA_NAEBN00@Z ENDP		; glm::epsilonEqual<double>
_TEXT	ENDS
; Function compile flags: /Odtp /RTCsu
; File C:\Users\ksart\OneDrive\Desktop\FlappyBird\libraries\external\glm\glm\detail\func_common.inl
;	COMDAT ??$abs@M@glm@@YAMM@Z
_TEXT	SEGMENT
x$ = 64
??$abs@M@glm@@YAMM@Z PROC				; glm::abs<float>, COMDAT

; 310  : 	{

$LN3:
	movss	DWORD PTR [rsp+8], xmm0
	push	rdi
	sub	rsp, 48					; 00000030H

; 311  : 		return detail::compute_abs<genFIType, std::numeric_limits<genFIType>::is_signed>::call(x);

	movss	xmm0, DWORD PTR x$[rsp]
	call	?call@?$compute_abs@M$00@detail@glm@@SAMM@Z ; glm::detail::compute_abs<float,1>::call

; 312  : 	}

	add	rsp, 48					; 00000030H
	pop	rdi
	ret	0
??$abs@M@glm@@YAMM@Z ENDP				; glm::abs<float>
_TEXT	ENDS
; Function compile flags: /Odtp /RTCsu
; File C:\Users\ksart\OneDrive\Desktop\FlappyBird\libraries\external\glm\glm\gtc\epsilon.inl
;	COMDAT ??$epsilonEqual@M@glm@@YA_NAEBM00@Z
_TEXT	SEGMENT
tv68 = 32
x$ = 64
y$ = 72
epsilon$ = 80
??$epsilonEqual@M@glm@@YA_NAEBM00@Z PROC		; glm::epsilonEqual<float>, COMDAT

; 21   : 	{

$LN5:
	mov	QWORD PTR [rsp+24], r8
	mov	QWORD PTR [rsp+16], rdx
	mov	QWORD PTR [rsp+8], rcx
	push	rdi
	sub	rsp, 48					; 00000030H

; 22   : 		return abs(x - y) < epsilon;

	mov	rax, QWORD PTR x$[rsp]
	mov	rcx, QWORD PTR y$[rsp]
	movss	xmm0, DWORD PTR [rax]
	subss	xmm0, DWORD PTR [rcx]
	call	??$abs@M@glm@@YAMM@Z			; glm::abs<float>
	mov	rax, QWORD PTR epsilon$[rsp]
	movss	xmm1, DWORD PTR [rax]
	comiss	xmm1, xmm0
	jbe	SHORT $LN3@epsilonEqu
	mov	DWORD PTR tv68[rsp], 1
	jmp	SHORT $LN4@epsilonEqu
$LN3@epsilonEqu:
	mov	DWORD PTR tv68[rsp], 0
$LN4@epsilonEqu:
	movzx	eax, BYTE PTR tv68[rsp]

; 23   : 	}

	add	rsp, 48					; 00000030H
	pop	rdi
	ret	0
??$epsilonEqual@M@glm@@YA_NAEBM00@Z ENDP		; glm::epsilonEqual<float>
_TEXT	ENDS
; Function compile flags: /Odtp /RTCsu
; File C:\Program Files\Microsoft Visual Studio\2022\Community\VC\Tools\MSVC\14.32.31326\include\limits
;	COMDAT ?epsilon@?$numeric_limits@N@std@@SANXZ
_TEXT	SEGMENT
?epsilon@?$numeric_limits@N@std@@SANXZ PROC		; std::numeric_limits<double>::epsilon, COMDAT

; 920  :     _NODISCARD static constexpr double epsilon() noexcept {

$LN3:
	push	rdi
	sub	rsp, 16

; 921  :         return DBL_EPSILON;

	movsd	xmm0, QWORD PTR __real@3cb0000000000000

; 922  :     }

	add	rsp, 16
	pop	rdi
	ret	0
?epsilon@?$numeric_limits@N@std@@SANXZ ENDP		; std::numeric_limits<double>::epsilon
_TEXT	ENDS
; Function compile flags: /Odtp /RTCsu
; File C:\Program Files\Microsoft Visual Studio\2022\Community\VC\Tools\MSVC\14.32.31326\include\limits
;	COMDAT ?epsilon@?$numeric_limits@M@std@@SAMXZ
_TEXT	SEGMENT
?epsilon@?$numeric_limits@M@std@@SAMXZ PROC		; std::numeric_limits<float>::epsilon, COMDAT

; 872  :     _NODISCARD static constexpr float epsilon() noexcept {

$LN3:
	push	rdi
	sub	rsp, 16

; 873  :         return FLT_EPSILON;

	movss	xmm0, DWORD PTR __real@34000000

; 874  :     }

	add	rsp, 16
	pop	rdi
	ret	0
?epsilon@?$numeric_limits@M@std@@SAMXZ ENDP		; std::numeric_limits<float>::epsilon
_TEXT	ENDS
END
