; Listing generated by Microsoft (R) Optimizing Compiler Version 19.32.31329.0 

include listing.inc

INCLUDELIB MSVCRTD

CONST	SEGMENT
$SG28304 DB	'C', 00H, ':', 00H, '\', 00H, 'U', 00H, 's', 00H, 'e', 00H
	DB	'r', 00H, 's', 00H, '\', 00H, 'k', 00H, 's', 00H, 'a', 00H, 'r'
	DB	00H, 't', 00H, '\', 00H, 'O', 00H, 'n', 00H, 'e', 00H, 'D', 00H
	DB	'r', 00H, 'i', 00H, 'v', 00H, 'e', 00H, '\', 00H, 'D', 00H, 'e'
	DB	00H, 's', 00H, 'k', 00H, 't', 00H, 'o', 00H, 'p', 00H, '\', 00H
	DB	'F', 00H, 'l', 00H, 'a', 00H, 'p', 00H, 'p', 00H, 'y', 00H, 'B'
	DB	00H, 'i', 00H, 'r', 00H, 'd', 00H, '\', 00H, 'l', 00H, 'i', 00H
	DB	'b', 00H, 'r', 00H, 'a', 00H, 'r', 00H, 'i', 00H, 'e', 00H, 's'
	DB	00H, '\', 00H, 'e', 00H, 'x', 00H, 't', 00H, 'e', 00H, 'r', 00H
	DB	'n', 00H, 'a', 00H, 'l', 00H, '\', 00H, 'g', 00H, 'l', 00H, 'm'
	DB	00H, '\', 00H, 't', 00H, 'e', 00H, 's', 00H, 't', 00H, '\', 00H
	DB	'g', 00H, 't', 00H, 'c', 00H, '\', 00H, 'g', 00H, 't', 00H, 'c'
	DB	00H, '_', 00H, 'r', 00H, 'a', 00H, 'n', 00H, 'd', 00H, 'o', 00H
	DB	'm', 00H, '.', 00H, 'c', 00H, 'p', 00H, 'p', 00H, 00H, 00H
	ORG $+4
$SG28305 DB	'!', 00H, 'E', 00H, 'r', 00H, 'r', 00H, 'o', 00H, 'r', 00H
	DB	00H, 00H
	ORG $+10
$SG28306 DB	'C', 00H, ':', 00H, '\', 00H, 'U', 00H, 's', 00H, 'e', 00H
	DB	'r', 00H, 's', 00H, '\', 00H, 'k', 00H, 's', 00H, 'a', 00H, 'r'
	DB	00H, 't', 00H, '\', 00H, 'O', 00H, 'n', 00H, 'e', 00H, 'D', 00H
	DB	'r', 00H, 'i', 00H, 'v', 00H, 'e', 00H, '\', 00H, 'D', 00H, 'e'
	DB	00H, 's', 00H, 'k', 00H, 't', 00H, 'o', 00H, 'p', 00H, '\', 00H
	DB	'F', 00H, 'l', 00H, 'a', 00H, 'p', 00H, 'p', 00H, 'y', 00H, 'B'
	DB	00H, 'i', 00H, 'r', 00H, 'd', 00H, '\', 00H, 'l', 00H, 'i', 00H
	DB	'b', 00H, 'r', 00H, 'a', 00H, 'r', 00H, 'i', 00H, 'e', 00H, 's'
	DB	00H, '\', 00H, 'e', 00H, 'x', 00H, 't', 00H, 'e', 00H, 'r', 00H
	DB	'n', 00H, 'a', 00H, 'l', 00H, '\', 00H, 'g', 00H, 'l', 00H, 'm'
	DB	00H, '\', 00H, 't', 00H, 'e', 00H, 's', 00H, 't', 00H, '\', 00H
	DB	'g', 00H, 't', 00H, 'c', 00H, '\', 00H, 'g', 00H, 't', 00H, 'c'
	DB	00H, '_', 00H, 'r', 00H, 'a', 00H, 'n', 00H, 'd', 00H, 'o', 00H
	DB	'm', 00H, '.', 00H, 'c', 00H, 'p', 00H, 'p', 00H, 00H, 00H
	ORG $+4
$SG28307 DB	'!', 00H, 'E', 00H, 'r', 00H, 'r', 00H, 'o', 00H, 'r', 00H
	DB	00H, 00H
	ORG $+10
$SG28310 DB	'C', 00H, ':', 00H, '\', 00H, 'U', 00H, 's', 00H, 'e', 00H
	DB	'r', 00H, 's', 00H, '\', 00H, 'k', 00H, 's', 00H, 'a', 00H, 'r'
	DB	00H, 't', 00H, '\', 00H, 'O', 00H, 'n', 00H, 'e', 00H, 'D', 00H
	DB	'r', 00H, 'i', 00H, 'v', 00H, 'e', 00H, '\', 00H, 'D', 00H, 'e'
	DB	00H, 's', 00H, 'k', 00H, 't', 00H, 'o', 00H, 'p', 00H, '\', 00H
	DB	'F', 00H, 'l', 00H, 'a', 00H, 'p', 00H, 'p', 00H, 'y', 00H, 'B'
	DB	00H, 'i', 00H, 'r', 00H, 'd', 00H, '\', 00H, 'l', 00H, 'i', 00H
	DB	'b', 00H, 'r', 00H, 'a', 00H, 'r', 00H, 'i', 00H, 'e', 00H, 's'
	DB	00H, '\', 00H, 'e', 00H, 'x', 00H, 't', 00H, 'e', 00H, 'r', 00H
	DB	'n', 00H, 'a', 00H, 'l', 00H, '\', 00H, 'g', 00H, 'l', 00H, 'm'
	DB	00H, '\', 00H, 't', 00H, 'e', 00H, 's', 00H, 't', 00H, '\', 00H
	DB	'g', 00H, 't', 00H, 'c', 00H, '\', 00H, 'g', 00H, 't', 00H, 'c'
	DB	00H, '_', 00H, 'r', 00H, 'a', 00H, 'n', 00H, 'd', 00H, 'o', 00H
	DB	'm', 00H, '.', 00H, 'c', 00H, 'p', 00H, 'p', 00H, 00H, 00H
	ORG $+4
$SG28311 DB	'!', 00H, 'E', 00H, 'r', 00H, 'r', 00H, 'o', 00H, 'r', 00H
	DB	00H, 00H
	ORG $+10
$SG28312 DB	'C', 00H, ':', 00H, '\', 00H, 'U', 00H, 's', 00H, 'e', 00H
	DB	'r', 00H, 's', 00H, '\', 00H, 'k', 00H, 's', 00H, 'a', 00H, 'r'
	DB	00H, 't', 00H, '\', 00H, 'O', 00H, 'n', 00H, 'e', 00H, 'D', 00H
	DB	'r', 00H, 'i', 00H, 'v', 00H, 'e', 00H, '\', 00H, 'D', 00H, 'e'
	DB	00H, 's', 00H, 'k', 00H, 't', 00H, 'o', 00H, 'p', 00H, '\', 00H
	DB	'F', 00H, 'l', 00H, 'a', 00H, 'p', 00H, 'p', 00H, 'y', 00H, 'B'
	DB	00H, 'i', 00H, 'r', 00H, 'd', 00H, '\', 00H, 'l', 00H, 'i', 00H
	DB	'b', 00H, 'r', 00H, 'a', 00H, 'r', 00H, 'i', 00H, 'e', 00H, 's'
	DB	00H, '\', 00H, 'e', 00H, 'x', 00H, 't', 00H, 'e', 00H, 'r', 00H
	DB	'n', 00H, 'a', 00H, 'l', 00H, '\', 00H, 'g', 00H, 'l', 00H, 'm'
	DB	00H, '\', 00H, 't', 00H, 'e', 00H, 's', 00H, 't', 00H, '\', 00H
	DB	'g', 00H, 't', 00H, 'c', 00H, '\', 00H, 'g', 00H, 't', 00H, 'c'
	DB	00H, '_', 00H, 'r', 00H, 'a', 00H, 'n', 00H, 'd', 00H, 'o', 00H
	DB	'm', 00H, '.', 00H, 'c', 00H, 'p', 00H, 'p', 00H, 00H, 00H
	ORG $+4
$SG28313 DB	'!', 00H, 'E', 00H, 'r', 00H, 'r', 00H, 'o', 00H, 'r', 00H
	DB	00H, 00H
	ORG $+10
$SG28316 DB	'C', 00H, ':', 00H, '\', 00H, 'U', 00H, 's', 00H, 'e', 00H
	DB	'r', 00H, 's', 00H, '\', 00H, 'k', 00H, 's', 00H, 'a', 00H, 'r'
	DB	00H, 't', 00H, '\', 00H, 'O', 00H, 'n', 00H, 'e', 00H, 'D', 00H
	DB	'r', 00H, 'i', 00H, 'v', 00H, 'e', 00H, '\', 00H, 'D', 00H, 'e'
	DB	00H, 's', 00H, 'k', 00H, 't', 00H, 'o', 00H, 'p', 00H, '\', 00H
	DB	'F', 00H, 'l', 00H, 'a', 00H, 'p', 00H, 'p', 00H, 'y', 00H, 'B'
	DB	00H, 'i', 00H, 'r', 00H, 'd', 00H, '\', 00H, 'l', 00H, 'i', 00H
	DB	'b', 00H, 'r', 00H, 'a', 00H, 'r', 00H, 'i', 00H, 'e', 00H, 's'
	DB	00H, '\', 00H, 'e', 00H, 'x', 00H, 't', 00H, 'e', 00H, 'r', 00H
	DB	'n', 00H, 'a', 00H, 'l', 00H, '\', 00H, 'g', 00H, 'l', 00H, 'm'
	DB	00H, '\', 00H, 't', 00H, 'e', 00H, 's', 00H, 't', 00H, '\', 00H
	DB	'g', 00H, 't', 00H, 'c', 00H, '\', 00H, 'g', 00H, 't', 00H, 'c'
	DB	00H, '_', 00H, 'r', 00H, 'a', 00H, 'n', 00H, 'd', 00H, 'o', 00H
	DB	'm', 00H, '.', 00H, 'c', 00H, 'p', 00H, 'p', 00H, 00H, 00H
	ORG $+4
$SG28317 DB	'!', 00H, 'E', 00H, 'r', 00H, 'r', 00H, 'o', 00H, 'r', 00H
	DB	00H, 00H
	ORG $+10
$SG28318 DB	'C', 00H, ':', 00H, '\', 00H, 'U', 00H, 's', 00H, 'e', 00H
	DB	'r', 00H, 's', 00H, '\', 00H, 'k', 00H, 's', 00H, 'a', 00H, 'r'
	DB	00H, 't', 00H, '\', 00H, 'O', 00H, 'n', 00H, 'e', 00H, 'D', 00H
	DB	'r', 00H, 'i', 00H, 'v', 00H, 'e', 00H, '\', 00H, 'D', 00H, 'e'
	DB	00H, 's', 00H, 'k', 00H, 't', 00H, 'o', 00H, 'p', 00H, '\', 00H
	DB	'F', 00H, 'l', 00H, 'a', 00H, 'p', 00H, 'p', 00H, 'y', 00H, 'B'
	DB	00H, 'i', 00H, 'r', 00H, 'd', 00H, '\', 00H, 'l', 00H, 'i', 00H
	DB	'b', 00H, 'r', 00H, 'a', 00H, 'r', 00H, 'i', 00H, 'e', 00H, 's'
	DB	00H, '\', 00H, 'e', 00H, 'x', 00H, 't', 00H, 'e', 00H, 'r', 00H
	DB	'n', 00H, 'a', 00H, 'l', 00H, '\', 00H, 'g', 00H, 'l', 00H, 'm'
	DB	00H, '\', 00H, 't', 00H, 'e', 00H, 's', 00H, 't', 00H, '\', 00H
	DB	'g', 00H, 't', 00H, 'c', 00H, '\', 00H, 'g', 00H, 't', 00H, 'c'
	DB	00H, '_', 00H, 'r', 00H, 'a', 00H, 'n', 00H, 'd', 00H, 'o', 00H
	DB	'm', 00H, '.', 00H, 'c', 00H, 'p', 00H, 'p', 00H, 00H, 00H
	ORG $+4
$SG28319 DB	'!', 00H, 'E', 00H, 'r', 00H, 'r', 00H, 'o', 00H, 'r', 00H
	DB	00H, 00H
	ORG $+10
$SG28322 DB	'C', 00H, ':', 00H, '\', 00H, 'U', 00H, 's', 00H, 'e', 00H
	DB	'r', 00H, 's', 00H, '\', 00H, 'k', 00H, 's', 00H, 'a', 00H, 'r'
	DB	00H, 't', 00H, '\', 00H, 'O', 00H, 'n', 00H, 'e', 00H, 'D', 00H
	DB	'r', 00H, 'i', 00H, 'v', 00H, 'e', 00H, '\', 00H, 'D', 00H, 'e'
	DB	00H, 's', 00H, 'k', 00H, 't', 00H, 'o', 00H, 'p', 00H, '\', 00H
	DB	'F', 00H, 'l', 00H, 'a', 00H, 'p', 00H, 'p', 00H, 'y', 00H, 'B'
	DB	00H, 'i', 00H, 'r', 00H, 'd', 00H, '\', 00H, 'l', 00H, 'i', 00H
	DB	'b', 00H, 'r', 00H, 'a', 00H, 'r', 00H, 'i', 00H, 'e', 00H, 's'
	DB	00H, '\', 00H, 'e', 00H, 'x', 00H, 't', 00H, 'e', 00H, 'r', 00H
	DB	'n', 00H, 'a', 00H, 'l', 00H, '\', 00H, 'g', 00H, 'l', 00H, 'm'
	DB	00H, '\', 00H, 't', 00H, 'e', 00H, 's', 00H, 't', 00H, '\', 00H
	DB	'g', 00H, 't', 00H, 'c', 00H, '\', 00H, 'g', 00H, 't', 00H, 'c'
	DB	00H, '_', 00H, 'r', 00H, 'a', 00H, 'n', 00H, 'd', 00H, 'o', 00H
	DB	'm', 00H, '.', 00H, 'c', 00H, 'p', 00H, 'p', 00H, 00H, 00H
	ORG $+4
$SG28323 DB	'!', 00H, 'E', 00H, 'r', 00H, 'r', 00H, 'o', 00H, 'r', 00H
	DB	00H, 00H
	ORG $+10
$SG28324 DB	'C', 00H, ':', 00H, '\', 00H, 'U', 00H, 's', 00H, 'e', 00H
	DB	'r', 00H, 's', 00H, '\', 00H, 'k', 00H, 's', 00H, 'a', 00H, 'r'
	DB	00H, 't', 00H, '\', 00H, 'O', 00H, 'n', 00H, 'e', 00H, 'D', 00H
	DB	'r', 00H, 'i', 00H, 'v', 00H, 'e', 00H, '\', 00H, 'D', 00H, 'e'
	DB	00H, 's', 00H, 'k', 00H, 't', 00H, 'o', 00H, 'p', 00H, '\', 00H
	DB	'F', 00H, 'l', 00H, 'a', 00H, 'p', 00H, 'p', 00H, 'y', 00H, 'B'
	DB	00H, 'i', 00H, 'r', 00H, 'd', 00H, '\', 00H, 'l', 00H, 'i', 00H
	DB	'b', 00H, 'r', 00H, 'a', 00H, 'r', 00H, 'i', 00H, 'e', 00H, 's'
	DB	00H, '\', 00H, 'e', 00H, 'x', 00H, 't', 00H, 'e', 00H, 'r', 00H
	DB	'n', 00H, 'a', 00H, 'l', 00H, '\', 00H, 'g', 00H, 'l', 00H, 'm'
	DB	00H, '\', 00H, 't', 00H, 'e', 00H, 's', 00H, 't', 00H, '\', 00H
	DB	'g', 00H, 't', 00H, 'c', 00H, '\', 00H, 'g', 00H, 't', 00H, 'c'
	DB	00H, '_', 00H, 'r', 00H, 'a', 00H, 'n', 00H, 'd', 00H, 'o', 00H
	DB	'm', 00H, '.', 00H, 'c', 00H, 'p', 00H, 'p', 00H, 00H, 00H
	ORG $+4
$SG28325 DB	'!', 00H, 'E', 00H, 'r', 00H, 'r', 00H, 'o', 00H, 'r', 00H
	DB	00H, 00H
	ORG $+10
$SG28328 DB	'C', 00H, ':', 00H, '\', 00H, 'U', 00H, 's', 00H, 'e', 00H
	DB	'r', 00H, 's', 00H, '\', 00H, 'k', 00H, 's', 00H, 'a', 00H, 'r'
	DB	00H, 't', 00H, '\', 00H, 'O', 00H, 'n', 00H, 'e', 00H, 'D', 00H
	DB	'r', 00H, 'i', 00H, 'v', 00H, 'e', 00H, '\', 00H, 'D', 00H, 'e'
	DB	00H, 's', 00H, 'k', 00H, 't', 00H, 'o', 00H, 'p', 00H, '\', 00H
	DB	'F', 00H, 'l', 00H, 'a', 00H, 'p', 00H, 'p', 00H, 'y', 00H, 'B'
	DB	00H, 'i', 00H, 'r', 00H, 'd', 00H, '\', 00H, 'l', 00H, 'i', 00H
	DB	'b', 00H, 'r', 00H, 'a', 00H, 'r', 00H, 'i', 00H, 'e', 00H, 's'
	DB	00H, '\', 00H, 'e', 00H, 'x', 00H, 't', 00H, 'e', 00H, 'r', 00H
	DB	'n', 00H, 'a', 00H, 'l', 00H, '\', 00H, 'g', 00H, 'l', 00H, 'm'
	DB	00H, '\', 00H, 't', 00H, 'e', 00H, 's', 00H, 't', 00H, '\', 00H
	DB	'g', 00H, 't', 00H, 'c', 00H, '\', 00H, 'g', 00H, 't', 00H, 'c'
	DB	00H, '_', 00H, 'r', 00H, 'a', 00H, 'n', 00H, 'd', 00H, 'o', 00H
	DB	'm', 00H, '.', 00H, 'c', 00H, 'p', 00H, 'p', 00H, 00H, 00H
	ORG $+4
$SG28329 DB	'!', 00H, 'E', 00H, 'r', 00H, 'r', 00H, 'o', 00H, 'r', 00H
	DB	00H, 00H
	ORG $+10
$SG28330 DB	'C', 00H, ':', 00H, '\', 00H, 'U', 00H, 's', 00H, 'e', 00H
	DB	'r', 00H, 's', 00H, '\', 00H, 'k', 00H, 's', 00H, 'a', 00H, 'r'
	DB	00H, 't', 00H, '\', 00H, 'O', 00H, 'n', 00H, 'e', 00H, 'D', 00H
	DB	'r', 00H, 'i', 00H, 'v', 00H, 'e', 00H, '\', 00H, 'D', 00H, 'e'
	DB	00H, 's', 00H, 'k', 00H, 't', 00H, 'o', 00H, 'p', 00H, '\', 00H
	DB	'F', 00H, 'l', 00H, 'a', 00H, 'p', 00H, 'p', 00H, 'y', 00H, 'B'
	DB	00H, 'i', 00H, 'r', 00H, 'd', 00H, '\', 00H, 'l', 00H, 'i', 00H
	DB	'b', 00H, 'r', 00H, 'a', 00H, 'r', 00H, 'i', 00H, 'e', 00H, 's'
	DB	00H, '\', 00H, 'e', 00H, 'x', 00H, 't', 00H, 'e', 00H, 'r', 00H
	DB	'n', 00H, 'a', 00H, 'l', 00H, '\', 00H, 'g', 00H, 'l', 00H, 'm'
	DB	00H, '\', 00H, 't', 00H, 'e', 00H, 's', 00H, 't', 00H, '\', 00H
	DB	'g', 00H, 't', 00H, 'c', 00H, '\', 00H, 'g', 00H, 't', 00H, 'c'
	DB	00H, '_', 00H, 'r', 00H, 'a', 00H, 'n', 00H, 'd', 00H, 'o', 00H
	DB	'm', 00H, '.', 00H, 'c', 00H, 'p', 00H, 'p', 00H, 00H, 00H
	ORG $+4
$SG28331 DB	'!', 00H, 'E', 00H, 'r', 00H, 'r', 00H, 'o', 00H, 'r', 00H
	DB	00H, 00H
	ORG $+10
$SG28334 DB	'C', 00H, ':', 00H, '\', 00H, 'U', 00H, 's', 00H, 'e', 00H
	DB	'r', 00H, 's', 00H, '\', 00H, 'k', 00H, 's', 00H, 'a', 00H, 'r'
	DB	00H, 't', 00H, '\', 00H, 'O', 00H, 'n', 00H, 'e', 00H, 'D', 00H
	DB	'r', 00H, 'i', 00H, 'v', 00H, 'e', 00H, '\', 00H, 'D', 00H, 'e'
	DB	00H, 's', 00H, 'k', 00H, 't', 00H, 'o', 00H, 'p', 00H, '\', 00H
	DB	'F', 00H, 'l', 00H, 'a', 00H, 'p', 00H, 'p', 00H, 'y', 00H, 'B'
	DB	00H, 'i', 00H, 'r', 00H, 'd', 00H, '\', 00H, 'l', 00H, 'i', 00H
	DB	'b', 00H, 'r', 00H, 'a', 00H, 'r', 00H, 'i', 00H, 'e', 00H, 's'
	DB	00H, '\', 00H, 'e', 00H, 'x', 00H, 't', 00H, 'e', 00H, 'r', 00H
	DB	'n', 00H, 'a', 00H, 'l', 00H, '\', 00H, 'g', 00H, 'l', 00H, 'm'
	DB	00H, '\', 00H, 't', 00H, 'e', 00H, 's', 00H, 't', 00H, '\', 00H
	DB	'g', 00H, 't', 00H, 'c', 00H, '\', 00H, 'g', 00H, 't', 00H, 'c'
	DB	00H, '_', 00H, 'r', 00H, 'a', 00H, 'n', 00H, 'd', 00H, 'o', 00H
	DB	'm', 00H, '.', 00H, 'c', 00H, 'p', 00H, 'p', 00H, 00H, 00H
	ORG $+4
$SG28335 DB	'!', 00H, 'E', 00H, 'r', 00H, 'r', 00H, 'o', 00H, 'r', 00H
	DB	00H, 00H
	ORG $+10
$SG28336 DB	'C', 00H, ':', 00H, '\', 00H, 'U', 00H, 's', 00H, 'e', 00H
	DB	'r', 00H, 's', 00H, '\', 00H, 'k', 00H, 's', 00H, 'a', 00H, 'r'
	DB	00H, 't', 00H, '\', 00H, 'O', 00H, 'n', 00H, 'e', 00H, 'D', 00H
	DB	'r', 00H, 'i', 00H, 'v', 00H, 'e', 00H, '\', 00H, 'D', 00H, 'e'
	DB	00H, 's', 00H, 'k', 00H, 't', 00H, 'o', 00H, 'p', 00H, '\', 00H
	DB	'F', 00H, 'l', 00H, 'a', 00H, 'p', 00H, 'p', 00H, 'y', 00H, 'B'
	DB	00H, 'i', 00H, 'r', 00H, 'd', 00H, '\', 00H, 'l', 00H, 'i', 00H
	DB	'b', 00H, 'r', 00H, 'a', 00H, 'r', 00H, 'i', 00H, 'e', 00H, 's'
	DB	00H, '\', 00H, 'e', 00H, 'x', 00H, 't', 00H, 'e', 00H, 'r', 00H
	DB	'n', 00H, 'a', 00H, 'l', 00H, '\', 00H, 'g', 00H, 'l', 00H, 'm'
	DB	00H, '\', 00H, 't', 00H, 'e', 00H, 's', 00H, 't', 00H, '\', 00H
	DB	'g', 00H, 't', 00H, 'c', 00H, '\', 00H, 'g', 00H, 't', 00H, 'c'
	DB	00H, '_', 00H, 'r', 00H, 'a', 00H, 'n', 00H, 'd', 00H, 'o', 00H
	DB	'm', 00H, '.', 00H, 'c', 00H, 'p', 00H, 'p', 00H, 00H, 00H
	ORG $+4
$SG28337 DB	'!', 00H, 'E', 00H, 'r', 00H, 'r', 00H, 'o', 00H, 'r', 00H
	DB	00H, 00H
	ORG $+10
$SG28340 DB	'C', 00H, ':', 00H, '\', 00H, 'U', 00H, 's', 00H, 'e', 00H
	DB	'r', 00H, 's', 00H, '\', 00H, 'k', 00H, 's', 00H, 'a', 00H, 'r'
	DB	00H, 't', 00H, '\', 00H, 'O', 00H, 'n', 00H, 'e', 00H, 'D', 00H
	DB	'r', 00H, 'i', 00H, 'v', 00H, 'e', 00H, '\', 00H, 'D', 00H, 'e'
	DB	00H, 's', 00H, 'k', 00H, 't', 00H, 'o', 00H, 'p', 00H, '\', 00H
	DB	'F', 00H, 'l', 00H, 'a', 00H, 'p', 00H, 'p', 00H, 'y', 00H, 'B'
	DB	00H, 'i', 00H, 'r', 00H, 'd', 00H, '\', 00H, 'l', 00H, 'i', 00H
	DB	'b', 00H, 'r', 00H, 'a', 00H, 'r', 00H, 'i', 00H, 'e', 00H, 's'
	DB	00H, '\', 00H, 'e', 00H, 'x', 00H, 't', 00H, 'e', 00H, 'r', 00H
	DB	'n', 00H, 'a', 00H, 'l', 00H, '\', 00H, 'g', 00H, 'l', 00H, 'm'
	DB	00H, '\', 00H, 't', 00H, 'e', 00H, 's', 00H, 't', 00H, '\', 00H
	DB	'g', 00H, 't', 00H, 'c', 00H, '\', 00H, 'g', 00H, 't', 00H, 'c'
	DB	00H, '_', 00H, 'r', 00H, 'a', 00H, 'n', 00H, 'd', 00H, 'o', 00H
	DB	'm', 00H, '.', 00H, 'c', 00H, 'p', 00H, 'p', 00H, 00H, 00H
	ORG $+4
$SG28341 DB	'!', 00H, 'E', 00H, 'r', 00H, 'r', 00H, 'o', 00H, 'r', 00H
	DB	00H, 00H
	ORG $+10
$SG28342 DB	'C', 00H, ':', 00H, '\', 00H, 'U', 00H, 's', 00H, 'e', 00H
	DB	'r', 00H, 's', 00H, '\', 00H, 'k', 00H, 's', 00H, 'a', 00H, 'r'
	DB	00H, 't', 00H, '\', 00H, 'O', 00H, 'n', 00H, 'e', 00H, 'D', 00H
	DB	'r', 00H, 'i', 00H, 'v', 00H, 'e', 00H, '\', 00H, 'D', 00H, 'e'
	DB	00H, 's', 00H, 'k', 00H, 't', 00H, 'o', 00H, 'p', 00H, '\', 00H
	DB	'F', 00H, 'l', 00H, 'a', 00H, 'p', 00H, 'p', 00H, 'y', 00H, 'B'
	DB	00H, 'i', 00H, 'r', 00H, 'd', 00H, '\', 00H, 'l', 00H, 'i', 00H
	DB	'b', 00H, 'r', 00H, 'a', 00H, 'r', 00H, 'i', 00H, 'e', 00H, 's'
	DB	00H, '\', 00H, 'e', 00H, 'x', 00H, 't', 00H, 'e', 00H, 'r', 00H
	DB	'n', 00H, 'a', 00H, 'l', 00H, '\', 00H, 'g', 00H, 'l', 00H, 'm'
	DB	00H, '\', 00H, 't', 00H, 'e', 00H, 's', 00H, 't', 00H, '\', 00H
	DB	'g', 00H, 't', 00H, 'c', 00H, '\', 00H, 'g', 00H, 't', 00H, 'c'
	DB	00H, '_', 00H, 'r', 00H, 'a', 00H, 'n', 00H, 'd', 00H, 'o', 00H
	DB	'm', 00H, '.', 00H, 'c', 00H, 'p', 00H, 'p', 00H, 00H, 00H
	ORG $+4
$SG28343 DB	'!', 00H, 'E', 00H, 'r', 00H, 'r', 00H, 'o', 00H, 'r', 00H
	DB	00H, 00H
	ORG $+10
$SG28346 DB	'C', 00H, ':', 00H, '\', 00H, 'U', 00H, 's', 00H, 'e', 00H
	DB	'r', 00H, 's', 00H, '\', 00H, 'k', 00H, 's', 00H, 'a', 00H, 'r'
	DB	00H, 't', 00H, '\', 00H, 'O', 00H, 'n', 00H, 'e', 00H, 'D', 00H
	DB	'r', 00H, 'i', 00H, 'v', 00H, 'e', 00H, '\', 00H, 'D', 00H, 'e'
	DB	00H, 's', 00H, 'k', 00H, 't', 00H, 'o', 00H, 'p', 00H, '\', 00H
	DB	'F', 00H, 'l', 00H, 'a', 00H, 'p', 00H, 'p', 00H, 'y', 00H, 'B'
	DB	00H, 'i', 00H, 'r', 00H, 'd', 00H, '\', 00H, 'l', 00H, 'i', 00H
	DB	'b', 00H, 'r', 00H, 'a', 00H, 'r', 00H, 'i', 00H, 'e', 00H, 's'
	DB	00H, '\', 00H, 'e', 00H, 'x', 00H, 't', 00H, 'e', 00H, 'r', 00H
	DB	'n', 00H, 'a', 00H, 'l', 00H, '\', 00H, 'g', 00H, 'l', 00H, 'm'
	DB	00H, '\', 00H, 't', 00H, 'e', 00H, 's', 00H, 't', 00H, '\', 00H
	DB	'g', 00H, 't', 00H, 'c', 00H, '\', 00H, 'g', 00H, 't', 00H, 'c'
	DB	00H, '_', 00H, 'r', 00H, 'a', 00H, 'n', 00H, 'd', 00H, 'o', 00H
	DB	'm', 00H, '.', 00H, 'c', 00H, 'p', 00H, 'p', 00H, 00H, 00H
	ORG $+4
$SG28347 DB	'!', 00H, 'E', 00H, 'r', 00H, 'r', 00H, 'o', 00H, 'r', 00H
	DB	00H, 00H
	ORG $+10
$SG28348 DB	'C', 00H, ':', 00H, '\', 00H, 'U', 00H, 's', 00H, 'e', 00H
	DB	'r', 00H, 's', 00H, '\', 00H, 'k', 00H, 's', 00H, 'a', 00H, 'r'
	DB	00H, 't', 00H, '\', 00H, 'O', 00H, 'n', 00H, 'e', 00H, 'D', 00H
	DB	'r', 00H, 'i', 00H, 'v', 00H, 'e', 00H, '\', 00H, 'D', 00H, 'e'
	DB	00H, 's', 00H, 'k', 00H, 't', 00H, 'o', 00H, 'p', 00H, '\', 00H
	DB	'F', 00H, 'l', 00H, 'a', 00H, 'p', 00H, 'p', 00H, 'y', 00H, 'B'
	DB	00H, 'i', 00H, 'r', 00H, 'd', 00H, '\', 00H, 'l', 00H, 'i', 00H
	DB	'b', 00H, 'r', 00H, 'a', 00H, 'r', 00H, 'i', 00H, 'e', 00H, 's'
	DB	00H, '\', 00H, 'e', 00H, 'x', 00H, 't', 00H, 'e', 00H, 'r', 00H
	DB	'n', 00H, 'a', 00H, 'l', 00H, '\', 00H, 'g', 00H, 'l', 00H, 'm'
	DB	00H, '\', 00H, 't', 00H, 'e', 00H, 's', 00H, 't', 00H, '\', 00H
	DB	'g', 00H, 't', 00H, 'c', 00H, '\', 00H, 'g', 00H, 't', 00H, 'c'
	DB	00H, '_', 00H, 'r', 00H, 'a', 00H, 'n', 00H, 'd', 00H, 'o', 00H
	DB	'm', 00H, '.', 00H, 'c', 00H, 'p', 00H, 'p', 00H, 00H, 00H
	ORG $+4
$SG28349 DB	'!', 00H, 'E', 00H, 'r', 00H, 'r', 00H, 'o', 00H, 'r', 00H
	DB	00H, 00H
	ORG $+10
$SG28354 DB	'C', 00H, ':', 00H, '\', 00H, 'U', 00H, 's', 00H, 'e', 00H
	DB	'r', 00H, 's', 00H, '\', 00H, 'k', 00H, 's', 00H, 'a', 00H, 'r'
	DB	00H, 't', 00H, '\', 00H, 'O', 00H, 'n', 00H, 'e', 00H, 'D', 00H
	DB	'r', 00H, 'i', 00H, 'v', 00H, 'e', 00H, '\', 00H, 'D', 00H, 'e'
	DB	00H, 's', 00H, 'k', 00H, 't', 00H, 'o', 00H, 'p', 00H, '\', 00H
	DB	'F', 00H, 'l', 00H, 'a', 00H, 'p', 00H, 'p', 00H, 'y', 00H, 'B'
	DB	00H, 'i', 00H, 'r', 00H, 'd', 00H, '\', 00H, 'l', 00H, 'i', 00H
	DB	'b', 00H, 'r', 00H, 'a', 00H, 'r', 00H, 'i', 00H, 'e', 00H, 's'
	DB	00H, '\', 00H, 'e', 00H, 'x', 00H, 't', 00H, 'e', 00H, 'r', 00H
	DB	'n', 00H, 'a', 00H, 'l', 00H, '\', 00H, 'g', 00H, 'l', 00H, 'm'
	DB	00H, '\', 00H, 't', 00H, 'e', 00H, 's', 00H, 't', 00H, '\', 00H
	DB	'g', 00H, 't', 00H, 'c', 00H, '\', 00H, 'g', 00H, 't', 00H, 'c'
	DB	00H, '_', 00H, 'r', 00H, 'a', 00H, 'n', 00H, 'd', 00H, 'o', 00H
	DB	'm', 00H, '.', 00H, 'c', 00H, 'p', 00H, 'p', 00H, 00H, 00H
	ORG $+4
$SG28355 DB	'!', 00H, 'E', 00H, 'r', 00H, 'r', 00H, 'o', 00H, 'r', 00H
	DB	00H, 00H
	ORG $+10
$SG28356 DB	'C', 00H, ':', 00H, '\', 00H, 'U', 00H, 's', 00H, 'e', 00H
	DB	'r', 00H, 's', 00H, '\', 00H, 'k', 00H, 's', 00H, 'a', 00H, 'r'
	DB	00H, 't', 00H, '\', 00H, 'O', 00H, 'n', 00H, 'e', 00H, 'D', 00H
	DB	'r', 00H, 'i', 00H, 'v', 00H, 'e', 00H, '\', 00H, 'D', 00H, 'e'
	DB	00H, 's', 00H, 'k', 00H, 't', 00H, 'o', 00H, 'p', 00H, '\', 00H
	DB	'F', 00H, 'l', 00H, 'a', 00H, 'p', 00H, 'p', 00H, 'y', 00H, 'B'
	DB	00H, 'i', 00H, 'r', 00H, 'd', 00H, '\', 00H, 'l', 00H, 'i', 00H
	DB	'b', 00H, 'r', 00H, 'a', 00H, 'r', 00H, 'i', 00H, 'e', 00H, 's'
	DB	00H, '\', 00H, 'e', 00H, 'x', 00H, 't', 00H, 'e', 00H, 'r', 00H
	DB	'n', 00H, 'a', 00H, 'l', 00H, '\', 00H, 'g', 00H, 'l', 00H, 'm'
	DB	00H, '\', 00H, 't', 00H, 'e', 00H, 's', 00H, 't', 00H, '\', 00H
	DB	'g', 00H, 't', 00H, 'c', 00H, '\', 00H, 'g', 00H, 't', 00H, 'c'
	DB	00H, '_', 00H, 'r', 00H, 'a', 00H, 'n', 00H, 'd', 00H, 'o', 00H
	DB	'm', 00H, '.', 00H, 'c', 00H, 'p', 00H, 'p', 00H, 00H, 00H
	ORG $+4
$SG28357 DB	'!', 00H, 'E', 00H, 'r', 00H, 'r', 00H, 'o', 00H, 'r', 00H
	DB	00H, 00H
	ORG $+10
$SG28436 DB	'C', 00H, ':', 00H, '\', 00H, 'U', 00H, 's', 00H, 'e', 00H
	DB	'r', 00H, 's', 00H, '\', 00H, 'k', 00H, 's', 00H, 'a', 00H, 'r'
	DB	00H, 't', 00H, '\', 00H, 'O', 00H, 'n', 00H, 'e', 00H, 'D', 00H
	DB	'r', 00H, 'i', 00H, 'v', 00H, 'e', 00H, '\', 00H, 'D', 00H, 'e'
	DB	00H, 's', 00H, 'k', 00H, 't', 00H, 'o', 00H, 'p', 00H, '\', 00H
	DB	'F', 00H, 'l', 00H, 'a', 00H, 'p', 00H, 'p', 00H, 'y', 00H, 'B'
	DB	00H, 'i', 00H, 'r', 00H, 'd', 00H, '\', 00H, 'l', 00H, 'i', 00H
	DB	'b', 00H, 'r', 00H, 'a', 00H, 'r', 00H, 'i', 00H, 'e', 00H, 's'
	DB	00H, '\', 00H, 'e', 00H, 'x', 00H, 't', 00H, 'e', 00H, 'r', 00H
	DB	'n', 00H, 'a', 00H, 'l', 00H, '\', 00H, 'g', 00H, 'l', 00H, 'm'
	DB	00H, '\', 00H, 't', 00H, 'e', 00H, 's', 00H, 't', 00H, '\', 00H
	DB	'g', 00H, 't', 00H, 'c', 00H, '\', 00H, 'g', 00H, 't', 00H, 'c'
	DB	00H, '_', 00H, 'r', 00H, 'a', 00H, 'n', 00H, 'd', 00H, 'o', 00H
	DB	'm', 00H, '.', 00H, 'c', 00H, 'p', 00H, 'p', 00H, 00H, 00H
	ORG $+4
$SG28437 DB	'!', 00H, 'E', 00H, 'r', 00H, 'r', 00H, 'o', 00H, 'r', 00H
	DB	00H, 00H
	ORG $+10
$SG28840 DB	'C', 00H, ':', 00H, '\', 00H, 'U', 00H, 's', 00H, 'e', 00H
	DB	'r', 00H, 's', 00H, '\', 00H, 'k', 00H, 's', 00H, 'a', 00H, 'r'
	DB	00H, 't', 00H, '\', 00H, 'O', 00H, 'n', 00H, 'e', 00H, 'D', 00H
	DB	'r', 00H, 'i', 00H, 'v', 00H, 'e', 00H, '\', 00H, 'D', 00H, 'e'
	DB	00H, 's', 00H, 'k', 00H, 't', 00H, 'o', 00H, 'p', 00H, '\', 00H
	DB	'F', 00H, 'l', 00H, 'a', 00H, 'p', 00H, 'p', 00H, 'y', 00H, 'B'
	DB	00H, 'i', 00H, 'r', 00H, 'd', 00H, '\', 00H, 'l', 00H, 'i', 00H
	DB	'b', 00H, 'r', 00H, 'a', 00H, 'r', 00H, 'i', 00H, 'e', 00H, 's'
	DB	00H, '\', 00H, 'e', 00H, 'x', 00H, 't', 00H, 'e', 00H, 'r', 00H
	DB	'n', 00H, 'a', 00H, 'l', 00H, '\', 00H, 'g', 00H, 'l', 00H, 'm'
	DB	00H, '\', 00H, 't', 00H, 'e', 00H, 's', 00H, 't', 00H, '\', 00H
	DB	'g', 00H, 't', 00H, 'c', 00H, '\', 00H, 'g', 00H, 't', 00H, 'c'
	DB	00H, '_', 00H, 'r', 00H, 'a', 00H, 'n', 00H, 'd', 00H, 'o', 00H
	DB	'm', 00H, '.', 00H, 'c', 00H, 'p', 00H, 'p', 00H, 00H, 00H
	ORG $+4
$SG28841 DB	'!', 00H, 'E', 00H, 'r', 00H, 'r', 00H, 'o', 00H, 'r', 00H
	DB	00H, 00H
	ORG $+10
$SG28863 DB	'C', 00H, ':', 00H, '\', 00H, 'U', 00H, 's', 00H, 'e', 00H
	DB	'r', 00H, 's', 00H, '\', 00H, 'k', 00H, 's', 00H, 'a', 00H, 'r'
	DB	00H, 't', 00H, '\', 00H, 'O', 00H, 'n', 00H, 'e', 00H, 'D', 00H
	DB	'r', 00H, 'i', 00H, 'v', 00H, 'e', 00H, '\', 00H, 'D', 00H, 'e'
	DB	00H, 's', 00H, 'k', 00H, 't', 00H, 'o', 00H, 'p', 00H, '\', 00H
	DB	'F', 00H, 'l', 00H, 'a', 00H, 'p', 00H, 'p', 00H, 'y', 00H, 'B'
	DB	00H, 'i', 00H, 'r', 00H, 'd', 00H, '\', 00H, 'l', 00H, 'i', 00H
	DB	'b', 00H, 'r', 00H, 'a', 00H, 'r', 00H, 'i', 00H, 'e', 00H, 's'
	DB	00H, '\', 00H, 'e', 00H, 'x', 00H, 't', 00H, 'e', 00H, 'r', 00H
	DB	'n', 00H, 'a', 00H, 'l', 00H, '\', 00H, 'g', 00H, 'l', 00H, 'm'
	DB	00H, '\', 00H, 't', 00H, 'e', 00H, 's', 00H, 't', 00H, '\', 00H
	DB	'g', 00H, 't', 00H, 'c', 00H, '\', 00H, 'g', 00H, 't', 00H, 'c'
	DB	00H, '_', 00H, 'r', 00H, 'a', 00H, 'n', 00H, 'd', 00H, 'o', 00H
	DB	'm', 00H, '.', 00H, 'c', 00H, 'p', 00H, 'p', 00H, 00H, 00H
	ORG $+4
$SG28864 DB	'!', 00H, 'E', 00H, 'r', 00H, 'r', 00H, 'o', 00H, 'r', 00H
	DB	00H, 00H
	ORG $+10
$SG28886 DB	'C', 00H, ':', 00H, '\', 00H, 'U', 00H, 's', 00H, 'e', 00H
	DB	'r', 00H, 's', 00H, '\', 00H, 'k', 00H, 's', 00H, 'a', 00H, 'r'
	DB	00H, 't', 00H, '\', 00H, 'O', 00H, 'n', 00H, 'e', 00H, 'D', 00H
	DB	'r', 00H, 'i', 00H, 'v', 00H, 'e', 00H, '\', 00H, 'D', 00H, 'e'
	DB	00H, 's', 00H, 'k', 00H, 't', 00H, 'o', 00H, 'p', 00H, '\', 00H
	DB	'F', 00H, 'l', 00H, 'a', 00H, 'p', 00H, 'p', 00H, 'y', 00H, 'B'
	DB	00H, 'i', 00H, 'r', 00H, 'd', 00H, '\', 00H, 'l', 00H, 'i', 00H
	DB	'b', 00H, 'r', 00H, 'a', 00H, 'r', 00H, 'i', 00H, 'e', 00H, 's'
	DB	00H, '\', 00H, 'e', 00H, 'x', 00H, 't', 00H, 'e', 00H, 'r', 00H
	DB	'n', 00H, 'a', 00H, 'l', 00H, '\', 00H, 'g', 00H, 'l', 00H, 'm'
	DB	00H, '\', 00H, 't', 00H, 'e', 00H, 's', 00H, 't', 00H, '\', 00H
	DB	'g', 00H, 't', 00H, 'c', 00H, '\', 00H, 'g', 00H, 't', 00H, 'c'
	DB	00H, '_', 00H, 'r', 00H, 'a', 00H, 'n', 00H, 'd', 00H, 'o', 00H
	DB	'm', 00H, '.', 00H, 'c', 00H, 'p', 00H, 'p', 00H, 00H, 00H
	ORG $+4
$SG28887 DB	'!', 00H, 'E', 00H, 'r', 00H, 'r', 00H, 'o', 00H, 'r', 00H
	DB	00H, 00H
CONST	ENDS
PUBLIC	?cos@@YAMM@Z					; cos
PUBLIC	?sin@@YAMM@Z					; sin
PUBLIC	?sqrt@@YAMM@Z					; sqrt
PUBLIC	?min@?$numeric_limits@C@std@@SACXZ		; std::numeric_limits<signed char>::min
PUBLIC	?max@?$numeric_limits@C@std@@SACXZ		; std::numeric_limits<signed char>::max
PUBLIC	?min@?$numeric_limits@E@std@@SAEXZ		; std::numeric_limits<unsigned char>::min
PUBLIC	?max@?$numeric_limits@E@std@@SAEXZ		; std::numeric_limits<unsigned char>::max
PUBLIC	?min@?$numeric_limits@F@std@@SAFXZ		; std::numeric_limits<short>::min
PUBLIC	?max@?$numeric_limits@F@std@@SAFXZ		; std::numeric_limits<short>::max
PUBLIC	?min@?$numeric_limits@H@std@@SAHXZ		; std::numeric_limits<int>::min
PUBLIC	?max@?$numeric_limits@H@std@@SAHXZ		; std::numeric_limits<int>::max
PUBLIC	?min@?$numeric_limits@_J@std@@SA_JXZ		; std::numeric_limits<__int64>::min
PUBLIC	?max@?$numeric_limits@_J@std@@SA_JXZ		; std::numeric_limits<__int64>::max
PUBLIC	?min@?$numeric_limits@G@std@@SAGXZ		; std::numeric_limits<unsigned short>::min
PUBLIC	?max@?$numeric_limits@G@std@@SAGXZ		; std::numeric_limits<unsigned short>::max
PUBLIC	?min@?$numeric_limits@I@std@@SAIXZ		; std::numeric_limits<unsigned int>::min
PUBLIC	?max@?$numeric_limits@I@std@@SAIXZ		; std::numeric_limits<unsigned int>::max
PUBLIC	?min@?$numeric_limits@_K@std@@SA_KXZ		; std::numeric_limits<unsigned __int64>::min
PUBLIC	?max@?$numeric_limits@_K@std@@SA_KXZ		; std::numeric_limits<unsigned __int64>::max
PUBLIC	??$epsilonEqual@M@glm@@YA_NAEBM00@Z		; glm::epsilonEqual<float>
PUBLIC	??$abs@M@glm@@YAMM@Z				; glm::abs<float>
PUBLIC	??$epsilonEqual@N@glm@@YA_NAEBN00@Z		; glm::epsilonEqual<double>
PUBLIC	??$abs@N@glm@@YANN@Z				; glm::abs<double>
PUBLIC	?test_linearRand@@YAHXZ				; test_linearRand
PUBLIC	?length@?$tvec2@E$0A@@glm@@SAHXZ		; glm::tvec2<unsigned char,0>::length
PUBLIC	??A?$tvec2@E$0A@@glm@@QEBAAEBEH@Z		; glm::tvec2<unsigned char,0>::operator[]
PUBLIC	??0?$tvec2@E$0A@@glm@@QEAA@E@Z			; glm::tvec2<unsigned char,0>::tvec2<unsigned char,0>
PUBLIC	??0?$tvec2@E$0A@@glm@@QEAA@EE@Z			; glm::tvec2<unsigned char,0>::tvec2<unsigned char,0>
PUBLIC	??$linearRand@E$0A@Utvec2@glm@@@glm@@YA?AU?$tvec2@E$0A@@0@AEBU10@0@Z ; glm::linearRand<unsigned char,0,glm::tvec2>
PUBLIC	??$min@E$0A@Utvec2@glm@@@glm@@YA?AU?$tvec2@E$0A@@0@AEBU10@0@Z ; glm::min<unsigned char,0,glm::tvec2>
PUBLIC	??$max@E$0A@Utvec2@glm@@@glm@@YA?AU?$tvec2@E$0A@@0@AEBU10@0@Z ; glm::max<unsigned char,0,glm::tvec2>
PUBLIC	??$lessThanEqual@E$0A@Utvec2@glm@@@glm@@YA?AU?$tvec2@_N$0A@@0@AEBU?$tvec2@E$0A@@0@0@Z ; glm::lessThanEqual<unsigned char,0,glm::tvec2>
PUBLIC	?length@?$tvec2@_N$0A@@glm@@SAHXZ		; glm::tvec2<bool,0>::length
PUBLIC	??A?$tvec2@_N$0A@@glm@@QEAAAEA_NH@Z		; glm::tvec2<bool,0>::operator[]
PUBLIC	??A?$tvec2@_N$0A@@glm@@QEBAAEB_NH@Z		; glm::tvec2<bool,0>::operator[]
PUBLIC	??0?$tvec2@_N$0A@@glm@@QEAA@W4ctor@1@@Z		; glm::tvec2<bool,0>::tvec2<bool,0>
PUBLIC	??$all@$0A@Utvec2@glm@@@glm@@YA_NAEBU?$tvec2@_N$0A@@0@@Z ; glm::all<0,glm::tvec2>
PUBLIC	??$greaterThanEqual@E$0A@Utvec2@glm@@@glm@@YA?AU?$tvec2@_N$0A@@0@AEBU?$tvec2@E$0A@@0@0@Z ; glm::greaterThanEqual<unsigned char,0,glm::tvec2>
PUBLIC	??$equal@E$0A@Utvec2@glm@@@glm@@YA?AU?$tvec2@_N$0A@@0@AEBU?$tvec2@E$0A@@0@0@Z ; glm::equal<unsigned char,0,glm::tvec2>
PUBLIC	?length@?$tvec2@G$0A@@glm@@SAHXZ		; glm::tvec2<unsigned short,0>::length
PUBLIC	??A?$tvec2@G$0A@@glm@@QEBAAEBGH@Z		; glm::tvec2<unsigned short,0>::operator[]
PUBLIC	??0?$tvec2@G$0A@@glm@@QEAA@G@Z			; glm::tvec2<unsigned short,0>::tvec2<unsigned short,0>
PUBLIC	??0?$tvec2@G$0A@@glm@@QEAA@GG@Z			; glm::tvec2<unsigned short,0>::tvec2<unsigned short,0>
PUBLIC	??$linearRand@G$0A@Utvec2@glm@@@glm@@YA?AU?$tvec2@G$0A@@0@AEBU10@0@Z ; glm::linearRand<unsigned short,0,glm::tvec2>
PUBLIC	??$min@G$0A@Utvec2@glm@@@glm@@YA?AU?$tvec2@G$0A@@0@AEBU10@0@Z ; glm::min<unsigned short,0,glm::tvec2>
PUBLIC	??$max@G$0A@Utvec2@glm@@@glm@@YA?AU?$tvec2@G$0A@@0@AEBU10@0@Z ; glm::max<unsigned short,0,glm::tvec2>
PUBLIC	??$lessThanEqual@G$0A@Utvec2@glm@@@glm@@YA?AU?$tvec2@_N$0A@@0@AEBU?$tvec2@G$0A@@0@0@Z ; glm::lessThanEqual<unsigned short,0,glm::tvec2>
PUBLIC	??$greaterThanEqual@G$0A@Utvec2@glm@@@glm@@YA?AU?$tvec2@_N$0A@@0@AEBU?$tvec2@G$0A@@0@0@Z ; glm::greaterThanEqual<unsigned short,0,glm::tvec2>
PUBLIC	??$equal@G$0A@Utvec2@glm@@@glm@@YA?AU?$tvec2@_N$0A@@0@AEBU?$tvec2@G$0A@@0@0@Z ; glm::equal<unsigned short,0,glm::tvec2>
PUBLIC	?length@?$tvec2@I$0A@@glm@@SAHXZ		; glm::tvec2<unsigned int,0>::length
PUBLIC	??A?$tvec2@I$0A@@glm@@QEBAAEBIH@Z		; glm::tvec2<unsigned int,0>::operator[]
PUBLIC	??0?$tvec2@I$0A@@glm@@QEAA@I@Z			; glm::tvec2<unsigned int,0>::tvec2<unsigned int,0>
PUBLIC	??0?$tvec2@I$0A@@glm@@QEAA@II@Z			; glm::tvec2<unsigned int,0>::tvec2<unsigned int,0>
PUBLIC	??$linearRand@I$0A@Utvec2@glm@@@glm@@YA?AU?$tvec2@I$0A@@0@AEBU10@0@Z ; glm::linearRand<unsigned int,0,glm::tvec2>
PUBLIC	??$min@I$0A@Utvec2@glm@@@glm@@YA?AU?$tvec2@I$0A@@0@AEBU10@0@Z ; glm::min<unsigned int,0,glm::tvec2>
PUBLIC	??$max@I$0A@Utvec2@glm@@@glm@@YA?AU?$tvec2@I$0A@@0@AEBU10@0@Z ; glm::max<unsigned int,0,glm::tvec2>
PUBLIC	??$lessThanEqual@I$0A@Utvec2@glm@@@glm@@YA?AU?$tvec2@_N$0A@@0@AEBU?$tvec2@I$0A@@0@0@Z ; glm::lessThanEqual<unsigned int,0,glm::tvec2>
PUBLIC	??$greaterThanEqual@I$0A@Utvec2@glm@@@glm@@YA?AU?$tvec2@_N$0A@@0@AEBU?$tvec2@I$0A@@0@0@Z ; glm::greaterThanEqual<unsigned int,0,glm::tvec2>
PUBLIC	??$equal@I$0A@Utvec2@glm@@@glm@@YA?AU?$tvec2@_N$0A@@0@AEBU?$tvec2@I$0A@@0@0@Z ; glm::equal<unsigned int,0,glm::tvec2>
PUBLIC	?length@?$tvec2@_K$0A@@glm@@SAHXZ		; glm::tvec2<unsigned __int64,0>::length
PUBLIC	??A?$tvec2@_K$0A@@glm@@QEBAAEB_KH@Z		; glm::tvec2<unsigned __int64,0>::operator[]
PUBLIC	??0?$tvec2@_K$0A@@glm@@QEAA@_K@Z		; glm::tvec2<unsigned __int64,0>::tvec2<unsigned __int64,0>
PUBLIC	??0?$tvec2@_K$0A@@glm@@QEAA@_K0@Z		; glm::tvec2<unsigned __int64,0>::tvec2<unsigned __int64,0>
PUBLIC	??$linearRand@_K$0A@Utvec2@glm@@@glm@@YA?AU?$tvec2@_K$0A@@0@AEBU10@0@Z ; glm::linearRand<unsigned __int64,0,glm::tvec2>
PUBLIC	??$min@_K$0A@Utvec2@glm@@@glm@@YA?AU?$tvec2@_K$0A@@0@AEBU10@0@Z ; glm::min<unsigned __int64,0,glm::tvec2>
PUBLIC	??$max@_K$0A@Utvec2@glm@@@glm@@YA?AU?$tvec2@_K$0A@@0@AEBU10@0@Z ; glm::max<unsigned __int64,0,glm::tvec2>
PUBLIC	??$lessThanEqual@_K$0A@Utvec2@glm@@@glm@@YA?AU?$tvec2@_N$0A@@0@AEBU?$tvec2@_K$0A@@0@0@Z ; glm::lessThanEqual<unsigned __int64,0,glm::tvec2>
PUBLIC	??$greaterThanEqual@_K$0A@Utvec2@glm@@@glm@@YA?AU?$tvec2@_N$0A@@0@AEBU?$tvec2@_K$0A@@0@0@Z ; glm::greaterThanEqual<unsigned __int64,0,glm::tvec2>
PUBLIC	??$equal@_K$0A@Utvec2@glm@@@glm@@YA?AU?$tvec2@_N$0A@@0@AEBU?$tvec2@_K$0A@@0@0@Z ; glm::equal<unsigned __int64,0,glm::tvec2>
PUBLIC	?length@?$tvec2@C$0A@@glm@@SAHXZ		; glm::tvec2<signed char,0>::length
PUBLIC	??A?$tvec2@C$0A@@glm@@QEBAAEBCH@Z		; glm::tvec2<signed char,0>::operator[]
PUBLIC	??0?$tvec2@C$0A@@glm@@QEAA@C@Z			; glm::tvec2<signed char,0>::tvec2<signed char,0>
PUBLIC	??0?$tvec2@C$0A@@glm@@QEAA@CC@Z			; glm::tvec2<signed char,0>::tvec2<signed char,0>
PUBLIC	??$linearRand@C$0A@Utvec2@glm@@@glm@@YA?AU?$tvec2@C$0A@@0@AEBU10@0@Z ; glm::linearRand<signed char,0,glm::tvec2>
PUBLIC	??$min@C$0A@Utvec2@glm@@@glm@@YA?AU?$tvec2@C$0A@@0@AEBU10@0@Z ; glm::min<signed char,0,glm::tvec2>
PUBLIC	??$max@C$0A@Utvec2@glm@@@glm@@YA?AU?$tvec2@C$0A@@0@AEBU10@0@Z ; glm::max<signed char,0,glm::tvec2>
PUBLIC	??$lessThanEqual@C$0A@Utvec2@glm@@@glm@@YA?AU?$tvec2@_N$0A@@0@AEBU?$tvec2@C$0A@@0@0@Z ; glm::lessThanEqual<signed char,0,glm::tvec2>
PUBLIC	??$greaterThanEqual@C$0A@Utvec2@glm@@@glm@@YA?AU?$tvec2@_N$0A@@0@AEBU?$tvec2@C$0A@@0@0@Z ; glm::greaterThanEqual<signed char,0,glm::tvec2>
PUBLIC	??$equal@C$0A@Utvec2@glm@@@glm@@YA?AU?$tvec2@_N$0A@@0@AEBU?$tvec2@C$0A@@0@0@Z ; glm::equal<signed char,0,glm::tvec2>
PUBLIC	?length@?$tvec2@F$0A@@glm@@SAHXZ		; glm::tvec2<short,0>::length
PUBLIC	??A?$tvec2@F$0A@@glm@@QEBAAEBFH@Z		; glm::tvec2<short,0>::operator[]
PUBLIC	??0?$tvec2@F$0A@@glm@@QEAA@F@Z			; glm::tvec2<short,0>::tvec2<short,0>
PUBLIC	??0?$tvec2@F$0A@@glm@@QEAA@FF@Z			; glm::tvec2<short,0>::tvec2<short,0>
PUBLIC	??$linearRand@F$0A@Utvec2@glm@@@glm@@YA?AU?$tvec2@F$0A@@0@AEBU10@0@Z ; glm::linearRand<short,0,glm::tvec2>
PUBLIC	??$min@F$0A@Utvec2@glm@@@glm@@YA?AU?$tvec2@F$0A@@0@AEBU10@0@Z ; glm::min<short,0,glm::tvec2>
PUBLIC	??$max@F$0A@Utvec2@glm@@@glm@@YA?AU?$tvec2@F$0A@@0@AEBU10@0@Z ; glm::max<short,0,glm::tvec2>
PUBLIC	??$lessThanEqual@F$0A@Utvec2@glm@@@glm@@YA?AU?$tvec2@_N$0A@@0@AEBU?$tvec2@F$0A@@0@0@Z ; glm::lessThanEqual<short,0,glm::tvec2>
PUBLIC	??$greaterThanEqual@F$0A@Utvec2@glm@@@glm@@YA?AU?$tvec2@_N$0A@@0@AEBU?$tvec2@F$0A@@0@0@Z ; glm::greaterThanEqual<short,0,glm::tvec2>
PUBLIC	??$equal@F$0A@Utvec2@glm@@@glm@@YA?AU?$tvec2@_N$0A@@0@AEBU?$tvec2@F$0A@@0@0@Z ; glm::equal<short,0,glm::tvec2>
PUBLIC	?length@?$tvec2@H$0A@@glm@@SAHXZ		; glm::tvec2<int,0>::length
PUBLIC	??A?$tvec2@H$0A@@glm@@QEBAAEBHH@Z		; glm::tvec2<int,0>::operator[]
PUBLIC	??0?$tvec2@H$0A@@glm@@QEAA@H@Z			; glm::tvec2<int,0>::tvec2<int,0>
PUBLIC	??0?$tvec2@H$0A@@glm@@QEAA@HH@Z			; glm::tvec2<int,0>::tvec2<int,0>
PUBLIC	??$linearRand@H$0A@Utvec2@glm@@@glm@@YA?AU?$tvec2@H$0A@@0@AEBU10@0@Z ; glm::linearRand<int,0,glm::tvec2>
PUBLIC	??$min@H$0A@Utvec2@glm@@@glm@@YA?AU?$tvec2@H$0A@@0@AEBU10@0@Z ; glm::min<int,0,glm::tvec2>
PUBLIC	??$max@H$0A@Utvec2@glm@@@glm@@YA?AU?$tvec2@H$0A@@0@AEBU10@0@Z ; glm::max<int,0,glm::tvec2>
PUBLIC	??$lessThanEqual@H$0A@Utvec2@glm@@@glm@@YA?AU?$tvec2@_N$0A@@0@AEBU?$tvec2@H$0A@@0@0@Z ; glm::lessThanEqual<int,0,glm::tvec2>
PUBLIC	??$greaterThanEqual@H$0A@Utvec2@glm@@@glm@@YA?AU?$tvec2@_N$0A@@0@AEBU?$tvec2@H$0A@@0@0@Z ; glm::greaterThanEqual<int,0,glm::tvec2>
PUBLIC	??$equal@H$0A@Utvec2@glm@@@glm@@YA?AU?$tvec2@_N$0A@@0@AEBU?$tvec2@H$0A@@0@0@Z ; glm::equal<int,0,glm::tvec2>
PUBLIC	?length@?$tvec2@_J$0A@@glm@@SAHXZ		; glm::tvec2<__int64,0>::length
PUBLIC	??A?$tvec2@_J$0A@@glm@@QEBAAEB_JH@Z		; glm::tvec2<__int64,0>::operator[]
PUBLIC	??0?$tvec2@_J$0A@@glm@@QEAA@_J@Z		; glm::tvec2<__int64,0>::tvec2<__int64,0>
PUBLIC	??0?$tvec2@_J$0A@@glm@@QEAA@_J0@Z		; glm::tvec2<__int64,0>::tvec2<__int64,0>
PUBLIC	??$linearRand@_J$0A@Utvec2@glm@@@glm@@YA?AU?$tvec2@_J$0A@@0@AEBU10@0@Z ; glm::linearRand<__int64,0,glm::tvec2>
PUBLIC	??$min@_J$0A@Utvec2@glm@@@glm@@YA?AU?$tvec2@_J$0A@@0@AEBU10@0@Z ; glm::min<__int64,0,glm::tvec2>
PUBLIC	??$max@_J$0A@Utvec2@glm@@@glm@@YA?AU?$tvec2@_J$0A@@0@AEBU10@0@Z ; glm::max<__int64,0,glm::tvec2>
PUBLIC	??$lessThanEqual@_J$0A@Utvec2@glm@@@glm@@YA?AU?$tvec2@_N$0A@@0@AEBU?$tvec2@_J$0A@@0@0@Z ; glm::lessThanEqual<__int64,0,glm::tvec2>
PUBLIC	??$greaterThanEqual@_J$0A@Utvec2@glm@@@glm@@YA?AU?$tvec2@_N$0A@@0@AEBU?$tvec2@_J$0A@@0@0@Z ; glm::greaterThanEqual<__int64,0,glm::tvec2>
PUBLIC	??$equal@_J$0A@Utvec2@glm@@@glm@@YA?AU?$tvec2@_N$0A@@0@AEBU?$tvec2@_J$0A@@0@0@Z ; glm::equal<__int64,0,glm::tvec2>
PUBLIC	?length@?$tvec2@M$0A@@glm@@SAHXZ		; glm::tvec2<float,0>::length
PUBLIC	??A?$tvec2@M$0A@@glm@@QEBAAEBMH@Z		; glm::tvec2<float,0>::operator[]
PUBLIC	??0?$tvec2@M$0A@@glm@@QEAA@M@Z			; glm::tvec2<float,0>::tvec2<float,0>
PUBLIC	??0?$tvec2@M$0A@@glm@@QEAA@MM@Z			; glm::tvec2<float,0>::tvec2<float,0>
PUBLIC	??$linearRand@M$0A@Utvec2@glm@@@glm@@YA?AU?$tvec2@M$0A@@0@AEBU10@0@Z ; glm::linearRand<float,0,glm::tvec2>
PUBLIC	??$lessThanEqual@M$0A@Utvec2@glm@@@glm@@YA?AU?$tvec2@_N$0A@@0@AEBU?$tvec2@M$0A@@0@0@Z ; glm::lessThanEqual<float,0,glm::tvec2>
PUBLIC	??$greaterThanEqual@M$0A@Utvec2@glm@@@glm@@YA?AU?$tvec2@_N$0A@@0@AEBU?$tvec2@M$0A@@0@0@Z ; glm::greaterThanEqual<float,0,glm::tvec2>
PUBLIC	?length@?$tvec2@N$0A@@glm@@SAHXZ		; glm::tvec2<double,0>::length
PUBLIC	??A?$tvec2@N$0A@@glm@@QEBAAEBNH@Z		; glm::tvec2<double,0>::operator[]
PUBLIC	??0?$tvec2@N$0A@@glm@@QEAA@N@Z			; glm::tvec2<double,0>::tvec2<double,0>
PUBLIC	??0?$tvec2@N$0A@@glm@@QEAA@NN@Z			; glm::tvec2<double,0>::tvec2<double,0>
PUBLIC	??$linearRand@N$0A@Utvec2@glm@@@glm@@YA?AU?$tvec2@N$0A@@0@AEBU10@0@Z ; glm::linearRand<double,0,glm::tvec2>
PUBLIC	??$lessThanEqual@N$0A@Utvec2@glm@@@glm@@YA?AU?$tvec2@_N$0A@@0@AEBU?$tvec2@N$0A@@0@0@Z ; glm::lessThanEqual<double,0,glm::tvec2>
PUBLIC	??$greaterThanEqual@N$0A@Utvec2@glm@@@glm@@YA?AU?$tvec2@_N$0A@@0@AEBU?$tvec2@N$0A@@0@0@Z ; glm::greaterThanEqual<double,0,glm::tvec2>
PUBLIC	??$linearRand@M@glm@@YAMMM@Z			; glm::linearRand<float>
PUBLIC	??$linearRand@N@glm@@YANNN@Z			; glm::linearRand<double>
PUBLIC	?test_circularRand@@YAHXZ			; test_circularRand
PUBLIC	??$circularRand@M@glm@@YA?AU?$tvec2@M$0A@@0@M@Z	; glm::circularRand<float>
PUBLIC	??$length@M$0A@Utvec2@glm@@@glm@@YAMAEBU?$tvec2@M$0A@@0@@Z ; glm::length<float,0,glm::tvec2>
PUBLIC	??$circularRand@N@glm@@YA?AU?$tvec2@N$0A@@0@N@Z	; glm::circularRand<double>
PUBLIC	??$length@N$0A@Utvec2@glm@@@glm@@YANAEBU?$tvec2@N$0A@@0@@Z ; glm::length<double,0,glm::tvec2>
PUBLIC	?test_sphericalRand@@YAHXZ			; test_sphericalRand
PUBLIC	??$sphericalRand@M@glm@@YA?AU?$tvec3@M$0A@@0@M@Z ; glm::sphericalRand<float>
PUBLIC	??0?$tvec3@M$0A@@glm@@QEAA@M@Z			; glm::tvec3<float,0>::tvec3<float,0>
PUBLIC	??0?$tvec3@M$0A@@glm@@QEAA@MMM@Z		; glm::tvec3<float,0>::tvec3<float,0>
PUBLIC	??$length@M$0A@Utvec3@glm@@@glm@@YAMAEBU?$tvec3@M$0A@@0@@Z ; glm::length<float,0,glm::tvec3>
PUBLIC	??$sphericalRand@N@glm@@YA?AU?$tvec3@N$0A@@0@N@Z ; glm::sphericalRand<double>
PUBLIC	??0?$tvec3@N$0A@@glm@@QEAA@N@Z			; glm::tvec3<double,0>::tvec3<double,0>
PUBLIC	??0?$tvec3@N$0A@@glm@@QEAA@NNN@Z		; glm::tvec3<double,0>::tvec3<double,0>
PUBLIC	??$length@N$0A@Utvec3@glm@@@glm@@YANAEBU?$tvec3@N$0A@@0@@Z ; glm::length<double,0,glm::tvec3>
PUBLIC	?test_diskRand@@YAHXZ				; test_diskRand
PUBLIC	??$diskRand@M@glm@@YA?AU?$tvec2@M$0A@@0@M@Z	; glm::diskRand<float>
PUBLIC	??$diskRand@N@glm@@YA?AU?$tvec2@N$0A@@0@N@Z	; glm::diskRand<double>
PUBLIC	?test_ballRand@@YAHXZ				; test_ballRand
PUBLIC	??$ballRand@M@glm@@YA?AU?$tvec3@M$0A@@0@M@Z	; glm::ballRand<float>
PUBLIC	??$ballRand@N@glm@@YA?AU?$tvec3@N$0A@@0@N@Z	; glm::ballRand<double>
PUBLIC	main
PUBLIC	?call@?$compute_abs@M$00@detail@glm@@SAMM@Z	; glm::detail::compute_abs<float,1>::call
PUBLIC	?call@?$compute_abs@N$00@detail@glm@@SANN@Z	; glm::detail::compute_abs<double,1>::call
PUBLIC	?call@?$compute_linearRand@E$0A@Utvec2@glm@@@detail@glm@@SA?AU?$tvec2@E$0A@@3@AEBU43@0@Z ; glm::detail::compute_linearRand<unsigned char,0,glm::tvec2>::call
PUBLIC	?call@?$compute_min_vector@E$0A@Utvec2@glm@@$0A@@detail@glm@@SA?AU?$tvec2@E$0A@@3@AEBU43@0@Z ; glm::detail::compute_min_vector<unsigned char,0,glm::tvec2,0>::call
PUBLIC	?call@?$compute_max_vector@E$0A@Utvec2@glm@@$0A@@detail@glm@@SA?AU?$tvec2@E$0A@@3@AEBU43@0@Z ; glm::detail::compute_max_vector<unsigned char,0,glm::tvec2,0>::call
PUBLIC	?call@?$compute_linearRand@G$0A@Utvec2@glm@@@detail@glm@@SA?AU?$tvec2@G$0A@@3@AEBU43@0@Z ; glm::detail::compute_linearRand<unsigned short,0,glm::tvec2>::call
PUBLIC	?call@?$compute_min_vector@G$0A@Utvec2@glm@@$0A@@detail@glm@@SA?AU?$tvec2@G$0A@@3@AEBU43@0@Z ; glm::detail::compute_min_vector<unsigned short,0,glm::tvec2,0>::call
PUBLIC	?call@?$compute_max_vector@G$0A@Utvec2@glm@@$0A@@detail@glm@@SA?AU?$tvec2@G$0A@@3@AEBU43@0@Z ; glm::detail::compute_max_vector<unsigned short,0,glm::tvec2,0>::call
PUBLIC	?call@?$compute_linearRand@I$0A@Utvec2@glm@@@detail@glm@@SA?AU?$tvec2@I$0A@@3@AEBU43@0@Z ; glm::detail::compute_linearRand<unsigned int,0,glm::tvec2>::call
PUBLIC	?call@?$compute_min_vector@I$0A@Utvec2@glm@@$0A@@detail@glm@@SA?AU?$tvec2@I$0A@@3@AEBU43@0@Z ; glm::detail::compute_min_vector<unsigned int,0,glm::tvec2,0>::call
PUBLIC	?call@?$compute_max_vector@I$0A@Utvec2@glm@@$0A@@detail@glm@@SA?AU?$tvec2@I$0A@@3@AEBU43@0@Z ; glm::detail::compute_max_vector<unsigned int,0,glm::tvec2,0>::call
PUBLIC	?call@?$compute_linearRand@_K$0A@Utvec2@glm@@@detail@glm@@SA?AU?$tvec2@_K$0A@@3@AEBU43@0@Z ; glm::detail::compute_linearRand<unsigned __int64,0,glm::tvec2>::call
PUBLIC	?call@?$compute_min_vector@_K$0A@Utvec2@glm@@$0A@@detail@glm@@SA?AU?$tvec2@_K$0A@@3@AEBU43@0@Z ; glm::detail::compute_min_vector<unsigned __int64,0,glm::tvec2,0>::call
PUBLIC	?call@?$compute_max_vector@_K$0A@Utvec2@glm@@$0A@@detail@glm@@SA?AU?$tvec2@_K$0A@@3@AEBU43@0@Z ; glm::detail::compute_max_vector<unsigned __int64,0,glm::tvec2,0>::call
PUBLIC	?call@?$compute_linearRand@C$0A@Utvec2@glm@@@detail@glm@@SA?AU?$tvec2@C$0A@@3@AEBU43@0@Z ; glm::detail::compute_linearRand<signed char,0,glm::tvec2>::call
PUBLIC	?call@?$compute_min_vector@C$0A@Utvec2@glm@@$0A@@detail@glm@@SA?AU?$tvec2@C$0A@@3@AEBU43@0@Z ; glm::detail::compute_min_vector<signed char,0,glm::tvec2,0>::call
PUBLIC	?call@?$compute_max_vector@C$0A@Utvec2@glm@@$0A@@detail@glm@@SA?AU?$tvec2@C$0A@@3@AEBU43@0@Z ; glm::detail::compute_max_vector<signed char,0,glm::tvec2,0>::call
PUBLIC	?call@?$compute_linearRand@F$0A@Utvec2@glm@@@detail@glm@@SA?AU?$tvec2@F$0A@@3@AEBU43@0@Z ; glm::detail::compute_linearRand<short,0,glm::tvec2>::call
PUBLIC	?call@?$compute_min_vector@F$0A@Utvec2@glm@@$0A@@detail@glm@@SA?AU?$tvec2@F$0A@@3@AEBU43@0@Z ; glm::detail::compute_min_vector<short,0,glm::tvec2,0>::call
PUBLIC	?call@?$compute_max_vector@F$0A@Utvec2@glm@@$0A@@detail@glm@@SA?AU?$tvec2@F$0A@@3@AEBU43@0@Z ; glm::detail::compute_max_vector<short,0,glm::tvec2,0>::call
PUBLIC	?call@?$compute_linearRand@H$0A@Utvec2@glm@@@detail@glm@@SA?AU?$tvec2@H$0A@@3@AEBU43@0@Z ; glm::detail::compute_linearRand<int,0,glm::tvec2>::call
PUBLIC	?call@?$compute_min_vector@H$0A@Utvec2@glm@@$0A@@detail@glm@@SA?AU?$tvec2@H$0A@@3@AEBU43@0@Z ; glm::detail::compute_min_vector<int,0,glm::tvec2,0>::call
PUBLIC	?call@?$compute_max_vector@H$0A@Utvec2@glm@@$0A@@detail@glm@@SA?AU?$tvec2@H$0A@@3@AEBU43@0@Z ; glm::detail::compute_max_vector<int,0,glm::tvec2,0>::call
PUBLIC	?call@?$compute_linearRand@_J$0A@Utvec2@glm@@@detail@glm@@SA?AU?$tvec2@_J$0A@@3@AEBU43@0@Z ; glm::detail::compute_linearRand<__int64,0,glm::tvec2>::call
PUBLIC	?call@?$compute_min_vector@_J$0A@Utvec2@glm@@$0A@@detail@glm@@SA?AU?$tvec2@_J$0A@@3@AEBU43@0@Z ; glm::detail::compute_min_vector<__int64,0,glm::tvec2,0>::call
PUBLIC	?call@?$compute_max_vector@_J$0A@Utvec2@glm@@$0A@@detail@glm@@SA?AU?$tvec2@_J$0A@@3@AEBU43@0@Z ; glm::detail::compute_max_vector<__int64,0,glm::tvec2,0>::call
PUBLIC	?call@?$compute_linearRand@M$0A@Utvec2@glm@@@detail@glm@@SA?AU?$tvec2@M$0A@@3@AEBU43@0@Z ; glm::detail::compute_linearRand<float,0,glm::tvec2>::call
PUBLIC	?call@?$compute_linearRand@N$0A@Utvec2@glm@@@detail@glm@@SA?AU?$tvec2@N$0A@@3@AEBU43@0@Z ; glm::detail::compute_linearRand<double,0,glm::tvec2>::call
PUBLIC	?call@?$compute_linearRand@M$0A@Utvec1@glm@@@detail@glm@@SA?AU?$tvec1@M$0A@@3@AEBU43@0@Z ; glm::detail::compute_linearRand<float,0,glm::tvec1>::call
PUBLIC	??0?$tvec1@M$0A@@glm@@QEAA@M@Z			; glm::tvec1<float,0>::tvec1<float,0>
PUBLIC	?call@?$compute_linearRand@N$0A@Utvec1@glm@@@detail@glm@@SA?AU?$tvec1@N$0A@@3@AEBU43@0@Z ; glm::detail::compute_linearRand<double,0,glm::tvec1>::call
PUBLIC	??0?$tvec1@N$0A@@glm@@QEAA@N@Z			; glm::tvec1<double,0>::tvec1<double,0>
PUBLIC	??$?DM$0A@@glm@@YA?AU?$tvec2@M$0A@@0@AEBU10@M@Z	; glm::operator*<float,0>
PUBLIC	?call@?$compute_length@Utvec2@glm@@M$0A@$0A@@detail@glm@@SAMAEBU?$tvec2@M$0A@@3@@Z ; glm::detail::compute_length<glm::tvec2,float,0,0>::call
PUBLIC	??$?DN$0A@@glm@@YA?AU?$tvec2@N$0A@@0@AEBU10@N@Z	; glm::operator*<double,0>
PUBLIC	?call@?$compute_length@Utvec2@glm@@N$0A@$0A@@detail@glm@@SANAEBU?$tvec2@N$0A@@3@@Z ; glm::detail::compute_length<glm::tvec2,double,0,0>::call
PUBLIC	??$?DM$0A@@glm@@YA?AU?$tvec3@M$0A@@0@AEBU10@M@Z	; glm::operator*<float,0>
PUBLIC	?call@?$compute_length@Utvec3@glm@@M$0A@$0A@@detail@glm@@SAMAEBU?$tvec3@M$0A@@3@@Z ; glm::detail::compute_length<glm::tvec3,float,0,0>::call
PUBLIC	??$?DN$0A@@glm@@YA?AU?$tvec3@N$0A@@0@AEBU10@N@Z	; glm::operator*<double,0>
PUBLIC	?call@?$compute_length@Utvec3@glm@@N$0A@$0A@@detail@glm@@SANAEBU?$tvec3@N$0A@@3@@Z ; glm::detail::compute_length<glm::tvec3,double,0,0>::call
PUBLIC	??$linearRand@M$0A@Utvec3@glm@@@glm@@YA?AU?$tvec3@M$0A@@0@AEBU10@0@Z ; glm::linearRand<float,0,glm::tvec3>
PUBLIC	??$linearRand@N$0A@Utvec3@glm@@@glm@@YA?AU?$tvec3@N$0A@@0@AEBU10@0@Z ; glm::linearRand<double,0,glm::tvec3>
PUBLIC	??$dot@N$0A@Utvec3@glm@@@glm@@YANAEBU?$tvec3@N$0A@@0@0@Z ; glm::dot<double,0,glm::tvec3>
PUBLIC	??$dot@M$0A@Utvec3@glm@@@glm@@YAMAEBU?$tvec3@M$0A@@0@0@Z ; glm::dot<float,0,glm::tvec3>
PUBLIC	??$dot@N$0A@Utvec2@glm@@@glm@@YANAEBU?$tvec2@N$0A@@0@0@Z ; glm::dot<double,0,glm::tvec2>
PUBLIC	??$dot@M$0A@Utvec2@glm@@@glm@@YAMAEBU?$tvec2@M$0A@@0@0@Z ; glm::dot<float,0,glm::tvec2>
PUBLIC	?call@?$compute_rand@_K$0A@Utvec1@glm@@@detail@glm@@SA?AU?$tvec1@_K$0A@@3@XZ ; glm::detail::compute_rand<unsigned __int64,0,glm::tvec1>::call
PUBLIC	??0?$tvec1@_K$0A@@glm@@QEAA@_K@Z		; glm::tvec1<unsigned __int64,0>::tvec1<unsigned __int64,0>
PUBLIC	??$?0_K$0A@@?$tvec1@N$0A@@glm@@QEAA@AEBU?$tvec1@_K$0A@@1@@Z ; glm::tvec1<double,0>::tvec1<double,0><unsigned __int64,0>
PUBLIC	??$?KN$0A@@glm@@YA?AU?$tvec1@N$0A@@0@AEBU10@N@Z	; glm::operator/<double,0>
PUBLIC	??$?GN$0A@@glm@@YA?AU?$tvec1@N$0A@@0@AEBU10@0@Z	; glm::operator-<double,0>
PUBLIC	??$?DN$0A@@glm@@YA?AU?$tvec1@N$0A@@0@AEBU10@0@Z	; glm::operator*<double,0>
PUBLIC	??$?HN$0A@@glm@@YA?AU?$tvec1@N$0A@@0@AEBU10@0@Z	; glm::operator+<double,0>
PUBLIC	?call@?$compute_rand@I$0A@Utvec1@glm@@@detail@glm@@SA?AU?$tvec1@I$0A@@3@XZ ; glm::detail::compute_rand<unsigned int,0,glm::tvec1>::call
PUBLIC	??0?$tvec1@I$0A@@glm@@QEAA@I@Z			; glm::tvec1<unsigned int,0>::tvec1<unsigned int,0>
PUBLIC	??$?0I$0A@@?$tvec1@M$0A@@glm@@QEAA@AEBU?$tvec1@I$0A@@1@@Z ; glm::tvec1<float,0>::tvec1<float,0><unsigned int,0>
PUBLIC	??$?KM$0A@@glm@@YA?AU?$tvec1@M$0A@@0@AEBU10@M@Z	; glm::operator/<float,0>
PUBLIC	??$?GM$0A@@glm@@YA?AU?$tvec1@M$0A@@0@AEBU10@0@Z	; glm::operator-<float,0>
PUBLIC	??$?DM$0A@@glm@@YA?AU?$tvec1@M$0A@@0@AEBU10@0@Z	; glm::operator*<float,0>
PUBLIC	??$?HM$0A@@glm@@YA?AU?$tvec1@M$0A@@0@AEBU10@0@Z	; glm::operator+<float,0>
PUBLIC	?call@?$compute_rand@_K$0A@Utvec2@glm@@@detail@glm@@SA?AU?$tvec2@_K$0A@@3@XZ ; glm::detail::compute_rand<unsigned __int64,0,glm::tvec2>::call
PUBLIC	??$?0_K$0A@@?$tvec2@N$0A@@glm@@QEAA@AEBU?$tvec2@_K$0A@@1@@Z ; glm::tvec2<double,0>::tvec2<double,0><unsigned __int64,0>
PUBLIC	??$?KN$0A@@glm@@YA?AU?$tvec2@N$0A@@0@AEBU10@N@Z	; glm::operator/<double,0>
PUBLIC	??$?GN$0A@@glm@@YA?AU?$tvec2@N$0A@@0@AEBU10@0@Z	; glm::operator-<double,0>
PUBLIC	??$?DN$0A@@glm@@YA?AU?$tvec2@N$0A@@0@AEBU10@0@Z	; glm::operator*<double,0>
PUBLIC	??$?HN$0A@@glm@@YA?AU?$tvec2@N$0A@@0@AEBU10@0@Z	; glm::operator+<double,0>
PUBLIC	?call@?$compute_rand@I$0A@Utvec2@glm@@@detail@glm@@SA?AU?$tvec2@I$0A@@3@XZ ; glm::detail::compute_rand<unsigned int,0,glm::tvec2>::call
PUBLIC	??$?0I$0A@@?$tvec2@M$0A@@glm@@QEAA@AEBU?$tvec2@I$0A@@1@@Z ; glm::tvec2<float,0>::tvec2<float,0><unsigned int,0>
PUBLIC	??$?KM$0A@@glm@@YA?AU?$tvec2@M$0A@@0@AEBU10@M@Z	; glm::operator/<float,0>
PUBLIC	??$?GM$0A@@glm@@YA?AU?$tvec2@M$0A@@0@AEBU10@0@Z	; glm::operator-<float,0>
PUBLIC	??$?DM$0A@@glm@@YA?AU?$tvec2@M$0A@@0@AEBU10@0@Z	; glm::operator*<float,0>
PUBLIC	??$?HM$0A@@glm@@YA?AU?$tvec2@M$0A@@0@AEBU10@0@Z	; glm::operator+<float,0>
PUBLIC	?call@?$functor2@_J$0A@Utvec2@glm@@@detail@glm@@SA?AU?$tvec2@_J$0A@@3@P6A_J_J0@ZAEBU43@2@Z ; glm::detail::functor2<__int64,0,glm::tvec2>::call
PUBLIC	??$max@_J@glm@@YA_J_J0@Z			; glm::max<__int64>
PUBLIC	??$min@_J@glm@@YA_J_J0@Z			; glm::min<__int64>
PUBLIC	??$?H_J$0A@@glm@@YA?AU?$tvec2@_J$0A@@0@AEBU10@_J@Z ; glm::operator+<__int64,0>
PUBLIC	??$?G_J$0A@@glm@@YA?AU?$tvec2@_J$0A@@0@AEBU10@0@Z ; glm::operator-<__int64,0>
PUBLIC	??$?0_J$0A@@?$tvec2@_K$0A@@glm@@QEAA@AEBU?$tvec2@_J$0A@@1@@Z ; glm::tvec2<unsigned __int64,0>::tvec2<unsigned __int64,0><__int64,0>
PUBLIC	??$?L_K$0A@@glm@@YA?AU?$tvec2@_K$0A@@0@AEBU10@0@Z ; glm::operator%<unsigned __int64,0>
PUBLIC	??$?0_K$0A@@?$tvec2@_J$0A@@glm@@QEAA@AEBU?$tvec2@_K$0A@@1@@Z ; glm::tvec2<__int64,0>::tvec2<__int64,0><unsigned __int64,0>
PUBLIC	??$?H_J$0A@@glm@@YA?AU?$tvec2@_J$0A@@0@AEBU10@0@Z ; glm::operator+<__int64,0>
PUBLIC	?call@?$functor2@H$0A@Utvec2@glm@@@detail@glm@@SA?AU?$tvec2@H$0A@@3@P6AHHH@ZAEBU43@1@Z ; glm::detail::functor2<int,0,glm::tvec2>::call
PUBLIC	??$max@H@glm@@YAHHH@Z				; glm::max<int>
PUBLIC	??$min@H@glm@@YAHHH@Z				; glm::min<int>
PUBLIC	??$?HH$0A@@glm@@YA?AU?$tvec2@H$0A@@0@AEBU10@H@Z	; glm::operator+<int,0>
PUBLIC	??$?GH$0A@@glm@@YA?AU?$tvec2@H$0A@@0@AEBU10@0@Z	; glm::operator-<int,0>
PUBLIC	??$?0H$0A@@?$tvec2@I$0A@@glm@@QEAA@AEBU?$tvec2@H$0A@@1@@Z ; glm::tvec2<unsigned int,0>::tvec2<unsigned int,0><int,0>
PUBLIC	??$?LI$0A@@glm@@YA?AU?$tvec2@I$0A@@0@AEBU10@0@Z	; glm::operator%<unsigned int,0>
PUBLIC	??$?0I$0A@@?$tvec2@H$0A@@glm@@QEAA@AEBU?$tvec2@I$0A@@1@@Z ; glm::tvec2<int,0>::tvec2<int,0><unsigned int,0>
PUBLIC	??$?HH$0A@@glm@@YA?AU?$tvec2@H$0A@@0@AEBU10@0@Z	; glm::operator+<int,0>
PUBLIC	?call@?$functor2@F$0A@Utvec2@glm@@@detail@glm@@SA?AU?$tvec2@F$0A@@3@P6AFFF@ZAEBU43@1@Z ; glm::detail::functor2<short,0,glm::tvec2>::call
PUBLIC	??$max@F@glm@@YAFFF@Z				; glm::max<short>
PUBLIC	??$min@F@glm@@YAFFF@Z				; glm::min<short>
PUBLIC	?call@?$compute_rand@G$0A@Utvec2@glm@@@detail@glm@@SA?AU?$tvec2@G$0A@@3@XZ ; glm::detail::compute_rand<unsigned short,0,glm::tvec2>::call
PUBLIC	??$?HF$0A@@glm@@YA?AU?$tvec2@F$0A@@0@AEBU10@F@Z	; glm::operator+<short,0>
PUBLIC	??$?GF$0A@@glm@@YA?AU?$tvec2@F$0A@@0@AEBU10@0@Z	; glm::operator-<short,0>
PUBLIC	??$?0F$0A@@?$tvec2@G$0A@@glm@@QEAA@AEBU?$tvec2@F$0A@@1@@Z ; glm::tvec2<unsigned short,0>::tvec2<unsigned short,0><short,0>
PUBLIC	??$?LG$0A@@glm@@YA?AU?$tvec2@G$0A@@0@AEBU10@0@Z	; glm::operator%<unsigned short,0>
PUBLIC	??$?0G$0A@@?$tvec2@F$0A@@glm@@QEAA@AEBU?$tvec2@G$0A@@1@@Z ; glm::tvec2<short,0>::tvec2<short,0><unsigned short,0>
PUBLIC	??$?HF$0A@@glm@@YA?AU?$tvec2@F$0A@@0@AEBU10@0@Z	; glm::operator+<short,0>
PUBLIC	?call@?$functor2@C$0A@Utvec2@glm@@@detail@glm@@SA?AU?$tvec2@C$0A@@3@P6ACCC@ZAEBU43@1@Z ; glm::detail::functor2<signed char,0,glm::tvec2>::call
PUBLIC	??$max@C@glm@@YACCC@Z				; glm::max<signed char>
PUBLIC	??$min@C@glm@@YACCC@Z				; glm::min<signed char>
PUBLIC	?call@?$compute_rand@E$0A@Utvec2@glm@@@detail@glm@@SA?AU?$tvec2@E$0A@@3@XZ ; glm::detail::compute_rand<unsigned char,0,glm::tvec2>::call
PUBLIC	??$?HC$0A@@glm@@YA?AU?$tvec2@C$0A@@0@AEBU10@C@Z	; glm::operator+<signed char,0>
PUBLIC	??$?GC$0A@@glm@@YA?AU?$tvec2@C$0A@@0@AEBU10@0@Z	; glm::operator-<signed char,0>
PUBLIC	??$?0C$0A@@?$tvec2@E$0A@@glm@@QEAA@AEBU?$tvec2@C$0A@@1@@Z ; glm::tvec2<unsigned char,0>::tvec2<unsigned char,0><signed char,0>
PUBLIC	??$?LE$0A@@glm@@YA?AU?$tvec2@E$0A@@0@AEBU10@0@Z	; glm::operator%<unsigned char,0>
PUBLIC	??$?0E$0A@@?$tvec2@C$0A@@glm@@QEAA@AEBU?$tvec2@E$0A@@1@@Z ; glm::tvec2<signed char,0>::tvec2<signed char,0><unsigned char,0>
PUBLIC	??$?HC$0A@@glm@@YA?AU?$tvec2@C$0A@@0@AEBU10@0@Z	; glm::operator+<signed char,0>
PUBLIC	?call@?$functor2@_K$0A@Utvec2@glm@@@detail@glm@@SA?AU?$tvec2@_K$0A@@3@P6A_K_K0@ZAEBU43@2@Z ; glm::detail::functor2<unsigned __int64,0,glm::tvec2>::call
PUBLIC	??$max@_K@glm@@YA_K_K0@Z			; glm::max<unsigned __int64>
PUBLIC	??$min@_K@glm@@YA_K_K0@Z			; glm::min<unsigned __int64>
PUBLIC	??$?H_K$0A@@glm@@YA?AU?$tvec2@_K$0A@@0@AEBU10@_K@Z ; glm::operator+<unsigned __int64,0>
PUBLIC	??$?G_K$0A@@glm@@YA?AU?$tvec2@_K$0A@@0@AEBU10@0@Z ; glm::operator-<unsigned __int64,0>
PUBLIC	??$?H_K$0A@@glm@@YA?AU?$tvec2@_K$0A@@0@AEBU10@0@Z ; glm::operator+<unsigned __int64,0>
PUBLIC	?call@?$functor2@I$0A@Utvec2@glm@@@detail@glm@@SA?AU?$tvec2@I$0A@@3@P6AIII@ZAEBU43@1@Z ; glm::detail::functor2<unsigned int,0,glm::tvec2>::call
PUBLIC	??$max@I@glm@@YAIII@Z				; glm::max<unsigned int>
PUBLIC	??$min@I@glm@@YAIII@Z				; glm::min<unsigned int>
PUBLIC	??$?HI$0A@@glm@@YA?AU?$tvec2@I$0A@@0@AEBU10@I@Z	; glm::operator+<unsigned int,0>
PUBLIC	??$?GI$0A@@glm@@YA?AU?$tvec2@I$0A@@0@AEBU10@0@Z	; glm::operator-<unsigned int,0>
PUBLIC	??$?HI$0A@@glm@@YA?AU?$tvec2@I$0A@@0@AEBU10@0@Z	; glm::operator+<unsigned int,0>
PUBLIC	?call@?$functor2@G$0A@Utvec2@glm@@@detail@glm@@SA?AU?$tvec2@G$0A@@3@P6AGGG@ZAEBU43@1@Z ; glm::detail::functor2<unsigned short,0,glm::tvec2>::call
PUBLIC	??$max@G@glm@@YAGGG@Z				; glm::max<unsigned short>
PUBLIC	??$min@G@glm@@YAGGG@Z				; glm::min<unsigned short>
PUBLIC	??$?HG$0A@@glm@@YA?AU?$tvec2@G$0A@@0@AEBU10@G@Z	; glm::operator+<unsigned short,0>
PUBLIC	??$?GG$0A@@glm@@YA?AU?$tvec2@G$0A@@0@AEBU10@0@Z	; glm::operator-<unsigned short,0>
PUBLIC	??$?HG$0A@@glm@@YA?AU?$tvec2@G$0A@@0@AEBU10@0@Z	; glm::operator+<unsigned short,0>
PUBLIC	?call@?$functor2@E$0A@Utvec2@glm@@@detail@glm@@SA?AU?$tvec2@E$0A@@3@P6AEEE@ZAEBU43@1@Z ; glm::detail::functor2<unsigned char,0,glm::tvec2>::call
PUBLIC	??$max@E@glm@@YAEEE@Z				; glm::max<unsigned char>
PUBLIC	??$min@E@glm@@YAEEE@Z				; glm::min<unsigned char>
PUBLIC	??$?HE$0A@@glm@@YA?AU?$tvec2@E$0A@@0@AEBU10@E@Z	; glm::operator+<unsigned char,0>
PUBLIC	??$?GE$0A@@glm@@YA?AU?$tvec2@E$0A@@0@AEBU10@0@Z	; glm::operator-<unsigned char,0>
PUBLIC	??$?HE$0A@@glm@@YA?AU?$tvec2@E$0A@@0@AEBU10@0@Z	; glm::operator+<unsigned char,0>
PUBLIC	??$?0HH@?$tvec2@E$0A@@glm@@QEAA@HH@Z		; glm::tvec2<unsigned char,0>::tvec2<unsigned char,0><int,int>
PUBLIC	??$?0E$0A@@?$tvec2@G$0A@@glm@@QEAA@AEBU?$tvec2@E$0A@@1@@Z ; glm::tvec2<unsigned short,0>::tvec2<unsigned short,0><unsigned char,0>
PUBLIC	??$?6G$0A@@glm@@YA?AU?$tvec2@G$0A@@0@AEBU10@G@Z	; glm::operator<<<unsigned short,0>
PUBLIC	??$?UG$0A@@glm@@YA?AU?$tvec2@G$0A@@0@AEBU10@0@Z	; glm::operator|<unsigned short,0>
PUBLIC	??$?0G$0A@@?$tvec2@I$0A@@glm@@QEAA@AEBU?$tvec2@G$0A@@1@@Z ; glm::tvec2<unsigned int,0>::tvec2<unsigned int,0><unsigned short,0>
PUBLIC	??$?6I$0A@@glm@@YA?AU?$tvec2@I$0A@@0@AEBU10@I@Z	; glm::operator<<<unsigned int,0>
PUBLIC	??$?UI$0A@@glm@@YA?AU?$tvec2@I$0A@@0@AEBU10@0@Z	; glm::operator|<unsigned int,0>
PUBLIC	??$?0I$0A@@?$tvec2@_K$0A@@glm@@QEAA@AEBU?$tvec2@I$0A@@1@@Z ; glm::tvec2<unsigned __int64,0>::tvec2<unsigned __int64,0><unsigned int,0>
PUBLIC	??$?6_K$0A@@glm@@YA?AU?$tvec2@_K$0A@@0@AEBU10@_K@Z ; glm::operator<<<unsigned __int64,0>
PUBLIC	??$?U_K$0A@@glm@@YA?AU?$tvec2@_K$0A@@0@AEBU10@0@Z ; glm::operator|<unsigned __int64,0>
PUBLIC	?call@?$compute_rand@G$0A@Utvec1@glm@@@detail@glm@@SA?AU?$tvec1@G$0A@@3@XZ ; glm::detail::compute_rand<unsigned short,0,glm::tvec1>::call
PUBLIC	??0?$tvec1@G$0A@@glm@@QEAA@G@Z			; glm::tvec1<unsigned short,0>::tvec1<unsigned short,0>
PUBLIC	??$?0G$0A@@?$tvec1@I$0A@@glm@@QEAA@AEBU?$tvec1@G$0A@@1@@Z ; glm::tvec1<unsigned int,0>::tvec1<unsigned int,0><unsigned short,0>
PUBLIC	??$?6I$0A@@glm@@YA?AU?$tvec1@I$0A@@0@AEBU10@I@Z	; glm::operator<<<unsigned int,0>
PUBLIC	??$?UI$0A@@glm@@YA?AU?$tvec1@I$0A@@0@AEBU10@0@Z	; glm::operator|<unsigned int,0>
PUBLIC	??$?0I$0A@@?$tvec1@_K$0A@@glm@@QEAA@AEBU?$tvec1@I$0A@@1@@Z ; glm::tvec1<unsigned __int64,0>::tvec1<unsigned __int64,0><unsigned int,0>
PUBLIC	??$?6_K$0A@@glm@@YA?AU?$tvec1@_K$0A@@0@AEBU10@_K@Z ; glm::operator<<<unsigned __int64,0>
PUBLIC	??$?U_K$0A@@glm@@YA?AU?$tvec1@_K$0A@@0@AEBU10@0@Z ; glm::operator|<unsigned __int64,0>
PUBLIC	?call@?$compute_rand@E$0A@Utvec1@glm@@@detail@glm@@SA?AU?$tvec1@E$0A@@3@XZ ; glm::detail::compute_rand<unsigned char,0,glm::tvec1>::call
PUBLIC	??0?$tvec1@E$0A@@glm@@QEAA@E@Z			; glm::tvec1<unsigned char,0>::tvec1<unsigned char,0>
PUBLIC	??$?0E$0A@@?$tvec1@G$0A@@glm@@QEAA@AEBU?$tvec1@E$0A@@1@@Z ; glm::tvec1<unsigned short,0>::tvec1<unsigned short,0><unsigned char,0>
PUBLIC	??$?6G$0A@@glm@@YA?AU?$tvec1@G$0A@@0@AEBU10@G@Z	; glm::operator<<<unsigned short,0>
PUBLIC	??$?UG$0A@@glm@@YA?AU?$tvec1@G$0A@@0@AEBU10@0@Z	; glm::operator|<unsigned short,0>
PUBLIC	?call@?$compute_linearRand@M$0A@Utvec3@glm@@@detail@glm@@SA?AU?$tvec3@M$0A@@3@AEBU43@0@Z ; glm::detail::compute_linearRand<float,0,glm::tvec3>::call
PUBLIC	?call@?$compute_linearRand@N$0A@Utvec3@glm@@@detail@glm@@SA?AU?$tvec3@N$0A@@3@AEBU43@0@Z ; glm::detail::compute_linearRand<double,0,glm::tvec3>::call
PUBLIC	?call@?$compute_dot@Utvec3@glm@@N$0A@$0A@@detail@glm@@SANAEBU?$tvec3@N$0A@@3@0@Z ; glm::detail::compute_dot<glm::tvec3,double,0,0>::call
PUBLIC	?call@?$compute_dot@Utvec3@glm@@M$0A@$0A@@detail@glm@@SAMAEBU?$tvec3@M$0A@@3@0@Z ; glm::detail::compute_dot<glm::tvec3,float,0,0>::call
PUBLIC	?call@?$compute_dot@Utvec2@glm@@N$0A@$0A@@detail@glm@@SANAEBU?$tvec2@N$0A@@3@0@Z ; glm::detail::compute_dot<glm::tvec2,double,0,0>::call
PUBLIC	?call@?$compute_dot@Utvec2@glm@@M$0A@$0A@@detail@glm@@SAMAEBU?$tvec2@M$0A@@3@0@Z ; glm::detail::compute_dot<glm::tvec2,float,0,0>::call
PUBLIC	??$?0HH@?$tvec2@F$0A@@glm@@QEAA@HH@Z		; glm::tvec2<short,0>::tvec2<short,0><int,int>
PUBLIC	??$?0HH@?$tvec2@G$0A@@glm@@QEAA@HH@Z		; glm::tvec2<unsigned short,0>::tvec2<unsigned short,0><int,int>
PUBLIC	??$?0HH@?$tvec2@C$0A@@glm@@QEAA@HH@Z		; glm::tvec2<signed char,0>::tvec2<signed char,0><int,int>
PUBLIC	??$?DM$0A@@glm@@YA?AU?$tvec3@M$0A@@0@AEBU10@0@Z	; glm::operator*<float,0>
PUBLIC	??$?DN$0A@@glm@@YA?AU?$tvec3@N$0A@@0@AEBU10@0@Z	; glm::operator*<double,0>
PUBLIC	?call@?$compute_rand@_K$0A@Utvec3@glm@@@detail@glm@@SA?AU?$tvec3@_K$0A@@3@XZ ; glm::detail::compute_rand<unsigned __int64,0,glm::tvec3>::call
PUBLIC	??0?$tvec3@_K$0A@@glm@@QEAA@_K00@Z		; glm::tvec3<unsigned __int64,0>::tvec3<unsigned __int64,0>
PUBLIC	??$?0_K$0A@@?$tvec3@N$0A@@glm@@QEAA@AEBU?$tvec3@_K$0A@@1@@Z ; glm::tvec3<double,0>::tvec3<double,0><unsigned __int64,0>
PUBLIC	??$?KN$0A@@glm@@YA?AU?$tvec3@N$0A@@0@AEBU10@N@Z	; glm::operator/<double,0>
PUBLIC	??$?GN$0A@@glm@@YA?AU?$tvec3@N$0A@@0@AEBU10@0@Z	; glm::operator-<double,0>
PUBLIC	??$?HN$0A@@glm@@YA?AU?$tvec3@N$0A@@0@AEBU10@0@Z	; glm::operator+<double,0>
PUBLIC	?call@?$compute_rand@I$0A@Utvec3@glm@@@detail@glm@@SA?AU?$tvec3@I$0A@@3@XZ ; glm::detail::compute_rand<unsigned int,0,glm::tvec3>::call
PUBLIC	??0?$tvec3@I$0A@@glm@@QEAA@III@Z		; glm::tvec3<unsigned int,0>::tvec3<unsigned int,0>
PUBLIC	??$?0I$0A@@?$tvec3@M$0A@@glm@@QEAA@AEBU?$tvec3@I$0A@@1@@Z ; glm::tvec3<float,0>::tvec3<float,0><unsigned int,0>
PUBLIC	??$?KM$0A@@glm@@YA?AU?$tvec3@M$0A@@0@AEBU10@M@Z	; glm::operator/<float,0>
PUBLIC	??$?GM$0A@@glm@@YA?AU?$tvec3@M$0A@@0@AEBU10@0@Z	; glm::operator-<float,0>
PUBLIC	??$?HM$0A@@glm@@YA?AU?$tvec3@M$0A@@0@AEBU10@0@Z	; glm::operator+<float,0>
PUBLIC	?call@?$compute_rand@G$0A@Utvec3@glm@@@detail@glm@@SA?AU?$tvec3@G$0A@@3@XZ ; glm::detail::compute_rand<unsigned short,0,glm::tvec3>::call
PUBLIC	??$?0G$0A@@?$tvec3@I$0A@@glm@@QEAA@AEBU?$tvec3@G$0A@@1@@Z ; glm::tvec3<unsigned int,0>::tvec3<unsigned int,0><unsigned short,0>
PUBLIC	??$?6I$0A@@glm@@YA?AU?$tvec3@I$0A@@0@AEBU10@I@Z	; glm::operator<<<unsigned int,0>
PUBLIC	??$?UI$0A@@glm@@YA?AU?$tvec3@I$0A@@0@AEBU10@0@Z	; glm::operator|<unsigned int,0>
PUBLIC	??$?0I$0A@@?$tvec3@_K$0A@@glm@@QEAA@AEBU?$tvec3@I$0A@@1@@Z ; glm::tvec3<unsigned __int64,0>::tvec3<unsigned __int64,0><unsigned int,0>
PUBLIC	??$?6_K$0A@@glm@@YA?AU?$tvec3@_K$0A@@0@AEBU10@_K@Z ; glm::operator<<<unsigned __int64,0>
PUBLIC	??$?U_K$0A@@glm@@YA?AU?$tvec3@_K$0A@@0@AEBU10@0@Z ; glm::operator|<unsigned __int64,0>
PUBLIC	?call@?$compute_rand@E$0A@Utvec3@glm@@@detail@glm@@SA?AU?$tvec3@E$0A@@3@XZ ; glm::detail::compute_rand<unsigned char,0,glm::tvec3>::call
PUBLIC	??$?0E$0A@@?$tvec3@G$0A@@glm@@QEAA@AEBU?$tvec3@E$0A@@1@@Z ; glm::tvec3<unsigned short,0>::tvec3<unsigned short,0><unsigned char,0>
PUBLIC	??$?6G$0A@@glm@@YA?AU?$tvec3@G$0A@@0@AEBU10@G@Z	; glm::operator<<<unsigned short,0>
PUBLIC	??$?UG$0A@@glm@@YA?AU?$tvec3@G$0A@@0@AEBU10@0@Z	; glm::operator|<unsigned short,0>
PUBLIC	??$?0HHH@?$tvec3@E$0A@@glm@@QEAA@HHH@Z		; glm::tvec3<unsigned char,0>::tvec3<unsigned char,0><int,int,int>
PUBLIC	??$?0HHH@?$tvec3@G$0A@@glm@@QEAA@HHH@Z		; glm::tvec3<unsigned short,0>::tvec3<unsigned short,0><int,int,int>
PUBLIC	??_C@_1NA@OPABFNEN@?$AAC?$AA?3?$AA?2?$AAU?$AAs?$AAe?$AAr?$AAs?$AA?2?$AAk?$AAs?$AAa?$AAr?$AAt?$AA?2@ ; `string'
PUBLIC	??_C@_1DC@HHLCGOLC@?$AAx?$AA?4?$AAl?$AAe?$AAn?$AAg?$AAt?$AAh?$AA?$CI?$AA?$CJ?$AA?5?$AA?$DN?$AA?$DN?$AA?5?$AAy@ ; `string'
PUBLIC	??_C@_1LG@FPDAFGJN@?$AAC?$AA?3?$AA?2?$AAU?$AAs?$AAe?$AAr?$AAs?$AA?2?$AAk?$AAs?$AAa?$AAr?$AAt?$AA?2@ ; `string'
PUBLIC	??_C@_1DK@BGNCJAPL@?$AAi?$AA?5?$AA?$DO?$AA?$DN?$AA?5?$AA0?$AA?5?$AA?$CG?$AA?$CG?$AA?5?$AAi?$AA?5?$AA?$DM?$AA?5?$AAt@ ; `string'
PUBLIC	__real@00000000
PUBLIC	__real@0000000000000000
PUBLIC	__real@38d1b717
PUBLIC	__real@3c23d70a
PUBLIC	__real@3f1a36e2eb1c432d
PUBLIC	__real@3f800000
PUBLIC	__real@3f847ae147ae147b
PUBLIC	__real@3ff0000000000000
PUBLIC	__real@40000000
PUBLIC	__real@4000000000000000
PUBLIC	__real@4008000000000000
PUBLIC	__real@401921fb60000000
PUBLIC	__real@4030000000000000
PUBLIC	__real@40400000
PUBLIC	__real@4040000000000000
PUBLIC	__real@40c90fdb
PUBLIC	__real@40d3880000000000
PUBLIC	__real@41800000
PUBLIC	__real@42000000
PUBLIC	__real@469c4000
PUBLIC	__real@bf800000
PUBLIC	__real@bff0000000000000
PUBLIC	__xmm@80000000000000008000000000000000
PUBLIC	__xmm@80000000800000008000000080000000
EXTRN	__imp__wassert:PROC
EXTRN	cos:PROC
EXTRN	sin:PROC
EXTRN	sqrt:PROC
EXTRN	__imp_cosf:PROC
EXTRN	__imp_sinf:PROC
EXTRN	__imp_sqrtf:PROC
EXTRN	__imp_rand:PROC
EXTRN	_RTC_CheckStackVars:PROC
EXTRN	_RTC_InitBase:PROC
EXTRN	_RTC_Shutdown:PROC
EXTRN	_fltused:DWORD
;	COMDAT pdata
pdata	SEGMENT
$pdata$?cos@@YAMM@Z DD imagerel $LN3
	DD	imagerel $LN3+29
	DD	imagerel $unwind$?cos@@YAMM@Z
pdata	ENDS
;	COMDAT pdata
pdata	SEGMENT
$pdata$?sin@@YAMM@Z DD imagerel $LN3
	DD	imagerel $LN3+29
	DD	imagerel $unwind$?sin@@YAMM@Z
pdata	ENDS
;	COMDAT pdata
pdata	SEGMENT
$pdata$?sqrt@@YAMM@Z DD imagerel $LN3
	DD	imagerel $LN3+29
	DD	imagerel $unwind$?sqrt@@YAMM@Z
pdata	ENDS
;	COMDAT pdata
pdata	SEGMENT
$pdata$?min@?$numeric_limits@C@std@@SACXZ DD imagerel $LN3
	DD	imagerel $LN3+6
	DD	imagerel $unwind$?min@?$numeric_limits@C@std@@SACXZ
pdata	ENDS
;	COMDAT pdata
pdata	SEGMENT
$pdata$?max@?$numeric_limits@C@std@@SACXZ DD imagerel $LN3
	DD	imagerel $LN3+6
	DD	imagerel $unwind$?max@?$numeric_limits@C@std@@SACXZ
pdata	ENDS
;	COMDAT pdata
pdata	SEGMENT
$pdata$?min@?$numeric_limits@E@std@@SAEXZ DD imagerel $LN3
	DD	imagerel $LN3+6
	DD	imagerel $unwind$?min@?$numeric_limits@E@std@@SAEXZ
pdata	ENDS
;	COMDAT pdata
pdata	SEGMENT
$pdata$?max@?$numeric_limits@E@std@@SAEXZ DD imagerel $LN3
	DD	imagerel $LN3+6
	DD	imagerel $unwind$?max@?$numeric_limits@E@std@@SAEXZ
pdata	ENDS
;	COMDAT pdata
pdata	SEGMENT
$pdata$?min@?$numeric_limits@F@std@@SAFXZ DD imagerel $LN3
	DD	imagerel $LN3+9
	DD	imagerel $unwind$?min@?$numeric_limits@F@std@@SAFXZ
pdata	ENDS
;	COMDAT pdata
pdata	SEGMENT
$pdata$?max@?$numeric_limits@F@std@@SAFXZ DD imagerel $LN3
	DD	imagerel $LN3+9
	DD	imagerel $unwind$?max@?$numeric_limits@F@std@@SAFXZ
pdata	ENDS
;	COMDAT pdata
pdata	SEGMENT
$pdata$?min@?$numeric_limits@H@std@@SAHXZ DD imagerel $LN3
	DD	imagerel $LN3+9
	DD	imagerel $unwind$?min@?$numeric_limits@H@std@@SAHXZ
pdata	ENDS
;	COMDAT pdata
pdata	SEGMENT
$pdata$?max@?$numeric_limits@H@std@@SAHXZ DD imagerel $LN3
	DD	imagerel $LN3+9
	DD	imagerel $unwind$?max@?$numeric_limits@H@std@@SAHXZ
pdata	ENDS
;	COMDAT pdata
pdata	SEGMENT
$pdata$?min@?$numeric_limits@_J@std@@SA_JXZ DD imagerel $LN3
	DD	imagerel $LN3+14
	DD	imagerel $unwind$?min@?$numeric_limits@_J@std@@SA_JXZ
pdata	ENDS
;	COMDAT pdata
pdata	SEGMENT
$pdata$?max@?$numeric_limits@_J@std@@SA_JXZ DD imagerel $LN3
	DD	imagerel $LN3+14
	DD	imagerel $unwind$?max@?$numeric_limits@_J@std@@SA_JXZ
pdata	ENDS
;	COMDAT pdata
pdata	SEGMENT
$pdata$?min@?$numeric_limits@G@std@@SAGXZ DD imagerel $LN3
	DD	imagerel $LN3+6
	DD	imagerel $unwind$?min@?$numeric_limits@G@std@@SAGXZ
pdata	ENDS
;	COMDAT pdata
pdata	SEGMENT
$pdata$?max@?$numeric_limits@G@std@@SAGXZ DD imagerel $LN3
	DD	imagerel $LN3+9
	DD	imagerel $unwind$?max@?$numeric_limits@G@std@@SAGXZ
pdata	ENDS
;	COMDAT pdata
pdata	SEGMENT
$pdata$?min@?$numeric_limits@I@std@@SAIXZ DD imagerel $LN3
	DD	imagerel $LN3+6
	DD	imagerel $unwind$?min@?$numeric_limits@I@std@@SAIXZ
pdata	ENDS
;	COMDAT pdata
pdata	SEGMENT
$pdata$?max@?$numeric_limits@I@std@@SAIXZ DD imagerel $LN3
	DD	imagerel $LN3+9
	DD	imagerel $unwind$?max@?$numeric_limits@I@std@@SAIXZ
pdata	ENDS
;	COMDAT pdata
pdata	SEGMENT
$pdata$?min@?$numeric_limits@_K@std@@SA_KXZ DD imagerel $LN3
	DD	imagerel $LN3+6
	DD	imagerel $unwind$?min@?$numeric_limits@_K@std@@SA_KXZ
pdata	ENDS
;	COMDAT pdata
pdata	SEGMENT
$pdata$?max@?$numeric_limits@_K@std@@SA_KXZ DD imagerel $LN3
	DD	imagerel $LN3+11
	DD	imagerel $unwind$?max@?$numeric_limits@_K@std@@SA_KXZ
pdata	ENDS
;	COMDAT pdata
pdata	SEGMENT
$pdata$??$epsilonEqual@M@glm@@YA_NAEBM00@Z DD imagerel $LN5
	DD	imagerel $LN5+86
	DD	imagerel $unwind$??$epsilonEqual@M@glm@@YA_NAEBM00@Z
pdata	ENDS
;	COMDAT pdata
pdata	SEGMENT
$pdata$??$abs@M@glm@@YAMM@Z DD imagerel $LN3
	DD	imagerel $LN3+28
	DD	imagerel $unwind$??$abs@M@glm@@YAMM@Z
pdata	ENDS
;	COMDAT pdata
pdata	SEGMENT
$pdata$??$epsilonEqual@N@glm@@YA_NAEBN00@Z DD imagerel $LN5
	DD	imagerel $LN5+87
	DD	imagerel $unwind$??$epsilonEqual@N@glm@@YA_NAEBN00@Z
pdata	ENDS
;	COMDAT pdata
pdata	SEGMENT
$pdata$??$abs@N@glm@@YANN@Z DD imagerel $LN3
	DD	imagerel $LN3+28
	DD	imagerel $unwind$??$abs@N@glm@@YANN@Z
pdata	ENDS
pdata	SEGMENT
$pdata$?test_linearRand@@YAHXZ DD imagerel $LN103
	DD	imagerel $LN103+6108
	DD	imagerel $unwind$?test_linearRand@@YAHXZ
pdata	ENDS
;	COMDAT pdata
pdata	SEGMENT
$pdata$?length@?$tvec2@E$0A@@glm@@SAHXZ DD imagerel $LN3
	DD	imagerel $LN3+9
	DD	imagerel $unwind$?length@?$tvec2@E$0A@@glm@@SAHXZ
pdata	ENDS
;	COMDAT pdata
pdata	SEGMENT
$pdata$??A?$tvec2@E$0A@@glm@@QEBAAEBEH@Z DD imagerel $LN5
	DD	imagerel $LN5+82
	DD	imagerel $unwind$??A?$tvec2@E$0A@@glm@@QEBAAEBEH@Z
pdata	ENDS
;	COMDAT pdata
pdata	SEGMENT
$pdata$??0?$tvec2@E$0A@@glm@@QEAA@E@Z DD imagerel $LN3
	DD	imagerel $LN3+42
	DD	imagerel $unwind$??0?$tvec2@E$0A@@glm@@QEAA@E@Z
pdata	ENDS
;	COMDAT pdata
pdata	SEGMENT
$pdata$??0?$tvec2@E$0A@@glm@@QEAA@EE@Z DD imagerel $LN3
	DD	imagerel $LN3+47
	DD	imagerel $unwind$??0?$tvec2@E$0A@@glm@@QEAA@EE@Z
pdata	ENDS
;	COMDAT pdata
pdata	SEGMENT
$pdata$??$linearRand@E$0A@Utvec2@glm@@@glm@@YA?AU?$tvec2@E$0A@@0@AEBU10@0@Z DD imagerel $LN3
	DD	imagerel $LN3+51
	DD	imagerel $unwind$??$linearRand@E$0A@Utvec2@glm@@@glm@@YA?AU?$tvec2@E$0A@@0@AEBU10@0@Z
pdata	ENDS
;	COMDAT pdata
pdata	SEGMENT
$pdata$??$min@E$0A@Utvec2@glm@@@glm@@YA?AU?$tvec2@E$0A@@0@AEBU10@0@Z DD imagerel $LN3
	DD	imagerel $LN3+51
	DD	imagerel $unwind$??$min@E$0A@Utvec2@glm@@@glm@@YA?AU?$tvec2@E$0A@@0@AEBU10@0@Z
pdata	ENDS
;	COMDAT pdata
pdata	SEGMENT
$pdata$??$max@E$0A@Utvec2@glm@@@glm@@YA?AU?$tvec2@E$0A@@0@AEBU10@0@Z DD imagerel $LN3
	DD	imagerel $LN3+51
	DD	imagerel $unwind$??$max@E$0A@Utvec2@glm@@@glm@@YA?AU?$tvec2@E$0A@@0@AEBU10@0@Z
pdata	ENDS
;	COMDAT pdata
pdata	SEGMENT
$pdata$??$lessThanEqual@E$0A@Utvec2@glm@@@glm@@YA?AU?$tvec2@_N$0A@@0@AEBU?$tvec2@E$0A@@0@0@Z DD imagerel $LN9
	DD	imagerel $LN9+267
	DD	imagerel $unwind$??$lessThanEqual@E$0A@Utvec2@glm@@@glm@@YA?AU?$tvec2@_N$0A@@0@AEBU?$tvec2@E$0A@@0@0@Z
pdata	ENDS
;	COMDAT pdata
pdata	SEGMENT
$pdata$?length@?$tvec2@_N$0A@@glm@@SAHXZ DD imagerel $LN3
	DD	imagerel $LN3+9
	DD	imagerel $unwind$?length@?$tvec2@_N$0A@@glm@@SAHXZ
pdata	ENDS
;	COMDAT pdata
pdata	SEGMENT
$pdata$??A?$tvec2@_N$0A@@glm@@QEAAAEA_NH@Z DD imagerel $LN5
	DD	imagerel $LN5+82
	DD	imagerel $unwind$??A?$tvec2@_N$0A@@glm@@QEAAAEA_NH@Z
pdata	ENDS
;	COMDAT pdata
pdata	SEGMENT
$pdata$??A?$tvec2@_N$0A@@glm@@QEBAAEB_NH@Z DD imagerel $LN5
	DD	imagerel $LN5+82
	DD	imagerel $unwind$??A?$tvec2@_N$0A@@glm@@QEBAAEB_NH@Z
pdata	ENDS
;	COMDAT pdata
pdata	SEGMENT
$pdata$??0?$tvec2@_N$0A@@glm@@QEAA@W4ctor@1@@Z DD imagerel $LN3
	DD	imagerel $LN3+17
	DD	imagerel $unwind$??0?$tvec2@_N$0A@@glm@@QEAA@W4ctor@1@@Z
pdata	ENDS
;	COMDAT pdata
pdata	SEGMENT
$pdata$??$all@$0A@Utvec2@glm@@@glm@@YA_NAEBU?$tvec2@_N$0A@@0@@Z DD imagerel $LN8
	DD	imagerel $LN8+116
	DD	imagerel $unwind$??$all@$0A@Utvec2@glm@@@glm@@YA_NAEBU?$tvec2@_N$0A@@0@@Z
pdata	ENDS
;	COMDAT pdata
pdata	SEGMENT
$pdata$??$greaterThanEqual@E$0A@Utvec2@glm@@@glm@@YA?AU?$tvec2@_N$0A@@0@AEBU?$tvec2@E$0A@@0@0@Z DD imagerel $LN9
	DD	imagerel $LN9+267
	DD	imagerel $unwind$??$greaterThanEqual@E$0A@Utvec2@glm@@@glm@@YA?AU?$tvec2@_N$0A@@0@AEBU?$tvec2@E$0A@@0@0@Z
pdata	ENDS
;	COMDAT pdata
pdata	SEGMENT
$pdata$??$equal@E$0A@Utvec2@glm@@@glm@@YA?AU?$tvec2@_N$0A@@0@AEBU?$tvec2@E$0A@@0@0@Z DD imagerel $LN9
	DD	imagerel $LN9+267
	DD	imagerel $unwind$??$equal@E$0A@Utvec2@glm@@@glm@@YA?AU?$tvec2@_N$0A@@0@AEBU?$tvec2@E$0A@@0@0@Z
pdata	ENDS
;	COMDAT pdata
pdata	SEGMENT
$pdata$?length@?$tvec2@G$0A@@glm@@SAHXZ DD imagerel $LN3
	DD	imagerel $LN3+9
	DD	imagerel $unwind$?length@?$tvec2@G$0A@@glm@@SAHXZ
pdata	ENDS
;	COMDAT pdata
pdata	SEGMENT
$pdata$??A?$tvec2@G$0A@@glm@@QEBAAEBGH@Z DD imagerel $LN5
	DD	imagerel $LN5+80
	DD	imagerel $unwind$??A?$tvec2@G$0A@@glm@@QEBAAEBGH@Z
pdata	ENDS
;	COMDAT pdata
pdata	SEGMENT
$pdata$??0?$tvec2@G$0A@@glm@@QEAA@G@Z DD imagerel $LN3
	DD	imagerel $LN3+45
	DD	imagerel $unwind$??0?$tvec2@G$0A@@glm@@QEAA@G@Z
pdata	ENDS
;	COMDAT pdata
pdata	SEGMENT
$pdata$??0?$tvec2@G$0A@@glm@@QEAA@GG@Z DD imagerel $LN3
	DD	imagerel $LN3+51
	DD	imagerel $unwind$??0?$tvec2@G$0A@@glm@@QEAA@GG@Z
pdata	ENDS
;	COMDAT pdata
pdata	SEGMENT
$pdata$??$linearRand@G$0A@Utvec2@glm@@@glm@@YA?AU?$tvec2@G$0A@@0@AEBU10@0@Z DD imagerel $LN3
	DD	imagerel $LN3+51
	DD	imagerel $unwind$??$linearRand@G$0A@Utvec2@glm@@@glm@@YA?AU?$tvec2@G$0A@@0@AEBU10@0@Z
pdata	ENDS
;	COMDAT pdata
pdata	SEGMENT
$pdata$??$min@G$0A@Utvec2@glm@@@glm@@YA?AU?$tvec2@G$0A@@0@AEBU10@0@Z DD imagerel $LN3
	DD	imagerel $LN3+51
	DD	imagerel $unwind$??$min@G$0A@Utvec2@glm@@@glm@@YA?AU?$tvec2@G$0A@@0@AEBU10@0@Z
pdata	ENDS
;	COMDAT pdata
pdata	SEGMENT
$pdata$??$max@G$0A@Utvec2@glm@@@glm@@YA?AU?$tvec2@G$0A@@0@AEBU10@0@Z DD imagerel $LN3
	DD	imagerel $LN3+51
	DD	imagerel $unwind$??$max@G$0A@Utvec2@glm@@@glm@@YA?AU?$tvec2@G$0A@@0@AEBU10@0@Z
pdata	ENDS
;	COMDAT pdata
pdata	SEGMENT
$pdata$??$lessThanEqual@G$0A@Utvec2@glm@@@glm@@YA?AU?$tvec2@_N$0A@@0@AEBU?$tvec2@G$0A@@0@0@Z DD imagerel $LN9
	DD	imagerel $LN9+267
	DD	imagerel $unwind$??$lessThanEqual@G$0A@Utvec2@glm@@@glm@@YA?AU?$tvec2@_N$0A@@0@AEBU?$tvec2@G$0A@@0@0@Z
pdata	ENDS
;	COMDAT pdata
pdata	SEGMENT
$pdata$??$greaterThanEqual@G$0A@Utvec2@glm@@@glm@@YA?AU?$tvec2@_N$0A@@0@AEBU?$tvec2@G$0A@@0@0@Z DD imagerel $LN9
	DD	imagerel $LN9+267
	DD	imagerel $unwind$??$greaterThanEqual@G$0A@Utvec2@glm@@@glm@@YA?AU?$tvec2@_N$0A@@0@AEBU?$tvec2@G$0A@@0@0@Z
pdata	ENDS
;	COMDAT pdata
pdata	SEGMENT
$pdata$??$equal@G$0A@Utvec2@glm@@@glm@@YA?AU?$tvec2@_N$0A@@0@AEBU?$tvec2@G$0A@@0@0@Z DD imagerel $LN9
	DD	imagerel $LN9+267
	DD	imagerel $unwind$??$equal@G$0A@Utvec2@glm@@@glm@@YA?AU?$tvec2@_N$0A@@0@AEBU?$tvec2@G$0A@@0@0@Z
pdata	ENDS
;	COMDAT pdata
pdata	SEGMENT
$pdata$?length@?$tvec2@I$0A@@glm@@SAHXZ DD imagerel $LN3
	DD	imagerel $LN3+9
	DD	imagerel $unwind$?length@?$tvec2@I$0A@@glm@@SAHXZ
pdata	ENDS
;	COMDAT pdata
pdata	SEGMENT
$pdata$??A?$tvec2@I$0A@@glm@@QEBAAEBIH@Z DD imagerel $LN5
	DD	imagerel $LN5+80
	DD	imagerel $unwind$??A?$tvec2@I$0A@@glm@@QEBAAEBIH@Z
pdata	ENDS
;	COMDAT pdata
pdata	SEGMENT
$pdata$??0?$tvec2@I$0A@@glm@@QEAA@I@Z DD imagerel $LN3
	DD	imagerel $LN3+40
	DD	imagerel $unwind$??0?$tvec2@I$0A@@glm@@QEAA@I@Z
pdata	ENDS
;	COMDAT pdata
pdata	SEGMENT
$pdata$??0?$tvec2@I$0A@@glm@@QEAA@II@Z DD imagerel $LN3
	DD	imagerel $LN3+45
	DD	imagerel $unwind$??0?$tvec2@I$0A@@glm@@QEAA@II@Z
pdata	ENDS
;	COMDAT pdata
pdata	SEGMENT
$pdata$??$linearRand@I$0A@Utvec2@glm@@@glm@@YA?AU?$tvec2@I$0A@@0@AEBU10@0@Z DD imagerel $LN3
	DD	imagerel $LN3+51
	DD	imagerel $unwind$??$linearRand@I$0A@Utvec2@glm@@@glm@@YA?AU?$tvec2@I$0A@@0@AEBU10@0@Z
pdata	ENDS
;	COMDAT pdata
pdata	SEGMENT
$pdata$??$min@I$0A@Utvec2@glm@@@glm@@YA?AU?$tvec2@I$0A@@0@AEBU10@0@Z DD imagerel $LN3
	DD	imagerel $LN3+51
	DD	imagerel $unwind$??$min@I$0A@Utvec2@glm@@@glm@@YA?AU?$tvec2@I$0A@@0@AEBU10@0@Z
pdata	ENDS
;	COMDAT pdata
pdata	SEGMENT
$pdata$??$max@I$0A@Utvec2@glm@@@glm@@YA?AU?$tvec2@I$0A@@0@AEBU10@0@Z DD imagerel $LN3
	DD	imagerel $LN3+51
	DD	imagerel $unwind$??$max@I$0A@Utvec2@glm@@@glm@@YA?AU?$tvec2@I$0A@@0@AEBU10@0@Z
pdata	ENDS
;	COMDAT pdata
pdata	SEGMENT
$pdata$??$lessThanEqual@I$0A@Utvec2@glm@@@glm@@YA?AU?$tvec2@_N$0A@@0@AEBU?$tvec2@I$0A@@0@0@Z DD imagerel $LN9
	DD	imagerel $LN9+265
	DD	imagerel $unwind$??$lessThanEqual@I$0A@Utvec2@glm@@@glm@@YA?AU?$tvec2@_N$0A@@0@AEBU?$tvec2@I$0A@@0@0@Z
pdata	ENDS
;	COMDAT pdata
pdata	SEGMENT
$pdata$??$greaterThanEqual@I$0A@Utvec2@glm@@@glm@@YA?AU?$tvec2@_N$0A@@0@AEBU?$tvec2@I$0A@@0@0@Z DD imagerel $LN9
	DD	imagerel $LN9+265
	DD	imagerel $unwind$??$greaterThanEqual@I$0A@Utvec2@glm@@@glm@@YA?AU?$tvec2@_N$0A@@0@AEBU?$tvec2@I$0A@@0@0@Z
pdata	ENDS
;	COMDAT pdata
pdata	SEGMENT
$pdata$??$equal@I$0A@Utvec2@glm@@@glm@@YA?AU?$tvec2@_N$0A@@0@AEBU?$tvec2@I$0A@@0@0@Z DD imagerel $LN9
	DD	imagerel $LN9+265
	DD	imagerel $unwind$??$equal@I$0A@Utvec2@glm@@@glm@@YA?AU?$tvec2@_N$0A@@0@AEBU?$tvec2@I$0A@@0@0@Z
pdata	ENDS
;	COMDAT pdata
pdata	SEGMENT
$pdata$?length@?$tvec2@_K$0A@@glm@@SAHXZ DD imagerel $LN3
	DD	imagerel $LN3+9
	DD	imagerel $unwind$?length@?$tvec2@_K$0A@@glm@@SAHXZ
pdata	ENDS
;	COMDAT pdata
pdata	SEGMENT
$pdata$??A?$tvec2@_K$0A@@glm@@QEBAAEB_KH@Z DD imagerel $LN5
	DD	imagerel $LN5+80
	DD	imagerel $unwind$??A?$tvec2@_K$0A@@glm@@QEBAAEB_KH@Z
pdata	ENDS
;	COMDAT pdata
pdata	SEGMENT
$pdata$??0?$tvec2@_K$0A@@glm@@QEAA@_K@Z DD imagerel $LN3
	DD	imagerel $LN3+45
	DD	imagerel $unwind$??0?$tvec2@_K$0A@@glm@@QEAA@_K@Z
pdata	ENDS
;	COMDAT pdata
pdata	SEGMENT
$pdata$??0?$tvec2@_K$0A@@glm@@QEAA@_K0@Z DD imagerel $LN3
	DD	imagerel $LN3+50
	DD	imagerel $unwind$??0?$tvec2@_K$0A@@glm@@QEAA@_K0@Z
pdata	ENDS
;	COMDAT pdata
pdata	SEGMENT
$pdata$??$linearRand@_K$0A@Utvec2@glm@@@glm@@YA?AU?$tvec2@_K$0A@@0@AEBU10@0@Z DD imagerel $LN3
	DD	imagerel $LN3+51
	DD	imagerel $unwind$??$linearRand@_K$0A@Utvec2@glm@@@glm@@YA?AU?$tvec2@_K$0A@@0@AEBU10@0@Z
pdata	ENDS
;	COMDAT pdata
pdata	SEGMENT
$pdata$??$min@_K$0A@Utvec2@glm@@@glm@@YA?AU?$tvec2@_K$0A@@0@AEBU10@0@Z DD imagerel $LN3
	DD	imagerel $LN3+51
	DD	imagerel $unwind$??$min@_K$0A@Utvec2@glm@@@glm@@YA?AU?$tvec2@_K$0A@@0@AEBU10@0@Z
pdata	ENDS
;	COMDAT pdata
pdata	SEGMENT
$pdata$??$max@_K$0A@Utvec2@glm@@@glm@@YA?AU?$tvec2@_K$0A@@0@AEBU10@0@Z DD imagerel $LN3
	DD	imagerel $LN3+51
	DD	imagerel $unwind$??$max@_K$0A@Utvec2@glm@@@glm@@YA?AU?$tvec2@_K$0A@@0@AEBU10@0@Z
pdata	ENDS
;	COMDAT pdata
pdata	SEGMENT
$pdata$??$lessThanEqual@_K$0A@Utvec2@glm@@@glm@@YA?AU?$tvec2@_N$0A@@0@AEBU?$tvec2@_K$0A@@0@0@Z DD imagerel $LN9
	DD	imagerel $LN9+267
	DD	imagerel $unwind$??$lessThanEqual@_K$0A@Utvec2@glm@@@glm@@YA?AU?$tvec2@_N$0A@@0@AEBU?$tvec2@_K$0A@@0@0@Z
pdata	ENDS
;	COMDAT pdata
pdata	SEGMENT
$pdata$??$greaterThanEqual@_K$0A@Utvec2@glm@@@glm@@YA?AU?$tvec2@_N$0A@@0@AEBU?$tvec2@_K$0A@@0@0@Z DD imagerel $LN9
	DD	imagerel $LN9+267
	DD	imagerel $unwind$??$greaterThanEqual@_K$0A@Utvec2@glm@@@glm@@YA?AU?$tvec2@_N$0A@@0@AEBU?$tvec2@_K$0A@@0@0@Z
pdata	ENDS
;	COMDAT pdata
pdata	SEGMENT
$pdata$??$equal@_K$0A@Utvec2@glm@@@glm@@YA?AU?$tvec2@_N$0A@@0@AEBU?$tvec2@_K$0A@@0@0@Z DD imagerel $LN9
	DD	imagerel $LN9+267
	DD	imagerel $unwind$??$equal@_K$0A@Utvec2@glm@@@glm@@YA?AU?$tvec2@_N$0A@@0@AEBU?$tvec2@_K$0A@@0@0@Z
pdata	ENDS
;	COMDAT pdata
pdata	SEGMENT
$pdata$?length@?$tvec2@C$0A@@glm@@SAHXZ DD imagerel $LN3
	DD	imagerel $LN3+9
	DD	imagerel $unwind$?length@?$tvec2@C$0A@@glm@@SAHXZ
pdata	ENDS
;	COMDAT pdata
pdata	SEGMENT
$pdata$??A?$tvec2@C$0A@@glm@@QEBAAEBCH@Z DD imagerel $LN5
	DD	imagerel $LN5+82
	DD	imagerel $unwind$??A?$tvec2@C$0A@@glm@@QEBAAEBCH@Z
pdata	ENDS
;	COMDAT pdata
pdata	SEGMENT
$pdata$??0?$tvec2@C$0A@@glm@@QEAA@C@Z DD imagerel $LN3
	DD	imagerel $LN3+42
	DD	imagerel $unwind$??0?$tvec2@C$0A@@glm@@QEAA@C@Z
pdata	ENDS
;	COMDAT pdata
pdata	SEGMENT
$pdata$??0?$tvec2@C$0A@@glm@@QEAA@CC@Z DD imagerel $LN3
	DD	imagerel $LN3+47
	DD	imagerel $unwind$??0?$tvec2@C$0A@@glm@@QEAA@CC@Z
pdata	ENDS
;	COMDAT pdata
pdata	SEGMENT
$pdata$??$linearRand@C$0A@Utvec2@glm@@@glm@@YA?AU?$tvec2@C$0A@@0@AEBU10@0@Z DD imagerel $LN3
	DD	imagerel $LN3+51
	DD	imagerel $unwind$??$linearRand@C$0A@Utvec2@glm@@@glm@@YA?AU?$tvec2@C$0A@@0@AEBU10@0@Z
pdata	ENDS
;	COMDAT pdata
pdata	SEGMENT
$pdata$??$min@C$0A@Utvec2@glm@@@glm@@YA?AU?$tvec2@C$0A@@0@AEBU10@0@Z DD imagerel $LN3
	DD	imagerel $LN3+51
	DD	imagerel $unwind$??$min@C$0A@Utvec2@glm@@@glm@@YA?AU?$tvec2@C$0A@@0@AEBU10@0@Z
pdata	ENDS
;	COMDAT pdata
pdata	SEGMENT
$pdata$??$max@C$0A@Utvec2@glm@@@glm@@YA?AU?$tvec2@C$0A@@0@AEBU10@0@Z DD imagerel $LN3
	DD	imagerel $LN3+51
	DD	imagerel $unwind$??$max@C$0A@Utvec2@glm@@@glm@@YA?AU?$tvec2@C$0A@@0@AEBU10@0@Z
pdata	ENDS
;	COMDAT pdata
pdata	SEGMENT
$pdata$??$lessThanEqual@C$0A@Utvec2@glm@@@glm@@YA?AU?$tvec2@_N$0A@@0@AEBU?$tvec2@C$0A@@0@0@Z DD imagerel $LN9
	DD	imagerel $LN9+267
	DD	imagerel $unwind$??$lessThanEqual@C$0A@Utvec2@glm@@@glm@@YA?AU?$tvec2@_N$0A@@0@AEBU?$tvec2@C$0A@@0@0@Z
pdata	ENDS
;	COMDAT pdata
pdata	SEGMENT
$pdata$??$greaterThanEqual@C$0A@Utvec2@glm@@@glm@@YA?AU?$tvec2@_N$0A@@0@AEBU?$tvec2@C$0A@@0@0@Z DD imagerel $LN9
	DD	imagerel $LN9+267
	DD	imagerel $unwind$??$greaterThanEqual@C$0A@Utvec2@glm@@@glm@@YA?AU?$tvec2@_N$0A@@0@AEBU?$tvec2@C$0A@@0@0@Z
pdata	ENDS
;	COMDAT pdata
pdata	SEGMENT
$pdata$??$equal@C$0A@Utvec2@glm@@@glm@@YA?AU?$tvec2@_N$0A@@0@AEBU?$tvec2@C$0A@@0@0@Z DD imagerel $LN9
	DD	imagerel $LN9+267
	DD	imagerel $unwind$??$equal@C$0A@Utvec2@glm@@@glm@@YA?AU?$tvec2@_N$0A@@0@AEBU?$tvec2@C$0A@@0@0@Z
pdata	ENDS
;	COMDAT pdata
pdata	SEGMENT
$pdata$?length@?$tvec2@F$0A@@glm@@SAHXZ DD imagerel $LN3
	DD	imagerel $LN3+9
	DD	imagerel $unwind$?length@?$tvec2@F$0A@@glm@@SAHXZ
pdata	ENDS
;	COMDAT pdata
pdata	SEGMENT
$pdata$??A?$tvec2@F$0A@@glm@@QEBAAEBFH@Z DD imagerel $LN5
	DD	imagerel $LN5+80
	DD	imagerel $unwind$??A?$tvec2@F$0A@@glm@@QEBAAEBFH@Z
pdata	ENDS
;	COMDAT pdata
pdata	SEGMENT
$pdata$??0?$tvec2@F$0A@@glm@@QEAA@F@Z DD imagerel $LN3
	DD	imagerel $LN3+45
	DD	imagerel $unwind$??0?$tvec2@F$0A@@glm@@QEAA@F@Z
pdata	ENDS
;	COMDAT pdata
pdata	SEGMENT
$pdata$??0?$tvec2@F$0A@@glm@@QEAA@FF@Z DD imagerel $LN3
	DD	imagerel $LN3+51
	DD	imagerel $unwind$??0?$tvec2@F$0A@@glm@@QEAA@FF@Z
pdata	ENDS
;	COMDAT pdata
pdata	SEGMENT
$pdata$??$linearRand@F$0A@Utvec2@glm@@@glm@@YA?AU?$tvec2@F$0A@@0@AEBU10@0@Z DD imagerel $LN3
	DD	imagerel $LN3+51
	DD	imagerel $unwind$??$linearRand@F$0A@Utvec2@glm@@@glm@@YA?AU?$tvec2@F$0A@@0@AEBU10@0@Z
pdata	ENDS
;	COMDAT pdata
pdata	SEGMENT
$pdata$??$min@F$0A@Utvec2@glm@@@glm@@YA?AU?$tvec2@F$0A@@0@AEBU10@0@Z DD imagerel $LN3
	DD	imagerel $LN3+51
	DD	imagerel $unwind$??$min@F$0A@Utvec2@glm@@@glm@@YA?AU?$tvec2@F$0A@@0@AEBU10@0@Z
pdata	ENDS
;	COMDAT pdata
pdata	SEGMENT
$pdata$??$max@F$0A@Utvec2@glm@@@glm@@YA?AU?$tvec2@F$0A@@0@AEBU10@0@Z DD imagerel $LN3
	DD	imagerel $LN3+51
	DD	imagerel $unwind$??$max@F$0A@Utvec2@glm@@@glm@@YA?AU?$tvec2@F$0A@@0@AEBU10@0@Z
pdata	ENDS
;	COMDAT pdata
pdata	SEGMENT
$pdata$??$lessThanEqual@F$0A@Utvec2@glm@@@glm@@YA?AU?$tvec2@_N$0A@@0@AEBU?$tvec2@F$0A@@0@0@Z DD imagerel $LN9
	DD	imagerel $LN9+267
	DD	imagerel $unwind$??$lessThanEqual@F$0A@Utvec2@glm@@@glm@@YA?AU?$tvec2@_N$0A@@0@AEBU?$tvec2@F$0A@@0@0@Z
pdata	ENDS
;	COMDAT pdata
pdata	SEGMENT
$pdata$??$greaterThanEqual@F$0A@Utvec2@glm@@@glm@@YA?AU?$tvec2@_N$0A@@0@AEBU?$tvec2@F$0A@@0@0@Z DD imagerel $LN9
	DD	imagerel $LN9+267
	DD	imagerel $unwind$??$greaterThanEqual@F$0A@Utvec2@glm@@@glm@@YA?AU?$tvec2@_N$0A@@0@AEBU?$tvec2@F$0A@@0@0@Z
pdata	ENDS
;	COMDAT pdata
pdata	SEGMENT
$pdata$??$equal@F$0A@Utvec2@glm@@@glm@@YA?AU?$tvec2@_N$0A@@0@AEBU?$tvec2@F$0A@@0@0@Z DD imagerel $LN9
	DD	imagerel $LN9+267
	DD	imagerel $unwind$??$equal@F$0A@Utvec2@glm@@@glm@@YA?AU?$tvec2@_N$0A@@0@AEBU?$tvec2@F$0A@@0@0@Z
pdata	ENDS
;	COMDAT pdata
pdata	SEGMENT
$pdata$?length@?$tvec2@H$0A@@glm@@SAHXZ DD imagerel $LN3
	DD	imagerel $LN3+9
	DD	imagerel $unwind$?length@?$tvec2@H$0A@@glm@@SAHXZ
pdata	ENDS
;	COMDAT pdata
pdata	SEGMENT
$pdata$??A?$tvec2@H$0A@@glm@@QEBAAEBHH@Z DD imagerel $LN5
	DD	imagerel $LN5+80
	DD	imagerel $unwind$??A?$tvec2@H$0A@@glm@@QEBAAEBHH@Z
pdata	ENDS
;	COMDAT pdata
pdata	SEGMENT
$pdata$??0?$tvec2@H$0A@@glm@@QEAA@H@Z DD imagerel $LN3
	DD	imagerel $LN3+40
	DD	imagerel $unwind$??0?$tvec2@H$0A@@glm@@QEAA@H@Z
pdata	ENDS
;	COMDAT pdata
pdata	SEGMENT
$pdata$??0?$tvec2@H$0A@@glm@@QEAA@HH@Z DD imagerel $LN3
	DD	imagerel $LN3+45
	DD	imagerel $unwind$??0?$tvec2@H$0A@@glm@@QEAA@HH@Z
pdata	ENDS
;	COMDAT pdata
pdata	SEGMENT
$pdata$??$linearRand@H$0A@Utvec2@glm@@@glm@@YA?AU?$tvec2@H$0A@@0@AEBU10@0@Z DD imagerel $LN3
	DD	imagerel $LN3+51
	DD	imagerel $unwind$??$linearRand@H$0A@Utvec2@glm@@@glm@@YA?AU?$tvec2@H$0A@@0@AEBU10@0@Z
pdata	ENDS
;	COMDAT pdata
pdata	SEGMENT
$pdata$??$min@H$0A@Utvec2@glm@@@glm@@YA?AU?$tvec2@H$0A@@0@AEBU10@0@Z DD imagerel $LN3
	DD	imagerel $LN3+51
	DD	imagerel $unwind$??$min@H$0A@Utvec2@glm@@@glm@@YA?AU?$tvec2@H$0A@@0@AEBU10@0@Z
pdata	ENDS
;	COMDAT pdata
pdata	SEGMENT
$pdata$??$max@H$0A@Utvec2@glm@@@glm@@YA?AU?$tvec2@H$0A@@0@AEBU10@0@Z DD imagerel $LN3
	DD	imagerel $LN3+51
	DD	imagerel $unwind$??$max@H$0A@Utvec2@glm@@@glm@@YA?AU?$tvec2@H$0A@@0@AEBU10@0@Z
pdata	ENDS
;	COMDAT pdata
pdata	SEGMENT
$pdata$??$lessThanEqual@H$0A@Utvec2@glm@@@glm@@YA?AU?$tvec2@_N$0A@@0@AEBU?$tvec2@H$0A@@0@0@Z DD imagerel $LN9
	DD	imagerel $LN9+265
	DD	imagerel $unwind$??$lessThanEqual@H$0A@Utvec2@glm@@@glm@@YA?AU?$tvec2@_N$0A@@0@AEBU?$tvec2@H$0A@@0@0@Z
pdata	ENDS
;	COMDAT pdata
pdata	SEGMENT
$pdata$??$greaterThanEqual@H$0A@Utvec2@glm@@@glm@@YA?AU?$tvec2@_N$0A@@0@AEBU?$tvec2@H$0A@@0@0@Z DD imagerel $LN9
	DD	imagerel $LN9+265
	DD	imagerel $unwind$??$greaterThanEqual@H$0A@Utvec2@glm@@@glm@@YA?AU?$tvec2@_N$0A@@0@AEBU?$tvec2@H$0A@@0@0@Z
pdata	ENDS
;	COMDAT pdata
pdata	SEGMENT
$pdata$??$equal@H$0A@Utvec2@glm@@@glm@@YA?AU?$tvec2@_N$0A@@0@AEBU?$tvec2@H$0A@@0@0@Z DD imagerel $LN9
	DD	imagerel $LN9+265
	DD	imagerel $unwind$??$equal@H$0A@Utvec2@glm@@@glm@@YA?AU?$tvec2@_N$0A@@0@AEBU?$tvec2@H$0A@@0@0@Z
pdata	ENDS
;	COMDAT pdata
pdata	SEGMENT
$pdata$?length@?$tvec2@_J$0A@@glm@@SAHXZ DD imagerel $LN3
	DD	imagerel $LN3+9
	DD	imagerel $unwind$?length@?$tvec2@_J$0A@@glm@@SAHXZ
pdata	ENDS
;	COMDAT pdata
pdata	SEGMENT
$pdata$??A?$tvec2@_J$0A@@glm@@QEBAAEB_JH@Z DD imagerel $LN5
	DD	imagerel $LN5+80
	DD	imagerel $unwind$??A?$tvec2@_J$0A@@glm@@QEBAAEB_JH@Z
pdata	ENDS
;	COMDAT pdata
pdata	SEGMENT
$pdata$??0?$tvec2@_J$0A@@glm@@QEAA@_J@Z DD imagerel $LN3
	DD	imagerel $LN3+45
	DD	imagerel $unwind$??0?$tvec2@_J$0A@@glm@@QEAA@_J@Z
pdata	ENDS
;	COMDAT pdata
pdata	SEGMENT
$pdata$??0?$tvec2@_J$0A@@glm@@QEAA@_J0@Z DD imagerel $LN3
	DD	imagerel $LN3+50
	DD	imagerel $unwind$??0?$tvec2@_J$0A@@glm@@QEAA@_J0@Z
pdata	ENDS
;	COMDAT pdata
pdata	SEGMENT
$pdata$??$linearRand@_J$0A@Utvec2@glm@@@glm@@YA?AU?$tvec2@_J$0A@@0@AEBU10@0@Z DD imagerel $LN3
	DD	imagerel $LN3+51
	DD	imagerel $unwind$??$linearRand@_J$0A@Utvec2@glm@@@glm@@YA?AU?$tvec2@_J$0A@@0@AEBU10@0@Z
pdata	ENDS
;	COMDAT pdata
pdata	SEGMENT
$pdata$??$min@_J$0A@Utvec2@glm@@@glm@@YA?AU?$tvec2@_J$0A@@0@AEBU10@0@Z DD imagerel $LN3
	DD	imagerel $LN3+51
	DD	imagerel $unwind$??$min@_J$0A@Utvec2@glm@@@glm@@YA?AU?$tvec2@_J$0A@@0@AEBU10@0@Z
pdata	ENDS
;	COMDAT pdata
pdata	SEGMENT
$pdata$??$max@_J$0A@Utvec2@glm@@@glm@@YA?AU?$tvec2@_J$0A@@0@AEBU10@0@Z DD imagerel $LN3
	DD	imagerel $LN3+51
	DD	imagerel $unwind$??$max@_J$0A@Utvec2@glm@@@glm@@YA?AU?$tvec2@_J$0A@@0@AEBU10@0@Z
pdata	ENDS
;	COMDAT pdata
pdata	SEGMENT
$pdata$??$lessThanEqual@_J$0A@Utvec2@glm@@@glm@@YA?AU?$tvec2@_N$0A@@0@AEBU?$tvec2@_J$0A@@0@0@Z DD imagerel $LN9
	DD	imagerel $LN9+267
	DD	imagerel $unwind$??$lessThanEqual@_J$0A@Utvec2@glm@@@glm@@YA?AU?$tvec2@_N$0A@@0@AEBU?$tvec2@_J$0A@@0@0@Z
pdata	ENDS
;	COMDAT pdata
pdata	SEGMENT
$pdata$??$greaterThanEqual@_J$0A@Utvec2@glm@@@glm@@YA?AU?$tvec2@_N$0A@@0@AEBU?$tvec2@_J$0A@@0@0@Z DD imagerel $LN9
	DD	imagerel $LN9+267
	DD	imagerel $unwind$??$greaterThanEqual@_J$0A@Utvec2@glm@@@glm@@YA?AU?$tvec2@_N$0A@@0@AEBU?$tvec2@_J$0A@@0@0@Z
pdata	ENDS
;	COMDAT pdata
pdata	SEGMENT
$pdata$??$equal@_J$0A@Utvec2@glm@@@glm@@YA?AU?$tvec2@_N$0A@@0@AEBU?$tvec2@_J$0A@@0@0@Z DD imagerel $LN9
	DD	imagerel $LN9+267
	DD	imagerel $unwind$??$equal@_J$0A@Utvec2@glm@@@glm@@YA?AU?$tvec2@_N$0A@@0@AEBU?$tvec2@_J$0A@@0@0@Z
pdata	ENDS
;	COMDAT pdata
pdata	SEGMENT
$pdata$?length@?$tvec2@M$0A@@glm@@SAHXZ DD imagerel $LN3
	DD	imagerel $LN3+9
	DD	imagerel $unwind$?length@?$tvec2@M$0A@@glm@@SAHXZ
pdata	ENDS
;	COMDAT pdata
pdata	SEGMENT
$pdata$??A?$tvec2@M$0A@@glm@@QEBAAEBMH@Z DD imagerel $LN5
	DD	imagerel $LN5+80
	DD	imagerel $unwind$??A?$tvec2@M$0A@@glm@@QEBAAEBMH@Z
pdata	ENDS
;	COMDAT pdata
pdata	SEGMENT
$pdata$??0?$tvec2@M$0A@@glm@@QEAA@M@Z DD imagerel $LN3
	DD	imagerel $LN3+50
	DD	imagerel $unwind$??0?$tvec2@M$0A@@glm@@QEAA@M@Z
pdata	ENDS
;	COMDAT pdata
pdata	SEGMENT
$pdata$??0?$tvec2@M$0A@@glm@@QEAA@MM@Z DD imagerel $LN3
	DD	imagerel $LN3+56
	DD	imagerel $unwind$??0?$tvec2@M$0A@@glm@@QEAA@MM@Z
pdata	ENDS
;	COMDAT pdata
pdata	SEGMENT
$pdata$??$linearRand@M$0A@Utvec2@glm@@@glm@@YA?AU?$tvec2@M$0A@@0@AEBU10@0@Z DD imagerel $LN3
	DD	imagerel $LN3+51
	DD	imagerel $unwind$??$linearRand@M$0A@Utvec2@glm@@@glm@@YA?AU?$tvec2@M$0A@@0@AEBU10@0@Z
pdata	ENDS
;	COMDAT pdata
pdata	SEGMENT
$pdata$??$lessThanEqual@M$0A@Utvec2@glm@@@glm@@YA?AU?$tvec2@_N$0A@@0@AEBU?$tvec2@M$0A@@0@0@Z DD imagerel $LN9
	DD	imagerel $LN9+268
	DD	imagerel $unwind$??$lessThanEqual@M$0A@Utvec2@glm@@@glm@@YA?AU?$tvec2@_N$0A@@0@AEBU?$tvec2@M$0A@@0@0@Z
pdata	ENDS
;	COMDAT pdata
pdata	SEGMENT
$pdata$??$greaterThanEqual@M$0A@Utvec2@glm@@@glm@@YA?AU?$tvec2@_N$0A@@0@AEBU?$tvec2@M$0A@@0@0@Z DD imagerel $LN9
	DD	imagerel $LN9+268
	DD	imagerel $unwind$??$greaterThanEqual@M$0A@Utvec2@glm@@@glm@@YA?AU?$tvec2@_N$0A@@0@AEBU?$tvec2@M$0A@@0@0@Z
pdata	ENDS
;	COMDAT pdata
pdata	SEGMENT
$pdata$?length@?$tvec2@N$0A@@glm@@SAHXZ DD imagerel $LN3
	DD	imagerel $LN3+9
	DD	imagerel $unwind$?length@?$tvec2@N$0A@@glm@@SAHXZ
pdata	ENDS
;	COMDAT pdata
pdata	SEGMENT
$pdata$??A?$tvec2@N$0A@@glm@@QEBAAEBNH@Z DD imagerel $LN5
	DD	imagerel $LN5+80
	DD	imagerel $unwind$??A?$tvec2@N$0A@@glm@@QEBAAEBNH@Z
pdata	ENDS
;	COMDAT pdata
pdata	SEGMENT
$pdata$??0?$tvec2@N$0A@@glm@@QEAA@N@Z DD imagerel $LN3
	DD	imagerel $LN3+50
	DD	imagerel $unwind$??0?$tvec2@N$0A@@glm@@QEAA@N@Z
pdata	ENDS
;	COMDAT pdata
pdata	SEGMENT
$pdata$??0?$tvec2@N$0A@@glm@@QEAA@NN@Z DD imagerel $LN3
	DD	imagerel $LN3+56
	DD	imagerel $unwind$??0?$tvec2@N$0A@@glm@@QEAA@NN@Z
pdata	ENDS
;	COMDAT pdata
pdata	SEGMENT
$pdata$??$linearRand@N$0A@Utvec2@glm@@@glm@@YA?AU?$tvec2@N$0A@@0@AEBU10@0@Z DD imagerel $LN3
	DD	imagerel $LN3+51
	DD	imagerel $unwind$??$linearRand@N$0A@Utvec2@glm@@@glm@@YA?AU?$tvec2@N$0A@@0@AEBU10@0@Z
pdata	ENDS
;	COMDAT pdata
pdata	SEGMENT
$pdata$??$lessThanEqual@N$0A@Utvec2@glm@@@glm@@YA?AU?$tvec2@_N$0A@@0@AEBU?$tvec2@N$0A@@0@0@Z DD imagerel $LN9
	DD	imagerel $LN9+269
	DD	imagerel $unwind$??$lessThanEqual@N$0A@Utvec2@glm@@@glm@@YA?AU?$tvec2@_N$0A@@0@AEBU?$tvec2@N$0A@@0@0@Z
pdata	ENDS
;	COMDAT pdata
pdata	SEGMENT
$pdata$??$greaterThanEqual@N$0A@Utvec2@glm@@@glm@@YA?AU?$tvec2@_N$0A@@0@AEBU?$tvec2@N$0A@@0@0@Z DD imagerel $LN9
	DD	imagerel $LN9+269
	DD	imagerel $unwind$??$greaterThanEqual@N$0A@Utvec2@glm@@@glm@@YA?AU?$tvec2@_N$0A@@0@AEBU?$tvec2@N$0A@@0@0@Z
pdata	ENDS
;	COMDAT pdata
pdata	SEGMENT
$pdata$??$linearRand@M@glm@@YAMMM@Z DD imagerel $LN3
	DD	imagerel $LN3+85
	DD	imagerel $unwind$??$linearRand@M@glm@@YAMMM@Z
pdata	ENDS
;	COMDAT pdata
pdata	SEGMENT
$pdata$??$linearRand@N@glm@@YANNN@Z DD imagerel $LN3
	DD	imagerel $LN3+85
	DD	imagerel $unwind$??$linearRand@N@glm@@YANNN@Z
pdata	ENDS
pdata	SEGMENT
$pdata$?test_circularRand@@YAHXZ DD imagerel $LN15
	DD	imagerel $LN15+565
	DD	imagerel $unwind$?test_circularRand@@YAHXZ
pdata	ENDS
;	COMDAT pdata
pdata	SEGMENT
$pdata$??$circularRand@M@glm@@YA?AU?$tvec2@M$0A@@0@M@Z DD imagerel $LN3
	DD	imagerel $LN3+118
	DD	imagerel $unwind$??$circularRand@M@glm@@YA?AU?$tvec2@M$0A@@0@M@Z
pdata	ENDS
;	COMDAT pdata
pdata	SEGMENT
$pdata$??$length@M$0A@Utvec2@glm@@@glm@@YAMAEBU?$tvec2@M$0A@@0@@Z DD imagerel $LN3
	DD	imagerel $LN3+26
	DD	imagerel $unwind$??$length@M$0A@Utvec2@glm@@@glm@@YAMAEBU?$tvec2@M$0A@@0@@Z
pdata	ENDS
;	COMDAT pdata
pdata	SEGMENT
$pdata$??$circularRand@N@glm@@YA?AU?$tvec2@N$0A@@0@N@Z DD imagerel $LN3
	DD	imagerel $LN3+118
	DD	imagerel $unwind$??$circularRand@N@glm@@YA?AU?$tvec2@N$0A@@0@N@Z
pdata	ENDS
;	COMDAT pdata
pdata	SEGMENT
$pdata$??$length@N$0A@Utvec2@glm@@@glm@@YANAEBU?$tvec2@N$0A@@0@@Z DD imagerel $LN3
	DD	imagerel $LN3+26
	DD	imagerel $unwind$??$length@N$0A@Utvec2@glm@@@glm@@YANAEBU?$tvec2@N$0A@@0@@Z
pdata	ENDS
pdata	SEGMENT
$pdata$?test_sphericalRand@@YAHXZ DD imagerel $LN31
	DD	imagerel $LN31+1417
	DD	imagerel $unwind$?test_sphericalRand@@YAHXZ
pdata	ENDS
;	COMDAT pdata
pdata	SEGMENT
$pdata$??$sphericalRand@M@glm@@YA?AU?$tvec3@M$0A@@0@M@Z DD imagerel $LN3
	DD	imagerel $LN3+221
	DD	imagerel $unwind$??$sphericalRand@M@glm@@YA?AU?$tvec3@M$0A@@0@M@Z
pdata	ENDS
;	COMDAT pdata
pdata	SEGMENT
$pdata$??0?$tvec3@M$0A@@glm@@QEAA@M@Z DD imagerel $LN3
	DD	imagerel $LN3+66
	DD	imagerel $unwind$??0?$tvec3@M$0A@@glm@@QEAA@M@Z
pdata	ENDS
;	COMDAT pdata
pdata	SEGMENT
$pdata$??0?$tvec3@M$0A@@glm@@QEAA@MMM@Z DD imagerel $LN3
	DD	imagerel $LN3+78
	DD	imagerel $unwind$??0?$tvec3@M$0A@@glm@@QEAA@MMM@Z
pdata	ENDS
;	COMDAT pdata
pdata	SEGMENT
$pdata$??$length@M$0A@Utvec3@glm@@@glm@@YAMAEBU?$tvec3@M$0A@@0@@Z DD imagerel $LN3
	DD	imagerel $LN3+26
	DD	imagerel $unwind$??$length@M$0A@Utvec3@glm@@@glm@@YAMAEBU?$tvec3@M$0A@@0@@Z
pdata	ENDS
;	COMDAT pdata
pdata	SEGMENT
$pdata$??$sphericalRand@N@glm@@YA?AU?$tvec3@N$0A@@0@N@Z DD imagerel $LN3
	DD	imagerel $LN3+221
	DD	imagerel $unwind$??$sphericalRand@N@glm@@YA?AU?$tvec3@N$0A@@0@N@Z
pdata	ENDS
;	COMDAT pdata
pdata	SEGMENT
$pdata$??0?$tvec3@N$0A@@glm@@QEAA@N@Z DD imagerel $LN3
	DD	imagerel $LN3+66
	DD	imagerel $unwind$??0?$tvec3@N$0A@@glm@@QEAA@N@Z
pdata	ENDS
;	COMDAT pdata
pdata	SEGMENT
$pdata$??0?$tvec3@N$0A@@glm@@QEAA@NNN@Z DD imagerel $LN3
	DD	imagerel $LN3+78
	DD	imagerel $unwind$??0?$tvec3@N$0A@@glm@@QEAA@NNN@Z
pdata	ENDS
;	COMDAT pdata
pdata	SEGMENT
$pdata$??$length@N$0A@Utvec3@glm@@@glm@@YANAEBU?$tvec3@N$0A@@0@@Z DD imagerel $LN3
	DD	imagerel $LN3+26
	DD	imagerel $unwind$??$length@N$0A@Utvec3@glm@@@glm@@YANAEBU?$tvec3@N$0A@@0@@Z
pdata	ENDS
pdata	SEGMENT
$pdata$?test_diskRand@@YAHXZ DD imagerel $LN11
	DD	imagerel $LN11+303
	DD	imagerel $unwind$?test_diskRand@@YAHXZ
pdata	ENDS
;	COMDAT pdata
pdata	SEGMENT
$pdata$??$diskRand@M@glm@@YA?AU?$tvec2@M$0A@@0@M@Z DD imagerel $LN6
	DD	imagerel $LN6+210
	DD	imagerel $unwind$??$diskRand@M@glm@@YA?AU?$tvec2@M$0A@@0@M@Z
pdata	ENDS
;	COMDAT pdata
pdata	SEGMENT
$pdata$??$diskRand@N@glm@@YA?AU?$tvec2@N$0A@@0@N@Z DD imagerel $LN6
	DD	imagerel $LN6+264
	DD	imagerel $unwind$??$diskRand@N@glm@@YA?AU?$tvec2@N$0A@@0@N@Z
pdata	ENDS
pdata	SEGMENT
$pdata$?test_ballRand@@YAHXZ DD imagerel $LN11
	DD	imagerel $LN11+303
	DD	imagerel $unwind$?test_ballRand@@YAHXZ
pdata	ENDS
;	COMDAT pdata
pdata	SEGMENT
$pdata$??$ballRand@M@glm@@YA?AU?$tvec3@M$0A@@0@M@Z DD imagerel $LN6
	DD	imagerel $LN6+253
	DD	imagerel $unwind$??$ballRand@M@glm@@YA?AU?$tvec3@M$0A@@0@M@Z
pdata	ENDS
;	COMDAT pdata
pdata	SEGMENT
$pdata$??$ballRand@N@glm@@YA?AU?$tvec3@N$0A@@0@N@Z DD imagerel $LN6
	DD	imagerel $LN6+267
	DD	imagerel $unwind$??$ballRand@N@glm@@YA?AU?$tvec3@N$0A@@0@N@Z
pdata	ENDS
pdata	SEGMENT
$pdata$main DD	imagerel $LN3
	DD	imagerel $LN3+109
	DD	imagerel $unwind$main
pdata	ENDS
;	COMDAT pdata
pdata	SEGMENT
$pdata$?call@?$compute_abs@M$00@detail@glm@@SAMM@Z DD imagerel $LN5
	DD	imagerel $LN5+71
	DD	imagerel $unwind$?call@?$compute_abs@M$00@detail@glm@@SAMM@Z
pdata	ENDS
;	COMDAT pdata
pdata	SEGMENT
$pdata$?call@?$compute_abs@N$00@detail@glm@@SANN@Z DD imagerel $LN5
	DD	imagerel $LN5+72
	DD	imagerel $unwind$?call@?$compute_abs@N$00@detail@glm@@SANN@Z
pdata	ENDS
;	COMDAT pdata
pdata	SEGMENT
$pdata$?call@?$compute_linearRand@E$0A@Utvec2@glm@@@detail@glm@@SA?AU?$tvec2@E$0A@@3@AEBU43@0@Z DD imagerel $LN3
	DD	imagerel $LN3+121
	DD	imagerel $unwind$?call@?$compute_linearRand@E$0A@Utvec2@glm@@@detail@glm@@SA?AU?$tvec2@E$0A@@3@AEBU43@0@Z
pdata	ENDS
;	COMDAT pdata
pdata	SEGMENT
$pdata$?call@?$compute_min_vector@E$0A@Utvec2@glm@@$0A@@detail@glm@@SA?AU?$tvec2@E$0A@@3@AEBU43@0@Z DD imagerel $LN3
	DD	imagerel $LN3+58
	DD	imagerel $unwind$?call@?$compute_min_vector@E$0A@Utvec2@glm@@$0A@@detail@glm@@SA?AU?$tvec2@E$0A@@3@AEBU43@0@Z
pdata	ENDS
;	COMDAT pdata
pdata	SEGMENT
$pdata$?call@?$compute_max_vector@E$0A@Utvec2@glm@@$0A@@detail@glm@@SA?AU?$tvec2@E$0A@@3@AEBU43@0@Z DD imagerel $LN3
	DD	imagerel $LN3+58
	DD	imagerel $unwind$?call@?$compute_max_vector@E$0A@Utvec2@glm@@$0A@@detail@glm@@SA?AU?$tvec2@E$0A@@3@AEBU43@0@Z
pdata	ENDS
;	COMDAT pdata
pdata	SEGMENT
$pdata$?call@?$compute_linearRand@G$0A@Utvec2@glm@@@detail@glm@@SA?AU?$tvec2@G$0A@@3@AEBU43@0@Z DD imagerel $LN3
	DD	imagerel $LN3+123
	DD	imagerel $unwind$?call@?$compute_linearRand@G$0A@Utvec2@glm@@@detail@glm@@SA?AU?$tvec2@G$0A@@3@AEBU43@0@Z
pdata	ENDS
;	COMDAT pdata
pdata	SEGMENT
$pdata$?call@?$compute_min_vector@G$0A@Utvec2@glm@@$0A@@detail@glm@@SA?AU?$tvec2@G$0A@@3@AEBU43@0@Z DD imagerel $LN3
	DD	imagerel $LN3+58
	DD	imagerel $unwind$?call@?$compute_min_vector@G$0A@Utvec2@glm@@$0A@@detail@glm@@SA?AU?$tvec2@G$0A@@3@AEBU43@0@Z
pdata	ENDS
;	COMDAT pdata
pdata	SEGMENT
$pdata$?call@?$compute_max_vector@G$0A@Utvec2@glm@@$0A@@detail@glm@@SA?AU?$tvec2@G$0A@@3@AEBU43@0@Z DD imagerel $LN3
	DD	imagerel $LN3+58
	DD	imagerel $unwind$?call@?$compute_max_vector@G$0A@Utvec2@glm@@$0A@@detail@glm@@SA?AU?$tvec2@G$0A@@3@AEBU43@0@Z
pdata	ENDS
;	COMDAT pdata
pdata	SEGMENT
$pdata$?call@?$compute_linearRand@I$0A@Utvec2@glm@@@detail@glm@@SA?AU?$tvec2@I$0A@@3@AEBU43@0@Z DD imagerel $LN3
	DD	imagerel $LN3+124
	DD	imagerel $unwind$?call@?$compute_linearRand@I$0A@Utvec2@glm@@@detail@glm@@SA?AU?$tvec2@I$0A@@3@AEBU43@0@Z
pdata	ENDS
;	COMDAT pdata
pdata	SEGMENT
$pdata$?call@?$compute_min_vector@I$0A@Utvec2@glm@@$0A@@detail@glm@@SA?AU?$tvec2@I$0A@@3@AEBU43@0@Z DD imagerel $LN3
	DD	imagerel $LN3+58
	DD	imagerel $unwind$?call@?$compute_min_vector@I$0A@Utvec2@glm@@$0A@@detail@glm@@SA?AU?$tvec2@I$0A@@3@AEBU43@0@Z
pdata	ENDS
;	COMDAT pdata
pdata	SEGMENT
$pdata$?call@?$compute_max_vector@I$0A@Utvec2@glm@@$0A@@detail@glm@@SA?AU?$tvec2@I$0A@@3@AEBU43@0@Z DD imagerel $LN3
	DD	imagerel $LN3+58
	DD	imagerel $unwind$?call@?$compute_max_vector@I$0A@Utvec2@glm@@$0A@@detail@glm@@SA?AU?$tvec2@I$0A@@3@AEBU43@0@Z
pdata	ENDS
;	COMDAT pdata
pdata	SEGMENT
$pdata$?call@?$compute_linearRand@_K$0A@Utvec2@glm@@@detail@glm@@SA?AU?$tvec2@_K$0A@@3@AEBU43@0@Z DD imagerel $LN3
	DD	imagerel $LN3+139
	DD	imagerel $unwind$?call@?$compute_linearRand@_K$0A@Utvec2@glm@@@detail@glm@@SA?AU?$tvec2@_K$0A@@3@AEBU43@0@Z
pdata	ENDS
;	COMDAT pdata
pdata	SEGMENT
$pdata$?call@?$compute_min_vector@_K$0A@Utvec2@glm@@$0A@@detail@glm@@SA?AU?$tvec2@_K$0A@@3@AEBU43@0@Z DD imagerel $LN3
	DD	imagerel $LN3+58
	DD	imagerel $unwind$?call@?$compute_min_vector@_K$0A@Utvec2@glm@@$0A@@detail@glm@@SA?AU?$tvec2@_K$0A@@3@AEBU43@0@Z
pdata	ENDS
;	COMDAT pdata
pdata	SEGMENT
$pdata$?call@?$compute_max_vector@_K$0A@Utvec2@glm@@$0A@@detail@glm@@SA?AU?$tvec2@_K$0A@@3@AEBU43@0@Z DD imagerel $LN3
	DD	imagerel $LN3+58
	DD	imagerel $unwind$?call@?$compute_max_vector@_K$0A@Utvec2@glm@@$0A@@detail@glm@@SA?AU?$tvec2@_K$0A@@3@AEBU43@0@Z
pdata	ENDS
;	COMDAT pdata
pdata	SEGMENT
$pdata$?call@?$compute_linearRand@C$0A@Utvec2@glm@@@detail@glm@@SA?AU?$tvec2@C$0A@@3@AEBU43@0@Z DD imagerel $LN3
	DD	imagerel $LN3+147
	DD	imagerel $unwind$?call@?$compute_linearRand@C$0A@Utvec2@glm@@@detail@glm@@SA?AU?$tvec2@C$0A@@3@AEBU43@0@Z
pdata	ENDS
;	COMDAT pdata
pdata	SEGMENT
$pdata$?call@?$compute_min_vector@C$0A@Utvec2@glm@@$0A@@detail@glm@@SA?AU?$tvec2@C$0A@@3@AEBU43@0@Z DD imagerel $LN3
	DD	imagerel $LN3+58
	DD	imagerel $unwind$?call@?$compute_min_vector@C$0A@Utvec2@glm@@$0A@@detail@glm@@SA?AU?$tvec2@C$0A@@3@AEBU43@0@Z
pdata	ENDS
;	COMDAT pdata
pdata	SEGMENT
$pdata$?call@?$compute_max_vector@C$0A@Utvec2@glm@@$0A@@detail@glm@@SA?AU?$tvec2@C$0A@@3@AEBU43@0@Z DD imagerel $LN3
	DD	imagerel $LN3+58
	DD	imagerel $unwind$?call@?$compute_max_vector@C$0A@Utvec2@glm@@$0A@@detail@glm@@SA?AU?$tvec2@C$0A@@3@AEBU43@0@Z
pdata	ENDS
;	COMDAT pdata
pdata	SEGMENT
$pdata$?call@?$compute_linearRand@F$0A@Utvec2@glm@@@detail@glm@@SA?AU?$tvec2@F$0A@@3@AEBU43@0@Z DD imagerel $LN3
	DD	imagerel $LN3+149
	DD	imagerel $unwind$?call@?$compute_linearRand@F$0A@Utvec2@glm@@@detail@glm@@SA?AU?$tvec2@F$0A@@3@AEBU43@0@Z
pdata	ENDS
;	COMDAT pdata
pdata	SEGMENT
$pdata$?call@?$compute_min_vector@F$0A@Utvec2@glm@@$0A@@detail@glm@@SA?AU?$tvec2@F$0A@@3@AEBU43@0@Z DD imagerel $LN3
	DD	imagerel $LN3+58
	DD	imagerel $unwind$?call@?$compute_min_vector@F$0A@Utvec2@glm@@$0A@@detail@glm@@SA?AU?$tvec2@F$0A@@3@AEBU43@0@Z
pdata	ENDS
;	COMDAT pdata
pdata	SEGMENT
$pdata$?call@?$compute_max_vector@F$0A@Utvec2@glm@@$0A@@detail@glm@@SA?AU?$tvec2@F$0A@@3@AEBU43@0@Z DD imagerel $LN3
	DD	imagerel $LN3+58
	DD	imagerel $unwind$?call@?$compute_max_vector@F$0A@Utvec2@glm@@$0A@@detail@glm@@SA?AU?$tvec2@F$0A@@3@AEBU43@0@Z
pdata	ENDS
;	COMDAT pdata
pdata	SEGMENT
$pdata$?call@?$compute_linearRand@H$0A@Utvec2@glm@@@detail@glm@@SA?AU?$tvec2@H$0A@@3@AEBU43@0@Z DD imagerel $LN3
	DD	imagerel $LN3+153
	DD	imagerel $unwind$?call@?$compute_linearRand@H$0A@Utvec2@glm@@@detail@glm@@SA?AU?$tvec2@H$0A@@3@AEBU43@0@Z
pdata	ENDS
;	COMDAT pdata
pdata	SEGMENT
$pdata$?call@?$compute_min_vector@H$0A@Utvec2@glm@@$0A@@detail@glm@@SA?AU?$tvec2@H$0A@@3@AEBU43@0@Z DD imagerel $LN3
	DD	imagerel $LN3+58
	DD	imagerel $unwind$?call@?$compute_min_vector@H$0A@Utvec2@glm@@$0A@@detail@glm@@SA?AU?$tvec2@H$0A@@3@AEBU43@0@Z
pdata	ENDS
;	COMDAT pdata
pdata	SEGMENT
$pdata$?call@?$compute_max_vector@H$0A@Utvec2@glm@@$0A@@detail@glm@@SA?AU?$tvec2@H$0A@@3@AEBU43@0@Z DD imagerel $LN3
	DD	imagerel $LN3+58
	DD	imagerel $unwind$?call@?$compute_max_vector@H$0A@Utvec2@glm@@$0A@@detail@glm@@SA?AU?$tvec2@H$0A@@3@AEBU43@0@Z
pdata	ENDS
;	COMDAT pdata
pdata	SEGMENT
$pdata$?call@?$compute_linearRand@_J$0A@Utvec2@glm@@@detail@glm@@SA?AU?$tvec2@_J$0A@@3@AEBU43@0@Z DD imagerel $LN3
	DD	imagerel $LN3+177
	DD	imagerel $unwind$?call@?$compute_linearRand@_J$0A@Utvec2@glm@@@detail@glm@@SA?AU?$tvec2@_J$0A@@3@AEBU43@0@Z
pdata	ENDS
;	COMDAT pdata
pdata	SEGMENT
$pdata$?call@?$compute_min_vector@_J$0A@Utvec2@glm@@$0A@@detail@glm@@SA?AU?$tvec2@_J$0A@@3@AEBU43@0@Z DD imagerel $LN3
	DD	imagerel $LN3+58
	DD	imagerel $unwind$?call@?$compute_min_vector@_J$0A@Utvec2@glm@@$0A@@detail@glm@@SA?AU?$tvec2@_J$0A@@3@AEBU43@0@Z
pdata	ENDS
;	COMDAT pdata
pdata	SEGMENT
$pdata$?call@?$compute_max_vector@_J$0A@Utvec2@glm@@$0A@@detail@glm@@SA?AU?$tvec2@_J$0A@@3@AEBU43@0@Z DD imagerel $LN3
	DD	imagerel $LN3+58
	DD	imagerel $unwind$?call@?$compute_max_vector@_J$0A@Utvec2@glm@@$0A@@detail@glm@@SA?AU?$tvec2@_J$0A@@3@AEBU43@0@Z
pdata	ENDS
;	COMDAT pdata
pdata	SEGMENT
$pdata$?call@?$compute_linearRand@M$0A@Utvec2@glm@@@detail@glm@@SA?AU?$tvec2@M$0A@@3@AEBU43@0@Z DD imagerel $LN3
	DD	imagerel $LN3+161
	DD	imagerel $unwind$?call@?$compute_linearRand@M$0A@Utvec2@glm@@@detail@glm@@SA?AU?$tvec2@M$0A@@3@AEBU43@0@Z
pdata	ENDS
;	COMDAT pdata
pdata	SEGMENT
$pdata$?call@?$compute_linearRand@N$0A@Utvec2@glm@@@detail@glm@@SA?AU?$tvec2@N$0A@@3@AEBU43@0@Z DD imagerel $LN5
	DD	imagerel $LN5+215
	DD	imagerel $unwind$?call@?$compute_linearRand@N$0A@Utvec2@glm@@@detail@glm@@SA?AU?$tvec2@N$0A@@3@AEBU43@0@Z
pdata	ENDS
;	COMDAT pdata
pdata	SEGMENT
$pdata$?call@?$compute_linearRand@M$0A@Utvec1@glm@@@detail@glm@@SA?AU?$tvec1@M$0A@@3@AEBU43@0@Z DD imagerel $LN3
	DD	imagerel $LN3+158
	DD	imagerel $unwind$?call@?$compute_linearRand@M$0A@Utvec1@glm@@@detail@glm@@SA?AU?$tvec1@M$0A@@3@AEBU43@0@Z
pdata	ENDS
;	COMDAT pdata
pdata	SEGMENT
$pdata$??0?$tvec1@M$0A@@glm@@QEAA@M@Z DD imagerel $LN3
	DD	imagerel $LN3+34
	DD	imagerel $unwind$??0?$tvec1@M$0A@@glm@@QEAA@M@Z
pdata	ENDS
;	COMDAT pdata
pdata	SEGMENT
$pdata$?call@?$compute_linearRand@N$0A@Utvec1@glm@@@detail@glm@@SA?AU?$tvec1@N$0A@@3@AEBU43@0@Z DD imagerel $LN5
	DD	imagerel $LN5+197
	DD	imagerel $unwind$?call@?$compute_linearRand@N$0A@Utvec1@glm@@@detail@glm@@SA?AU?$tvec1@N$0A@@3@AEBU43@0@Z
pdata	ENDS
;	COMDAT pdata
pdata	SEGMENT
$pdata$??0?$tvec1@N$0A@@glm@@QEAA@N@Z DD imagerel $LN3
	DD	imagerel $LN3+34
	DD	imagerel $unwind$??0?$tvec1@N$0A@@glm@@QEAA@N@Z
pdata	ENDS
;	COMDAT pdata
pdata	SEGMENT
$pdata$??$?DM$0A@@glm@@YA?AU?$tvec2@M$0A@@0@AEBU10@M@Z DD imagerel $LN3
	DD	imagerel $LN3+76
	DD	imagerel $unwind$??$?DM$0A@@glm@@YA?AU?$tvec2@M$0A@@0@AEBU10@M@Z
pdata	ENDS
;	COMDAT pdata
pdata	SEGMENT
$pdata$?call@?$compute_length@Utvec2@glm@@M$0A@$0A@@detail@glm@@SAMAEBU?$tvec2@M$0A@@3@@Z DD imagerel $LN3
	DD	imagerel $LN3+36
	DD	imagerel $unwind$?call@?$compute_length@Utvec2@glm@@M$0A@$0A@@detail@glm@@SAMAEBU?$tvec2@M$0A@@3@@Z
pdata	ENDS
;	COMDAT pdata
pdata	SEGMENT
$pdata$??$?DN$0A@@glm@@YA?AU?$tvec2@N$0A@@0@AEBU10@N@Z DD imagerel $LN3
	DD	imagerel $LN3+76
	DD	imagerel $unwind$??$?DN$0A@@glm@@YA?AU?$tvec2@N$0A@@0@AEBU10@N@Z
pdata	ENDS
;	COMDAT pdata
pdata	SEGMENT
$pdata$?call@?$compute_length@Utvec2@glm@@N$0A@$0A@@detail@glm@@SANAEBU?$tvec2@N$0A@@3@@Z DD imagerel $LN3
	DD	imagerel $LN3+36
	DD	imagerel $unwind$?call@?$compute_length@Utvec2@glm@@N$0A@$0A@@detail@glm@@SANAEBU?$tvec2@N$0A@@3@@Z
pdata	ENDS
;	COMDAT pdata
pdata	SEGMENT
$pdata$??$?DM$0A@@glm@@YA?AU?$tvec3@M$0A@@0@AEBU10@M@Z DD imagerel $LN3
	DD	imagerel $LN3+110
	DD	imagerel $unwind$??$?DM$0A@@glm@@YA?AU?$tvec3@M$0A@@0@AEBU10@M@Z
pdata	ENDS
;	COMDAT pdata
pdata	SEGMENT
$pdata$?call@?$compute_length@Utvec3@glm@@M$0A@$0A@@detail@glm@@SAMAEBU?$tvec3@M$0A@@3@@Z DD imagerel $LN3
	DD	imagerel $LN3+36
	DD	imagerel $unwind$?call@?$compute_length@Utvec3@glm@@M$0A@$0A@@detail@glm@@SAMAEBU?$tvec3@M$0A@@3@@Z
pdata	ENDS
;	COMDAT pdata
pdata	SEGMENT
$pdata$??$?DN$0A@@glm@@YA?AU?$tvec3@N$0A@@0@AEBU10@N@Z DD imagerel $LN3
	DD	imagerel $LN3+110
	DD	imagerel $unwind$??$?DN$0A@@glm@@YA?AU?$tvec3@N$0A@@0@AEBU10@N@Z
pdata	ENDS
;	COMDAT pdata
pdata	SEGMENT
$pdata$?call@?$compute_length@Utvec3@glm@@N$0A@$0A@@detail@glm@@SANAEBU?$tvec3@N$0A@@3@@Z DD imagerel $LN3
	DD	imagerel $LN3+36
	DD	imagerel $unwind$?call@?$compute_length@Utvec3@glm@@N$0A@$0A@@detail@glm@@SANAEBU?$tvec3@N$0A@@3@@Z
pdata	ENDS
;	COMDAT pdata
pdata	SEGMENT
$pdata$??$linearRand@M$0A@Utvec3@glm@@@glm@@YA?AU?$tvec3@M$0A@@0@AEBU10@0@Z DD imagerel $LN3
	DD	imagerel $LN3+51
	DD	imagerel $unwind$??$linearRand@M$0A@Utvec3@glm@@@glm@@YA?AU?$tvec3@M$0A@@0@AEBU10@0@Z
pdata	ENDS
;	COMDAT pdata
pdata	SEGMENT
$pdata$??$linearRand@N$0A@Utvec3@glm@@@glm@@YA?AU?$tvec3@N$0A@@0@AEBU10@0@Z DD imagerel $LN3
	DD	imagerel $LN3+51
	DD	imagerel $unwind$??$linearRand@N$0A@Utvec3@glm@@@glm@@YA?AU?$tvec3@N$0A@@0@AEBU10@0@Z
pdata	ENDS
;	COMDAT pdata
pdata	SEGMENT
$pdata$??$dot@N$0A@Utvec3@glm@@@glm@@YANAEBU?$tvec3@N$0A@@0@0@Z DD imagerel $LN3
	DD	imagerel $LN3+36
	DD	imagerel $unwind$??$dot@N$0A@Utvec3@glm@@@glm@@YANAEBU?$tvec3@N$0A@@0@0@Z
pdata	ENDS
;	COMDAT pdata
pdata	SEGMENT
$pdata$??$dot@M$0A@Utvec3@glm@@@glm@@YAMAEBU?$tvec3@M$0A@@0@0@Z DD imagerel $LN3
	DD	imagerel $LN3+36
	DD	imagerel $unwind$??$dot@M$0A@Utvec3@glm@@@glm@@YAMAEBU?$tvec3@M$0A@@0@0@Z
pdata	ENDS
;	COMDAT pdata
pdata	SEGMENT
$pdata$??$dot@N$0A@Utvec2@glm@@@glm@@YANAEBU?$tvec2@N$0A@@0@0@Z DD imagerel $LN3
	DD	imagerel $LN3+36
	DD	imagerel $unwind$??$dot@N$0A@Utvec2@glm@@@glm@@YANAEBU?$tvec2@N$0A@@0@0@Z
pdata	ENDS
;	COMDAT pdata
pdata	SEGMENT
$pdata$??$dot@M$0A@Utvec2@glm@@@glm@@YAMAEBU?$tvec2@M$0A@@0@0@Z DD imagerel $LN3
	DD	imagerel $LN3+36
	DD	imagerel $unwind$??$dot@M$0A@Utvec2@glm@@@glm@@YAMAEBU?$tvec2@M$0A@@0@0@Z
pdata	ENDS
;	COMDAT pdata
pdata	SEGMENT
$pdata$?call@?$compute_rand@_K$0A@Utvec1@glm@@@detail@glm@@SA?AU?$tvec1@_K$0A@@3@XZ DD imagerel $LN3
	DD	imagerel $LN3+128
	DD	imagerel $unwind$?call@?$compute_rand@_K$0A@Utvec1@glm@@@detail@glm@@SA?AU?$tvec1@_K$0A@@3@XZ
pdata	ENDS
;	COMDAT pdata
pdata	SEGMENT
$pdata$??0?$tvec1@_K$0A@@glm@@QEAA@_K@Z DD imagerel $LN3
	DD	imagerel $LN3+31
	DD	imagerel $unwind$??0?$tvec1@_K$0A@@glm@@QEAA@_K@Z
pdata	ENDS
;	COMDAT pdata
pdata	SEGMENT
$pdata$??$?0_K$0A@@?$tvec1@N$0A@@glm@@QEAA@AEBU?$tvec1@_K$0A@@1@@Z DD imagerel $LN5
	DD	imagerel $LN5+72
	DD	imagerel $unwind$??$?0_K$0A@@?$tvec1@N$0A@@glm@@QEAA@AEBU?$tvec1@_K$0A@@1@@Z
pdata	ENDS
;	COMDAT pdata
pdata	SEGMENT
$pdata$??$?KN$0A@@glm@@YA?AU?$tvec1@N$0A@@0@AEBU10@N@Z DD imagerel $LN3
	DD	imagerel $LN3+60
	DD	imagerel $unwind$??$?KN$0A@@glm@@YA?AU?$tvec1@N$0A@@0@AEBU10@N@Z
pdata	ENDS
;	COMDAT pdata
pdata	SEGMENT
$pdata$??$?GN$0A@@glm@@YA?AU?$tvec1@N$0A@@0@AEBU10@0@Z DD imagerel $LN3
	DD	imagerel $LN3+62
	DD	imagerel $unwind$??$?GN$0A@@glm@@YA?AU?$tvec1@N$0A@@0@AEBU10@0@Z
pdata	ENDS
;	COMDAT pdata
pdata	SEGMENT
$pdata$??$?DN$0A@@glm@@YA?AU?$tvec1@N$0A@@0@AEBU10@0@Z DD imagerel $LN3
	DD	imagerel $LN3+62
	DD	imagerel $unwind$??$?DN$0A@@glm@@YA?AU?$tvec1@N$0A@@0@AEBU10@0@Z
pdata	ENDS
;	COMDAT pdata
pdata	SEGMENT
$pdata$??$?HN$0A@@glm@@YA?AU?$tvec1@N$0A@@0@AEBU10@0@Z DD imagerel $LN3
	DD	imagerel $LN3+62
	DD	imagerel $unwind$??$?HN$0A@@glm@@YA?AU?$tvec1@N$0A@@0@AEBU10@0@Z
pdata	ENDS
;	COMDAT pdata
pdata	SEGMENT
$pdata$?call@?$compute_rand@I$0A@Utvec1@glm@@@detail@glm@@SA?AU?$tvec1@I$0A@@3@XZ DD imagerel $LN3
	DD	imagerel $LN3+128
	DD	imagerel $unwind$?call@?$compute_rand@I$0A@Utvec1@glm@@@detail@glm@@SA?AU?$tvec1@I$0A@@3@XZ
pdata	ENDS
;	COMDAT pdata
pdata	SEGMENT
$pdata$??0?$tvec1@I$0A@@glm@@QEAA@I@Z DD imagerel $LN3
	DD	imagerel $LN3+28
	DD	imagerel $unwind$??0?$tvec1@I$0A@@glm@@QEAA@I@Z
pdata	ENDS
;	COMDAT pdata
pdata	SEGMENT
$pdata$??$?0I$0A@@?$tvec1@M$0A@@glm@@QEAA@AEBU?$tvec1@I$0A@@1@@Z DD imagerel $LN3
	DD	imagerel $LN3+39
	DD	imagerel $unwind$??$?0I$0A@@?$tvec1@M$0A@@glm@@QEAA@AEBU?$tvec1@I$0A@@1@@Z
pdata	ENDS
;	COMDAT pdata
pdata	SEGMENT
$pdata$??$?KM$0A@@glm@@YA?AU?$tvec1@M$0A@@0@AEBU10@M@Z DD imagerel $LN3
	DD	imagerel $LN3+60
	DD	imagerel $unwind$??$?KM$0A@@glm@@YA?AU?$tvec1@M$0A@@0@AEBU10@M@Z
pdata	ENDS
;	COMDAT pdata
pdata	SEGMENT
$pdata$??$?GM$0A@@glm@@YA?AU?$tvec1@M$0A@@0@AEBU10@0@Z DD imagerel $LN3
	DD	imagerel $LN3+62
	DD	imagerel $unwind$??$?GM$0A@@glm@@YA?AU?$tvec1@M$0A@@0@AEBU10@0@Z
pdata	ENDS
;	COMDAT pdata
pdata	SEGMENT
$pdata$??$?DM$0A@@glm@@YA?AU?$tvec1@M$0A@@0@AEBU10@0@Z DD imagerel $LN3
	DD	imagerel $LN3+62
	DD	imagerel $unwind$??$?DM$0A@@glm@@YA?AU?$tvec1@M$0A@@0@AEBU10@0@Z
pdata	ENDS
;	COMDAT pdata
pdata	SEGMENT
$pdata$??$?HM$0A@@glm@@YA?AU?$tvec1@M$0A@@0@AEBU10@0@Z DD imagerel $LN3
	DD	imagerel $LN3+62
	DD	imagerel $unwind$??$?HM$0A@@glm@@YA?AU?$tvec1@M$0A@@0@AEBU10@0@Z
pdata	ENDS
;	COMDAT pdata
pdata	SEGMENT
$pdata$?call@?$compute_rand@_K$0A@Utvec2@glm@@@detail@glm@@SA?AU?$tvec2@_K$0A@@3@XZ DD imagerel $LN3
	DD	imagerel $LN3+140
	DD	imagerel $unwind$?call@?$compute_rand@_K$0A@Utvec2@glm@@@detail@glm@@SA?AU?$tvec2@_K$0A@@3@XZ
pdata	ENDS
;	COMDAT pdata
pdata	SEGMENT
$pdata$??$?0_K$0A@@?$tvec2@N$0A@@glm@@QEAA@AEBU?$tvec2@_K$0A@@1@@Z DD imagerel $LN7
	DD	imagerel $LN7+128
	DD	imagerel $unwind$??$?0_K$0A@@?$tvec2@N$0A@@glm@@QEAA@AEBU?$tvec2@_K$0A@@1@@Z
pdata	ENDS
;	COMDAT pdata
pdata	SEGMENT
$pdata$??$?KN$0A@@glm@@YA?AU?$tvec2@N$0A@@0@AEBU10@N@Z DD imagerel $LN3
	DD	imagerel $LN3+76
	DD	imagerel $unwind$??$?KN$0A@@glm@@YA?AU?$tvec2@N$0A@@0@AEBU10@N@Z
pdata	ENDS
;	COMDAT pdata
pdata	SEGMENT
$pdata$??$?GN$0A@@glm@@YA?AU?$tvec2@N$0A@@0@AEBU10@0@Z DD imagerel $LN3
	DD	imagerel $LN3+82
	DD	imagerel $unwind$??$?GN$0A@@glm@@YA?AU?$tvec2@N$0A@@0@AEBU10@0@Z
pdata	ENDS
;	COMDAT pdata
pdata	SEGMENT
$pdata$??$?DN$0A@@glm@@YA?AU?$tvec2@N$0A@@0@AEBU10@0@Z DD imagerel $LN3
	DD	imagerel $LN3+82
	DD	imagerel $unwind$??$?DN$0A@@glm@@YA?AU?$tvec2@N$0A@@0@AEBU10@0@Z
pdata	ENDS
;	COMDAT pdata
pdata	SEGMENT
$pdata$??$?HN$0A@@glm@@YA?AU?$tvec2@N$0A@@0@AEBU10@0@Z DD imagerel $LN3
	DD	imagerel $LN3+82
	DD	imagerel $unwind$??$?HN$0A@@glm@@YA?AU?$tvec2@N$0A@@0@AEBU10@0@Z
pdata	ENDS
;	COMDAT pdata
pdata	SEGMENT
$pdata$?call@?$compute_rand@I$0A@Utvec2@glm@@@detail@glm@@SA?AU?$tvec2@I$0A@@3@XZ DD imagerel $LN3
	DD	imagerel $LN3+128
	DD	imagerel $unwind$?call@?$compute_rand@I$0A@Utvec2@glm@@@detail@glm@@SA?AU?$tvec2@I$0A@@3@XZ
pdata	ENDS
;	COMDAT pdata
pdata	SEGMENT
$pdata$??$?0I$0A@@?$tvec2@M$0A@@glm@@QEAA@AEBU?$tvec2@I$0A@@1@@Z DD imagerel $LN3
	DD	imagerel $LN3+62
	DD	imagerel $unwind$??$?0I$0A@@?$tvec2@M$0A@@glm@@QEAA@AEBU?$tvec2@I$0A@@1@@Z
pdata	ENDS
;	COMDAT pdata
pdata	SEGMENT
$pdata$??$?KM$0A@@glm@@YA?AU?$tvec2@M$0A@@0@AEBU10@M@Z DD imagerel $LN3
	DD	imagerel $LN3+76
	DD	imagerel $unwind$??$?KM$0A@@glm@@YA?AU?$tvec2@M$0A@@0@AEBU10@M@Z
pdata	ENDS
;	COMDAT pdata
pdata	SEGMENT
$pdata$??$?GM$0A@@glm@@YA?AU?$tvec2@M$0A@@0@AEBU10@0@Z DD imagerel $LN3
	DD	imagerel $LN3+82
	DD	imagerel $unwind$??$?GM$0A@@glm@@YA?AU?$tvec2@M$0A@@0@AEBU10@0@Z
pdata	ENDS
;	COMDAT pdata
pdata	SEGMENT
$pdata$??$?DM$0A@@glm@@YA?AU?$tvec2@M$0A@@0@AEBU10@0@Z DD imagerel $LN3
	DD	imagerel $LN3+82
	DD	imagerel $unwind$??$?DM$0A@@glm@@YA?AU?$tvec2@M$0A@@0@AEBU10@0@Z
pdata	ENDS
;	COMDAT pdata
pdata	SEGMENT
$pdata$??$?HM$0A@@glm@@YA?AU?$tvec2@M$0A@@0@AEBU10@0@Z DD imagerel $LN3
	DD	imagerel $LN3+82
	DD	imagerel $unwind$??$?HM$0A@@glm@@YA?AU?$tvec2@M$0A@@0@AEBU10@0@Z
pdata	ENDS
;	COMDAT pdata
pdata	SEGMENT
$pdata$?call@?$functor2@_J$0A@Utvec2@glm@@@detail@glm@@SA?AU?$tvec2@_J$0A@@3@P6A_J_J0@ZAEBU43@2@Z DD imagerel $LN3
	DD	imagerel $LN3+104
	DD	imagerel $unwind$?call@?$functor2@_J$0A@Utvec2@glm@@@detail@glm@@SA?AU?$tvec2@_J$0A@@3@P6A_J_J0@ZAEBU43@2@Z
pdata	ENDS
;	COMDAT pdata
pdata	SEGMENT
$pdata$??$max@_J@glm@@YA_J_J0@Z DD imagerel $LN5
	DD	imagerel $LN5+57
	DD	imagerel $unwind$??$max@_J@glm@@YA_J_J0@Z
pdata	ENDS
;	COMDAT pdata
pdata	SEGMENT
$pdata$??$min@_J@glm@@YA_J_J0@Z DD imagerel $LN5
	DD	imagerel $LN5+57
	DD	imagerel $unwind$??$min@_J@glm@@YA_J_J0@Z
pdata	ENDS
;	COMDAT pdata
pdata	SEGMENT
$pdata$??$?H_J$0A@@glm@@YA?AU?$tvec2@_J$0A@@0@AEBU10@_J@Z DD imagerel $LN3
	DD	imagerel $LN3+74
	DD	imagerel $unwind$??$?H_J$0A@@glm@@YA?AU?$tvec2@_J$0A@@0@AEBU10@_J@Z
pdata	ENDS
;	COMDAT pdata
pdata	SEGMENT
$pdata$??$?G_J$0A@@glm@@YA?AU?$tvec2@_J$0A@@0@AEBU10@0@Z DD imagerel $LN3
	DD	imagerel $LN3+87
	DD	imagerel $unwind$??$?G_J$0A@@glm@@YA?AU?$tvec2@_J$0A@@0@AEBU10@0@Z
pdata	ENDS
;	COMDAT pdata
pdata	SEGMENT
$pdata$??$?0_J$0A@@?$tvec2@_K$0A@@glm@@QEAA@AEBU?$tvec2@_J$0A@@1@@Z DD imagerel $LN3
	DD	imagerel $LN3+52
	DD	imagerel $unwind$??$?0_J$0A@@?$tvec2@_K$0A@@glm@@QEAA@AEBU?$tvec2@_J$0A@@1@@Z
pdata	ENDS
;	COMDAT pdata
pdata	SEGMENT
$pdata$??$?L_K$0A@@glm@@YA?AU?$tvec2@_K$0A@@0@AEBU10@0@Z DD imagerel $LN3
	DD	imagerel $LN3+101
	DD	imagerel $unwind$??$?L_K$0A@@glm@@YA?AU?$tvec2@_K$0A@@0@AEBU10@0@Z
pdata	ENDS
;	COMDAT pdata
pdata	SEGMENT
$pdata$??$?0_K$0A@@?$tvec2@_J$0A@@glm@@QEAA@AEBU?$tvec2@_K$0A@@1@@Z DD imagerel $LN3
	DD	imagerel $LN3+52
	DD	imagerel $unwind$??$?0_K$0A@@?$tvec2@_J$0A@@glm@@QEAA@AEBU?$tvec2@_K$0A@@1@@Z
pdata	ENDS
;	COMDAT pdata
pdata	SEGMENT
$pdata$??$?H_J$0A@@glm@@YA?AU?$tvec2@_J$0A@@0@AEBU10@0@Z DD imagerel $LN3
	DD	imagerel $LN3+81
	DD	imagerel $unwind$??$?H_J$0A@@glm@@YA?AU?$tvec2@_J$0A@@0@AEBU10@0@Z
pdata	ENDS
;	COMDAT pdata
pdata	SEGMENT
$pdata$?call@?$functor2@H$0A@Utvec2@glm@@@detail@glm@@SA?AU?$tvec2@H$0A@@3@P6AHHH@ZAEBU43@1@Z DD imagerel $LN3
	DD	imagerel $LN3+97
	DD	imagerel $unwind$?call@?$functor2@H$0A@Utvec2@glm@@@detail@glm@@SA?AU?$tvec2@H$0A@@3@P6AHHH@ZAEBU43@1@Z
pdata	ENDS
;	COMDAT pdata
pdata	SEGMENT
$pdata$??$max@H@glm@@YAHHH@Z DD imagerel $LN5
	DD	imagerel $LN5+48
	DD	imagerel $unwind$??$max@H@glm@@YAHHH@Z
pdata	ENDS
;	COMDAT pdata
pdata	SEGMENT
$pdata$??$min@H@glm@@YAHHH@Z DD imagerel $LN5
	DD	imagerel $LN5+48
	DD	imagerel $unwind$??$min@H@glm@@YAHHH@Z
pdata	ENDS
;	COMDAT pdata
pdata	SEGMENT
$pdata$??$?HH$0A@@glm@@YA?AU?$tvec2@H$0A@@0@AEBU10@H@Z DD imagerel $LN3
	DD	imagerel $LN3+69
	DD	imagerel $unwind$??$?HH$0A@@glm@@YA?AU?$tvec2@H$0A@@0@AEBU10@H@Z
pdata	ENDS
;	COMDAT pdata
pdata	SEGMENT
$pdata$??$?GH$0A@@glm@@YA?AU?$tvec2@H$0A@@0@AEBU10@0@Z DD imagerel $LN3
	DD	imagerel $LN3+80
	DD	imagerel $unwind$??$?GH$0A@@glm@@YA?AU?$tvec2@H$0A@@0@AEBU10@0@Z
pdata	ENDS
;	COMDAT pdata
pdata	SEGMENT
$pdata$??$?0H$0A@@?$tvec2@I$0A@@glm@@QEAA@AEBU?$tvec2@H$0A@@1@@Z DD imagerel $LN3
	DD	imagerel $LN3+48
	DD	imagerel $unwind$??$?0H$0A@@?$tvec2@I$0A@@glm@@QEAA@AEBU?$tvec2@H$0A@@1@@Z
pdata	ENDS
;	COMDAT pdata
pdata	SEGMENT
$pdata$??$?LI$0A@@glm@@YA?AU?$tvec2@I$0A@@0@AEBU10@0@Z DD imagerel $LN3
	DD	imagerel $LN3+92
	DD	imagerel $unwind$??$?LI$0A@@glm@@YA?AU?$tvec2@I$0A@@0@AEBU10@0@Z
pdata	ENDS
;	COMDAT pdata
pdata	SEGMENT
$pdata$??$?0I$0A@@?$tvec2@H$0A@@glm@@QEAA@AEBU?$tvec2@I$0A@@1@@Z DD imagerel $LN3
	DD	imagerel $LN3+48
	DD	imagerel $unwind$??$?0I$0A@@?$tvec2@H$0A@@glm@@QEAA@AEBU?$tvec2@I$0A@@1@@Z
pdata	ENDS
;	COMDAT pdata
pdata	SEGMENT
$pdata$??$?HH$0A@@glm@@YA?AU?$tvec2@H$0A@@0@AEBU10@0@Z DD imagerel $LN3
	DD	imagerel $LN3+76
	DD	imagerel $unwind$??$?HH$0A@@glm@@YA?AU?$tvec2@H$0A@@0@AEBU10@0@Z
pdata	ENDS
;	COMDAT pdata
pdata	SEGMENT
$pdata$?call@?$functor2@F$0A@Utvec2@glm@@@detail@glm@@SA?AU?$tvec2@F$0A@@3@P6AFFF@ZAEBU43@1@Z DD imagerel $LN3
	DD	imagerel $LN3+105
	DD	imagerel $unwind$?call@?$functor2@F$0A@Utvec2@glm@@@detail@glm@@SA?AU?$tvec2@F$0A@@3@P6AFFF@ZAEBU43@1@Z
pdata	ENDS
;	COMDAT pdata
pdata	SEGMENT
$pdata$??$max@F@glm@@YAFFF@Z DD imagerel $LN5
	DD	imagerel $LN5+59
	DD	imagerel $unwind$??$max@F@glm@@YAFFF@Z
pdata	ENDS
;	COMDAT pdata
pdata	SEGMENT
$pdata$??$min@F@glm@@YAFFF@Z DD imagerel $LN5
	DD	imagerel $LN5+59
	DD	imagerel $unwind$??$min@F@glm@@YAFFF@Z
pdata	ENDS
;	COMDAT pdata
pdata	SEGMENT
$pdata$?call@?$compute_rand@G$0A@Utvec2@glm@@@detail@glm@@SA?AU?$tvec2@G$0A@@3@XZ DD imagerel $LN3
	DD	imagerel $LN3+127
	DD	imagerel $unwind$?call@?$compute_rand@G$0A@Utvec2@glm@@@detail@glm@@SA?AU?$tvec2@G$0A@@3@XZ
pdata	ENDS
;	COMDAT pdata
pdata	SEGMENT
$pdata$??$?HF$0A@@glm@@YA?AU?$tvec2@F$0A@@0@AEBU10@F@Z DD imagerel $LN3
	DD	imagerel $LN3+78
	DD	imagerel $unwind$??$?HF$0A@@glm@@YA?AU?$tvec2@F$0A@@0@AEBU10@F@Z
pdata	ENDS
;	COMDAT pdata
pdata	SEGMENT
$pdata$??$?GF$0A@@glm@@YA?AU?$tvec2@F$0A@@0@AEBU10@0@Z DD imagerel $LN3
	DD	imagerel $LN3+84
	DD	imagerel $unwind$??$?GF$0A@@glm@@YA?AU?$tvec2@F$0A@@0@AEBU10@0@Z
pdata	ENDS
;	COMDAT pdata
pdata	SEGMENT
$pdata$??$?0F$0A@@?$tvec2@G$0A@@glm@@QEAA@AEBU?$tvec2@F$0A@@1@@Z DD imagerel $LN3
	DD	imagerel $LN3+52
	DD	imagerel $unwind$??$?0F$0A@@?$tvec2@G$0A@@glm@@QEAA@AEBU?$tvec2@F$0A@@1@@Z
pdata	ENDS
;	COMDAT pdata
pdata	SEGMENT
$pdata$??$?LG$0A@@glm@@YA?AU?$tvec2@G$0A@@0@AEBU10@0@Z DD imagerel $LN3
	DD	imagerel $LN3+108
	DD	imagerel $unwind$??$?LG$0A@@glm@@YA?AU?$tvec2@G$0A@@0@AEBU10@0@Z
pdata	ENDS
;	COMDAT pdata
pdata	SEGMENT
$pdata$??$?0G$0A@@?$tvec2@F$0A@@glm@@QEAA@AEBU?$tvec2@G$0A@@1@@Z DD imagerel $LN3
	DD	imagerel $LN3+52
	DD	imagerel $unwind$??$?0G$0A@@?$tvec2@F$0A@@glm@@QEAA@AEBU?$tvec2@G$0A@@1@@Z
pdata	ENDS
;	COMDAT pdata
pdata	SEGMENT
$pdata$??$?HF$0A@@glm@@YA?AU?$tvec2@F$0A@@0@AEBU10@0@Z DD imagerel $LN3
	DD	imagerel $LN3+84
	DD	imagerel $unwind$??$?HF$0A@@glm@@YA?AU?$tvec2@F$0A@@0@AEBU10@0@Z
pdata	ENDS
;	COMDAT pdata
pdata	SEGMENT
$pdata$?call@?$functor2@C$0A@Utvec2@glm@@@detail@glm@@SA?AU?$tvec2@C$0A@@3@P6ACCC@ZAEBU43@1@Z DD imagerel $LN3
	DD	imagerel $LN3+104
	DD	imagerel $unwind$?call@?$functor2@C$0A@Utvec2@glm@@@detail@glm@@SA?AU?$tvec2@C$0A@@3@P6ACCC@ZAEBU43@1@Z
pdata	ENDS
;	COMDAT pdata
pdata	SEGMENT
$pdata$??$max@C@glm@@YACCC@Z DD imagerel $LN5
	DD	imagerel $LN5+55
	DD	imagerel $unwind$??$max@C@glm@@YACCC@Z
pdata	ENDS
;	COMDAT pdata
pdata	SEGMENT
$pdata$??$min@C@glm@@YACCC@Z DD imagerel $LN5
	DD	imagerel $LN5+55
	DD	imagerel $unwind$??$min@C@glm@@YACCC@Z
pdata	ENDS
;	COMDAT pdata
pdata	SEGMENT
$pdata$?call@?$compute_rand@E$0A@Utvec2@glm@@@detail@glm@@SA?AU?$tvec2@E$0A@@3@XZ DD imagerel $LN3
	DD	imagerel $LN3+118
	DD	imagerel $unwind$?call@?$compute_rand@E$0A@Utvec2@glm@@@detail@glm@@SA?AU?$tvec2@E$0A@@3@XZ
pdata	ENDS
;	COMDAT pdata
pdata	SEGMENT
$pdata$??$?HC$0A@@glm@@YA?AU?$tvec2@C$0A@@0@AEBU10@C@Z DD imagerel $LN3
	DD	imagerel $LN3+77
	DD	imagerel $unwind$??$?HC$0A@@glm@@YA?AU?$tvec2@C$0A@@0@AEBU10@C@Z
pdata	ENDS
;	COMDAT pdata
pdata	SEGMENT
$pdata$??$?GC$0A@@glm@@YA?AU?$tvec2@C$0A@@0@AEBU10@0@Z DD imagerel $LN3
	DD	imagerel $LN3+84
	DD	imagerel $unwind$??$?GC$0A@@glm@@YA?AU?$tvec2@C$0A@@0@AEBU10@0@Z
pdata	ENDS
;	COMDAT pdata
pdata	SEGMENT
$pdata$??$?0C$0A@@?$tvec2@E$0A@@glm@@QEAA@AEBU?$tvec2@C$0A@@1@@Z DD imagerel $LN3
	DD	imagerel $LN3+50
	DD	imagerel $unwind$??$?0C$0A@@?$tvec2@E$0A@@glm@@QEAA@AEBU?$tvec2@C$0A@@1@@Z
pdata	ENDS
;	COMDAT pdata
pdata	SEGMENT
$pdata$??$?LE$0A@@glm@@YA?AU?$tvec2@E$0A@@0@AEBU10@0@Z DD imagerel $LN3
	DD	imagerel $LN3+108
	DD	imagerel $unwind$??$?LE$0A@@glm@@YA?AU?$tvec2@E$0A@@0@AEBU10@0@Z
pdata	ENDS
;	COMDAT pdata
pdata	SEGMENT
$pdata$??$?0E$0A@@?$tvec2@C$0A@@glm@@QEAA@AEBU?$tvec2@E$0A@@1@@Z DD imagerel $LN3
	DD	imagerel $LN3+50
	DD	imagerel $unwind$??$?0E$0A@@?$tvec2@C$0A@@glm@@QEAA@AEBU?$tvec2@E$0A@@1@@Z
pdata	ENDS
;	COMDAT pdata
pdata	SEGMENT
$pdata$??$?HC$0A@@glm@@YA?AU?$tvec2@C$0A@@0@AEBU10@0@Z DD imagerel $LN3
	DD	imagerel $LN3+84
	DD	imagerel $unwind$??$?HC$0A@@glm@@YA?AU?$tvec2@C$0A@@0@AEBU10@0@Z
pdata	ENDS
;	COMDAT pdata
pdata	SEGMENT
$pdata$?call@?$functor2@_K$0A@Utvec2@glm@@@detail@glm@@SA?AU?$tvec2@_K$0A@@3@P6A_K_K0@ZAEBU43@2@Z DD imagerel $LN3
	DD	imagerel $LN3+104
	DD	imagerel $unwind$?call@?$functor2@_K$0A@Utvec2@glm@@@detail@glm@@SA?AU?$tvec2@_K$0A@@3@P6A_K_K0@ZAEBU43@2@Z
pdata	ENDS
;	COMDAT pdata
pdata	SEGMENT
$pdata$??$max@_K@glm@@YA_K_K0@Z DD imagerel $LN5
	DD	imagerel $LN5+57
	DD	imagerel $unwind$??$max@_K@glm@@YA_K_K0@Z
pdata	ENDS
;	COMDAT pdata
pdata	SEGMENT
$pdata$??$min@_K@glm@@YA_K_K0@Z DD imagerel $LN5
	DD	imagerel $LN5+57
	DD	imagerel $unwind$??$min@_K@glm@@YA_K_K0@Z
pdata	ENDS
;	COMDAT pdata
pdata	SEGMENT
$pdata$??$?H_K$0A@@glm@@YA?AU?$tvec2@_K$0A@@0@AEBU10@_K@Z DD imagerel $LN3
	DD	imagerel $LN3+74
	DD	imagerel $unwind$??$?H_K$0A@@glm@@YA?AU?$tvec2@_K$0A@@0@AEBU10@_K@Z
pdata	ENDS
;	COMDAT pdata
pdata	SEGMENT
$pdata$??$?G_K$0A@@glm@@YA?AU?$tvec2@_K$0A@@0@AEBU10@0@Z DD imagerel $LN3
	DD	imagerel $LN3+87
	DD	imagerel $unwind$??$?G_K$0A@@glm@@YA?AU?$tvec2@_K$0A@@0@AEBU10@0@Z
pdata	ENDS
;	COMDAT pdata
pdata	SEGMENT
$pdata$??$?H_K$0A@@glm@@YA?AU?$tvec2@_K$0A@@0@AEBU10@0@Z DD imagerel $LN3
	DD	imagerel $LN3+81
	DD	imagerel $unwind$??$?H_K$0A@@glm@@YA?AU?$tvec2@_K$0A@@0@AEBU10@0@Z
pdata	ENDS
;	COMDAT pdata
pdata	SEGMENT
$pdata$?call@?$functor2@I$0A@Utvec2@glm@@@detail@glm@@SA?AU?$tvec2@I$0A@@3@P6AIII@ZAEBU43@1@Z DD imagerel $LN3
	DD	imagerel $LN3+97
	DD	imagerel $unwind$?call@?$functor2@I$0A@Utvec2@glm@@@detail@glm@@SA?AU?$tvec2@I$0A@@3@P6AIII@ZAEBU43@1@Z
pdata	ENDS
;	COMDAT pdata
pdata	SEGMENT
$pdata$??$max@I@glm@@YAIII@Z DD imagerel $LN5
	DD	imagerel $LN5+48
	DD	imagerel $unwind$??$max@I@glm@@YAIII@Z
pdata	ENDS
;	COMDAT pdata
pdata	SEGMENT
$pdata$??$min@I@glm@@YAIII@Z DD imagerel $LN5
	DD	imagerel $LN5+48
	DD	imagerel $unwind$??$min@I@glm@@YAIII@Z
pdata	ENDS
;	COMDAT pdata
pdata	SEGMENT
$pdata$??$?HI$0A@@glm@@YA?AU?$tvec2@I$0A@@0@AEBU10@I@Z DD imagerel $LN3
	DD	imagerel $LN3+69
	DD	imagerel $unwind$??$?HI$0A@@glm@@YA?AU?$tvec2@I$0A@@0@AEBU10@I@Z
pdata	ENDS
;	COMDAT pdata
pdata	SEGMENT
$pdata$??$?GI$0A@@glm@@YA?AU?$tvec2@I$0A@@0@AEBU10@0@Z DD imagerel $LN3
	DD	imagerel $LN3+80
	DD	imagerel $unwind$??$?GI$0A@@glm@@YA?AU?$tvec2@I$0A@@0@AEBU10@0@Z
pdata	ENDS
;	COMDAT pdata
pdata	SEGMENT
$pdata$??$?HI$0A@@glm@@YA?AU?$tvec2@I$0A@@0@AEBU10@0@Z DD imagerel $LN3
	DD	imagerel $LN3+76
	DD	imagerel $unwind$??$?HI$0A@@glm@@YA?AU?$tvec2@I$0A@@0@AEBU10@0@Z
pdata	ENDS
;	COMDAT pdata
pdata	SEGMENT
$pdata$?call@?$functor2@G$0A@Utvec2@glm@@@detail@glm@@SA?AU?$tvec2@G$0A@@3@P6AGGG@ZAEBU43@1@Z DD imagerel $LN3
	DD	imagerel $LN3+105
	DD	imagerel $unwind$?call@?$functor2@G$0A@Utvec2@glm@@@detail@glm@@SA?AU?$tvec2@G$0A@@3@P6AGGG@ZAEBU43@1@Z
pdata	ENDS
;	COMDAT pdata
pdata	SEGMENT
$pdata$??$max@G@glm@@YAGGG@Z DD imagerel $LN5
	DD	imagerel $LN5+59
	DD	imagerel $unwind$??$max@G@glm@@YAGGG@Z
pdata	ENDS
;	COMDAT pdata
pdata	SEGMENT
$pdata$??$min@G@glm@@YAGGG@Z DD imagerel $LN5
	DD	imagerel $LN5+59
	DD	imagerel $unwind$??$min@G@glm@@YAGGG@Z
pdata	ENDS
;	COMDAT pdata
pdata	SEGMENT
$pdata$??$?HG$0A@@glm@@YA?AU?$tvec2@G$0A@@0@AEBU10@G@Z DD imagerel $LN3
	DD	imagerel $LN3+78
	DD	imagerel $unwind$??$?HG$0A@@glm@@YA?AU?$tvec2@G$0A@@0@AEBU10@G@Z
pdata	ENDS
;	COMDAT pdata
pdata	SEGMENT
$pdata$??$?GG$0A@@glm@@YA?AU?$tvec2@G$0A@@0@AEBU10@0@Z DD imagerel $LN3
	DD	imagerel $LN3+84
	DD	imagerel $unwind$??$?GG$0A@@glm@@YA?AU?$tvec2@G$0A@@0@AEBU10@0@Z
pdata	ENDS
;	COMDAT pdata
pdata	SEGMENT
$pdata$??$?HG$0A@@glm@@YA?AU?$tvec2@G$0A@@0@AEBU10@0@Z DD imagerel $LN3
	DD	imagerel $LN3+84
	DD	imagerel $unwind$??$?HG$0A@@glm@@YA?AU?$tvec2@G$0A@@0@AEBU10@0@Z
pdata	ENDS
;	COMDAT pdata
pdata	SEGMENT
$pdata$?call@?$functor2@E$0A@Utvec2@glm@@@detail@glm@@SA?AU?$tvec2@E$0A@@3@P6AEEE@ZAEBU43@1@Z DD imagerel $LN3
	DD	imagerel $LN3+104
	DD	imagerel $unwind$?call@?$functor2@E$0A@Utvec2@glm@@@detail@glm@@SA?AU?$tvec2@E$0A@@3@P6AEEE@ZAEBU43@1@Z
pdata	ENDS
;	COMDAT pdata
pdata	SEGMENT
$pdata$??$max@E@glm@@YAEEE@Z DD imagerel $LN5
	DD	imagerel $LN5+55
	DD	imagerel $unwind$??$max@E@glm@@YAEEE@Z
pdata	ENDS
;	COMDAT pdata
pdata	SEGMENT
$pdata$??$min@E@glm@@YAEEE@Z DD imagerel $LN5
	DD	imagerel $LN5+55
	DD	imagerel $unwind$??$min@E@glm@@YAEEE@Z
pdata	ENDS
;	COMDAT pdata
pdata	SEGMENT
$pdata$??$?HE$0A@@glm@@YA?AU?$tvec2@E$0A@@0@AEBU10@E@Z DD imagerel $LN3
	DD	imagerel $LN3+77
	DD	imagerel $unwind$??$?HE$0A@@glm@@YA?AU?$tvec2@E$0A@@0@AEBU10@E@Z
pdata	ENDS
;	COMDAT pdata
pdata	SEGMENT
$pdata$??$?GE$0A@@glm@@YA?AU?$tvec2@E$0A@@0@AEBU10@0@Z DD imagerel $LN3
	DD	imagerel $LN3+84
	DD	imagerel $unwind$??$?GE$0A@@glm@@YA?AU?$tvec2@E$0A@@0@AEBU10@0@Z
pdata	ENDS
;	COMDAT pdata
pdata	SEGMENT
$pdata$??$?HE$0A@@glm@@YA?AU?$tvec2@E$0A@@0@AEBU10@0@Z DD imagerel $LN3
	DD	imagerel $LN3+84
	DD	imagerel $unwind$??$?HE$0A@@glm@@YA?AU?$tvec2@E$0A@@0@AEBU10@0@Z
pdata	ENDS
;	COMDAT pdata
pdata	SEGMENT
$pdata$??$?0HH@?$tvec2@E$0A@@glm@@QEAA@HH@Z DD imagerel $LN3
	DD	imagerel $LN3+47
	DD	imagerel $unwind$??$?0HH@?$tvec2@E$0A@@glm@@QEAA@HH@Z
pdata	ENDS
;	COMDAT pdata
pdata	SEGMENT
$pdata$??$?0E$0A@@?$tvec2@G$0A@@glm@@QEAA@AEBU?$tvec2@E$0A@@1@@Z DD imagerel $LN3
	DD	imagerel $LN3+52
	DD	imagerel $unwind$??$?0E$0A@@?$tvec2@G$0A@@glm@@QEAA@AEBU?$tvec2@E$0A@@1@@Z
pdata	ENDS
;	COMDAT pdata
pdata	SEGMENT
$pdata$??$?6G$0A@@glm@@YA?AU?$tvec2@G$0A@@0@AEBU10@G@Z DD imagerel $LN3
	DD	imagerel $LN3+91
	DD	imagerel $unwind$??$?6G$0A@@glm@@YA?AU?$tvec2@G$0A@@0@AEBU10@G@Z
pdata	ENDS
;	COMDAT pdata
pdata	SEGMENT
$pdata$??$?UG$0A@@glm@@YA?AU?$tvec2@G$0A@@0@AEBU10@0@Z DD imagerel $LN3
	DD	imagerel $LN3+84
	DD	imagerel $unwind$??$?UG$0A@@glm@@YA?AU?$tvec2@G$0A@@0@AEBU10@0@Z
pdata	ENDS
;	COMDAT pdata
pdata	SEGMENT
$pdata$??$?0G$0A@@?$tvec2@I$0A@@glm@@QEAA@AEBU?$tvec2@G$0A@@1@@Z DD imagerel $LN3
	DD	imagerel $LN3+50
	DD	imagerel $unwind$??$?0G$0A@@?$tvec2@I$0A@@glm@@QEAA@AEBU?$tvec2@G$0A@@1@@Z
pdata	ENDS
;	COMDAT pdata
pdata	SEGMENT
$pdata$??$?6I$0A@@glm@@YA?AU?$tvec2@I$0A@@0@AEBU10@I@Z DD imagerel $LN3
	DD	imagerel $LN3+88
	DD	imagerel $unwind$??$?6I$0A@@glm@@YA?AU?$tvec2@I$0A@@0@AEBU10@I@Z
pdata	ENDS
;	COMDAT pdata
pdata	SEGMENT
$pdata$??$?UI$0A@@glm@@YA?AU?$tvec2@I$0A@@0@AEBU10@0@Z DD imagerel $LN3
	DD	imagerel $LN3+80
	DD	imagerel $unwind$??$?UI$0A@@glm@@YA?AU?$tvec2@I$0A@@0@AEBU10@0@Z
pdata	ENDS
;	COMDAT pdata
pdata	SEGMENT
$pdata$??$?0I$0A@@?$tvec2@_K$0A@@glm@@QEAA@AEBU?$tvec2@I$0A@@1@@Z DD imagerel $LN3
	DD	imagerel $LN3+50
	DD	imagerel $unwind$??$?0I$0A@@?$tvec2@_K$0A@@glm@@QEAA@AEBU?$tvec2@I$0A@@1@@Z
pdata	ENDS
;	COMDAT pdata
pdata	SEGMENT
$pdata$??$?6_K$0A@@glm@@YA?AU?$tvec2@_K$0A@@0@AEBU10@_K@Z DD imagerel $LN3
	DD	imagerel $LN3+96
	DD	imagerel $unwind$??$?6_K$0A@@glm@@YA?AU?$tvec2@_K$0A@@0@AEBU10@_K@Z
pdata	ENDS
;	COMDAT pdata
pdata	SEGMENT
$pdata$??$?U_K$0A@@glm@@YA?AU?$tvec2@_K$0A@@0@AEBU10@0@Z DD imagerel $LN3
	DD	imagerel $LN3+87
	DD	imagerel $unwind$??$?U_K$0A@@glm@@YA?AU?$tvec2@_K$0A@@0@AEBU10@0@Z
pdata	ENDS
;	COMDAT pdata
pdata	SEGMENT
$pdata$?call@?$compute_rand@G$0A@Utvec1@glm@@@detail@glm@@SA?AU?$tvec1@G$0A@@3@XZ DD imagerel $LN3
	DD	imagerel $LN3+127
	DD	imagerel $unwind$?call@?$compute_rand@G$0A@Utvec1@glm@@@detail@glm@@SA?AU?$tvec1@G$0A@@3@XZ
pdata	ENDS
;	COMDAT pdata
pdata	SEGMENT
$pdata$??0?$tvec1@G$0A@@glm@@QEAA@G@Z DD imagerel $LN3
	DD	imagerel $LN3+31
	DD	imagerel $unwind$??0?$tvec1@G$0A@@glm@@QEAA@G@Z
pdata	ENDS
;	COMDAT pdata
pdata	SEGMENT
$pdata$??$?0G$0A@@?$tvec1@I$0A@@glm@@QEAA@AEBU?$tvec1@G$0A@@1@@Z DD imagerel $LN3
	DD	imagerel $LN3+33
	DD	imagerel $unwind$??$?0G$0A@@?$tvec1@I$0A@@glm@@QEAA@AEBU?$tvec1@G$0A@@1@@Z
pdata	ENDS
;	COMDAT pdata
pdata	SEGMENT
$pdata$??$?6I$0A@@glm@@YA?AU?$tvec1@I$0A@@0@AEBU10@I@Z DD imagerel $LN3
	DD	imagerel $LN3+69
	DD	imagerel $unwind$??$?6I$0A@@glm@@YA?AU?$tvec1@I$0A@@0@AEBU10@I@Z
pdata	ENDS
;	COMDAT pdata
pdata	SEGMENT
$pdata$??$?UI$0A@@glm@@YA?AU?$tvec1@I$0A@@0@AEBU10@0@Z DD imagerel $LN3
	DD	imagerel $LN3+59
	DD	imagerel $unwind$??$?UI$0A@@glm@@YA?AU?$tvec1@I$0A@@0@AEBU10@0@Z
pdata	ENDS
;	COMDAT pdata
pdata	SEGMENT
$pdata$??$?0I$0A@@?$tvec1@_K$0A@@glm@@QEAA@AEBU?$tvec1@I$0A@@1@@Z DD imagerel $LN3
	DD	imagerel $LN3+33
	DD	imagerel $unwind$??$?0I$0A@@?$tvec1@_K$0A@@glm@@QEAA@AEBU?$tvec1@I$0A@@1@@Z
pdata	ENDS
;	COMDAT pdata
pdata	SEGMENT
$pdata$??$?6_K$0A@@glm@@YA?AU?$tvec1@_K$0A@@0@AEBU10@_K@Z DD imagerel $LN3
	DD	imagerel $LN3+73
	DD	imagerel $unwind$??$?6_K$0A@@glm@@YA?AU?$tvec1@_K$0A@@0@AEBU10@_K@Z
pdata	ENDS
;	COMDAT pdata
pdata	SEGMENT
$pdata$??$?U_K$0A@@glm@@YA?AU?$tvec1@_K$0A@@0@AEBU10@0@Z DD imagerel $LN3
	DD	imagerel $LN3+63
	DD	imagerel $unwind$??$?U_K$0A@@glm@@YA?AU?$tvec1@_K$0A@@0@AEBU10@0@Z
pdata	ENDS
;	COMDAT pdata
pdata	SEGMENT
$pdata$?call@?$compute_rand@E$0A@Utvec1@glm@@@detail@glm@@SA?AU?$tvec1@E$0A@@3@XZ DD imagerel $LN3
	DD	imagerel $LN3+71
	DD	imagerel $unwind$?call@?$compute_rand@E$0A@Utvec1@glm@@@detail@glm@@SA?AU?$tvec1@E$0A@@3@XZ
pdata	ENDS
;	COMDAT pdata
pdata	SEGMENT
$pdata$??0?$tvec1@E$0A@@glm@@QEAA@E@Z DD imagerel $LN3
	DD	imagerel $LN3+29
	DD	imagerel $unwind$??0?$tvec1@E$0A@@glm@@QEAA@E@Z
pdata	ENDS
;	COMDAT pdata
pdata	SEGMENT
$pdata$??$?0E$0A@@?$tvec1@G$0A@@glm@@QEAA@AEBU?$tvec1@E$0A@@1@@Z DD imagerel $LN3
	DD	imagerel $LN3+34
	DD	imagerel $unwind$??$?0E$0A@@?$tvec1@G$0A@@glm@@QEAA@AEBU?$tvec1@E$0A@@1@@Z
pdata	ENDS
;	COMDAT pdata
pdata	SEGMENT
$pdata$??$?6G$0A@@glm@@YA?AU?$tvec1@G$0A@@0@AEBU10@G@Z DD imagerel $LN3
	DD	imagerel $LN3+60
	DD	imagerel $unwind$??$?6G$0A@@glm@@YA?AU?$tvec1@G$0A@@0@AEBU10@G@Z
pdata	ENDS
;	COMDAT pdata
pdata	SEGMENT
$pdata$??$?UG$0A@@glm@@YA?AU?$tvec1@G$0A@@0@AEBU10@0@Z DD imagerel $LN3
	DD	imagerel $LN3+62
	DD	imagerel $unwind$??$?UG$0A@@glm@@YA?AU?$tvec1@G$0A@@0@AEBU10@0@Z
pdata	ENDS
;	COMDAT pdata
pdata	SEGMENT
$pdata$?call@?$compute_linearRand@M$0A@Utvec3@glm@@@detail@glm@@SA?AU?$tvec3@M$0A@@3@AEBU43@0@Z DD imagerel $LN3
	DD	imagerel $LN3+173
	DD	imagerel $unwind$?call@?$compute_linearRand@M$0A@Utvec3@glm@@@detail@glm@@SA?AU?$tvec3@M$0A@@3@AEBU43@0@Z
pdata	ENDS
;	COMDAT pdata
pdata	SEGMENT
$pdata$?call@?$compute_linearRand@N$0A@Utvec3@glm@@@detail@glm@@SA?AU?$tvec3@N$0A@@3@AEBU43@0@Z DD imagerel $LN5
	DD	imagerel $LN5+233
	DD	imagerel $unwind$?call@?$compute_linearRand@N$0A@Utvec3@glm@@@detail@glm@@SA?AU?$tvec3@N$0A@@3@AEBU43@0@Z
pdata	ENDS
;	COMDAT pdata
pdata	SEGMENT
$pdata$?call@?$compute_dot@Utvec3@glm@@N$0A@$0A@@detail@glm@@SANAEBU?$tvec3@N$0A@@3@0@Z DD imagerel $LN3
	DD	imagerel $LN3+108
	DD	imagerel $unwind$?call@?$compute_dot@Utvec3@glm@@N$0A@$0A@@detail@glm@@SANAEBU?$tvec3@N$0A@@3@0@Z
pdata	ENDS
;	COMDAT pdata
pdata	SEGMENT
$pdata$?call@?$compute_dot@Utvec3@glm@@M$0A@$0A@@detail@glm@@SAMAEBU?$tvec3@M$0A@@3@0@Z DD imagerel $LN3
	DD	imagerel $LN3+108
	DD	imagerel $unwind$?call@?$compute_dot@Utvec3@glm@@M$0A@$0A@@detail@glm@@SAMAEBU?$tvec3@M$0A@@3@0@Z
pdata	ENDS
;	COMDAT pdata
pdata	SEGMENT
$pdata$?call@?$compute_dot@Utvec2@glm@@N$0A@$0A@@detail@glm@@SANAEBU?$tvec2@N$0A@@3@0@Z DD imagerel $LN3
	DD	imagerel $LN3+102
	DD	imagerel $unwind$?call@?$compute_dot@Utvec2@glm@@N$0A@$0A@@detail@glm@@SANAEBU?$tvec2@N$0A@@3@0@Z
pdata	ENDS
;	COMDAT pdata
pdata	SEGMENT
$pdata$?call@?$compute_dot@Utvec2@glm@@M$0A@$0A@@detail@glm@@SAMAEBU?$tvec2@M$0A@@3@0@Z DD imagerel $LN3
	DD	imagerel $LN3+102
	DD	imagerel $unwind$?call@?$compute_dot@Utvec2@glm@@M$0A@$0A@@detail@glm@@SAMAEBU?$tvec2@M$0A@@3@0@Z
pdata	ENDS
;	COMDAT pdata
pdata	SEGMENT
$pdata$??$?0HH@?$tvec2@F$0A@@glm@@QEAA@HH@Z DD imagerel $LN3
	DD	imagerel $LN3+49
	DD	imagerel $unwind$??$?0HH@?$tvec2@F$0A@@glm@@QEAA@HH@Z
pdata	ENDS
;	COMDAT pdata
pdata	SEGMENT
$pdata$??$?0HH@?$tvec2@G$0A@@glm@@QEAA@HH@Z DD imagerel $LN3
	DD	imagerel $LN3+49
	DD	imagerel $unwind$??$?0HH@?$tvec2@G$0A@@glm@@QEAA@HH@Z
pdata	ENDS
;	COMDAT pdata
pdata	SEGMENT
$pdata$??$?0HH@?$tvec2@C$0A@@glm@@QEAA@HH@Z DD imagerel $LN3
	DD	imagerel $LN3+47
	DD	imagerel $unwind$??$?0HH@?$tvec2@C$0A@@glm@@QEAA@HH@Z
pdata	ENDS
;	COMDAT pdata
pdata	SEGMENT
$pdata$??$?DM$0A@@glm@@YA?AU?$tvec3@M$0A@@0@AEBU10@0@Z DD imagerel $LN3
	DD	imagerel $LN3+120
	DD	imagerel $unwind$??$?DM$0A@@glm@@YA?AU?$tvec3@M$0A@@0@AEBU10@0@Z
pdata	ENDS
;	COMDAT pdata
pdata	SEGMENT
$pdata$??$?DN$0A@@glm@@YA?AU?$tvec3@N$0A@@0@AEBU10@0@Z DD imagerel $LN3
	DD	imagerel $LN3+120
	DD	imagerel $unwind$??$?DN$0A@@glm@@YA?AU?$tvec3@N$0A@@0@AEBU10@0@Z
pdata	ENDS
;	COMDAT pdata
pdata	SEGMENT
$pdata$?call@?$compute_rand@_K$0A@Utvec3@glm@@@detail@glm@@SA?AU?$tvec3@_K$0A@@3@XZ DD imagerel $LN3
	DD	imagerel $LN3+149
	DD	imagerel $unwind$?call@?$compute_rand@_K$0A@Utvec3@glm@@@detail@glm@@SA?AU?$tvec3@_K$0A@@3@XZ
pdata	ENDS
;	COMDAT pdata
pdata	SEGMENT
$pdata$??0?$tvec3@_K$0A@@glm@@QEAA@_K00@Z DD imagerel $LN3
	DD	imagerel $LN3+69
	DD	imagerel $unwind$??0?$tvec3@_K$0A@@glm@@QEAA@_K00@Z
pdata	ENDS
;	COMDAT pdata
pdata	SEGMENT
$pdata$??$?0_K$0A@@?$tvec3@N$0A@@glm@@QEAA@AEBU?$tvec3@_K$0A@@1@@Z DD imagerel $LN9
	DD	imagerel $LN9+184
	DD	imagerel $unwind$??$?0_K$0A@@?$tvec3@N$0A@@glm@@QEAA@AEBU?$tvec3@_K$0A@@1@@Z
pdata	ENDS
;	COMDAT pdata
pdata	SEGMENT
$pdata$??$?KN$0A@@glm@@YA?AU?$tvec3@N$0A@@0@AEBU10@N@Z DD imagerel $LN3
	DD	imagerel $LN3+110
	DD	imagerel $unwind$??$?KN$0A@@glm@@YA?AU?$tvec3@N$0A@@0@AEBU10@N@Z
pdata	ENDS
;	COMDAT pdata
pdata	SEGMENT
$pdata$??$?GN$0A@@glm@@YA?AU?$tvec3@N$0A@@0@AEBU10@0@Z DD imagerel $LN3
	DD	imagerel $LN3+120
	DD	imagerel $unwind$??$?GN$0A@@glm@@YA?AU?$tvec3@N$0A@@0@AEBU10@0@Z
pdata	ENDS
;	COMDAT pdata
pdata	SEGMENT
$pdata$??$?HN$0A@@glm@@YA?AU?$tvec3@N$0A@@0@AEBU10@0@Z DD imagerel $LN3
	DD	imagerel $LN3+120
	DD	imagerel $unwind$??$?HN$0A@@glm@@YA?AU?$tvec3@N$0A@@0@AEBU10@0@Z
pdata	ENDS
;	COMDAT pdata
pdata	SEGMENT
$pdata$?call@?$compute_rand@I$0A@Utvec3@glm@@@detail@glm@@SA?AU?$tvec3@I$0A@@3@XZ DD imagerel $LN3
	DD	imagerel $LN3+134
	DD	imagerel $unwind$?call@?$compute_rand@I$0A@Utvec3@glm@@@detail@glm@@SA?AU?$tvec3@I$0A@@3@XZ
pdata	ENDS
;	COMDAT pdata
pdata	SEGMENT
$pdata$??0?$tvec3@I$0A@@glm@@QEAA@III@Z DD imagerel $LN3
	DD	imagerel $LN3+62
	DD	imagerel $unwind$??0?$tvec3@I$0A@@glm@@QEAA@III@Z
pdata	ENDS
;	COMDAT pdata
pdata	SEGMENT
$pdata$??$?0I$0A@@?$tvec3@M$0A@@glm@@QEAA@AEBU?$tvec3@I$0A@@1@@Z DD imagerel $LN3
	DD	imagerel $LN3+85
	DD	imagerel $unwind$??$?0I$0A@@?$tvec3@M$0A@@glm@@QEAA@AEBU?$tvec3@I$0A@@1@@Z
pdata	ENDS
;	COMDAT pdata
pdata	SEGMENT
$pdata$??$?KM$0A@@glm@@YA?AU?$tvec3@M$0A@@0@AEBU10@M@Z DD imagerel $LN3
	DD	imagerel $LN3+110
	DD	imagerel $unwind$??$?KM$0A@@glm@@YA?AU?$tvec3@M$0A@@0@AEBU10@M@Z
pdata	ENDS
;	COMDAT pdata
pdata	SEGMENT
$pdata$??$?GM$0A@@glm@@YA?AU?$tvec3@M$0A@@0@AEBU10@0@Z DD imagerel $LN3
	DD	imagerel $LN3+120
	DD	imagerel $unwind$??$?GM$0A@@glm@@YA?AU?$tvec3@M$0A@@0@AEBU10@0@Z
pdata	ENDS
;	COMDAT pdata
pdata	SEGMENT
$pdata$??$?HM$0A@@glm@@YA?AU?$tvec3@M$0A@@0@AEBU10@0@Z DD imagerel $LN3
	DD	imagerel $LN3+120
	DD	imagerel $unwind$??$?HM$0A@@glm@@YA?AU?$tvec3@M$0A@@0@AEBU10@0@Z
pdata	ENDS
;	COMDAT pdata
pdata	SEGMENT
$pdata$?call@?$compute_rand@G$0A@Utvec3@glm@@@detail@glm@@SA?AU?$tvec3@G$0A@@3@XZ DD imagerel $LN3
	DD	imagerel $LN3+127
	DD	imagerel $unwind$?call@?$compute_rand@G$0A@Utvec3@glm@@@detail@glm@@SA?AU?$tvec3@G$0A@@3@XZ
pdata	ENDS
;	COMDAT pdata
pdata	SEGMENT
$pdata$??$?0G$0A@@?$tvec3@I$0A@@glm@@QEAA@AEBU?$tvec3@G$0A@@1@@Z DD imagerel $LN3
	DD	imagerel $LN3+67
	DD	imagerel $unwind$??$?0G$0A@@?$tvec3@I$0A@@glm@@QEAA@AEBU?$tvec3@G$0A@@1@@Z
pdata	ENDS
;	COMDAT pdata
pdata	SEGMENT
$pdata$??$?6I$0A@@glm@@YA?AU?$tvec3@I$0A@@0@AEBU10@I@Z DD imagerel $LN3
	DD	imagerel $LN3+119
	DD	imagerel $unwind$??$?6I$0A@@glm@@YA?AU?$tvec3@I$0A@@0@AEBU10@I@Z
pdata	ENDS
;	COMDAT pdata
pdata	SEGMENT
$pdata$??$?UI$0A@@glm@@YA?AU?$tvec3@I$0A@@0@AEBU10@0@Z DD imagerel $LN3
	DD	imagerel $LN3+101
	DD	imagerel $unwind$??$?UI$0A@@glm@@YA?AU?$tvec3@I$0A@@0@AEBU10@0@Z
pdata	ENDS
;	COMDAT pdata
pdata	SEGMENT
$pdata$??$?0I$0A@@?$tvec3@_K$0A@@glm@@QEAA@AEBU?$tvec3@I$0A@@1@@Z DD imagerel $LN3
	DD	imagerel $LN3+67
	DD	imagerel $unwind$??$?0I$0A@@?$tvec3@_K$0A@@glm@@QEAA@AEBU?$tvec3@I$0A@@1@@Z
pdata	ENDS
;	COMDAT pdata
pdata	SEGMENT
$pdata$??$?6_K$0A@@glm@@YA?AU?$tvec3@_K$0A@@0@AEBU10@_K@Z DD imagerel $LN3
	DD	imagerel $LN3+132
	DD	imagerel $unwind$??$?6_K$0A@@glm@@YA?AU?$tvec3@_K$0A@@0@AEBU10@_K@Z
pdata	ENDS
;	COMDAT pdata
pdata	SEGMENT
$pdata$??$?U_K$0A@@glm@@YA?AU?$tvec3@_K$0A@@0@AEBU10@0@Z DD imagerel $LN3
	DD	imagerel $LN3+108
	DD	imagerel $unwind$??$?U_K$0A@@glm@@YA?AU?$tvec3@_K$0A@@0@AEBU10@0@Z
pdata	ENDS
;	COMDAT pdata
pdata	SEGMENT
$pdata$?call@?$compute_rand@E$0A@Utvec3@glm@@@detail@glm@@SA?AU?$tvec3@E$0A@@3@XZ DD imagerel $LN3
	DD	imagerel $LN3+166
	DD	imagerel $unwind$?call@?$compute_rand@E$0A@Utvec3@glm@@@detail@glm@@SA?AU?$tvec3@E$0A@@3@XZ
pdata	ENDS
;	COMDAT pdata
pdata	SEGMENT
$pdata$??$?0E$0A@@?$tvec3@G$0A@@glm@@QEAA@AEBU?$tvec3@E$0A@@1@@Z DD imagerel $LN3
	DD	imagerel $LN3+70
	DD	imagerel $unwind$??$?0E$0A@@?$tvec3@G$0A@@glm@@QEAA@AEBU?$tvec3@E$0A@@1@@Z
pdata	ENDS
;	COMDAT pdata
pdata	SEGMENT
$pdata$??$?6G$0A@@glm@@YA?AU?$tvec3@G$0A@@0@AEBU10@G@Z DD imagerel $LN3
	DD	imagerel $LN3+125
	DD	imagerel $unwind$??$?6G$0A@@glm@@YA?AU?$tvec3@G$0A@@0@AEBU10@G@Z
pdata	ENDS
;	COMDAT pdata
pdata	SEGMENT
$pdata$??$?UG$0A@@glm@@YA?AU?$tvec3@G$0A@@0@AEBU10@0@Z DD imagerel $LN3
	DD	imagerel $LN3+107
	DD	imagerel $unwind$??$?UG$0A@@glm@@YA?AU?$tvec3@G$0A@@0@AEBU10@0@Z
pdata	ENDS
;	COMDAT pdata
pdata	SEGMENT
$pdata$??$?0HHH@?$tvec3@E$0A@@glm@@QEAA@HHH@Z DD imagerel $LN3
	DD	imagerel $LN3+65
	DD	imagerel $unwind$??$?0HHH@?$tvec3@E$0A@@glm@@QEAA@HHH@Z
pdata	ENDS
;	COMDAT pdata
pdata	SEGMENT
$pdata$??$?0HHH@?$tvec3@G$0A@@glm@@QEAA@HHH@Z DD imagerel $LN3
	DD	imagerel $LN3+68
	DD	imagerel $unwind$??$?0HHH@?$tvec3@G$0A@@glm@@QEAA@HHH@Z
pdata	ENDS
;	COMDAT __xmm@80000000800000008000000080000000
CONST	SEGMENT
__xmm@80000000800000008000000080000000 DB 00H, 00H, 00H, 080H, 00H, 00H, 00H
	DB	080H, 00H, 00H, 00H, 080H, 00H, 00H, 00H, 080H
CONST	ENDS
;	COMDAT __xmm@80000000000000008000000000000000
CONST	SEGMENT
__xmm@80000000000000008000000000000000 DB 00H, 00H, 00H, 00H, 00H, 00H, 00H
	DB	080H, 00H, 00H, 00H, 00H, 00H, 00H, 00H, 080H
CONST	ENDS
;	COMDAT __real@bff0000000000000
CONST	SEGMENT
__real@bff0000000000000 DQ 0bff0000000000000r	; -1
CONST	ENDS
;	COMDAT __real@bf800000
CONST	SEGMENT
__real@bf800000 DD 0bf800000r			; -1
CONST	ENDS
;	COMDAT __real@469c4000
CONST	SEGMENT
__real@469c4000 DD 0469c4000r			; 20000
CONST	ENDS
;	COMDAT __real@42000000
CONST	SEGMENT
__real@42000000 DD 042000000r			; 32
CONST	ENDS
;	COMDAT __real@41800000
CONST	SEGMENT
__real@41800000 DD 041800000r			; 16
CONST	ENDS
;	COMDAT __real@40d3880000000000
CONST	SEGMENT
__real@40d3880000000000 DQ 040d3880000000000r	; 20000
CONST	ENDS
;	COMDAT __real@40c90fdb
CONST	SEGMENT
__real@40c90fdb DD 040c90fdbr			; 6.28319
CONST	ENDS
;	COMDAT __real@4040000000000000
CONST	SEGMENT
__real@4040000000000000 DQ 04040000000000000r	; 32
CONST	ENDS
;	COMDAT __real@40400000
CONST	SEGMENT
__real@40400000 DD 040400000r			; 3
CONST	ENDS
;	COMDAT __real@4030000000000000
CONST	SEGMENT
__real@4030000000000000 DQ 04030000000000000r	; 16
CONST	ENDS
;	COMDAT __real@401921fb60000000
CONST	SEGMENT
__real@401921fb60000000 DQ 0401921fb60000000r	; 6.28319
CONST	ENDS
;	COMDAT __real@4008000000000000
CONST	SEGMENT
__real@4008000000000000 DQ 04008000000000000r	; 3
CONST	ENDS
;	COMDAT __real@4000000000000000
CONST	SEGMENT
__real@4000000000000000 DQ 04000000000000000r	; 2
CONST	ENDS
;	COMDAT __real@40000000
CONST	SEGMENT
__real@40000000 DD 040000000r			; 2
CONST	ENDS
;	COMDAT __real@3ff0000000000000
CONST	SEGMENT
__real@3ff0000000000000 DQ 03ff0000000000000r	; 1
CONST	ENDS
;	COMDAT __real@3f847ae147ae147b
CONST	SEGMENT
__real@3f847ae147ae147b DQ 03f847ae147ae147br	; 0.01
CONST	ENDS
;	COMDAT __real@3f800000
CONST	SEGMENT
__real@3f800000 DD 03f800000r			; 1
CONST	ENDS
;	COMDAT __real@3f1a36e2eb1c432d
CONST	SEGMENT
__real@3f1a36e2eb1c432d DQ 03f1a36e2eb1c432dr	; 0.0001
CONST	ENDS
;	COMDAT __real@3c23d70a
CONST	SEGMENT
__real@3c23d70a DD 03c23d70ar			; 0.01
CONST	ENDS
;	COMDAT __real@38d1b717
CONST	SEGMENT
__real@38d1b717 DD 038d1b717r			; 0.0001
CONST	ENDS
;	COMDAT __real@0000000000000000
CONST	SEGMENT
__real@0000000000000000 DQ 00000000000000000r	; 0
CONST	ENDS
;	COMDAT __real@00000000
CONST	SEGMENT
__real@00000000 DD 000000000r			; 0
CONST	ENDS
;	COMDAT rtc$TMZ
rtc$TMZ	SEGMENT
_RTC_Shutdown.rtc$TMZ DQ FLAT:_RTC_Shutdown
rtc$TMZ	ENDS
;	COMDAT rtc$IMZ
rtc$IMZ	SEGMENT
_RTC_InitBase.rtc$IMZ DQ FLAT:_RTC_InitBase
rtc$IMZ	ENDS
;	COMDAT ??_C@_1DK@BGNCJAPL@?$AAi?$AA?5?$AA?$DO?$AA?$DN?$AA?5?$AA0?$AA?5?$AA?$CG?$AA?$CG?$AA?5?$AAi?$AA?5?$AA?$DM?$AA?5?$AAt@
CONST	SEGMENT
??_C@_1DK@BGNCJAPL@?$AAi?$AA?5?$AA?$DO?$AA?$DN?$AA?5?$AA0?$AA?5?$AA?$CG?$AA?$CG?$AA?5?$AAi?$AA?5?$AA?$DM?$AA?5?$AAt@ DB 'i'
	DB	00H, ' ', 00H, '>', 00H, '=', 00H, ' ', 00H, '0', 00H, ' ', 00H
	DB	'&', 00H, '&', 00H, ' ', 00H, 'i', 00H, ' ', 00H, '<', 00H, ' '
	DB	00H, 't', 00H, 'h', 00H, 'i', 00H, 's', 00H, '-', 00H, '>', 00H
	DB	'l', 00H, 'e', 00H, 'n', 00H, 'g', 00H, 't', 00H, 'h', 00H, '('
	DB	00H, ')', 00H, 00H, 00H			; `string'
CONST	ENDS
;	COMDAT ??_C@_1LG@FPDAFGJN@?$AAC?$AA?3?$AA?2?$AAU?$AAs?$AAe?$AAr?$AAs?$AA?2?$AAk?$AAs?$AAa?$AAr?$AAt?$AA?2@
CONST	SEGMENT
??_C@_1LG@FPDAFGJN@?$AAC?$AA?3?$AA?2?$AAU?$AAs?$AAe?$AAr?$AAs?$AA?2?$AAk?$AAs?$AAa?$AAr?$AAt?$AA?2@ DB 'C'
	DB	00H, ':', 00H, '\', 00H, 'U', 00H, 's', 00H, 'e', 00H, 'r', 00H
	DB	's', 00H, '\', 00H, 'k', 00H, 's', 00H, 'a', 00H, 'r', 00H, 't'
	DB	00H, '\', 00H, 'O', 00H, 'n', 00H, 'e', 00H, 'D', 00H, 'r', 00H
	DB	'i', 00H, 'v', 00H, 'e', 00H, '\', 00H, 'D', 00H, 'e', 00H, 's'
	DB	00H, 'k', 00H, 't', 00H, 'o', 00H, 'p', 00H, '\', 00H, 'F', 00H
	DB	'l', 00H, 'a', 00H, 'p', 00H, 'p', 00H, 'y', 00H, 'B', 00H, 'i'
	DB	00H, 'r', 00H, 'd', 00H, '\', 00H, 'l', 00H, 'i', 00H, 'b', 00H
	DB	'r', 00H, 'a', 00H, 'r', 00H, 'i', 00H, 'e', 00H, 's', 00H, '\'
	DB	00H, 'e', 00H, 'x', 00H, 't', 00H, 'e', 00H, 'r', 00H, 'n', 00H
	DB	'a', 00H, 'l', 00H, '\', 00H, 'g', 00H, 'l', 00H, 'm', 00H, '\'
	DB	00H, 'g', 00H, 'l', 00H, 'm', 00H, '\', 00H, 'd', 00H, 'e', 00H
	DB	't', 00H, 'a', 00H, 'i', 00H, 'l', 00H, '\', 00H, 't', 00H, 'y'
	DB	00H, 'p', 00H, 'e', 00H, '_', 00H, 'v', 00H, 'e', 00H, 'c', 00H
	DB	'2', 00H, '.', 00H, 'i', 00H, 'n', 00H, 'l', 00H, 00H, 00H ; `string'
CONST	ENDS
;	COMDAT ??_C@_1DC@HHLCGOLC@?$AAx?$AA?4?$AAl?$AAe?$AAn?$AAg?$AAt?$AAh?$AA?$CI?$AA?$CJ?$AA?5?$AA?$DN?$AA?$DN?$AA?5?$AAy@
CONST	SEGMENT
??_C@_1DC@HHLCGOLC@?$AAx?$AA?4?$AAl?$AAe?$AAn?$AAg?$AAt?$AAh?$AA?$CI?$AA?$CJ?$AA?5?$AA?$DN?$AA?$DN?$AA?5?$AAy@ DB 'x'
	DB	00H, '.', 00H, 'l', 00H, 'e', 00H, 'n', 00H, 'g', 00H, 't', 00H
	DB	'h', 00H, '(', 00H, ')', 00H, ' ', 00H, '=', 00H, '=', 00H, ' '
	DB	00H, 'y', 00H, '.', 00H, 'l', 00H, 'e', 00H, 'n', 00H, 'g', 00H
	DB	't', 00H, 'h', 00H, '(', 00H, ')', 00H, 00H, 00H ; `string'
CONST	ENDS
;	COMDAT ??_C@_1NA@OPABFNEN@?$AAC?$AA?3?$AA?2?$AAU?$AAs?$AAe?$AAr?$AAs?$AA?2?$AAk?$AAs?$AAa?$AAr?$AAt?$AA?2@
CONST	SEGMENT
??_C@_1NA@OPABFNEN@?$AAC?$AA?3?$AA?2?$AAU?$AAs?$AAe?$AAr?$AAs?$AA?2?$AAk?$AAs?$AAa?$AAr?$AAt?$AA?2@ DB 'C'
	DB	00H, ':', 00H, '\', 00H, 'U', 00H, 's', 00H, 'e', 00H, 'r', 00H
	DB	's', 00H, '\', 00H, 'k', 00H, 's', 00H, 'a', 00H, 'r', 00H, 't'
	DB	00H, '\', 00H, 'O', 00H, 'n', 00H, 'e', 00H, 'D', 00H, 'r', 00H
	DB	'i', 00H, 'v', 00H, 'e', 00H, '\', 00H, 'D', 00H, 'e', 00H, 's'
	DB	00H, 'k', 00H, 't', 00H, 'o', 00H, 'p', 00H, '\', 00H, 'F', 00H
	DB	'l', 00H, 'a', 00H, 'p', 00H, 'p', 00H, 'y', 00H, 'B', 00H, 'i'
	DB	00H, 'r', 00H, 'd', 00H, '\', 00H, 'l', 00H, 'i', 00H, 'b', 00H
	DB	'r', 00H, 'a', 00H, 'r', 00H, 'i', 00H, 'e', 00H, 's', 00H, '\'
	DB	00H, 'e', 00H, 'x', 00H, 't', 00H, 'e', 00H, 'r', 00H, 'n', 00H
	DB	'a', 00H, 'l', 00H, '\', 00H, 'g', 00H, 'l', 00H, 'm', 00H, '\'
	DB	00H, 'g', 00H, 'l', 00H, 'm', 00H, '\', 00H, 'd', 00H, 'e', 00H
	DB	't', 00H, 'a', 00H, 'i', 00H, 'l', 00H, '\', 00H, 'f', 00H, 'u'
	DB	00H, 'n', 00H, 'c', 00H, '_', 00H, 'v', 00H, 'e', 00H, 'c', 00H
	DB	't', 00H, 'o', 00H, 'r', 00H, '_', 00H, 'r', 00H, 'e', 00H, 'l'
	DB	00H, 'a', 00H, 't', 00H, 'i', 00H, 'o', 00H, 'n', 00H, 'a', 00H
	DB	'l', 00H, '.', 00H, 'i', 00H, 'n', 00H, 'l', 00H, 00H, 00H ; `string'
CONST	ENDS
;	COMDAT xdata
xdata	SEGMENT
$unwind$??$?0HHH@?$tvec3@G$0A@@glm@@QEAA@HHH@Z DD 011401H
	DD	07014H
xdata	ENDS
;	COMDAT xdata
xdata	SEGMENT
$unwind$??$?0HHH@?$tvec3@E$0A@@glm@@QEAA@HHH@Z DD 011401H
	DD	07014H
xdata	ENDS
;	COMDAT xdata
xdata	SEGMENT
$unwind$??$?UG$0A@@glm@@YA?AU?$tvec3@G$0A@@0@AEBU10@0@Z DD 021401H
	DD	070103214H
xdata	ENDS
;	COMDAT xdata
xdata	SEGMENT
$unwind$??$?6G$0A@@glm@@YA?AU?$tvec3@G$0A@@0@AEBU10@G@Z DD 021501H
	DD	070115215H
xdata	ENDS
;	COMDAT xdata
xdata	SEGMENT
$unwind$??$?0E$0A@@?$tvec3@G$0A@@glm@@QEAA@AEBU?$tvec3@E$0A@@1@@Z DD 010b01H
	DD	0700bH
xdata	ENDS
;	COMDAT xdata
xdata	SEGMENT
$unwind$?call@?$compute_rand@E$0A@Utvec3@glm@@@detail@glm@@SA?AU?$tvec3@E$0A@@3@XZ DD 020a01H
	DD	07006720aH
xdata	ENDS
;	COMDAT xdata
xdata	SEGMENT
$unwind$??$?U_K$0A@@glm@@YA?AU?$tvec3@_K$0A@@0@AEBU10@0@Z DD 021401H
	DD	070103214H
xdata	ENDS
;	COMDAT xdata
xdata	SEGMENT
$unwind$??$?6_K$0A@@glm@@YA?AU?$tvec3@_K$0A@@0@AEBU10@_K@Z DD 021401H
	DD	070105214H
xdata	ENDS
;	COMDAT xdata
xdata	SEGMENT
$unwind$??$?0I$0A@@?$tvec3@_K$0A@@glm@@QEAA@AEBU?$tvec3@I$0A@@1@@Z DD 010b01H
	DD	0700bH
xdata	ENDS
;	COMDAT xdata
xdata	SEGMENT
$unwind$??$?UI$0A@@glm@@YA?AU?$tvec3@I$0A@@0@AEBU10@0@Z DD 021401H
	DD	070103214H
xdata	ENDS
;	COMDAT xdata
xdata	SEGMENT
$unwind$??$?6I$0A@@glm@@YA?AU?$tvec3@I$0A@@0@AEBU10@I@Z DD 021401H
	DD	070105214H
xdata	ENDS
;	COMDAT xdata
xdata	SEGMENT
$unwind$??$?0G$0A@@?$tvec3@I$0A@@glm@@QEAA@AEBU?$tvec3@G$0A@@1@@Z DD 010b01H
	DD	0700bH
xdata	ENDS
;	COMDAT xdata
xdata	SEGMENT
$unwind$?call@?$compute_rand@G$0A@Utvec3@glm@@@detail@glm@@SA?AU?$tvec3@G$0A@@3@XZ DD 020a01H
	DD	07006920aH
xdata	ENDS
;	COMDAT xdata
xdata	SEGMENT
$unwind$??$?HM$0A@@glm@@YA?AU?$tvec3@M$0A@@0@AEBU10@0@Z DD 021401H
	DD	070105214H
xdata	ENDS
;	COMDAT xdata
xdata	SEGMENT
$unwind$??$?GM$0A@@glm@@YA?AU?$tvec3@M$0A@@0@AEBU10@0@Z DD 021401H
	DD	070105214H
xdata	ENDS
;	COMDAT xdata
xdata	SEGMENT
$unwind$??$?KM$0A@@glm@@YA?AU?$tvec3@M$0A@@0@AEBU10@M@Z DD 021501H
	DD	070115215H
xdata	ENDS
;	COMDAT xdata
xdata	SEGMENT
$unwind$??$?0I$0A@@?$tvec3@M$0A@@glm@@QEAA@AEBU?$tvec3@I$0A@@1@@Z DD 010b01H
	DD	0700bH
xdata	ENDS
;	COMDAT xdata
xdata	SEGMENT
$unwind$??0?$tvec3@I$0A@@glm@@QEAA@III@Z DD 011401H
	DD	07014H
xdata	ENDS
;	COMDAT xdata
xdata	SEGMENT
$unwind$?call@?$compute_rand@I$0A@Utvec3@glm@@@detail@glm@@SA?AU?$tvec3@I$0A@@3@XZ DD 020a01H
	DD	07006d20aH
xdata	ENDS
;	COMDAT xdata
xdata	SEGMENT
$unwind$??$?HN$0A@@glm@@YA?AU?$tvec3@N$0A@@0@AEBU10@0@Z DD 021401H
	DD	070105214H
xdata	ENDS
;	COMDAT xdata
xdata	SEGMENT
$unwind$??$?GN$0A@@glm@@YA?AU?$tvec3@N$0A@@0@AEBU10@0@Z DD 021401H
	DD	070105214H
xdata	ENDS
;	COMDAT xdata
xdata	SEGMENT
$unwind$??$?KN$0A@@glm@@YA?AU?$tvec3@N$0A@@0@AEBU10@N@Z DD 021501H
	DD	070115215H
xdata	ENDS
;	COMDAT xdata
xdata	SEGMENT
$unwind$??$?0_K$0A@@?$tvec3@N$0A@@glm@@QEAA@AEBU?$tvec3@_K$0A@@1@@Z DD 010b01H
	DD	0700bH
xdata	ENDS
;	COMDAT xdata
xdata	SEGMENT
$unwind$??0?$tvec3@_K$0A@@glm@@QEAA@_K00@Z DD 011501H
	DD	07015H
xdata	ENDS
;	COMDAT xdata
xdata	SEGMENT
$unwind$?call@?$compute_rand@_K$0A@Utvec3@glm@@@detail@glm@@SA?AU?$tvec3@_K$0A@@3@XZ DD 030d01H
	DD	016010dH
	DD	07006H
xdata	ENDS
;	COMDAT xdata
xdata	SEGMENT
$unwind$??$?DN$0A@@glm@@YA?AU?$tvec3@N$0A@@0@AEBU10@0@Z DD 021401H
	DD	070105214H
xdata	ENDS
;	COMDAT xdata
xdata	SEGMENT
$unwind$??$?DM$0A@@glm@@YA?AU?$tvec3@M$0A@@0@AEBU10@0@Z DD 021401H
	DD	070105214H
xdata	ENDS
;	COMDAT xdata
xdata	SEGMENT
$unwind$??$?0HH@?$tvec2@C$0A@@glm@@QEAA@HH@Z DD 010f01H
	DD	0700fH
xdata	ENDS
;	COMDAT xdata
xdata	SEGMENT
$unwind$??$?0HH@?$tvec2@G$0A@@glm@@QEAA@HH@Z DD 010f01H
	DD	0700fH
xdata	ENDS
;	COMDAT xdata
xdata	SEGMENT
$unwind$??$?0HH@?$tvec2@F$0A@@glm@@QEAA@HH@Z DD 010f01H
	DD	0700fH
xdata	ENDS
;	COMDAT xdata
xdata	SEGMENT
$unwind$?call@?$compute_dot@Utvec2@glm@@M$0A@$0A@@detail@glm@@SAMAEBU?$tvec2@M$0A@@3@0@Z DD 022501H
	DD	0700b920fH
xdata	ENDS
;	COMDAT CONST
CONST	SEGMENT
?call@?$compute_dot@Utvec2@glm@@M$0A@$0A@@detail@glm@@SAMAEBU?$tvec2@M$0A@@3@0@Z$rtcName$0 DB 074H ; glm::detail::compute_dot<glm::tvec2,float,0,0>::call
	DB	06dH
	DB	070H
	DB	00H
	ORG $+12
?call@?$compute_dot@Utvec2@glm@@M$0A@$0A@@detail@glm@@SAMAEBU?$tvec2@M$0A@@3@0@Z$rtcVarDesc DD 038H ; glm::detail::compute_dot<glm::tvec2,float,0,0>::call
	DD	08H
	DQ	FLAT:?call@?$compute_dot@Utvec2@glm@@M$0A@$0A@@detail@glm@@SAMAEBU?$tvec2@M$0A@@3@0@Z$rtcName$0
	ORG $+48
?call@?$compute_dot@Utvec2@glm@@M$0A@$0A@@detail@glm@@SAMAEBU?$tvec2@M$0A@@3@0@Z$rtcFrameData DD 01H ; glm::detail::compute_dot<glm::tvec2,float,0,0>::call
	DD	00H
	DQ	FLAT:?call@?$compute_dot@Utvec2@glm@@M$0A@$0A@@detail@glm@@SAMAEBU?$tvec2@M$0A@@3@0@Z$rtcVarDesc
CONST	ENDS
;	COMDAT xdata
xdata	SEGMENT
$unwind$?call@?$compute_dot@Utvec2@glm@@N$0A@$0A@@detail@glm@@SANAEBU?$tvec2@N$0A@@3@0@Z DD 022501H
	DD	0700bb20fH
xdata	ENDS
;	COMDAT CONST
CONST	SEGMENT
?call@?$compute_dot@Utvec2@glm@@N$0A@$0A@@detail@glm@@SANAEBU?$tvec2@N$0A@@3@0@Z$rtcName$0 DB 074H ; glm::detail::compute_dot<glm::tvec2,double,0,0>::call
	DB	06dH
	DB	070H
	DB	00H
	ORG $+12
?call@?$compute_dot@Utvec2@glm@@N$0A@$0A@@detail@glm@@SANAEBU?$tvec2@N$0A@@3@0@Z$rtcVarDesc DD 038H ; glm::detail::compute_dot<glm::tvec2,double,0,0>::call
	DD	010H
	DQ	FLAT:?call@?$compute_dot@Utvec2@glm@@N$0A@$0A@@detail@glm@@SANAEBU?$tvec2@N$0A@@3@0@Z$rtcName$0
	ORG $+48
?call@?$compute_dot@Utvec2@glm@@N$0A@$0A@@detail@glm@@SANAEBU?$tvec2@N$0A@@3@0@Z$rtcFrameData DD 01H ; glm::detail::compute_dot<glm::tvec2,double,0,0>::call
	DD	00H
	DQ	FLAT:?call@?$compute_dot@Utvec2@glm@@N$0A@$0A@@detail@glm@@SANAEBU?$tvec2@N$0A@@3@0@Z$rtcVarDesc
CONST	ENDS
;	COMDAT xdata
xdata	SEGMENT
$unwind$?call@?$compute_dot@Utvec3@glm@@M$0A@$0A@@detail@glm@@SAMAEBU?$tvec3@M$0A@@3@0@Z DD 022501H
	DD	0700bb20fH
xdata	ENDS
;	COMDAT CONST
CONST	SEGMENT
?call@?$compute_dot@Utvec3@glm@@M$0A@$0A@@detail@glm@@SAMAEBU?$tvec3@M$0A@@3@0@Z$rtcName$0 DB 074H ; glm::detail::compute_dot<glm::tvec3,float,0,0>::call
	DB	06dH
	DB	070H
	DB	00H
	ORG $+12
?call@?$compute_dot@Utvec3@glm@@M$0A@$0A@@detail@glm@@SAMAEBU?$tvec3@M$0A@@3@0@Z$rtcVarDesc DD 038H ; glm::detail::compute_dot<glm::tvec3,float,0,0>::call
	DD	0cH
	DQ	FLAT:?call@?$compute_dot@Utvec3@glm@@M$0A@$0A@@detail@glm@@SAMAEBU?$tvec3@M$0A@@3@0@Z$rtcName$0
	ORG $+48
?call@?$compute_dot@Utvec3@glm@@M$0A@$0A@@detail@glm@@SAMAEBU?$tvec3@M$0A@@3@0@Z$rtcFrameData DD 01H ; glm::detail::compute_dot<glm::tvec3,float,0,0>::call
	DD	00H
	DQ	FLAT:?call@?$compute_dot@Utvec3@glm@@M$0A@$0A@@detail@glm@@SAMAEBU?$tvec3@M$0A@@3@0@Z$rtcVarDesc
CONST	ENDS
;	COMDAT xdata
xdata	SEGMENT
$unwind$?call@?$compute_dot@Utvec3@glm@@N$0A@$0A@@detail@glm@@SANAEBU?$tvec3@N$0A@@3@0@Z DD 022501H
	DD	0700bb20fH
xdata	ENDS
;	COMDAT CONST
CONST	SEGMENT
?call@?$compute_dot@Utvec3@glm@@N$0A@$0A@@detail@glm@@SANAEBU?$tvec3@N$0A@@3@0@Z$rtcName$0 DB 074H ; glm::detail::compute_dot<glm::tvec3,double,0,0>::call
	DB	06dH
	DB	070H
	DB	00H
	ORG $+12
?call@?$compute_dot@Utvec3@glm@@N$0A@$0A@@detail@glm@@SANAEBU?$tvec3@N$0A@@3@0@Z$rtcVarDesc DD 038H ; glm::detail::compute_dot<glm::tvec3,double,0,0>::call
	DD	018H
	DQ	FLAT:?call@?$compute_dot@Utvec3@glm@@N$0A@$0A@@detail@glm@@SANAEBU?$tvec3@N$0A@@3@0@Z$rtcName$0
	ORG $+48
?call@?$compute_dot@Utvec3@glm@@N$0A@$0A@@detail@glm@@SANAEBU?$tvec3@N$0A@@3@0@Z$rtcFrameData DD 01H ; glm::detail::compute_dot<glm::tvec3,double,0,0>::call
	DD	00H
	DQ	FLAT:?call@?$compute_dot@Utvec3@glm@@N$0A@$0A@@detail@glm@@SANAEBU?$tvec3@N$0A@@3@0@Z$rtcVarDesc
CONST	ENDS
;	COMDAT xdata
xdata	SEGMENT
$unwind$?call@?$compute_linearRand@N$0A@Utvec3@glm@@@detail@glm@@SA?AU?$tvec3@N$0A@@3@AEBU43@0@Z DD 031701H
	DD	0160117H
	DD	07010H
xdata	ENDS
;	COMDAT xdata
xdata	SEGMENT
$unwind$?call@?$compute_linearRand@M$0A@Utvec3@glm@@@detail@glm@@SA?AU?$tvec3@M$0A@@3@AEBU43@0@Z DD 021401H
	DD	07010d214H
xdata	ENDS
;	COMDAT xdata
xdata	SEGMENT
$unwind$??$?UG$0A@@glm@@YA?AU?$tvec1@G$0A@@0@AEBU10@0@Z DD 021401H
	DD	070103214H
xdata	ENDS
;	COMDAT xdata
xdata	SEGMENT
$unwind$??$?6G$0A@@glm@@YA?AU?$tvec1@G$0A@@0@AEBU10@G@Z DD 021501H
	DD	070113215H
xdata	ENDS
;	COMDAT xdata
xdata	SEGMENT
$unwind$??$?0E$0A@@?$tvec1@G$0A@@glm@@QEAA@AEBU?$tvec1@E$0A@@1@@Z DD 010b01H
	DD	0700bH
xdata	ENDS
;	COMDAT xdata
xdata	SEGMENT
$unwind$??0?$tvec1@E$0A@@glm@@QEAA@E@Z DD 010a01H
	DD	0700aH
xdata	ENDS
;	COMDAT xdata
xdata	SEGMENT
$unwind$?call@?$compute_rand@E$0A@Utvec1@glm@@@detail@glm@@SA?AU?$tvec1@E$0A@@3@XZ DD 020a01H
	DD	07006520aH
xdata	ENDS
;	COMDAT xdata
xdata	SEGMENT
$unwind$??$?U_K$0A@@glm@@YA?AU?$tvec1@_K$0A@@0@AEBU10@0@Z DD 021401H
	DD	070103214H
xdata	ENDS
;	COMDAT xdata
xdata	SEGMENT
$unwind$??$?6_K$0A@@glm@@YA?AU?$tvec1@_K$0A@@0@AEBU10@_K@Z DD 021401H
	DD	070105214H
xdata	ENDS
;	COMDAT xdata
xdata	SEGMENT
$unwind$??$?0I$0A@@?$tvec1@_K$0A@@glm@@QEAA@AEBU?$tvec1@I$0A@@1@@Z DD 010b01H
	DD	0700bH
xdata	ENDS
;	COMDAT xdata
xdata	SEGMENT
$unwind$??$?UI$0A@@glm@@YA?AU?$tvec1@I$0A@@0@AEBU10@0@Z DD 021401H
	DD	070103214H
xdata	ENDS
;	COMDAT xdata
xdata	SEGMENT
$unwind$??$?6I$0A@@glm@@YA?AU?$tvec1@I$0A@@0@AEBU10@I@Z DD 021401H
	DD	070105214H
xdata	ENDS
;	COMDAT xdata
xdata	SEGMENT
$unwind$??$?0G$0A@@?$tvec1@I$0A@@glm@@QEAA@AEBU?$tvec1@G$0A@@1@@Z DD 010b01H
	DD	0700bH
xdata	ENDS
;	COMDAT xdata
xdata	SEGMENT
$unwind$??0?$tvec1@G$0A@@glm@@QEAA@G@Z DD 010b01H
	DD	0700bH
xdata	ENDS
;	COMDAT xdata
xdata	SEGMENT
$unwind$?call@?$compute_rand@G$0A@Utvec1@glm@@@detail@glm@@SA?AU?$tvec1@G$0A@@3@XZ DD 020a01H
	DD	07006720aH
xdata	ENDS
;	COMDAT xdata
xdata	SEGMENT
$unwind$??$?U_K$0A@@glm@@YA?AU?$tvec2@_K$0A@@0@AEBU10@0@Z DD 021401H
	DD	070103214H
xdata	ENDS
;	COMDAT xdata
xdata	SEGMENT
$unwind$??$?6_K$0A@@glm@@YA?AU?$tvec2@_K$0A@@0@AEBU10@_K@Z DD 021401H
	DD	070105214H
xdata	ENDS
;	COMDAT xdata
xdata	SEGMENT
$unwind$??$?0I$0A@@?$tvec2@_K$0A@@glm@@QEAA@AEBU?$tvec2@I$0A@@1@@Z DD 010b01H
	DD	0700bH
xdata	ENDS
;	COMDAT xdata
xdata	SEGMENT
$unwind$??$?UI$0A@@glm@@YA?AU?$tvec2@I$0A@@0@AEBU10@0@Z DD 021401H
	DD	070103214H
xdata	ENDS
;	COMDAT xdata
xdata	SEGMENT
$unwind$??$?6I$0A@@glm@@YA?AU?$tvec2@I$0A@@0@AEBU10@I@Z DD 021401H
	DD	070105214H
xdata	ENDS
;	COMDAT xdata
xdata	SEGMENT
$unwind$??$?0G$0A@@?$tvec2@I$0A@@glm@@QEAA@AEBU?$tvec2@G$0A@@1@@Z DD 010b01H
	DD	0700bH
xdata	ENDS
;	COMDAT xdata
xdata	SEGMENT
$unwind$??$?UG$0A@@glm@@YA?AU?$tvec2@G$0A@@0@AEBU10@0@Z DD 021401H
	DD	070103214H
xdata	ENDS
;	COMDAT xdata
xdata	SEGMENT
$unwind$??$?6G$0A@@glm@@YA?AU?$tvec2@G$0A@@0@AEBU10@G@Z DD 021501H
	DD	070115215H
xdata	ENDS
;	COMDAT xdata
xdata	SEGMENT
$unwind$??$?0E$0A@@?$tvec2@G$0A@@glm@@QEAA@AEBU?$tvec2@E$0A@@1@@Z DD 010b01H
	DD	0700bH
xdata	ENDS
;	COMDAT xdata
xdata	SEGMENT
$unwind$??$?0HH@?$tvec2@E$0A@@glm@@QEAA@HH@Z DD 010f01H
	DD	0700fH
xdata	ENDS
;	COMDAT xdata
xdata	SEGMENT
$unwind$??$?HE$0A@@glm@@YA?AU?$tvec2@E$0A@@0@AEBU10@0@Z DD 021401H
	DD	070103214H
xdata	ENDS
;	COMDAT xdata
xdata	SEGMENT
$unwind$??$?GE$0A@@glm@@YA?AU?$tvec2@E$0A@@0@AEBU10@0@Z DD 021401H
	DD	070103214H
xdata	ENDS
;	COMDAT xdata
xdata	SEGMENT
$unwind$??$?HE$0A@@glm@@YA?AU?$tvec2@E$0A@@0@AEBU10@E@Z DD 021401H
	DD	070103214H
xdata	ENDS
;	COMDAT xdata
xdata	SEGMENT
$unwind$??$min@E@glm@@YAEEE@Z DD 020d01H
	DD	07009120dH
xdata	ENDS
;	COMDAT xdata
xdata	SEGMENT
$unwind$??$max@E@glm@@YAEEE@Z DD 020d01H
	DD	07009120dH
xdata	ENDS
;	COMDAT xdata
xdata	SEGMENT
$unwind$?call@?$functor2@E$0A@Utvec2@glm@@@detail@glm@@SA?AU?$tvec2@E$0A@@3@P6AEEE@ZAEBU43@1@Z DD 021901H
	DD	070155219H
xdata	ENDS
;	COMDAT xdata
xdata	SEGMENT
$unwind$??$?HG$0A@@glm@@YA?AU?$tvec2@G$0A@@0@AEBU10@0@Z DD 021401H
	DD	070103214H
xdata	ENDS
;	COMDAT xdata
xdata	SEGMENT
$unwind$??$?GG$0A@@glm@@YA?AU?$tvec2@G$0A@@0@AEBU10@0@Z DD 021401H
	DD	070103214H
xdata	ENDS
;	COMDAT xdata
xdata	SEGMENT
$unwind$??$?HG$0A@@glm@@YA?AU?$tvec2@G$0A@@0@AEBU10@G@Z DD 021501H
	DD	070113215H
xdata	ENDS
;	COMDAT xdata
xdata	SEGMENT
$unwind$??$min@G@glm@@YAGGG@Z DD 020f01H
	DD	0700b120fH
xdata	ENDS
;	COMDAT xdata
xdata	SEGMENT
$unwind$??$max@G@glm@@YAGGG@Z DD 020f01H
	DD	0700b120fH
xdata	ENDS
;	COMDAT xdata
xdata	SEGMENT
$unwind$?call@?$functor2@G$0A@Utvec2@glm@@@detail@glm@@SA?AU?$tvec2@G$0A@@3@P6AGGG@ZAEBU43@1@Z DD 021901H
	DD	070155219H
xdata	ENDS
;	COMDAT xdata
xdata	SEGMENT
$unwind$??$?HI$0A@@glm@@YA?AU?$tvec2@I$0A@@0@AEBU10@0@Z DD 021401H
	DD	070103214H
xdata	ENDS
;	COMDAT xdata
xdata	SEGMENT
$unwind$??$?GI$0A@@glm@@YA?AU?$tvec2@I$0A@@0@AEBU10@0@Z DD 021401H
	DD	070103214H
xdata	ENDS
;	COMDAT xdata
xdata	SEGMENT
$unwind$??$?HI$0A@@glm@@YA?AU?$tvec2@I$0A@@0@AEBU10@I@Z DD 021401H
	DD	070103214H
xdata	ENDS
;	COMDAT xdata
xdata	SEGMENT
$unwind$??$min@I@glm@@YAIII@Z DD 020d01H
	DD	07009120dH
xdata	ENDS
;	COMDAT xdata
xdata	SEGMENT
$unwind$??$max@I@glm@@YAIII@Z DD 020d01H
	DD	07009120dH
xdata	ENDS
;	COMDAT xdata
xdata	SEGMENT
$unwind$?call@?$functor2@I$0A@Utvec2@glm@@@detail@glm@@SA?AU?$tvec2@I$0A@@3@P6AIII@ZAEBU43@1@Z DD 021901H
	DD	070155219H
xdata	ENDS
;	COMDAT xdata
xdata	SEGMENT
$unwind$??$?H_K$0A@@glm@@YA?AU?$tvec2@_K$0A@@0@AEBU10@0@Z DD 021401H
	DD	070103214H
xdata	ENDS
;	COMDAT xdata
xdata	SEGMENT
$unwind$??$?G_K$0A@@glm@@YA?AU?$tvec2@_K$0A@@0@AEBU10@0@Z DD 021401H
	DD	070103214H
xdata	ENDS
;	COMDAT xdata
xdata	SEGMENT
$unwind$??$?H_K$0A@@glm@@YA?AU?$tvec2@_K$0A@@0@AEBU10@_K@Z DD 021401H
	DD	070103214H
xdata	ENDS
;	COMDAT xdata
xdata	SEGMENT
$unwind$??$min@_K@glm@@YA_K_K0@Z DD 020f01H
	DD	0700b120fH
xdata	ENDS
;	COMDAT xdata
xdata	SEGMENT
$unwind$??$max@_K@glm@@YA_K_K0@Z DD 020f01H
	DD	0700b120fH
xdata	ENDS
;	COMDAT xdata
xdata	SEGMENT
$unwind$?call@?$functor2@_K$0A@Utvec2@glm@@@detail@glm@@SA?AU?$tvec2@_K$0A@@3@P6A_K_K0@ZAEBU43@2@Z DD 021901H
	DD	070155219H
xdata	ENDS
;	COMDAT xdata
xdata	SEGMENT
$unwind$??$?HC$0A@@glm@@YA?AU?$tvec2@C$0A@@0@AEBU10@0@Z DD 021401H
	DD	070103214H
xdata	ENDS
;	COMDAT xdata
xdata	SEGMENT
$unwind$??$?0E$0A@@?$tvec2@C$0A@@glm@@QEAA@AEBU?$tvec2@E$0A@@1@@Z DD 010b01H
	DD	0700bH
xdata	ENDS
;	COMDAT xdata
xdata	SEGMENT
$unwind$??$?LE$0A@@glm@@YA?AU?$tvec2@E$0A@@0@AEBU10@0@Z DD 021401H
	DD	070105214H
xdata	ENDS
;	COMDAT xdata
xdata	SEGMENT
$unwind$??$?0C$0A@@?$tvec2@E$0A@@glm@@QEAA@AEBU?$tvec2@C$0A@@1@@Z DD 010b01H
	DD	0700bH
xdata	ENDS
;	COMDAT xdata
xdata	SEGMENT
$unwind$??$?GC$0A@@glm@@YA?AU?$tvec2@C$0A@@0@AEBU10@0@Z DD 021401H
	DD	070103214H
xdata	ENDS
;	COMDAT xdata
xdata	SEGMENT
$unwind$??$?HC$0A@@glm@@YA?AU?$tvec2@C$0A@@0@AEBU10@C@Z DD 021401H
	DD	070103214H
xdata	ENDS
;	COMDAT xdata
xdata	SEGMENT
$unwind$?call@?$compute_rand@E$0A@Utvec2@glm@@@detail@glm@@SA?AU?$tvec2@E$0A@@3@XZ DD 020a01H
	DD	07006720aH
xdata	ENDS
;	COMDAT xdata
xdata	SEGMENT
$unwind$??$min@C@glm@@YACCC@Z DD 020d01H
	DD	07009120dH
xdata	ENDS
;	COMDAT xdata
xdata	SEGMENT
$unwind$??$max@C@glm@@YACCC@Z DD 020d01H
	DD	07009120dH
xdata	ENDS
;	COMDAT xdata
xdata	SEGMENT
$unwind$?call@?$functor2@C$0A@Utvec2@glm@@@detail@glm@@SA?AU?$tvec2@C$0A@@3@P6ACCC@ZAEBU43@1@Z DD 021901H
	DD	070155219H
xdata	ENDS
;	COMDAT xdata
xdata	SEGMENT
$unwind$??$?HF$0A@@glm@@YA?AU?$tvec2@F$0A@@0@AEBU10@0@Z DD 021401H
	DD	070103214H
xdata	ENDS
;	COMDAT xdata
xdata	SEGMENT
$unwind$??$?0G$0A@@?$tvec2@F$0A@@glm@@QEAA@AEBU?$tvec2@G$0A@@1@@Z DD 010b01H
	DD	0700bH
xdata	ENDS
;	COMDAT xdata
xdata	SEGMENT
$unwind$??$?LG$0A@@glm@@YA?AU?$tvec2@G$0A@@0@AEBU10@0@Z DD 021401H
	DD	070105214H
xdata	ENDS
;	COMDAT xdata
xdata	SEGMENT
$unwind$??$?0F$0A@@?$tvec2@G$0A@@glm@@QEAA@AEBU?$tvec2@F$0A@@1@@Z DD 010b01H
	DD	0700bH
xdata	ENDS
;	COMDAT xdata
xdata	SEGMENT
$unwind$??$?GF$0A@@glm@@YA?AU?$tvec2@F$0A@@0@AEBU10@0@Z DD 021401H
	DD	070103214H
xdata	ENDS
;	COMDAT xdata
xdata	SEGMENT
$unwind$??$?HF$0A@@glm@@YA?AU?$tvec2@F$0A@@0@AEBU10@F@Z DD 021501H
	DD	070113215H
xdata	ENDS
;	COMDAT xdata
xdata	SEGMENT
$unwind$?call@?$compute_rand@G$0A@Utvec2@glm@@@detail@glm@@SA?AU?$tvec2@G$0A@@3@XZ DD 020a01H
	DD	07006720aH
xdata	ENDS
;	COMDAT xdata
xdata	SEGMENT
$unwind$??$min@F@glm@@YAFFF@Z DD 020f01H
	DD	0700b120fH
xdata	ENDS
;	COMDAT xdata
xdata	SEGMENT
$unwind$??$max@F@glm@@YAFFF@Z DD 020f01H
	DD	0700b120fH
xdata	ENDS
;	COMDAT xdata
xdata	SEGMENT
$unwind$?call@?$functor2@F$0A@Utvec2@glm@@@detail@glm@@SA?AU?$tvec2@F$0A@@3@P6AFFF@ZAEBU43@1@Z DD 021901H
	DD	070155219H
xdata	ENDS
;	COMDAT xdata
xdata	SEGMENT
$unwind$??$?HH$0A@@glm@@YA?AU?$tvec2@H$0A@@0@AEBU10@0@Z DD 021401H
	DD	070103214H
xdata	ENDS
;	COMDAT xdata
xdata	SEGMENT
$unwind$??$?0I$0A@@?$tvec2@H$0A@@glm@@QEAA@AEBU?$tvec2@I$0A@@1@@Z DD 010b01H
	DD	0700bH
xdata	ENDS
;	COMDAT xdata
xdata	SEGMENT
$unwind$??$?LI$0A@@glm@@YA?AU?$tvec2@I$0A@@0@AEBU10@0@Z DD 021401H
	DD	070105214H
xdata	ENDS
;	COMDAT xdata
xdata	SEGMENT
$unwind$??$?0H$0A@@?$tvec2@I$0A@@glm@@QEAA@AEBU?$tvec2@H$0A@@1@@Z DD 010b01H
	DD	0700bH
xdata	ENDS
;	COMDAT xdata
xdata	SEGMENT
$unwind$??$?GH$0A@@glm@@YA?AU?$tvec2@H$0A@@0@AEBU10@0@Z DD 021401H
	DD	070103214H
xdata	ENDS
;	COMDAT xdata
xdata	SEGMENT
$unwind$??$?HH$0A@@glm@@YA?AU?$tvec2@H$0A@@0@AEBU10@H@Z DD 021401H
	DD	070103214H
xdata	ENDS
;	COMDAT xdata
xdata	SEGMENT
$unwind$??$min@H@glm@@YAHHH@Z DD 020d01H
	DD	07009120dH
xdata	ENDS
;	COMDAT xdata
xdata	SEGMENT
$unwind$??$max@H@glm@@YAHHH@Z DD 020d01H
	DD	07009120dH
xdata	ENDS
;	COMDAT xdata
xdata	SEGMENT
$unwind$?call@?$functor2@H$0A@Utvec2@glm@@@detail@glm@@SA?AU?$tvec2@H$0A@@3@P6AHHH@ZAEBU43@1@Z DD 021901H
	DD	070155219H
xdata	ENDS
;	COMDAT xdata
xdata	SEGMENT
$unwind$??$?H_J$0A@@glm@@YA?AU?$tvec2@_J$0A@@0@AEBU10@0@Z DD 021401H
	DD	070103214H
xdata	ENDS
;	COMDAT xdata
xdata	SEGMENT
$unwind$??$?0_K$0A@@?$tvec2@_J$0A@@glm@@QEAA@AEBU?$tvec2@_K$0A@@1@@Z DD 010b01H
	DD	0700bH
xdata	ENDS
;	COMDAT xdata
xdata	SEGMENT
$unwind$??$?L_K$0A@@glm@@YA?AU?$tvec2@_K$0A@@0@AEBU10@0@Z DD 021401H
	DD	070105214H
xdata	ENDS
;	COMDAT xdata
xdata	SEGMENT
$unwind$??$?0_J$0A@@?$tvec2@_K$0A@@glm@@QEAA@AEBU?$tvec2@_J$0A@@1@@Z DD 010b01H
	DD	0700bH
xdata	ENDS
;	COMDAT xdata
xdata	SEGMENT
$unwind$??$?G_J$0A@@glm@@YA?AU?$tvec2@_J$0A@@0@AEBU10@0@Z DD 021401H
	DD	070103214H
xdata	ENDS
;	COMDAT xdata
xdata	SEGMENT
$unwind$??$?H_J$0A@@glm@@YA?AU?$tvec2@_J$0A@@0@AEBU10@_J@Z DD 021401H
	DD	070103214H
xdata	ENDS
;	COMDAT xdata
xdata	SEGMENT
$unwind$??$min@_J@glm@@YA_J_J0@Z DD 020f01H
	DD	0700b120fH
xdata	ENDS
;	COMDAT xdata
xdata	SEGMENT
$unwind$??$max@_J@glm@@YA_J_J0@Z DD 020f01H
	DD	0700b120fH
xdata	ENDS
;	COMDAT xdata
xdata	SEGMENT
$unwind$?call@?$functor2@_J$0A@Utvec2@glm@@@detail@glm@@SA?AU?$tvec2@_J$0A@@3@P6A_J_J0@ZAEBU43@2@Z DD 021901H
	DD	070155219H
xdata	ENDS
;	COMDAT xdata
xdata	SEGMENT
$unwind$??$?HM$0A@@glm@@YA?AU?$tvec2@M$0A@@0@AEBU10@0@Z DD 021401H
	DD	070103214H
xdata	ENDS
;	COMDAT xdata
xdata	SEGMENT
$unwind$??$?DM$0A@@glm@@YA?AU?$tvec2@M$0A@@0@AEBU10@0@Z DD 021401H
	DD	070103214H
xdata	ENDS
;	COMDAT xdata
xdata	SEGMENT
$unwind$??$?GM$0A@@glm@@YA?AU?$tvec2@M$0A@@0@AEBU10@0@Z DD 021401H
	DD	070103214H
xdata	ENDS
;	COMDAT xdata
xdata	SEGMENT
$unwind$??$?KM$0A@@glm@@YA?AU?$tvec2@M$0A@@0@AEBU10@M@Z DD 021501H
	DD	070113215H
xdata	ENDS
;	COMDAT xdata
xdata	SEGMENT
$unwind$??$?0I$0A@@?$tvec2@M$0A@@glm@@QEAA@AEBU?$tvec2@I$0A@@1@@Z DD 010b01H
	DD	0700bH
xdata	ENDS
;	COMDAT xdata
xdata	SEGMENT
$unwind$?call@?$compute_rand@I$0A@Utvec2@glm@@@detail@glm@@SA?AU?$tvec2@I$0A@@3@XZ DD 020a01H
	DD	07006920aH
xdata	ENDS
;	COMDAT xdata
xdata	SEGMENT
$unwind$??$?HN$0A@@glm@@YA?AU?$tvec2@N$0A@@0@AEBU10@0@Z DD 021401H
	DD	070103214H
xdata	ENDS
;	COMDAT xdata
xdata	SEGMENT
$unwind$??$?DN$0A@@glm@@YA?AU?$tvec2@N$0A@@0@AEBU10@0@Z DD 021401H
	DD	070103214H
xdata	ENDS
;	COMDAT xdata
xdata	SEGMENT
$unwind$??$?GN$0A@@glm@@YA?AU?$tvec2@N$0A@@0@AEBU10@0@Z DD 021401H
	DD	070103214H
xdata	ENDS
;	COMDAT xdata
xdata	SEGMENT
$unwind$??$?KN$0A@@glm@@YA?AU?$tvec2@N$0A@@0@AEBU10@N@Z DD 021501H
	DD	070113215H
xdata	ENDS
;	COMDAT xdata
xdata	SEGMENT
$unwind$??$?0_K$0A@@?$tvec2@N$0A@@glm@@QEAA@AEBU?$tvec2@_K$0A@@1@@Z DD 010b01H
	DD	0700bH
xdata	ENDS
;	COMDAT xdata
xdata	SEGMENT
$unwind$?call@?$compute_rand@_K$0A@Utvec2@glm@@@detail@glm@@SA?AU?$tvec2@_K$0A@@3@XZ DD 020d01H
	DD	07006f20dH
xdata	ENDS
;	COMDAT xdata
xdata	SEGMENT
$unwind$??$?HM$0A@@glm@@YA?AU?$tvec1@M$0A@@0@AEBU10@0@Z DD 021401H
	DD	070103214H
xdata	ENDS
;	COMDAT xdata
xdata	SEGMENT
$unwind$??$?DM$0A@@glm@@YA?AU?$tvec1@M$0A@@0@AEBU10@0@Z DD 021401H
	DD	070103214H
xdata	ENDS
;	COMDAT xdata
xdata	SEGMENT
$unwind$??$?GM$0A@@glm@@YA?AU?$tvec1@M$0A@@0@AEBU10@0@Z DD 021401H
	DD	070103214H
xdata	ENDS
;	COMDAT xdata
xdata	SEGMENT
$unwind$??$?KM$0A@@glm@@YA?AU?$tvec1@M$0A@@0@AEBU10@M@Z DD 021501H
	DD	070113215H
xdata	ENDS
;	COMDAT xdata
xdata	SEGMENT
$unwind$??$?0I$0A@@?$tvec1@M$0A@@glm@@QEAA@AEBU?$tvec1@I$0A@@1@@Z DD 010b01H
	DD	0700bH
xdata	ENDS
;	COMDAT xdata
xdata	SEGMENT
$unwind$??0?$tvec1@I$0A@@glm@@QEAA@I@Z DD 010a01H
	DD	0700aH
xdata	ENDS
;	COMDAT xdata
xdata	SEGMENT
$unwind$?call@?$compute_rand@I$0A@Utvec1@glm@@@detail@glm@@SA?AU?$tvec1@I$0A@@3@XZ DD 020a01H
	DD	07006720aH
xdata	ENDS
;	COMDAT xdata
xdata	SEGMENT
$unwind$??$?HN$0A@@glm@@YA?AU?$tvec1@N$0A@@0@AEBU10@0@Z DD 021401H
	DD	070103214H
xdata	ENDS
;	COMDAT xdata
xdata	SEGMENT
$unwind$??$?DN$0A@@glm@@YA?AU?$tvec1@N$0A@@0@AEBU10@0@Z DD 021401H
	DD	070103214H
xdata	ENDS
;	COMDAT xdata
xdata	SEGMENT
$unwind$??$?GN$0A@@glm@@YA?AU?$tvec1@N$0A@@0@AEBU10@0@Z DD 021401H
	DD	070103214H
xdata	ENDS
;	COMDAT xdata
xdata	SEGMENT
$unwind$??$?KN$0A@@glm@@YA?AU?$tvec1@N$0A@@0@AEBU10@N@Z DD 021501H
	DD	070113215H
xdata	ENDS
;	COMDAT xdata
xdata	SEGMENT
$unwind$??$?0_K$0A@@?$tvec1@N$0A@@glm@@QEAA@AEBU?$tvec1@_K$0A@@1@@Z DD 010b01H
	DD	0700bH
xdata	ENDS
;	COMDAT xdata
xdata	SEGMENT
$unwind$??0?$tvec1@_K$0A@@glm@@QEAA@_K@Z DD 010b01H
	DD	0700bH
xdata	ENDS
;	COMDAT xdata
xdata	SEGMENT
$unwind$?call@?$compute_rand@_K$0A@Utvec1@glm@@@detail@glm@@SA?AU?$tvec1@_K$0A@@3@XZ DD 020a01H
	DD	07006b20aH
xdata	ENDS
;	COMDAT xdata
xdata	SEGMENT
$unwind$??$dot@M$0A@Utvec2@glm@@@glm@@YAMAEBU?$tvec2@M$0A@@0@0@Z DD 020f01H
	DD	0700b520fH
xdata	ENDS
;	COMDAT xdata
xdata	SEGMENT
$unwind$??$dot@N$0A@Utvec2@glm@@@glm@@YANAEBU?$tvec2@N$0A@@0@0@Z DD 020f01H
	DD	0700b520fH
xdata	ENDS
;	COMDAT xdata
xdata	SEGMENT
$unwind$??$dot@M$0A@Utvec3@glm@@@glm@@YAMAEBU?$tvec3@M$0A@@0@0@Z DD 020f01H
	DD	0700b520fH
xdata	ENDS
;	COMDAT xdata
xdata	SEGMENT
$unwind$??$dot@N$0A@Utvec3@glm@@@glm@@YANAEBU?$tvec3@N$0A@@0@0@Z DD 020f01H
	DD	0700b520fH
xdata	ENDS
;	COMDAT xdata
xdata	SEGMENT
$unwind$??$linearRand@N$0A@Utvec3@glm@@@glm@@YA?AU?$tvec3@N$0A@@0@AEBU10@0@Z DD 021401H
	DD	070103214H
xdata	ENDS
;	COMDAT xdata
xdata	SEGMENT
$unwind$??$linearRand@M$0A@Utvec3@glm@@@glm@@YA?AU?$tvec3@M$0A@@0@AEBU10@0@Z DD 021401H
	DD	070103214H
xdata	ENDS
;	COMDAT xdata
xdata	SEGMENT
$unwind$?call@?$compute_length@Utvec3@glm@@N$0A@$0A@@detail@glm@@SANAEBU?$tvec3@N$0A@@3@@Z DD 020a01H
	DD	07006520aH
xdata	ENDS
;	COMDAT xdata
xdata	SEGMENT
$unwind$??$?DN$0A@@glm@@YA?AU?$tvec3@N$0A@@0@AEBU10@N@Z DD 021501H
	DD	070115215H
xdata	ENDS
;	COMDAT xdata
xdata	SEGMENT
$unwind$?call@?$compute_length@Utvec3@glm@@M$0A@$0A@@detail@glm@@SAMAEBU?$tvec3@M$0A@@3@@Z DD 020a01H
	DD	07006520aH
xdata	ENDS
;	COMDAT xdata
xdata	SEGMENT
$unwind$??$?DM$0A@@glm@@YA?AU?$tvec3@M$0A@@0@AEBU10@M@Z DD 021501H
	DD	070115215H
xdata	ENDS
;	COMDAT xdata
xdata	SEGMENT
$unwind$?call@?$compute_length@Utvec2@glm@@N$0A@$0A@@detail@glm@@SANAEBU?$tvec2@N$0A@@3@@Z DD 020a01H
	DD	07006520aH
xdata	ENDS
;	COMDAT xdata
xdata	SEGMENT
$unwind$??$?DN$0A@@glm@@YA?AU?$tvec2@N$0A@@0@AEBU10@N@Z DD 021501H
	DD	070113215H
xdata	ENDS
;	COMDAT xdata
xdata	SEGMENT
$unwind$?call@?$compute_length@Utvec2@glm@@M$0A@$0A@@detail@glm@@SAMAEBU?$tvec2@M$0A@@3@@Z DD 020a01H
	DD	07006520aH
xdata	ENDS
;	COMDAT xdata
xdata	SEGMENT
$unwind$??$?DM$0A@@glm@@YA?AU?$tvec2@M$0A@@0@AEBU10@M@Z DD 021501H
	DD	070113215H
xdata	ENDS
;	COMDAT xdata
xdata	SEGMENT
$unwind$??0?$tvec1@N$0A@@glm@@QEAA@N@Z DD 010c01H
	DD	0700cH
xdata	ENDS
;	COMDAT xdata
xdata	SEGMENT
$unwind$?call@?$compute_linearRand@N$0A@Utvec1@glm@@@detail@glm@@SA?AU?$tvec1@N$0A@@3@AEBU43@0@Z DD 021401H
	DD	07010b214H
xdata	ENDS
;	COMDAT xdata
xdata	SEGMENT
$unwind$??0?$tvec1@M$0A@@glm@@QEAA@M@Z DD 010c01H
	DD	0700cH
xdata	ENDS
;	COMDAT xdata
xdata	SEGMENT
$unwind$?call@?$compute_linearRand@M$0A@Utvec1@glm@@@detail@glm@@SA?AU?$tvec1@M$0A@@3@AEBU43@0@Z DD 021401H
	DD	070109214H
xdata	ENDS
;	COMDAT xdata
xdata	SEGMENT
$unwind$?call@?$compute_linearRand@N$0A@Utvec2@glm@@@detail@glm@@SA?AU?$tvec2@N$0A@@3@AEBU43@0@Z DD 021701H
	DD	07010f217H
xdata	ENDS
;	COMDAT xdata
xdata	SEGMENT
$unwind$?call@?$compute_linearRand@M$0A@Utvec2@glm@@@detail@glm@@SA?AU?$tvec2@M$0A@@3@AEBU43@0@Z DD 021401H
	DD	07010b214H
xdata	ENDS
;	COMDAT xdata
xdata	SEGMENT
$unwind$?call@?$compute_max_vector@_J$0A@Utvec2@glm@@$0A@@detail@glm@@SA?AU?$tvec2@_J$0A@@3@AEBU43@0@Z DD 021401H
	DD	070103214H
xdata	ENDS
;	COMDAT xdata
xdata	SEGMENT
$unwind$?call@?$compute_min_vector@_J$0A@Utvec2@glm@@$0A@@detail@glm@@SA?AU?$tvec2@_J$0A@@3@AEBU43@0@Z DD 021401H
	DD	070103214H
xdata	ENDS
;	COMDAT xdata
xdata	SEGMENT
$unwind$?call@?$compute_linearRand@_J$0A@Utvec2@glm@@@detail@glm@@SA?AU?$tvec2@_J$0A@@3@AEBU43@0@Z DD 031701H
	DD	0120117H
	DD	07010H
xdata	ENDS
;	COMDAT xdata
xdata	SEGMENT
$unwind$?call@?$compute_max_vector@H$0A@Utvec2@glm@@$0A@@detail@glm@@SA?AU?$tvec2@H$0A@@3@AEBU43@0@Z DD 021401H
	DD	070103214H
xdata	ENDS
;	COMDAT xdata
xdata	SEGMENT
$unwind$?call@?$compute_min_vector@H$0A@Utvec2@glm@@$0A@@detail@glm@@SA?AU?$tvec2@H$0A@@3@AEBU43@0@Z DD 021401H
	DD	070103214H
xdata	ENDS
;	COMDAT xdata
xdata	SEGMENT
$unwind$?call@?$compute_linearRand@H$0A@Utvec2@glm@@@detail@glm@@SA?AU?$tvec2@H$0A@@3@AEBU43@0@Z DD 021401H
	DD	07010b214H
xdata	ENDS
;	COMDAT xdata
xdata	SEGMENT
$unwind$?call@?$compute_max_vector@F$0A@Utvec2@glm@@$0A@@detail@glm@@SA?AU?$tvec2@F$0A@@3@AEBU43@0@Z DD 021401H
	DD	070103214H
xdata	ENDS
;	COMDAT xdata
xdata	SEGMENT
$unwind$?call@?$compute_min_vector@F$0A@Utvec2@glm@@$0A@@detail@glm@@SA?AU?$tvec2@F$0A@@3@AEBU43@0@Z DD 021401H
	DD	070103214H
xdata	ENDS
;	COMDAT xdata
xdata	SEGMENT
$unwind$?call@?$compute_linearRand@F$0A@Utvec2@glm@@@detail@glm@@SA?AU?$tvec2@F$0A@@3@AEBU43@0@Z DD 021401H
	DD	070107214H
xdata	ENDS
;	COMDAT xdata
xdata	SEGMENT
$unwind$?call@?$compute_max_vector@C$0A@Utvec2@glm@@$0A@@detail@glm@@SA?AU?$tvec2@C$0A@@3@AEBU43@0@Z DD 021401H
	DD	070103214H
xdata	ENDS
;	COMDAT xdata
xdata	SEGMENT
$unwind$?call@?$compute_min_vector@C$0A@Utvec2@glm@@$0A@@detail@glm@@SA?AU?$tvec2@C$0A@@3@AEBU43@0@Z DD 021401H
	DD	070103214H
xdata	ENDS
;	COMDAT xdata
xdata	SEGMENT
$unwind$?call@?$compute_linearRand@C$0A@Utvec2@glm@@@detail@glm@@SA?AU?$tvec2@C$0A@@3@AEBU43@0@Z DD 021401H
	DD	070107214H
xdata	ENDS
;	COMDAT xdata
xdata	SEGMENT
$unwind$?call@?$compute_max_vector@_K$0A@Utvec2@glm@@$0A@@detail@glm@@SA?AU?$tvec2@_K$0A@@3@AEBU43@0@Z DD 021401H
	DD	070103214H
xdata	ENDS
;	COMDAT xdata
xdata	SEGMENT
$unwind$?call@?$compute_min_vector@_K$0A@Utvec2@glm@@$0A@@detail@glm@@SA?AU?$tvec2@_K$0A@@3@AEBU43@0@Z DD 021401H
	DD	070103214H
xdata	ENDS
;	COMDAT xdata
xdata	SEGMENT
$unwind$?call@?$compute_linearRand@_K$0A@Utvec2@glm@@@detail@glm@@SA?AU?$tvec2@_K$0A@@3@AEBU43@0@Z DD 021401H
	DD	07010d214H
xdata	ENDS
;	COMDAT xdata
xdata	SEGMENT
$unwind$?call@?$compute_max_vector@I$0A@Utvec2@glm@@$0A@@detail@glm@@SA?AU?$tvec2@I$0A@@3@AEBU43@0@Z DD 021401H
	DD	070103214H
xdata	ENDS
;	COMDAT xdata
xdata	SEGMENT
$unwind$?call@?$compute_min_vector@I$0A@Utvec2@glm@@$0A@@detail@glm@@SA?AU?$tvec2@I$0A@@3@AEBU43@0@Z DD 021401H
	DD	070103214H
xdata	ENDS
;	COMDAT xdata
xdata	SEGMENT
$unwind$?call@?$compute_linearRand@I$0A@Utvec2@glm@@@detail@glm@@SA?AU?$tvec2@I$0A@@3@AEBU43@0@Z DD 021401H
	DD	070109214H
xdata	ENDS
;	COMDAT xdata
xdata	SEGMENT
$unwind$?call@?$compute_max_vector@G$0A@Utvec2@glm@@$0A@@detail@glm@@SA?AU?$tvec2@G$0A@@3@AEBU43@0@Z DD 021401H
	DD	070103214H
xdata	ENDS
;	COMDAT xdata
xdata	SEGMENT
$unwind$?call@?$compute_min_vector@G$0A@Utvec2@glm@@$0A@@detail@glm@@SA?AU?$tvec2@G$0A@@3@AEBU43@0@Z DD 021401H
	DD	070103214H
xdata	ENDS
;	COMDAT xdata
xdata	SEGMENT
$unwind$?call@?$compute_linearRand@G$0A@Utvec2@glm@@@detail@glm@@SA?AU?$tvec2@G$0A@@3@AEBU43@0@Z DD 021401H
	DD	070107214H
xdata	ENDS
;	COMDAT xdata
xdata	SEGMENT
$unwind$?call@?$compute_max_vector@E$0A@Utvec2@glm@@$0A@@detail@glm@@SA?AU?$tvec2@E$0A@@3@AEBU43@0@Z DD 021401H
	DD	070103214H
xdata	ENDS
;	COMDAT xdata
xdata	SEGMENT
$unwind$?call@?$compute_min_vector@E$0A@Utvec2@glm@@$0A@@detail@glm@@SA?AU?$tvec2@E$0A@@3@AEBU43@0@Z DD 021401H
	DD	070103214H
xdata	ENDS
;	COMDAT xdata
xdata	SEGMENT
$unwind$?call@?$compute_linearRand@E$0A@Utvec2@glm@@@detail@glm@@SA?AU?$tvec2@E$0A@@3@AEBU43@0@Z DD 021401H
	DD	070105214H
xdata	ENDS
;	COMDAT xdata
xdata	SEGMENT
$unwind$?call@?$compute_abs@N$00@detail@glm@@SANN@Z DD 020b01H
	DD	07007320bH
xdata	ENDS
;	COMDAT xdata
xdata	SEGMENT
$unwind$?call@?$compute_abs@M$00@detail@glm@@SAMM@Z DD 020b01H
	DD	07007320bH
xdata	ENDS
;	COMDAT xdata
xdata	SEGMENT
$unwind$??$ballRand@N@glm@@YA?AU?$tvec3@N$0A@@0@N@Z DD 042d01H
	DD	0150114H
	DD	0600c700dH
xdata	ENDS
;	COMDAT CONST
CONST	SEGMENT
??$ballRand@N@glm@@YA?AU?$tvec3@N$0A@@0@N@Z$rtcName$0 DB 052H ; glm::ballRand<double>
	DB	065H
	DB	073H
	DB	075H
	DB	06cH
	DB	074H
	DB	00H
	ORG $+9
??$ballRand@N@glm@@YA?AU?$tvec3@N$0A@@0@N@Z$rtcVarDesc DD 028H ; glm::ballRand<double>
	DD	018H
	DQ	FLAT:??$ballRand@N@glm@@YA?AU?$tvec3@N$0A@@0@N@Z$rtcName$0
	ORG $+48
??$ballRand@N@glm@@YA?AU?$tvec3@N$0A@@0@N@Z$rtcFrameData DD 01H ; glm::ballRand<double>
	DD	00H
	DQ	FLAT:??$ballRand@N@glm@@YA?AU?$tvec3@N$0A@@0@N@Z$rtcVarDesc
CONST	ENDS
;	COMDAT xdata
xdata	SEGMENT
$unwind$??$ballRand@M@glm@@YA?AU?$tvec3@M$0A@@0@M@Z DD 042d01H
	DD	0110114H
	DD	0600c700dH
xdata	ENDS
;	COMDAT CONST
CONST	SEGMENT
??$ballRand@M@glm@@YA?AU?$tvec3@M$0A@@0@M@Z$rtcName$0 DB 052H ; glm::ballRand<float>
	DB	065H
	DB	073H
	DB	075H
	DB	06cH
	DB	074H
	DB	00H
	ORG $+9
??$ballRand@M@glm@@YA?AU?$tvec3@M$0A@@0@M@Z$rtcVarDesc DD 028H ; glm::ballRand<float>
	DD	0cH
	DQ	FLAT:??$ballRand@M@glm@@YA?AU?$tvec3@M$0A@@0@M@Z$rtcName$0
	ORG $+48
??$ballRand@M@glm@@YA?AU?$tvec3@M$0A@@0@M@Z$rtcFrameData DD 01H ; glm::ballRand<float>
	DD	00H
	DQ	FLAT:??$ballRand@M@glm@@YA?AU?$tvec3@M$0A@@0@M@Z$rtcVarDesc
CONST	ENDS
;	COMDAT xdata
xdata	SEGMENT
$unwind$??$diskRand@N@glm@@YA?AU?$tvec2@N$0A@@0@N@Z DD 042d01H
	DD	0130114H
	DD	0600c700dH
xdata	ENDS
;	COMDAT CONST
CONST	SEGMENT
??$diskRand@N@glm@@YA?AU?$tvec2@N$0A@@0@N@Z$rtcName$0 DB 052H ; glm::diskRand<double>
	DB	065H
	DB	073H
	DB	075H
	DB	06cH
	DB	074H
	DB	00H
	ORG $+9
??$diskRand@N@glm@@YA?AU?$tvec2@N$0A@@0@N@Z$rtcVarDesc DD 028H ; glm::diskRand<double>
	DD	010H
	DQ	FLAT:??$diskRand@N@glm@@YA?AU?$tvec2@N$0A@@0@N@Z$rtcName$0
	ORG $+48
??$diskRand@N@glm@@YA?AU?$tvec2@N$0A@@0@N@Z$rtcFrameData DD 01H ; glm::diskRand<double>
	DD	00H
	DQ	FLAT:??$diskRand@N@glm@@YA?AU?$tvec2@N$0A@@0@N@Z$rtcVarDesc
CONST	ENDS
;	COMDAT xdata
xdata	SEGMENT
$unwind$??$diskRand@M@glm@@YA?AU?$tvec2@M$0A@@0@M@Z DD 022601H
	DD	0700cb210H
xdata	ENDS
;	COMDAT CONST
CONST	SEGMENT
??$diskRand@M@glm@@YA?AU?$tvec2@M$0A@@0@M@Z$rtcName$0 DB 052H ; glm::diskRand<float>
	DB	065H
	DB	073H
	DB	075H
	DB	06cH
	DB	074H
	DB	00H
	ORG $+9
??$diskRand@M@glm@@YA?AU?$tvec2@M$0A@@0@M@Z$rtcVarDesc DD 028H ; glm::diskRand<float>
	DD	08H
	DQ	FLAT:??$diskRand@M@glm@@YA?AU?$tvec2@M$0A@@0@M@Z$rtcName$0
	ORG $+48
??$diskRand@M@glm@@YA?AU?$tvec2@M$0A@@0@M@Z$rtcFrameData DD 01H ; glm::diskRand<float>
	DD	00H
	DQ	FLAT:??$diskRand@M@glm@@YA?AU?$tvec2@M$0A@@0@M@Z$rtcVarDesc
CONST	ENDS
;	COMDAT xdata
xdata	SEGMENT
$unwind$??$length@N$0A@Utvec3@glm@@@glm@@YANAEBU?$tvec3@N$0A@@0@@Z DD 020a01H
	DD	07006520aH
xdata	ENDS
;	COMDAT xdata
xdata	SEGMENT
$unwind$??0?$tvec3@N$0A@@glm@@QEAA@NNN@Z DD 011801H
	DD	07018H
xdata	ENDS
;	COMDAT xdata
xdata	SEGMENT
$unwind$??0?$tvec3@N$0A@@glm@@QEAA@N@Z DD 010c01H
	DD	0700cH
xdata	ENDS
;	COMDAT xdata
xdata	SEGMENT
$unwind$??$sphericalRand@N@glm@@YA?AU?$tvec3@N$0A@@0@N@Z DD 021001H
	DD	0700cb210H
xdata	ENDS
;	COMDAT xdata
xdata	SEGMENT
$unwind$??$length@M$0A@Utvec3@glm@@@glm@@YAMAEBU?$tvec3@M$0A@@0@@Z DD 020a01H
	DD	07006520aH
xdata	ENDS
;	COMDAT xdata
xdata	SEGMENT
$unwind$??0?$tvec3@M$0A@@glm@@QEAA@MMM@Z DD 011801H
	DD	07018H
xdata	ENDS
;	COMDAT xdata
xdata	SEGMENT
$unwind$??0?$tvec3@M$0A@@glm@@QEAA@M@Z DD 010c01H
	DD	0700cH
xdata	ENDS
;	COMDAT xdata
xdata	SEGMENT
$unwind$??$sphericalRand@M@glm@@YA?AU?$tvec3@M$0A@@0@M@Z DD 021001H
	DD	0700c7210H
xdata	ENDS
;	COMDAT xdata
xdata	SEGMENT
$unwind$??$length@N$0A@Utvec2@glm@@@glm@@YANAEBU?$tvec2@N$0A@@0@@Z DD 020a01H
	DD	07006520aH
xdata	ENDS
;	COMDAT xdata
xdata	SEGMENT
$unwind$??$circularRand@N@glm@@YA?AU?$tvec2@N$0A@@0@N@Z DD 021001H
	DD	0700c7210H
xdata	ENDS
;	COMDAT xdata
xdata	SEGMENT
$unwind$??$length@M$0A@Utvec2@glm@@@glm@@YAMAEBU?$tvec2@M$0A@@0@@Z DD 020a01H
	DD	07006520aH
xdata	ENDS
;	COMDAT xdata
xdata	SEGMENT
$unwind$??$circularRand@M@glm@@YA?AU?$tvec2@M$0A@@0@M@Z DD 021001H
	DD	0700c5210H
xdata	ENDS
;	COMDAT xdata
xdata	SEGMENT
$unwind$??$linearRand@N@glm@@YANNN@Z DD 021101H
	DD	0700d9211H
xdata	ENDS
;	COMDAT xdata
xdata	SEGMENT
$unwind$??$linearRand@M@glm@@YAMMM@Z DD 021101H
	DD	0700d9211H
xdata	ENDS
;	COMDAT xdata
xdata	SEGMENT
$unwind$??$greaterThanEqual@N$0A@Utvec2@glm@@@glm@@YA?AU?$tvec2@_N$0A@@0@AEBU?$tvec2@N$0A@@0@0@Z DD 022a01H
	DD	070109214H
xdata	ENDS
;	COMDAT CONST
CONST	SEGMENT
??$greaterThanEqual@N$0A@Utvec2@glm@@@glm@@YA?AU?$tvec2@_N$0A@@0@AEBU?$tvec2@N$0A@@0@0@Z$rtcName$0 DB 052H ; glm::greaterThanEqual<double,0,glm::tvec2>
	DB	065H
	DB	073H
	DB	075H
	DB	06cH
	DB	074H
	DB	00H
	ORG $+9
??$greaterThanEqual@N$0A@Utvec2@glm@@@glm@@YA?AU?$tvec2@_N$0A@@0@AEBU?$tvec2@N$0A@@0@0@Z$rtcVarDesc DD 024H ; glm::greaterThanEqual<double,0,glm::tvec2>
	DD	02H
	DQ	FLAT:??$greaterThanEqual@N$0A@Utvec2@glm@@@glm@@YA?AU?$tvec2@_N$0A@@0@AEBU?$tvec2@N$0A@@0@0@Z$rtcName$0
	ORG $+48
??$greaterThanEqual@N$0A@Utvec2@glm@@@glm@@YA?AU?$tvec2@_N$0A@@0@AEBU?$tvec2@N$0A@@0@0@Z$rtcFrameData DD 01H ; glm::greaterThanEqual<double,0,glm::tvec2>
	DD	00H
	DQ	FLAT:??$greaterThanEqual@N$0A@Utvec2@glm@@@glm@@YA?AU?$tvec2@_N$0A@@0@AEBU?$tvec2@N$0A@@0@0@Z$rtcVarDesc
CONST	ENDS
;	COMDAT xdata
xdata	SEGMENT
$unwind$??$lessThanEqual@N$0A@Utvec2@glm@@@glm@@YA?AU?$tvec2@_N$0A@@0@AEBU?$tvec2@N$0A@@0@0@Z DD 022a01H
	DD	070109214H
xdata	ENDS
;	COMDAT CONST
CONST	SEGMENT
??$lessThanEqual@N$0A@Utvec2@glm@@@glm@@YA?AU?$tvec2@_N$0A@@0@AEBU?$tvec2@N$0A@@0@0@Z$rtcName$0 DB 052H ; glm::lessThanEqual<double,0,glm::tvec2>
	DB	065H
	DB	073H
	DB	075H
	DB	06cH
	DB	074H
	DB	00H
	ORG $+9
??$lessThanEqual@N$0A@Utvec2@glm@@@glm@@YA?AU?$tvec2@_N$0A@@0@AEBU?$tvec2@N$0A@@0@0@Z$rtcVarDesc DD 024H ; glm::lessThanEqual<double,0,glm::tvec2>
	DD	02H
	DQ	FLAT:??$lessThanEqual@N$0A@Utvec2@glm@@@glm@@YA?AU?$tvec2@_N$0A@@0@AEBU?$tvec2@N$0A@@0@0@Z$rtcName$0
	ORG $+48
??$lessThanEqual@N$0A@Utvec2@glm@@@glm@@YA?AU?$tvec2@_N$0A@@0@AEBU?$tvec2@N$0A@@0@0@Z$rtcFrameData DD 01H ; glm::lessThanEqual<double,0,glm::tvec2>
	DD	00H
	DQ	FLAT:??$lessThanEqual@N$0A@Utvec2@glm@@@glm@@YA?AU?$tvec2@_N$0A@@0@AEBU?$tvec2@N$0A@@0@0@Z$rtcVarDesc
CONST	ENDS
;	COMDAT xdata
xdata	SEGMENT
$unwind$??$linearRand@N$0A@Utvec2@glm@@@glm@@YA?AU?$tvec2@N$0A@@0@AEBU10@0@Z DD 021401H
	DD	070103214H
xdata	ENDS
;	COMDAT xdata
xdata	SEGMENT
$unwind$??0?$tvec2@N$0A@@glm@@QEAA@NN@Z DD 011201H
	DD	07012H
xdata	ENDS
;	COMDAT xdata
xdata	SEGMENT
$unwind$??0?$tvec2@N$0A@@glm@@QEAA@N@Z DD 010c01H
	DD	0700cH
xdata	ENDS
;	COMDAT xdata
xdata	SEGMENT
$unwind$??A?$tvec2@N$0A@@glm@@QEBAAEBNH@Z DD 020e01H
	DD	0700a320eH
xdata	ENDS
;	COMDAT xdata
xdata	SEGMENT
$unwind$?length@?$tvec2@N$0A@@glm@@SAHXZ DD 010201H
	DD	07002H
xdata	ENDS
;	COMDAT xdata
xdata	SEGMENT
$unwind$??$greaterThanEqual@M$0A@Utvec2@glm@@@glm@@YA?AU?$tvec2@_N$0A@@0@AEBU?$tvec2@M$0A@@0@0@Z DD 022a01H
	DD	070109214H
xdata	ENDS
;	COMDAT CONST
CONST	SEGMENT
??$greaterThanEqual@M$0A@Utvec2@glm@@@glm@@YA?AU?$tvec2@_N$0A@@0@AEBU?$tvec2@M$0A@@0@0@Z$rtcName$0 DB 052H ; glm::greaterThanEqual<float,0,glm::tvec2>
	DB	065H
	DB	073H
	DB	075H
	DB	06cH
	DB	074H
	DB	00H
	ORG $+9
??$greaterThanEqual@M$0A@Utvec2@glm@@@glm@@YA?AU?$tvec2@_N$0A@@0@AEBU?$tvec2@M$0A@@0@0@Z$rtcVarDesc DD 024H ; glm::greaterThanEqual<float,0,glm::tvec2>
	DD	02H
	DQ	FLAT:??$greaterThanEqual@M$0A@Utvec2@glm@@@glm@@YA?AU?$tvec2@_N$0A@@0@AEBU?$tvec2@M$0A@@0@0@Z$rtcName$0
	ORG $+48
??$greaterThanEqual@M$0A@Utvec2@glm@@@glm@@YA?AU?$tvec2@_N$0A@@0@AEBU?$tvec2@M$0A@@0@0@Z$rtcFrameData DD 01H ; glm::greaterThanEqual<float,0,glm::tvec2>
	DD	00H
	DQ	FLAT:??$greaterThanEqual@M$0A@Utvec2@glm@@@glm@@YA?AU?$tvec2@_N$0A@@0@AEBU?$tvec2@M$0A@@0@0@Z$rtcVarDesc
CONST	ENDS
;	COMDAT xdata
xdata	SEGMENT
$unwind$??$lessThanEqual@M$0A@Utvec2@glm@@@glm@@YA?AU?$tvec2@_N$0A@@0@AEBU?$tvec2@M$0A@@0@0@Z DD 022a01H
	DD	070109214H
xdata	ENDS
;	COMDAT CONST
CONST	SEGMENT
??$lessThanEqual@M$0A@Utvec2@glm@@@glm@@YA?AU?$tvec2@_N$0A@@0@AEBU?$tvec2@M$0A@@0@0@Z$rtcName$0 DB 052H ; glm::lessThanEqual<float,0,glm::tvec2>
	DB	065H
	DB	073H
	DB	075H
	DB	06cH
	DB	074H
	DB	00H
	ORG $+9
??$lessThanEqual@M$0A@Utvec2@glm@@@glm@@YA?AU?$tvec2@_N$0A@@0@AEBU?$tvec2@M$0A@@0@0@Z$rtcVarDesc DD 024H ; glm::lessThanEqual<float,0,glm::tvec2>
	DD	02H
	DQ	FLAT:??$lessThanEqual@M$0A@Utvec2@glm@@@glm@@YA?AU?$tvec2@_N$0A@@0@AEBU?$tvec2@M$0A@@0@0@Z$rtcName$0
	ORG $+48
??$lessThanEqual@M$0A@Utvec2@glm@@@glm@@YA?AU?$tvec2@_N$0A@@0@AEBU?$tvec2@M$0A@@0@0@Z$rtcFrameData DD 01H ; glm::lessThanEqual<float,0,glm::tvec2>
	DD	00H
	DQ	FLAT:??$lessThanEqual@M$0A@Utvec2@glm@@@glm@@YA?AU?$tvec2@_N$0A@@0@AEBU?$tvec2@M$0A@@0@0@Z$rtcVarDesc
CONST	ENDS
;	COMDAT xdata
xdata	SEGMENT
$unwind$??$linearRand@M$0A@Utvec2@glm@@@glm@@YA?AU?$tvec2@M$0A@@0@AEBU10@0@Z DD 021401H
	DD	070103214H
xdata	ENDS
;	COMDAT xdata
xdata	SEGMENT
$unwind$??0?$tvec2@M$0A@@glm@@QEAA@MM@Z DD 011201H
	DD	07012H
xdata	ENDS
;	COMDAT xdata
xdata	SEGMENT
$unwind$??0?$tvec2@M$0A@@glm@@QEAA@M@Z DD 010c01H
	DD	0700cH
xdata	ENDS
;	COMDAT xdata
xdata	SEGMENT
$unwind$??A?$tvec2@M$0A@@glm@@QEBAAEBMH@Z DD 020e01H
	DD	0700a320eH
xdata	ENDS
;	COMDAT xdata
xdata	SEGMENT
$unwind$?length@?$tvec2@M$0A@@glm@@SAHXZ DD 010201H
	DD	07002H
xdata	ENDS
;	COMDAT xdata
xdata	SEGMENT
$unwind$??$equal@_J$0A@Utvec2@glm@@@glm@@YA?AU?$tvec2@_N$0A@@0@AEBU?$tvec2@_J$0A@@0@0@Z DD 022a01H
	DD	070109214H
xdata	ENDS
;	COMDAT CONST
CONST	SEGMENT
??$equal@_J$0A@Utvec2@glm@@@glm@@YA?AU?$tvec2@_N$0A@@0@AEBU?$tvec2@_J$0A@@0@0@Z$rtcName$0 DB 052H ; glm::equal<__int64,0,glm::tvec2>
	DB	065H
	DB	073H
	DB	075H
	DB	06cH
	DB	074H
	DB	00H
	ORG $+9
??$equal@_J$0A@Utvec2@glm@@@glm@@YA?AU?$tvec2@_N$0A@@0@AEBU?$tvec2@_J$0A@@0@0@Z$rtcVarDesc DD 024H ; glm::equal<__int64,0,glm::tvec2>
	DD	02H
	DQ	FLAT:??$equal@_J$0A@Utvec2@glm@@@glm@@YA?AU?$tvec2@_N$0A@@0@AEBU?$tvec2@_J$0A@@0@0@Z$rtcName$0
	ORG $+48
??$equal@_J$0A@Utvec2@glm@@@glm@@YA?AU?$tvec2@_N$0A@@0@AEBU?$tvec2@_J$0A@@0@0@Z$rtcFrameData DD 01H ; glm::equal<__int64,0,glm::tvec2>
	DD	00H
	DQ	FLAT:??$equal@_J$0A@Utvec2@glm@@@glm@@YA?AU?$tvec2@_N$0A@@0@AEBU?$tvec2@_J$0A@@0@0@Z$rtcVarDesc
CONST	ENDS
;	COMDAT xdata
xdata	SEGMENT
$unwind$??$greaterThanEqual@_J$0A@Utvec2@glm@@@glm@@YA?AU?$tvec2@_N$0A@@0@AEBU?$tvec2@_J$0A@@0@0@Z DD 022a01H
	DD	070109214H
xdata	ENDS
;	COMDAT CONST
CONST	SEGMENT
??$greaterThanEqual@_J$0A@Utvec2@glm@@@glm@@YA?AU?$tvec2@_N$0A@@0@AEBU?$tvec2@_J$0A@@0@0@Z$rtcName$0 DB 052H ; glm::greaterThanEqual<__int64,0,glm::tvec2>
	DB	065H
	DB	073H
	DB	075H
	DB	06cH
	DB	074H
	DB	00H
	ORG $+9
??$greaterThanEqual@_J$0A@Utvec2@glm@@@glm@@YA?AU?$tvec2@_N$0A@@0@AEBU?$tvec2@_J$0A@@0@0@Z$rtcVarDesc DD 024H ; glm::greaterThanEqual<__int64,0,glm::tvec2>
	DD	02H
	DQ	FLAT:??$greaterThanEqual@_J$0A@Utvec2@glm@@@glm@@YA?AU?$tvec2@_N$0A@@0@AEBU?$tvec2@_J$0A@@0@0@Z$rtcName$0
	ORG $+48
??$greaterThanEqual@_J$0A@Utvec2@glm@@@glm@@YA?AU?$tvec2@_N$0A@@0@AEBU?$tvec2@_J$0A@@0@0@Z$rtcFrameData DD 01H ; glm::greaterThanEqual<__int64,0,glm::tvec2>
	DD	00H
	DQ	FLAT:??$greaterThanEqual@_J$0A@Utvec2@glm@@@glm@@YA?AU?$tvec2@_N$0A@@0@AEBU?$tvec2@_J$0A@@0@0@Z$rtcVarDesc
CONST	ENDS
;	COMDAT xdata
xdata	SEGMENT
$unwind$??$lessThanEqual@_J$0A@Utvec2@glm@@@glm@@YA?AU?$tvec2@_N$0A@@0@AEBU?$tvec2@_J$0A@@0@0@Z DD 022a01H
	DD	070109214H
xdata	ENDS
;	COMDAT CONST
CONST	SEGMENT
??$lessThanEqual@_J$0A@Utvec2@glm@@@glm@@YA?AU?$tvec2@_N$0A@@0@AEBU?$tvec2@_J$0A@@0@0@Z$rtcName$0 DB 052H ; glm::lessThanEqual<__int64,0,glm::tvec2>
	DB	065H
	DB	073H
	DB	075H
	DB	06cH
	DB	074H
	DB	00H
	ORG $+9
??$lessThanEqual@_J$0A@Utvec2@glm@@@glm@@YA?AU?$tvec2@_N$0A@@0@AEBU?$tvec2@_J$0A@@0@0@Z$rtcVarDesc DD 024H ; glm::lessThanEqual<__int64,0,glm::tvec2>
	DD	02H
	DQ	FLAT:??$lessThanEqual@_J$0A@Utvec2@glm@@@glm@@YA?AU?$tvec2@_N$0A@@0@AEBU?$tvec2@_J$0A@@0@0@Z$rtcName$0
	ORG $+48
??$lessThanEqual@_J$0A@Utvec2@glm@@@glm@@YA?AU?$tvec2@_N$0A@@0@AEBU?$tvec2@_J$0A@@0@0@Z$rtcFrameData DD 01H ; glm::lessThanEqual<__int64,0,glm::tvec2>
	DD	00H
	DQ	FLAT:??$lessThanEqual@_J$0A@Utvec2@glm@@@glm@@YA?AU?$tvec2@_N$0A@@0@AEBU?$tvec2@_J$0A@@0@0@Z$rtcVarDesc
CONST	ENDS
;	COMDAT xdata
xdata	SEGMENT
$unwind$??$max@_J$0A@Utvec2@glm@@@glm@@YA?AU?$tvec2@_J$0A@@0@AEBU10@0@Z DD 021401H
	DD	070103214H
xdata	ENDS
;	COMDAT xdata
xdata	SEGMENT
$unwind$??$min@_J$0A@Utvec2@glm@@@glm@@YA?AU?$tvec2@_J$0A@@0@AEBU10@0@Z DD 021401H
	DD	070103214H
xdata	ENDS
;	COMDAT xdata
xdata	SEGMENT
$unwind$??$linearRand@_J$0A@Utvec2@glm@@@glm@@YA?AU?$tvec2@_J$0A@@0@AEBU10@0@Z DD 021401H
	DD	070103214H
xdata	ENDS
;	COMDAT xdata
xdata	SEGMENT
$unwind$??0?$tvec2@_J$0A@@glm@@QEAA@_J0@Z DD 011001H
	DD	07010H
xdata	ENDS
;	COMDAT xdata
xdata	SEGMENT
$unwind$??0?$tvec2@_J$0A@@glm@@QEAA@_J@Z DD 010b01H
	DD	0700bH
xdata	ENDS
;	COMDAT xdata
xdata	SEGMENT
$unwind$??A?$tvec2@_J$0A@@glm@@QEBAAEB_JH@Z DD 020e01H
	DD	0700a320eH
xdata	ENDS
;	COMDAT xdata
xdata	SEGMENT
$unwind$?length@?$tvec2@_J$0A@@glm@@SAHXZ DD 010201H
	DD	07002H
xdata	ENDS
;	COMDAT xdata
xdata	SEGMENT
$unwind$??$equal@H$0A@Utvec2@glm@@@glm@@YA?AU?$tvec2@_N$0A@@0@AEBU?$tvec2@H$0A@@0@0@Z DD 022a01H
	DD	070109214H
xdata	ENDS
;	COMDAT CONST
CONST	SEGMENT
??$equal@H$0A@Utvec2@glm@@@glm@@YA?AU?$tvec2@_N$0A@@0@AEBU?$tvec2@H$0A@@0@0@Z$rtcName$0 DB 052H ; glm::equal<int,0,glm::tvec2>
	DB	065H
	DB	073H
	DB	075H
	DB	06cH
	DB	074H
	DB	00H
	ORG $+9
??$equal@H$0A@Utvec2@glm@@@glm@@YA?AU?$tvec2@_N$0A@@0@AEBU?$tvec2@H$0A@@0@0@Z$rtcVarDesc DD 024H ; glm::equal<int,0,glm::tvec2>
	DD	02H
	DQ	FLAT:??$equal@H$0A@Utvec2@glm@@@glm@@YA?AU?$tvec2@_N$0A@@0@AEBU?$tvec2@H$0A@@0@0@Z$rtcName$0
	ORG $+48
??$equal@H$0A@Utvec2@glm@@@glm@@YA?AU?$tvec2@_N$0A@@0@AEBU?$tvec2@H$0A@@0@0@Z$rtcFrameData DD 01H ; glm::equal<int,0,glm::tvec2>
	DD	00H
	DQ	FLAT:??$equal@H$0A@Utvec2@glm@@@glm@@YA?AU?$tvec2@_N$0A@@0@AEBU?$tvec2@H$0A@@0@0@Z$rtcVarDesc
CONST	ENDS
;	COMDAT xdata
xdata	SEGMENT
$unwind$??$greaterThanEqual@H$0A@Utvec2@glm@@@glm@@YA?AU?$tvec2@_N$0A@@0@AEBU?$tvec2@H$0A@@0@0@Z DD 022a01H
	DD	070109214H
xdata	ENDS
;	COMDAT CONST
CONST	SEGMENT
??$greaterThanEqual@H$0A@Utvec2@glm@@@glm@@YA?AU?$tvec2@_N$0A@@0@AEBU?$tvec2@H$0A@@0@0@Z$rtcName$0 DB 052H ; glm::greaterThanEqual<int,0,glm::tvec2>
	DB	065H
	DB	073H
	DB	075H
	DB	06cH
	DB	074H
	DB	00H
	ORG $+9
??$greaterThanEqual@H$0A@Utvec2@glm@@@glm@@YA?AU?$tvec2@_N$0A@@0@AEBU?$tvec2@H$0A@@0@0@Z$rtcVarDesc DD 024H ; glm::greaterThanEqual<int,0,glm::tvec2>
	DD	02H
	DQ	FLAT:??$greaterThanEqual@H$0A@Utvec2@glm@@@glm@@YA?AU?$tvec2@_N$0A@@0@AEBU?$tvec2@H$0A@@0@0@Z$rtcName$0
	ORG $+48
??$greaterThanEqual@H$0A@Utvec2@glm@@@glm@@YA?AU?$tvec2@_N$0A@@0@AEBU?$tvec2@H$0A@@0@0@Z$rtcFrameData DD 01H ; glm::greaterThanEqual<int,0,glm::tvec2>
	DD	00H
	DQ	FLAT:??$greaterThanEqual@H$0A@Utvec2@glm@@@glm@@YA?AU?$tvec2@_N$0A@@0@AEBU?$tvec2@H$0A@@0@0@Z$rtcVarDesc
CONST	ENDS
;	COMDAT xdata
xdata	SEGMENT
$unwind$??$lessThanEqual@H$0A@Utvec2@glm@@@glm@@YA?AU?$tvec2@_N$0A@@0@AEBU?$tvec2@H$0A@@0@0@Z DD 022a01H
	DD	070109214H
xdata	ENDS
;	COMDAT CONST
CONST	SEGMENT
??$lessThanEqual@H$0A@Utvec2@glm@@@glm@@YA?AU?$tvec2@_N$0A@@0@AEBU?$tvec2@H$0A@@0@0@Z$rtcName$0 DB 052H ; glm::lessThanEqual<int,0,glm::tvec2>
	DB	065H
	DB	073H
	DB	075H
	DB	06cH
	DB	074H
	DB	00H
	ORG $+9
??$lessThanEqual@H$0A@Utvec2@glm@@@glm@@YA?AU?$tvec2@_N$0A@@0@AEBU?$tvec2@H$0A@@0@0@Z$rtcVarDesc DD 024H ; glm::lessThanEqual<int,0,glm::tvec2>
	DD	02H
	DQ	FLAT:??$lessThanEqual@H$0A@Utvec2@glm@@@glm@@YA?AU?$tvec2@_N$0A@@0@AEBU?$tvec2@H$0A@@0@0@Z$rtcName$0
	ORG $+48
??$lessThanEqual@H$0A@Utvec2@glm@@@glm@@YA?AU?$tvec2@_N$0A@@0@AEBU?$tvec2@H$0A@@0@0@Z$rtcFrameData DD 01H ; glm::lessThanEqual<int,0,glm::tvec2>
	DD	00H
	DQ	FLAT:??$lessThanEqual@H$0A@Utvec2@glm@@@glm@@YA?AU?$tvec2@_N$0A@@0@AEBU?$tvec2@H$0A@@0@0@Z$rtcVarDesc
CONST	ENDS
;	COMDAT xdata
xdata	SEGMENT
$unwind$??$max@H$0A@Utvec2@glm@@@glm@@YA?AU?$tvec2@H$0A@@0@AEBU10@0@Z DD 021401H
	DD	070103214H
xdata	ENDS
;	COMDAT xdata
xdata	SEGMENT
$unwind$??$min@H$0A@Utvec2@glm@@@glm@@YA?AU?$tvec2@H$0A@@0@AEBU10@0@Z DD 021401H
	DD	070103214H
xdata	ENDS
;	COMDAT xdata
xdata	SEGMENT
$unwind$??$linearRand@H$0A@Utvec2@glm@@@glm@@YA?AU?$tvec2@H$0A@@0@AEBU10@0@Z DD 021401H
	DD	070103214H
xdata	ENDS
;	COMDAT xdata
xdata	SEGMENT
$unwind$??0?$tvec2@H$0A@@glm@@QEAA@HH@Z DD 010f01H
	DD	0700fH
xdata	ENDS
;	COMDAT xdata
xdata	SEGMENT
$unwind$??0?$tvec2@H$0A@@glm@@QEAA@H@Z DD 010a01H
	DD	0700aH
xdata	ENDS
;	COMDAT xdata
xdata	SEGMENT
$unwind$??A?$tvec2@H$0A@@glm@@QEBAAEBHH@Z DD 020e01H
	DD	0700a320eH
xdata	ENDS
;	COMDAT xdata
xdata	SEGMENT
$unwind$?length@?$tvec2@H$0A@@glm@@SAHXZ DD 010201H
	DD	07002H
xdata	ENDS
;	COMDAT xdata
xdata	SEGMENT
$unwind$??$equal@F$0A@Utvec2@glm@@@glm@@YA?AU?$tvec2@_N$0A@@0@AEBU?$tvec2@F$0A@@0@0@Z DD 022a01H
	DD	070109214H
xdata	ENDS
;	COMDAT CONST
CONST	SEGMENT
??$equal@F$0A@Utvec2@glm@@@glm@@YA?AU?$tvec2@_N$0A@@0@AEBU?$tvec2@F$0A@@0@0@Z$rtcName$0 DB 052H ; glm::equal<short,0,glm::tvec2>
	DB	065H
	DB	073H
	DB	075H
	DB	06cH
	DB	074H
	DB	00H
	ORG $+9
??$equal@F$0A@Utvec2@glm@@@glm@@YA?AU?$tvec2@_N$0A@@0@AEBU?$tvec2@F$0A@@0@0@Z$rtcVarDesc DD 024H ; glm::equal<short,0,glm::tvec2>
	DD	02H
	DQ	FLAT:??$equal@F$0A@Utvec2@glm@@@glm@@YA?AU?$tvec2@_N$0A@@0@AEBU?$tvec2@F$0A@@0@0@Z$rtcName$0
	ORG $+48
??$equal@F$0A@Utvec2@glm@@@glm@@YA?AU?$tvec2@_N$0A@@0@AEBU?$tvec2@F$0A@@0@0@Z$rtcFrameData DD 01H ; glm::equal<short,0,glm::tvec2>
	DD	00H
	DQ	FLAT:??$equal@F$0A@Utvec2@glm@@@glm@@YA?AU?$tvec2@_N$0A@@0@AEBU?$tvec2@F$0A@@0@0@Z$rtcVarDesc
CONST	ENDS
;	COMDAT xdata
xdata	SEGMENT
$unwind$??$greaterThanEqual@F$0A@Utvec2@glm@@@glm@@YA?AU?$tvec2@_N$0A@@0@AEBU?$tvec2@F$0A@@0@0@Z DD 022a01H
	DD	070109214H
xdata	ENDS
;	COMDAT CONST
CONST	SEGMENT
??$greaterThanEqual@F$0A@Utvec2@glm@@@glm@@YA?AU?$tvec2@_N$0A@@0@AEBU?$tvec2@F$0A@@0@0@Z$rtcName$0 DB 052H ; glm::greaterThanEqual<short,0,glm::tvec2>
	DB	065H
	DB	073H
	DB	075H
	DB	06cH
	DB	074H
	DB	00H
	ORG $+9
??$greaterThanEqual@F$0A@Utvec2@glm@@@glm@@YA?AU?$tvec2@_N$0A@@0@AEBU?$tvec2@F$0A@@0@0@Z$rtcVarDesc DD 024H ; glm::greaterThanEqual<short,0,glm::tvec2>
	DD	02H
	DQ	FLAT:??$greaterThanEqual@F$0A@Utvec2@glm@@@glm@@YA?AU?$tvec2@_N$0A@@0@AEBU?$tvec2@F$0A@@0@0@Z$rtcName$0
	ORG $+48
??$greaterThanEqual@F$0A@Utvec2@glm@@@glm@@YA?AU?$tvec2@_N$0A@@0@AEBU?$tvec2@F$0A@@0@0@Z$rtcFrameData DD 01H ; glm::greaterThanEqual<short,0,glm::tvec2>
	DD	00H
	DQ	FLAT:??$greaterThanEqual@F$0A@Utvec2@glm@@@glm@@YA?AU?$tvec2@_N$0A@@0@AEBU?$tvec2@F$0A@@0@0@Z$rtcVarDesc
CONST	ENDS
;	COMDAT xdata
xdata	SEGMENT
$unwind$??$lessThanEqual@F$0A@Utvec2@glm@@@glm@@YA?AU?$tvec2@_N$0A@@0@AEBU?$tvec2@F$0A@@0@0@Z DD 022a01H
	DD	070109214H
xdata	ENDS
;	COMDAT CONST
CONST	SEGMENT
??$lessThanEqual@F$0A@Utvec2@glm@@@glm@@YA?AU?$tvec2@_N$0A@@0@AEBU?$tvec2@F$0A@@0@0@Z$rtcName$0 DB 052H ; glm::lessThanEqual<short,0,glm::tvec2>
	DB	065H
	DB	073H
	DB	075H
	DB	06cH
	DB	074H
	DB	00H
	ORG $+9
??$lessThanEqual@F$0A@Utvec2@glm@@@glm@@YA?AU?$tvec2@_N$0A@@0@AEBU?$tvec2@F$0A@@0@0@Z$rtcVarDesc DD 024H ; glm::lessThanEqual<short,0,glm::tvec2>
	DD	02H
	DQ	FLAT:??$lessThanEqual@F$0A@Utvec2@glm@@@glm@@YA?AU?$tvec2@_N$0A@@0@AEBU?$tvec2@F$0A@@0@0@Z$rtcName$0
	ORG $+48
??$lessThanEqual@F$0A@Utvec2@glm@@@glm@@YA?AU?$tvec2@_N$0A@@0@AEBU?$tvec2@F$0A@@0@0@Z$rtcFrameData DD 01H ; glm::lessThanEqual<short,0,glm::tvec2>
	DD	00H
	DQ	FLAT:??$lessThanEqual@F$0A@Utvec2@glm@@@glm@@YA?AU?$tvec2@_N$0A@@0@AEBU?$tvec2@F$0A@@0@0@Z$rtcVarDesc
CONST	ENDS
;	COMDAT xdata
xdata	SEGMENT
$unwind$??$max@F$0A@Utvec2@glm@@@glm@@YA?AU?$tvec2@F$0A@@0@AEBU10@0@Z DD 021401H
	DD	070103214H
xdata	ENDS
;	COMDAT xdata
xdata	SEGMENT
$unwind$??$min@F$0A@Utvec2@glm@@@glm@@YA?AU?$tvec2@F$0A@@0@AEBU10@0@Z DD 021401H
	DD	070103214H
xdata	ENDS
;	COMDAT xdata
xdata	SEGMENT
$unwind$??$linearRand@F$0A@Utvec2@glm@@@glm@@YA?AU?$tvec2@F$0A@@0@AEBU10@0@Z DD 021401H
	DD	070103214H
xdata	ENDS
;	COMDAT xdata
xdata	SEGMENT
$unwind$??0?$tvec2@F$0A@@glm@@QEAA@FF@Z DD 011101H
	DD	07011H
xdata	ENDS
;	COMDAT xdata
xdata	SEGMENT
$unwind$??0?$tvec2@F$0A@@glm@@QEAA@F@Z DD 010b01H
	DD	0700bH
xdata	ENDS
;	COMDAT xdata
xdata	SEGMENT
$unwind$??A?$tvec2@F$0A@@glm@@QEBAAEBFH@Z DD 020e01H
	DD	0700a320eH
xdata	ENDS
;	COMDAT xdata
xdata	SEGMENT
$unwind$?length@?$tvec2@F$0A@@glm@@SAHXZ DD 010201H
	DD	07002H
xdata	ENDS
;	COMDAT xdata
xdata	SEGMENT
$unwind$??$equal@C$0A@Utvec2@glm@@@glm@@YA?AU?$tvec2@_N$0A@@0@AEBU?$tvec2@C$0A@@0@0@Z DD 022a01H
	DD	070109214H
xdata	ENDS
;	COMDAT CONST
CONST	SEGMENT
??$equal@C$0A@Utvec2@glm@@@glm@@YA?AU?$tvec2@_N$0A@@0@AEBU?$tvec2@C$0A@@0@0@Z$rtcName$0 DB 052H ; glm::equal<signed char,0,glm::tvec2>
	DB	065H
	DB	073H
	DB	075H
	DB	06cH
	DB	074H
	DB	00H
	ORG $+9
??$equal@C$0A@Utvec2@glm@@@glm@@YA?AU?$tvec2@_N$0A@@0@AEBU?$tvec2@C$0A@@0@0@Z$rtcVarDesc DD 024H ; glm::equal<signed char,0,glm::tvec2>
	DD	02H
	DQ	FLAT:??$equal@C$0A@Utvec2@glm@@@glm@@YA?AU?$tvec2@_N$0A@@0@AEBU?$tvec2@C$0A@@0@0@Z$rtcName$0
	ORG $+48
??$equal@C$0A@Utvec2@glm@@@glm@@YA?AU?$tvec2@_N$0A@@0@AEBU?$tvec2@C$0A@@0@0@Z$rtcFrameData DD 01H ; glm::equal<signed char,0,glm::tvec2>
	DD	00H
	DQ	FLAT:??$equal@C$0A@Utvec2@glm@@@glm@@YA?AU?$tvec2@_N$0A@@0@AEBU?$tvec2@C$0A@@0@0@Z$rtcVarDesc
CONST	ENDS
;	COMDAT xdata
xdata	SEGMENT
$unwind$??$greaterThanEqual@C$0A@Utvec2@glm@@@glm@@YA?AU?$tvec2@_N$0A@@0@AEBU?$tvec2@C$0A@@0@0@Z DD 022a01H
	DD	070109214H
xdata	ENDS
;	COMDAT CONST
CONST	SEGMENT
??$greaterThanEqual@C$0A@Utvec2@glm@@@glm@@YA?AU?$tvec2@_N$0A@@0@AEBU?$tvec2@C$0A@@0@0@Z$rtcName$0 DB 052H ; glm::greaterThanEqual<signed char,0,glm::tvec2>
	DB	065H
	DB	073H
	DB	075H
	DB	06cH
	DB	074H
	DB	00H
	ORG $+9
??$greaterThanEqual@C$0A@Utvec2@glm@@@glm@@YA?AU?$tvec2@_N$0A@@0@AEBU?$tvec2@C$0A@@0@0@Z$rtcVarDesc DD 024H ; glm::greaterThanEqual<signed char,0,glm::tvec2>
	DD	02H
	DQ	FLAT:??$greaterThanEqual@C$0A@Utvec2@glm@@@glm@@YA?AU?$tvec2@_N$0A@@0@AEBU?$tvec2@C$0A@@0@0@Z$rtcName$0
	ORG $+48
??$greaterThanEqual@C$0A@Utvec2@glm@@@glm@@YA?AU?$tvec2@_N$0A@@0@AEBU?$tvec2@C$0A@@0@0@Z$rtcFrameData DD 01H ; glm::greaterThanEqual<signed char,0,glm::tvec2>
	DD	00H
	DQ	FLAT:??$greaterThanEqual@C$0A@Utvec2@glm@@@glm@@YA?AU?$tvec2@_N$0A@@0@AEBU?$tvec2@C$0A@@0@0@Z$rtcVarDesc
CONST	ENDS
;	COMDAT xdata
xdata	SEGMENT
$unwind$??$lessThanEqual@C$0A@Utvec2@glm@@@glm@@YA?AU?$tvec2@_N$0A@@0@AEBU?$tvec2@C$0A@@0@0@Z DD 022a01H
	DD	070109214H
xdata	ENDS
;	COMDAT CONST
CONST	SEGMENT
??$lessThanEqual@C$0A@Utvec2@glm@@@glm@@YA?AU?$tvec2@_N$0A@@0@AEBU?$tvec2@C$0A@@0@0@Z$rtcName$0 DB 052H ; glm::lessThanEqual<signed char,0,glm::tvec2>
	DB	065H
	DB	073H
	DB	075H
	DB	06cH
	DB	074H
	DB	00H
	ORG $+9
??$lessThanEqual@C$0A@Utvec2@glm@@@glm@@YA?AU?$tvec2@_N$0A@@0@AEBU?$tvec2@C$0A@@0@0@Z$rtcVarDesc DD 024H ; glm::lessThanEqual<signed char,0,glm::tvec2>
	DD	02H
	DQ	FLAT:??$lessThanEqual@C$0A@Utvec2@glm@@@glm@@YA?AU?$tvec2@_N$0A@@0@AEBU?$tvec2@C$0A@@0@0@Z$rtcName$0
	ORG $+48
??$lessThanEqual@C$0A@Utvec2@glm@@@glm@@YA?AU?$tvec2@_N$0A@@0@AEBU?$tvec2@C$0A@@0@0@Z$rtcFrameData DD 01H ; glm::lessThanEqual<signed char,0,glm::tvec2>
	DD	00H
	DQ	FLAT:??$lessThanEqual@C$0A@Utvec2@glm@@@glm@@YA?AU?$tvec2@_N$0A@@0@AEBU?$tvec2@C$0A@@0@0@Z$rtcVarDesc
CONST	ENDS
;	COMDAT xdata
xdata	SEGMENT
$unwind$??$max@C$0A@Utvec2@glm@@@glm@@YA?AU?$tvec2@C$0A@@0@AEBU10@0@Z DD 021401H
	DD	070103214H
xdata	ENDS
;	COMDAT xdata
xdata	SEGMENT
$unwind$??$min@C$0A@Utvec2@glm@@@glm@@YA?AU?$tvec2@C$0A@@0@AEBU10@0@Z DD 021401H
	DD	070103214H
xdata	ENDS
;	COMDAT xdata
xdata	SEGMENT
$unwind$??$linearRand@C$0A@Utvec2@glm@@@glm@@YA?AU?$tvec2@C$0A@@0@AEBU10@0@Z DD 021401H
	DD	070103214H
xdata	ENDS
;	COMDAT xdata
xdata	SEGMENT
$unwind$??0?$tvec2@C$0A@@glm@@QEAA@CC@Z DD 010f01H
	DD	0700fH
xdata	ENDS
;	COMDAT xdata
xdata	SEGMENT
$unwind$??0?$tvec2@C$0A@@glm@@QEAA@C@Z DD 010a01H
	DD	0700aH
xdata	ENDS
;	COMDAT xdata
xdata	SEGMENT
$unwind$??A?$tvec2@C$0A@@glm@@QEBAAEBCH@Z DD 020e01H
	DD	0700a320eH
xdata	ENDS
;	COMDAT xdata
xdata	SEGMENT
$unwind$?length@?$tvec2@C$0A@@glm@@SAHXZ DD 010201H
	DD	07002H
xdata	ENDS
;	COMDAT xdata
xdata	SEGMENT
$unwind$??$equal@_K$0A@Utvec2@glm@@@glm@@YA?AU?$tvec2@_N$0A@@0@AEBU?$tvec2@_K$0A@@0@0@Z DD 022a01H
	DD	070109214H
xdata	ENDS
;	COMDAT CONST
CONST	SEGMENT
??$equal@_K$0A@Utvec2@glm@@@glm@@YA?AU?$tvec2@_N$0A@@0@AEBU?$tvec2@_K$0A@@0@0@Z$rtcName$0 DB 052H ; glm::equal<unsigned __int64,0,glm::tvec2>
	DB	065H
	DB	073H
	DB	075H
	DB	06cH
	DB	074H
	DB	00H
	ORG $+9
??$equal@_K$0A@Utvec2@glm@@@glm@@YA?AU?$tvec2@_N$0A@@0@AEBU?$tvec2@_K$0A@@0@0@Z$rtcVarDesc DD 024H ; glm::equal<unsigned __int64,0,glm::tvec2>
	DD	02H
	DQ	FLAT:??$equal@_K$0A@Utvec2@glm@@@glm@@YA?AU?$tvec2@_N$0A@@0@AEBU?$tvec2@_K$0A@@0@0@Z$rtcName$0
	ORG $+48
??$equal@_K$0A@Utvec2@glm@@@glm@@YA?AU?$tvec2@_N$0A@@0@AEBU?$tvec2@_K$0A@@0@0@Z$rtcFrameData DD 01H ; glm::equal<unsigned __int64,0,glm::tvec2>
	DD	00H
	DQ	FLAT:??$equal@_K$0A@Utvec2@glm@@@glm@@YA?AU?$tvec2@_N$0A@@0@AEBU?$tvec2@_K$0A@@0@0@Z$rtcVarDesc
CONST	ENDS
;	COMDAT xdata
xdata	SEGMENT
$unwind$??$greaterThanEqual@_K$0A@Utvec2@glm@@@glm@@YA?AU?$tvec2@_N$0A@@0@AEBU?$tvec2@_K$0A@@0@0@Z DD 022a01H
	DD	070109214H
xdata	ENDS
;	COMDAT CONST
CONST	SEGMENT
??$greaterThanEqual@_K$0A@Utvec2@glm@@@glm@@YA?AU?$tvec2@_N$0A@@0@AEBU?$tvec2@_K$0A@@0@0@Z$rtcName$0 DB 052H ; glm::greaterThanEqual<unsigned __int64,0,glm::tvec2>
	DB	065H
	DB	073H
	DB	075H
	DB	06cH
	DB	074H
	DB	00H
	ORG $+9
??$greaterThanEqual@_K$0A@Utvec2@glm@@@glm@@YA?AU?$tvec2@_N$0A@@0@AEBU?$tvec2@_K$0A@@0@0@Z$rtcVarDesc DD 024H ; glm::greaterThanEqual<unsigned __int64,0,glm::tvec2>
	DD	02H
	DQ	FLAT:??$greaterThanEqual@_K$0A@Utvec2@glm@@@glm@@YA?AU?$tvec2@_N$0A@@0@AEBU?$tvec2@_K$0A@@0@0@Z$rtcName$0
	ORG $+48
??$greaterThanEqual@_K$0A@Utvec2@glm@@@glm@@YA?AU?$tvec2@_N$0A@@0@AEBU?$tvec2@_K$0A@@0@0@Z$rtcFrameData DD 01H ; glm::greaterThanEqual<unsigned __int64,0,glm::tvec2>
	DD	00H
	DQ	FLAT:??$greaterThanEqual@_K$0A@Utvec2@glm@@@glm@@YA?AU?$tvec2@_N$0A@@0@AEBU?$tvec2@_K$0A@@0@0@Z$rtcVarDesc
CONST	ENDS
;	COMDAT xdata
xdata	SEGMENT
$unwind$??$lessThanEqual@_K$0A@Utvec2@glm@@@glm@@YA?AU?$tvec2@_N$0A@@0@AEBU?$tvec2@_K$0A@@0@0@Z DD 022a01H
	DD	070109214H
xdata	ENDS
;	COMDAT CONST
CONST	SEGMENT
??$lessThanEqual@_K$0A@Utvec2@glm@@@glm@@YA?AU?$tvec2@_N$0A@@0@AEBU?$tvec2@_K$0A@@0@0@Z$rtcName$0 DB 052H ; glm::lessThanEqual<unsigned __int64,0,glm::tvec2>
	DB	065H
	DB	073H
	DB	075H
	DB	06cH
	DB	074H
	DB	00H
	ORG $+9
??$lessThanEqual@_K$0A@Utvec2@glm@@@glm@@YA?AU?$tvec2@_N$0A@@0@AEBU?$tvec2@_K$0A@@0@0@Z$rtcVarDesc DD 024H ; glm::lessThanEqual<unsigned __int64,0,glm::tvec2>
	DD	02H
	DQ	FLAT:??$lessThanEqual@_K$0A@Utvec2@glm@@@glm@@YA?AU?$tvec2@_N$0A@@0@AEBU?$tvec2@_K$0A@@0@0@Z$rtcName$0
	ORG $+48
??$lessThanEqual@_K$0A@Utvec2@glm@@@glm@@YA?AU?$tvec2@_N$0A@@0@AEBU?$tvec2@_K$0A@@0@0@Z$rtcFrameData DD 01H ; glm::lessThanEqual<unsigned __int64,0,glm::tvec2>
	DD	00H
	DQ	FLAT:??$lessThanEqual@_K$0A@Utvec2@glm@@@glm@@YA?AU?$tvec2@_N$0A@@0@AEBU?$tvec2@_K$0A@@0@0@Z$rtcVarDesc
CONST	ENDS
;	COMDAT xdata
xdata	SEGMENT
$unwind$??$max@_K$0A@Utvec2@glm@@@glm@@YA?AU?$tvec2@_K$0A@@0@AEBU10@0@Z DD 021401H
	DD	070103214H
xdata	ENDS
;	COMDAT xdata
xdata	SEGMENT
$unwind$??$min@_K$0A@Utvec2@glm@@@glm@@YA?AU?$tvec2@_K$0A@@0@AEBU10@0@Z DD 021401H
	DD	070103214H
xdata	ENDS
;	COMDAT xdata
xdata	SEGMENT
$unwind$??$linearRand@_K$0A@Utvec2@glm@@@glm@@YA?AU?$tvec2@_K$0A@@0@AEBU10@0@Z DD 021401H
	DD	070103214H
xdata	ENDS
;	COMDAT xdata
xdata	SEGMENT
$unwind$??0?$tvec2@_K$0A@@glm@@QEAA@_K0@Z DD 011001H
	DD	07010H
xdata	ENDS
;	COMDAT xdata
xdata	SEGMENT
$unwind$??0?$tvec2@_K$0A@@glm@@QEAA@_K@Z DD 010b01H
	DD	0700bH
xdata	ENDS
;	COMDAT xdata
xdata	SEGMENT
$unwind$??A?$tvec2@_K$0A@@glm@@QEBAAEB_KH@Z DD 020e01H
	DD	0700a320eH
xdata	ENDS
;	COMDAT xdata
xdata	SEGMENT
$unwind$?length@?$tvec2@_K$0A@@glm@@SAHXZ DD 010201H
	DD	07002H
xdata	ENDS
;	COMDAT xdata
xdata	SEGMENT
$unwind$??$equal@I$0A@Utvec2@glm@@@glm@@YA?AU?$tvec2@_N$0A@@0@AEBU?$tvec2@I$0A@@0@0@Z DD 022a01H
	DD	070109214H
xdata	ENDS
;	COMDAT CONST
CONST	SEGMENT
??$equal@I$0A@Utvec2@glm@@@glm@@YA?AU?$tvec2@_N$0A@@0@AEBU?$tvec2@I$0A@@0@0@Z$rtcName$0 DB 052H ; glm::equal<unsigned int,0,glm::tvec2>
	DB	065H
	DB	073H
	DB	075H
	DB	06cH
	DB	074H
	DB	00H
	ORG $+9
??$equal@I$0A@Utvec2@glm@@@glm@@YA?AU?$tvec2@_N$0A@@0@AEBU?$tvec2@I$0A@@0@0@Z$rtcVarDesc DD 024H ; glm::equal<unsigned int,0,glm::tvec2>
	DD	02H
	DQ	FLAT:??$equal@I$0A@Utvec2@glm@@@glm@@YA?AU?$tvec2@_N$0A@@0@AEBU?$tvec2@I$0A@@0@0@Z$rtcName$0
	ORG $+48
??$equal@I$0A@Utvec2@glm@@@glm@@YA?AU?$tvec2@_N$0A@@0@AEBU?$tvec2@I$0A@@0@0@Z$rtcFrameData DD 01H ; glm::equal<unsigned int,0,glm::tvec2>
	DD	00H
	DQ	FLAT:??$equal@I$0A@Utvec2@glm@@@glm@@YA?AU?$tvec2@_N$0A@@0@AEBU?$tvec2@I$0A@@0@0@Z$rtcVarDesc
CONST	ENDS
;	COMDAT xdata
xdata	SEGMENT
$unwind$??$greaterThanEqual@I$0A@Utvec2@glm@@@glm@@YA?AU?$tvec2@_N$0A@@0@AEBU?$tvec2@I$0A@@0@0@Z DD 022a01H
	DD	070109214H
xdata	ENDS
;	COMDAT CONST
CONST	SEGMENT
??$greaterThanEqual@I$0A@Utvec2@glm@@@glm@@YA?AU?$tvec2@_N$0A@@0@AEBU?$tvec2@I$0A@@0@0@Z$rtcName$0 DB 052H ; glm::greaterThanEqual<unsigned int,0,glm::tvec2>
	DB	065H
	DB	073H
	DB	075H
	DB	06cH
	DB	074H
	DB	00H
	ORG $+9
??$greaterThanEqual@I$0A@Utvec2@glm@@@glm@@YA?AU?$tvec2@_N$0A@@0@AEBU?$tvec2@I$0A@@0@0@Z$rtcVarDesc DD 024H ; glm::greaterThanEqual<unsigned int,0,glm::tvec2>
	DD	02H
	DQ	FLAT:??$greaterThanEqual@I$0A@Utvec2@glm@@@glm@@YA?AU?$tvec2@_N$0A@@0@AEBU?$tvec2@I$0A@@0@0@Z$rtcName$0
	ORG $+48
??$greaterThanEqual@I$0A@Utvec2@glm@@@glm@@YA?AU?$tvec2@_N$0A@@0@AEBU?$tvec2@I$0A@@0@0@Z$rtcFrameData DD 01H ; glm::greaterThanEqual<unsigned int,0,glm::tvec2>
	DD	00H
	DQ	FLAT:??$greaterThanEqual@I$0A@Utvec2@glm@@@glm@@YA?AU?$tvec2@_N$0A@@0@AEBU?$tvec2@I$0A@@0@0@Z$rtcVarDesc
CONST	ENDS
;	COMDAT xdata
xdata	SEGMENT
$unwind$??$lessThanEqual@I$0A@Utvec2@glm@@@glm@@YA?AU?$tvec2@_N$0A@@0@AEBU?$tvec2@I$0A@@0@0@Z DD 022a01H
	DD	070109214H
xdata	ENDS
;	COMDAT CONST
CONST	SEGMENT
??$lessThanEqual@I$0A@Utvec2@glm@@@glm@@YA?AU?$tvec2@_N$0A@@0@AEBU?$tvec2@I$0A@@0@0@Z$rtcName$0 DB 052H ; glm::lessThanEqual<unsigned int,0,glm::tvec2>
	DB	065H
	DB	073H
	DB	075H
	DB	06cH
	DB	074H
	DB	00H
	ORG $+9
??$lessThanEqual@I$0A@Utvec2@glm@@@glm@@YA?AU?$tvec2@_N$0A@@0@AEBU?$tvec2@I$0A@@0@0@Z$rtcVarDesc DD 024H ; glm::lessThanEqual<unsigned int,0,glm::tvec2>
	DD	02H
	DQ	FLAT:??$lessThanEqual@I$0A@Utvec2@glm@@@glm@@YA?AU?$tvec2@_N$0A@@0@AEBU?$tvec2@I$0A@@0@0@Z$rtcName$0
	ORG $+48
??$lessThanEqual@I$0A@Utvec2@glm@@@glm@@YA?AU?$tvec2@_N$0A@@0@AEBU?$tvec2@I$0A@@0@0@Z$rtcFrameData DD 01H ; glm::lessThanEqual<unsigned int,0,glm::tvec2>
	DD	00H
	DQ	FLAT:??$lessThanEqual@I$0A@Utvec2@glm@@@glm@@YA?AU?$tvec2@_N$0A@@0@AEBU?$tvec2@I$0A@@0@0@Z$rtcVarDesc
CONST	ENDS
;	COMDAT xdata
xdata	SEGMENT
$unwind$??$max@I$0A@Utvec2@glm@@@glm@@YA?AU?$tvec2@I$0A@@0@AEBU10@0@Z DD 021401H
	DD	070103214H
xdata	ENDS
;	COMDAT xdata
xdata	SEGMENT
$unwind$??$min@I$0A@Utvec2@glm@@@glm@@YA?AU?$tvec2@I$0A@@0@AEBU10@0@Z DD 021401H
	DD	070103214H
xdata	ENDS
;	COMDAT xdata
xdata	SEGMENT
$unwind$??$linearRand@I$0A@Utvec2@glm@@@glm@@YA?AU?$tvec2@I$0A@@0@AEBU10@0@Z DD 021401H
	DD	070103214H
xdata	ENDS
;	COMDAT xdata
xdata	SEGMENT
$unwind$??0?$tvec2@I$0A@@glm@@QEAA@II@Z DD 010f01H
	DD	0700fH
xdata	ENDS
;	COMDAT xdata
xdata	SEGMENT
$unwind$??0?$tvec2@I$0A@@glm@@QEAA@I@Z DD 010a01H
	DD	0700aH
xdata	ENDS
;	COMDAT xdata
xdata	SEGMENT
$unwind$??A?$tvec2@I$0A@@glm@@QEBAAEBIH@Z DD 020e01H
	DD	0700a320eH
xdata	ENDS
;	COMDAT xdata
xdata	SEGMENT
$unwind$?length@?$tvec2@I$0A@@glm@@SAHXZ DD 010201H
	DD	07002H
xdata	ENDS
;	COMDAT xdata
xdata	SEGMENT
$unwind$??$equal@G$0A@Utvec2@glm@@@glm@@YA?AU?$tvec2@_N$0A@@0@AEBU?$tvec2@G$0A@@0@0@Z DD 022a01H
	DD	070109214H
xdata	ENDS
;	COMDAT CONST
CONST	SEGMENT
??$equal@G$0A@Utvec2@glm@@@glm@@YA?AU?$tvec2@_N$0A@@0@AEBU?$tvec2@G$0A@@0@0@Z$rtcName$0 DB 052H ; glm::equal<unsigned short,0,glm::tvec2>
	DB	065H
	DB	073H
	DB	075H
	DB	06cH
	DB	074H
	DB	00H
	ORG $+9
??$equal@G$0A@Utvec2@glm@@@glm@@YA?AU?$tvec2@_N$0A@@0@AEBU?$tvec2@G$0A@@0@0@Z$rtcVarDesc DD 024H ; glm::equal<unsigned short,0,glm::tvec2>
	DD	02H
	DQ	FLAT:??$equal@G$0A@Utvec2@glm@@@glm@@YA?AU?$tvec2@_N$0A@@0@AEBU?$tvec2@G$0A@@0@0@Z$rtcName$0
	ORG $+48
??$equal@G$0A@Utvec2@glm@@@glm@@YA?AU?$tvec2@_N$0A@@0@AEBU?$tvec2@G$0A@@0@0@Z$rtcFrameData DD 01H ; glm::equal<unsigned short,0,glm::tvec2>
	DD	00H
	DQ	FLAT:??$equal@G$0A@Utvec2@glm@@@glm@@YA?AU?$tvec2@_N$0A@@0@AEBU?$tvec2@G$0A@@0@0@Z$rtcVarDesc
CONST	ENDS
;	COMDAT xdata
xdata	SEGMENT
$unwind$??$greaterThanEqual@G$0A@Utvec2@glm@@@glm@@YA?AU?$tvec2@_N$0A@@0@AEBU?$tvec2@G$0A@@0@0@Z DD 022a01H
	DD	070109214H
xdata	ENDS
;	COMDAT CONST
CONST	SEGMENT
??$greaterThanEqual@G$0A@Utvec2@glm@@@glm@@YA?AU?$tvec2@_N$0A@@0@AEBU?$tvec2@G$0A@@0@0@Z$rtcName$0 DB 052H ; glm::greaterThanEqual<unsigned short,0,glm::tvec2>
	DB	065H
	DB	073H
	DB	075H
	DB	06cH
	DB	074H
	DB	00H
	ORG $+9
??$greaterThanEqual@G$0A@Utvec2@glm@@@glm@@YA?AU?$tvec2@_N$0A@@0@AEBU?$tvec2@G$0A@@0@0@Z$rtcVarDesc DD 024H ; glm::greaterThanEqual<unsigned short,0,glm::tvec2>
	DD	02H
	DQ	FLAT:??$greaterThanEqual@G$0A@Utvec2@glm@@@glm@@YA?AU?$tvec2@_N$0A@@0@AEBU?$tvec2@G$0A@@0@0@Z$rtcName$0
	ORG $+48
??$greaterThanEqual@G$0A@Utvec2@glm@@@glm@@YA?AU?$tvec2@_N$0A@@0@AEBU?$tvec2@G$0A@@0@0@Z$rtcFrameData DD 01H ; glm::greaterThanEqual<unsigned short,0,glm::tvec2>
	DD	00H
	DQ	FLAT:??$greaterThanEqual@G$0A@Utvec2@glm@@@glm@@YA?AU?$tvec2@_N$0A@@0@AEBU?$tvec2@G$0A@@0@0@Z$rtcVarDesc
CONST	ENDS
;	COMDAT xdata
xdata	SEGMENT
$unwind$??$lessThanEqual@G$0A@Utvec2@glm@@@glm@@YA?AU?$tvec2@_N$0A@@0@AEBU?$tvec2@G$0A@@0@0@Z DD 022a01H
	DD	070109214H
xdata	ENDS
;	COMDAT CONST
CONST	SEGMENT
??$lessThanEqual@G$0A@Utvec2@glm@@@glm@@YA?AU?$tvec2@_N$0A@@0@AEBU?$tvec2@G$0A@@0@0@Z$rtcName$0 DB 052H ; glm::lessThanEqual<unsigned short,0,glm::tvec2>
	DB	065H
	DB	073H
	DB	075H
	DB	06cH
	DB	074H
	DB	00H
	ORG $+9
??$lessThanEqual@G$0A@Utvec2@glm@@@glm@@YA?AU?$tvec2@_N$0A@@0@AEBU?$tvec2@G$0A@@0@0@Z$rtcVarDesc DD 024H ; glm::lessThanEqual<unsigned short,0,glm::tvec2>
	DD	02H
	DQ	FLAT:??$lessThanEqual@G$0A@Utvec2@glm@@@glm@@YA?AU?$tvec2@_N$0A@@0@AEBU?$tvec2@G$0A@@0@0@Z$rtcName$0
	ORG $+48
??$lessThanEqual@G$0A@Utvec2@glm@@@glm@@YA?AU?$tvec2@_N$0A@@0@AEBU?$tvec2@G$0A@@0@0@Z$rtcFrameData DD 01H ; glm::lessThanEqual<unsigned short,0,glm::tvec2>
	DD	00H
	DQ	FLAT:??$lessThanEqual@G$0A@Utvec2@glm@@@glm@@YA?AU?$tvec2@_N$0A@@0@AEBU?$tvec2@G$0A@@0@0@Z$rtcVarDesc
CONST	ENDS
;	COMDAT xdata
xdata	SEGMENT
$unwind$??$max@G$0A@Utvec2@glm@@@glm@@YA?AU?$tvec2@G$0A@@0@AEBU10@0@Z DD 021401H
	DD	070103214H
xdata	ENDS
;	COMDAT xdata
xdata	SEGMENT
$unwind$??$min@G$0A@Utvec2@glm@@@glm@@YA?AU?$tvec2@G$0A@@0@AEBU10@0@Z DD 021401H
	DD	070103214H
xdata	ENDS
;	COMDAT xdata
xdata	SEGMENT
$unwind$??$linearRand@G$0A@Utvec2@glm@@@glm@@YA?AU?$tvec2@G$0A@@0@AEBU10@0@Z DD 021401H
	DD	070103214H
xdata	ENDS
;	COMDAT xdata
xdata	SEGMENT
$unwind$??0?$tvec2@G$0A@@glm@@QEAA@GG@Z DD 011101H
	DD	07011H
xdata	ENDS
;	COMDAT xdata
xdata	SEGMENT
$unwind$??0?$tvec2@G$0A@@glm@@QEAA@G@Z DD 010b01H
	DD	0700bH
xdata	ENDS
;	COMDAT xdata
xdata	SEGMENT
$unwind$??A?$tvec2@G$0A@@glm@@QEBAAEBGH@Z DD 020e01H
	DD	0700a320eH
xdata	ENDS
;	COMDAT xdata
xdata	SEGMENT
$unwind$?length@?$tvec2@G$0A@@glm@@SAHXZ DD 010201H
	DD	07002H
xdata	ENDS
;	COMDAT xdata
xdata	SEGMENT
$unwind$??$equal@E$0A@Utvec2@glm@@@glm@@YA?AU?$tvec2@_N$0A@@0@AEBU?$tvec2@E$0A@@0@0@Z DD 022a01H
	DD	070109214H
xdata	ENDS
;	COMDAT CONST
CONST	SEGMENT
??$equal@E$0A@Utvec2@glm@@@glm@@YA?AU?$tvec2@_N$0A@@0@AEBU?$tvec2@E$0A@@0@0@Z$rtcName$0 DB 052H ; glm::equal<unsigned char,0,glm::tvec2>
	DB	065H
	DB	073H
	DB	075H
	DB	06cH
	DB	074H
	DB	00H
	ORG $+9
??$equal@E$0A@Utvec2@glm@@@glm@@YA?AU?$tvec2@_N$0A@@0@AEBU?$tvec2@E$0A@@0@0@Z$rtcVarDesc DD 024H ; glm::equal<unsigned char,0,glm::tvec2>
	DD	02H
	DQ	FLAT:??$equal@E$0A@Utvec2@glm@@@glm@@YA?AU?$tvec2@_N$0A@@0@AEBU?$tvec2@E$0A@@0@0@Z$rtcName$0
	ORG $+48
??$equal@E$0A@Utvec2@glm@@@glm@@YA?AU?$tvec2@_N$0A@@0@AEBU?$tvec2@E$0A@@0@0@Z$rtcFrameData DD 01H ; glm::equal<unsigned char,0,glm::tvec2>
	DD	00H
	DQ	FLAT:??$equal@E$0A@Utvec2@glm@@@glm@@YA?AU?$tvec2@_N$0A@@0@AEBU?$tvec2@E$0A@@0@0@Z$rtcVarDesc
CONST	ENDS
;	COMDAT xdata
xdata	SEGMENT
$unwind$??$greaterThanEqual@E$0A@Utvec2@glm@@@glm@@YA?AU?$tvec2@_N$0A@@0@AEBU?$tvec2@E$0A@@0@0@Z DD 022a01H
	DD	070109214H
xdata	ENDS
;	COMDAT CONST
CONST	SEGMENT
??$greaterThanEqual@E$0A@Utvec2@glm@@@glm@@YA?AU?$tvec2@_N$0A@@0@AEBU?$tvec2@E$0A@@0@0@Z$rtcName$0 DB 052H ; glm::greaterThanEqual<unsigned char,0,glm::tvec2>
	DB	065H
	DB	073H
	DB	075H
	DB	06cH
	DB	074H
	DB	00H
	ORG $+9
??$greaterThanEqual@E$0A@Utvec2@glm@@@glm@@YA?AU?$tvec2@_N$0A@@0@AEBU?$tvec2@E$0A@@0@0@Z$rtcVarDesc DD 024H ; glm::greaterThanEqual<unsigned char,0,glm::tvec2>
	DD	02H
	DQ	FLAT:??$greaterThanEqual@E$0A@Utvec2@glm@@@glm@@YA?AU?$tvec2@_N$0A@@0@AEBU?$tvec2@E$0A@@0@0@Z$rtcName$0
	ORG $+48
??$greaterThanEqual@E$0A@Utvec2@glm@@@glm@@YA?AU?$tvec2@_N$0A@@0@AEBU?$tvec2@E$0A@@0@0@Z$rtcFrameData DD 01H ; glm::greaterThanEqual<unsigned char,0,glm::tvec2>
	DD	00H
	DQ	FLAT:??$greaterThanEqual@E$0A@Utvec2@glm@@@glm@@YA?AU?$tvec2@_N$0A@@0@AEBU?$tvec2@E$0A@@0@0@Z$rtcVarDesc
CONST	ENDS
;	COMDAT xdata
xdata	SEGMENT
$unwind$??$all@$0A@Utvec2@glm@@@glm@@YA_NAEBU?$tvec2@_N$0A@@0@@Z DD 020a01H
	DD	07006520aH
xdata	ENDS
;	COMDAT xdata
xdata	SEGMENT
$unwind$??0?$tvec2@_N$0A@@glm@@QEAA@W4ctor@1@@Z DD 010a01H
	DD	0700aH
xdata	ENDS
;	COMDAT xdata
xdata	SEGMENT
$unwind$??A?$tvec2@_N$0A@@glm@@QEBAAEB_NH@Z DD 020e01H
	DD	0700a320eH
xdata	ENDS
;	COMDAT xdata
xdata	SEGMENT
$unwind$??A?$tvec2@_N$0A@@glm@@QEAAAEA_NH@Z DD 020e01H
	DD	0700a320eH
xdata	ENDS
;	COMDAT xdata
xdata	SEGMENT
$unwind$?length@?$tvec2@_N$0A@@glm@@SAHXZ DD 010201H
	DD	07002H
xdata	ENDS
;	COMDAT xdata
xdata	SEGMENT
$unwind$??$lessThanEqual@E$0A@Utvec2@glm@@@glm@@YA?AU?$tvec2@_N$0A@@0@AEBU?$tvec2@E$0A@@0@0@Z DD 022a01H
	DD	070109214H
xdata	ENDS
;	COMDAT CONST
CONST	SEGMENT
??$lessThanEqual@E$0A@Utvec2@glm@@@glm@@YA?AU?$tvec2@_N$0A@@0@AEBU?$tvec2@E$0A@@0@0@Z$rtcName$0 DB 052H ; glm::lessThanEqual<unsigned char,0,glm::tvec2>
	DB	065H
	DB	073H
	DB	075H
	DB	06cH
	DB	074H
	DB	00H
	ORG $+9
??$lessThanEqual@E$0A@Utvec2@glm@@@glm@@YA?AU?$tvec2@_N$0A@@0@AEBU?$tvec2@E$0A@@0@0@Z$rtcVarDesc DD 024H ; glm::lessThanEqual<unsigned char,0,glm::tvec2>
	DD	02H
	DQ	FLAT:??$lessThanEqual@E$0A@Utvec2@glm@@@glm@@YA?AU?$tvec2@_N$0A@@0@AEBU?$tvec2@E$0A@@0@0@Z$rtcName$0
	ORG $+48
??$lessThanEqual@E$0A@Utvec2@glm@@@glm@@YA?AU?$tvec2@_N$0A@@0@AEBU?$tvec2@E$0A@@0@0@Z$rtcFrameData DD 01H ; glm::lessThanEqual<unsigned char,0,glm::tvec2>
	DD	00H
	DQ	FLAT:??$lessThanEqual@E$0A@Utvec2@glm@@@glm@@YA?AU?$tvec2@_N$0A@@0@AEBU?$tvec2@E$0A@@0@0@Z$rtcVarDesc
CONST	ENDS
;	COMDAT xdata
xdata	SEGMENT
$unwind$??$max@E$0A@Utvec2@glm@@@glm@@YA?AU?$tvec2@E$0A@@0@AEBU10@0@Z DD 021401H
	DD	070103214H
xdata	ENDS
;	COMDAT xdata
xdata	SEGMENT
$unwind$??$min@E$0A@Utvec2@glm@@@glm@@YA?AU?$tvec2@E$0A@@0@AEBU10@0@Z DD 021401H
	DD	070103214H
xdata	ENDS
;	COMDAT xdata
xdata	SEGMENT
$unwind$??$linearRand@E$0A@Utvec2@glm@@@glm@@YA?AU?$tvec2@E$0A@@0@AEBU10@0@Z DD 021401H
	DD	070103214H
xdata	ENDS
;	COMDAT xdata
xdata	SEGMENT
$unwind$??0?$tvec2@E$0A@@glm@@QEAA@EE@Z DD 010f01H
	DD	0700fH
xdata	ENDS
;	COMDAT xdata
xdata	SEGMENT
$unwind$??0?$tvec2@E$0A@@glm@@QEAA@E@Z DD 010a01H
	DD	0700aH
xdata	ENDS
;	COMDAT xdata
xdata	SEGMENT
$unwind$??A?$tvec2@E$0A@@glm@@QEBAAEBEH@Z DD 020e01H
	DD	0700a320eH
xdata	ENDS
;	COMDAT xdata
xdata	SEGMENT
$unwind$?length@?$tvec2@E$0A@@glm@@SAHXZ DD 010201H
	DD	07002H
xdata	ENDS
xdata	SEGMENT
$unwind$?test_linearRand@@YAHXZ DD 041b01H
	DD	0f5010aH
	DD	060027003H
$unwind$?test_circularRand@@YAHXZ DD 031a01H
	DD	0160109H
	DD	07002H
$unwind$?test_sphericalRand@@YAHXZ DD 031a01H
	DD	03a0109H
	DD	07002H
$unwind$?test_diskRand@@YAHXZ DD 020601H
	DD	07002b206H
$unwind$?test_ballRand@@YAHXZ DD 020601H
	DD	07002d206H
$unwind$main DD	020601H
	DD	070025206H
xdata	ENDS
CONST	SEGMENT
	ORG $+2
?test_linearRand@@YAHXZ$rtcName$0 DB 041H		; test_linearRand
	DB	04dH
	DB	069H
	DB	06eH
	DB	00H
	ORG $+3
?test_linearRand@@YAHXZ$rtcName$1 DB 041H		; test_linearRand
	DB	04dH
	DB	061H
	DB	078H
	DB	00H
	ORG $+3
?test_linearRand@@YAHXZ$rtcName$2 DB 041H		; test_linearRand
	DB	00H
	ORG $+2
?test_linearRand@@YAHXZ$rtcName$3 DB 042H		; test_linearRand
	DB	04dH
	DB	069H
	DB	06eH
	DB	00H
	ORG $+3
?test_linearRand@@YAHXZ$rtcName$4 DB 042H		; test_linearRand
	DB	04dH
	DB	061H
	DB	078H
	DB	00H
	ORG $+3
?test_linearRand@@YAHXZ$rtcName$5 DB 042H		; test_linearRand
	DB	00H
	ORG $+2
?test_linearRand@@YAHXZ$rtcName$6 DB 043H		; test_linearRand
	DB	04dH
	DB	069H
	DB	06eH
	DB	00H
	ORG $+3
?test_linearRand@@YAHXZ$rtcName$7 DB 043H		; test_linearRand
	DB	04dH
	DB	061H
	DB	078H
	DB	00H
	ORG $+3
?test_linearRand@@YAHXZ$rtcName$8 DB 043H		; test_linearRand
	DB	00H
	ORG $+2
?test_linearRand@@YAHXZ$rtcName$9 DB 044H		; test_linearRand
	DB	04dH
	DB	069H
	DB	06eH
	DB	00H
	ORG $+3
?test_linearRand@@YAHXZ$rtcName$10 DB 044H		; test_linearRand
	DB	04dH
	DB	061H
	DB	078H
	DB	00H
	ORG $+3
?test_linearRand@@YAHXZ$rtcName$11 DB 044H		; test_linearRand
	DB	00H
	ORG $+2
?test_linearRand@@YAHXZ$rtcName$12 DB 041H		; test_linearRand
	DB	04dH
	DB	069H
	DB	06eH
	DB	00H
	ORG $+3
?test_linearRand@@YAHXZ$rtcName$13 DB 041H		; test_linearRand
	DB	04dH
	DB	061H
	DB	078H
	DB	00H
	ORG $+3
?test_linearRand@@YAHXZ$rtcName$14 DB 041H		; test_linearRand
	DB	00H
	ORG $+2
?test_linearRand@@YAHXZ$rtcName$15 DB 042H		; test_linearRand
	DB	04dH
	DB	069H
	DB	06eH
	DB	00H
	ORG $+3
?test_linearRand@@YAHXZ$rtcName$16 DB 042H		; test_linearRand
	DB	04dH
	DB	061H
	DB	078H
	DB	00H
	ORG $+3
?test_linearRand@@YAHXZ$rtcName$17 DB 042H		; test_linearRand
	DB	00H
	ORG $+2
?test_linearRand@@YAHXZ$rtcName$18 DB 043H		; test_linearRand
	DB	04dH
	DB	069H
	DB	06eH
	DB	00H
	ORG $+3
?test_linearRand@@YAHXZ$rtcName$19 DB 043H		; test_linearRand
	DB	04dH
	DB	061H
	DB	078H
	DB	00H
	ORG $+3
?test_linearRand@@YAHXZ$rtcName$20 DB 043H		; test_linearRand
	DB	00H
	ORG $+2
?test_linearRand@@YAHXZ$rtcName$21 DB 044H		; test_linearRand
	DB	04dH
	DB	069H
	DB	06eH
	DB	00H
	ORG $+3
?test_linearRand@@YAHXZ$rtcName$22 DB 044H		; test_linearRand
	DB	04dH
	DB	061H
	DB	078H
	DB	00H
	ORG $+3
?test_linearRand@@YAHXZ$rtcName$23 DB 044H		; test_linearRand
	DB	00H
	ORG $+2
?test_linearRand@@YAHXZ$rtcName$24 DB 041H		; test_linearRand
	DB	00H
	ORG $+2
?test_linearRand@@YAHXZ$rtcName$25 DB 042H		; test_linearRand
	DB	00H
	ORG $+2
?test_linearRand@@YAHXZ$rtcName$26 DB 052H		; test_linearRand
	DB	065H
	DB	073H
	DB	075H
	DB	06cH
	DB	074H
	DB	046H
	DB	06cH
	DB	06fH
	DB	061H
	DB	074H
	DB	00H
	ORG $+4
?test_linearRand@@YAHXZ$rtcName$27 DB 052H		; test_linearRand
	DB	065H
	DB	073H
	DB	075H
	DB	06cH
	DB	074H
	DB	044H
	DB	06fH
	DB	075H
	DB	062H
	DB	06cH
	DB	065H
	DB	00H
	ORG $+3
?test_linearRand@@YAHXZ$rtcVarDesc DD 0408H		; test_linearRand
	DD	08H
	DQ	FLAT:?test_linearRand@@YAHXZ$rtcName$27
	DD	03e4H
	DD	04H
	DQ	FLAT:?test_linearRand@@YAHXZ$rtcName$26
	DD	03b8H
	DD	010H
	DQ	FLAT:?test_linearRand@@YAHXZ$rtcName$25
	DD	0398H
	DD	08H
	DQ	FLAT:?test_linearRand@@YAHXZ$rtcName$24
	DD	0368H
	DD	010H
	DQ	FLAT:?test_linearRand@@YAHXZ$rtcName$23
	DD	0338H
	DD	010H
	DQ	FLAT:?test_linearRand@@YAHXZ$rtcName$22
	DD	0308H
	DD	010H
	DQ	FLAT:?test_linearRand@@YAHXZ$rtcName$21
	DD	02e8H
	DD	08H
	DQ	FLAT:?test_linearRand@@YAHXZ$rtcName$20
	DD	02c8H
	DD	08H
	DQ	FLAT:?test_linearRand@@YAHXZ$rtcName$19
	DD	02a8H
	DD	08H
	DQ	FLAT:?test_linearRand@@YAHXZ$rtcName$18
	DD	0284H
	DD	04H
	DQ	FLAT:?test_linearRand@@YAHXZ$rtcName$17
	DD	0264H
	DD	04H
	DQ	FLAT:?test_linearRand@@YAHXZ$rtcName$16
	DD	0244H
	DD	04H
	DQ	FLAT:?test_linearRand@@YAHXZ$rtcName$15
	DD	0224H
	DD	02H
	DQ	FLAT:?test_linearRand@@YAHXZ$rtcName$14
	DD	0204H
	DD	02H
	DQ	FLAT:?test_linearRand@@YAHXZ$rtcName$13
	DD	01e4H
	DD	02H
	DQ	FLAT:?test_linearRand@@YAHXZ$rtcName$12
	DD	01b8H
	DD	010H
	DQ	FLAT:?test_linearRand@@YAHXZ$rtcName$11
	DD	0188H
	DD	010H
	DQ	FLAT:?test_linearRand@@YAHXZ$rtcName$10
	DD	0158H
	DD	010H
	DQ	FLAT:?test_linearRand@@YAHXZ$rtcName$9
	DD	0138H
	DD	08H
	DQ	FLAT:?test_linearRand@@YAHXZ$rtcName$8
	DD	0118H
	DD	08H
	DQ	FLAT:?test_linearRand@@YAHXZ$rtcName$7
	DD	0f8H
	DD	08H
	DQ	FLAT:?test_linearRand@@YAHXZ$rtcName$6
	DD	0d4H
	DD	04H
	DQ	FLAT:?test_linearRand@@YAHXZ$rtcName$5
	DD	0b4H
	DD	04H
	DQ	FLAT:?test_linearRand@@YAHXZ$rtcName$4
	DD	094H
	DD	04H
	DQ	FLAT:?test_linearRand@@YAHXZ$rtcName$3
	DD	074H
	DD	02H
	DQ	FLAT:?test_linearRand@@YAHXZ$rtcName$2
	DD	054H
	DD	02H
	DQ	FLAT:?test_linearRand@@YAHXZ$rtcName$1
	DD	034H
	DD	02H
	DQ	FLAT:?test_linearRand@@YAHXZ$rtcName$0
	ORG $+1344
?test_linearRand@@YAHXZ$rtcFrameData DD 01cH		; test_linearRand
	DD	00H
	DQ	FLAT:?test_linearRand@@YAHXZ$rtcVarDesc
?test_circularRand@@YAHXZ$rtcName$0 DB 052H		; test_circularRand
	DB	065H
	DB	073H
	DB	075H
	DB	06cH
	DB	074H
	DB	046H
	DB	06cH
	DB	06fH
	DB	061H
	DB	074H
	DB	00H
	ORG $+4
?test_circularRand@@YAHXZ$rtcName$1 DB 052H		; test_circularRand
	DB	065H
	DB	073H
	DB	075H
	DB	06cH
	DB	074H
	DB	044H
	DB	06fH
	DB	075H
	DB	062H
	DB	06cH
	DB	065H
	DB	00H
	ORG $+3
?test_circularRand@@YAHXZ$rtcVarDesc DD 058H		; test_circularRand
	DD	08H
	DQ	FLAT:?test_circularRand@@YAHXZ$rtcName$1
	DD	034H
	DD	04H
	DQ	FLAT:?test_circularRand@@YAHXZ$rtcName$0
	ORG $+96
?test_circularRand@@YAHXZ$rtcFrameData DD 02H		; test_circularRand
	DD	00H
	DQ	FLAT:?test_circularRand@@YAHXZ$rtcVarDesc
?test_sphericalRand@@YAHXZ$rtcName$0 DB 052H		; test_sphericalRand
	DB	065H
	DB	073H
	DB	075H
	DB	06cH
	DB	074H
	DB	046H
	DB	06cH
	DB	06fH
	DB	061H
	DB	074H
	DB	041H
	DB	00H
	ORG $+3
?test_sphericalRand@@YAHXZ$rtcName$1 DB 052H		; test_sphericalRand
	DB	065H
	DB	073H
	DB	075H
	DB	06cH
	DB	074H
	DB	046H
	DB	06cH
	DB	06fH
	DB	061H
	DB	074H
	DB	042H
	DB	00H
	ORG $+3
?test_sphericalRand@@YAHXZ$rtcName$2 DB 052H		; test_sphericalRand
	DB	065H
	DB	073H
	DB	075H
	DB	06cH
	DB	074H
	DB	046H
	DB	06cH
	DB	06fH
	DB	061H
	DB	074H
	DB	043H
	DB	00H
	ORG $+3
?test_sphericalRand@@YAHXZ$rtcName$3 DB 052H		; test_sphericalRand
	DB	065H
	DB	073H
	DB	075H
	DB	06cH
	DB	074H
	DB	044H
	DB	06fH
	DB	075H
	DB	062H
	DB	06cH
	DB	065H
	DB	041H
	DB	00H
	ORG $+2
?test_sphericalRand@@YAHXZ$rtcName$4 DB 052H		; test_sphericalRand
	DB	065H
	DB	073H
	DB	075H
	DB	06cH
	DB	074H
	DB	044H
	DB	06fH
	DB	075H
	DB	062H
	DB	06cH
	DB	065H
	DB	042H
	DB	00H
	ORG $+2
?test_sphericalRand@@YAHXZ$rtcName$5 DB 052H		; test_sphericalRand
	DB	065H
	DB	073H
	DB	075H
	DB	06cH
	DB	074H
	DB	044H
	DB	06fH
	DB	075H
	DB	062H
	DB	06cH
	DB	065H
	DB	043H
	DB	00H
	ORG $+2
?test_sphericalRand@@YAHXZ$rtcVarDesc DD 0d8H		; test_sphericalRand
	DD	08H
	DQ	FLAT:?test_sphericalRand@@YAHXZ$rtcName$5
	DD	0b8H
	DD	08H
	DQ	FLAT:?test_sphericalRand@@YAHXZ$rtcName$4
	DD	098H
	DD	08H
	DQ	FLAT:?test_sphericalRand@@YAHXZ$rtcName$3
	DD	074H
	DD	04H
	DQ	FLAT:?test_sphericalRand@@YAHXZ$rtcName$2
	DD	054H
	DD	04H
	DQ	FLAT:?test_sphericalRand@@YAHXZ$rtcName$1
	DD	034H
	DD	04H
	DQ	FLAT:?test_sphericalRand@@YAHXZ$rtcName$0
	ORG $+288
?test_sphericalRand@@YAHXZ$rtcFrameData DD 06H		; test_sphericalRand
	DD	00H
	DQ	FLAT:?test_sphericalRand@@YAHXZ$rtcVarDesc
CONST	ENDS
;	COMDAT xdata
xdata	SEGMENT
$unwind$??$abs@N@glm@@YANN@Z DD 020b01H
	DD	07007520bH
xdata	ENDS
;	COMDAT xdata
xdata	SEGMENT
$unwind$??$epsilonEqual@N@glm@@YA_NAEBN00@Z DD 021401H
	DD	070105214H
xdata	ENDS
;	COMDAT xdata
xdata	SEGMENT
$unwind$??$abs@M@glm@@YAMM@Z DD 020b01H
	DD	07007520bH
xdata	ENDS
;	COMDAT xdata
xdata	SEGMENT
$unwind$??$epsilonEqual@M@glm@@YA_NAEBM00@Z DD 021401H
	DD	070105214H
xdata	ENDS
;	COMDAT xdata
xdata	SEGMENT
$unwind$?max@?$numeric_limits@_K@std@@SA_KXZ DD 010201H
	DD	07002H
xdata	ENDS
;	COMDAT xdata
xdata	SEGMENT
$unwind$?min@?$numeric_limits@_K@std@@SA_KXZ DD 010201H
	DD	07002H
xdata	ENDS
;	COMDAT xdata
xdata	SEGMENT
$unwind$?max@?$numeric_limits@I@std@@SAIXZ DD 010201H
	DD	07002H
xdata	ENDS
;	COMDAT xdata
xdata	SEGMENT
$unwind$?min@?$numeric_limits@I@std@@SAIXZ DD 010201H
	DD	07002H
xdata	ENDS
;	COMDAT xdata
xdata	SEGMENT
$unwind$?max@?$numeric_limits@G@std@@SAGXZ DD 010201H
	DD	07002H
xdata	ENDS
;	COMDAT xdata
xdata	SEGMENT
$unwind$?min@?$numeric_limits@G@std@@SAGXZ DD 010201H
	DD	07002H
xdata	ENDS
;	COMDAT xdata
xdata	SEGMENT
$unwind$?max@?$numeric_limits@_J@std@@SA_JXZ DD 010201H
	DD	07002H
xdata	ENDS
;	COMDAT xdata
xdata	SEGMENT
$unwind$?min@?$numeric_limits@_J@std@@SA_JXZ DD 010201H
	DD	07002H
xdata	ENDS
;	COMDAT xdata
xdata	SEGMENT
$unwind$?max@?$numeric_limits@H@std@@SAHXZ DD 010201H
	DD	07002H
xdata	ENDS
;	COMDAT xdata
xdata	SEGMENT
$unwind$?min@?$numeric_limits@H@std@@SAHXZ DD 010201H
	DD	07002H
xdata	ENDS
;	COMDAT xdata
xdata	SEGMENT
$unwind$?max@?$numeric_limits@F@std@@SAFXZ DD 010201H
	DD	07002H
xdata	ENDS
;	COMDAT xdata
xdata	SEGMENT
$unwind$?min@?$numeric_limits@F@std@@SAFXZ DD 010201H
	DD	07002H
xdata	ENDS
;	COMDAT xdata
xdata	SEGMENT
$unwind$?max@?$numeric_limits@E@std@@SAEXZ DD 010201H
	DD	07002H
xdata	ENDS
;	COMDAT xdata
xdata	SEGMENT
$unwind$?min@?$numeric_limits@E@std@@SAEXZ DD 010201H
	DD	07002H
xdata	ENDS
;	COMDAT xdata
xdata	SEGMENT
$unwind$?max@?$numeric_limits@C@std@@SACXZ DD 010201H
	DD	07002H
xdata	ENDS
;	COMDAT xdata
xdata	SEGMENT
$unwind$?min@?$numeric_limits@C@std@@SACXZ DD 010201H
	DD	07002H
xdata	ENDS
;	COMDAT xdata
xdata	SEGMENT
$unwind$?sqrt@@YAMM@Z DD 020b01H
	DD	07007520bH
xdata	ENDS
;	COMDAT xdata
xdata	SEGMENT
$unwind$?sin@@YAMM@Z DD 020b01H
	DD	07007520bH
xdata	ENDS
;	COMDAT xdata
xdata	SEGMENT
$unwind$?cos@@YAMM@Z DD 020b01H
	DD	07007520bH
xdata	ENDS
; Function compile flags: /Odtp /RTCsu
; File C:\Users\ksart\OneDrive\Desktop\FlappyBird\libraries\external\glm\glm\detail\type_vec3.inl
;	COMDAT ??$?0HHH@?$tvec3@G$0A@@glm@@QEAA@HHH@Z
_TEXT	SEGMENT
this$ = 16
a$ = 24
b$ = 32
c$ = 40
??$?0HHH@?$tvec3@G$0A@@glm@@QEAA@HHH@Z PROC		; glm::tvec3<unsigned short,0>::tvec3<unsigned short,0><int,int,int>, COMDAT

; 80   : 	{}

$LN3:
	mov	DWORD PTR [rsp+32], r9d
	mov	DWORD PTR [rsp+24], r8d
	mov	DWORD PTR [rsp+16], edx
	mov	QWORD PTR [rsp+8], rcx
	push	rdi

; 77   : 		x(static_cast<T>(a)),

	mov	rax, QWORD PTR this$[rsp]
	movzx	ecx, WORD PTR a$[rsp]
	mov	WORD PTR [rax], cx

; 78   : 		y(static_cast<T>(b)),

	mov	rax, QWORD PTR this$[rsp]
	movzx	ecx, WORD PTR b$[rsp]
	mov	WORD PTR [rax+2], cx

; 79   : 		z(static_cast<T>(c))

	mov	rax, QWORD PTR this$[rsp]
	movzx	ecx, WORD PTR c$[rsp]
	mov	WORD PTR [rax+4], cx

; 80   : 	{}

	mov	rax, QWORD PTR this$[rsp]
	pop	rdi
	ret	0
??$?0HHH@?$tvec3@G$0A@@glm@@QEAA@HHH@Z ENDP		; glm::tvec3<unsigned short,0>::tvec3<unsigned short,0><int,int,int>
_TEXT	ENDS
; Function compile flags: /Odtp /RTCsu
; File C:\Users\ksart\OneDrive\Desktop\FlappyBird\libraries\external\glm\glm\detail\type_vec3.inl
;	COMDAT ??$?0HHH@?$tvec3@E$0A@@glm@@QEAA@HHH@Z
_TEXT	SEGMENT
this$ = 16
a$ = 24
b$ = 32
c$ = 40
??$?0HHH@?$tvec3@E$0A@@glm@@QEAA@HHH@Z PROC		; glm::tvec3<unsigned char,0>::tvec3<unsigned char,0><int,int,int>, COMDAT

; 80   : 	{}

$LN3:
	mov	DWORD PTR [rsp+32], r9d
	mov	DWORD PTR [rsp+24], r8d
	mov	DWORD PTR [rsp+16], edx
	mov	QWORD PTR [rsp+8], rcx
	push	rdi

; 77   : 		x(static_cast<T>(a)),

	mov	rax, QWORD PTR this$[rsp]
	movzx	ecx, BYTE PTR a$[rsp]
	mov	BYTE PTR [rax], cl

; 78   : 		y(static_cast<T>(b)),

	mov	rax, QWORD PTR this$[rsp]
	movzx	ecx, BYTE PTR b$[rsp]
	mov	BYTE PTR [rax+1], cl

; 79   : 		z(static_cast<T>(c))

	mov	rax, QWORD PTR this$[rsp]
	movzx	ecx, BYTE PTR c$[rsp]
	mov	BYTE PTR [rax+2], cl

; 80   : 	{}

	mov	rax, QWORD PTR this$[rsp]
	pop	rdi
	ret	0
??$?0HHH@?$tvec3@E$0A@@glm@@QEAA@HHH@Z ENDP		; glm::tvec3<unsigned char,0>::tvec3<unsigned char,0><int,int,int>
_TEXT	ENDS
; Function compile flags: /Odtp /RTCsu
; File C:\Users\ksart\OneDrive\Desktop\FlappyBird\libraries\external\glm\glm\detail\type_vec3.inl
;	COMDAT ??$?UG$0A@@glm@@YA?AU?$tvec3@G$0A@@0@AEBU10@0@Z
_TEXT	SEGMENT
__$ReturnUdt$ = 48
v1$ = 56
v2$ = 64
??$?UG$0A@@glm@@YA?AU?$tvec3@G$0A@@0@AEBU10@0@Z PROC	; glm::operator|<unsigned short,0>, COMDAT

; 846  : 	{

$LN3:
	mov	QWORD PTR [rsp+24], r8
	mov	QWORD PTR [rsp+16], rdx
	mov	QWORD PTR [rsp+8], rcx
	push	rdi
	sub	rsp, 32					; 00000020H

; 847  : 		return tvec3<T, P>(

	mov	rax, QWORD PTR v1$[rsp]
	movzx	eax, WORD PTR [rax+4]
	mov	rcx, QWORD PTR v2$[rsp]
	movzx	ecx, WORD PTR [rcx+4]
	or	eax, ecx
	mov	rcx, QWORD PTR v1$[rsp]
	movzx	ecx, WORD PTR [rcx+2]
	mov	rdx, QWORD PTR v2$[rsp]
	movzx	edx, WORD PTR [rdx+2]
	or	ecx, edx
	mov	rdx, QWORD PTR v1$[rsp]
	movzx	edx, WORD PTR [rdx]
	mov	r8, QWORD PTR v2$[rsp]
	movzx	r8d, WORD PTR [r8]
	or	edx, r8d
	mov	r9d, eax
	mov	r8d, ecx
	mov	rcx, QWORD PTR __$ReturnUdt$[rsp]
	call	??$?0HHH@?$tvec3@G$0A@@glm@@QEAA@HHH@Z	; glm::tvec3<unsigned short,0>::tvec3<unsigned short,0><int,int,int>
	mov	rax, QWORD PTR __$ReturnUdt$[rsp]

; 848  : 			v1.x | v2.x,
; 849  : 			v1.y | v2.y,
; 850  : 			v1.z | v2.z);
; 851  : 	}

	add	rsp, 32					; 00000020H
	pop	rdi
	ret	0
??$?UG$0A@@glm@@YA?AU?$tvec3@G$0A@@0@AEBU10@0@Z ENDP	; glm::operator|<unsigned short,0>
_TEXT	ENDS
; Function compile flags: /Odtp /RTCsu
; File C:\Users\ksart\OneDrive\Desktop\FlappyBird\libraries\external\glm\glm\detail\type_vec3.inl
;	COMDAT ??$?6G$0A@@glm@@YA?AU?$tvec3@G$0A@@0@AEBU10@G@Z
_TEXT	SEGMENT
tv72 = 32
tv74 = 36
__$ReturnUdt$ = 64
v$ = 72
scalar$ = 80
??$?6G$0A@@glm@@YA?AU?$tvec3@G$0A@@0@AEBU10@G@Z PROC	; glm::operator<<<unsigned short,0>, COMDAT

; 900  : 	{

$LN3:
	mov	WORD PTR [rsp+24], r8w
	mov	QWORD PTR [rsp+16], rdx
	mov	QWORD PTR [rsp+8], rcx
	push	rdi
	sub	rsp, 48					; 00000030H

; 901  : 		return tvec3<T, P>(

	mov	rax, QWORD PTR v$[rsp]
	movzx	eax, WORD PTR [rax+4]
	movzx	ecx, WORD PTR scalar$[rsp]
	shl	eax, cl
	mov	rcx, QWORD PTR v$[rsp]
	movzx	ecx, WORD PTR [rcx+2]
	mov	DWORD PTR tv72[rsp], ecx
	movzx	edx, WORD PTR scalar$[rsp]
	movzx	ecx, dl
	mov	edx, DWORD PTR tv72[rsp]
	shl	edx, cl
	mov	ecx, edx
	mov	DWORD PTR tv74[rsp], ecx
	mov	rdx, QWORD PTR v$[rsp]
	movzx	edx, WORD PTR [rdx]
	movzx	r8d, WORD PTR scalar$[rsp]
	movzx	ecx, r8b
	shl	edx, cl
	mov	ecx, edx
	mov	r9d, eax
	mov	eax, DWORD PTR tv74[rsp]
	mov	r8d, eax
	mov	edx, ecx
	mov	rcx, QWORD PTR __$ReturnUdt$[rsp]
	call	??$?0HHH@?$tvec3@G$0A@@glm@@QEAA@HHH@Z	; glm::tvec3<unsigned short,0>::tvec3<unsigned short,0><int,int,int>
	mov	rax, QWORD PTR __$ReturnUdt$[rsp]

; 902  : 			v.x << scalar,
; 903  : 			v.y << scalar,
; 904  : 			v.z << scalar);
; 905  : 	}

	add	rsp, 48					; 00000030H
	pop	rdi
	ret	0
??$?6G$0A@@glm@@YA?AU?$tvec3@G$0A@@0@AEBU10@G@Z ENDP	; glm::operator<<<unsigned short,0>
_TEXT	ENDS
; Function compile flags: /Odtp /RTCsu
; File C:\Users\ksart\OneDrive\Desktop\FlappyBird\libraries\external\glm\glm\detail\type_vec3.inl
;	COMDAT ??$?0E$0A@@?$tvec3@G$0A@@glm@@QEAA@AEBU?$tvec3@E$0A@@1@@Z
_TEXT	SEGMENT
this$ = 16
v$ = 24
??$?0E$0A@@?$tvec3@G$0A@@glm@@QEAA@AEBU?$tvec3@E$0A@@1@@Z PROC ; glm::tvec3<unsigned short,0>::tvec3<unsigned short,0><unsigned char,0>, COMDAT

; 130  : 	{}

$LN3:
	mov	QWORD PTR [rsp+16], rdx
	mov	QWORD PTR [rsp+8], rcx
	push	rdi

; 127  : 		x(static_cast<T>(v.x)),

	mov	rax, QWORD PTR v$[rsp]
	movzx	eax, BYTE PTR [rax]
	mov	rcx, QWORD PTR this$[rsp]
	mov	WORD PTR [rcx], ax

; 128  : 		y(static_cast<T>(v.y)),

	mov	rax, QWORD PTR v$[rsp]
	movzx	eax, BYTE PTR [rax+1]
	mov	rcx, QWORD PTR this$[rsp]
	mov	WORD PTR [rcx+2], ax

; 129  : 		z(static_cast<T>(v.z))

	mov	rax, QWORD PTR v$[rsp]
	movzx	eax, BYTE PTR [rax+2]
	mov	rcx, QWORD PTR this$[rsp]
	mov	WORD PTR [rcx+4], ax

; 130  : 	{}

	mov	rax, QWORD PTR this$[rsp]
	pop	rdi
	ret	0
??$?0E$0A@@?$tvec3@G$0A@@glm@@QEAA@AEBU?$tvec3@E$0A@@1@@Z ENDP ; glm::tvec3<unsigned short,0>::tvec3<unsigned short,0><unsigned char,0>
_TEXT	ENDS
; Function compile flags: /Odtp /RTCsu
; File C:\Users\ksart\OneDrive\Desktop\FlappyBird\libraries\external\glm\glm\gtc\random.inl
;	COMDAT ?call@?$compute_rand@E$0A@Utvec3@glm@@@detail@glm@@SA?AU?$tvec3@E$0A@@3@XZ
_TEXT	SEGMENT
tv66 = 32
tv68 = 36
tv69 = 40
tv71 = 44
tv73 = 48
tv74 = 52
tv76 = 56
tv78 = 60
__$ReturnUdt$ = 80
?call@?$compute_rand@E$0A@Utvec3@glm@@@detail@glm@@SA?AU?$tvec3@E$0A@@3@XZ PROC ; glm::detail::compute_rand<unsigned char,0,glm::tvec3>::call, COMDAT

; 44   : 		{

$LN3:
	mov	QWORD PTR [rsp+8], rcx
	push	rdi
	sub	rsp, 64					; 00000040H

; 45   : 			return tvec3<uint8, P>(

	call	QWORD PTR __imp_rand
	mov	DWORD PTR tv66[rsp], eax
	call	?max@?$numeric_limits@E@std@@SAEXZ	; std::numeric_limits<unsigned char>::max
	movzx	eax, al
	mov	DWORD PTR tv68[rsp], eax
	mov	ecx, DWORD PTR tv66[rsp]
	mov	eax, ecx
	cdq
	mov	ecx, DWORD PTR tv68[rsp]
	idiv	ecx
	mov	eax, edx
	mov	DWORD PTR tv69[rsp], eax
	call	QWORD PTR __imp_rand
	mov	DWORD PTR tv71[rsp], eax
	call	?max@?$numeric_limits@E@std@@SAEXZ	; std::numeric_limits<unsigned char>::max
	movzx	eax, al
	mov	DWORD PTR tv73[rsp], eax
	mov	ecx, DWORD PTR tv71[rsp]
	mov	eax, ecx
	cdq
	mov	ecx, DWORD PTR tv73[rsp]
	idiv	ecx
	mov	eax, edx
	mov	DWORD PTR tv74[rsp], eax
	call	QWORD PTR __imp_rand
	mov	DWORD PTR tv76[rsp], eax
	call	?max@?$numeric_limits@E@std@@SAEXZ	; std::numeric_limits<unsigned char>::max
	movzx	eax, al
	mov	DWORD PTR tv78[rsp], eax
	mov	ecx, DWORD PTR tv76[rsp]
	mov	eax, ecx
	cdq
	mov	ecx, DWORD PTR tv78[rsp]
	idiv	ecx
	mov	eax, edx
	mov	ecx, DWORD PTR tv69[rsp]
	mov	r9d, ecx
	mov	ecx, DWORD PTR tv74[rsp]
	mov	r8d, ecx
	mov	edx, eax
	mov	rcx, QWORD PTR __$ReturnUdt$[rsp]
	call	??$?0HHH@?$tvec3@E$0A@@glm@@QEAA@HHH@Z	; glm::tvec3<unsigned char,0>::tvec3<unsigned char,0><int,int,int>
	mov	rax, QWORD PTR __$ReturnUdt$[rsp]

; 46   : 				std::rand() % std::numeric_limits<uint8>::max(),
; 47   : 				std::rand() % std::numeric_limits<uint8>::max(),
; 48   : 				std::rand() % std::numeric_limits<uint8>::max());
; 49   : 		}

	add	rsp, 64					; 00000040H
	pop	rdi
	ret	0
?call@?$compute_rand@E$0A@Utvec3@glm@@@detail@glm@@SA?AU?$tvec3@E$0A@@3@XZ ENDP ; glm::detail::compute_rand<unsigned char,0,glm::tvec3>::call
_TEXT	ENDS
; Function compile flags: /Odtp /RTCsu
; File C:\Users\ksart\OneDrive\Desktop\FlappyBird\libraries\external\glm\glm\detail\type_vec3.inl
;	COMDAT ??$?U_K$0A@@glm@@YA?AU?$tvec3@_K$0A@@0@AEBU10@0@Z
_TEXT	SEGMENT
__$ReturnUdt$ = 48
v1$ = 56
v2$ = 64
??$?U_K$0A@@glm@@YA?AU?$tvec3@_K$0A@@0@AEBU10@0@Z PROC	; glm::operator|<unsigned __int64,0>, COMDAT

; 846  : 	{

$LN3:
	mov	QWORD PTR [rsp+24], r8
	mov	QWORD PTR [rsp+16], rdx
	mov	QWORD PTR [rsp+8], rcx
	push	rdi
	sub	rsp, 32					; 00000020H

; 847  : 		return tvec3<T, P>(

	mov	rax, QWORD PTR v1$[rsp]
	mov	rcx, QWORD PTR v2$[rsp]
	mov	rcx, QWORD PTR [rcx+16]
	mov	rax, QWORD PTR [rax+16]
	or	rax, rcx
	mov	rcx, QWORD PTR v1$[rsp]
	mov	rdx, QWORD PTR v2$[rsp]
	mov	rdx, QWORD PTR [rdx+8]
	mov	rcx, QWORD PTR [rcx+8]
	or	rcx, rdx
	mov	rdx, QWORD PTR v1$[rsp]
	mov	r8, QWORD PTR v2$[rsp]
	mov	r8, QWORD PTR [r8]
	mov	rdx, QWORD PTR [rdx]
	or	rdx, r8
	mov	r9, rax
	mov	r8, rcx
	mov	rcx, QWORD PTR __$ReturnUdt$[rsp]
	call	??0?$tvec3@_K$0A@@glm@@QEAA@_K00@Z	; glm::tvec3<unsigned __int64,0>::tvec3<unsigned __int64,0>
	mov	rax, QWORD PTR __$ReturnUdt$[rsp]

; 848  : 			v1.x | v2.x,
; 849  : 			v1.y | v2.y,
; 850  : 			v1.z | v2.z);
; 851  : 	}

	add	rsp, 32					; 00000020H
	pop	rdi
	ret	0
??$?U_K$0A@@glm@@YA?AU?$tvec3@_K$0A@@0@AEBU10@0@Z ENDP	; glm::operator|<unsigned __int64,0>
_TEXT	ENDS
; Function compile flags: /Odtp /RTCsu
; File C:\Users\ksart\OneDrive\Desktop\FlappyBird\libraries\external\glm\glm\detail\type_vec3.inl
;	COMDAT ??$?6_K$0A@@glm@@YA?AU?$tvec3@_K$0A@@0@AEBU10@_K@Z
_TEXT	SEGMENT
tv80 = 32
tv70 = 40
__$ReturnUdt$ = 64
v$ = 72
scalar$ = 80
??$?6_K$0A@@glm@@YA?AU?$tvec3@_K$0A@@0@AEBU10@_K@Z PROC	; glm::operator<<<unsigned __int64,0>, COMDAT

; 900  : 	{

$LN3:
	mov	QWORD PTR [rsp+24], r8
	mov	QWORD PTR [rsp+16], rdx
	mov	QWORD PTR [rsp+8], rcx
	push	rdi
	sub	rsp, 48					; 00000030H

; 901  : 		return tvec3<T, P>(

	mov	rax, QWORD PTR scalar$[rsp]
	mov	rcx, QWORD PTR v$[rsp]
	mov	QWORD PTR tv80[rsp], rcx
	movzx	ecx, al
	mov	rax, QWORD PTR tv80[rsp]
	mov	rax, QWORD PTR [rax+16]
	shl	rax, cl
	mov	rcx, QWORD PTR scalar$[rsp]
	mov	rdx, QWORD PTR v$[rsp]
	mov	rdx, QWORD PTR [rdx+8]
	shl	rdx, cl
	mov	rcx, rdx
	mov	QWORD PTR tv70[rsp], rcx
	mov	rdx, QWORD PTR scalar$[rsp]
	mov	r8, QWORD PTR v$[rsp]
	movzx	ecx, dl
	mov	rdx, QWORD PTR [r8]
	shl	rdx, cl
	mov	rcx, rdx
	mov	r9, rax
	mov	rax, QWORD PTR tv70[rsp]
	mov	r8, rax
	mov	rdx, rcx
	mov	rcx, QWORD PTR __$ReturnUdt$[rsp]
	call	??0?$tvec3@_K$0A@@glm@@QEAA@_K00@Z	; glm::tvec3<unsigned __int64,0>::tvec3<unsigned __int64,0>
	mov	rax, QWORD PTR __$ReturnUdt$[rsp]

; 902  : 			v.x << scalar,
; 903  : 			v.y << scalar,
; 904  : 			v.z << scalar);
; 905  : 	}

	add	rsp, 48					; 00000030H
	pop	rdi
	ret	0
??$?6_K$0A@@glm@@YA?AU?$tvec3@_K$0A@@0@AEBU10@_K@Z ENDP	; glm::operator<<<unsigned __int64,0>
_TEXT	ENDS
; Function compile flags: /Odtp /RTCsu
; File C:\Users\ksart\OneDrive\Desktop\FlappyBird\libraries\external\glm\glm\detail\type_vec3.inl
;	COMDAT ??$?0I$0A@@?$tvec3@_K$0A@@glm@@QEAA@AEBU?$tvec3@I$0A@@1@@Z
_TEXT	SEGMENT
this$ = 16
v$ = 24
??$?0I$0A@@?$tvec3@_K$0A@@glm@@QEAA@AEBU?$tvec3@I$0A@@1@@Z PROC ; glm::tvec3<unsigned __int64,0>::tvec3<unsigned __int64,0><unsigned int,0>, COMDAT

; 130  : 	{}

$LN3:
	mov	QWORD PTR [rsp+16], rdx
	mov	QWORD PTR [rsp+8], rcx
	push	rdi

; 127  : 		x(static_cast<T>(v.x)),

	mov	rax, QWORD PTR v$[rsp]
	mov	eax, DWORD PTR [rax]
	mov	rcx, QWORD PTR this$[rsp]
	mov	QWORD PTR [rcx], rax

; 128  : 		y(static_cast<T>(v.y)),

	mov	rax, QWORD PTR v$[rsp]
	mov	eax, DWORD PTR [rax+4]
	mov	rcx, QWORD PTR this$[rsp]
	mov	QWORD PTR [rcx+8], rax

; 129  : 		z(static_cast<T>(v.z))

	mov	rax, QWORD PTR v$[rsp]
	mov	eax, DWORD PTR [rax+8]
	mov	rcx, QWORD PTR this$[rsp]
	mov	QWORD PTR [rcx+16], rax

; 130  : 	{}

	mov	rax, QWORD PTR this$[rsp]
	pop	rdi
	ret	0
??$?0I$0A@@?$tvec3@_K$0A@@glm@@QEAA@AEBU?$tvec3@I$0A@@1@@Z ENDP ; glm::tvec3<unsigned __int64,0>::tvec3<unsigned __int64,0><unsigned int,0>
_TEXT	ENDS
; Function compile flags: /Odtp /RTCsu
; File C:\Users\ksart\OneDrive\Desktop\FlappyBird\libraries\external\glm\glm\detail\type_vec3.inl
;	COMDAT ??$?UI$0A@@glm@@YA?AU?$tvec3@I$0A@@0@AEBU10@0@Z
_TEXT	SEGMENT
__$ReturnUdt$ = 48
v1$ = 56
v2$ = 64
??$?UI$0A@@glm@@YA?AU?$tvec3@I$0A@@0@AEBU10@0@Z PROC	; glm::operator|<unsigned int,0>, COMDAT

; 846  : 	{

$LN3:
	mov	QWORD PTR [rsp+24], r8
	mov	QWORD PTR [rsp+16], rdx
	mov	QWORD PTR [rsp+8], rcx
	push	rdi
	sub	rsp, 32					; 00000020H

; 847  : 		return tvec3<T, P>(

	mov	rax, QWORD PTR v1$[rsp]
	mov	rcx, QWORD PTR v2$[rsp]
	mov	ecx, DWORD PTR [rcx+8]
	mov	eax, DWORD PTR [rax+8]
	or	eax, ecx
	mov	rcx, QWORD PTR v1$[rsp]
	mov	rdx, QWORD PTR v2$[rsp]
	mov	edx, DWORD PTR [rdx+4]
	mov	ecx, DWORD PTR [rcx+4]
	or	ecx, edx
	mov	rdx, QWORD PTR v1$[rsp]
	mov	r8, QWORD PTR v2$[rsp]
	mov	r8d, DWORD PTR [r8]
	mov	edx, DWORD PTR [rdx]
	or	edx, r8d
	mov	r9d, eax
	mov	r8d, ecx
	mov	rcx, QWORD PTR __$ReturnUdt$[rsp]
	call	??0?$tvec3@I$0A@@glm@@QEAA@III@Z	; glm::tvec3<unsigned int,0>::tvec3<unsigned int,0>
	mov	rax, QWORD PTR __$ReturnUdt$[rsp]

; 848  : 			v1.x | v2.x,
; 849  : 			v1.y | v2.y,
; 850  : 			v1.z | v2.z);
; 851  : 	}

	add	rsp, 32					; 00000020H
	pop	rdi
	ret	0
??$?UI$0A@@glm@@YA?AU?$tvec3@I$0A@@0@AEBU10@0@Z ENDP	; glm::operator|<unsigned int,0>
_TEXT	ENDS
; Function compile flags: /Odtp /RTCsu
; File C:\Users\ksart\OneDrive\Desktop\FlappyBird\libraries\external\glm\glm\detail\type_vec3.inl
;	COMDAT ??$?6I$0A@@glm@@YA?AU?$tvec3@I$0A@@0@AEBU10@I@Z
_TEXT	SEGMENT
tv80 = 32
tv70 = 40
__$ReturnUdt$ = 64
v$ = 72
scalar$ = 80
??$?6I$0A@@glm@@YA?AU?$tvec3@I$0A@@0@AEBU10@I@Z PROC	; glm::operator<<<unsigned int,0>, COMDAT

; 900  : 	{

$LN3:
	mov	DWORD PTR [rsp+24], r8d
	mov	QWORD PTR [rsp+16], rdx
	mov	QWORD PTR [rsp+8], rcx
	push	rdi
	sub	rsp, 48					; 00000030H

; 901  : 		return tvec3<T, P>(

	mov	eax, DWORD PTR scalar$[rsp]
	mov	rcx, QWORD PTR v$[rsp]
	mov	QWORD PTR tv80[rsp], rcx
	movzx	ecx, al
	mov	rax, QWORD PTR tv80[rsp]
	mov	eax, DWORD PTR [rax+8]
	shl	eax, cl
	mov	ecx, DWORD PTR scalar$[rsp]
	mov	rdx, QWORD PTR v$[rsp]
	mov	edx, DWORD PTR [rdx+4]
	shl	edx, cl
	mov	ecx, edx
	mov	DWORD PTR tv70[rsp], ecx
	mov	edx, DWORD PTR scalar$[rsp]
	mov	r8, QWORD PTR v$[rsp]
	movzx	ecx, dl
	mov	edx, DWORD PTR [r8]
	shl	edx, cl
	mov	ecx, edx
	mov	r9d, eax
	mov	eax, DWORD PTR tv70[rsp]
	mov	r8d, eax
	mov	edx, ecx
	mov	rcx, QWORD PTR __$ReturnUdt$[rsp]
	call	??0?$tvec3@I$0A@@glm@@QEAA@III@Z	; glm::tvec3<unsigned int,0>::tvec3<unsigned int,0>
	mov	rax, QWORD PTR __$ReturnUdt$[rsp]

; 902  : 			v.x << scalar,
; 903  : 			v.y << scalar,
; 904  : 			v.z << scalar);
; 905  : 	}

	add	rsp, 48					; 00000030H
	pop	rdi
	ret	0
??$?6I$0A@@glm@@YA?AU?$tvec3@I$0A@@0@AEBU10@I@Z ENDP	; glm::operator<<<unsigned int,0>
_TEXT	ENDS
; Function compile flags: /Odtp /RTCsu
; File C:\Users\ksart\OneDrive\Desktop\FlappyBird\libraries\external\glm\glm\detail\type_vec3.inl
;	COMDAT ??$?0G$0A@@?$tvec3@I$0A@@glm@@QEAA@AEBU?$tvec3@G$0A@@1@@Z
_TEXT	SEGMENT
this$ = 16
v$ = 24
??$?0G$0A@@?$tvec3@I$0A@@glm@@QEAA@AEBU?$tvec3@G$0A@@1@@Z PROC ; glm::tvec3<unsigned int,0>::tvec3<unsigned int,0><unsigned short,0>, COMDAT

; 130  : 	{}

$LN3:
	mov	QWORD PTR [rsp+16], rdx
	mov	QWORD PTR [rsp+8], rcx
	push	rdi

; 127  : 		x(static_cast<T>(v.x)),

	mov	rax, QWORD PTR v$[rsp]
	movzx	eax, WORD PTR [rax]
	mov	rcx, QWORD PTR this$[rsp]
	mov	DWORD PTR [rcx], eax

; 128  : 		y(static_cast<T>(v.y)),

	mov	rax, QWORD PTR v$[rsp]
	movzx	eax, WORD PTR [rax+2]
	mov	rcx, QWORD PTR this$[rsp]
	mov	DWORD PTR [rcx+4], eax

; 129  : 		z(static_cast<T>(v.z))

	mov	rax, QWORD PTR v$[rsp]
	movzx	eax, WORD PTR [rax+4]
	mov	rcx, QWORD PTR this$[rsp]
	mov	DWORD PTR [rcx+8], eax

; 130  : 	{}

	mov	rax, QWORD PTR this$[rsp]
	pop	rdi
	ret	0
??$?0G$0A@@?$tvec3@I$0A@@glm@@QEAA@AEBU?$tvec3@G$0A@@1@@Z ENDP ; glm::tvec3<unsigned int,0>::tvec3<unsigned int,0><unsigned short,0>
_TEXT	ENDS
; Function compile flags: /Odtp /RTCsu
; File C:\Users\ksart\OneDrive\Desktop\FlappyBird\libraries\external\glm\glm\gtc\random.inl
;	COMDAT ?call@?$compute_rand@G$0A@Utvec3@glm@@@detail@glm@@SA?AU?$tvec3@G$0A@@3@XZ
_TEXT	SEGMENT
$T1 = 32
$T2 = 38
$T3 = 42
$T4 = 48
$T5 = 54
$T6 = 58
tv65 = 64
__$ReturnUdt$ = 96
?call@?$compute_rand@G$0A@Utvec3@glm@@@detail@glm@@SA?AU?$tvec3@G$0A@@3@XZ PROC ; glm::detail::compute_rand<unsigned short,0,glm::tvec3>::call, COMDAT

; 69   : 		{

$LN3:
	mov	QWORD PTR [rsp+8], rcx
	push	rdi
	sub	rsp, 80					; 00000050H

; 70   : 			return

	lea	rcx, QWORD PTR $T2[rsp]
	call	?call@?$compute_rand@E$0A@Utvec3@glm@@@detail@glm@@SA?AU?$tvec3@E$0A@@3@XZ ; glm::detail::compute_rand<unsigned char,0,glm::tvec3>::call
	mov	rdx, rax
	lea	rcx, QWORD PTR $T1[rsp]
	call	??$?0E$0A@@?$tvec3@G$0A@@glm@@QEAA@AEBU?$tvec3@E$0A@@1@@Z ; glm::tvec3<unsigned short,0>::tvec3<unsigned short,0><unsigned char,0>
	xor	r8d, r8d
	mov	rdx, rax
	lea	rcx, QWORD PTR $T3[rsp]
	call	??$?6G$0A@@glm@@YA?AU?$tvec3@G$0A@@0@AEBU10@G@Z ; glm::operator<<<unsigned short,0>
	mov	QWORD PTR tv65[rsp], rax
	lea	rcx, QWORD PTR $T5[rsp]
	call	?call@?$compute_rand@E$0A@Utvec3@glm@@@detail@glm@@SA?AU?$tvec3@E$0A@@3@XZ ; glm::detail::compute_rand<unsigned char,0,glm::tvec3>::call
	mov	rdx, rax
	lea	rcx, QWORD PTR $T4[rsp]
	call	??$?0E$0A@@?$tvec3@G$0A@@glm@@QEAA@AEBU?$tvec3@E$0A@@1@@Z ; glm::tvec3<unsigned short,0>::tvec3<unsigned short,0><unsigned char,0>
	mov	r8w, 8
	mov	rdx, rax
	lea	rcx, QWORD PTR $T6[rsp]
	call	??$?6G$0A@@glm@@YA?AU?$tvec3@G$0A@@0@AEBU10@G@Z ; glm::operator<<<unsigned short,0>
	mov	rcx, QWORD PTR tv65[rsp]
	mov	r8, rcx
	mov	rdx, rax
	mov	rcx, QWORD PTR __$ReturnUdt$[rsp]
	call	??$?UG$0A@@glm@@YA?AU?$tvec3@G$0A@@0@AEBU10@0@Z ; glm::operator|<unsigned short,0>
	mov	rax, QWORD PTR __$ReturnUdt$[rsp]

; 71   : 				(vecType<uint16, P>(compute_rand<uint8, P, vecType>::call()) << static_cast<uint16>(8)) |
; 72   : 				(vecType<uint16, P>(compute_rand<uint8, P, vecType>::call()) << static_cast<uint16>(0));
; 73   : 		}

	add	rsp, 80					; 00000050H
	pop	rdi
	ret	0
?call@?$compute_rand@G$0A@Utvec3@glm@@@detail@glm@@SA?AU?$tvec3@G$0A@@3@XZ ENDP ; glm::detail::compute_rand<unsigned short,0,glm::tvec3>::call
_TEXT	ENDS
; Function compile flags: /Odtp /RTCsu
; File C:\Users\ksart\OneDrive\Desktop\FlappyBird\libraries\external\glm\glm\detail\type_vec3.inl
;	COMDAT ??$?HM$0A@@glm@@YA?AU?$tvec3@M$0A@@0@AEBU10@0@Z
_TEXT	SEGMENT
tv76 = 32
__$ReturnUdt$ = 64
v1$ = 72
v2$ = 80
??$?HM$0A@@glm@@YA?AU?$tvec3@M$0A@@0@AEBU10@0@Z PROC	; glm::operator+<float,0>, COMDAT

; 574  : 	{

$LN3:
	mov	QWORD PTR [rsp+24], r8
	mov	QWORD PTR [rsp+16], rdx
	mov	QWORD PTR [rsp+8], rcx
	push	rdi
	sub	rsp, 48					; 00000030H

; 575  : 		return tvec3<T, P>(

	mov	rax, QWORD PTR v1$[rsp]
	mov	rcx, QWORD PTR v2$[rsp]
	movss	xmm0, DWORD PTR [rax+8]
	addss	xmm0, DWORD PTR [rcx+8]
	mov	rax, QWORD PTR v1$[rsp]
	mov	rcx, QWORD PTR v2$[rsp]
	movss	xmm1, DWORD PTR [rax+4]
	addss	xmm1, DWORD PTR [rcx+4]
	mov	rax, QWORD PTR v1$[rsp]
	mov	rcx, QWORD PTR v2$[rsp]
	movss	xmm2, DWORD PTR [rax]
	addss	xmm2, DWORD PTR [rcx]
	movss	DWORD PTR tv76[rsp], xmm2
	movaps	xmm3, xmm0
	movaps	xmm2, xmm1
	movss	xmm0, DWORD PTR tv76[rsp]
	movaps	xmm1, xmm0
	mov	rcx, QWORD PTR __$ReturnUdt$[rsp]
	call	??0?$tvec3@M$0A@@glm@@QEAA@MMM@Z	; glm::tvec3<float,0>::tvec3<float,0>
	mov	rax, QWORD PTR __$ReturnUdt$[rsp]

; 576  : 			v1.x + v2.x,
; 577  : 			v1.y + v2.y,
; 578  : 			v1.z + v2.z);
; 579  : 	}

	add	rsp, 48					; 00000030H
	pop	rdi
	ret	0
??$?HM$0A@@glm@@YA?AU?$tvec3@M$0A@@0@AEBU10@0@Z ENDP	; glm::operator+<float,0>
_TEXT	ENDS
; Function compile flags: /Odtp /RTCsu
; File C:\Users\ksart\OneDrive\Desktop\FlappyBird\libraries\external\glm\glm\detail\type_vec3.inl
;	COMDAT ??$?GM$0A@@glm@@YA?AU?$tvec3@M$0A@@0@AEBU10@0@Z
_TEXT	SEGMENT
tv76 = 32
__$ReturnUdt$ = 64
v1$ = 72
v2$ = 80
??$?GM$0A@@glm@@YA?AU?$tvec3@M$0A@@0@AEBU10@0@Z PROC	; glm::operator-<float,0>, COMDAT

; 619  : 	{

$LN3:
	mov	QWORD PTR [rsp+24], r8
	mov	QWORD PTR [rsp+16], rdx
	mov	QWORD PTR [rsp+8], rcx
	push	rdi
	sub	rsp, 48					; 00000030H

; 620  : 		return tvec3<T, P>(

	mov	rax, QWORD PTR v1$[rsp]
	mov	rcx, QWORD PTR v2$[rsp]
	movss	xmm0, DWORD PTR [rax+8]
	subss	xmm0, DWORD PTR [rcx+8]
	mov	rax, QWORD PTR v1$[rsp]
	mov	rcx, QWORD PTR v2$[rsp]
	movss	xmm1, DWORD PTR [rax+4]
	subss	xmm1, DWORD PTR [rcx+4]
	mov	rax, QWORD PTR v1$[rsp]
	mov	rcx, QWORD PTR v2$[rsp]
	movss	xmm2, DWORD PTR [rax]
	subss	xmm2, DWORD PTR [rcx]
	movss	DWORD PTR tv76[rsp], xmm2
	movaps	xmm3, xmm0
	movaps	xmm2, xmm1
	movss	xmm0, DWORD PTR tv76[rsp]
	movaps	xmm1, xmm0
	mov	rcx, QWORD PTR __$ReturnUdt$[rsp]
	call	??0?$tvec3@M$0A@@glm@@QEAA@MMM@Z	; glm::tvec3<float,0>::tvec3<float,0>
	mov	rax, QWORD PTR __$ReturnUdt$[rsp]

; 621  : 			v1.x - v2.x,
; 622  : 			v1.y - v2.y,
; 623  : 			v1.z - v2.z);
; 624  : 	}

	add	rsp, 48					; 00000030H
	pop	rdi
	ret	0
??$?GM$0A@@glm@@YA?AU?$tvec3@M$0A@@0@AEBU10@0@Z ENDP	; glm::operator-<float,0>
_TEXT	ENDS
; Function compile flags: /Odtp /RTCsu
; File C:\Users\ksart\OneDrive\Desktop\FlappyBird\libraries\external\glm\glm\detail\type_vec3.inl
;	COMDAT ??$?KM$0A@@glm@@YA?AU?$tvec3@M$0A@@0@AEBU10@M@Z
_TEXT	SEGMENT
tv73 = 32
__$ReturnUdt$ = 64
v$ = 72
scalar$ = 80
??$?KM$0A@@glm@@YA?AU?$tvec3@M$0A@@0@AEBU10@M@Z PROC	; glm::operator/<float,0>, COMDAT

; 673  : 	{

$LN3:
	movss	DWORD PTR [rsp+24], xmm2
	mov	QWORD PTR [rsp+16], rdx
	mov	QWORD PTR [rsp+8], rcx
	push	rdi
	sub	rsp, 48					; 00000030H

; 674  : 		return tvec3<T, P>(

	mov	rax, QWORD PTR v$[rsp]
	movss	xmm0, DWORD PTR [rax+8]
	divss	xmm0, DWORD PTR scalar$[rsp]
	mov	rax, QWORD PTR v$[rsp]
	movss	xmm1, DWORD PTR [rax+4]
	divss	xmm1, DWORD PTR scalar$[rsp]
	mov	rax, QWORD PTR v$[rsp]
	movss	xmm2, DWORD PTR [rax]
	divss	xmm2, DWORD PTR scalar$[rsp]
	movss	DWORD PTR tv73[rsp], xmm2
	movaps	xmm3, xmm0
	movaps	xmm2, xmm1
	movss	xmm0, DWORD PTR tv73[rsp]
	movaps	xmm1, xmm0
	mov	rcx, QWORD PTR __$ReturnUdt$[rsp]
	call	??0?$tvec3@M$0A@@glm@@QEAA@MMM@Z	; glm::tvec3<float,0>::tvec3<float,0>
	mov	rax, QWORD PTR __$ReturnUdt$[rsp]

; 675  : 			v.x / scalar,
; 676  : 			v.y / scalar,
; 677  : 			v.z / scalar);
; 678  : 	}

	add	rsp, 48					; 00000030H
	pop	rdi
	ret	0
??$?KM$0A@@glm@@YA?AU?$tvec3@M$0A@@0@AEBU10@M@Z ENDP	; glm::operator/<float,0>
_TEXT	ENDS
; Function compile flags: /Odtp /RTCsu
; File C:\Users\ksart\OneDrive\Desktop\FlappyBird\libraries\external\glm\glm\detail\type_vec3.inl
;	COMDAT ??$?0I$0A@@?$tvec3@M$0A@@glm@@QEAA@AEBU?$tvec3@I$0A@@1@@Z
_TEXT	SEGMENT
this$ = 16
v$ = 24
??$?0I$0A@@?$tvec3@M$0A@@glm@@QEAA@AEBU?$tvec3@I$0A@@1@@Z PROC ; glm::tvec3<float,0>::tvec3<float,0><unsigned int,0>, COMDAT

; 130  : 	{}

$LN3:
	mov	QWORD PTR [rsp+16], rdx
	mov	QWORD PTR [rsp+8], rcx
	push	rdi

; 127  : 		x(static_cast<T>(v.x)),

	mov	rax, QWORD PTR v$[rsp]
	mov	eax, DWORD PTR [rax]
	cvtsi2ss xmm0, rax
	mov	rax, QWORD PTR this$[rsp]
	movss	DWORD PTR [rax], xmm0

; 128  : 		y(static_cast<T>(v.y)),

	mov	rax, QWORD PTR v$[rsp]
	mov	eax, DWORD PTR [rax+4]
	cvtsi2ss xmm0, rax
	mov	rax, QWORD PTR this$[rsp]
	movss	DWORD PTR [rax+4], xmm0

; 129  : 		z(static_cast<T>(v.z))

	mov	rax, QWORD PTR v$[rsp]
	mov	eax, DWORD PTR [rax+8]
	cvtsi2ss xmm0, rax
	mov	rax, QWORD PTR this$[rsp]
	movss	DWORD PTR [rax+8], xmm0

; 130  : 	{}

	mov	rax, QWORD PTR this$[rsp]
	pop	rdi
	ret	0
??$?0I$0A@@?$tvec3@M$0A@@glm@@QEAA@AEBU?$tvec3@I$0A@@1@@Z ENDP ; glm::tvec3<float,0>::tvec3<float,0><unsigned int,0>
_TEXT	ENDS
; Function compile flags: /Odtp /RTCsu
; File C:\Users\ksart\OneDrive\Desktop\FlappyBird\libraries\external\glm\glm\detail\type_vec3.inl
;	COMDAT ??0?$tvec3@I$0A@@glm@@QEAA@III@Z
_TEXT	SEGMENT
this$ = 16
a$ = 24
b$ = 32
c$ = 40
??0?$tvec3@I$0A@@glm@@QEAA@III@Z PROC			; glm::tvec3<unsigned int,0>::tvec3<unsigned int,0>, COMDAT

; 70   : 	{}

$LN3:
	mov	DWORD PTR [rsp+32], r9d
	mov	DWORD PTR [rsp+24], r8d
	mov	DWORD PTR [rsp+16], edx
	mov	QWORD PTR [rsp+8], rcx
	push	rdi

; 69   : 		: x(a), y(b), z(c)

	mov	rax, QWORD PTR this$[rsp]
	mov	ecx, DWORD PTR a$[rsp]
	mov	DWORD PTR [rax], ecx
	mov	rax, QWORD PTR this$[rsp]
	mov	ecx, DWORD PTR b$[rsp]
	mov	DWORD PTR [rax+4], ecx
	mov	rax, QWORD PTR this$[rsp]
	mov	ecx, DWORD PTR c$[rsp]
	mov	DWORD PTR [rax+8], ecx

; 70   : 	{}

	mov	rax, QWORD PTR this$[rsp]
	pop	rdi
	ret	0
??0?$tvec3@I$0A@@glm@@QEAA@III@Z ENDP			; glm::tvec3<unsigned int,0>::tvec3<unsigned int,0>
_TEXT	ENDS
; Function compile flags: /Odtp /RTCsu
; File C:\Users\ksart\OneDrive\Desktop\FlappyBird\libraries\external\glm\glm\gtc\random.inl
;	COMDAT ?call@?$compute_rand@I$0A@Utvec3@glm@@@detail@glm@@SA?AU?$tvec3@I$0A@@3@XZ
_TEXT	SEGMENT
$T1 = 32
$T2 = 44
$T3 = 52
$T4 = 64
$T5 = 76
$T6 = 84
tv65 = 96
__$ReturnUdt$ = 128
?call@?$compute_rand@I$0A@Utvec3@glm@@@detail@glm@@SA?AU?$tvec3@I$0A@@3@XZ PROC ; glm::detail::compute_rand<unsigned int,0,glm::tvec3>::call, COMDAT

; 80   : 		{

$LN3:
	mov	QWORD PTR [rsp+8], rcx
	push	rdi
	sub	rsp, 112				; 00000070H

; 81   : 			return

	lea	rcx, QWORD PTR $T2[rsp]
	call	?call@?$compute_rand@G$0A@Utvec3@glm@@@detail@glm@@SA?AU?$tvec3@G$0A@@3@XZ ; glm::detail::compute_rand<unsigned short,0,glm::tvec3>::call
	mov	rdx, rax
	lea	rcx, QWORD PTR $T1[rsp]
	call	??$?0G$0A@@?$tvec3@I$0A@@glm@@QEAA@AEBU?$tvec3@G$0A@@1@@Z ; glm::tvec3<unsigned int,0>::tvec3<unsigned int,0><unsigned short,0>
	xor	r8d, r8d
	mov	rdx, rax
	lea	rcx, QWORD PTR $T3[rsp]
	call	??$?6I$0A@@glm@@YA?AU?$tvec3@I$0A@@0@AEBU10@I@Z ; glm::operator<<<unsigned int,0>
	mov	QWORD PTR tv65[rsp], rax
	lea	rcx, QWORD PTR $T5[rsp]
	call	?call@?$compute_rand@G$0A@Utvec3@glm@@@detail@glm@@SA?AU?$tvec3@G$0A@@3@XZ ; glm::detail::compute_rand<unsigned short,0,glm::tvec3>::call
	mov	rdx, rax
	lea	rcx, QWORD PTR $T4[rsp]
	call	??$?0G$0A@@?$tvec3@I$0A@@glm@@QEAA@AEBU?$tvec3@G$0A@@1@@Z ; glm::tvec3<unsigned int,0>::tvec3<unsigned int,0><unsigned short,0>
	mov	r8d, 16
	mov	rdx, rax
	lea	rcx, QWORD PTR $T6[rsp]
	call	??$?6I$0A@@glm@@YA?AU?$tvec3@I$0A@@0@AEBU10@I@Z ; glm::operator<<<unsigned int,0>
	mov	rcx, QWORD PTR tv65[rsp]
	mov	r8, rcx
	mov	rdx, rax
	mov	rcx, QWORD PTR __$ReturnUdt$[rsp]
	call	??$?UI$0A@@glm@@YA?AU?$tvec3@I$0A@@0@AEBU10@0@Z ; glm::operator|<unsigned int,0>
	mov	rax, QWORD PTR __$ReturnUdt$[rsp]

; 82   : 				(vecType<uint32, P>(compute_rand<uint16, P, vecType>::call()) << static_cast<uint32>(16)) |
; 83   : 				(vecType<uint32, P>(compute_rand<uint16, P, vecType>::call()) << static_cast<uint32>(0));
; 84   : 		}

	add	rsp, 112				; 00000070H
	pop	rdi
	ret	0
?call@?$compute_rand@I$0A@Utvec3@glm@@@detail@glm@@SA?AU?$tvec3@I$0A@@3@XZ ENDP ; glm::detail::compute_rand<unsigned int,0,glm::tvec3>::call
_TEXT	ENDS
; Function compile flags: /Odtp /RTCsu
; File C:\Users\ksart\OneDrive\Desktop\FlappyBird\libraries\external\glm\glm\detail\type_vec3.inl
;	COMDAT ??$?HN$0A@@glm@@YA?AU?$tvec3@N$0A@@0@AEBU10@0@Z
_TEXT	SEGMENT
tv76 = 32
__$ReturnUdt$ = 64
v1$ = 72
v2$ = 80
??$?HN$0A@@glm@@YA?AU?$tvec3@N$0A@@0@AEBU10@0@Z PROC	; glm::operator+<double,0>, COMDAT

; 574  : 	{

$LN3:
	mov	QWORD PTR [rsp+24], r8
	mov	QWORD PTR [rsp+16], rdx
	mov	QWORD PTR [rsp+8], rcx
	push	rdi
	sub	rsp, 48					; 00000030H

; 575  : 		return tvec3<T, P>(

	mov	rax, QWORD PTR v1$[rsp]
	mov	rcx, QWORD PTR v2$[rsp]
	movsd	xmm0, QWORD PTR [rax+16]
	addsd	xmm0, QWORD PTR [rcx+16]
	mov	rax, QWORD PTR v1$[rsp]
	mov	rcx, QWORD PTR v2$[rsp]
	movsd	xmm1, QWORD PTR [rax+8]
	addsd	xmm1, QWORD PTR [rcx+8]
	mov	rax, QWORD PTR v1$[rsp]
	mov	rcx, QWORD PTR v2$[rsp]
	movsd	xmm2, QWORD PTR [rax]
	addsd	xmm2, QWORD PTR [rcx]
	movsd	QWORD PTR tv76[rsp], xmm2
	movaps	xmm3, xmm0
	movaps	xmm2, xmm1
	movsd	xmm0, QWORD PTR tv76[rsp]
	movaps	xmm1, xmm0
	mov	rcx, QWORD PTR __$ReturnUdt$[rsp]
	call	??0?$tvec3@N$0A@@glm@@QEAA@NNN@Z	; glm::tvec3<double,0>::tvec3<double,0>
	mov	rax, QWORD PTR __$ReturnUdt$[rsp]

; 576  : 			v1.x + v2.x,
; 577  : 			v1.y + v2.y,
; 578  : 			v1.z + v2.z);
; 579  : 	}

	add	rsp, 48					; 00000030H
	pop	rdi
	ret	0
??$?HN$0A@@glm@@YA?AU?$tvec3@N$0A@@0@AEBU10@0@Z ENDP	; glm::operator+<double,0>
_TEXT	ENDS
; Function compile flags: /Odtp /RTCsu
; File C:\Users\ksart\OneDrive\Desktop\FlappyBird\libraries\external\glm\glm\detail\type_vec3.inl
;	COMDAT ??$?GN$0A@@glm@@YA?AU?$tvec3@N$0A@@0@AEBU10@0@Z
_TEXT	SEGMENT
tv76 = 32
__$ReturnUdt$ = 64
v1$ = 72
v2$ = 80
??$?GN$0A@@glm@@YA?AU?$tvec3@N$0A@@0@AEBU10@0@Z PROC	; glm::operator-<double,0>, COMDAT

; 619  : 	{

$LN3:
	mov	QWORD PTR [rsp+24], r8
	mov	QWORD PTR [rsp+16], rdx
	mov	QWORD PTR [rsp+8], rcx
	push	rdi
	sub	rsp, 48					; 00000030H

; 620  : 		return tvec3<T, P>(

	mov	rax, QWORD PTR v1$[rsp]
	mov	rcx, QWORD PTR v2$[rsp]
	movsd	xmm0, QWORD PTR [rax+16]
	subsd	xmm0, QWORD PTR [rcx+16]
	mov	rax, QWORD PTR v1$[rsp]
	mov	rcx, QWORD PTR v2$[rsp]
	movsd	xmm1, QWORD PTR [rax+8]
	subsd	xmm1, QWORD PTR [rcx+8]
	mov	rax, QWORD PTR v1$[rsp]
	mov	rcx, QWORD PTR v2$[rsp]
	movsd	xmm2, QWORD PTR [rax]
	subsd	xmm2, QWORD PTR [rcx]
	movsd	QWORD PTR tv76[rsp], xmm2
	movaps	xmm3, xmm0
	movaps	xmm2, xmm1
	movsd	xmm0, QWORD PTR tv76[rsp]
	movaps	xmm1, xmm0
	mov	rcx, QWORD PTR __$ReturnUdt$[rsp]
	call	??0?$tvec3@N$0A@@glm@@QEAA@NNN@Z	; glm::tvec3<double,0>::tvec3<double,0>
	mov	rax, QWORD PTR __$ReturnUdt$[rsp]

; 621  : 			v1.x - v2.x,
; 622  : 			v1.y - v2.y,
; 623  : 			v1.z - v2.z);
; 624  : 	}

	add	rsp, 48					; 00000030H
	pop	rdi
	ret	0
??$?GN$0A@@glm@@YA?AU?$tvec3@N$0A@@0@AEBU10@0@Z ENDP	; glm::operator-<double,0>
_TEXT	ENDS
; Function compile flags: /Odtp /RTCsu
; File C:\Users\ksart\OneDrive\Desktop\FlappyBird\libraries\external\glm\glm\detail\type_vec3.inl
;	COMDAT ??$?KN$0A@@glm@@YA?AU?$tvec3@N$0A@@0@AEBU10@N@Z
_TEXT	SEGMENT
tv73 = 32
__$ReturnUdt$ = 64
v$ = 72
scalar$ = 80
??$?KN$0A@@glm@@YA?AU?$tvec3@N$0A@@0@AEBU10@N@Z PROC	; glm::operator/<double,0>, COMDAT

; 673  : 	{

$LN3:
	movsd	QWORD PTR [rsp+24], xmm2
	mov	QWORD PTR [rsp+16], rdx
	mov	QWORD PTR [rsp+8], rcx
	push	rdi
	sub	rsp, 48					; 00000030H

; 674  : 		return tvec3<T, P>(

	mov	rax, QWORD PTR v$[rsp]
	movsd	xmm0, QWORD PTR [rax+16]
	divsd	xmm0, QWORD PTR scalar$[rsp]
	mov	rax, QWORD PTR v$[rsp]
	movsd	xmm1, QWORD PTR [rax+8]
	divsd	xmm1, QWORD PTR scalar$[rsp]
	mov	rax, QWORD PTR v$[rsp]
	movsd	xmm2, QWORD PTR [rax]
	divsd	xmm2, QWORD PTR scalar$[rsp]
	movsd	QWORD PTR tv73[rsp], xmm2
	movaps	xmm3, xmm0
	movaps	xmm2, xmm1
	movsd	xmm0, QWORD PTR tv73[rsp]
	movaps	xmm1, xmm0
	mov	rcx, QWORD PTR __$ReturnUdt$[rsp]
	call	??0?$tvec3@N$0A@@glm@@QEAA@NNN@Z	; glm::tvec3<double,0>::tvec3<double,0>
	mov	rax, QWORD PTR __$ReturnUdt$[rsp]

; 675  : 			v.x / scalar,
; 676  : 			v.y / scalar,
; 677  : 			v.z / scalar);
; 678  : 	}

	add	rsp, 48					; 00000030H
	pop	rdi
	ret	0
??$?KN$0A@@glm@@YA?AU?$tvec3@N$0A@@0@AEBU10@N@Z ENDP	; glm::operator/<double,0>
_TEXT	ENDS
; Function compile flags: /Odtp /RTCsu
; File C:\Users\ksart\OneDrive\Desktop\FlappyBird\libraries\external\glm\glm\detail\type_vec3.inl
;	COMDAT ??$?0_K$0A@@?$tvec3@N$0A@@glm@@QEAA@AEBU?$tvec3@_K$0A@@1@@Z
_TEXT	SEGMENT
this$ = 16
v$ = 24
??$?0_K$0A@@?$tvec3@N$0A@@glm@@QEAA@AEBU?$tvec3@_K$0A@@1@@Z PROC ; glm::tvec3<double,0>::tvec3<double,0><unsigned __int64,0>, COMDAT

; 130  : 	{}

$LN9:
	mov	QWORD PTR [rsp+16], rdx
	mov	QWORD PTR [rsp+8], rcx
	push	rdi

; 127  : 		x(static_cast<T>(v.x)),

	mov	rax, QWORD PTR v$[rsp]
	mov	rax, QWORD PTR [rax]
	test	rax, rax
	jl	SHORT $LN7@tvec3
	cvtsi2sd xmm0, rax
	jmp	SHORT $LN8@tvec3
$LN7@tvec3:
	mov	rcx, rax
	shr	rcx, 1
	and	rax, 1
	or	rcx, rax
	cvtsi2sd xmm1, rcx
	addsd	xmm1, xmm1
	movaps	xmm0, xmm1
$LN8@tvec3:
	mov	rax, QWORD PTR this$[rsp]
	movsd	QWORD PTR [rax], xmm0

; 128  : 		y(static_cast<T>(v.y)),

	mov	rax, QWORD PTR v$[rsp]
	mov	rax, QWORD PTR [rax+8]
	test	rax, rax
	jl	SHORT $LN5@tvec3
	cvtsi2sd xmm0, rax
	jmp	SHORT $LN6@tvec3
$LN5@tvec3:
	mov	rcx, rax
	shr	rcx, 1
	and	rax, 1
	or	rcx, rax
	cvtsi2sd xmm1, rcx
	addsd	xmm1, xmm1
	movaps	xmm0, xmm1
$LN6@tvec3:
	mov	rax, QWORD PTR this$[rsp]
	movsd	QWORD PTR [rax+8], xmm0

; 129  : 		z(static_cast<T>(v.z))

	mov	rax, QWORD PTR v$[rsp]
	mov	rax, QWORD PTR [rax+16]
	test	rax, rax
	jl	SHORT $LN3@tvec3
	cvtsi2sd xmm0, rax
	jmp	SHORT $LN4@tvec3
$LN3@tvec3:
	mov	rcx, rax
	shr	rcx, 1
	and	rax, 1
	or	rcx, rax
	cvtsi2sd xmm1, rcx
	addsd	xmm1, xmm1
	movaps	xmm0, xmm1
$LN4@tvec3:
	mov	rax, QWORD PTR this$[rsp]
	movsd	QWORD PTR [rax+16], xmm0

; 130  : 	{}

	mov	rax, QWORD PTR this$[rsp]
	pop	rdi
	ret	0
??$?0_K$0A@@?$tvec3@N$0A@@glm@@QEAA@AEBU?$tvec3@_K$0A@@1@@Z ENDP ; glm::tvec3<double,0>::tvec3<double,0><unsigned __int64,0>
_TEXT	ENDS
; Function compile flags: /Odtp /RTCsu
; File C:\Users\ksart\OneDrive\Desktop\FlappyBird\libraries\external\glm\glm\detail\type_vec3.inl
;	COMDAT ??0?$tvec3@_K$0A@@glm@@QEAA@_K00@Z
_TEXT	SEGMENT
this$ = 16
a$ = 24
b$ = 32
c$ = 40
??0?$tvec3@_K$0A@@glm@@QEAA@_K00@Z PROC			; glm::tvec3<unsigned __int64,0>::tvec3<unsigned __int64,0>, COMDAT

; 70   : 	{}

$LN3:
	mov	QWORD PTR [rsp+32], r9
	mov	QWORD PTR [rsp+24], r8
	mov	QWORD PTR [rsp+16], rdx
	mov	QWORD PTR [rsp+8], rcx
	push	rdi

; 69   : 		: x(a), y(b), z(c)

	mov	rax, QWORD PTR this$[rsp]
	mov	rcx, QWORD PTR a$[rsp]
	mov	QWORD PTR [rax], rcx
	mov	rax, QWORD PTR this$[rsp]
	mov	rcx, QWORD PTR b$[rsp]
	mov	QWORD PTR [rax+8], rcx
	mov	rax, QWORD PTR this$[rsp]
