; Listing generated by Microsoft (R) Optimizing Compiler Version 19.32.31329.0 

include listing.inc

INCLUDELIB MSVCRTD

PUBLIC	?log@@YAMM@Z					; log
PUBLIC	?log2@@YAMM@Z					; log2
PUBLIC	?length@?$tvec2@M$0A@@glm@@SAHXZ		; glm::tvec2<float,0>::length
PUBLIC	??A?$tvec2@M$0A@@glm@@QEBAAEBMH@Z		; glm::tvec2<float,0>::operator[]
PUBLIC	??0?$tvec2@M$0A@@glm@@QEAA@M@Z			; glm::tvec2<float,0>::tvec2<float,0>
PUBLIC	??0?$tvec2@M$0A@@glm@@QEAA@MM@Z			; glm::tvec2<float,0>::tvec2<float,0>
PUBLIC	?length@?$tvec4@M$0A@@glm@@SAHXZ		; glm::tvec4<float,0>::length
PUBLIC	??A?$tvec4@M$0A@@glm@@QEBAAEBMH@Z		; glm::tvec4<float,0>::operator[]
PUBLIC	??0?$tvec4@M$0A@@glm@@QEAA@M@Z			; glm::tvec4<float,0>::tvec4<float,0>
PUBLIC	??0?$tvec4@M$0A@@glm@@QEAA@MMMM@Z		; glm::tvec4<float,0>::tvec4<float,0>
PUBLIC	??$epsilonEqual@M@glm@@YA_NAEBM00@Z		; glm::epsilonEqual<float>
PUBLIC	??$abs@M@glm@@YAMM@Z				; glm::abs<float>
PUBLIC	?run@test_log@@YAHXZ				; test_log::run
PUBLIC	??$log@M@glm@@YAMAEBM0@Z			; glm::log<float>
PUBLIC	??$log2@M@glm@@YAMM@Z				; glm::log2<float>
PUBLIC	?length@?$tvec1@M$0A@@glm@@SAHXZ		; glm::tvec1<float,0>::length
PUBLIC	??A?$tvec1@M$0A@@glm@@QEBAAEBMH@Z		; glm::tvec1<float,0>::operator[]
PUBLIC	??0?$tvec1@M$0A@@glm@@QEAA@M@Z			; glm::tvec1<float,0>::tvec1<float,0>
PUBLIC	??$log@M$0A@Utvec1@glm@@@glm@@YA?AU?$tvec1@M$0A@@0@AEBU10@0@Z ; glm::log<float,0,glm::tvec1>
PUBLIC	??$log2@M$0A@Utvec1@glm@@@glm@@YA?AU?$tvec1@M$0A@@0@AEBU10@@Z ; glm::log2<float,0,glm::tvec1>
PUBLIC	??$epsilonEqual@M$0A@Utvec1@glm@@@glm@@YA?AU?$tvec1@_N$0A@@0@AEBU?$tvec1@M$0A@@0@00@Z ; glm::epsilonEqual<float,0,glm::tvec1>
PUBLIC	?length@?$tvec1@_N$0A@@glm@@SAHXZ		; glm::tvec1<bool,0>::length
PUBLIC	??A?$tvec1@_N$0A@@glm@@QEAAAEA_NH@Z		; glm::tvec1<bool,0>::operator[]
PUBLIC	??A?$tvec1@_N$0A@@glm@@QEBAAEB_NH@Z		; glm::tvec1<bool,0>::operator[]
PUBLIC	??0?$tvec1@_N$0A@@glm@@QEAA@W4ctor@1@@Z		; glm::tvec1<bool,0>::tvec1<bool,0>
PUBLIC	??$all@$0A@Utvec1@glm@@@glm@@YA_NAEBU?$tvec1@_N$0A@@0@@Z ; glm::all<0,glm::tvec1>
PUBLIC	??$log@M$0A@Utvec2@glm@@@glm@@YA?AU?$tvec2@M$0A@@0@AEBU10@0@Z ; glm::log<float,0,glm::tvec2>
PUBLIC	??$log2@M$0A@Utvec2@glm@@@glm@@YA?AU?$tvec2@M$0A@@0@AEBU10@@Z ; glm::log2<float,0,glm::tvec2>
PUBLIC	??$epsilonEqual@M$0A@Utvec2@glm@@@glm@@YA?AU?$tvec2@_N$0A@@0@AEBU?$tvec2@M$0A@@0@00@Z ; glm::epsilonEqual<float,0,glm::tvec2>
PUBLIC	?length@?$tvec2@_N$0A@@glm@@SAHXZ		; glm::tvec2<bool,0>::length
PUBLIC	??A?$tvec2@_N$0A@@glm@@QEAAAEA_NH@Z		; glm::tvec2<bool,0>::operator[]
PUBLIC	??A?$tvec2@_N$0A@@glm@@QEBAAEB_NH@Z		; glm::tvec2<bool,0>::operator[]
PUBLIC	??0?$tvec2@_N$0A@@glm@@QEAA@W4ctor@1@@Z		; glm::tvec2<bool,0>::tvec2<bool,0>
PUBLIC	??$all@$0A@Utvec2@glm@@@glm@@YA_NAEBU?$tvec2@_N$0A@@0@@Z ; glm::all<0,glm::tvec2>
PUBLIC	?length@?$tvec3@M$0A@@glm@@SAHXZ		; glm::tvec3<float,0>::length
PUBLIC	??A?$tvec3@M$0A@@glm@@QEBAAEBMH@Z		; glm::tvec3<float,0>::operator[]
PUBLIC	??0?$tvec3@M$0A@@glm@@QEAA@M@Z			; glm::tvec3<float,0>::tvec3<float,0>
PUBLIC	??0?$tvec3@M$0A@@glm@@QEAA@MMM@Z		; glm::tvec3<float,0>::tvec3<float,0>
PUBLIC	??$log@M$0A@Utvec3@glm@@@glm@@YA?AU?$tvec3@M$0A@@0@AEBU10@0@Z ; glm::log<float,0,glm::tvec3>
PUBLIC	??$log2@M$0A@Utvec3@glm@@@glm@@YA?AU?$tvec3@M$0A@@0@AEBU10@@Z ; glm::log2<float,0,glm::tvec3>
PUBLIC	??$epsilonEqual@M$0A@Utvec3@glm@@@glm@@YA?AU?$tvec3@_N$0A@@0@AEBU?$tvec3@M$0A@@0@00@Z ; glm::epsilonEqual<float,0,glm::tvec3>
PUBLIC	?length@?$tvec3@_N$0A@@glm@@SAHXZ		; glm::tvec3<bool,0>::length
PUBLIC	??A?$tvec3@_N$0A@@glm@@QEAAAEA_NH@Z		; glm::tvec3<bool,0>::operator[]
PUBLIC	??A?$tvec3@_N$0A@@glm@@QEBAAEB_NH@Z		; glm::tvec3<bool,0>::operator[]
PUBLIC	??0?$tvec3@_N$0A@@glm@@QEAA@W4ctor@1@@Z		; glm::tvec3<bool,0>::tvec3<bool,0>
PUBLIC	??$all@$0A@Utvec3@glm@@@glm@@YA_NAEBU?$tvec3@_N$0A@@0@@Z ; glm::all<0,glm::tvec3>
PUBLIC	??$log@M$0A@Utvec4@glm@@@glm@@YA?AU?$tvec4@M$0A@@0@AEBU10@0@Z ; glm::log<float,0,glm::tvec4>
PUBLIC	??$log2@M$0A@Utvec4@glm@@@glm@@YA?AU?$tvec4@M$0A@@0@AEBU10@@Z ; glm::log2<float,0,glm::tvec4>
PUBLIC	??$epsilonEqual@M$0A@Utvec4@glm@@@glm@@YA?AU?$tvec4@_N$0A@@0@AEBU?$tvec4@M$0A@@0@00@Z ; glm::epsilonEqual<float,0,glm::tvec4>
PUBLIC	?length@?$tvec4@_N$0A@@glm@@SAHXZ		; glm::tvec4<bool,0>::length
PUBLIC	??A?$tvec4@_N$0A@@glm@@QEAAAEA_NH@Z		; glm::tvec4<bool,0>::operator[]
PUBLIC	??A?$tvec4@_N$0A@@glm@@QEBAAEB_NH@Z		; glm::tvec4<bool,0>::operator[]
PUBLIC	??0?$tvec4@_N$0A@@glm@@QEAA@W4ctor@1@@Z		; glm::tvec4<bool,0>::tvec4<bool,0>
PUBLIC	??$all@$0A@Utvec4@glm@@@glm@@YA_NAEBU?$tvec4@_N$0A@@0@@Z ; glm::all<0,glm::tvec4>
PUBLIC	main
PUBLIC	?call@?$compute_abs@M$00@detail@glm@@SAMM@Z	; glm::detail::compute_abs<float,1>::call
PUBLIC	??$log@M$0A@Utvec1@glm@@@glm@@YA?AU?$tvec1@M$0A@@0@AEBU10@@Z ; glm::log<float,0,glm::tvec1>
PUBLIC	??$?KM$0A@@glm@@YA?AU?$tvec1@M$0A@@0@AEBU10@0@Z	; glm::operator/<float,0>
PUBLIC	?call@?$compute_log2@M$0A@Utvec1@glm@@$00$0A@@detail@glm@@SA?AU?$tvec1@M$0A@@3@AEBU43@@Z ; glm::detail::compute_log2<float,0,glm::tvec1,1,0>::call
PUBLIC	??$?GM$0A@@glm@@YA?AU?$tvec1@M$0A@@0@AEBU10@0@Z	; glm::operator-<float,0>
PUBLIC	??$abs@M$0A@Utvec1@glm@@@glm@@YA?AU?$tvec1@M$0A@@0@AEBU10@@Z ; glm::abs<float,0,glm::tvec1>
PUBLIC	??$lessThan@M$0A@Utvec1@glm@@@glm@@YA?AU?$tvec1@_N$0A@@0@AEBU?$tvec1@M$0A@@0@0@Z ; glm::lessThan<float,0,glm::tvec1>
PUBLIC	??$log@M$0A@Utvec2@glm@@@glm@@YA?AU?$tvec2@M$0A@@0@AEBU10@@Z ; glm::log<float,0,glm::tvec2>
PUBLIC	??$?KM$0A@@glm@@YA?AU?$tvec2@M$0A@@0@AEBU10@0@Z	; glm::operator/<float,0>
PUBLIC	?call@?$compute_log2@M$0A@Utvec2@glm@@$00$0A@@detail@glm@@SA?AU?$tvec2@M$0A@@3@AEBU43@@Z ; glm::detail::compute_log2<float,0,glm::tvec2,1,0>::call
PUBLIC	??$?GM$0A@@glm@@YA?AU?$tvec2@M$0A@@0@AEBU10@0@Z	; glm::operator-<float,0>
PUBLIC	??$abs@M$0A@Utvec2@glm@@@glm@@YA?AU?$tvec2@M$0A@@0@AEBU10@@Z ; glm::abs<float,0,glm::tvec2>
PUBLIC	??$lessThan@M$0A@Utvec2@glm@@@glm@@YA?AU?$tvec2@_N$0A@@0@AEBU?$tvec2@M$0A@@0@0@Z ; glm::lessThan<float,0,glm::tvec2>
PUBLIC	??$log@M$0A@Utvec3@glm@@@glm@@YA?AU?$tvec3@M$0A@@0@AEBU10@@Z ; glm::log<float,0,glm::tvec3>
PUBLIC	??$?KM$0A@@glm@@YA?AU?$tvec3@M$0A@@0@AEBU10@0@Z	; glm::operator/<float,0>
PUBLIC	?call@?$compute_log2@M$0A@Utvec3@glm@@$00$0A@@detail@glm@@SA?AU?$tvec3@M$0A@@3@AEBU43@@Z ; glm::detail::compute_log2<float,0,glm::tvec3,1,0>::call
PUBLIC	??$?GM$0A@@glm@@YA?AU?$tvec3@M$0A@@0@AEBU10@0@Z	; glm::operator-<float,0>
PUBLIC	??$abs@M$0A@Utvec3@glm@@@glm@@YA?AU?$tvec3@M$0A@@0@AEBU10@@Z ; glm::abs<float,0,glm::tvec3>
PUBLIC	??$lessThan@M$0A@Utvec3@glm@@@glm@@YA?AU?$tvec3@_N$0A@@0@AEBU?$tvec3@M$0A@@0@0@Z ; glm::lessThan<float,0,glm::tvec3>
PUBLIC	??$log@M$0A@Utvec4@glm@@@glm@@YA?AU?$tvec4@M$0A@@0@AEBU10@@Z ; glm::log<float,0,glm::tvec4>
PUBLIC	??$?KM$0A@@glm@@YA?AU?$tvec4@M$0A@@0@AEBU10@0@Z	; glm::operator/<float,0>
PUBLIC	?call@?$compute_log2@M$0A@Utvec4@glm@@$00$0A@@detail@glm@@SA?AU?$tvec4@M$0A@@3@AEBU43@@Z ; glm::detail::compute_log2<float,0,glm::tvec4,1,0>::call
PUBLIC	??$?GM$0A@@glm@@YA?AU?$tvec4@M$0A@@0@AEBU10@0@Z	; glm::operator-<float,0>
PUBLIC	??$abs@M$0A@Utvec4@glm@@@glm@@YA?AU?$tvec4@M$0A@@0@AEBU10@@Z ; glm::abs<float,0,glm::tvec4>
PUBLIC	??$lessThan@M$0A@Utvec4@glm@@@glm@@YA?AU?$tvec4@_N$0A@@0@AEBU?$tvec4@M$0A@@0@0@Z ; glm::lessThan<float,0,glm::tvec4>
PUBLIC	?call@?$functor1@MM$0A@Utvec4@glm@@@detail@glm@@SA?AU?$tvec4@M$0A@@3@P6AMM@ZAEBU43@@Z ; glm::detail::functor1<float,float,0,glm::tvec4>::call
PUBLIC	?call@?$functor1@MM$0A@Utvec3@glm@@@detail@glm@@SA?AU?$tvec3@M$0A@@3@P6AMM@ZAEBU43@@Z ; glm::detail::functor1<float,float,0,glm::tvec3>::call
PUBLIC	?call@?$functor1@MM$0A@Utvec2@glm@@@detail@glm@@SA?AU?$tvec2@M$0A@@3@P6AMM@ZAEBU43@@Z ; glm::detail::functor1<float,float,0,glm::tvec2>::call
PUBLIC	?call@?$functor1@MM$0A@Utvec1@glm@@@detail@glm@@SA?AU?$tvec1@M$0A@@3@P6AMM@ZAEBU43@@Z ; glm::detail::functor1<float,float,0,glm::tvec1>::call
PUBLIC	?call@?$compute_abs_vector@M$0A@Utvec1@glm@@$0A@@detail@glm@@SA?AU?$tvec1@M$0A@@3@AEBU43@@Z ; glm::detail::compute_abs_vector<float,0,glm::tvec1,0>::call
PUBLIC	?call@?$compute_abs_vector@M$0A@Utvec2@glm@@$0A@@detail@glm@@SA?AU?$tvec2@M$0A@@3@AEBU43@@Z ; glm::detail::compute_abs_vector<float,0,glm::tvec2,0>::call
PUBLIC	?call@?$compute_abs_vector@M$0A@Utvec3@glm@@$0A@@detail@glm@@SA?AU?$tvec3@M$0A@@3@AEBU43@@Z ; glm::detail::compute_abs_vector<float,0,glm::tvec3,0>::call
PUBLIC	??$?_0M@?$tvec4@M$0A@@glm@@QEAAAEAU01@AEBU01@@Z	; glm::tvec4<float,0>::operator/=<float>
PUBLIC	??$?ZM@?$tvec4@M$0A@@glm@@QEAAAEAU01@AEBU01@@Z	; glm::tvec4<float,0>::operator-=<float>
PUBLIC	?call@?$compute_abs_vector@M$0A@Utvec4@glm@@$0A@@detail@glm@@SA?AU?$tvec4@M$0A@@3@AEBU43@@Z ; glm::detail::compute_abs_vector<float,0,glm::tvec4,0>::call
PUBLIC	?call@?$compute_vec4_div@M$0A@$0A@@detail@glm@@SA?AU?$tvec4@M$0A@@3@AEBU43@0@Z ; glm::detail::compute_vec4_div<float,0,0>::call
PUBLIC	?call@?$compute_vec4_sub@M$0A@$0A@@detail@glm@@SA?AU?$tvec4@M$0A@@3@AEBU43@0@Z ; glm::detail::compute_vec4_sub<float,0,0>::call
PUBLIC	??_C@_1LG@FPDAFGJN@?$AAC?$AA?3?$AA?2?$AAU?$AAs?$AAe?$AAr?$AAs?$AA?2?$AAk?$AAs?$AAa?$AAr?$AAt?$AA?2@ ; `string'
PUBLIC	??_C@_1DK@BGNCJAPL@?$AAi?$AA?5?$AA?$DO?$AA?$DN?$AA?5?$AA0?$AA?5?$AA?$CG?$AA?$CG?$AA?5?$AAi?$AA?5?$AA?$DM?$AA?5?$AAt@ ; `string'
PUBLIC	??_C@_1LG@LAANPDHN@?$AAC?$AA?3?$AA?2?$AAU?$AAs?$AAe?$AAr?$AAs?$AA?2?$AAk?$AAs?$AAa?$AAr?$AAt?$AA?2@ ; `string'
PUBLIC	??_C@_1KO@MEDIOOM@?$AAC?$AA?3?$AA?2?$AAU?$AAs?$AAe?$AAr?$AAs?$AA?2?$AAk?$AAs?$AAa?$AAr?$AAt?$AA?2@ ; `string'
PUBLIC	??_C@_1CA@KHCKNFCF@?$AAx?$AA?5?$AA?$CB?$AA?$DN?$AA?5?$AAg?$AAe?$AAn?$AAT?$AAy?$AAp?$AAe?$AA?$CI?$AA0?$AA?$CJ@ ; `string'
PUBLIC	??_C@_1LG@CIKOIEGN@?$AAC?$AA?3?$AA?2?$AAU?$AAs?$AAe?$AAr?$AAs?$AA?2?$AAk?$AAs?$AAa?$AAr?$AAt?$AA?2@ ; `string'
PUBLIC	??_C@_1LG@MEJFBKPC@?$AAC?$AA?3?$AA?2?$AAU?$AAs?$AAe?$AAr?$AAs?$AA?2?$AAk?$AAs?$AAa?$AAr?$AAt?$AA?2@ ; `string'
PUBLIC	??_C@_1NA@OPABFNEN@?$AAC?$AA?3?$AA?2?$AAU?$AAs?$AAe?$AAr?$AAs?$AA?2?$AAk?$AAs?$AAa?$AAr?$AAt?$AA?2@ ; `string'
PUBLIC	??_C@_1DC@HHLCGOLC@?$AAx?$AA?4?$AAl?$AAe?$AAn?$AAg?$AAt?$AAh?$AA?$CI?$AA?$CJ?$AA?5?$AA?$DN?$AA?$DN?$AA?5?$AAy@ ; `string'
PUBLIC	__real@00000000
PUBLIC	__real@3727c5ac
PUBLIC	__real@40000000
PUBLIC	__real@41200000
PUBLIC	__xmm@80000000800000008000000080000000
EXTRN	__imp_log2f:PROC
EXTRN	__imp_logf:PROC
EXTRN	__imp__wassert:PROC
EXTRN	_RTC_CheckStackVars:PROC
EXTRN	_RTC_InitBase:PROC
EXTRN	_RTC_Shutdown:PROC
EXTRN	_fltused:DWORD
;	COMDAT pdata
pdata	SEGMENT
$pdata$?log@@YAMM@Z DD imagerel $LN3
	DD	imagerel $LN3+29
	DD	imagerel $unwind$?log@@YAMM@Z
pdata	ENDS
;	COMDAT pdata
pdata	SEGMENT
$pdata$?log2@@YAMM@Z DD imagerel $LN3
	DD	imagerel $LN3+29
	DD	imagerel $unwind$?log2@@YAMM@Z
pdata	ENDS
;	COMDAT pdata
pdata	SEGMENT
$pdata$?length@?$tvec2@M$0A@@glm@@SAHXZ DD imagerel $LN3
	DD	imagerel $LN3+9
	DD	imagerel $unwind$?length@?$tvec2@M$0A@@glm@@SAHXZ
pdata	ENDS
;	COMDAT pdata
pdata	SEGMENT
$pdata$??A?$tvec2@M$0A@@glm@@QEBAAEBMH@Z DD imagerel $LN5
	DD	imagerel $LN5+80
	DD	imagerel $unwind$??A?$tvec2@M$0A@@glm@@QEBAAEBMH@Z
pdata	ENDS
;	COMDAT pdata
pdata	SEGMENT
$pdata$??0?$tvec2@M$0A@@glm@@QEAA@M@Z DD imagerel $LN3
	DD	imagerel $LN3+50
	DD	imagerel $unwind$??0?$tvec2@M$0A@@glm@@QEAA@M@Z
pdata	ENDS
;	COMDAT pdata
pdata	SEGMENT
$pdata$??0?$tvec2@M$0A@@glm@@QEAA@MM@Z DD imagerel $LN3
	DD	imagerel $LN3+56
	DD	imagerel $unwind$??0?$tvec2@M$0A@@glm@@QEAA@MM@Z
pdata	ENDS
;	COMDAT pdata
pdata	SEGMENT
$pdata$?length@?$tvec4@M$0A@@glm@@SAHXZ DD imagerel $LN3
	DD	imagerel $LN3+9
	DD	imagerel $unwind$?length@?$tvec4@M$0A@@glm@@SAHXZ
pdata	ENDS
;	COMDAT pdata
pdata	SEGMENT
$pdata$??A?$tvec4@M$0A@@glm@@QEBAAEBMH@Z DD imagerel $LN5
	DD	imagerel $LN5+80
	DD	imagerel $unwind$??A?$tvec4@M$0A@@glm@@QEBAAEBMH@Z
pdata	ENDS
;	COMDAT pdata
pdata	SEGMENT
$pdata$??0?$tvec4@M$0A@@glm@@QEAA@M@Z DD imagerel $LN3
	DD	imagerel $LN3+82
	DD	imagerel $unwind$??0?$tvec4@M$0A@@glm@@QEAA@M@Z
pdata	ENDS
;	COMDAT pdata
pdata	SEGMENT
$pdata$??0?$tvec4@M$0A@@glm@@QEAA@MMMM@Z DD imagerel $LN3
	DD	imagerel $LN3+94
	DD	imagerel $unwind$??0?$tvec4@M$0A@@glm@@QEAA@MMMM@Z
pdata	ENDS
;	COMDAT pdata
pdata	SEGMENT
$pdata$??$epsilonEqual@M@glm@@YA_NAEBM00@Z DD imagerel $LN5
	DD	imagerel $LN5+86
	DD	imagerel $unwind$??$epsilonEqual@M@glm@@YA_NAEBM00@Z
pdata	ENDS
;	COMDAT pdata
pdata	SEGMENT
$pdata$??$abs@M@glm@@YAMM@Z DD imagerel $LN3
	DD	imagerel $LN3+28
	DD	imagerel $unwind$??$abs@M@glm@@YAMM@Z
pdata	ENDS
pdata	SEGMENT
$pdata$?run@test_log@@YAHXZ DD imagerel $LN13
	DD	imagerel $LN13+1130
	DD	imagerel $unwind$?run@test_log@@YAHXZ
pdata	ENDS
;	COMDAT pdata
pdata	SEGMENT
$pdata$??$log@M@glm@@YAMAEBM0@Z DD imagerel $LN4
	DD	imagerel $LN4+116
	DD	imagerel $unwind$??$log@M@glm@@YAMAEBM0@Z
pdata	ENDS
;	COMDAT pdata
pdata	SEGMENT
$pdata$??$log2@M@glm@@YAMM@Z DD imagerel $LN3
	DD	imagerel $LN3+50
	DD	imagerel $unwind$??$log2@M@glm@@YAMM@Z
pdata	ENDS
;	COMDAT pdata
pdata	SEGMENT
$pdata$?length@?$tvec1@M$0A@@glm@@SAHXZ DD imagerel $LN3
	DD	imagerel $LN3+9
	DD	imagerel $unwind$?length@?$tvec1@M$0A@@glm@@SAHXZ
pdata	ENDS
;	COMDAT pdata
pdata	SEGMENT
$pdata$??A?$tvec1@M$0A@@glm@@QEBAAEBMH@Z DD imagerel $LN5
	DD	imagerel $LN5+80
	DD	imagerel $unwind$??A?$tvec1@M$0A@@glm@@QEBAAEBMH@Z
pdata	ENDS
;	COMDAT pdata
pdata	SEGMENT
$pdata$??0?$tvec1@M$0A@@glm@@QEAA@M@Z DD imagerel $LN3
	DD	imagerel $LN3+34
	DD	imagerel $unwind$??0?$tvec1@M$0A@@glm@@QEAA@M@Z
pdata	ENDS
;	COMDAT pdata
pdata	SEGMENT
$pdata$??$log@M$0A@Utvec1@glm@@@glm@@YA?AU?$tvec1@M$0A@@0@AEBU10@0@Z DD imagerel $LN3
	DD	imagerel $LN3+87
	DD	imagerel $unwind$??$log@M$0A@Utvec1@glm@@@glm@@YA?AU?$tvec1@M$0A@@0@AEBU10@0@Z
pdata	ENDS
;	COMDAT pdata
pdata	SEGMENT
$pdata$??$log2@M$0A@Utvec1@glm@@@glm@@YA?AU?$tvec1@M$0A@@0@AEBU10@@Z DD imagerel $LN3
	DD	imagerel $LN3+41
	DD	imagerel $unwind$??$log2@M$0A@Utvec1@glm@@@glm@@YA?AU?$tvec1@M$0A@@0@AEBU10@@Z
pdata	ENDS
;	COMDAT pdata
pdata	SEGMENT
$pdata$??$epsilonEqual@M$0A@Utvec1@glm@@@glm@@YA?AU?$tvec1@_N$0A@@0@AEBU?$tvec1@M$0A@@0@00@Z DD imagerel $LN3
	DD	imagerel $LN3+98
	DD	imagerel $unwind$??$epsilonEqual@M$0A@Utvec1@glm@@@glm@@YA?AU?$tvec1@_N$0A@@0@AEBU?$tvec1@M$0A@@0@00@Z
pdata	ENDS
;	COMDAT pdata
pdata	SEGMENT
$pdata$?length@?$tvec1@_N$0A@@glm@@SAHXZ DD imagerel $LN3
	DD	imagerel $LN3+9
	DD	imagerel $unwind$?length@?$tvec1@_N$0A@@glm@@SAHXZ
pdata	ENDS
;	COMDAT pdata
pdata	SEGMENT
$pdata$??A?$tvec1@_N$0A@@glm@@QEAAAEA_NH@Z DD imagerel $LN5
	DD	imagerel $LN5+82
	DD	imagerel $unwind$??A?$tvec1@_N$0A@@glm@@QEAAAEA_NH@Z
pdata	ENDS
;	COMDAT pdata
pdata	SEGMENT
$pdata$??A?$tvec1@_N$0A@@glm@@QEBAAEB_NH@Z DD imagerel $LN5
	DD	imagerel $LN5+82
	DD	imagerel $unwind$??A?$tvec1@_N$0A@@glm@@QEBAAEB_NH@Z
pdata	ENDS
;	COMDAT pdata
pdata	SEGMENT
$pdata$??0?$tvec1@_N$0A@@glm@@QEAA@W4ctor@1@@Z DD imagerel $LN3
	DD	imagerel $LN3+17
	DD	imagerel $unwind$??0?$tvec1@_N$0A@@glm@@QEAA@W4ctor@1@@Z
pdata	ENDS
;	COMDAT pdata
pdata	SEGMENT
$pdata$??$all@$0A@Utvec1@glm@@@glm@@YA_NAEBU?$tvec1@_N$0A@@0@@Z DD imagerel $LN8
	DD	imagerel $LN8+116
	DD	imagerel $unwind$??$all@$0A@Utvec1@glm@@@glm@@YA_NAEBU?$tvec1@_N$0A@@0@@Z
pdata	ENDS
;	COMDAT pdata
pdata	SEGMENT
$pdata$??$log@M$0A@Utvec2@glm@@@glm@@YA?AU?$tvec2@M$0A@@0@AEBU10@0@Z DD imagerel $LN3
	DD	imagerel $LN3+87
	DD	imagerel $unwind$??$log@M$0A@Utvec2@glm@@@glm@@YA?AU?$tvec2@M$0A@@0@AEBU10@0@Z
pdata	ENDS
;	COMDAT pdata
pdata	SEGMENT
$pdata$??$log2@M$0A@Utvec2@glm@@@glm@@YA?AU?$tvec2@M$0A@@0@AEBU10@@Z DD imagerel $LN3
	DD	imagerel $LN3+41
	DD	imagerel $unwind$??$log2@M$0A@Utvec2@glm@@@glm@@YA?AU?$tvec2@M$0A@@0@AEBU10@@Z
pdata	ENDS
;	COMDAT pdata
pdata	SEGMENT
$pdata$??$epsilonEqual@M$0A@Utvec2@glm@@@glm@@YA?AU?$tvec2@_N$0A@@0@AEBU?$tvec2@M$0A@@0@00@Z DD imagerel $LN3
	DD	imagerel $LN3+100
	DD	imagerel $unwind$??$epsilonEqual@M$0A@Utvec2@glm@@@glm@@YA?AU?$tvec2@_N$0A@@0@AEBU?$tvec2@M$0A@@0@00@Z
pdata	ENDS
;	COMDAT pdata
pdata	SEGMENT
$pdata$?length@?$tvec2@_N$0A@@glm@@SAHXZ DD imagerel $LN3
	DD	imagerel $LN3+9
	DD	imagerel $unwind$?length@?$tvec2@_N$0A@@glm@@SAHXZ
pdata	ENDS
;	COMDAT pdata
pdata	SEGMENT
$pdata$??A?$tvec2@_N$0A@@glm@@QEAAAEA_NH@Z DD imagerel $LN5
	DD	imagerel $LN5+82
	DD	imagerel $unwind$??A?$tvec2@_N$0A@@glm@@QEAAAEA_NH@Z
pdata	ENDS
;	COMDAT pdata
pdata	SEGMENT
$pdata$??A?$tvec2@_N$0A@@glm@@QEBAAEB_NH@Z DD imagerel $LN5
	DD	imagerel $LN5+82
	DD	imagerel $unwind$??A?$tvec2@_N$0A@@glm@@QEBAAEB_NH@Z
pdata	ENDS
;	COMDAT pdata
pdata	SEGMENT
$pdata$??0?$tvec2@_N$0A@@glm@@QEAA@W4ctor@1@@Z DD imagerel $LN3
	DD	imagerel $LN3+17
	DD	imagerel $unwind$??0?$tvec2@_N$0A@@glm@@QEAA@W4ctor@1@@Z
pdata	ENDS
;	COMDAT pdata
pdata	SEGMENT
$pdata$??$all@$0A@Utvec2@glm@@@glm@@YA_NAEBU?$tvec2@_N$0A@@0@@Z DD imagerel $LN8
	DD	imagerel $LN8+116
	DD	imagerel $unwind$??$all@$0A@Utvec2@glm@@@glm@@YA_NAEBU?$tvec2@_N$0A@@0@@Z
pdata	ENDS
;	COMDAT pdata
pdata	SEGMENT
$pdata$?length@?$tvec3@M$0A@@glm@@SAHXZ DD imagerel $LN3
	DD	imagerel $LN3+9
	DD	imagerel $unwind$?length@?$tvec3@M$0A@@glm@@SAHXZ
pdata	ENDS
;	COMDAT pdata
pdata	SEGMENT
$pdata$??A?$tvec3@M$0A@@glm@@QEBAAEBMH@Z DD imagerel $LN5
	DD	imagerel $LN5+80
	DD	imagerel $unwind$??A?$tvec3@M$0A@@glm@@QEBAAEBMH@Z
pdata	ENDS
;	COMDAT pdata
pdata	SEGMENT
$pdata$??0?$tvec3@M$0A@@glm@@QEAA@M@Z DD imagerel $LN3
	DD	imagerel $LN3+66
	DD	imagerel $unwind$??0?$tvec3@M$0A@@glm@@QEAA@M@Z
pdata	ENDS
;	COMDAT pdata
pdata	SEGMENT
$pdata$??0?$tvec3@M$0A@@glm@@QEAA@MMM@Z DD imagerel $LN3
	DD	imagerel $LN3+78
	DD	imagerel $unwind$??0?$tvec3@M$0A@@glm@@QEAA@MMM@Z
pdata	ENDS
;	COMDAT pdata
pdata	SEGMENT
$pdata$??$log@M$0A@Utvec3@glm@@@glm@@YA?AU?$tvec3@M$0A@@0@AEBU10@0@Z DD imagerel $LN3
	DD	imagerel $LN3+87
	DD	imagerel $unwind$??$log@M$0A@Utvec3@glm@@@glm@@YA?AU?$tvec3@M$0A@@0@AEBU10@0@Z
pdata	ENDS
;	COMDAT pdata
pdata	SEGMENT
$pdata$??$log2@M$0A@Utvec3@glm@@@glm@@YA?AU?$tvec3@M$0A@@0@AEBU10@@Z DD imagerel $LN3
	DD	imagerel $LN3+41
	DD	imagerel $unwind$??$log2@M$0A@Utvec3@glm@@@glm@@YA?AU?$tvec3@M$0A@@0@AEBU10@@Z
pdata	ENDS
;	COMDAT pdata
pdata	SEGMENT
$pdata$??$epsilonEqual@M$0A@Utvec3@glm@@@glm@@YA?AU?$tvec3@_N$0A@@0@AEBU?$tvec3@M$0A@@0@00@Z DD imagerel $LN3
	DD	imagerel $LN3+115
	DD	imagerel $unwind$??$epsilonEqual@M$0A@Utvec3@glm@@@glm@@YA?AU?$tvec3@_N$0A@@0@AEBU?$tvec3@M$0A@@0@00@Z
pdata	ENDS
;	COMDAT pdata
pdata	SEGMENT
$pdata$?length@?$tvec3@_N$0A@@glm@@SAHXZ DD imagerel $LN3
	DD	imagerel $LN3+9
	DD	imagerel $unwind$?length@?$tvec3@_N$0A@@glm@@SAHXZ
pdata	ENDS
;	COMDAT pdata
pdata	SEGMENT
$pdata$??A?$tvec3@_N$0A@@glm@@QEAAAEA_NH@Z DD imagerel $LN5
	DD	imagerel $LN5+82
	DD	imagerel $unwind$??A?$tvec3@_N$0A@@glm@@QEAAAEA_NH@Z
pdata	ENDS
;	COMDAT pdata
pdata	SEGMENT
$pdata$??A?$tvec3@_N$0A@@glm@@QEBAAEB_NH@Z DD imagerel $LN5
	DD	imagerel $LN5+82
	DD	imagerel $unwind$??A?$tvec3@_N$0A@@glm@@QEBAAEB_NH@Z
pdata	ENDS
;	COMDAT pdata
pdata	SEGMENT
$pdata$??0?$tvec3@_N$0A@@glm@@QEAA@W4ctor@1@@Z DD imagerel $LN3
	DD	imagerel $LN3+17
	DD	imagerel $unwind$??0?$tvec3@_N$0A@@glm@@QEAA@W4ctor@1@@Z
pdata	ENDS
;	COMDAT pdata
pdata	SEGMENT
$pdata$??$all@$0A@Utvec3@glm@@@glm@@YA_NAEBU?$tvec3@_N$0A@@0@@Z DD imagerel $LN8
	DD	imagerel $LN8+116
	DD	imagerel $unwind$??$all@$0A@Utvec3@glm@@@glm@@YA_NAEBU?$tvec3@_N$0A@@0@@Z
pdata	ENDS
;	COMDAT pdata
pdata	SEGMENT
$pdata$??$log@M$0A@Utvec4@glm@@@glm@@YA?AU?$tvec4@M$0A@@0@AEBU10@0@Z DD imagerel $LN3
	DD	imagerel $LN3+87
	DD	imagerel $unwind$??$log@M$0A@Utvec4@glm@@@glm@@YA?AU?$tvec4@M$0A@@0@AEBU10@0@Z
pdata	ENDS
;	COMDAT pdata
pdata	SEGMENT
$pdata$??$log2@M$0A@Utvec4@glm@@@glm@@YA?AU?$tvec4@M$0A@@0@AEBU10@@Z DD imagerel $LN3
	DD	imagerel $LN3+41
	DD	imagerel $unwind$??$log2@M$0A@Utvec4@glm@@@glm@@YA?AU?$tvec4@M$0A@@0@AEBU10@@Z
pdata	ENDS
;	COMDAT pdata
pdata	SEGMENT
$pdata$??$epsilonEqual@M$0A@Utvec4@glm@@@glm@@YA?AU?$tvec4@_N$0A@@0@AEBU?$tvec4@M$0A@@0@00@Z DD imagerel $LN3
	DD	imagerel $LN3+115
	DD	imagerel $unwind$??$epsilonEqual@M$0A@Utvec4@glm@@@glm@@YA?AU?$tvec4@_N$0A@@0@AEBU?$tvec4@M$0A@@0@00@Z
pdata	ENDS
;	COMDAT pdata
pdata	SEGMENT
$pdata$?length@?$tvec4@_N$0A@@glm@@SAHXZ DD imagerel $LN3
	DD	imagerel $LN3+9
	DD	imagerel $unwind$?length@?$tvec4@_N$0A@@glm@@SAHXZ
pdata	ENDS
;	COMDAT pdata
pdata	SEGMENT
$pdata$??A?$tvec4@_N$0A@@glm@@QEAAAEA_NH@Z DD imagerel $LN5
	DD	imagerel $LN5+82
	DD	imagerel $unwind$??A?$tvec4@_N$0A@@glm@@QEAAAEA_NH@Z
pdata	ENDS
;	COMDAT pdata
pdata	SEGMENT
$pdata$??A?$tvec4@_N$0A@@glm@@QEBAAEB_NH@Z DD imagerel $LN5
	DD	imagerel $LN5+82
	DD	imagerel $unwind$??A?$tvec4@_N$0A@@glm@@QEBAAEB_NH@Z
pdata	ENDS
;	COMDAT pdata
pdata	SEGMENT
$pdata$??0?$tvec4@_N$0A@@glm@@QEAA@W4ctor@1@@Z DD imagerel $LN3
	DD	imagerel $LN3+17
	DD	imagerel $unwind$??0?$tvec4@_N$0A@@glm@@QEAA@W4ctor@1@@Z
pdata	ENDS
;	COMDAT pdata
pdata	SEGMENT
$pdata$??$all@$0A@Utvec4@glm@@@glm@@YA_NAEBU?$tvec4@_N$0A@@0@@Z DD imagerel $LN8
	DD	imagerel $LN8+116
	DD	imagerel $unwind$??$all@$0A@Utvec4@glm@@@glm@@YA_NAEBU?$tvec4@_N$0A@@0@@Z
pdata	ENDS
pdata	SEGMENT
$pdata$main DD	imagerel $LN3
	DD	imagerel $LN3+41
	DD	imagerel $unwind$main
pdata	ENDS
;	COMDAT pdata
pdata	SEGMENT
$pdata$?call@?$compute_abs@M$00@detail@glm@@SAMM@Z DD imagerel $LN5
	DD	imagerel $LN5+71
	DD	imagerel $unwind$?call@?$compute_abs@M$00@detail@glm@@SAMM@Z
pdata	ENDS
;	COMDAT pdata
pdata	SEGMENT
$pdata$??$log@M$0A@Utvec1@glm@@@glm@@YA?AU?$tvec1@M$0A@@0@AEBU10@@Z DD imagerel $LN3
	DD	imagerel $LN3+48
	DD	imagerel $unwind$??$log@M$0A@Utvec1@glm@@@glm@@YA?AU?$tvec1@M$0A@@0@AEBU10@@Z
pdata	ENDS
;	COMDAT pdata
pdata	SEGMENT
$pdata$??$?KM$0A@@glm@@YA?AU?$tvec1@M$0A@@0@AEBU10@0@Z DD imagerel $LN3
	DD	imagerel $LN3+62
	DD	imagerel $unwind$??$?KM$0A@@glm@@YA?AU?$tvec1@M$0A@@0@AEBU10@0@Z
pdata	ENDS
;	COMDAT pdata
pdata	SEGMENT
$pdata$?call@?$compute_log2@M$0A@Utvec1@glm@@$00$0A@@detail@glm@@SA?AU?$tvec1@M$0A@@3@AEBU43@@Z DD imagerel $LN3
	DD	imagerel $LN3+48
	DD	imagerel $unwind$?call@?$compute_log2@M$0A@Utvec1@glm@@$00$0A@@detail@glm@@SA?AU?$tvec1@M$0A@@3@AEBU43@@Z
pdata	ENDS
;	COMDAT pdata
pdata	SEGMENT
$pdata$??$?GM$0A@@glm@@YA?AU?$tvec1@M$0A@@0@AEBU10@0@Z DD imagerel $LN3
	DD	imagerel $LN3+62
	DD	imagerel $unwind$??$?GM$0A@@glm@@YA?AU?$tvec1@M$0A@@0@AEBU10@0@Z
pdata	ENDS
;	COMDAT pdata
pdata	SEGMENT
$pdata$??$abs@M$0A@Utvec1@glm@@@glm@@YA?AU?$tvec1@M$0A@@0@AEBU10@@Z DD imagerel $LN3
	DD	imagerel $LN3+41
	DD	imagerel $unwind$??$abs@M$0A@Utvec1@glm@@@glm@@YA?AU?$tvec1@M$0A@@0@AEBU10@@Z
pdata	ENDS
;	COMDAT pdata
pdata	SEGMENT
$pdata$??$lessThan@M$0A@Utvec1@glm@@@glm@@YA?AU?$tvec1@_N$0A@@0@AEBU?$tvec1@M$0A@@0@0@Z DD imagerel $LN9
	DD	imagerel $LN9+267
	DD	imagerel $unwind$??$lessThan@M$0A@Utvec1@glm@@@glm@@YA?AU?$tvec1@_N$0A@@0@AEBU?$tvec1@M$0A@@0@0@Z
pdata	ENDS
;	COMDAT pdata
pdata	SEGMENT
$pdata$??$log@M$0A@Utvec2@glm@@@glm@@YA?AU?$tvec2@M$0A@@0@AEBU10@@Z DD imagerel $LN3
	DD	imagerel $LN3+48
	DD	imagerel $unwind$??$log@M$0A@Utvec2@glm@@@glm@@YA?AU?$tvec2@M$0A@@0@AEBU10@@Z
pdata	ENDS
;	COMDAT pdata
pdata	SEGMENT
$pdata$??$?KM$0A@@glm@@YA?AU?$tvec2@M$0A@@0@AEBU10@0@Z DD imagerel $LN3
	DD	imagerel $LN3+82
	DD	imagerel $unwind$??$?KM$0A@@glm@@YA?AU?$tvec2@M$0A@@0@AEBU10@0@Z
pdata	ENDS
;	COMDAT pdata
pdata	SEGMENT
$pdata$?call@?$compute_log2@M$0A@Utvec2@glm@@$00$0A@@detail@glm@@SA?AU?$tvec2@M$0A@@3@AEBU43@@Z DD imagerel $LN3
	DD	imagerel $LN3+48
	DD	imagerel $unwind$?call@?$compute_log2@M$0A@Utvec2@glm@@$00$0A@@detail@glm@@SA?AU?$tvec2@M$0A@@3@AEBU43@@Z
pdata	ENDS
;	COMDAT pdata
pdata	SEGMENT
$pdata$??$?GM$0A@@glm@@YA?AU?$tvec2@M$0A@@0@AEBU10@0@Z DD imagerel $LN3
	DD	imagerel $LN3+82
	DD	imagerel $unwind$??$?GM$0A@@glm@@YA?AU?$tvec2@M$0A@@0@AEBU10@0@Z
pdata	ENDS
;	COMDAT pdata
pdata	SEGMENT
$pdata$??$abs@M$0A@Utvec2@glm@@@glm@@YA?AU?$tvec2@M$0A@@0@AEBU10@@Z DD imagerel $LN3
	DD	imagerel $LN3+41
	DD	imagerel $unwind$??$abs@M$0A@Utvec2@glm@@@glm@@YA?AU?$tvec2@M$0A@@0@AEBU10@@Z
pdata	ENDS
;	COMDAT pdata
pdata	SEGMENT
$pdata$??$lessThan@M$0A@Utvec2@glm@@@glm@@YA?AU?$tvec2@_N$0A@@0@AEBU?$tvec2@M$0A@@0@0@Z DD imagerel $LN9
	DD	imagerel $LN9+268
	DD	imagerel $unwind$??$lessThan@M$0A@Utvec2@glm@@@glm@@YA?AU?$tvec2@_N$0A@@0@AEBU?$tvec2@M$0A@@0@0@Z
pdata	ENDS
;	COMDAT pdata
pdata	SEGMENT
$pdata$??$log@M$0A@Utvec3@glm@@@glm@@YA?AU?$tvec3@M$0A@@0@AEBU10@@Z DD imagerel $LN3
	DD	imagerel $LN3+48
	DD	imagerel $unwind$??$log@M$0A@Utvec3@glm@@@glm@@YA?AU?$tvec3@M$0A@@0@AEBU10@@Z
pdata	ENDS
;	COMDAT pdata
pdata	SEGMENT
$pdata$??$?KM$0A@@glm@@YA?AU?$tvec3@M$0A@@0@AEBU10@0@Z DD imagerel $LN3
	DD	imagerel $LN3+120
	DD	imagerel $unwind$??$?KM$0A@@glm@@YA?AU?$tvec3@M$0A@@0@AEBU10@0@Z
pdata	ENDS
;	COMDAT pdata
pdata	SEGMENT
$pdata$?call@?$compute_log2@M$0A@Utvec3@glm@@$00$0A@@detail@glm@@SA?AU?$tvec3@M$0A@@3@AEBU43@@Z DD imagerel $LN3
	DD	imagerel $LN3+48
	DD	imagerel $unwind$?call@?$compute_log2@M$0A@Utvec3@glm@@$00$0A@@detail@glm@@SA?AU?$tvec3@M$0A@@3@AEBU43@@Z
pdata	ENDS
;	COMDAT pdata
pdata	SEGMENT
$pdata$??$?GM$0A@@glm@@YA?AU?$tvec3@M$0A@@0@AEBU10@0@Z DD imagerel $LN3
	DD	imagerel $LN3+120
	DD	imagerel $unwind$??$?GM$0A@@glm@@YA?AU?$tvec3@M$0A@@0@AEBU10@0@Z
pdata	ENDS
;	COMDAT pdata
pdata	SEGMENT
$pdata$??$abs@M$0A@Utvec3@glm@@@glm@@YA?AU?$tvec3@M$0A@@0@AEBU10@@Z DD imagerel $LN3
	DD	imagerel $LN3+41
	DD	imagerel $unwind$??$abs@M$0A@Utvec3@glm@@@glm@@YA?AU?$tvec3@M$0A@@0@AEBU10@@Z
pdata	ENDS
;	COMDAT pdata
pdata	SEGMENT
$pdata$??$lessThan@M$0A@Utvec3@glm@@@glm@@YA?AU?$tvec3@_N$0A@@0@AEBU?$tvec3@M$0A@@0@0@Z DD imagerel $LN9
	DD	imagerel $LN9+280
	DD	imagerel $unwind$??$lessThan@M$0A@Utvec3@glm@@@glm@@YA?AU?$tvec3@_N$0A@@0@AEBU?$tvec3@M$0A@@0@0@Z
pdata	ENDS
;	COMDAT pdata
pdata	SEGMENT
$pdata$??$log@M$0A@Utvec4@glm@@@glm@@YA?AU?$tvec4@M$0A@@0@AEBU10@@Z DD imagerel $LN3
	DD	imagerel $LN3+48
	DD	imagerel $unwind$??$log@M$0A@Utvec4@glm@@@glm@@YA?AU?$tvec4@M$0A@@0@AEBU10@@Z
pdata	ENDS
;	COMDAT pdata
pdata	SEGMENT
$pdata$??$?KM$0A@@glm@@YA?AU?$tvec4@M$0A@@0@AEBU10@0@Z DD imagerel $LN3
	DD	imagerel $LN3+83
	DD	imagerel $unwind$??$?KM$0A@@glm@@YA?AU?$tvec4@M$0A@@0@AEBU10@0@Z
pdata	ENDS
;	COMDAT pdata
pdata	SEGMENT
$pdata$?call@?$compute_log2@M$0A@Utvec4@glm@@$00$0A@@detail@glm@@SA?AU?$tvec4@M$0A@@3@AEBU43@@Z DD imagerel $LN3
	DD	imagerel $LN3+48
	DD	imagerel $unwind$?call@?$compute_log2@M$0A@Utvec4@glm@@$00$0A@@detail@glm@@SA?AU?$tvec4@M$0A@@3@AEBU43@@Z
pdata	ENDS
;	COMDAT pdata
pdata	SEGMENT
$pdata$??$?GM$0A@@glm@@YA?AU?$tvec4@M$0A@@0@AEBU10@0@Z DD imagerel $LN3
	DD	imagerel $LN3+83
	DD	imagerel $unwind$??$?GM$0A@@glm@@YA?AU?$tvec4@M$0A@@0@AEBU10@0@Z
pdata	ENDS
;	COMDAT pdata
pdata	SEGMENT
$pdata$??$abs@M$0A@Utvec4@glm@@@glm@@YA?AU?$tvec4@M$0A@@0@AEBU10@@Z DD imagerel $LN3
	DD	imagerel $LN3+41
	DD	imagerel $unwind$??$abs@M$0A@Utvec4@glm@@@glm@@YA?AU?$tvec4@M$0A@@0@AEBU10@@Z
pdata	ENDS
;	COMDAT pdata
pdata	SEGMENT
$pdata$??$lessThan@M$0A@Utvec4@glm@@@glm@@YA?AU?$tvec4@_N$0A@@0@AEBU?$tvec4@M$0A@@0@0@Z DD imagerel $LN9
	DD	imagerel $LN9+266
	DD	imagerel $unwind$??$lessThan@M$0A@Utvec4@glm@@@glm@@YA?AU?$tvec4@_N$0A@@0@AEBU?$tvec4@M$0A@@0@0@Z
pdata	ENDS
;	COMDAT pdata
pdata	SEGMENT
$pdata$?call@?$functor1@MM$0A@Utvec4@glm@@@detail@glm@@SA?AU?$tvec4@M$0A@@3@P6AMM@ZAEBU43@@Z DD imagerel $LN3
	DD	imagerel $LN3+147
	DD	imagerel $unwind$?call@?$functor1@MM$0A@Utvec4@glm@@@detail@glm@@SA?AU?$tvec4@M$0A@@3@P6AMM@ZAEBU43@@Z
pdata	ENDS
;	COMDAT pdata
pdata	SEGMENT
$pdata$?call@?$functor1@MM$0A@Utvec3@glm@@@detail@glm@@SA?AU?$tvec3@M$0A@@3@P6AMM@ZAEBU43@@Z DD imagerel $LN3
	DD	imagerel $LN3+115
	DD	imagerel $unwind$?call@?$functor1@MM$0A@Utvec3@glm@@@detail@glm@@SA?AU?$tvec3@M$0A@@3@P6AMM@ZAEBU43@@Z
pdata	ENDS
;	COMDAT pdata
pdata	SEGMENT
$pdata$?call@?$functor1@MM$0A@Utvec2@glm@@@detail@glm@@SA?AU?$tvec2@M$0A@@3@P6AMM@ZAEBU43@@Z DD imagerel $LN3
	DD	imagerel $LN3+86
	DD	imagerel $unwind$?call@?$functor1@MM$0A@Utvec2@glm@@@detail@glm@@SA?AU?$tvec2@M$0A@@3@P6AMM@ZAEBU43@@Z
pdata	ENDS
;	COMDAT pdata
pdata	SEGMENT
$pdata$?call@?$functor1@MM$0A@Utvec1@glm@@@detail@glm@@SA?AU?$tvec1@M$0A@@3@P6AMM@ZAEBU43@@Z DD imagerel $LN3
	DD	imagerel $LN3+57
	DD	imagerel $unwind$?call@?$functor1@MM$0A@Utvec1@glm@@@detail@glm@@SA?AU?$tvec1@M$0A@@3@P6AMM@ZAEBU43@@Z
pdata	ENDS
;	COMDAT pdata
pdata	SEGMENT
$pdata$?call@?$compute_abs_vector@M$0A@Utvec1@glm@@$0A@@detail@glm@@SA?AU?$tvec1@M$0A@@3@AEBU43@@Z DD imagerel $LN3
	DD	imagerel $LN3+48
	DD	imagerel $unwind$?call@?$compute_abs_vector@M$0A@Utvec1@glm@@$0A@@detail@glm@@SA?AU?$tvec1@M$0A@@3@AEBU43@@Z
pdata	ENDS
;	COMDAT pdata
pdata	SEGMENT
$pdata$?call@?$compute_abs_vector@M$0A@Utvec2@glm@@$0A@@detail@glm@@SA?AU?$tvec2@M$0A@@3@AEBU43@@Z DD imagerel $LN3
	DD	imagerel $LN3+48
	DD	imagerel $unwind$?call@?$compute_abs_vector@M$0A@Utvec2@glm@@$0A@@detail@glm@@SA?AU?$tvec2@M$0A@@3@AEBU43@@Z
pdata	ENDS
;	COMDAT pdata
pdata	SEGMENT
$pdata$?call@?$compute_abs_vector@M$0A@Utvec3@glm@@$0A@@detail@glm@@SA?AU?$tvec3@M$0A@@3@AEBU43@@Z DD imagerel $LN3
	DD	imagerel $LN3+48
	DD	imagerel $unwind$?call@?$compute_abs_vector@M$0A@Utvec3@glm@@$0A@@detail@glm@@SA?AU?$tvec3@M$0A@@3@AEBU43@@Z
pdata	ENDS
;	COMDAT pdata
pdata	SEGMENT
$pdata$??$?_0M@?$tvec4@M$0A@@glm@@QEAAAEAU01@AEBU01@@Z DD imagerel $LN3
	DD	imagerel $LN3+83
	DD	imagerel $unwind$??$?_0M@?$tvec4@M$0A@@glm@@QEAAAEAU01@AEBU01@@Z
pdata	ENDS
;	COMDAT pdata
pdata	SEGMENT
$pdata$??$?ZM@?$tvec4@M$0A@@glm@@QEAAAEAU01@AEBU01@@Z DD imagerel $LN3
	DD	imagerel $LN3+83
	DD	imagerel $unwind$??$?ZM@?$tvec4@M$0A@@glm@@QEAAAEAU01@AEBU01@@Z
pdata	ENDS
;	COMDAT pdata
pdata	SEGMENT
$pdata$?call@?$compute_abs_vector@M$0A@Utvec4@glm@@$0A@@detail@glm@@SA?AU?$tvec4@M$0A@@3@AEBU43@@Z DD imagerel $LN3
	DD	imagerel $LN3+48
	DD	imagerel $unwind$?call@?$compute_abs_vector@M$0A@Utvec4@glm@@$0A@@detail@glm@@SA?AU?$tvec4@M$0A@@3@AEBU43@@Z
pdata	ENDS
;	COMDAT pdata
pdata	SEGMENT
$pdata$?call@?$compute_vec4_div@M$0A@$0A@@detail@glm@@SA?AU?$tvec4@M$0A@@3@AEBU43@0@Z DD imagerel $LN3
	DD	imagerel $LN3+143
	DD	imagerel $unwind$?call@?$compute_vec4_div@M$0A@$0A@@detail@glm@@SA?AU?$tvec4@M$0A@@3@AEBU43@0@Z
pdata	ENDS
;	COMDAT pdata
pdata	SEGMENT
$pdata$?call@?$compute_vec4_sub@M$0A@$0A@@detail@glm@@SA?AU?$tvec4@M$0A@@3@AEBU43@0@Z DD imagerel $LN3
	DD	imagerel $LN3+143
	DD	imagerel $unwind$?call@?$compute_vec4_sub@M$0A@$0A@@detail@glm@@SA?AU?$tvec4@M$0A@@3@AEBU43@0@Z
pdata	ENDS
;	COMDAT __xmm@80000000800000008000000080000000
CONST	SEGMENT
__xmm@80000000800000008000000080000000 DB 00H, 00H, 00H, 080H, 00H, 00H, 00H
	DB	080H, 00H, 00H, 00H, 080H, 00H, 00H, 00H, 080H
CONST	ENDS
;	COMDAT __real@41200000
CONST	SEGMENT
__real@41200000 DD 041200000r			; 10
CONST	ENDS
;	COMDAT __real@40000000
CONST	SEGMENT
__real@40000000 DD 040000000r			; 2
CONST	ENDS
;	COMDAT __real@3727c5ac
CONST	SEGMENT
__real@3727c5ac DD 03727c5acr			; 1e-05
CONST	ENDS
;	COMDAT __real@00000000
CONST	SEGMENT
__real@00000000 DD 000000000r			; 0
CONST	ENDS
;	COMDAT rtc$TMZ
rtc$TMZ	SEGMENT
_RTC_Shutdown.rtc$TMZ DQ FLAT:_RTC_Shutdown
rtc$TMZ	ENDS
;	COMDAT rtc$IMZ
rtc$IMZ	SEGMENT
_RTC_InitBase.rtc$IMZ DQ FLAT:_RTC_InitBase
rtc$IMZ	ENDS
;	COMDAT ??_C@_1DC@HHLCGOLC@?$AAx?$AA?4?$AAl?$AAe?$AAn?$AAg?$AAt?$AAh?$AA?$CI?$AA?$CJ?$AA?5?$AA?$DN?$AA?$DN?$AA?5?$AAy@
CONST	SEGMENT
??_C@_1DC@HHLCGOLC@?$AAx?$AA?4?$AAl?$AAe?$AAn?$AAg?$AAt?$AAh?$AA?$CI?$AA?$CJ?$AA?5?$AA?$DN?$AA?$DN?$AA?5?$AAy@ DB 'x'
	DB	00H, '.', 00H, 'l', 00H, 'e', 00H, 'n', 00H, 'g', 00H, 't', 00H
	DB	'h', 00H, '(', 00H, ')', 00H, ' ', 00H, '=', 00H, '=', 00H, ' '
	DB	00H, 'y', 00H, '.', 00H, 'l', 00H, 'e', 00H, 'n', 00H, 'g', 00H
	DB	't', 00H, 'h', 00H, '(', 00H, ')', 00H, 00H, 00H ; `string'
CONST	ENDS
;	COMDAT ??_C@_1NA@OPABFNEN@?$AAC?$AA?3?$AA?2?$AAU?$AAs?$AAe?$AAr?$AAs?$AA?2?$AAk?$AAs?$AAa?$AAr?$AAt?$AA?2@
CONST	SEGMENT
??_C@_1NA@OPABFNEN@?$AAC?$AA?3?$AA?2?$AAU?$AAs?$AAe?$AAr?$AAs?$AA?2?$AAk?$AAs?$AAa?$AAr?$AAt?$AA?2@ DB 'C'
	DB	00H, ':', 00H, '\', 00H, 'U', 00H, 's', 00H, 'e', 00H, 'r', 00H
	DB	's', 00H, '\', 00H, 'k', 00H, 's', 00H, 'a', 00H, 'r', 00H, 't'
	DB	00H, '\', 00H, 'O', 00H, 'n', 00H, 'e', 00H, 'D', 00H, 'r', 00H
	DB	'i', 00H, 'v', 00H, 'e', 00H, '\', 00H, 'D', 00H, 'e', 00H, 's'
	DB	00H, 'k', 00H, 't', 00H, 'o', 00H, 'p', 00H, '\', 00H, 'F', 00H
	DB	'l', 00H, 'a', 00H, 'p', 00H, 'p', 00H, 'y', 00H, 'B', 00H, 'i'
	DB	00H, 'r', 00H, 'd', 00H, '\', 00H, 'l', 00H, 'i', 00H, 'b', 00H
	DB	'r', 00H, 'a', 00H, 'r', 00H, 'i', 00H, 'e', 00H, 's', 00H, '\'
	DB	00H, 'e', 00H, 'x', 00H, 't', 00H, 'e', 00H, 'r', 00H, 'n', 00H
	DB	'a', 00H, 'l', 00H, '\', 00H, 'g', 00H, 'l', 00H, 'm', 00H, '\'
	DB	00H, 'g', 00H, 'l', 00H, 'm', 00H, '\', 00H, 'd', 00H, 'e', 00H
	DB	't', 00H, 'a', 00H, 'i', 00H, 'l', 00H, '\', 00H, 'f', 00H, 'u'
	DB	00H, 'n', 00H, 'c', 00H, '_', 00H, 'v', 00H, 'e', 00H, 'c', 00H
	DB	't', 00H, 'o', 00H, 'r', 00H, '_', 00H, 'r', 00H, 'e', 00H, 'l'
	DB	00H, 'a', 00H, 't', 00H, 'i', 00H, 'o', 00H, 'n', 00H, 'a', 00H
	DB	'l', 00H, '.', 00H, 'i', 00H, 'n', 00H, 'l', 00H, 00H, 00H ; `string'
CONST	ENDS
;	COMDAT ??_C@_1LG@MEJFBKPC@?$AAC?$AA?3?$AA?2?$AAU?$AAs?$AAe?$AAr?$AAs?$AA?2?$AAk?$AAs?$AAa?$AAr?$AAt?$AA?2@
CONST	SEGMENT
??_C@_1LG@MEJFBKPC@?$AAC?$AA?3?$AA?2?$AAU?$AAs?$AAe?$AAr?$AAs?$AA?2?$AAk?$AAs?$AAa?$AAr?$AAt?$AA?2@ DB 'C'
	DB	00H, ':', 00H, '\', 00H, 'U', 00H, 's', 00H, 'e', 00H, 'r', 00H
	DB	's', 00H, '\', 00H, 'k', 00H, 's', 00H, 'a', 00H, 'r', 00H, 't'
	DB	00H, '\', 00H, 'O', 00H, 'n', 00H, 'e', 00H, 'D', 00H, 'r', 00H
	DB	'i', 00H, 'v', 00H, 'e', 00H, '\', 00H, 'D', 00H, 'e', 00H, 's'
	DB	00H, 'k', 00H, 't', 00H, 'o', 00H, 'p', 00H, '\', 00H, 'F', 00H
	DB	'l', 00H, 'a', 00H, 'p', 00H, 'p', 00H, 'y', 00H, 'B', 00H, 'i'
	DB	00H, 'r', 00H, 'd', 00H, '\', 00H, 'l', 00H, 'i', 00H, 'b', 00H
	DB	'r', 00H, 'a', 00H, 'r', 00H, 'i', 00H, 'e', 00H, 's', 00H, '\'
	DB	00H, 'e', 00H, 'x', 00H, 't', 00H, 'e', 00H, 'r', 00H, 'n', 00H
	DB	'a', 00H, 'l', 00H, '\', 00H, 'g', 00H, 'l', 00H, 'm', 00H, '\'
	DB	00H, 'g', 00H, 'l', 00H, 'm', 00H, '\', 00H, 'd', 00H, 'e', 00H
	DB	't', 00H, 'a', 00H, 'i', 00H, 'l', 00H, '\', 00H, 't', 00H, 'y'
	DB	00H, 'p', 00H, 'e', 00H, '_', 00H, 'v', 00H, 'e', 00H, 'c', 00H
	DB	'3', 00H, '.', 00H, 'i', 00H, 'n', 00H, 'l', 00H, 00H, 00H ; `string'
CONST	ENDS
;	COMDAT ??_C@_1LG@CIKOIEGN@?$AAC?$AA?3?$AA?2?$AAU?$AAs?$AAe?$AAr?$AAs?$AA?2?$AAk?$AAs?$AAa?$AAr?$AAt?$AA?2@
CONST	SEGMENT
??_C@_1LG@CIKOIEGN@?$AAC?$AA?3?$AA?2?$AAU?$AAs?$AAe?$AAr?$AAs?$AA?2?$AAk?$AAs?$AAa?$AAr?$AAt?$AA?2@ DB 'C'
	DB	00H, ':', 00H, '\', 00H, 'U', 00H, 's', 00H, 'e', 00H, 'r', 00H
	DB	's', 00H, '\', 00H, 'k', 00H, 's', 00H, 'a', 00H, 'r', 00H, 't'
	DB	00H, '\', 00H, 'O', 00H, 'n', 00H, 'e', 00H, 'D', 00H, 'r', 00H
	DB	'i', 00H, 'v', 00H, 'e', 00H, '\', 00H, 'D', 00H, 'e', 00H, 's'
	DB	00H, 'k', 00H, 't', 00H, 'o', 00H, 'p', 00H, '\', 00H, 'F', 00H
	DB	'l', 00H, 'a', 00H, 'p', 00H, 'p', 00H, 'y', 00H, 'B', 00H, 'i'
	DB	00H, 'r', 00H, 'd', 00H, '\', 00H, 'l', 00H, 'i', 00H, 'b', 00H
	DB	'r', 00H, 'a', 00H, 'r', 00H, 'i', 00H, 'e', 00H, 's', 00H, '\'
	DB	00H, 'e', 00H, 'x', 00H, 't', 00H, 'e', 00H, 'r', 00H, 'n', 00H
	DB	'a', 00H, 'l', 00H, '\', 00H, 'g', 00H, 'l', 00H, 'm', 00H, '\'
	DB	00H, 'g', 00H, 'l', 00H, 'm', 00H, '\', 00H, 'd', 00H, 'e', 00H
	DB	't', 00H, 'a', 00H, 'i', 00H, 'l', 00H, '\', 00H, 't', 00H, 'y'
	DB	00H, 'p', 00H, 'e', 00H, '_', 00H, 'v', 00H, 'e', 00H, 'c', 00H
	DB	'1', 00H, '.', 00H, 'i', 00H, 'n', 00H, 'l', 00H, 00H, 00H ; `string'
CONST	ENDS
;	COMDAT ??_C@_1CA@KHCKNFCF@?$AAx?$AA?5?$AA?$CB?$AA?$DN?$AA?5?$AAg?$AAe?$AAn?$AAT?$AAy?$AAp?$AAe?$AA?$CI?$AA0?$AA?$CJ@
CONST	SEGMENT
??_C@_1CA@KHCKNFCF@?$AAx?$AA?5?$AA?$CB?$AA?$DN?$AA?5?$AAg?$AAe?$AAn?$AAT?$AAy?$AAp?$AAe?$AA?$CI?$AA0?$AA?$CJ@ DB 'x'
	DB	00H, ' ', 00H, '!', 00H, '=', 00H, ' ', 00H, 'g', 00H, 'e', 00H
	DB	'n', 00H, 'T', 00H, 'y', 00H, 'p', 00H, 'e', 00H, '(', 00H, '0'
	DB	00H, ')', 00H, 00H, 00H			; `string'
CONST	ENDS
;	COMDAT ??_C@_1KO@MEDIOOM@?$AAC?$AA?3?$AA?2?$AAU?$AAs?$AAe?$AAr?$AAs?$AA?2?$AAk?$AAs?$AAa?$AAr?$AAt?$AA?2@
CONST	SEGMENT
??_C@_1KO@MEDIOOM@?$AAC?$AA?3?$AA?2?$AAU?$AAs?$AAe?$AAr?$AAs?$AA?2?$AAk?$AAs?$AAa?$AAr?$AAt?$AA?2@ DB 'C'
	DB	00H, ':', 00H, '\', 00H, 'U', 00H, 's', 00H, 'e', 00H, 'r', 00H
	DB	's', 00H, '\', 00H, 'k', 00H, 's', 00H, 'a', 00H, 'r', 00H, 't'
	DB	00H, '\', 00H, 'O', 00H, 'n', 00H, 'e', 00H, 'D', 00H, 'r', 00H
	DB	'i', 00H, 'v', 00H, 'e', 00H, '\', 00H, 'D', 00H, 'e', 00H, 's'
	DB	00H, 'k', 00H, 't', 00H, 'o', 00H, 'p', 00H, '\', 00H, 'F', 00H
	DB	'l', 00H, 'a', 00H, 'p', 00H, 'p', 00H, 'y', 00H, 'B', 00H, 'i'
	DB	00H, 'r', 00H, 'd', 00H, '\', 00H, 'l', 00H, 'i', 00H, 'b', 00H
	DB	'r', 00H, 'a', 00H, 'r', 00H, 'i', 00H, 'e', 00H, 's', 00H, '\'
	DB	00H, 'e', 00H, 'x', 00H, 't', 00H, 'e', 00H, 'r', 00H, 'n', 00H
	DB	'a', 00H, 'l', 00H, '\', 00H, 'g', 00H, 'l', 00H, 'm', 00H, '\'
	DB	00H, 'g', 00H, 'l', 00H, 'm', 00H, '\', 00H, 'g', 00H, 't', 00H
	DB	'x', 00H, '\', 00H, 'l', 00H, 'o', 00H, 'g', 00H, '_', 00H, 'b'
	DB	00H, 'a', 00H, 's', 00H, 'e', 00H, '.', 00H, 'i', 00H, 'n', 00H
	DB	'l', 00H, 00H, 00H				; `string'
CONST	ENDS
;	COMDAT ??_C@_1LG@LAANPDHN@?$AAC?$AA?3?$AA?2?$AAU?$AAs?$AAe?$AAr?$AAs?$AA?2?$AAk?$AAs?$AAa?$AAr?$AAt?$AA?2@
CONST	SEGMENT
??_C@_1LG@LAANPDHN@?$AAC?$AA?3?$AA?2?$AAU?$AAs?$AAe?$AAr?$AAs?$AA?2?$AAk?$AAs?$AAa?$AAr?$AAt?$AA?2@ DB 'C'
	DB	00H, ':', 00H, '\', 00H, 'U', 00H, 's', 00H, 'e', 00H, 'r', 00H
	DB	's', 00H, '\', 00H, 'k', 00H, 's', 00H, 'a', 00H, 'r', 00H, 't'
	DB	00H, '\', 00H, 'O', 00H, 'n', 00H, 'e', 00H, 'D', 00H, 'r', 00H
	DB	'i', 00H, 'v', 00H, 'e', 00H, '\', 00H, 'D', 00H, 'e', 00H, 's'
	DB	00H, 'k', 00H, 't', 00H, 'o', 00H, 'p', 00H, '\', 00H, 'F', 00H
	DB	'l', 00H, 'a', 00H, 'p', 00H, 'p', 00H, 'y', 00H, 'B', 00H, 'i'
	DB	00H, 'r', 00H, 'd', 00H, '\', 00H, 'l', 00H, 'i', 00H, 'b', 00H
	DB	'r', 00H, 'a', 00H, 'r', 00H, 'i', 00H, 'e', 00H, 's', 00H, '\'
	DB	00H, 'e', 00H, 'x', 00H, 't', 00H, 'e', 00H, 'r', 00H, 'n', 00H
	DB	'a', 00H, 'l', 00H, '\', 00H, 'g', 00H, 'l', 00H, 'm', 00H, '\'
	DB	00H, 'g', 00H, 'l', 00H, 'm', 00H, '\', 00H, 'd', 00H, 'e', 00H
	DB	't', 00H, 'a', 00H, 'i', 00H, 'l', 00H, '\', 00H, 't', 00H, 'y'
	DB	00H, 'p', 00H, 'e', 00H, '_', 00H, 'v', 00H, 'e', 00H, 'c', 00H
	DB	'4', 00H, '.', 00H, 'i', 00H, 'n', 00H, 'l', 00H, 00H, 00H ; `string'
CONST	ENDS
;	COMDAT ??_C@_1DK@BGNCJAPL@?$AAi?$AA?5?$AA?$DO?$AA?$DN?$AA?5?$AA0?$AA?5?$AA?$CG?$AA?$CG?$AA?5?$AAi?$AA?5?$AA?$DM?$AA?5?$AAt@
CONST	SEGMENT
??_C@_1DK@BGNCJAPL@?$AAi?$AA?5?$AA?$DO?$AA?$DN?$AA?5?$AA0?$AA?5?$AA?$CG?$AA?$CG?$AA?5?$AAi?$AA?5?$AA?$DM?$AA?5?$AAt@ DB 'i'
	DB	00H, ' ', 00H, '>', 00H, '=', 00H, ' ', 00H, '0', 00H, ' ', 00H
	DB	'&', 00H, '&', 00H, ' ', 00H, 'i', 00H, ' ', 00H, '<', 00H, ' '
	DB	00H, 't', 00H, 'h', 00H, 'i', 00H, 's', 00H, '-', 00H, '>', 00H
	DB	'l', 00H, 'e', 00H, 'n', 00H, 'g', 00H, 't', 00H, 'h', 00H, '('
	DB	00H, ')', 00H, 00H, 00H			; `string'
CONST	ENDS
;	COMDAT ??_C@_1LG@FPDAFGJN@?$AAC?$AA?3?$AA?2?$AAU?$AAs?$AAe?$AAr?$AAs?$AA?2?$AAk?$AAs?$AAa?$AAr?$AAt?$AA?2@
CONST	SEGMENT
??_C@_1LG@FPDAFGJN@?$AAC?$AA?3?$AA?2?$AAU?$AAs?$AAe?$AAr?$AAs?$AA?2?$AAk?$AAs?$AAa?$AAr?$AAt?$AA?2@ DB 'C'
	DB	00H, ':', 00H, '\', 00H, 'U', 00H, 's', 00H, 'e', 00H, 'r', 00H
	DB	's', 00H, '\', 00H, 'k', 00H, 's', 00H, 'a', 00H, 'r', 00H, 't'
	DB	00H, '\', 00H, 'O', 00H, 'n', 00H, 'e', 00H, 'D', 00H, 'r', 00H
	DB	'i', 00H, 'v', 00H, 'e', 00H, '\', 00H, 'D', 00H, 'e', 00H, 's'
	DB	00H, 'k', 00H, 't', 00H, 'o', 00H, 'p', 00H, '\', 00H, 'F', 00H
	DB	'l', 00H, 'a', 00H, 'p', 00H, 'p', 00H, 'y', 00H, 'B', 00H, 'i'
	DB	00H, 'r', 00H, 'd', 00H, '\', 00H, 'l', 00H, 'i', 00H, 'b', 00H
	DB	'r', 00H, 'a', 00H, 'r', 00H, 'i', 00H, 'e', 00H, 's', 00H, '\'
	DB	00H, 'e', 00H, 'x', 00H, 't', 00H, 'e', 00H, 'r', 00H, 'n', 00H
	DB	'a', 00H, 'l', 00H, '\', 00H, 'g', 00H, 'l', 00H, 'm', 00H, '\'
	DB	00H, 'g', 00H, 'l', 00H, 'm', 00H, '\', 00H, 'd', 00H, 'e', 00H
	DB	't', 00H, 'a', 00H, 'i', 00H, 'l', 00H, '\', 00H, 't', 00H, 'y'
	DB	00H, 'p', 00H, 'e', 00H, '_', 00H, 'v', 00H, 'e', 00H, 'c', 00H
	DB	'2', 00H, '.', 00H, 'i', 00H, 'n', 00H, 'l', 00H, 00H, 00H ; `string'
CONST	ENDS
;	COMDAT xdata
xdata	SEGMENT
$unwind$?call@?$compute_vec4_sub@M$0A@$0A@@detail@glm@@SA?AU?$tvec4@M$0A@@3@AEBU43@0@Z DD 021401H
	DD	070107214H
xdata	ENDS
;	COMDAT xdata
xdata	SEGMENT
$unwind$?call@?$compute_vec4_div@M$0A@$0A@@detail@glm@@SA?AU?$tvec4@M$0A@@3@AEBU43@0@Z DD 021401H
	DD	070107214H
xdata	ENDS
;	COMDAT xdata
xdata	SEGMENT
$unwind$?call@?$compute_abs_vector@M$0A@Utvec4@glm@@$0A@@detail@glm@@SA?AU?$tvec4@M$0A@@3@AEBU43@@Z DD 020f01H
	DD	0700b320fH
xdata	ENDS
;	COMDAT xdata
xdata	SEGMENT
$unwind$??$?ZM@?$tvec4@M$0A@@glm@@QEAAAEAU01@AEBU01@@Z DD 031001H
	DD	0700c8210H
	DD	0600bH
xdata	ENDS
;	COMDAT xdata
xdata	SEGMENT
$unwind$??$?_0M@?$tvec4@M$0A@@glm@@QEAAAEAU01@AEBU01@@Z DD 031001H
	DD	0700c8210H
	DD	0600bH
xdata	ENDS
;	COMDAT xdata
xdata	SEGMENT
$unwind$?call@?$compute_abs_vector@M$0A@Utvec3@glm@@$0A@@detail@glm@@SA?AU?$tvec3@M$0A@@3@AEBU43@@Z DD 020f01H
	DD	0700b320fH
xdata	ENDS
;	COMDAT xdata
xdata	SEGMENT
$unwind$?call@?$compute_abs_vector@M$0A@Utvec2@glm@@$0A@@detail@glm@@SA?AU?$tvec2@M$0A@@3@AEBU43@@Z DD 020f01H
	DD	0700b320fH
xdata	ENDS
;	COMDAT xdata
xdata	SEGMENT
$unwind$?call@?$compute_abs_vector@M$0A@Utvec1@glm@@$0A@@detail@glm@@SA?AU?$tvec1@M$0A@@3@AEBU43@@Z DD 020f01H
	DD	0700b320fH
xdata	ENDS
;	COMDAT xdata
xdata	SEGMENT
$unwind$?call@?$functor1@MM$0A@Utvec1@glm@@@detail@glm@@SA?AU?$tvec1@M$0A@@3@P6AMM@ZAEBU43@@Z DD 021401H
	DD	070103214H
xdata	ENDS
;	COMDAT xdata
xdata	SEGMENT
$unwind$?call@?$functor1@MM$0A@Utvec2@glm@@@detail@glm@@SA?AU?$tvec2@M$0A@@3@P6AMM@ZAEBU43@@Z DD 021401H
	DD	070105214H
xdata	ENDS
;	COMDAT xdata
xdata	SEGMENT
$unwind$?call@?$functor1@MM$0A@Utvec3@glm@@@detail@glm@@SA?AU?$tvec3@M$0A@@3@P6AMM@ZAEBU43@@Z DD 021401H
	DD	070105214H
xdata	ENDS
;	COMDAT xdata
xdata	SEGMENT
$unwind$?call@?$functor1@MM$0A@Utvec4@glm@@@detail@glm@@SA?AU?$tvec4@M$0A@@3@P6AMM@ZAEBU43@@Z DD 021401H
	DD	070107214H
xdata	ENDS
;	COMDAT xdata
xdata	SEGMENT
$unwind$??$lessThan@M$0A@Utvec4@glm@@@glm@@YA?AU?$tvec4@_N$0A@@0@AEBU?$tvec4@M$0A@@0@0@Z DD 022a01H
	DD	070109214H
xdata	ENDS
;	COMDAT CONST
CONST	SEGMENT
??$lessThan@M$0A@Utvec4@glm@@@glm@@YA?AU?$tvec4@_N$0A@@0@AEBU?$tvec4@M$0A@@0@0@Z$rtcName$0 DB 052H ; glm::lessThan<float,0,glm::tvec4>
	DB	065H
	DB	073H
	DB	075H
	DB	06cH
	DB	074H
	DB	00H
	ORG $+9
??$lessThan@M$0A@Utvec4@glm@@@glm@@YA?AU?$tvec4@_N$0A@@0@AEBU?$tvec4@M$0A@@0@0@Z$rtcVarDesc DD 024H ; glm::lessThan<float,0,glm::tvec4>
	DD	04H
	DQ	FLAT:??$lessThan@M$0A@Utvec4@glm@@@glm@@YA?AU?$tvec4@_N$0A@@0@AEBU?$tvec4@M$0A@@0@0@Z$rtcName$0
	ORG $+48
??$lessThan@M$0A@Utvec4@glm@@@glm@@YA?AU?$tvec4@_N$0A@@0@AEBU?$tvec4@M$0A@@0@0@Z$rtcFrameData DD 01H ; glm::lessThan<float,0,glm::tvec4>
	DD	00H
	DQ	FLAT:??$lessThan@M$0A@Utvec4@glm@@@glm@@YA?AU?$tvec4@_N$0A@@0@AEBU?$tvec4@M$0A@@0@0@Z$rtcVarDesc
CONST	ENDS
;	COMDAT xdata
xdata	SEGMENT
$unwind$??$abs@M$0A@Utvec4@glm@@@glm@@YA?AU?$tvec4@M$0A@@0@AEBU10@@Z DD 020f01H
	DD	0700b320fH
xdata	ENDS
;	COMDAT xdata
xdata	SEGMENT
$unwind$??$?GM$0A@@glm@@YA?AU?$tvec4@M$0A@@0@AEBU10@0@Z DD 031501H
	DD	070116215H
	DD	06010H
xdata	ENDS
;	COMDAT xdata
xdata	SEGMENT
$unwind$?call@?$compute_log2@M$0A@Utvec4@glm@@$00$0A@@detail@glm@@SA?AU?$tvec4@M$0A@@3@AEBU43@@Z DD 020f01H
	DD	0700b320fH
xdata	ENDS
;	COMDAT xdata
xdata	SEGMENT
$unwind$??$?KM$0A@@glm@@YA?AU?$tvec4@M$0A@@0@AEBU10@0@Z DD 031501H
	DD	070116215H
	DD	06010H
xdata	ENDS
;	COMDAT xdata
xdata	SEGMENT
$unwind$??$log@M$0A@Utvec4@glm@@@glm@@YA?AU?$tvec4@M$0A@@0@AEBU10@@Z DD 020f01H
	DD	0700b320fH
xdata	ENDS
;	COMDAT xdata
xdata	SEGMENT
$unwind$??$lessThan@M$0A@Utvec3@glm@@@glm@@YA?AU?$tvec3@_N$0A@@0@AEBU?$tvec3@M$0A@@0@0@Z DD 032b01H
	DD	07011a215H
	DD	06010H
xdata	ENDS
;	COMDAT CONST
CONST	SEGMENT
??$lessThan@M$0A@Utvec3@glm@@@glm@@YA?AU?$tvec3@_N$0A@@0@AEBU?$tvec3@M$0A@@0@0@Z$rtcName$0 DB 052H ; glm::lessThan<float,0,glm::tvec3>
	DB	065H
	DB	073H
	DB	075H
	DB	06cH
	DB	074H
	DB	00H
	ORG $+9
??$lessThan@M$0A@Utvec3@glm@@@glm@@YA?AU?$tvec3@_N$0A@@0@AEBU?$tvec3@M$0A@@0@0@Z$rtcVarDesc DD 024H ; glm::lessThan<float,0,glm::tvec3>
	DD	03H
	DQ	FLAT:??$lessThan@M$0A@Utvec3@glm@@@glm@@YA?AU?$tvec3@_N$0A@@0@AEBU?$tvec3@M$0A@@0@0@Z$rtcName$0
	ORG $+48
??$lessThan@M$0A@Utvec3@glm@@@glm@@YA?AU?$tvec3@_N$0A@@0@AEBU?$tvec3@M$0A@@0@0@Z$rtcFrameData DD 01H ; glm::lessThan<float,0,glm::tvec3>
	DD	00H
	DQ	FLAT:??$lessThan@M$0A@Utvec3@glm@@@glm@@YA?AU?$tvec3@_N$0A@@0@AEBU?$tvec3@M$0A@@0@0@Z$rtcVarDesc
CONST	ENDS
;	COMDAT xdata
xdata	SEGMENT
$unwind$??$abs@M$0A@Utvec3@glm@@@glm@@YA?AU?$tvec3@M$0A@@0@AEBU10@@Z DD 020f01H
	DD	0700b320fH
xdata	ENDS
;	COMDAT xdata
xdata	SEGMENT
$unwind$??$?GM$0A@@glm@@YA?AU?$tvec3@M$0A@@0@AEBU10@0@Z DD 021401H
	DD	070105214H
xdata	ENDS
;	COMDAT xdata
xdata	SEGMENT
$unwind$?call@?$compute_log2@M$0A@Utvec3@glm@@$00$0A@@detail@glm@@SA?AU?$tvec3@M$0A@@3@AEBU43@@Z DD 020f01H
	DD	0700b320fH
xdata	ENDS
;	COMDAT xdata
xdata	SEGMENT
$unwind$??$?KM$0A@@glm@@YA?AU?$tvec3@M$0A@@0@AEBU10@0@Z DD 021401H
	DD	070105214H
xdata	ENDS
;	COMDAT xdata
xdata	SEGMENT
$unwind$??$log@M$0A@Utvec3@glm@@@glm@@YA?AU?$tvec3@M$0A@@0@AEBU10@@Z DD 020f01H
	DD	0700b320fH
xdata	ENDS
;	COMDAT xdata
xdata	SEGMENT
$unwind$??$lessThan@M$0A@Utvec2@glm@@@glm@@YA?AU?$tvec2@_N$0A@@0@AEBU?$tvec2@M$0A@@0@0@Z DD 022a01H
	DD	070109214H
xdata	ENDS
;	COMDAT CONST
CONST	SEGMENT
??$lessThan@M$0A@Utvec2@glm@@@glm@@YA?AU?$tvec2@_N$0A@@0@AEBU?$tvec2@M$0A@@0@0@Z$rtcName$0 DB 052H ; glm::lessThan<float,0,glm::tvec2>
	DB	065H
	DB	073H
	DB	075H
	DB	06cH
	DB	074H
	DB	00H
	ORG $+9
??$lessThan@M$0A@Utvec2@glm@@@glm@@YA?AU?$tvec2@_N$0A@@0@AEBU?$tvec2@M$0A@@0@0@Z$rtcVarDesc DD 024H ; glm::lessThan<float,0,glm::tvec2>
	DD	02H
	DQ	FLAT:??$lessThan@M$0A@Utvec2@glm@@@glm@@YA?AU?$tvec2@_N$0A@@0@AEBU?$tvec2@M$0A@@0@0@Z$rtcName$0
	ORG $+48
??$lessThan@M$0A@Utvec2@glm@@@glm@@YA?AU?$tvec2@_N$0A@@0@AEBU?$tvec2@M$0A@@0@0@Z$rtcFrameData DD 01H ; glm::lessThan<float,0,glm::tvec2>
	DD	00H
	DQ	FLAT:??$lessThan@M$0A@Utvec2@glm@@@glm@@YA?AU?$tvec2@_N$0A@@0@AEBU?$tvec2@M$0A@@0@0@Z$rtcVarDesc
CONST	ENDS
;	COMDAT xdata
xdata	SEGMENT
$unwind$??$abs@M$0A@Utvec2@glm@@@glm@@YA?AU?$tvec2@M$0A@@0@AEBU10@@Z DD 020f01H
	DD	0700b320fH
xdata	ENDS
;	COMDAT xdata
xdata	SEGMENT
$unwind$??$?GM$0A@@glm@@YA?AU?$tvec2@M$0A@@0@AEBU10@0@Z DD 021401H
	DD	070103214H
xdata	ENDS
;	COMDAT xdata
xdata	SEGMENT
$unwind$?call@?$compute_log2@M$0A@Utvec2@glm@@$00$0A@@detail@glm@@SA?AU?$tvec2@M$0A@@3@AEBU43@@Z DD 020f01H
	DD	0700b320fH
xdata	ENDS
;	COMDAT xdata
xdata	SEGMENT
$unwind$??$?KM$0A@@glm@@YA?AU?$tvec2@M$0A@@0@AEBU10@0@Z DD 021401H
	DD	070103214H
xdata	ENDS
;	COMDAT xdata
xdata	SEGMENT
$unwind$??$log@M$0A@Utvec2@glm@@@glm@@YA?AU?$tvec2@M$0A@@0@AEBU10@@Z DD 020f01H
	DD	0700b320fH
xdata	ENDS
;	COMDAT xdata
xdata	SEGMENT
$unwind$??$lessThan@M$0A@Utvec1@glm@@@glm@@YA?AU?$tvec1@_N$0A@@0@AEBU?$tvec1@M$0A@@0@0@Z DD 022a01H
	DD	070109214H
xdata	ENDS
;	COMDAT CONST
CONST	SEGMENT
??$lessThan@M$0A@Utvec1@glm@@@glm@@YA?AU?$tvec1@_N$0A@@0@AEBU?$tvec1@M$0A@@0@0@Z$rtcName$0 DB 052H ; glm::lessThan<float,0,glm::tvec1>
	DB	065H
	DB	073H
	DB	075H
	DB	06cH
	DB	074H
	DB	00H
	ORG $+9
??$lessThan@M$0A@Utvec1@glm@@@glm@@YA?AU?$tvec1@_N$0A@@0@AEBU?$tvec1@M$0A@@0@0@Z$rtcVarDesc DD 024H ; glm::lessThan<float,0,glm::tvec1>
	DD	01H
	DQ	FLAT:??$lessThan@M$0A@Utvec1@glm@@@glm@@YA?AU?$tvec1@_N$0A@@0@AEBU?$tvec1@M$0A@@0@0@Z$rtcName$0
	ORG $+48
??$lessThan@M$0A@Utvec1@glm@@@glm@@YA?AU?$tvec1@_N$0A@@0@AEBU?$tvec1@M$0A@@0@0@Z$rtcFrameData DD 01H ; glm::lessThan<float,0,glm::tvec1>
	DD	00H
	DQ	FLAT:??$lessThan@M$0A@Utvec1@glm@@@glm@@YA?AU?$tvec1@_N$0A@@0@AEBU?$tvec1@M$0A@@0@0@Z$rtcVarDesc
CONST	ENDS
;	COMDAT xdata
xdata	SEGMENT
$unwind$??$abs@M$0A@Utvec1@glm@@@glm@@YA?AU?$tvec1@M$0A@@0@AEBU10@@Z DD 020f01H
	DD	0700b320fH
xdata	ENDS
;	COMDAT xdata
xdata	SEGMENT
$unwind$??$?GM$0A@@glm@@YA?AU?$tvec1@M$0A@@0@AEBU10@0@Z DD 021401H
	DD	070103214H
xdata	ENDS
;	COMDAT xdata
xdata	SEGMENT
$unwind$?call@?$compute_log2@M$0A@Utvec1@glm@@$00$0A@@detail@glm@@SA?AU?$tvec1@M$0A@@3@AEBU43@@Z DD 020f01H
	DD	0700b320fH
xdata	ENDS
;	COMDAT xdata
xdata	SEGMENT
$unwind$??$?KM$0A@@glm@@YA?AU?$tvec1@M$0A@@0@AEBU10@0@Z DD 021401H
	DD	070103214H
xdata	ENDS
;	COMDAT xdata
xdata	SEGMENT
$unwind$??$log@M$0A@Utvec1@glm@@@glm@@YA?AU?$tvec1@M$0A@@0@AEBU10@@Z DD 020f01H
	DD	0700b320fH
xdata	ENDS
;	COMDAT xdata
xdata	SEGMENT
$unwind$?call@?$compute_abs@M$00@detail@glm@@SAMM@Z DD 020b01H
	DD	07007320bH
xdata	ENDS
;	COMDAT xdata
xdata	SEGMENT
$unwind$??$all@$0A@Utvec4@glm@@@glm@@YA_NAEBU?$tvec4@_N$0A@@0@@Z DD 020a01H
	DD	07006520aH
xdata	ENDS
;	COMDAT xdata
xdata	SEGMENT
$unwind$??0?$tvec4@_N$0A@@glm@@QEAA@W4ctor@1@@Z DD 010a01H
	DD	0700aH
xdata	ENDS
;	COMDAT xdata
xdata	SEGMENT
$unwind$??A?$tvec4@_N$0A@@glm@@QEBAAEB_NH@Z DD 020e01H
	DD	0700a320eH
xdata	ENDS
;	COMDAT xdata
xdata	SEGMENT
$unwind$??A?$tvec4@_N$0A@@glm@@QEAAAEA_NH@Z DD 020e01H
	DD	0700a320eH
xdata	ENDS
;	COMDAT xdata
xdata	SEGMENT
$unwind$?length@?$tvec4@_N$0A@@glm@@SAHXZ DD 010201H
	DD	07002H
xdata	ENDS
;	COMDAT xdata
xdata	SEGMENT
$unwind$??$epsilonEqual@M$0A@Utvec4@glm@@@glm@@YA?AU?$tvec4@_N$0A@@0@AEBU?$tvec4@M$0A@@0@00@Z DD 031a01H
	DD	07016a21aH
	DD	06015H
xdata	ENDS
;	COMDAT xdata
xdata	SEGMENT
$unwind$??$log2@M$0A@Utvec4@glm@@@glm@@YA?AU?$tvec4@M$0A@@0@AEBU10@@Z DD 020f01H
	DD	0700b320fH
xdata	ENDS
;	COMDAT xdata
xdata	SEGMENT
$unwind$??$log@M$0A@Utvec4@glm@@@glm@@YA?AU?$tvec4@M$0A@@0@AEBU10@0@Z DD 021401H
	DD	070109214H
xdata	ENDS
;	COMDAT xdata
xdata	SEGMENT
$unwind$??$all@$0A@Utvec3@glm@@@glm@@YA_NAEBU?$tvec3@_N$0A@@0@@Z DD 020a01H
	DD	07006520aH
xdata	ENDS
;	COMDAT xdata
xdata	SEGMENT
$unwind$??0?$tvec3@_N$0A@@glm@@QEAA@W4ctor@1@@Z DD 010a01H
	DD	0700aH
xdata	ENDS
;	COMDAT xdata
xdata	SEGMENT
$unwind$??A?$tvec3@_N$0A@@glm@@QEBAAEB_NH@Z DD 020e01H
	DD	0700a320eH
xdata	ENDS
;	COMDAT xdata
xdata	SEGMENT
$unwind$??A?$tvec3@_N$0A@@glm@@QEAAAEA_NH@Z DD 020e01H
	DD	0700a320eH
xdata	ENDS
;	COMDAT xdata
xdata	SEGMENT
$unwind$?length@?$tvec3@_N$0A@@glm@@SAHXZ DD 010201H
	DD	07002H
xdata	ENDS
;	COMDAT xdata
xdata	SEGMENT
$unwind$??$epsilonEqual@M$0A@Utvec3@glm@@@glm@@YA?AU?$tvec3@_N$0A@@0@AEBU?$tvec3@M$0A@@0@00@Z DD 031a01H
	DD	07016a21aH
	DD	06015H
xdata	ENDS
;	COMDAT xdata
xdata	SEGMENT
$unwind$??$log2@M$0A@Utvec3@glm@@@glm@@YA?AU?$tvec3@M$0A@@0@AEBU10@@Z DD 020f01H
	DD	0700b320fH
xdata	ENDS
;	COMDAT xdata
xdata	SEGMENT
$unwind$??$log@M$0A@Utvec3@glm@@@glm@@YA?AU?$tvec3@M$0A@@0@AEBU10@0@Z DD 021401H
	DD	070107214H
xdata	ENDS
;	COMDAT xdata
xdata	SEGMENT
$unwind$??0?$tvec3@M$0A@@glm@@QEAA@MMM@Z DD 011801H
	DD	07018H
xdata	ENDS
;	COMDAT xdata
xdata	SEGMENT
$unwind$??0?$tvec3@M$0A@@glm@@QEAA@M@Z DD 010c01H
	DD	0700cH
xdata	ENDS
;	COMDAT xdata
xdata	SEGMENT
$unwind$??A?$tvec3@M$0A@@glm@@QEBAAEBMH@Z DD 020e01H
	DD	0700a320eH
xdata	ENDS
;	COMDAT xdata
xdata	SEGMENT
$unwind$?length@?$tvec3@M$0A@@glm@@SAHXZ DD 010201H
	DD	07002H
xdata	ENDS
;	COMDAT xdata
xdata	SEGMENT
$unwind$??$all@$0A@Utvec2@glm@@@glm@@YA_NAEBU?$tvec2@_N$0A@@0@@Z DD 020a01H
	DD	07006520aH
xdata	ENDS
;	COMDAT xdata
xdata	SEGMENT
$unwind$??0?$tvec2@_N$0A@@glm@@QEAA@W4ctor@1@@Z DD 010a01H
	DD	0700aH
xdata	ENDS
;	COMDAT xdata
xdata	SEGMENT
$unwind$??A?$tvec2@_N$0A@@glm@@QEBAAEB_NH@Z DD 020e01H
	DD	0700a320eH
xdata	ENDS
;	COMDAT xdata
xdata	SEGMENT
$unwind$??A?$tvec2@_N$0A@@glm@@QEAAAEA_NH@Z DD 020e01H
	DD	0700a320eH
xdata	ENDS
;	COMDAT xdata
xdata	SEGMENT
$unwind$?length@?$tvec2@_N$0A@@glm@@SAHXZ DD 010201H
	DD	07002H
xdata	ENDS
;	COMDAT xdata
xdata	SEGMENT
$unwind$??$epsilonEqual@M$0A@Utvec2@glm@@@glm@@YA?AU?$tvec2@_N$0A@@0@AEBU?$tvec2@M$0A@@0@00@Z DD 021901H
	DD	070157219H
xdata	ENDS
;	COMDAT xdata
xdata	SEGMENT
$unwind$??$log2@M$0A@Utvec2@glm@@@glm@@YA?AU?$tvec2@M$0A@@0@AEBU10@@Z DD 020f01H
	DD	0700b320fH
xdata	ENDS
;	COMDAT xdata
xdata	SEGMENT
$unwind$??$log@M$0A@Utvec2@glm@@@glm@@YA?AU?$tvec2@M$0A@@0@AEBU10@0@Z DD 021401H
	DD	070107214H
xdata	ENDS
;	COMDAT xdata
xdata	SEGMENT
$unwind$??$all@$0A@Utvec1@glm@@@glm@@YA_NAEBU?$tvec1@_N$0A@@0@@Z DD 020a01H
	DD	07006520aH
xdata	ENDS
;	COMDAT xdata
xdata	SEGMENT
$unwind$??0?$tvec1@_N$0A@@glm@@QEAA@W4ctor@1@@Z DD 010a01H
	DD	0700aH
xdata	ENDS
;	COMDAT xdata
xdata	SEGMENT
$unwind$??A?$tvec1@_N$0A@@glm@@QEBAAEB_NH@Z DD 020e01H
	DD	0700a320eH
xdata	ENDS
;	COMDAT xdata
xdata	SEGMENT
$unwind$??A?$tvec1@_N$0A@@glm@@QEAAAEA_NH@Z DD 020e01H
	DD	0700a320eH
xdata	ENDS
;	COMDAT xdata
xdata	SEGMENT
$unwind$?length@?$tvec1@_N$0A@@glm@@SAHXZ DD 010201H
	DD	07002H
xdata	ENDS
;	COMDAT xdata
xdata	SEGMENT
$unwind$??$epsilonEqual@M$0A@Utvec1@glm@@@glm@@YA?AU?$tvec1@_N$0A@@0@AEBU?$tvec1@M$0A@@0@00@Z DD 021901H
	DD	070155219H
xdata	ENDS
;	COMDAT xdata
xdata	SEGMENT
$unwind$??$log2@M$0A@Utvec1@glm@@@glm@@YA?AU?$tvec1@M$0A@@0@AEBU10@@Z DD 020f01H
	DD	0700b320fH
xdata	ENDS
;	COMDAT xdata
xdata	SEGMENT
$unwind$??$log@M$0A@Utvec1@glm@@@glm@@YA?AU?$tvec1@M$0A@@0@AEBU10@0@Z DD 021401H
	DD	070105214H
xdata	ENDS
;	COMDAT xdata
xdata	SEGMENT
$unwind$??0?$tvec1@M$0A@@glm@@QEAA@M@Z DD 010c01H
	DD	0700cH
xdata	ENDS
;	COMDAT xdata
xdata	SEGMENT
$unwind$??A?$tvec1@M$0A@@glm@@QEBAAEBMH@Z DD 020e01H
	DD	0700a320eH
xdata	ENDS
;	COMDAT xdata
xdata	SEGMENT
$unwind$?length@?$tvec1@M$0A@@glm@@SAHXZ DD 010201H
	DD	07002H
xdata	ENDS
;	COMDAT xdata
xdata	SEGMENT
$unwind$??$log2@M@glm@@YAMM@Z DD 020b01H
	DD	07007720bH
xdata	ENDS
;	COMDAT xdata
xdata	SEGMENT
$unwind$??$log@M@glm@@YAMAEBM0@Z DD 020f01H
	DD	0700b720fH
xdata	ENDS
xdata	SEGMENT
$unwind$?run@test_log@@YAHXZ DD 031a01H
	DD	0560109H
	DD	07002H
$unwind$main DD	020601H
	DD	070025206H
xdata	ENDS
CONST	SEGMENT
?run@test_log@@YAHXZ$rtcName$0 DB 041H			; test_log::run
	DB	00H
	ORG $+2
?run@test_log@@YAHXZ$rtcName$1 DB 042H			; test_log::run
	DB	00H
	ORG $+2
?run@test_log@@YAHXZ$rtcName$2 DB 041H			; test_log::run
	DB	00H
	ORG $+2
?run@test_log@@YAHXZ$rtcName$3 DB 042H			; test_log::run
	DB	00H
	ORG $+2
?run@test_log@@YAHXZ$rtcName$4 DB 041H			; test_log::run
	DB	00H
	ORG $+2
?run@test_log@@YAHXZ$rtcName$5 DB 042H			; test_log::run
	DB	00H
	ORG $+2
?run@test_log@@YAHXZ$rtcName$6 DB 041H			; test_log::run
	DB	00H
	ORG $+2
?run@test_log@@YAHXZ$rtcName$7 DB 042H			; test_log::run
	DB	00H
	ORG $+2
?run@test_log@@YAHXZ$rtcName$8 DB 041H			; test_log::run
	DB	00H
	ORG $+2
?run@test_log@@YAHXZ$rtcName$9 DB 042H			; test_log::run
	DB	00H
	ORG $+2
?run@test_log@@YAHXZ$rtcFrameData DD 0aH		; test_log::run
	DD	00H
	DQ	FLAT:?run@test_log@@YAHXZ$rtcVarDesc
	ORG $+8
?run@test_log@@YAHXZ$rtcVarDesc DD 0188H		; test_log::run
	DD	010H
	DQ	FLAT:?run@test_log@@YAHXZ$rtcName$9
	DD	0158H
	DD	010H
	DQ	FLAT:?run@test_log@@YAHXZ$rtcName$8
	DD	0128H
	DD	0cH
	DQ	FLAT:?run@test_log@@YAHXZ$rtcName$7
	DD	0f8H
	DD	0cH
	DQ	FLAT:?run@test_log@@YAHXZ$rtcName$6
	DD	0d8H
	DD	08H
	DQ	FLAT:?run@test_log@@YAHXZ$rtcName$5
	DD	0b8H
	DD	08H
	DQ	FLAT:?run@test_log@@YAHXZ$rtcName$4
	DD	094H
	DD	04H
	DQ	FLAT:?run@test_log@@YAHXZ$rtcName$3
	DD	074H
	DD	04H
	DQ	FLAT:?run@test_log@@YAHXZ$rtcName$2
	DD	054H
	DD	04H
	DQ	FLAT:?run@test_log@@YAHXZ$rtcName$1
	DD	034H
	DD	04H
	DQ	FLAT:?run@test_log@@YAHXZ$rtcName$0
CONST	ENDS
;	COMDAT xdata
xdata	SEGMENT
$unwind$??$abs@M@glm@@YAMM@Z DD 020b01H
	DD	07007520bH
xdata	ENDS
;	COMDAT xdata
xdata	SEGMENT
$unwind$??$epsilonEqual@M@glm@@YA_NAEBM00@Z DD 021401H
	DD	070105214H
xdata	ENDS
;	COMDAT xdata
xdata	SEGMENT
$unwind$??0?$tvec4@M$0A@@glm@@QEAA@MMMM@Z DD 011801H
	DD	07018H
xdata	ENDS
;	COMDAT xdata
xdata	SEGMENT
$unwind$??0?$tvec4@M$0A@@glm@@QEAA@M@Z DD 010c01H
	DD	0700cH
xdata	ENDS
;	COMDAT xdata
xdata	SEGMENT
$unwind$??A?$tvec4@M$0A@@glm@@QEBAAEBMH@Z DD 020e01H
	DD	0700a320eH
xdata	ENDS
;	COMDAT xdata
xdata	SEGMENT
$unwind$?length@?$tvec4@M$0A@@glm@@SAHXZ DD 010201H
	DD	07002H
xdata	ENDS
;	COMDAT xdata
xdata	SEGMENT
$unwind$??0?$tvec2@M$0A@@glm@@QEAA@MM@Z DD 011201H
	DD	07012H
xdata	ENDS
;	COMDAT xdata
xdata	SEGMENT
$unwind$??0?$tvec2@M$0A@@glm@@QEAA@M@Z DD 010c01H
	DD	0700cH
xdata	ENDS
;	COMDAT xdata
xdata	SEGMENT
$unwind$??A?$tvec2@M$0A@@glm@@QEBAAEBMH@Z DD 020e01H
	DD	0700a320eH
xdata	ENDS
;	COMDAT xdata
xdata	SEGMENT
$unwind$?length@?$tvec2@M$0A@@glm@@SAHXZ DD 010201H
	DD	07002H
xdata	ENDS
;	COMDAT xdata
xdata	SEGMENT
$unwind$?log2@@YAMM@Z DD 020b01H
	DD	07007520bH
xdata	ENDS
;	COMDAT xdata
xdata	SEGMENT
$unwind$?log@@YAMM@Z DD 020b01H
	DD	07007520bH
xdata	ENDS
; Function compile flags: /Odtp /RTCsu
; File C:\Users\ksart\OneDrive\Desktop\FlappyBird\libraries\external\glm\glm\detail\type_vec4.inl
;	COMDAT ?call@?$compute_vec4_sub@M$0A@$0A@@detail@glm@@SA?AU?$tvec4@M$0A@@3@AEBU43@0@Z
_TEXT	SEGMENT
tv80 = 48
__$ReturnUdt$ = 80
a$ = 88
b$ = 96
?call@?$compute_vec4_sub@M$0A@$0A@@detail@glm@@SA?AU?$tvec4@M$0A@@3@AEBU43@0@Z PROC ; glm::detail::compute_vec4_sub<float,0,0>::call, COMDAT

; 50   : 		{

$LN3:
	mov	QWORD PTR [rsp+24], r8
	mov	QWORD PTR [rsp+16], rdx
	mov	QWORD PTR [rsp+8], rcx
	push	rdi
	sub	rsp, 64					; 00000040H

; 51   : 			return tvec4<T, P>(a.x - b.x, a.y - b.y, a.z - b.z, a.w - b.w);

	mov	rax, QWORD PTR a$[rsp]
	mov	rcx, QWORD PTR b$[rsp]
	movss	xmm0, DWORD PTR [rax+12]
	subss	xmm0, DWORD PTR [rcx+12]
	mov	rax, QWORD PTR a$[rsp]
	mov	rcx, QWORD PTR b$[rsp]
	movss	xmm1, DWORD PTR [rax+8]
	subss	xmm1, DWORD PTR [rcx+8]
	mov	rax, QWORD PTR a$[rsp]
	mov	rcx, QWORD PTR b$[rsp]
	movss	xmm2, DWORD PTR [rax+4]
	subss	xmm2, DWORD PTR [rcx+4]
	mov	rax, QWORD PTR a$[rsp]
	mov	rcx, QWORD PTR b$[rsp]
	movss	xmm3, DWORD PTR [rax]
	subss	xmm3, DWORD PTR [rcx]
	movss	DWORD PTR tv80[rsp], xmm3
	movss	DWORD PTR [rsp+32], xmm0
	movaps	xmm3, xmm1
	movss	xmm0, DWORD PTR tv80[rsp]
	movaps	xmm1, xmm0
	mov	rcx, QWORD PTR __$ReturnUdt$[rsp]
	call	??0?$tvec4@M$0A@@glm@@QEAA@MMMM@Z	; glm::tvec4<float,0>::tvec4<float,0>
	mov	rax, QWORD PTR __$ReturnUdt$[rsp]

; 52   : 		}

	add	rsp, 64					; 00000040H
	pop	rdi
	ret	0
?call@?$compute_vec4_sub@M$0A@$0A@@detail@glm@@SA?AU?$tvec4@M$0A@@3@AEBU43@0@Z ENDP ; glm::detail::compute_vec4_sub<float,0,0>::call
_TEXT	ENDS
; Function compile flags: /Odtp /RTCsu
; File C:\Users\ksart\OneDrive\Desktop\FlappyBird\libraries\external\glm\glm\detail\type_vec4.inl
;	COMDAT ?call@?$compute_vec4_div@M$0A@$0A@@detail@glm@@SA?AU?$tvec4@M$0A@@3@AEBU43@0@Z
_TEXT	SEGMENT
tv80 = 48
__$ReturnUdt$ = 80
a$ = 88
b$ = 96
?call@?$compute_vec4_div@M$0A@$0A@@detail@glm@@SA?AU?$tvec4@M$0A@@3@AEBU43@0@Z PROC ; glm::detail::compute_vec4_div<float,0,0>::call, COMDAT

; 68   : 		{

$LN3:
	mov	QWORD PTR [rsp+24], r8
	mov	QWORD PTR [rsp+16], rdx
	mov	QWORD PTR [rsp+8], rcx
	push	rdi
	sub	rsp, 64					; 00000040H

; 69   : 			return tvec4<T, P>(a.x / b.x, a.y / b.y, a.z / b.z, a.w / b.w);

	mov	rax, QWORD PTR a$[rsp]
	mov	rcx, QWORD PTR b$[rsp]
	movss	xmm0, DWORD PTR [rax+12]
	divss	xmm0, DWORD PTR [rcx+12]
	mov	rax, QWORD PTR a$[rsp]
	mov	rcx, QWORD PTR b$[rsp]
	movss	xmm1, DWORD PTR [rax+8]
	divss	xmm1, DWORD PTR [rcx+8]
	mov	rax, QWORD PTR a$[rsp]
	mov	rcx, QWORD PTR b$[rsp]
	movss	xmm2, DWORD PTR [rax+4]
	divss	xmm2, DWORD PTR [rcx+4]
	mov	rax, QWORD PTR a$[rsp]
	mov	rcx, QWORD PTR b$[rsp]
	movss	xmm3, DWORD PTR [rax]
	divss	xmm3, DWORD PTR [rcx]
	movss	DWORD PTR tv80[rsp], xmm3
	movss	DWORD PTR [rsp+32], xmm0
	movaps	xmm3, xmm1
	movss	xmm0, DWORD PTR tv80[rsp]
	movaps	xmm1, xmm0
	mov	rcx, QWORD PTR __$ReturnUdt$[rsp]
	call	??0?$tvec4@M$0A@@glm@@QEAA@MMMM@Z	; glm::tvec4<float,0>::tvec4<float,0>
	mov	rax, QWORD PTR __$ReturnUdt$[rsp]

; 70   : 		}

	add	rsp, 64					; 00000040H
	pop	rdi
	ret	0
?call@?$compute_vec4_div@M$0A@$0A@@detail@glm@@SA?AU?$tvec4@M$0A@@3@AEBU43@0@Z ENDP ; glm::detail::compute_vec4_div<float,0,0>::call
_TEXT	ENDS
; Function compile flags: /Odtp /RTCsu
; File C:\Users\ksart\OneDrive\Desktop\FlappyBird\libraries\external\glm\glm\detail\func_common.inl
;	COMDAT ?call@?$compute_abs_vector@M$0A@Utvec4@glm@@$0A@@detail@glm@@SA?AU?$tvec4@M$0A@@3@AEBU43@@Z
_TEXT	SEGMENT
__$ReturnUdt$ = 48
x$ = 56
?call@?$compute_abs_vector@M$0A@Utvec4@glm@@$0A@@detail@glm@@SA?AU?$tvec4@M$0A@@3@AEBU43@@Z PROC ; glm::detail::compute_abs_vector<float,0,glm::tvec4,0>::call, COMDAT

; 114  : 		{

$LN3:
	mov	QWORD PTR [rsp+16], rdx
	mov	QWORD PTR [rsp+8], rcx
	push	rdi
	sub	rsp, 32					; 00000020H

; 115  : 			return detail::functor1<T, T, P, vecType>::call(abs, x);

	mov	r8, QWORD PTR x$[rsp]
	lea	rdx, OFFSET FLAT:??$abs@M@glm@@YAMM@Z	; glm::abs<float>
	mov	rcx, QWORD PTR __$ReturnUdt$[rsp]
	call	?call@?$functor1@MM$0A@Utvec4@glm@@@detail@glm@@SA?AU?$tvec4@M$0A@@3@P6AMM@ZAEBU43@@Z ; glm::detail::functor1<float,float,0,glm::tvec4>::call
	mov	rax, QWORD PTR __$ReturnUdt$[rsp]

; 116  : 		}

	add	rsp, 32					; 00000020H
	pop	rdi
	ret	0
?call@?$compute_abs_vector@M$0A@Utvec4@glm@@$0A@@detail@glm@@SA?AU?$tvec4@M$0A@@3@AEBU43@@Z ENDP ; glm::detail::compute_abs_vector<float,0,glm::tvec4,0>::call
_TEXT	ENDS
; Function compile flags: /Odtp /RTCsu
; File C:\Users\ksart\OneDrive\Desktop\FlappyBird\libraries\external\glm\glm\detail\type_vec4.inl
;	COMDAT ??$?ZM@?$tvec4@M$0A@@glm@@QEAAAEAU01@AEBU01@@Z
_TEXT	SEGMENT
$T1 = 32
$T2 = 48
this$ = 96
v$ = 104
??$?ZM@?$tvec4@M$0A@@glm@@QEAAAEAU01@AEBU01@@Z PROC	; glm::tvec4<float,0>::operator-=<float>, COMDAT

; 404  : 	{

$LN3:
	mov	QWORD PTR [rsp+16], rdx
	mov	QWORD PTR [rsp+8], rcx
	push	rsi
	push	rdi
	sub	rsp, 72					; 00000048H

; 405  : 		return (*this = detail::compute_vec4_sub<T, P, detail::is_aligned<P>::value>::call(*this, tvec4<T, P>(v)));

	lea	rax, QWORD PTR $T1[rsp]
	mov	rdi, rax
	mov	rsi, QWORD PTR v$[rsp]
	mov	ecx, 16
	rep movsb
	lea	r8, QWORD PTR $T1[rsp]
	mov	rdx, QWORD PTR this$[rsp]
	lea	rcx, QWORD PTR $T2[rsp]
	call	?call@?$compute_vec4_sub@M$0A@$0A@@detail@glm@@SA?AU?$tvec4@M$0A@@3@AEBU43@0@Z ; glm::detail::compute_vec4_sub<float,0,0>::call
	mov	rdi, QWORD PTR this$[rsp]
	mov	rsi, rax
	mov	ecx, 16
	rep movsb
	mov	rax, QWORD PTR this$[rsp]

; 406  : 	}

	add	rsp, 72					; 00000048H
	pop	rdi
	pop	rsi
	ret	0
??$?ZM@?$tvec4@M$0A@@glm@@QEAAAEAU01@AEBU01@@Z ENDP	; glm::tvec4<float,0>::operator-=<float>
_TEXT	ENDS
; Function compile flags: /Odtp /RTCsu
; File C:\Users\ksart\OneDrive\Desktop\FlappyBird\libraries\external\glm\glm\detail\type_vec4.inl
;	COMDAT ??$?_0M@?$tvec4@M$0A@@glm@@QEAAAEAU01@AEBU01@@Z
_TEXT	SEGMENT
$T1 = 32
$T2 = 48
this$ = 96
v$ = 104
??$?_0M@?$tvec4@M$0A@@glm@@QEAAAEAU01@AEBU01@@Z PROC	; glm::tvec4<float,0>::operator/=<float>, COMDAT

; 446  : 	{

$LN3:
	mov	QWORD PTR [rsp+16], rdx
	mov	QWORD PTR [rsp+8], rcx
	push	rsi
	push	rdi
	sub	rsp, 72					; 00000048H

; 447  : 		return (*this = detail::compute_vec4_div<T, P, detail::is_aligned<P>::value>::call(*this, tvec4<T, P>(v)));

	lea	rax, QWORD PTR $T1[rsp]
	mov	rdi, rax
	mov	rsi, QWORD PTR v$[rsp]
	mov	ecx, 16
	rep movsb
	lea	r8, QWORD PTR $T1[rsp]
	mov	rdx, QWORD PTR this$[rsp]
	lea	rcx, QWORD PTR $T2[rsp]
	call	?call@?$compute_vec4_div@M$0A@$0A@@detail@glm@@SA?AU?$tvec4@M$0A@@3@AEBU43@0@Z ; glm::detail::compute_vec4_div<float,0,0>::call
	mov	rdi, QWORD PTR this$[rsp]
	mov	rsi, rax
	mov	ecx, 16
	rep movsb
	mov	rax, QWORD PTR this$[rsp]

; 448  : 	}

	add	rsp, 72					; 00000048H
	pop	rdi
	pop	rsi
	ret	0
??$?_0M@?$tvec4@M$0A@@glm@@QEAAAEAU01@AEBU01@@Z ENDP	; glm::tvec4<float,0>::operator/=<float>
_TEXT	ENDS
; Function compile flags: /Odtp /RTCsu
; File C:\Users\ksart\OneDrive\Desktop\FlappyBird\libraries\external\glm\glm\detail\func_common.inl
;	COMDAT ?call@?$compute_abs_vector@M$0A@Utvec3@glm@@$0A@@detail@glm@@SA?AU?$tvec3@M$0A@@3@AEBU43@@Z
_TEXT	SEGMENT
__$ReturnUdt$ = 48
x$ = 56
?call@?$compute_abs_vector@M$0A@Utvec3@glm@@$0A@@detail@glm@@SA?AU?$tvec3@M$0A@@3@AEBU43@@Z PROC ; glm::detail::compute_abs_vector<float,0,glm::tvec3,0>::call, COMDAT

; 114  : 		{

$LN3:
	mov	QWORD PTR [rsp+16], rdx
	mov	QWORD PTR [rsp+8], rcx
	push	rdi
	sub	rsp, 32					; 00000020H

; 115  : 			return detail::functor1<T, T, P, vecType>::call(abs, x);

	mov	r8, QWORD PTR x$[rsp]
	lea	rdx, OFFSET FLAT:??$abs@M@glm@@YAMM@Z	; glm::abs<float>
	mov	rcx, QWORD PTR __$ReturnUdt$[rsp]
	call	?call@?$functor1@MM$0A@Utvec3@glm@@@detail@glm@@SA?AU?$tvec3@M$0A@@3@P6AMM@ZAEBU43@@Z ; glm::detail::functor1<float,float,0,glm::tvec3>::call
	mov	rax, QWORD PTR __$ReturnUdt$[rsp]

; 116  : 		}

	add	rsp, 32					; 00000020H
	pop	rdi
	ret	0
?call@?$compute_abs_vector@M$0A@Utvec3@glm@@$0A@@detail@glm@@SA?AU?$tvec3@M$0A@@3@AEBU43@@Z ENDP ; glm::detail::compute_abs_vector<float,0,glm::tvec3,0>::call
_TEXT	ENDS
; Function compile flags: /Odtp /RTCsu
; File C:\Users\ksart\OneDrive\Desktop\FlappyBird\libraries\external\glm\glm\detail\func_common.inl
;	COMDAT ?call@?$compute_abs_vector@M$0A@Utvec2@glm@@$0A@@detail@glm@@SA?AU?$tvec2@M$0A@@3@AEBU43@@Z
_TEXT	SEGMENT
__$ReturnUdt$ = 48
x$ = 56
?call@?$compute_abs_vector@M$0A@Utvec2@glm@@$0A@@detail@glm@@SA?AU?$tvec2@M$0A@@3@AEBU43@@Z PROC ; glm::detail::compute_abs_vector<float,0,glm::tvec2,0>::call, COMDAT

; 114  : 		{

$LN3:
	mov	QWORD PTR [rsp+16], rdx
	mov	QWORD PTR [rsp+8], rcx
	push	rdi
	sub	rsp, 32					; 00000020H

; 115  : 			return detail::functor1<T, T, P, vecType>::call(abs, x);

	mov	r8, QWORD PTR x$[rsp]
	lea	rdx, OFFSET FLAT:??$abs@M@glm@@YAMM@Z	; glm::abs<float>
	mov	rcx, QWORD PTR __$ReturnUdt$[rsp]
	call	?call@?$functor1@MM$0A@Utvec2@glm@@@detail@glm@@SA?AU?$tvec2@M$0A@@3@P6AMM@ZAEBU43@@Z ; glm::detail::functor1<float,float,0,glm::tvec2>::call
	mov	rax, QWORD PTR __$ReturnUdt$[rsp]

; 116  : 		}

	add	rsp, 32					; 00000020H
	pop	rdi
	ret	0
?call@?$compute_abs_vector@M$0A@Utvec2@glm@@$0A@@detail@glm@@SA?AU?$tvec2@M$0A@@3@AEBU43@@Z ENDP ; glm::detail::compute_abs_vector<float,0,glm::tvec2,0>::call
_TEXT	ENDS
; Function compile flags: /Odtp /RTCsu
; File C:\Users\ksart\OneDrive\Desktop\FlappyBird\libraries\external\glm\glm\detail\func_common.inl
;	COMDAT ?call@?$compute_abs_vector@M$0A@Utvec1@glm@@$0A@@detail@glm@@SA?AU?$tvec1@M$0A@@3@AEBU43@@Z
_TEXT	SEGMENT
__$ReturnUdt$ = 48
x$ = 56
?call@?$compute_abs_vector@M$0A@Utvec1@glm@@$0A@@detail@glm@@SA?AU?$tvec1@M$0A@@3@AEBU43@@Z PROC ; glm::detail::compute_abs_vector<float,0,glm::tvec1,0>::call, COMDAT

; 114  : 		{

$LN3:
	mov	QWORD PTR [rsp+16], rdx
	mov	QWORD PTR [rsp+8], rcx
	push	rdi
	sub	rsp, 32					; 00000020H

; 115  : 			return detail::functor1<T, T, P, vecType>::call(abs, x);

	mov	r8, QWORD PTR x$[rsp]
	lea	rdx, OFFSET FLAT:??$abs@M@glm@@YAMM@Z	; glm::abs<float>
	mov	rcx, QWORD PTR __$ReturnUdt$[rsp]
	call	?call@?$functor1@MM$0A@Utvec1@glm@@@detail@glm@@SA?AU?$tvec1@M$0A@@3@P6AMM@ZAEBU43@@Z ; glm::detail::functor1<float,float,0,glm::tvec1>::call
	mov	rax, QWORD PTR __$ReturnUdt$[rsp]

; 116  : 		}

	add	rsp, 32					; 00000020H
	pop	rdi
	ret	0
?call@?$compute_abs_vector@M$0A@Utvec1@glm@@$0A@@detail@glm@@SA?AU?$tvec1@M$0A@@3@AEBU43@@Z ENDP ; glm::detail::compute_abs_vector<float,0,glm::tvec1,0>::call
_TEXT	ENDS
; Function compile flags: /Odtp /RTCsu
; File C:\Users\ksart\OneDrive\Desktop\FlappyBird\libraries\external\glm\glm\detail\_vectorize.hpp
;	COMDAT ?call@?$functor1@MM$0A@Utvec1@glm@@@detail@glm@@SA?AU?$tvec1@M$0A@@3@P6AMM@ZAEBU43@@Z
_TEXT	SEGMENT
__$ReturnUdt$ = 48
Func$ = 56
v$ = 64
?call@?$functor1@MM$0A@Utvec1@glm@@@detail@glm@@SA?AU?$tvec1@M$0A@@3@P6AMM@ZAEBU43@@Z PROC ; glm::detail::functor1<float,float,0,glm::tvec1>::call, COMDAT

; 21   : 		{

$LN3:
	mov	QWORD PTR [rsp+24], r8
	mov	QWORD PTR [rsp+16], rdx
	mov	QWORD PTR [rsp+8], rcx
	push	rdi
	sub	rsp, 32					; 00000020H

; 22   : 			return tvec1<R, P>(Func(v.x));

	mov	rax, QWORD PTR v$[rsp]
	movss	xmm0, DWORD PTR [rax]
	call	QWORD PTR Func$[rsp]
	movaps	xmm1, xmm0
	mov	rcx, QWORD PTR __$ReturnUdt$[rsp]
	call	??0?$tvec1@M$0A@@glm@@QEAA@M@Z		; glm::tvec1<float,0>::tvec1<float,0>
	mov	rax, QWORD PTR __$ReturnUdt$[rsp]

; 23   : 		}

	add	rsp, 32					; 00000020H
	pop	rdi
	ret	0
?call@?$functor1@MM$0A@Utvec1@glm@@@detail@glm@@SA?AU?$tvec1@M$0A@@3@P6AMM@ZAEBU43@@Z ENDP ; glm::detail::functor1<float,float,0,glm::tvec1>::call
_TEXT	ENDS
; Function compile flags: /Odtp /RTCsu
; File C:\Users\ksart\OneDrive\Desktop\FlappyBird\libraries\external\glm\glm\detail\_vectorize.hpp
;	COMDAT ?call@?$functor1@MM$0A@Utvec2@glm@@@detail@glm@@SA?AU?$tvec2@M$0A@@3@P6AMM@ZAEBU43@@Z
_TEXT	SEGMENT
tv66 = 32
__$ReturnUdt$ = 64
Func$ = 72
v$ = 80
?call@?$functor1@MM$0A@Utvec2@glm@@@detail@glm@@SA?AU?$tvec2@M$0A@@3@P6AMM@ZAEBU43@@Z PROC ; glm::detail::functor1<float,float,0,glm::tvec2>::call, COMDAT

; 30   : 		{

$LN3:
	mov	QWORD PTR [rsp+24], r8
	mov	QWORD PTR [rsp+16], rdx
	mov	QWORD PTR [rsp+8], rcx
	push	rdi
	sub	rsp, 48					; 00000030H

; 31   : 			return tvec2<R, P>(Func(v.x), Func(v.y));

	mov	rax, QWORD PTR v$[rsp]
	movss	xmm0, DWORD PTR [rax+4]
	call	QWORD PTR Func$[rsp]
	movss	DWORD PTR tv66[rsp], xmm0
	mov	rax, QWORD PTR v$[rsp]
	movss	xmm0, DWORD PTR [rax]
	call	QWORD PTR Func$[rsp]
	movss	xmm1, DWORD PTR tv66[rsp]
	movaps	xmm2, xmm1
	movaps	xmm1, xmm0
	mov	rcx, QWORD PTR __$ReturnUdt$[rsp]
	call	??0?$tvec2@M$0A@@glm@@QEAA@MM@Z		; glm::tvec2<float,0>::tvec2<float,0>
	mov	rax, QWORD PTR __$ReturnUdt$[rsp]

; 32   : 		}

	add	rsp, 48					; 00000030H
	pop	rdi
	ret	0
?call@?$functor1@MM$0A@Utvec2@glm@@@detail@glm@@SA?AU?$tvec2@M$0A@@3@P6AMM@ZAEBU43@@Z ENDP ; glm::detail::functor1<float,float,0,glm::tvec2>::call
_TEXT	ENDS
; Function compile flags: /Odtp /RTCsu
; File C:\Users\ksart\OneDrive\Desktop\FlappyBird\libraries\external\glm\glm\detail\_vectorize.hpp
;	COMDAT ?call@?$functor1@MM$0A@Utvec3@glm@@@detail@glm@@SA?AU?$tvec3@M$0A@@3@P6AMM@ZAEBU43@@Z
_TEXT	SEGMENT
tv66 = 32
tv70 = 36
__$ReturnUdt$ = 64
Func$ = 72
v$ = 80
?call@?$functor1@MM$0A@Utvec3@glm@@@detail@glm@@SA?AU?$tvec3@M$0A@@3@P6AMM@ZAEBU43@@Z PROC ; glm::detail::functor1<float,float,0,glm::tvec3>::call, COMDAT

; 39   : 		{

$LN3:
	mov	QWORD PTR [rsp+24], r8
	mov	QWORD PTR [rsp+16], rdx
	mov	QWORD PTR [rsp+8], rcx
	push	rdi
	sub	rsp, 48					; 00000030H

; 40   : 			return tvec3<R, P>(Func(v.x), Func(v.y), Func(v.z));

	mov	rax, QWORD PTR v$[rsp]
	movss	xmm0, DWORD PTR [rax+8]
	call	QWORD PTR Func$[rsp]
	movss	DWORD PTR tv66[rsp], xmm0
	mov	rax, QWORD PTR v$[rsp]
	movss	xmm0, DWORD PTR [rax+4]
	call	QWORD PTR Func$[rsp]
	movss	DWORD PTR tv70[rsp], xmm0
	mov	rax, QWORD PTR v$[rsp]
	movss	xmm0, DWORD PTR [rax]
	call	QWORD PTR Func$[rsp]
	movss	xmm1, DWORD PTR tv66[rsp]
	movaps	xmm3, xmm1
	movss	xmm1, DWORD PTR tv70[rsp]
	movaps	xmm2, xmm1
	movaps	xmm1, xmm0
	mov	rcx, QWORD PTR __$ReturnUdt$[rsp]
	call	??0?$tvec3@M$0A@@glm@@QEAA@MMM@Z	; glm::tvec3<float,0>::tvec3<float,0>
	mov	rax, QWORD PTR __$ReturnUdt$[rsp]

; 41   : 		}

	add	rsp, 48					; 00000030H
	pop	rdi
	ret	0
?call@?$functor1@MM$0A@Utvec3@glm@@@detail@glm@@SA?AU?$tvec3@M$0A@@3@P6AMM@ZAEBU43@@Z ENDP ; glm::detail::functor1<float,float,0,glm::tvec3>::call
_TEXT	ENDS
; Function compile flags: /Odtp /RTCsu
; File C:\Users\ksart\OneDrive\Desktop\FlappyBird\libraries\external\glm\glm\detail\_vectorize.hpp
;	COMDAT ?call@?$functor1@MM$0A@Utvec4@glm@@@detail@glm@@SA?AU?$tvec4@M$0A@@3@P6AMM@ZAEBU43@@Z
_TEXT	SEGMENT
tv66 = 48
tv70 = 52
tv74 = 56
__$ReturnUdt$ = 80
Func$ = 88
v$ = 96
?call@?$functor1@MM$0A@Utvec4@glm@@@detail@glm@@SA?AU?$tvec4@M$0A@@3@P6AMM@ZAEBU43@@Z PROC ; glm::detail::functor1<float,float,0,glm::tvec4>::call, COMDAT

; 48   : 		{

$LN3:
	mov	QWORD PTR [rsp+24], r8
	mov	QWORD PTR [rsp+16], rdx
	mov	QWORD PTR [rsp+8], rcx
	push	rdi
	sub	rsp, 64					; 00000040H

; 49   : 			return tvec4<R, P>(Func(v.x), Func(v.y), Func(v.z), Func(v.w));

	mov	rax, QWORD PTR v$[rsp]
	movss	xmm0, DWORD PTR [rax+12]
	call	QWORD PTR Func$[rsp]
	movss	DWORD PTR tv66[rsp], xmm0
	mov	rax, QWORD PTR v$[rsp]
	movss	xmm0, DWORD PTR [rax+8]
	call	QWORD PTR Func$[rsp]
	movss	DWORD PTR tv70[rsp], xmm0
	mov	rax, QWORD PTR v$[rsp]
	movss	xmm0, DWORD PTR [rax+4]
	call	QWORD PTR Func$[rsp]
	movss	DWORD PTR tv74[rsp], xmm0
	mov	rax, QWORD PTR v$[rsp]
	movss	xmm0, DWORD PTR [rax]
	call	QWORD PTR Func$[rsp]
	movss	xmm1, DWORD PTR tv66[rsp]
	movss	DWORD PTR [rsp+32], xmm1
	movss	xmm1, DWORD PTR tv70[rsp]
	movaps	xmm3, xmm1
	movss	xmm1, DWORD PTR tv74[rsp]
	movaps	xmm2, xmm1
	movaps	xmm1, xmm0
	mov	rcx, QWORD PTR __$ReturnUdt$[rsp]
	call	??0?$tvec4@M$0A@@glm@@QEAA@MMMM@Z	; glm::tvec4<float,0>::tvec4<float,0>
	mov	rax, QWORD PTR __$ReturnUdt$[rsp]

; 50   : 		}

	add	rsp, 64					; 00000040H
	pop	rdi
	ret	0
?call@?$functor1@MM$0A@Utvec4@glm@@@detail@glm@@SA?AU?$tvec4@M$0A@@3@P6AMM@ZAEBU43@@Z ENDP ; glm::detail::functor1<float,float,0,glm::tvec4>::call
_TEXT	ENDS
; Function compile flags: /Odtp /RTCsu
; File C:\Users\ksart\OneDrive\Desktop\FlappyBird\libraries\external\glm\glm\detail\func_vector_relational.inl
;	COMDAT ??$lessThan@M$0A@Utvec4@glm@@@glm@@YA?AU?$tvec4@_N$0A@@0@AEBU?$tvec4@M$0A@@0@0@Z
_TEXT	SEGMENT
Result$ = 36
i$4 = 52
tv64 = 56
tv80 = 64
tv86 = 72
__$ReturnUdt$ = 96
x$ = 104
y$ = 112
??$lessThan@M$0A@Utvec4@glm@@@glm@@YA?AU?$tvec4@_N$0A@@0@AEBU?$tvec4@M$0A@@0@0@Z PROC ; glm::lessThan<float,0,glm::tvec4>, COMDAT

; 10   : 	{

$LN9:
	mov	QWORD PTR [rsp+24], r8
	mov	QWORD PTR [rsp+16], rdx
	mov	QWORD PTR [rsp+8], rcx
	push	rdi
	sub	rsp, 80					; 00000050H
	lea	rdi, QWORD PTR [rsp+32]
	mov	ecx, 12
	mov	eax, -858993460				; ccccccccH
	rep stosd
	mov	rcx, QWORD PTR [rsp+96]

; 11   : 		assert(x.length() == y.length());

	call	?length@?$tvec4@M$0A@@glm@@SAHXZ	; glm::tvec4<float,0>::length
	mov	DWORD PTR tv64[rsp], eax
	call	?length@?$tvec4@M$0A@@glm@@SAHXZ	; glm::tvec4<float,0>::length
	mov	ecx, DWORD PTR tv64[rsp]
	cmp	ecx, eax
	je	SHORT $LN6@lessThan
	mov	r8d, 11
	lea	rdx, OFFSET FLAT:??_C@_1NA@OPABFNEN@?$AAC?$AA?3?$AA?2?$AAU?$AAs?$AAe?$AAr?$AAs?$AA?2?$AAk?$AAs?$AAa?$AAr?$AAt?$AA?2@
	lea	rcx, OFFSET FLAT:??_C@_1DC@HHLCGOLC@?$AAx?$AA?4?$AAl?$AAe?$AAn?$AAg?$AAt?$AAh?$AA?$CI?$AA?$CJ?$AA?5?$AA?$DN?$AA?$DN?$AA?5?$AAy@
	call	QWORD PTR __imp__wassert
	xor	eax, eax
$LN6@lessThan:

; 12   : 
; 13   : 		vecType<bool, P> Result(uninitialize);

	xor	edx, edx
	lea	rcx, QWORD PTR Result$[rsp]
	call	??0?$tvec4@_N$0A@@glm@@QEAA@W4ctor@1@@Z	; glm::tvec4<bool,0>::tvec4<bool,0>

; 14   : 		for(length_t i = 0; i < x.length(); ++i)

	mov	DWORD PTR i$4[rsp], 0
	jmp	SHORT $LN4@lessThan
$LN2@lessThan:
	mov	eax, DWORD PTR i$4[rsp]
	inc	eax
	mov	DWORD PTR i$4[rsp], eax
$LN4@lessThan:
	call	?length@?$tvec4@M$0A@@glm@@SAHXZ	; glm::tvec4<float,0>::length
	cmp	DWORD PTR i$4[rsp], eax
	jge	SHORT $LN3@lessThan

; 15   : 			Result[i] = x[i] < y[i];

	mov	edx, DWORD PTR i$4[rsp]
	mov	rcx, QWORD PTR x$[rsp]
	call	??A?$tvec4@M$0A@@glm@@QEBAAEBMH@Z	; glm::tvec4<float,0>::operator[]
	mov	QWORD PTR tv80[rsp], rax
	mov	edx, DWORD PTR i$4[rsp]
	mov	rcx, QWORD PTR y$[rsp]
	call	??A?$tvec4@M$0A@@glm@@QEBAAEBMH@Z	; glm::tvec4<float,0>::operator[]
	movss	xmm0, DWORD PTR [rax]
	mov	rax, QWORD PTR tv80[rsp]
	comiss	xmm0, DWORD PTR [rax]
	jbe	SHORT $LN7@lessThan
	mov	DWORD PTR tv86[rsp], 1
	jmp	SHORT $LN8@lessThan
$LN7@lessThan:
	mov	DWORD PTR tv86[rsp], 0
$LN8@lessThan:
	mov	edx, DWORD PTR i$4[rsp]
	lea	rcx, QWORD PTR Result$[rsp]
	call	??A?$tvec4@_N$0A@@glm@@QEAAAEA_NH@Z	; glm::tvec4<bool,0>::operator[]
	movzx	ecx, BYTE PTR tv86[rsp]
	mov	BYTE PTR [rax], cl
	jmp	SHORT $LN2@lessThan
$LN3@lessThan:

; 16   : 
; 17   : 		return Result;

	mov	rax, QWORD PTR __$ReturnUdt$[rsp]
	mov	ecx, DWORD PTR Result$[rsp]
	mov	DWORD PTR [rax], ecx
	mov	rax, QWORD PTR __$ReturnUdt$[rsp]

; 18   : 	}

	mov	rdi, rax
	mov	rcx, rsp
	lea	rdx, OFFSET FLAT:??$lessThan@M$0A@Utvec4@glm@@@glm@@YA?AU?$tvec4@_N$0A@@0@AEBU?$tvec4@M$0A@@0@0@Z$rtcFrameData
	call	_RTC_CheckStackVars
	mov	rax, rdi
	add	rsp, 80					; 00000050H
	pop	rdi
	ret	0
??$lessThan@M$0A@Utvec4@glm@@@glm@@YA?AU?$tvec4@_N$0A@@0@AEBU?$tvec4@M$0A@@0@0@Z ENDP ; glm::lessThan<float,0,glm::tvec4>
_TEXT	ENDS
; Function compile flags: /Odtp /RTCsu
; File C:\Users\ksart\OneDrive\Desktop\FlappyBird\libraries\external\glm\glm\detail\func_common.inl
;	COMDAT ??$abs@M$0A@Utvec4@glm@@@glm@@YA?AU?$tvec4@M$0A@@0@AEBU10@@Z
_TEXT	SEGMENT
__$ReturnUdt$ = 48
x$ = 56
??$abs@M$0A@Utvec4@glm@@@glm@@YA?AU?$tvec4@M$0A@@0@AEBU10@@Z PROC ; glm::abs<float,0,glm::tvec4>, COMDAT

; 316  : 	{

$LN3:
	mov	QWORD PTR [rsp+16], rdx
	mov	QWORD PTR [rsp+8], rcx
	push	rdi
	sub	rsp, 32					; 00000020H

; 317  : 		return detail::compute_abs_vector<T, P, vecType, detail::is_aligned<P>::value>::call(x);

	mov	rdx, QWORD PTR x$[rsp]
	mov	rcx, QWORD PTR __$ReturnUdt$[rsp]
	call	?call@?$compute_abs_vector@M$0A@Utvec4@glm@@$0A@@detail@glm@@SA?AU?$tvec4@M$0A@@3@AEBU43@@Z ; glm::detail::compute_abs_vector<float,0,glm::tvec4,0>::call
	mov	rax, QWORD PTR __$ReturnUdt$[rsp]

; 318  : 	}

	add	rsp, 32					; 00000020H
	pop	rdi
	ret	0
??$abs@M$0A@Utvec4@glm@@@glm@@YA?AU?$tvec4@M$0A@@0@AEBU10@@Z ENDP ; glm::abs<float,0,glm::tvec4>
_TEXT	ENDS
; Function compile flags: /Odtp /RTCsu
; File C:\Users\ksart\OneDrive\Desktop\FlappyBird\libraries\external\glm\glm\detail\type_vec4.inl
;	COMDAT ??$?GM$0A@@glm@@YA?AU?$tvec4@M$0A@@0@AEBU10@0@Z
_TEXT	SEGMENT
$T1 = 32
__$ReturnUdt$ = 80
v1$ = 88
v2$ = 96
??$?GM$0A@@glm@@YA?AU?$tvec4@M$0A@@0@AEBU10@0@Z PROC	; glm::operator-<float,0>, COMDAT

; 688  : 	{

$LN3:
	mov	QWORD PTR [rsp+24], r8
	mov	QWORD PTR [rsp+16], rdx
	mov	QWORD PTR [rsp+8], rcx
	push	rsi
	push	rdi
	sub	rsp, 56					; 00000038H

; 689  : 		return tvec4<T, P>(v1) -= v2;

	lea	rax, QWORD PTR $T1[rsp]
	mov	rdi, rax
	mov	rsi, QWORD PTR v1$[rsp]
	mov	ecx, 16
	rep movsb
	mov	rdx, QWORD PTR v2$[rsp]
	lea	rcx, QWORD PTR $T1[rsp]
	call	??$?ZM@?$tvec4@M$0A@@glm@@QEAAAEAU01@AEBU01@@Z ; glm::tvec4<float,0>::operator-=<float>
	mov	rdi, QWORD PTR __$ReturnUdt$[rsp]
	mov	rsi, rax
	mov	ecx, 16
	rep movsb
	mov	rax, QWORD PTR __$ReturnUdt$[rsp]

; 690  : 	}

	add	rsp, 56					; 00000038H
	pop	rdi
	pop	rsi
	ret	0
??$?GM$0A@@glm@@YA?AU?$tvec4@M$0A@@0@AEBU10@0@Z ENDP	; glm::operator-<float,0>
_TEXT	ENDS
; Function compile flags: /Odtp /RTCsu
; File C:\Users\ksart\OneDrive\Desktop\FlappyBird\libraries\external\glm\glm\detail\func_exponential.inl
;	COMDAT ?call@?$compute_log2@M$0A@Utvec4@glm@@$00$0A@@detail@glm@@SA?AU?$tvec4@M$0A@@3@AEBU43@@Z
_TEXT	SEGMENT
__$ReturnUdt$ = 48
vec$ = 56
?call@?$compute_log2@M$0A@Utvec4@glm@@$00$0A@@detail@glm@@SA?AU?$tvec4@M$0A@@3@AEBU43@@Z PROC ; glm::detail::compute_log2<float,0,glm::tvec4,1,0>::call, COMDAT

; 27   : 		{

$LN3:
	mov	QWORD PTR [rsp+16], rdx
	mov	QWORD PTR [rsp+8], rcx
	push	rdi
	sub	rsp, 32					; 00000020H

; 28   : 			return detail::functor1<T, T, P, vecType>::call(log2, vec);

	mov	r8, QWORD PTR vec$[rsp]
	lea	rdx, OFFSET FLAT:?log2@@YAMM@Z		; log2
	mov	rcx, QWORD PTR __$ReturnUdt$[rsp]
	call	?call@?$functor1@MM$0A@Utvec4@glm@@@detail@glm@@SA?AU?$tvec4@M$0A@@3@P6AMM@ZAEBU43@@Z ; glm::detail::functor1<float,float,0,glm::tvec4>::call
	mov	rax, QWORD PTR __$ReturnUdt$[rsp]

; 29   : 		}

	add	rsp, 32					; 00000020H
	pop	rdi
	ret	0
?call@?$compute_log2@M$0A@Utvec4@glm@@$00$0A@@detail@glm@@SA?AU?$tvec4@M$0A@@3@AEBU43@@Z ENDP ; glm::detail::compute_log2<float,0,glm::tvec4,1,0>::call
_TEXT	ENDS
; Function compile flags: /Odtp /RTCsu
; File C:\Users\ksart\OneDrive\Desktop\FlappyBird\libraries\external\glm\glm\detail\type_vec4.inl
;	COMDAT ??$?KM$0A@@glm@@YA?AU?$tvec4@M$0A@@0@AEBU10@0@Z
_TEXT	SEGMENT
$T1 = 32
__$ReturnUdt$ = 80
v1$ = 88
v2$ = 96
??$?KM$0A@@glm@@YA?AU?$tvec4@M$0A@@0@AEBU10@0@Z PROC	; glm::operator/<float,0>, COMDAT

; 748  : 	{

$LN3:
	mov	QWORD PTR [rsp+24], r8
	mov	QWORD PTR [rsp+16], rdx
	mov	QWORD PTR [rsp+8], rcx
	push	rsi
	push	rdi
	sub	rsp, 56					; 00000038H

; 749  : 		return tvec4<T, P>(v1) /= v2;

	lea	rax, QWORD PTR $T1[rsp]
	mov	rdi, rax
	mov	rsi, QWORD PTR v1$[rsp]
	mov	ecx, 16
	rep movsb
	mov	rdx, QWORD PTR v2$[rsp]
	lea	rcx, QWORD PTR $T1[rsp]
	call	??$?_0M@?$tvec4@M$0A@@glm@@QEAAAEAU01@AEBU01@@Z ; glm::tvec4<float,0>::operator/=<float>
	mov	rdi, QWORD PTR __$ReturnUdt$[rsp]
	mov	rsi, rax
	mov	ecx, 16
	rep movsb
	mov	rax, QWORD PTR __$ReturnUdt$[rsp]

; 750  : 	}

	add	rsp, 56					; 00000038H
	pop	rdi
	pop	rsi
	ret	0
??$?KM$0A@@glm@@YA?AU?$tvec4@M$0A@@0@AEBU10@0@Z ENDP	; glm::operator/<float,0>
_TEXT	ENDS
; Function compile flags: /Odtp /RTCsu
; File C:\Users\ksart\OneDrive\Desktop\FlappyBird\libraries\external\glm\glm\detail\func_exponential.inl
;	COMDAT ??$log@M$0A@Utvec4@glm@@@glm@@YA?AU?$tvec4@M$0A@@0@AEBU10@@Z
_TEXT	SEGMENT
__$ReturnUdt$ = 48
x$ = 56
??$log@M$0A@Utvec4@glm@@@glm@@YA?AU?$tvec4@M$0A@@0@AEBU10@@Z PROC ; glm::log<float,0,glm::tvec4>, COMDAT

; 87   : 	{

$LN3:
	mov	QWORD PTR [rsp+16], rdx
	mov	QWORD PTR [rsp+8], rcx
	push	rdi
	sub	rsp, 32					; 00000020H

; 88   : 		return detail::functor1<T, T, P, vecType>::call(log, x);

	mov	r8, QWORD PTR x$[rsp]
	lea	rdx, OFFSET FLAT:?log@@YAMM@Z		; log
	mov	rcx, QWORD PTR __$ReturnUdt$[rsp]
	call	?call@?$functor1@MM$0A@Utvec4@glm@@@detail@glm@@SA?AU?$tvec4@M$0A@@3@P6AMM@ZAEBU43@@Z ; glm::detail::functor1<float,float,0,glm::tvec4>::call
	mov	rax, QWORD PTR __$ReturnUdt$[rsp]

; 89   : 	}

	add	rsp, 32					; 00000020H
	pop	rdi
	ret	0
??$log@M$0A@Utvec4@glm@@@glm@@YA?AU?$tvec4@M$0A@@0@AEBU10@@Z ENDP ; glm::log<float,0,glm::tvec4>
_TEXT	ENDS
; Function compile flags: /Odtp /RTCsu
; File C:\Users\ksart\OneDrive\Desktop\FlappyBird\libraries\external\glm\glm\detail\func_vector_relational.inl
;	COMDAT ??$lessThan@M$0A@Utvec3@glm@@@glm@@YA?AU?$tvec3@_N$0A@@0@AEBU?$tvec3@M$0A@@0@0@Z
_TEXT	SEGMENT
Result$ = 36
i$4 = 52
tv64 = 56
tv80 = 64
tv86 = 72
__$ReturnUdt$ = 112
x$ = 120
y$ = 128
??$lessThan@M$0A@Utvec3@glm@@@glm@@YA?AU?$tvec3@_N$0A@@0@AEBU?$tvec3@M$0A@@0@0@Z PROC ; glm::lessThan<float,0,glm::tvec3>, COMDAT

; 10   : 	{

$LN9:
	mov	QWORD PTR [rsp+24], r8
	mov	QWORD PTR [rsp+16], rdx
	mov	QWORD PTR [rsp+8], rcx
	push	rsi
	push	rdi
	sub	rsp, 88					; 00000058H
	lea	rdi, QWORD PTR [rsp+32]
	mov	ecx, 14
	mov	eax, -858993460				; ccccccccH
	rep stosd
	mov	rcx, QWORD PTR [rsp+112]

; 11   : 		assert(x.length() == y.length());

	call	?length@?$tvec3@M$0A@@glm@@SAHXZ	; glm::tvec3<float,0>::length
	mov	DWORD PTR tv64[rsp], eax
	call	?length@?$tvec3@M$0A@@glm@@SAHXZ	; glm::tvec3<float,0>::length
	mov	ecx, DWORD PTR tv64[rsp]
	cmp	ecx, eax
	je	SHORT $LN6@lessThan
	mov	r8d, 11
	lea	rdx, OFFSET FLAT:??_C@_1NA@OPABFNEN@?$AAC?$AA?3?$AA?2?$AAU?$AAs?$AAe?$AAr?$AAs?$AA?2?$AAk?$AAs?$AAa?$AAr?$AAt?$AA?2@
	lea	rcx, OFFSET FLAT:??_C@_1DC@HHLCGOLC@?$AAx?$AA?4?$AAl?$AAe?$AAn?$AAg?$AAt?$AAh?$AA?$CI?$AA?$CJ?$AA?5?$AA?$DN?$AA?$DN?$AA?5?$AAy@
	call	QWORD PTR __imp__wassert
	xor	eax, eax
$LN6@lessThan:

; 12   : 
; 13   : 		vecType<bool, P> Result(uninitialize);

	xor	edx, edx
	lea	rcx, QWORD PTR Result$[rsp]
	call	??0?$tvec3@_N$0A@@glm@@QEAA@W4ctor@1@@Z	; glm::tvec3<bool,0>::tvec3<bool,0>

; 14   : 		for(length_t i = 0; i < x.length(); ++i)

	mov	DWORD PTR i$4[rsp], 0
	jmp	SHORT $LN4@lessThan
$LN2@lessThan:
	mov	eax, DWORD PTR i$4[rsp]
	inc	eax
	mov	DWORD PTR i$4[rsp], eax
$LN4@lessThan:
	call	?length@?$tvec3@M$0A@@glm@@SAHXZ	; glm::tvec3<float,0>::length
	cmp	DWORD PTR i$4[rsp], eax
	jge	SHORT $LN3@lessThan

; 15   : 			Result[i] = x[i] < y[i];

	mov	edx, DWORD PTR i$4[rsp]
	mov	rcx, QWORD PTR x$[rsp]
	call	??A?$tvec3@M$0A@@glm@@QEBAAEBMH@Z	; glm::tvec3<float,0>::operator[]
	mov	QWORD PTR tv80[rsp], rax
	mov	edx, DWORD PTR i$4[rsp]
	mov	rcx, QWORD PTR y$[rsp]
	call	??A?$tvec3@M$0A@@glm@@QEBAAEBMH@Z	; glm::tvec3<float,0>::operator[]
	movss	xmm0, DWORD PTR [rax]
	mov	rax, QWORD PTR tv80[rsp]
	comiss	xmm0, DWORD PTR [rax]
	jbe	SHORT $LN7@lessThan
	mov	DWORD PTR tv86[rsp], 1
	jmp	SHORT $LN8@lessThan
$LN7@lessThan:
	mov	DWORD PTR tv86[rsp], 0
$LN8@lessThan:
	mov	edx, DWORD PTR i$4[rsp]
	lea	rcx, QWORD PTR Result$[rsp]
	call	??A?$tvec3@_N$0A@@glm@@QEAAAEA_NH@Z	; glm::tvec3<bool,0>::operator[]
	movzx	ecx, BYTE PTR tv86[rsp]
	mov	BYTE PTR [rax], cl
	jmp	SHORT $LN2@lessThan
$LN3@lessThan:

; 16   : 
; 17   : 		return Result;

	lea	rax, QWORD PTR Result$[rsp]
	mov	rdi, QWORD PTR __$ReturnUdt$[rsp]
	mov	rsi, rax
	mov	ecx, 3
	rep movsb
	mov	rax, QWORD PTR __$ReturnUdt$[rsp]

; 18   : 	}

	mov	rdi, rax
	mov	rcx, rsp
	lea	rdx, OFFSET FLAT:??$lessThan@M$0A@Utvec3@glm@@@glm@@YA?AU?$tvec3@_N$0A@@0@AEBU?$tvec3@M$0A@@0@0@Z$rtcFrameData
	call	_RTC_CheckStackVars
	mov	rax, rdi
	add	rsp, 88					; 00000058H
	pop	rdi
	pop	rsi
	ret	0
??$lessThan@M$0A@Utvec3@glm@@@glm@@YA?AU?$tvec3@_N$0A@@0@AEBU?$tvec3@M$0A@@0@0@Z ENDP ; glm::lessThan<float,0,glm::tvec3>
_TEXT	ENDS
; Function compile flags: /Odtp /RTCsu
; File C:\Users\ksart\OneDrive\Desktop\FlappyBird\libraries\external\glm\glm\detail\func_common.inl
;	COMDAT ??$abs@M$0A@Utvec3@glm@@@glm@@YA?AU?$tvec3@M$0A@@0@AEBU10@@Z
_TEXT	SEGMENT
__$ReturnUdt$ = 48
x$ = 56
??$abs@M$0A@Utvec3@glm@@@glm@@YA?AU?$tvec3@M$0A@@0@AEBU10@@Z PROC ; glm::abs<float,0,glm::tvec3>, COMDAT

; 316  : 	{

$LN3:
	mov	QWORD PTR [rsp+16], rdx
	mov	QWORD PTR [rsp+8], rcx
	push	rdi
	sub	rsp, 32					; 00000020H

; 317  : 		return detail::compute_abs_vector<T, P, vecType, detail::is_aligned<P>::value>::call(x);

	mov	rdx, QWORD PTR x$[rsp]
	mov	rcx, QWORD PTR __$ReturnUdt$[rsp]
	call	?call@?$compute_abs_vector@M$0A@Utvec3@glm@@$0A@@detail@glm@@SA?AU?$tvec3@M$0A@@3@AEBU43@@Z ; glm::detail::compute_abs_vector<float,0,glm::tvec3,0>::call
	mov	rax, QWORD PTR __$ReturnUdt$[rsp]

; 318  : 	}

	add	rsp, 32					; 00000020H
	pop	rdi
	ret	0
??$abs@M$0A@Utvec3@glm@@@glm@@YA?AU?$tvec3@M$0A@@0@AEBU10@@Z ENDP ; glm::abs<float,0,glm::tvec3>
_TEXT	ENDS
; Function compile flags: /Odtp /RTCsu
; File C:\Users\ksart\OneDrive\Desktop\FlappyBird\libraries\external\glm\glm\detail\type_vec3.inl
;	COMDAT ??$?GM$0A@@glm@@YA?AU?$tvec3@M$0A@@0@AEBU10@0@Z
_TEXT	SEGMENT
tv76 = 32
__$ReturnUdt$ = 64
v1$ = 72
v2$ = 80
??$?GM$0A@@glm@@YA?AU?$tvec3@M$0A@@0@AEBU10@0@Z PROC	; glm::operator-<float,0>, COMDAT

; 619  : 	{

$LN3:
	mov	QWORD PTR [rsp+24], r8
	mov	QWORD PTR [rsp+16], rdx
	mov	QWORD PTR [rsp+8], rcx
	push	rdi
	sub	rsp, 48					; 00000030H

; 620  : 		return tvec3<T, P>(

	mov	rax, QWORD PTR v1$[rsp]
	mov	rcx, QWORD PTR v2$[rsp]
	movss	xmm0, DWORD PTR [rax+8]
	subss	xmm0, DWORD PTR [rcx+8]
	mov	rax, QWORD PTR v1$[rsp]
	mov	rcx, QWORD PTR v2$[rsp]
	movss	xmm1, DWORD PTR [rax+4]
	subss	xmm1, DWORD PTR [rcx+4]
	mov	rax, QWORD PTR v1$[rsp]
	mov	rcx, QWORD PTR v2$[rsp]
	movss	xmm2, DWORD PTR [rax]
	subss	xmm2, DWORD PTR [rcx]
	movss	DWORD PTR tv76[rsp], xmm2
	movaps	xmm3, xmm0
	movaps	xmm2, xmm1
	movss	xmm0, DWORD PTR tv76[rsp]
	movaps	xmm1, xmm0
	mov	rcx, QWORD PTR __$ReturnUdt$[rsp]
	call	??0?$tvec3@M$0A@@glm@@QEAA@MMM@Z	; glm::tvec3<float,0>::tvec3<float,0>
	mov	rax, QWORD PTR __$ReturnUdt$[rsp]

; 621  : 			v1.x - v2.x,
; 622  : 			v1.y - v2.y,
; 623  : 			v1.z - v2.z);
; 624  : 	}

	add	rsp, 48					; 00000030H
	pop	rdi
	ret	0
??$?GM$0A@@glm@@YA?AU?$tvec3@M$0A@@0@AEBU10@0@Z ENDP	; glm::operator-<float,0>
_TEXT	ENDS
; Function compile flags: /Odtp /RTCsu
; File C:\Users\ksart\OneDrive\Desktop\FlappyBird\libraries\external\glm\glm\detail\func_exponential.inl
;	COMDAT ?call@?$compute_log2@M$0A@Utvec3@glm@@$00$0A@@detail@glm@@SA?AU?$tvec3@M$0A@@3@AEBU43@@Z
_TEXT	SEGMENT
__$ReturnUdt$ = 48
vec$ = 56
?call@?$compute_log2@M$0A@Utvec3@glm@@$00$0A@@detail@glm@@SA?AU?$tvec3@M$0A@@3@AEBU43@@Z PROC ; glm::detail::compute_log2<float,0,glm::tvec3,1,0>::call, COMDAT

; 27   : 		{

$LN3:
	mov	QWORD PTR [rsp+16], rdx
	mov	QWORD PTR [rsp+8], rcx
	push	rdi
	sub	rsp, 32					; 00000020H

; 28   : 			return detail::functor1<T, T, P, vecType>::call(log2, vec);

	mov	r8, QWORD PTR vec$[rsp]
	lea	rdx, OFFSET FLAT:?log2@@YAMM@Z		; log2
	mov	rcx, QWORD PTR __$ReturnUdt$[rsp]
	call	?call@?$functor1@MM$0A@Utvec3@glm@@@detail@glm@@SA?AU?$tvec3@M$0A@@3@P6AMM@ZAEBU43@@Z ; glm::detail::functor1<float,float,0,glm::tvec3>::call
	mov	rax, QWORD PTR __$ReturnUdt$[rsp]

; 29   : 		}

	add	rsp, 32					; 00000020H
	pop	rdi
	ret	0
?call@?$compute_log2@M$0A@Utvec3@glm@@$00$0A@@detail@glm@@SA?AU?$tvec3@M$0A@@3@AEBU43@@Z ENDP ; glm::detail::compute_log2<float,0,glm::tvec3,1,0>::call
_TEXT	ENDS
; Function compile flags: /Odtp /RTCsu
; File C:\Users\ksart\OneDrive\Desktop\FlappyBird\libraries\external\glm\glm\detail\type_vec3.inl
;	COMDAT ??$?KM$0A@@glm@@YA?AU?$tvec3@M$0A@@0@AEBU10@0@Z
_TEXT	SEGMENT
tv76 = 32
__$ReturnUdt$ = 64
v1$ = 72
v2$ = 80
??$?KM$0A@@glm@@YA?AU?$tvec3@M$0A@@0@AEBU10@0@Z PROC	; glm::operator/<float,0>, COMDAT

; 709  : 	{

$LN3:
	mov	QWORD PTR [rsp+24], r8
	mov	QWORD PTR [rsp+16], rdx
	mov	QWORD PTR [rsp+8], rcx
	push	rdi
	sub	rsp, 48					; 00000030H

; 710  : 		return tvec3<T, P>(

	mov	rax, QWORD PTR v1$[rsp]
	mov	rcx, QWORD PTR v2$[rsp]
	movss	xmm0, DWORD PTR [rax+8]
	divss	xmm0, DWORD PTR [rcx+8]
	mov	rax, QWORD PTR v1$[rsp]
	mov	rcx, QWORD PTR v2$[rsp]
	movss	xmm1, DWORD PTR [rax+4]
	divss	xmm1, DWORD PTR [rcx+4]
	mov	rax, QWORD PTR v1$[rsp]
	mov	rcx, QWORD PTR v2$[rsp]
	movss	xmm2, DWORD PTR [rax]
	divss	xmm2, DWORD PTR [rcx]
	movss	DWORD PTR tv76[rsp], xmm2
	movaps	xmm3, xmm0
	movaps	xmm2, xmm1
	movss	xmm0, DWORD PTR tv76[rsp]
	movaps	xmm1, xmm0
	mov	rcx, QWORD PTR __$ReturnUdt$[rsp]
	call	??0?$tvec3@M$0A@@glm@@QEAA@MMM@Z	; glm::tvec3<float,0>::tvec3<float,0>
	mov	rax, QWORD PTR __$ReturnUdt$[rsp]

; 711  : 			v1.x / v2.x,
; 712  : 			v1.y / v2.y,
; 713  : 			v1.z / v2.z);
; 714  : 	}

	add	rsp, 48					; 00000030H
	pop	rdi
	ret	0
??$?KM$0A@@glm@@YA?AU?$tvec3@M$0A@@0@AEBU10@0@Z ENDP	; glm::operator/<float,0>
_TEXT	ENDS
; Function compile flags: /Odtp /RTCsu
; File C:\Users\ksart\OneDrive\Desktop\FlappyBird\libraries\external\glm\glm\detail\func_exponential.inl
;	COMDAT ??$log@M$0A@Utvec3@glm@@@glm@@YA?AU?$tvec3@M$0A@@0@AEBU10@@Z
_TEXT	SEGMENT
__$ReturnUdt$ = 48
x$ = 56
??$log@M$0A@Utvec3@glm@@@glm@@YA?AU?$tvec3@M$0A@@0@AEBU10@@Z PROC ; glm::log<float,0,glm::tvec3>, COMDAT

; 87   : 	{

$LN3:
	mov	QWORD PTR [rsp+16], rdx
	mov	QWORD PTR [rsp+8], rcx
	push	rdi
	sub	rsp, 32					; 00000020H

; 88   : 		return detail::functor1<T, T, P, vecType>::call(log, x);

	mov	r8, QWORD PTR x$[rsp]
	lea	rdx, OFFSET FLAT:?log@@YAMM@Z		; log
	mov	rcx, QWORD PTR __$ReturnUdt$[rsp]
	call	?call@?$functor1@MM$0A@Utvec3@glm@@@detail@glm@@SA?AU?$tvec3@M$0A@@3@P6AMM@ZAEBU43@@Z ; glm::detail::functor1<float,float,0,glm::tvec3>::call
	mov	rax, QWORD PTR __$ReturnUdt$[rsp]

; 89   : 	}

	add	rsp, 32					; 00000020H
	pop	rdi
	ret	0
??$log@M$0A@Utvec3@glm@@@glm@@YA?AU?$tvec3@M$0A@@0@AEBU10@@Z ENDP ; glm::log<float,0,glm::tvec3>
_TEXT	ENDS
; Function compile flags: /Odtp /RTCsu
; File C:\Users\ksart\OneDrive\Desktop\FlappyBird\libraries\external\glm\glm\detail\func_vector_relational.inl
;	COMDAT ??$lessThan@M$0A@Utvec2@glm@@@glm@@YA?AU?$tvec2@_N$0A@@0@AEBU?$tvec2@M$0A@@0@0@Z
_TEXT	SEGMENT
Result$ = 36
i$4 = 52
tv64 = 56
tv80 = 64
tv86 = 72
__$ReturnUdt$ = 96
x$ = 104
y$ = 112
??$lessThan@M$0A@Utvec2@glm@@@glm@@YA?AU?$tvec2@_N$0A@@0@AEBU?$tvec2@M$0A@@0@0@Z PROC ; glm::lessThan<float,0,glm::tvec2>, COMDAT

; 10   : 	{

$LN9:
	mov	QWORD PTR [rsp+24], r8
	mov	QWORD PTR [rsp+16], rdx
	mov	QWORD PTR [rsp+8], rcx
	push	rdi
	sub	rsp, 80					; 00000050H
	lea	rdi, QWORD PTR [rsp+32]
	mov	ecx, 12
	mov	eax, -858993460				; ccccccccH
	rep stosd
	mov	rcx, QWORD PTR [rsp+96]

; 11   : 		assert(x.length() == y.length());

	call	?length@?$tvec2@M$0A@@glm@@SAHXZ	; glm::tvec2<float,0>::length
	mov	DWORD PTR tv64[rsp], eax
	call	?length@?$tvec2@M$0A@@glm@@SAHXZ	; glm::tvec2<float,0>::length
	mov	ecx, DWORD PTR tv64[rsp]
	cmp	ecx, eax
	je	SHORT $LN6@lessThan
	mov	r8d, 11
	lea	rdx, OFFSET FLAT:??_C@_1NA@OPABFNEN@?$AAC?$AA?3?$AA?2?$AAU?$AAs?$AAe?$AAr?$AAs?$AA?2?$AAk?$AAs?$AAa?$AAr?$AAt?$AA?2@
	lea	rcx, OFFSET FLAT:??_C@_1DC@HHLCGOLC@?$AAx?$AA?4?$AAl?$AAe?$AAn?$AAg?$AAt?$AAh?$AA?$CI?$AA?$CJ?$AA?5?$AA?$DN?$AA?$DN?$AA?5?$AAy@
	call	QWORD PTR __imp__wassert
	xor	eax, eax
$LN6@lessThan:

; 12   : 
; 13   : 		vecType<bool, P> Result(uninitialize);

	xor	edx, edx
	lea	rcx, QWORD PTR Result$[rsp]
	call	??0?$tvec2@_N$0A@@glm@@QEAA@W4ctor@1@@Z	; glm::tvec2<bool,0>::tvec2<bool,0>

; 14   : 		for(length_t i = 0; i < x.length(); ++i)

	mov	DWORD PTR i$4[rsp], 0
	jmp	SHORT $LN4@lessThan
$LN2@lessThan:
	mov	eax, DWORD PTR i$4[rsp]
	inc	eax
	mov	DWORD PTR i$4[rsp], eax
$LN4@lessThan:
	call	?length@?$tvec2@M$0A@@glm@@SAHXZ	; glm::tvec2<float,0>::length
	cmp	DWORD PTR i$4[rsp], eax
	jge	SHORT $LN3@lessThan

; 15   : 			Result[i] = x[i] < y[i];

	mov	edx, DWORD PTR i$4[rsp]
	mov	rcx, QWORD PTR x$[rsp]
	call	??A?$tvec2@M$0A@@glm@@QEBAAEBMH@Z	; glm::tvec2<float,0>::operator[]
	mov	QWORD PTR tv80[rsp], rax
	mov	edx, DWORD PTR i$4[rsp]
	mov	rcx, QWORD PTR y$[rsp]
	call	??A?$tvec2@M$0A@@glm@@QEBAAEBMH@Z	; glm::tvec2<float,0>::operator[]
	movss	xmm0, DWORD PTR [rax]
	mov	rax, QWORD PTR tv80[rsp]
	comiss	xmm0, DWORD PTR [rax]
	jbe	SHORT $LN7@lessThan
	mov	DWORD PTR tv86[rsp], 1
	jmp	SHORT $LN8@lessThan
$LN7@lessThan:
	mov	DWORD PTR tv86[rsp], 0
$LN8@lessThan:
	mov	edx, DWORD PTR i$4[rsp]
	lea	rcx, QWORD PTR Result$[rsp]
	call	??A?$tvec2@_N$0A@@glm@@QEAAAEA_NH@Z	; glm::tvec2<bool,0>::operator[]
	movzx	ecx, BYTE PTR tv86[rsp]
	mov	BYTE PTR [rax], cl
	jmp	SHORT $LN2@lessThan
$LN3@lessThan:

; 16   : 
; 17   : 		return Result;

	mov	rax, QWORD PTR __$ReturnUdt$[rsp]
	movzx	ecx, WORD PTR Result$[rsp]
	mov	WORD PTR [rax], cx
	mov	rax, QWORD PTR __$ReturnUdt$[rsp]

; 18   : 	}

	mov	rdi, rax
	mov	rcx, rsp
	lea	rdx, OFFSET FLAT:??$lessThan@M$0A@Utvec2@glm@@@glm@@YA?AU?$tvec2@_N$0A@@0@AEBU?$tvec2@M$0A@@0@0@Z$rtcFrameData
	call	_RTC_CheckStackVars
	mov	rax, rdi
	add	rsp, 80					; 00000050H
	pop	rdi
	ret	0
??$lessThan@M$0A@Utvec2@glm@@@glm@@YA?AU?$tvec2@_N$0A@@0@AEBU?$tvec2@M$0A@@0@0@Z ENDP ; glm::lessThan<float,0,glm::tvec2>
_TEXT	ENDS
; Function compile flags: /Odtp /RTCsu
; File C:\Users\ksart\OneDrive\Desktop\FlappyBird\libraries\external\glm\glm\detail\func_common.inl
;	COMDAT ??$abs@M$0A@Utvec2@glm@@@glm@@YA?AU?$tvec2@M$0A@@0@AEBU10@@Z
_TEXT	SEGMENT
__$ReturnUdt$ = 48
x$ = 56
??$abs@M$0A@Utvec2@glm@@@glm@@YA?AU?$tvec2@M$0A@@0@AEBU10@@Z PROC ; glm::abs<float,0,glm::tvec2>, COMDAT

; 316  : 	{

$LN3:
	mov	QWORD PTR [rsp+16], rdx
	mov	QWORD PTR [rsp+8], rcx
	push	rdi
	sub	rsp, 32					; 00000020H

; 317  : 		return detail::compute_abs_vector<T, P, vecType, detail::is_aligned<P>::value>::call(x);

	mov	rdx, QWORD PTR x$[rsp]
	mov	rcx, QWORD PTR __$ReturnUdt$[rsp]
	call	?call@?$compute_abs_vector@M$0A@Utvec2@glm@@$0A@@detail@glm@@SA?AU?$tvec2@M$0A@@3@AEBU43@@Z ; glm::detail::compute_abs_vector<float,0,glm::tvec2,0>::call
	mov	rax, QWORD PTR __$ReturnUdt$[rsp]

; 318  : 	}

	add	rsp, 32					; 00000020H
	pop	rdi
	ret	0
??$abs@M$0A@Utvec2@glm@@@glm@@YA?AU?$tvec2@M$0A@@0@AEBU10@@Z ENDP ; glm::abs<float,0,glm::tvec2>
_TEXT	ENDS
; Function compile flags: /Odtp /RTCsu
; File C:\Users\ksart\OneDrive\Desktop\FlappyBird\libraries\external\glm\glm\detail\type_vec2.inl
;	COMDAT ??$?GM$0A@@glm@@YA?AU?$tvec2@M$0A@@0@AEBU10@0@Z
_TEXT	SEGMENT
__$ReturnUdt$ = 48
v1$ = 56
v2$ = 64
??$?GM$0A@@glm@@YA?AU?$tvec2@M$0A@@0@AEBU10@0@Z PROC	; glm::operator-<float,0>, COMDAT

; 533  : 	{

$LN3:
	mov	QWORD PTR [rsp+24], r8
	mov	QWORD PTR [rsp+16], rdx
	mov	QWORD PTR [rsp+8], rcx
	push	rdi
	sub	rsp, 32					; 00000020H

; 534  : 		return tvec2<T, P>(

	mov	rax, QWORD PTR v1$[rsp]
	mov	rcx, QWORD PTR v2$[rsp]
	movss	xmm0, DWORD PTR [rax+4]
	subss	xmm0, DWORD PTR [rcx+4]
	mov	rax, QWORD PTR v1$[rsp]
	mov	rcx, QWORD PTR v2$[rsp]
	movss	xmm1, DWORD PTR [rax]
	subss	xmm1, DWORD PTR [rcx]
	movaps	xmm2, xmm0
	mov	rcx, QWORD PTR __$ReturnUdt$[rsp]
	call	??0?$tvec2@M$0A@@glm@@QEAA@MM@Z		; glm::tvec2<float,0>::tvec2<float,0>
	mov	rax, QWORD PTR __$ReturnUdt$[rsp]

; 535  : 			v1.x - v2.x,
; 536  : 			v1.y - v2.y);
; 537  : 	}

	add	rsp, 32					; 00000020H
	pop	rdi
	ret	0
??$?GM$0A@@glm@@YA?AU?$tvec2@M$0A@@0@AEBU10@0@Z ENDP	; glm::operator-<float,0>
_TEXT	ENDS
; Function compile flags: /Odtp /RTCsu
; File C:\Users\ksart\OneDrive\Desktop\FlappyBird\libraries\external\glm\glm\detail\func_exponential.inl
;	COMDAT ?call@?$compute_log2@M$0A@Utvec2@glm@@$00$0A@@detail@glm@@SA?AU?$tvec2@M$0A@@3@AEBU43@@Z
_TEXT	SEGMENT
__$ReturnUdt$ = 48
vec$ = 56
?call@?$compute_log2@M$0A@Utvec2@glm@@$00$0A@@detail@glm@@SA?AU?$tvec2@M$0A@@3@AEBU43@@Z PROC ; glm::detail::compute_log2<float,0,glm::tvec2,1,0>::call, COMDAT

; 27   : 		{

$LN3:
	mov	QWORD PTR [rsp+16], rdx
	mov	QWORD PTR [rsp+8], rcx
	push	rdi
	sub	rsp, 32					; 00000020H

; 28   : 			return detail::functor1<T, T, P, vecType>::call(log2, vec);

	mov	r8, QWORD PTR vec$[rsp]
	lea	rdx, OFFSET FLAT:?log2@@YAMM@Z		; log2
	mov	rcx, QWORD PTR __$ReturnUdt$[rsp]
	call	?call@?$functor1@MM$0A@Utvec2@glm@@@detail@glm@@SA?AU?$tvec2@M$0A@@3@P6AMM@ZAEBU43@@Z ; glm::detail::functor1<float,float,0,glm::tvec2>::call
	mov	rax, QWORD PTR __$ReturnUdt$[rsp]

; 29   : 		}

	add	rsp, 32					; 00000020H
	pop	rdi
	ret	0
?call@?$compute_log2@M$0A@Utvec2@glm@@$00$0A@@detail@glm@@SA?AU?$tvec2@M$0A@@3@AEBU43@@Z ENDP ; glm::detail::compute_log2<float,0,glm::tvec2,1,0>::call
_TEXT	ENDS
; Function compile flags: /Odtp /RTCsu
; File C:\Users\ksart\OneDrive\Desktop\FlappyBird\libraries\external\glm\glm\detail\type_vec2.inl
;	COMDAT ??$?KM$0A@@glm@@YA?AU?$tvec2@M$0A@@0@AEBU10@0@Z
_TEXT	SEGMENT
__$ReturnUdt$ = 48
v1$ = 56
v2$ = 64
??$?KM$0A@@glm@@YA?AU?$tvec2@M$0A@@0@AEBU10@0@Z PROC	; glm::operator/<float,0>, COMDAT

; 613  : 	{

$LN3:
	mov	QWORD PTR [rsp+24], r8
	mov	QWORD PTR [rsp+16], rdx
	mov	QWORD PTR [rsp+8], rcx
	push	rdi
	sub	rsp, 32					; 00000020H

; 614  : 		return tvec2<T, P>(

	mov	rax, QWORD PTR v1$[rsp]
	mov	rcx, QWORD PTR v2$[rsp]
	movss	xmm0, DWORD PTR [rax+4]
	divss	xmm0, DWORD PTR [rcx+4]
	mov	rax, QWORD PTR v1$[rsp]
	mov	rcx, QWORD PTR v2$[rsp]
	movss	xmm1, DWORD PTR [rax]
	divss	xmm1, DWORD PTR [rcx]
	movaps	xmm2, xmm0
	mov	rcx, QWORD PTR __$ReturnUdt$[rsp]
	call	??0?$tvec2@M$0A@@glm@@QEAA@MM@Z		; glm::tvec2<float,0>::tvec2<float,0>
	mov	rax, QWORD PTR __$ReturnUdt$[rsp]

; 615  : 			v1.x / v2.x,
; 616  : 			v1.y / v2.y);
; 617  : 	}

	add	rsp, 32					; 00000020H
	pop	rdi
	ret	0
??$?KM$0A@@glm@@YA?AU?$tvec2@M$0A@@0@AEBU10@0@Z ENDP	; glm::operator/<float,0>
_TEXT	ENDS
; Function compile flags: /Odtp /RTCsu
; File C:\Users\ksart\OneDrive\Desktop\FlappyBird\libraries\external\glm\glm\detail\func_exponential.inl
;	COMDAT ??$log@M$0A@Utvec2@glm@@@glm@@YA?AU?$tvec2@M$0A@@0@AEBU10@@Z
_TEXT	SEGMENT
__$ReturnUdt$ = 48
x$ = 56
??$log@M$0A@Utvec2@glm@@@glm@@YA?AU?$tvec2@M$0A@@0@AEBU10@@Z PROC ; glm::log<float,0,glm::tvec2>, COMDAT

; 87   : 	{

$LN3:
	mov	QWORD PTR [rsp+16], rdx
	mov	QWORD PTR [rsp+8], rcx
	push	rdi
	sub	rsp, 32					; 00000020H

; 88   : 		return detail::functor1<T, T, P, vecType>::call(log, x);

	mov	r8, QWORD PTR x$[rsp]
	lea	rdx, OFFSET FLAT:?log@@YAMM@Z		; log
	mov	rcx, QWORD PTR __$ReturnUdt$[rsp]
	call	?call@?$functor1@MM$0A@Utvec2@glm@@@detail@glm@@SA?AU?$tvec2@M$0A@@3@P6AMM@ZAEBU43@@Z ; glm::detail::functor1<float,float,0,glm::tvec2>::call
	mov	rax, QWORD PTR __$ReturnUdt$[rsp]

; 89   : 	}

	add	rsp, 32					; 00000020H
	pop	rdi
	ret	0
??$log@M$0A@Utvec2@glm@@@glm@@YA?AU?$tvec2@M$0A@@0@AEBU10@@Z ENDP ; glm::log<float,0,glm::tvec2>
_TEXT	ENDS
; Function compile flags: /Odtp /RTCsu
; File C:\Users\ksart\OneDrive\Desktop\FlappyBird\libraries\external\glm\glm\detail\func_vector_relational.inl
;	COMDAT ??$lessThan@M$0A@Utvec1@glm@@@glm@@YA?AU?$tvec1@_N$0A@@0@AEBU?$tvec1@M$0A@@0@0@Z
_TEXT	SEGMENT
Result$ = 36
i$4 = 52
tv64 = 56
tv80 = 64
tv86 = 72
__$ReturnUdt$ = 96
x$ = 104
y$ = 112
??$lessThan@M$0A@Utvec1@glm@@@glm@@YA?AU?$tvec1@_N$0A@@0@AEBU?$tvec1@M$0A@@0@0@Z PROC ; glm::lessThan<float,0,glm::tvec1>, COMDAT

; 10   : 	{

$LN9:
	mov	QWORD PTR [rsp+24], r8
	mov	QWORD PTR [rsp+16], rdx
	mov	QWORD PTR [rsp+8], rcx
	push	rdi
	sub	rsp, 80					; 00000050H
	lea	rdi, QWORD PTR [rsp+32]
	mov	ecx, 12
	mov	eax, -858993460				; ccccccccH
	rep stosd
	mov	rcx, QWORD PTR [rsp+96]

; 11   : 		assert(x.length() == y.length());

	call	?length@?$tvec1@M$0A@@glm@@SAHXZ	; glm::tvec1<float,0>::length
	mov	DWORD PTR tv64[rsp], eax
	call	?length@?$tvec1@M$0A@@glm@@SAHXZ	; glm::tvec1<float,0>::length
	mov	ecx, DWORD PTR tv64[rsp]
	cmp	ecx, eax
	je	SHORT $LN6@lessThan
	mov	r8d, 11
	lea	rdx, OFFSET FLAT:??_C@_1NA@OPABFNEN@?$AAC?$AA?3?$AA?2?$AAU?$AAs?$AAe?$AAr?$AAs?$AA?2?$AAk?$AAs?$AAa?$AAr?$AAt?$AA?2@
	lea	rcx, OFFSET FLAT:??_C@_1DC@HHLCGOLC@?$AAx?$AA?4?$AAl?$AAe?$AAn?$AAg?$AAt?$AAh?$AA?$CI?$AA?$CJ?$AA?5?$AA?$DN?$AA?$DN?$AA?5?$AAy@
	call	QWORD PTR __imp__wassert
	xor	eax, eax
$LN6@lessThan:

; 12   : 
; 13   : 		vecType<bool, P> Result(uninitialize);

	xor	edx, edx
	lea	rcx, QWORD PTR Result$[rsp]
	call	??0?$tvec1@_N$0A@@glm@@QEAA@W4ctor@1@@Z	; glm::tvec1<bool,0>::tvec1<bool,0>

; 14   : 		for(length_t i = 0; i < x.length(); ++i)

	mov	DWORD PTR i$4[rsp], 0
	jmp	SHORT $LN4@lessThan
$LN2@lessThan:
	mov	eax, DWORD PTR i$4[rsp]
	inc	eax
	mov	DWORD PTR i$4[rsp], eax
$LN4@lessThan:
	call	?length@?$tvec1@M$0A@@glm@@SAHXZ	; glm::tvec1<float,0>::length
	cmp	DWORD PTR i$4[rsp], eax
	jge	SHORT $LN3@lessThan

; 15   : 			Result[i] = x[i] < y[i];

	mov	edx, DWORD PTR i$4[rsp]
	mov	rcx, QWORD PTR x$[rsp]
	call	??A?$tvec1@M$0A@@glm@@QEBAAEBMH@Z	; glm::tvec1<float,0>::operator[]
	mov	QWORD PTR tv80[rsp], rax
	mov	edx, DWORD PTR i$4[rsp]
	mov	rcx, QWORD PTR y$[rsp]
	call	??A?$tvec1@M$0A@@glm@@QEBAAEBMH@Z	; glm::tvec1<float,0>::operator[]
	movss	xmm0, DWORD PTR [rax]
	mov	rax, QWORD PTR tv80[rsp]
	comiss	xmm0, DWORD PTR [rax]
	jbe	SHORT $LN7@lessThan
	mov	DWORD PTR tv86[rsp], 1
	jmp	SHORT $LN8@lessThan
$LN7@lessThan:
	mov	DWORD PTR tv86[rsp], 0
$LN8@lessThan:
	mov	edx, DWORD PTR i$4[rsp]
	lea	rcx, QWORD PTR Result$[rsp]
	call	??A?$tvec1@_N$0A@@glm@@QEAAAEA_NH@Z	; glm::tvec1<bool,0>::operator[]
	movzx	ecx, BYTE PTR tv86[rsp]
	mov	BYTE PTR [rax], cl
	jmp	SHORT $LN2@lessThan
$LN3@lessThan:

; 16   : 
; 17   : 		return Result;

	mov	rax, QWORD PTR __$ReturnUdt$[rsp]
	movzx	ecx, BYTE PTR Result$[rsp]
	mov	BYTE PTR [rax], cl
	mov	rax, QWORD PTR __$ReturnUdt$[rsp]

; 18   : 	}

	mov	rdi, rax
	mov	rcx, rsp
	lea	rdx, OFFSET FLAT:??$lessThan@M$0A@Utvec1@glm@@@glm@@YA?AU?$tvec1@_N$0A@@0@AEBU?$tvec1@M$0A@@0@0@Z$rtcFrameData
	call	_RTC_CheckStackVars
	mov	rax, rdi
	add	rsp, 80					; 00000050H
	pop	rdi
	ret	0
??$lessThan@M$0A@Utvec1@glm@@@glm@@YA?AU?$tvec1@_N$0A@@0@AEBU?$tvec1@M$0A@@0@0@Z ENDP ; glm::lessThan<float,0,glm::tvec1>
_TEXT	ENDS
; Function compile flags: /Odtp /RTCsu
; File C:\Users\ksart\OneDrive\Desktop\FlappyBird\libraries\external\glm\glm\detail\func_common.inl
;	COMDAT ??$abs@M$0A@Utvec1@glm@@@glm@@YA?AU?$tvec1@M$0A@@0@AEBU10@@Z
_TEXT	SEGMENT
__$ReturnUdt$ = 48
x$ = 56
??$abs@M$0A@Utvec1@glm@@@glm@@YA?AU?$tvec1@M$0A@@0@AEBU10@@Z PROC ; glm::abs<float,0,glm::tvec1>, COMDAT

; 316  : 	{

$LN3:
	mov	QWORD PTR [rsp+16], rdx
	mov	QWORD PTR [rsp+8], rcx
	push	rdi
	sub	rsp, 32					; 00000020H

; 317  : 		return detail::compute_abs_vector<T, P, vecType, detail::is_aligned<P>::value>::call(x);

	mov	rdx, QWORD PTR x$[rsp]
	mov	rcx, QWORD PTR __$ReturnUdt$[rsp]
	call	?call@?$compute_abs_vector@M$0A@Utvec1@glm@@$0A@@detail@glm@@SA?AU?$tvec1@M$0A@@3@AEBU43@@Z ; glm::detail::compute_abs_vector<float,0,glm::tvec1,0>::call
	mov	rax, QWORD PTR __$ReturnUdt$[rsp]

; 318  : 	}

	add	rsp, 32					; 00000020H
	pop	rdi
	ret	0
??$abs@M$0A@Utvec1@glm@@@glm@@YA?AU?$tvec1@M$0A@@0@AEBU10@@Z ENDP ; glm::abs<float,0,glm::tvec1>
_TEXT	ENDS
; Function compile flags: /Odtp /RTCsu
; File C:\Users\ksart\OneDrive\Desktop\FlappyBird\libraries\external\glm\glm\detail\type_vec1.inl
;	COMDAT ??$?GM$0A@@glm@@YA?AU?$tvec1@M$0A@@0@AEBU10@0@Z
_TEXT	SEGMENT
__$ReturnUdt$ = 48
v1$ = 56
v2$ = 64
??$?GM$0A@@glm@@YA?AU?$tvec1@M$0A@@0@AEBU10@0@Z PROC	; glm::operator-<float,0>, COMDAT

; 351  : 	{

$LN3:
	mov	QWORD PTR [rsp+24], r8
	mov	QWORD PTR [rsp+16], rdx
	mov	QWORD PTR [rsp+8], rcx
	push	rdi
	sub	rsp, 32					; 00000020H

; 352  : 		return tvec1<T, P>(

	mov	rax, QWORD PTR v1$[rsp]
	mov	rcx, QWORD PTR v2$[rsp]
	movss	xmm0, DWORD PTR [rax]
	subss	xmm0, DWORD PTR [rcx]
	movaps	xmm1, xmm0
	mov	rcx, QWORD PTR __$ReturnUdt$[rsp]
	call	??0?$tvec1@M$0A@@glm@@QEAA@M@Z		; glm::tvec1<float,0>::tvec1<float,0>
	mov	rax, QWORD PTR __$ReturnUdt$[rsp]

; 353  : 			v1.x - v2.x);
; 354  : 	}

	add	rsp, 32					; 00000020H
	pop	rdi
	ret	0
??$?GM$0A@@glm@@YA?AU?$tvec1@M$0A@@0@AEBU10@0@Z ENDP	; glm::operator-<float,0>
_TEXT	ENDS
; Function compile flags: /Odtp /RTCsu
; File C:\Users\ksart\OneDrive\Desktop\FlappyBird\libraries\external\glm\glm\detail\func_exponential.inl
;	COMDAT ?call@?$compute_log2@M$0A@Utvec1@glm@@$00$0A@@detail@glm@@SA?AU?$tvec1@M$0A@@3@AEBU43@@Z
_TEXT	SEGMENT
__$ReturnUdt$ = 48
vec$ = 56
?call@?$compute_log2@M$0A@Utvec1@glm@@$00$0A@@detail@glm@@SA?AU?$tvec1@M$0A@@3@AEBU43@@Z PROC ; glm::detail::compute_log2<float,0,glm::tvec1,1,0>::call, COMDAT

; 27   : 		{

$LN3:
	mov	QWORD PTR [rsp+16], rdx
	mov	QWORD PTR [rsp+8], rcx
	push	rdi
	sub	rsp, 32					; 00000020H

; 28   : 			return detail::functor1<T, T, P, vecType>::call(log2, vec);

	mov	r8, QWORD PTR vec$[rsp]
	lea	rdx, OFFSET FLAT:?log2@@YAMM@Z		; log2
	mov	rcx, QWORD PTR __$ReturnUdt$[rsp]
	call	?call@?$functor1@MM$0A@Utvec1@glm@@@detail@glm@@SA?AU?$tvec1@M$0A@@3@P6AMM@ZAEBU43@@Z ; glm::detail::functor1<float,float,0,glm::tvec1>::call
	mov	rax, QWORD PTR __$ReturnUdt$[rsp]

; 29   : 		}

	add	rsp, 32					; 00000020H
	pop	rdi
	ret	0
?call@?$compute_log2@M$0A@Utvec1@glm@@$00$0A@@detail@glm@@SA?AU?$tvec1@M$0A@@3@AEBU43@@Z ENDP ; glm::detail::compute_log2<float,0,glm::tvec1,1,0>::call
_TEXT	ENDS
; Function compile flags: /Odtp /RTCsu
; File C:\Users\ksart\OneDrive\Desktop\FlappyBird\libraries\external\glm\glm\detail\type_vec1.inl
;	COMDAT ??$?KM$0A@@glm@@YA?AU?$tvec1@M$0A@@0@AEBU10@0@Z
_TEXT	SEGMENT
__$ReturnUdt$ = 48
v1$ = 56
v2$ = 64
??$?KM$0A@@glm@@YA?AU?$tvec1@M$0A@@0@AEBU10@0@Z PROC	; glm::operator/<float,0>, COMDAT

; 393  : 	{

$LN3:
	mov	QWORD PTR [rsp+24], r8
	mov	QWORD PTR [rsp+16], rdx
	mov	QWORD PTR [rsp+8], rcx
	push	rdi
	sub	rsp, 32					; 00000020H

; 394  : 		return tvec1<T, P>(

	mov	rax, QWORD PTR v1$[rsp]
	mov	rcx, QWORD PTR v2$[rsp]
	movss	xmm0, DWORD PTR [rax]
	divss	xmm0, DWORD PTR [rcx]
	movaps	xmm1, xmm0
	mov	rcx, QWORD PTR __$ReturnUdt$[rsp]
	call	??0?$tvec1@M$0A@@glm@@QEAA@M@Z		; glm::tvec1<float,0>::tvec1<float,0>
	mov	rax, QWORD PTR __$ReturnUdt$[rsp]

; 395  : 			v1.x / v2.x);
; 396  : 	}

	add	rsp, 32					; 00000020H
	pop	rdi
	ret	0
??$?KM$0A@@glm@@YA?AU?$tvec1@M$0A@@0@AEBU10@0@Z ENDP	; glm::operator/<float,0>
_TEXT	ENDS
; Function compile flags: /Odtp /RTCsu
; File C:\Users\ksart\OneDrive\Desktop\FlappyBird\libraries\external\glm\glm\detail\func_exponential.inl
;	COMDAT ??$log@M$0A@Utvec1@glm@@@glm@@YA?AU?$tvec1@M$0A@@0@AEBU10@@Z
_TEXT	SEGMENT
__$ReturnUdt$ = 48
x$ = 56
??$log@M$0A@Utvec1@glm@@@glm@@YA?AU?$tvec1@M$0A@@0@AEBU10@@Z PROC ; glm::log<float,0,glm::tvec1>, COMDAT

; 87   : 	{

$LN3:
	mov	QWORD PTR [rsp+16], rdx
	mov	QWORD PTR [rsp+8], rcx
	push	rdi
	sub	rsp, 32					; 00000020H

; 88   : 		return detail::functor1<T, T, P, vecType>::call(log, x);

	mov	r8, QWORD PTR x$[rsp]
	lea	rdx, OFFSET FLAT:?log@@YAMM@Z		; log
	mov	rcx, QWORD PTR __$ReturnUdt$[rsp]
	call	?call@?$functor1@MM$0A@Utvec1@glm@@@detail@glm@@SA?AU?$tvec1@M$0A@@3@P6AMM@ZAEBU43@@Z ; glm::detail::functor1<float,float,0,glm::tvec1>::call
	mov	rax, QWORD PTR __$ReturnUdt$[rsp]

; 89   : 	}

	add	rsp, 32					; 00000020H
	pop	rdi
	ret	0
??$log@M$0A@Utvec1@glm@@@glm@@YA?AU?$tvec1@M$0A@@0@AEBU10@@Z ENDP ; glm::log<float,0,glm::tvec1>
_TEXT	ENDS
; Function compile flags: /Odtp /RTCsu
; File C:\Users\ksart\OneDrive\Desktop\FlappyBird\libraries\external\glm\glm\detail\func_common.inl
;	COMDAT ?call@?$compute_abs@M$00@detail@glm@@SAMM@Z
_TEXT	SEGMENT
tv66 = 16
x$ = 48
?call@?$compute_abs@M$00@detail@glm@@SAMM@Z PROC	; glm::detail::compute_abs<float,1>::call, COMDAT

; 77   : 		{

$LN5:
	movss	DWORD PTR [rsp+8], xmm0
	push	rdi
	sub	rsp, 32					; 00000020H

; 78   : 			GLM_STATIC_ASSERT(
; 79   : 				std::numeric_limits<genFIType>::is_iec559 || std::numeric_limits<genFIType>::is_signed || GLM_UNRESTRICTED_GENTYPE,
; 80   : 				"'abs' only accept floating-point and integer scalar or vector inputs");
; 81   : 
; 82   : 			return x >= genFIType(0) ? x : -x;

	movss	xmm0, DWORD PTR x$[rsp]
	comiss	xmm0, DWORD PTR __real@00000000
	jb	SHORT $LN3@call
	movss	xmm0, DWORD PTR x$[rsp]
	movss	DWORD PTR tv66[rsp], xmm0
	jmp	SHORT $LN4@call
$LN3@call:
	movss	xmm0, DWORD PTR x$[rsp]
	xorps	xmm0, DWORD PTR __xmm@80000000800000008000000080000000
	movss	DWORD PTR tv66[rsp], xmm0
$LN4@call:
	movss	xmm0, DWORD PTR tv66[rsp]

; 83   : 			// TODO, perf comp with: *(((int *) &x) + 1) &= 0x7fffffff;
; 84   : 		}

	add	rsp, 32					; 00000020H
	pop	rdi
	ret	0
?call@?$compute_abs@M$00@detail@glm@@SAMM@Z ENDP	; glm::detail::compute_abs<float,1>::call
_TEXT	ENDS
; Function compile flags: /Odtp /RTCsu
; File C:\Users\ksart\OneDrive\Desktop\FlappyBird\libraries\external\glm\test\gtx\gtx_log_base.cpp
_TEXT	SEGMENT
Error$ = 32
main	PROC

; 47   : {

$LN3:
	push	rdi
	sub	rsp, 48					; 00000030H

; 48   : 	int Error(0);

	mov	DWORD PTR Error$[rsp], 0

; 49   : 
; 50   : 	Error += test_log::run();

	call	?run@test_log@@YAHXZ			; test_log::run
	mov	ecx, DWORD PTR Error$[rsp]
	add	ecx, eax
	mov	eax, ecx
	mov	DWORD PTR Error$[rsp], eax

; 51   : 
; 52   : 	return Error;

	mov	eax, DWORD PTR Error$[rsp]

; 53   : }

	add	rsp, 48					; 00000030H
	pop	rdi
	ret	0
main	ENDP
_TEXT	ENDS
; Function compile flags: /Odtp /RTCsu
; File C:\Users\ksart\OneDrive\Desktop\FlappyBird\libraries\external\glm\glm\detail\func_vector_relational.inl
;	COMDAT ??$all@$0A@Utvec4@glm@@@glm@@YA_NAEBU?$tvec4@_N$0A@@0@@Z
_TEXT	SEGMENT
Result$ = 32
i$1 = 36
tv74 = 40
v$ = 64
??$all@$0A@Utvec4@glm@@@glm@@YA_NAEBU?$tvec4@_N$0A@@0@@Z PROC ; glm::all<0,glm::tvec4>, COMDAT

; 86   : 	{

$LN8:
	mov	QWORD PTR [rsp+8], rcx
	push	rdi
	sub	rsp, 48					; 00000030H

; 87   : 		bool Result = true;

	mov	BYTE PTR Result$[rsp], 1

; 88   : 		for(length_t i = 0; i < v.length(); ++i)

	mov	DWORD PTR i$1[rsp], 0
	jmp	SHORT $LN4@all
$LN2@all:
	mov	eax, DWORD PTR i$1[rsp]
	inc	eax
	mov	DWORD PTR i$1[rsp], eax
$LN4@all:
	call	?length@?$tvec4@_N$0A@@glm@@SAHXZ	; glm::tvec4<bool,0>::length
	cmp	DWORD PTR i$1[rsp], eax
	jge	SHORT $LN3@all

; 89   : 			Result = Result && v[i];

	movzx	eax, BYTE PTR Result$[rsp]
	test	eax, eax
	je	SHORT $LN6@all
	mov	edx, DWORD PTR i$1[rsp]
	mov	rcx, QWORD PTR v$[rsp]
	call	??A?$tvec4@_N$0A@@glm@@QEBAAEB_NH@Z	; glm::tvec4<bool,0>::operator[]
	movzx	eax, BYTE PTR [rax]
	test	eax, eax
	je	SHORT $LN6@all
	mov	DWORD PTR tv74[rsp], 1
	jmp	SHORT $LN7@all
$LN6@all:
	mov	DWORD PTR tv74[rsp], 0
$LN7@all:
	movzx	eax, BYTE PTR tv74[rsp]
	mov	BYTE PTR Result$[rsp], al
	jmp	SHORT $LN2@all
$LN3@all:

; 90   : 		return Result;

	movzx	eax, BYTE PTR Result$[rsp]

; 91   : 	}

	add	rsp, 48					; 00000030H
	pop	rdi
	ret	0
??$all@$0A@Utvec4@glm@@@glm@@YA_NAEBU?$tvec4@_N$0A@@0@@Z ENDP ; glm::all<0,glm::tvec4>
_TEXT	ENDS
; Function compile flags: /Odtp /RTCsu
; File C:\Users\ksart\OneDrive\Desktop\FlappyBird\libraries\external\glm\glm\detail\type_vec4.inl
;	COMDAT ??0?$tvec4@_N$0A@@glm@@QEAA@W4ctor@1@@Z
_TEXT	SEGMENT
this$ = 16
__formal$ = 24
??0?$tvec4@_N$0A@@glm@@QEAA@W4ctor@1@@Z PROC		; glm::tvec4<bool,0>::tvec4<bool,0>, COMDAT

; 183  : 	{}

$LN3:
	mov	DWORD PTR [rsp+16], edx
	mov	QWORD PTR [rsp+8], rcx
	push	rdi
	mov	rax, QWORD PTR this$[rsp]
	pop	rdi
	ret	0
??0?$tvec4@_N$0A@@glm@@QEAA@W4ctor@1@@Z ENDP		; glm::tvec4<bool,0>::tvec4<bool,0>
_TEXT	ENDS
; Function compile flags: /Odtp /RTCsu
; File C:\Users\ksart\OneDrive\Desktop\FlappyBird\libraries\external\glm\glm\detail\type_vec4.inl
;	COMDAT ??A?$tvec4@_N$0A@@glm@@QEBAAEB_NH@Z
_TEXT	SEGMENT
this$ = 48
i$ = 56
??A?$tvec4@_N$0A@@glm@@QEBAAEB_NH@Z PROC		; glm::tvec4<bool,0>::operator[], COMDAT

; 336  : 	{

$LN5:
	mov	DWORD PTR [rsp+16], edx
	mov	QWORD PTR [rsp+8], rcx
	push	rdi
	sub	rsp, 32					; 00000020H

; 337  : 		assert(i >= 0 && i < this->length());

	cmp	DWORD PTR i$[rsp], 0
	jl	SHORT $LN3@operator
	call	?length@?$tvec4@_N$0A@@glm@@SAHXZ	; glm::tvec4<bool,0>::length
	cmp	DWORD PTR i$[rsp], eax
	jl	SHORT $LN4@operator
$LN3@operator:
	mov	r8d, 337				; 00000151H
	lea	rdx, OFFSET FLAT:??_C@_1LG@LAANPDHN@?$AAC?$AA?3?$AA?2?$AAU?$AAs?$AAe?$AAr?$AAs?$AA?2?$AAk?$AAs?$AAa?$AAr?$AAt?$AA?2@
	lea	rcx, OFFSET FLAT:??_C@_1DK@BGNCJAPL@?$AAi?$AA?5?$AA?$DO?$AA?$DN?$AA?5?$AA0?$AA?5?$AA?$CG?$AA?$CG?$AA?5?$AAi?$AA?5?$AA?$DM?$AA?5?$AAt@
	call	QWORD PTR __imp__wassert
	xor	eax, eax
$LN4@operator:

; 338  : 		return (&x)[i];

	movsxd	rax, DWORD PTR i$[rsp]
	mov	rcx, QWORD PTR this$[rsp]
	add	rcx, rax
	mov	rax, rcx

; 339  : 	}

	add	rsp, 32					; 00000020H
	pop	rdi
	ret	0
??A?$tvec4@_N$0A@@glm@@QEBAAEB_NH@Z ENDP		; glm::tvec4<bool,0>::operator[]
_TEXT	ENDS
; Function compile flags: /Odtp /RTCsu
; File C:\Users\ksart\OneDrive\Desktop\FlappyBird\libraries\external\glm\glm\detail\type_vec4.inl
;	COMDAT ??A?$tvec4@_N$0A@@glm@@QEAAAEA_NH@Z
_TEXT	SEGMENT
this$ = 48
i$ = 56
??A?$tvec4@_N$0A@@glm@@QEAAAEA_NH@Z PROC		; glm::tvec4<bool,0>::operator[], COMDAT

; 329  : 	{

$LN5:
	mov	DWORD PTR [rsp+16], edx
	mov	QWORD PTR [rsp+8], rcx
	push	rdi
	sub	rsp, 32					; 00000020H

; 330  : 		assert(i >= 0 && i < this->length());

	cmp	DWORD PTR i$[rsp], 0
	jl	SHORT $LN3@operator
	call	?length@?$tvec4@_N$0A@@glm@@SAHXZ	; glm::tvec4<bool,0>::length
	cmp	DWORD PTR i$[rsp], eax
	jl	SHORT $LN4@operator
$LN3@operator:
	mov	r8d, 330				; 0000014aH
	lea	rdx, OFFSET FLAT:??_C@_1LG@LAANPDHN@?$AAC?$AA?3?$AA?2?$AAU?$AAs?$AAe?$AAr?$AAs?$AA?2?$AAk?$AAs?$AAa?$AAr?$AAt?$AA?2@
	lea	rcx, OFFSET FLAT:??_C@_1DK@BGNCJAPL@?$AAi?$AA?5?$AA?$DO?$AA?$DN?$AA?5?$AA0?$AA?5?$AA?$CG?$AA?$CG?$AA?5?$AAi?$AA?5?$AA?$DM?$AA?5?$AAt@
	call	QWORD PTR __imp__wassert
	xor	eax, eax
$LN4@operator:

; 331  : 		return (&x)[i];

	movsxd	rax, DWORD PTR i$[rsp]
	mov	rcx, QWORD PTR this$[rsp]
	add	rcx, rax
	mov	rax, rcx

; 332  : 	}

	add	rsp, 32					; 00000020H
	pop	rdi
	ret	0
??A?$tvec4@_N$0A@@glm@@QEAAAEA_NH@Z ENDP		; glm::tvec4<bool,0>::operator[]
_TEXT	ENDS
; Function compile flags: /Odtp /RTCsu
; File C:\Users\ksart\OneDrive\Desktop\FlappyBird\libraries\external\glm\glm\detail\type_vec4.hpp
;	COMDAT ?length@?$tvec4@_N$0A@@glm@@SAHXZ
_TEXT	SEGMENT
?length@?$tvec4@_N$0A@@glm@@SAHXZ PROC			; glm::tvec4<bool,0>::length, COMDAT

; 85   : 		GLM_FUNC_DECL static length_type length(){return 4;}

$LN3:
	push	rdi
	mov	eax, 4
	pop	rdi
	ret	0
?length@?$tvec4@_N$0A@@glm@@SAHXZ ENDP			; glm::tvec4<bool,0>::length
_TEXT	ENDS
; Function compile flags: /Odtp /RTCsu
; File C:\Users\ksart\OneDrive\Desktop\FlappyBird\libraries\external\glm\glm\gtc\epsilon.inl
;	COMDAT ??$epsilonEqual@M$0A@Utvec4@glm@@@glm@@YA?AU?$tvec4@_N$0A@@0@AEBU?$tvec4@M$0A@@0@00@Z
_TEXT	SEGMENT
$T1 = 32
$T2 = 48
$T3 = 64
__$ReturnUdt$ = 112
x$ = 120
y$ = 128
epsilon$ = 136
??$epsilonEqual@M$0A@Utvec4@glm@@@glm@@YA?AU?$tvec4@_N$0A@@0@AEBU?$tvec4@M$0A@@0@00@Z PROC ; glm::epsilonEqual<float,0,glm::tvec4>, COMDAT

; 76   : 	{

$LN3:
	mov	QWORD PTR [rsp+32], r9
	mov	QWORD PTR [rsp+24], r8
	mov	QWORD PTR [rsp+16], rdx
	mov	QWORD PTR [rsp+8], rcx
	push	rsi
	push	rdi
	sub	rsp, 88					; 00000058H

; 77   : 		return lessThan(abs(x - y), vecType<T, P>(epsilon));

	lea	rax, QWORD PTR $T1[rsp]
	mov	rdi, rax
	mov	rsi, QWORD PTR epsilon$[rsp]
	mov	ecx, 16
	rep movsb
	mov	r8, QWORD PTR y$[rsp]
	mov	rdx, QWORD PTR x$[rsp]
	lea	rcx, QWORD PTR $T2[rsp]
	call	??$?GM$0A@@glm@@YA?AU?$tvec4@M$0A@@0@AEBU10@0@Z ; glm::operator-<float,0>
	mov	rdx, rax
	lea	rcx, QWORD PTR $T3[rsp]
	call	??$abs@M$0A@Utvec4@glm@@@glm@@YA?AU?$tvec4@M$0A@@0@AEBU10@@Z ; glm::abs<float,0,glm::tvec4>
	lea	r8, QWORD PTR $T1[rsp]
	mov	rdx, rax
	mov	rcx, QWORD PTR __$ReturnUdt$[rsp]
	call	??$lessThan@M$0A@Utvec4@glm@@@glm@@YA?AU?$tvec4@_N$0A@@0@AEBU?$tvec4@M$0A@@0@0@Z ; glm::lessThan<float,0,glm::tvec4>
	mov	rax, QWORD PTR __$ReturnUdt$[rsp]

; 78   : 	}

	add	rsp, 88					; 00000058H
	pop	rdi
	pop	rsi
	ret	0
??$epsilonEqual@M$0A@Utvec4@glm@@@glm@@YA?AU?$tvec4@_N$0A@@0@AEBU?$tvec4@M$0A@@0@00@Z ENDP ; glm::epsilonEqual<float,0,glm::tvec4>
_TEXT	ENDS
; Function compile flags: /Odtp /RTCsu
; File C:\Users\ksart\OneDrive\Desktop\FlappyBird\libraries\external\glm\glm\detail\func_exponential.inl
;	COMDAT ??$log2@M$0A@Utvec4@glm@@@glm@@YA?AU?$tvec4@M$0A@@0@AEBU10@@Z
_TEXT	SEGMENT
__$ReturnUdt$ = 48
x$ = 56
??$log2@M$0A@Utvec4@glm@@@glm@@YA?AU?$tvec4@M$0A@@0@AEBU10@@Z PROC ; glm::log2<float,0,glm::tvec4>, COMDAT

; 115  : 	{

$LN3:
	mov	QWORD PTR [rsp+16], rdx
	mov	QWORD PTR [rsp+8], rcx
	push	rdi
	sub	rsp, 32					; 00000020H

; 116  : 		return detail::compute_log2<T, P, vecType, std::numeric_limits<T>::is_iec559, detail::is_aligned<P>::value>::call(x);

	mov	rdx, QWORD PTR x$[rsp]
	mov	rcx, QWORD PTR __$ReturnUdt$[rsp]
	call	?call@?$compute_log2@M$0A@Utvec4@glm@@$00$0A@@detail@glm@@SA?AU?$tvec4@M$0A@@3@AEBU43@@Z ; glm::detail::compute_log2<float,0,glm::tvec4,1,0>::call
	mov	rax, QWORD PTR __$ReturnUdt$[rsp]

; 117  : 	}

	add	rsp, 32					; 00000020H
	pop	rdi
	ret	0
??$log2@M$0A@Utvec4@glm@@@glm@@YA?AU?$tvec4@M$0A@@0@AEBU10@@Z ENDP ; glm::log2<float,0,glm::tvec4>
_TEXT	ENDS
; Function compile flags: /Odtp /RTCsu
; File C:\Users\ksart\OneDrive\Desktop\FlappyBird\libraries\external\glm\glm\gtx\log_base.inl
;	COMDAT ??$log@M$0A@Utvec4@glm@@@glm@@YA?AU?$tvec4@M$0A@@0@AEBU10@0@Z
_TEXT	SEGMENT
$T1 = 32
$T2 = 48
tv65 = 64
__$ReturnUdt$ = 96
x$ = 104
base$ = 112
??$log@M$0A@Utvec4@glm@@@glm@@YA?AU?$tvec4@M$0A@@0@AEBU10@0@Z PROC ; glm::log<float,0,glm::tvec4>, COMDAT

; 15   : 	{

$LN3:
	mov	QWORD PTR [rsp+24], r8
	mov	QWORD PTR [rsp+16], rdx
	mov	QWORD PTR [rsp+8], rcx
	push	rdi
	sub	rsp, 80					; 00000050H

; 16   : 		return glm::log(x) / glm::log(base);

	mov	rdx, QWORD PTR base$[rsp]
	lea	rcx, QWORD PTR $T1[rsp]
	call	??$log@M$0A@Utvec4@glm@@@glm@@YA?AU?$tvec4@M$0A@@0@AEBU10@@Z ; glm::log<float,0,glm::tvec4>
	mov	QWORD PTR tv65[rsp], rax
	mov	rdx, QWORD PTR x$[rsp]
	lea	rcx, QWORD PTR $T2[rsp]
	call	??$log@M$0A@Utvec4@glm@@@glm@@YA?AU?$tvec4@M$0A@@0@AEBU10@@Z ; glm::log<float,0,glm::tvec4>
	mov	rcx, QWORD PTR tv65[rsp]
	mov	r8, rcx
	mov	rdx, rax
	mov	rcx, QWORD PTR __$ReturnUdt$[rsp]
	call	??$?KM$0A@@glm@@YA?AU?$tvec4@M$0A@@0@AEBU10@0@Z ; glm::operator/<float,0>
	mov	rax, QWORD PTR __$ReturnUdt$[rsp]

; 17   : 	}

	add	rsp, 80					; 00000050H
	pop	rdi
	ret	0
??$log@M$0A@Utvec4@glm@@@glm@@YA?AU?$tvec4@M$0A@@0@AEBU10@0@Z ENDP ; glm::log<float,0,glm::tvec4>
_TEXT	ENDS
; Function compile flags: /Odtp /RTCsu
; File C:\Users\ksart\OneDrive\Desktop\FlappyBird\libraries\external\glm\glm\detail\func_vector_relational.inl
;	COMDAT ??$all@$0A@Utvec3@glm@@@glm@@YA_NAEBU?$tvec3@_N$0A@@0@@Z
_TEXT	SEGMENT
Result$ = 32
i$1 = 36
tv74 = 40
v$ = 64
??$all@$0A@Utvec3@glm@@@glm@@YA_NAEBU?$tvec3@_N$0A@@0@@Z PROC ; glm::all<0,glm::tvec3>, COMDAT

; 86   : 	{

$LN8:
	mov	QWORD PTR [rsp+8], rcx
	push	rdi
	sub	rsp, 48					; 00000030H

; 87   : 		bool Result = true;

	mov	BYTE PTR Result$[rsp], 1

; 88   : 		for(length_t i = 0; i < v.length(); ++i)

	mov	DWORD PTR i$1[rsp], 0
	jmp	SHORT $LN4@all
$LN2@all:
	mov	eax, DWORD PTR i$1[rsp]
	inc	eax
	mov	DWORD PTR i$1[rsp], eax
$LN4@all:
	call	?length@?$tvec3@_N$0A@@glm@@SAHXZ	; glm::tvec3<bool,0>::length
	cmp	DWORD PTR i$1[rsp], eax
	jge	SHORT $LN3@all

; 89   : 			Result = Result && v[i];

	movzx	eax, BYTE PTR Result$[rsp]
	test	eax, eax
	je	SHORT $LN6@all
	mov	edx, DWORD PTR i$1[rsp]
	mov	rcx, QWORD PTR v$[rsp]
	call	??A?$tvec3@_N$0A@@glm@@QEBAAEB_NH@Z	; glm::tvec3<bool,0>::operator[]
	movzx	eax, BYTE PTR [rax]
	test	eax, eax
	je	SHORT $LN6@all
	mov	DWORD PTR tv74[rsp], 1
	jmp	SHORT $LN7@all
$LN6@all:
	mov	DWORD PTR tv74[rsp], 0
$LN7@all:
	movzx	eax, BYTE PTR tv74[rsp]
	mov	BYTE PTR Result$[rsp], al
	jmp	SHORT $LN2@all
$LN3@all:

; 90   : 		return Result;

	movzx	eax, BYTE PTR Result$[rsp]

; 91   : 	}

	add	rsp, 48					; 00000030H
	pop	rdi
	ret	0
??$all@$0A@Utvec3@glm@@@glm@@YA_NAEBU?$tvec3@_N$0A@@0@@Z ENDP ; glm::all<0,glm::tvec3>
_TEXT	ENDS
; Function compile flags: /Odtp /RTCsu
; File C:\Users\ksart\OneDrive\Desktop\FlappyBird\libraries\external\glm\glm\detail\type_vec3.inl
;	COMDAT ??0?$tvec3@_N$0A@@glm@@QEAA@W4ctor@1@@Z
_TEXT	SEGMENT
this$ = 16
__formal$ = 24
??0?$tvec3@_N$0A@@glm@@QEAA@W4ctor@1@@Z PROC		; glm::tvec3<bool,0>::tvec3<bool,0>, COMDAT

; 60   : 	{}

$LN3:
	mov	DWORD PTR [rsp+16], edx
	mov	QWORD PTR [rsp+8], rcx
	push	rdi
	mov	rax, QWORD PTR this$[rsp]
	pop	rdi
	ret	0
??0?$tvec3@_N$0A@@glm@@QEAA@W4ctor@1@@Z ENDP		; glm::tvec3<bool,0>::tvec3<bool,0>
_TEXT	ENDS
; Function compile flags: /Odtp /RTCsu
; File C:\Users\ksart\OneDrive\Desktop\FlappyBird\libraries\external\glm\glm\detail\type_vec3.inl
;	COMDAT ??A?$tvec3@_N$0A@@glm@@QEBAAEB_NH@Z
_TEXT	SEGMENT
this$ = 48
i$ = 56
??A?$tvec3@_N$0A@@glm@@QEBAAEB_NH@Z PROC		; glm::tvec3<bool,0>::operator[], COMDAT

; 151  : 	{

$LN5:
	mov	DWORD PTR [rsp+16], edx
	mov	QWORD PTR [rsp+8], rcx
	push	rdi
	sub	rsp, 32					; 00000020H

; 152  : 		assert(i >= 0 && i < this->length());

	cmp	DWORD PTR i$[rsp], 0
	jl	SHORT $LN3@operator
	call	?length@?$tvec3@_N$0A@@glm@@SAHXZ	; glm::tvec3<bool,0>::length
	cmp	DWORD PTR i$[rsp], eax
	jl	SHORT $LN4@operator
$LN3@operator:
	mov	r8d, 152				; 00000098H
	lea	rdx, OFFSET FLAT:??_C@_1LG@MEJFBKPC@?$AAC?$AA?3?$AA?2?$AAU?$AAs?$AAe?$AAr?$AAs?$AA?2?$AAk?$AAs?$AAa?$AAr?$AAt?$AA?2@
	lea	rcx, OFFSET FLAT:??_C@_1DK@BGNCJAPL@?$AAi?$AA?5?$AA?$DO?$AA?$DN?$AA?5?$AA0?$AA?5?$AA?$CG?$AA?$CG?$AA?5?$AAi?$AA?5?$AA?$DM?$AA?5?$AAt@
	call	QWORD PTR __imp__wassert
	xor	eax, eax
$LN4@operator:

; 153  : 		return (&x)[i];

	movsxd	rax, DWORD PTR i$[rsp]
	mov	rcx, QWORD PTR this$[rsp]
	add	rcx, rax
	mov	rax, rcx

; 154  : 	}

	add	rsp, 32					; 00000020H
	pop	rdi
	ret	0
??A?$tvec3@_N$0A@@glm@@QEBAAEB_NH@Z ENDP		; glm::tvec3<bool,0>::operator[]
_TEXT	ENDS
; Function compile flags: /Odtp /RTCsu
; File C:\Users\ksart\OneDrive\Desktop\FlappyBird\libraries\external\glm\glm\detail\type_vec3.inl
;	COMDAT ??A?$tvec3@_N$0A@@glm@@QEAAAEA_NH@Z
_TEXT	SEGMENT
this$ = 48
i$ = 56
??A?$tvec3@_N$0A@@glm@@QEAAAEA_NH@Z PROC		; glm::tvec3<bool,0>::operator[], COMDAT

; 144  : 	{

$LN5:
	mov	DWORD PTR [rsp+16], edx
	mov	QWORD PTR [rsp+8], rcx
	push	rdi
	sub	rsp, 32					; 00000020H

; 145  : 		assert(i >= 0 && i < this->length());

	cmp	DWORD PTR i$[rsp], 0
	jl	SHORT $LN3@operator
	call	?length@?$tvec3@_N$0A@@glm@@SAHXZ	; glm::tvec3<bool,0>::length
	cmp	DWORD PTR i$[rsp], eax
	jl	SHORT $LN4@operator
$LN3@operator:
	mov	r8d, 145				; 00000091H
	lea	rdx, OFFSET FLAT:??_C@_1LG@MEJFBKPC@?$AAC?$AA?3?$AA?2?$AAU?$AAs?$AAe?$AAr?$AAs?$AA?2?$AAk?$AAs?$AAa?$AAr?$AAt?$AA?2@
	lea	rcx, OFFSET FLAT:??_C@_1DK@BGNCJAPL@?$AAi?$AA?5?$AA?$DO?$AA?$DN?$AA?5?$AA0?$AA?5?$AA?$CG?$AA?$CG?$AA?5?$AAi?$AA?5?$AA?$DM?$AA?5?$AAt@
	call	QWORD PTR __imp__wassert
	xor	eax, eax
$LN4@operator:

; 146  : 		return (&x)[i];

	movsxd	rax, DWORD PTR i$[rsp]
	mov	rcx, QWORD PTR this$[rsp]
	add	rcx, rax
	mov	rax, rcx

; 147  : 	}

	add	rsp, 32					; 00000020H
	pop	rdi
	ret	0
??A?$tvec3@_N$0A@@glm@@QEAAAEA_NH@Z ENDP		; glm::tvec3<bool,0>::operator[]
_TEXT	ENDS
; Function compile flags: /Odtp /RTCsu
; File C:\Users\ksart\OneDrive\Desktop\FlappyBird\libraries\external\glm\glm\detail\type_vec3.hpp
;	COMDAT ?length@?$tvec3@_N$0A@@glm@@SAHXZ
_TEXT	SEGMENT
?length@?$tvec3@_N$0A@@glm@@SAHXZ PROC			; glm::tvec3<bool,0>::length, COMDAT

; 82   : 		GLM_FUNC_DECL static length_type length(){return 3;}

$LN3:
	push	rdi
	mov	eax, 3
	pop	rdi
	ret	0
?length@?$tvec3@_N$0A@@glm@@SAHXZ ENDP			; glm::tvec3<bool,0>::length
_TEXT	ENDS
; Function compile flags: /Odtp /RTCsu
; File C:\Users\ksart\OneDrive\Desktop\FlappyBird\libraries\external\glm\glm\gtc\epsilon.inl
;	COMDAT ??$epsilonEqual@M$0A@Utvec3@glm@@@glm@@YA?AU?$tvec3@_N$0A@@0@AEBU?$tvec3@M$0A@@0@00@Z
_TEXT	SEGMENT
$T1 = 32
$T2 = 44
$T3 = 56
__$ReturnUdt$ = 112
x$ = 120
y$ = 128
epsilon$ = 136
??$epsilonEqual@M$0A@Utvec3@glm@@@glm@@YA?AU?$tvec3@_N$0A@@0@AEBU?$tvec3@M$0A@@0@00@Z PROC ; glm::epsilonEqual<float,0,glm::tvec3>, COMDAT

; 76   : 	{

$LN3:
	mov	QWORD PTR [rsp+32], r9
	mov	QWORD PTR [rsp+24], r8
	mov	QWORD PTR [rsp+16], rdx
	mov	QWORD PTR [rsp+8], rcx
	push	rsi
	push	rdi
	sub	rsp, 88					; 00000058H

; 77   : 		return lessThan(abs(x - y), vecType<T, P>(epsilon));

	lea	rax, QWORD PTR $T1[rsp]
	mov	rdi, rax
	mov	rsi, QWORD PTR epsilon$[rsp]
	mov	ecx, 12
	rep movsb
	mov	r8, QWORD PTR y$[rsp]
	mov	rdx, QWORD PTR x$[rsp]
	lea	rcx, QWORD PTR $T2[rsp]
	call	??$?GM$0A@@glm@@YA?AU?$tvec3@M$0A@@0@AEBU10@0@Z ; glm::operator-<float,0>
	mov	rdx, rax
	lea	rcx, QWORD PTR $T3[rsp]
	call	??$abs@M$0A@Utvec3@glm@@@glm@@YA?AU?$tvec3@M$0A@@0@AEBU10@@Z ; glm::abs<float,0,glm::tvec3>
	lea	r8, QWORD PTR $T1[rsp]
	mov	rdx, rax
	mov	rcx, QWORD PTR __$ReturnUdt$[rsp]
	call	??$lessThan@M$0A@Utvec3@glm@@@glm@@YA?AU?$tvec3@_N$0A@@0@AEBU?$tvec3@M$0A@@0@0@Z ; glm::lessThan<float,0,glm::tvec3>
	mov	rax, QWORD PTR __$ReturnUdt$[rsp]

; 78   : 	}

	add	rsp, 88					; 00000058H
	pop	rdi
	pop	rsi
	ret	0
??$epsilonEqual@M$0A@Utvec3@glm@@@glm@@YA?AU?$tvec3@_N$0A@@0@AEBU?$tvec3@M$0A@@0@00@Z ENDP ; glm::epsilonEqual<float,0,glm::tvec3>
_TEXT	ENDS
; Function compile flags: /Odtp /RTCsu
; File C:\Users\ksart\OneDrive\Desktop\FlappyBird\libraries\external\glm\glm\detail\func_exponential.inl
;	COMDAT ??$log2@M$0A@Utvec3@glm@@@glm@@YA?AU?$tvec3@M$0A@@0@AEBU10@@Z
_TEXT	SEGMENT
__$ReturnUdt$ = 48
x$ = 56
??$log2@M$0A@Utvec3@glm@@@glm@@YA?AU?$tvec3@M$0A@@0@AEBU10@@Z PROC ; glm::log2<float,0,glm::tvec3>, COMDAT

; 115  : 	{

$LN3:
	mov	QWORD PTR [rsp+16], rdx
	mov	QWORD PTR [rsp+8], rcx
	push	rdi
	sub	rsp, 32					; 00000020H

; 116  : 		return detail::compute_log2<T, P, vecType, std::numeric_limits<T>::is_iec559, detail::is_aligned<P>::value>::call(x);

	mov	rdx, QWORD PTR x$[rsp]
	mov	rcx, QWORD PTR __$ReturnUdt$[rsp]
	call	?call@?$compute_log2@M$0A@Utvec3@glm@@$00$0A@@detail@glm@@SA?AU?$tvec3@M$0A@@3@AEBU43@@Z ; glm::detail::compute_log2<float,0,glm::tvec3,1,0>::call
	mov	rax, QWORD PTR __$ReturnUdt$[rsp]

; 117  : 	}

	add	rsp, 32					; 00000020H
	pop	rdi
	ret	0
??$log2@M$0A@Utvec3@glm@@@glm@@YA?AU?$tvec3@M$0A@@0@AEBU10@@Z ENDP ; glm::log2<float,0,glm::tvec3>
_TEXT	ENDS
; Function compile flags: /Odtp /RTCsu
; File C:\Users\ksart\OneDrive\Desktop\FlappyBird\libraries\external\glm\glm\gtx\log_base.inl
;	COMDAT ??$log@M$0A@Utvec3@glm@@@glm@@YA?AU?$tvec3@M$0A@@0@AEBU10@0@Z
_TEXT	SEGMENT
$T1 = 32
$T2 = 44
tv65 = 56
__$ReturnUdt$ = 80
x$ = 88
base$ = 96
??$log@M$0A@Utvec3@glm@@@glm@@YA?AU?$tvec3@M$0A@@0@AEBU10@0@Z PROC ; glm::log<float,0,glm::tvec3>, COMDAT

; 15   : 	{

$LN3:
	mov	QWORD PTR [rsp+24], r8
	mov	QWORD PTR [rsp+16], rdx
	mov	QWORD PTR [rsp+8], rcx
	push	rdi
	sub	rsp, 64					; 00000040H

; 16   : 		return glm::log(x) / glm::log(base);

	mov	rdx, QWORD PTR base$[rsp]
	lea	rcx, QWORD PTR $T1[rsp]
	call	??$log@M$0A@Utvec3@glm@@@glm@@YA?AU?$tvec3@M$0A@@0@AEBU10@@Z ; glm::log<float,0,glm::tvec3>
	mov	QWORD PTR tv65[rsp], rax
	mov	rdx, QWORD PTR x$[rsp]
	lea	rcx, QWORD PTR $T2[rsp]
	call	??$log@M$0A@Utvec3@glm@@@glm@@YA?AU?$tvec3@M$0A@@0@AEBU10@@Z ; glm::log<float,0,glm::tvec3>
	mov	rcx, QWORD PTR tv65[rsp]
	mov	r8, rcx
	mov	rdx, rax
	mov	rcx, QWORD PTR __$ReturnUdt$[rsp]
	call	??$?KM$0A@@glm@@YA?AU?$tvec3@M$0A@@0@AEBU10@0@Z ; glm::operator/<float,0>
	mov	rax, QWORD PTR __$ReturnUdt$[rsp]

; 17   : 	}

	add	rsp, 64					; 00000040H
	pop	rdi
	ret	0
??$log@M$0A@Utvec3@glm@@@glm@@YA?AU?$tvec3@M$0A@@0@AEBU10@0@Z ENDP ; glm::log<float,0,glm::tvec3>
_TEXT	ENDS
; Function compile flags: /Odtp /RTCsu
; File C:\Users\ksart\OneDrive\Desktop\FlappyBird\libraries\external\glm\glm\detail\type_vec3.inl
;	COMDAT ??0?$tvec3@M$0A@@glm@@QEAA@MMM@Z
_TEXT	SEGMENT
this$ = 16
a$ = 24
b$ = 32
c$ = 40
??0?$tvec3@M$0A@@glm@@QEAA@MMM@Z PROC			; glm::tvec3<float,0>::tvec3<float,0>, COMDAT

; 70   : 	{}

$LN3:
	movss	DWORD PTR [rsp+32], xmm3
	movss	DWORD PTR [rsp+24], xmm2
	movss	DWORD PTR [rsp+16], xmm1
	mov	QWORD PTR [rsp+8], rcx
	push	rdi

; 69   : 		: x(a), y(b), z(c)

	mov	rax, QWORD PTR this$[rsp]
	movss	xmm0, DWORD PTR a$[rsp]
	movss	DWORD PTR [rax], xmm0
	mov	rax, QWORD PTR this$[rsp]
	movss	xmm0, DWORD PTR b$[rsp]
	movss	DWORD PTR [rax+4], xmm0
	mov	rax, QWORD PTR this$[rsp]
	movss	xmm0, DWORD PTR c$[rsp]
	movss	DWORD PTR [rax+8], xmm0

; 70   : 	{}

	mov	rax, QWORD PTR this$[rsp]
	pop	rdi
	ret	0
??0?$tvec3@M$0A@@glm@@QEAA@MMM@Z ENDP			; glm::tvec3<float,0>::tvec3<float,0>
_TEXT	ENDS
; Function compile flags: /Odtp /RTCsu
; File C:\Users\ksart\OneDrive\Desktop\FlappyBird\libraries\external\glm\glm\detail\type_vec3.inl
;	COMDAT ??0?$tvec3@M$0A@@glm@@QEAA@M@Z
_TEXT	SEGMENT
this$ = 16
scalar$ = 24
??0?$tvec3@M$0A@@glm@@QEAA@M@Z PROC			; glm::tvec3<float,0>::tvec3<float,0>, COMDAT

; 65   : 	{}

$LN3:
	movss	DWORD PTR [rsp+16], xmm1
	mov	QWORD PTR [rsp+8], rcx
	push	rdi

; 64   : 		: x(scalar), y(scalar), z(scalar)

	mov	rax, QWORD PTR this$[rsp]
	movss	xmm0, DWORD PTR scalar$[rsp]
	movss	DWORD PTR [rax], xmm0
	mov	rax, QWORD PTR this$[rsp]
	movss	xmm0, DWORD PTR scalar$[rsp]
	movss	DWORD PTR [rax+4], xmm0
	mov	rax, QWORD PTR this$[rsp]
	movss	xmm0, DWORD PTR scalar$[rsp]
	movss	DWORD PTR [rax+8], xmm0

; 65   : 	{}

	mov	rax, QWORD PTR this$[rsp]
	pop	rdi
	ret	0
??0?$tvec3@M$0A@@glm@@QEAA@M@Z ENDP			; glm::tvec3<float,0>::tvec3<float,0>
_TEXT	ENDS
; Function compile flags: /Odtp /RTCsu
; File C:\Users\ksart\OneDrive\Desktop\FlappyBird\libraries\external\glm\glm\detail\type_vec3.inl
;	COMDAT ??A?$tvec3@M$0A@@glm@@QEBAAEBMH@Z
_TEXT	SEGMENT
this$ = 48
i$ = 56
??A?$tvec3@M$0A@@glm@@QEBAAEBMH@Z PROC			; glm::tvec3<float,0>::operator[], COMDAT

; 151  : 	{

$LN5:
	mov	DWORD PTR [rsp+16], edx
	mov	QWORD PTR [rsp+8], rcx
	push	rdi
	sub	rsp, 32					; 00000020H

; 152  : 		assert(i >= 0 && i < this->length());

	cmp	DWORD PTR i$[rsp], 0
	jl	SHORT $LN3@operator
	call	?length@?$tvec3@M$0A@@glm@@SAHXZ	; glm::tvec3<float,0>::length
	cmp	DWORD PTR i$[rsp], eax
	jl	SHORT $LN4@operator
$LN3@operator:
	mov	r8d, 152				; 00000098H
	lea	rdx, OFFSET FLAT:??_C@_1LG@MEJFBKPC@?$AAC?$AA?3?$AA?2?$AAU?$AAs?$AAe?$AAr?$AAs?$AA?2?$AAk?$AAs?$AAa?$AAr?$AAt?$AA?2@
	lea	rcx, OFFSET FLAT:??_C@_1DK@BGNCJAPL@?$AAi?$AA?5?$AA?$DO?$AA?$DN?$AA?5?$AA0?$AA?5?$AA?$CG?$AA?$CG?$AA?5?$AAi?$AA?5?$AA?$DM?$AA?5?$AAt@
	call	QWORD PTR __imp__wassert
	xor	eax, eax
$LN4@operator:

; 153  : 		return (&x)[i];

	movsxd	rax, DWORD PTR i$[rsp]
	mov	rcx, QWORD PTR this$[rsp]
	lea	rax, QWORD PTR [rcx+rax*4]

; 154  : 	}

	add	rsp, 32					; 00000020H
	pop	rdi
	ret	0
??A?$tvec3@M$0A@@glm@@QEBAAEBMH@Z ENDP			; glm::tvec3<float,0>::operator[]
_TEXT	ENDS
; Function compile flags: /Odtp /RTCsu
; File C:\Users\ksart\OneDrive\Desktop\FlappyBird\libraries\external\glm\glm\detail\type_vec3.hpp
;	COMDAT ?length@?$tvec3@M$0A@@glm@@SAHXZ
_TEXT	SEGMENT
?length@?$tvec3@M$0A@@glm@@SAHXZ PROC			; glm::tvec3<float,0>::length, COMDAT

; 82   : 		GLM_FUNC_DECL static length_type length(){return 3;}

$LN3:
	push	rdi
	mov	eax, 3
	pop	rdi
	ret	0
?length@?$tvec3@M$0A@@glm@@SAHXZ ENDP			; glm::tvec3<float,0>::length
_TEXT	ENDS
; Function compile flags: /Odtp /RTCsu
; File C:\Users\ksart\OneDrive\Desktop\FlappyBird\libraries\external\glm\glm\detail\func_vector_relational.inl
;	COMDAT ??$all@$0A@Utvec2@glm@@@glm@@YA_NAEBU?$tvec2@_N$0A@@0@@Z
_TEXT	SEGMENT
Result$ = 32
i$1 = 36
tv74 = 40
v$ = 64
??$all@$0A@Utvec2@glm@@@glm@@YA_NAEBU?$tvec2@_N$0A@@0@@Z PROC ; glm::all<0,glm::tvec2>, COMDAT

; 86   : 	{

$LN8:
	mov	QWORD PTR [rsp+8], rcx
	push	rdi
	sub	rsp, 48					; 00000030H

; 87   : 		bool Result = true;

	mov	BYTE PTR Result$[rsp], 1

; 88   : 		for(length_t i = 0; i < v.length(); ++i)

	mov	DWORD PTR i$1[rsp], 0
	jmp	SHORT $LN4@all
$LN2@all:
	mov	eax, DWORD PTR i$1[rsp]
	inc	eax
	mov	DWORD PTR i$1[rsp], eax
$LN4@all:
	call	?length@?$tvec2@_N$0A@@glm@@SAHXZ	; glm::tvec2<bool,0>::length
	cmp	DWORD PTR i$1[rsp], eax
	jge	SHORT $LN3@all

; 89   : 			Result = Result && v[i];

	movzx	eax, BYTE PTR Result$[rsp]
	test	eax, eax
	je	SHORT $LN6@all
	mov	edx, DWORD PTR i$1[rsp]
	mov	rcx, QWORD PTR v$[rsp]
	call	??A?$tvec2@_N$0A@@glm@@QEBAAEB_NH@Z	; glm::tvec2<bool,0>::operator[]
	movzx	eax, BYTE PTR [rax]
	test	eax, eax
	je	SHORT $LN6@all
	mov	DWORD PTR tv74[rsp], 1
	jmp	SHORT $LN7@all
$LN6@all:
	mov	DWORD PTR tv74[rsp], 0
$LN7@all:
	movzx	eax, BYTE PTR tv74[rsp]
	mov	BYTE PTR Result$[rsp], al
	jmp	SHORT $LN2@all
$LN3@all:

; 90   : 		return Result;

	movzx	eax, BYTE PTR Result$[rsp]

; 91   : 	}

	add	rsp, 48					; 00000030H
	pop	rdi
	ret	0
??$all@$0A@Utvec2@glm@@@glm@@YA_NAEBU?$tvec2@_N$0A@@0@@Z ENDP ; glm::all<0,glm::tvec2>
_TEXT	ENDS
; Function compile flags: /Odtp /RTCsu
; File C:\Users\ksart\OneDrive\Desktop\FlappyBird\libraries\external\glm\glm\detail\type_vec2.inl
;	COMDAT ??0?$tvec2@_N$0A@@glm@@QEAA@W4ctor@1@@Z
_TEXT	SEGMENT
this$ = 16
__formal$ = 24
??0?$tvec2@_N$0A@@glm@@QEAA@W4ctor@1@@Z PROC		; glm::tvec2<bool,0>::tvec2<bool,0>, COMDAT

; 47   : 	{}

$LN3:
	mov	DWORD PTR [rsp+16], edx
	mov	QWORD PTR [rsp+8], rcx
	push	rdi
	mov	rax, QWORD PTR this$[rsp]
	pop	rdi
	ret	0
??0?$tvec2@_N$0A@@glm@@QEAA@W4ctor@1@@Z ENDP		; glm::tvec2<bool,0>::tvec2<bool,0>
_TEXT	ENDS
; Function compile flags: /Odtp /RTCsu
; File C:\Users\ksart\OneDrive\Desktop\FlappyBird\libraries\external\glm\glm\detail\type_vec2.inl
;	COMDAT ??A?$tvec2@_N$0A@@glm@@QEBAAEB_NH@Z
_TEXT	SEGMENT
this$ = 48
i$ = 56
??A?$tvec2@_N$0A@@glm@@QEBAAEB_NH@Z PROC		; glm::tvec2<bool,0>::operator[], COMDAT

; 109  : 	{

$LN5:
	mov	DWORD PTR [rsp+16], edx
	mov	QWORD PTR [rsp+8], rcx
	push	rdi
	sub	rsp, 32					; 00000020H

; 110  : 		assert(i >= 0 && i < this->length());

	cmp	DWORD PTR i$[rsp], 0
	jl	SHORT $LN3@operator
	call	?length@?$tvec2@_N$0A@@glm@@SAHXZ	; glm::tvec2<bool,0>::length
	cmp	DWORD PTR i$[rsp], eax
	jl	SHORT $LN4@operator
$LN3@operator:
	mov	r8d, 110				; 0000006eH
	lea	rdx, OFFSET FLAT:??_C@_1LG@FPDAFGJN@?$AAC?$AA?3?$AA?2?$AAU?$AAs?$AAe?$AAr?$AAs?$AA?2?$AAk?$AAs?$AAa?$AAr?$AAt?$AA?2@
	lea	rcx, OFFSET FLAT:??_C@_1DK@BGNCJAPL@?$AAi?$AA?5?$AA?$DO?$AA?$DN?$AA?5?$AA0?$AA?5?$AA?$CG?$AA?$CG?$AA?5?$AAi?$AA?5?$AA?$DM?$AA?5?$AAt@
	call	QWORD PTR __imp__wassert
	xor	eax, eax
$LN4@operator:

; 111  : 		return (&x)[i];

	movsxd	rax, DWORD PTR i$[rsp]
	mov	rcx, QWORD PTR this$[rsp]
	add	rcx, rax
	mov	rax, rcx

; 112  : 	}

	add	rsp, 32					; 00000020H
	pop	rdi
	ret	0
??A?$tvec2@_N$0A@@glm@@QEBAAEB_NH@Z ENDP		; glm::tvec2<bool,0>::operator[]
_TEXT	ENDS
; Function compile flags: /Odtp /RTCsu
; File C:\Users\ksart\OneDrive\Desktop\FlappyBird\libraries\external\glm\glm\detail\type_vec2.inl
;	COMDAT ??A?$tvec2@_N$0A@@glm@@QEAAAEA_NH@Z
_TEXT	SEGMENT
this$ = 48
i$ = 56
??A?$tvec2@_N$0A@@glm@@QEAAAEA_NH@Z PROC		; glm::tvec2<bool,0>::operator[], COMDAT

; 102  : 	{

$LN5:
	mov	DWORD PTR [rsp+16], edx
	mov	QWORD PTR [rsp+8], rcx
	push	rdi
	sub	rsp, 32					; 00000020H

; 103  : 		assert(i >= 0 && i < this->length());

	cmp	DWORD PTR i$[rsp], 0
	jl	SHORT $LN3@operator
	call	?length@?$tvec2@_N$0A@@glm@@SAHXZ	; glm::tvec2<bool,0>::length
	cmp	DWORD PTR i$[rsp], eax
	jl	SHORT $LN4@operator
$LN3@operator:
	mov	r8d, 103				; 00000067H
	lea	rdx, OFFSET FLAT:??_C@_1LG@FPDAFGJN@?$AAC?$AA?3?$AA?2?$AAU?$AAs?$AAe?$AAr?$AAs?$AA?2?$AAk?$AAs?$AAa?$AAr?$AAt?$AA?2@
	lea	rcx, OFFSET FLAT:??_C@_1DK@BGNCJAPL@?$AAi?$AA?5?$AA?$DO?$AA?$DN?$AA?5?$AA0?$AA?5?$AA?$CG?$AA?$CG?$AA?5?$AAi?$AA?5?$AA?$DM?$AA?5?$AAt@
	call	QWORD PTR __imp__wassert
	xor	eax, eax
$LN4@operator:

; 104  : 		return (&x)[i];

	movsxd	rax, DWORD PTR i$[rsp]
	mov	rcx, QWORD PTR this$[rsp]
	add	rcx, rax
	mov	rax, rcx

; 105  : 	}

	add	rsp, 32					; 00000020H
	pop	rdi
	ret	0
??A?$tvec2@_N$0A@@glm@@QEAAAEA_NH@Z ENDP		; glm::tvec2<bool,0>::operator[]
_TEXT	ENDS
; Function compile flags: /Odtp /RTCsu
; File C:\Users\ksart\OneDrive\Desktop\FlappyBird\libraries\external\glm\glm\detail\type_vec2.hpp
;	COMDAT ?length@?$tvec2@_N$0A@@glm@@SAHXZ
_TEXT	SEGMENT
?length@?$tvec2@_N$0A@@glm@@SAHXZ PROC			; glm::tvec2<bool,0>::length, COMDAT

; 82   : 		GLM_FUNC_DECL static length_type length(){return 2;}

$LN3:
	push	rdi
	mov	eax, 2
	pop	rdi
	ret	0
?length@?$tvec2@_N$0A@@glm@@SAHXZ ENDP			; glm::tvec2<bool,0>::length
_TEXT	ENDS
; Function compile flags: /Odtp /RTCsu
; File C:\Users\ksart\OneDrive\Desktop\FlappyBird\libraries\external\glm\glm\gtc\epsilon.inl
;	COMDAT ??$epsilonEqual@M$0A@Utvec2@glm@@@glm@@YA?AU?$tvec2@_N$0A@@0@AEBU?$tvec2@M$0A@@0@00@Z
_TEXT	SEGMENT
$T1 = 32
$T2 = 40
$T3 = 48
__$ReturnUdt$ = 80
x$ = 88
y$ = 96
epsilon$ = 104
??$epsilonEqual@M$0A@Utvec2@glm@@@glm@@YA?AU?$tvec2@_N$0A@@0@AEBU?$tvec2@M$0A@@0@00@Z PROC ; glm::epsilonEqual<float,0,glm::tvec2>, COMDAT

; 76   : 	{

$LN3:
	mov	QWORD PTR [rsp+32], r9
	mov	QWORD PTR [rsp+24], r8
	mov	QWORD PTR [rsp+16], rdx
	mov	QWORD PTR [rsp+8], rcx
	push	rdi
	sub	rsp, 64					; 00000040H

; 77   : 		return lessThan(abs(x - y), vecType<T, P>(epsilon));

	mov	rax, QWORD PTR epsilon$[rsp]
	mov	rax, QWORD PTR [rax]
	mov	QWORD PTR $T1[rsp], rax
	mov	r8, QWORD PTR y$[rsp]
	mov	rdx, QWORD PTR x$[rsp]
	lea	rcx, QWORD PTR $T2[rsp]
	call	??$?GM$0A@@glm@@YA?AU?$tvec2@M$0A@@0@AEBU10@0@Z ; glm::operator-<float,0>
	mov	rdx, rax
	lea	rcx, QWORD PTR $T3[rsp]
	call	??$abs@M$0A@Utvec2@glm@@@glm@@YA?AU?$tvec2@M$0A@@0@AEBU10@@Z ; glm::abs<float,0,glm::tvec2>
	lea	r8, QWORD PTR $T1[rsp]
	mov	rdx, rax
	mov	rcx, QWORD PTR __$ReturnUdt$[rsp]
	call	??$lessThan@M$0A@Utvec2@glm@@@glm@@YA?AU?$tvec2@_N$0A@@0@AEBU?$tvec2@M$0A@@0@0@Z ; glm::lessThan<float,0,glm::tvec2>
	mov	rax, QWORD PTR __$ReturnUdt$[rsp]

; 78   : 	}

	add	rsp, 64					; 00000040H
	pop	rdi
	ret	0
??$epsilonEqual@M$0A@Utvec2@glm@@@glm@@YA?AU?$tvec2@_N$0A@@0@AEBU?$tvec2@M$0A@@0@00@Z ENDP ; glm::epsilonEqual<float,0,glm::tvec2>
_TEXT	ENDS
; Function compile flags: /Odtp /RTCsu
; File C:\Users\ksart\OneDrive\Desktop\FlappyBird\libraries\external\glm\glm\detail\func_exponential.inl
;	COMDAT ??$log2@M$0A@Utvec2@glm@@@glm@@YA?AU?$tvec2@M$0A@@0@AEBU10@@Z
_TEXT	SEGMENT
__$ReturnUdt$ = 48
x$ = 56
??$log2@M$0A@Utvec2@glm@@@glm@@YA?AU?$tvec2@M$0A@@0@AEBU10@@Z PROC ; glm::log2<float,0,glm::tvec2>, COMDAT

; 115  : 	{

$LN3:
	mov	QWORD PTR [rsp+16], rdx
	mov	QWORD PTR [rsp+8], rcx
	push	rdi
	sub	rsp, 32					; 00000020H

; 116  : 		return detail::compute_log2<T, P, vecType, std::numeric_limits<T>::is_iec559, detail::is_aligned<P>::value>::call(x);

	mov	rdx, QWORD PTR x$[rsp]
	mov	rcx, QWORD PTR __$ReturnUdt$[rsp]
	call	?call@?$compute_log2@M$0A@Utvec2@glm@@$00$0A@@detail@glm@@SA?AU?$tvec2@M$0A@@3@AEBU43@@Z ; glm::detail::compute_log2<float,0,glm::tvec2,1,0>::call
	mov	rax, QWORD PTR __$ReturnUdt$[rsp]

; 117  : 	}

	add	rsp, 32					; 00000020H
	pop	rdi
	ret	0
??$log2@M$0A@Utvec2@glm@@@glm@@YA?AU?$tvec2@M$0A@@0@AEBU10@@Z ENDP ; glm::log2<float,0,glm::tvec2>
_TEXT	ENDS
; Function compile flags: /Odtp /RTCsu
; File C:\Users\ksart\OneDrive\Desktop\FlappyBird\libraries\external\glm\glm\gtx\log_base.inl
;	COMDAT ??$log@M$0A@Utvec2@glm@@@glm@@YA?AU?$tvec2@M$0A@@0@AEBU10@0@Z
_TEXT	SEGMENT
$T1 = 32
$T2 = 40
tv65 = 48
__$ReturnUdt$ = 80
x$ = 88
base$ = 96
??$log@M$0A@Utvec2@glm@@@glm@@YA?AU?$tvec2@M$0A@@0@AEBU10@0@Z PROC ; glm::log<float,0,glm::tvec2>, COMDAT

; 15   : 	{

$LN3:
	mov	QWORD PTR [rsp+24], r8
	mov	QWORD PTR [rsp+16], rdx
	mov	QWORD PTR [rsp+8], rcx
	push	rdi
	sub	rsp, 64					; 00000040H

; 16   : 		return glm::log(x) / glm::log(base);

	mov	rdx, QWORD PTR base$[rsp]
	lea	rcx, QWORD PTR $T1[rsp]
	call	??$log@M$0A@Utvec2@glm@@@glm@@YA?AU?$tvec2@M$0A@@0@AEBU10@@Z ; glm::log<float,0,glm::tvec2>
	mov	QWORD PTR tv65[rsp], rax
	mov	rdx, QWORD PTR x$[rsp]
	lea	rcx, QWORD PTR $T2[rsp]
	call	??$log@M$0A@Utvec2@glm@@@glm@@YA?AU?$tvec2@M$0A@@0@AEBU10@@Z ; glm::log<float,0,glm::tvec2>
	mov	rcx, QWORD PTR tv65[rsp]
	mov	r8, rcx
	mov	rdx, rax
	mov	rcx, QWORD PTR __$ReturnUdt$[rsp]
	call	??$?KM$0A@@glm@@YA?AU?$tvec2@M$0A@@0@AEBU10@0@Z ; glm::operator/<float,0>
	mov	rax, QWORD PTR __$ReturnUdt$[rsp]

; 17   : 	}

	add	rsp, 64					; 00000040H
	pop	rdi
	ret	0
??$log@M$0A@Utvec2@glm@@@glm@@YA?AU?$tvec2@M$0A@@0@AEBU10@0@Z ENDP ; glm::log<float,0,glm::tvec2>
_TEXT	ENDS
; Function compile flags: /Odtp /RTCsu
; File C:\Users\ksart\OneDrive\Desktop\FlappyBird\libraries\external\glm\glm\detail\func_vector_relational.inl
;	COMDAT ??$all@$0A@Utvec1@glm@@@glm@@YA_NAEBU?$tvec1@_N$0A@@0@@Z
_TEXT	SEGMENT
Result$ = 32
i$1 = 36
tv74 = 40
v$ = 64
??$all@$0A@Utvec1@glm@@@glm@@YA_NAEBU?$tvec1@_N$0A@@0@@Z PROC ; glm::all<0,glm::tvec1>, COMDAT

; 86   : 	{

$LN8:
	mov	QWORD PTR [rsp+8], rcx
	push	rdi
	sub	rsp, 48					; 00000030H

; 87   : 		bool Result = true;

	mov	BYTE PTR Result$[rsp], 1

; 88   : 		for(length_t i = 0; i < v.length(); ++i)

	mov	DWORD PTR i$1[rsp], 0
	jmp	SHORT $LN4@all
$LN2@all:
	mov	eax, DWORD PTR i$1[rsp]
	inc	eax
	mov	DWORD PTR i$1[rsp], eax
$LN4@all:
	call	?length@?$tvec1@_N$0A@@glm@@SAHXZ	; glm::tvec1<bool,0>::length
	cmp	DWORD PTR i$1[rsp], eax
	jge	SHORT $LN3@all

; 89   : 			Result = Result && v[i];

	movzx	eax, BYTE PTR Result$[rsp]
	test	eax, eax
	je	SHORT $LN6@all
	mov	edx, DWORD PTR i$1[rsp]
	mov	rcx, QWORD PTR v$[rsp]
	call	??A?$tvec1@_N$0A@@glm@@QEBAAEB_NH@Z	; glm::tvec1<bool,0>::operator[]
	movzx	eax, BYTE PTR [rax]
	test	eax, eax
	je	SHORT $LN6@all
	mov	DWORD PTR tv74[rsp], 1
	jmp	SHORT $LN7@all
$LN6@all:
	mov	DWORD PTR tv74[rsp], 0
$LN7@all:
	movzx	eax, BYTE PTR tv74[rsp]
	mov	BYTE PTR Result$[rsp], al
	jmp	SHORT $LN2@all
$LN3@all:

; 90   : 		return Result;

	movzx	eax, BYTE PTR Result$[rsp]

; 91   : 	}

	add	rsp, 48					; 00000030H
	pop	rdi
	ret	0
??$all@$0A@Utvec1@glm@@@glm@@YA_NAEBU?$tvec1@_N$0A@@0@@Z ENDP ; glm::all<0,glm::tvec1>
_TEXT	ENDS
; Function compile flags: /Odtp /RTCsu
; File C:\Users\ksart\OneDrive\Desktop\FlappyBird\libraries\external\glm\glm\detail\type_vec1.inl
;	COMDAT ??0?$tvec1@_N$0A@@glm@@QEAA@W4ctor@1@@Z
_TEXT	SEGMENT
this$ = 16
__formal$ = 24
??0?$tvec1@_N$0A@@glm@@QEAA@W4ctor@1@@Z PROC		; glm::tvec1<bool,0>::tvec1<bool,0>, COMDAT

; 34   : 	{}

$LN3:
	mov	DWORD PTR [rsp+16], edx
	mov	QWORD PTR [rsp+8], rcx
	push	rdi
	mov	rax, QWORD PTR this$[rsp]
	pop	rdi
	ret	0
??0?$tvec1@_N$0A@@glm@@QEAA@W4ctor@1@@Z ENDP		; glm::tvec1<bool,0>::tvec1<bool,0>
_TEXT	ENDS
; Function compile flags: /Odtp /RTCsu
; File C:\Users\ksart\OneDrive\Desktop\FlappyBird\libraries\external\glm\glm\detail\type_vec1.inl
;	COMDAT ??A?$tvec1@_N$0A@@glm@@QEBAAEB_NH@Z
_TEXT	SEGMENT
this$ = 48
i$ = 56
??A?$tvec1@_N$0A@@glm@@QEBAAEB_NH@Z PROC		; glm::tvec1<bool,0>::operator[], COMDAT

; 78   : 	{

$LN5:
	mov	DWORD PTR [rsp+16], edx
	mov	QWORD PTR [rsp+8], rcx
	push	rdi
	sub	rsp, 32					; 00000020H

; 79   : 		assert(i >= 0 && i < this->length());

	cmp	DWORD PTR i$[rsp], 0
	jl	SHORT $LN3@operator
	call	?length@?$tvec1@_N$0A@@glm@@SAHXZ	; glm::tvec1<bool,0>::length
	cmp	DWORD PTR i$[rsp], eax
	jl	SHORT $LN4@operator
$LN3@operator:
	mov	r8d, 79					; 0000004fH
	lea	rdx, OFFSET FLAT:??_C@_1LG@CIKOIEGN@?$AAC?$AA?3?$AA?2?$AAU?$AAs?$AAe?$AAr?$AAs?$AA?2?$AAk?$AAs?$AAa?$AAr?$AAt?$AA?2@
	lea	rcx, OFFSET FLAT:??_C@_1DK@BGNCJAPL@?$AAi?$AA?5?$AA?$DO?$AA?$DN?$AA?5?$AA0?$AA?5?$AA?$CG?$AA?$CG?$AA?5?$AAi?$AA?5?$AA?$DM?$AA?5?$AAt@
	call	QWORD PTR __imp__wassert
	xor	eax, eax
$LN4@operator:

; 80   : 		return (&x)[i];

	movsxd	rax, DWORD PTR i$[rsp]
	mov	rcx, QWORD PTR this$[rsp]
	add	rcx, rax
	mov	rax, rcx

; 81   : 	}

	add	rsp, 32					; 00000020H
	pop	rdi
	ret	0
??A?$tvec1@_N$0A@@glm@@QEBAAEB_NH@Z ENDP		; glm::tvec1<bool,0>::operator[]
_TEXT	ENDS
; Function compile flags: /Odtp /RTCsu
; File C:\Users\ksart\OneDrive\Desktop\FlappyBird\libraries\external\glm\glm\detail\type_vec1.inl
;	COMDAT ??A?$tvec1@_N$0A@@glm@@QEAAAEA_NH@Z
_TEXT	SEGMENT
this$ = 48
i$ = 56
??A?$tvec1@_N$0A@@glm@@QEAAAEA_NH@Z PROC		; glm::tvec1<bool,0>::operator[], COMDAT

; 71   : 	{

$LN5:
	mov	DWORD PTR [rsp+16], edx
	mov	QWORD PTR [rsp+8], rcx
	push	rdi
	sub	rsp, 32					; 00000020H

; 72   : 		assert(i >= 0 && i < this->length());

	cmp	DWORD PTR i$[rsp], 0
	jl	SHORT $LN3@operator
	call	?length@?$tvec1@_N$0A@@glm@@SAHXZ	; glm::tvec1<bool,0>::length
	cmp	DWORD PTR i$[rsp], eax
	jl	SHORT $LN4@operator
$LN3@operator:
	mov	r8d, 72					; 00000048H
	lea	rdx, OFFSET FLAT:??_C@_1LG@CIKOIEGN@?$AAC?$AA?3?$AA?2?$AAU?$AAs?$AAe?$AAr?$AAs?$AA?2?$AAk?$AAs?$AAa?$AAr?$AAt?$AA?2@
	lea	rcx, OFFSET FLAT:??_C@_1DK@BGNCJAPL@?$AAi?$AA?5?$AA?$DO?$AA?$DN?$AA?5?$AA0?$AA?5?$AA?$CG?$AA?$CG?$AA?5?$AAi?$AA?5?$AA?$DM?$AA?5?$AAt@
	call	QWORD PTR __imp__wassert
	xor	eax, eax
$LN4@operator:

; 73   : 		return (&x)[i];

	movsxd	rax, DWORD PTR i$[rsp]
	mov	rcx, QWORD PTR this$[rsp]
	add	rcx, rax
	mov	rax, rcx

; 74   : 	}

	add	rsp, 32					; 00000020H
	pop	rdi
	ret	0
??A?$tvec1@_N$0A@@glm@@QEAAAEA_NH@Z ENDP		; glm::tvec1<bool,0>::operator[]
_TEXT	ENDS
; Function compile flags: /Odtp /RTCsu
; File C:\Users\ksart\OneDrive\Desktop\FlappyBird\libraries\external\glm\glm\detail\type_vec1.hpp
;	COMDAT ?length@?$tvec1@_N$0A@@glm@@SAHXZ
_TEXT	SEGMENT
?length@?$tvec1@_N$0A@@glm@@SAHXZ PROC			; glm::tvec1<bool,0>::length, COMDAT

; 81   : 		GLM_FUNC_DECL static length_type length(){return 1;}

$LN3:
	push	rdi
	mov	eax, 1
	pop	rdi
	ret	0
?length@?$tvec1@_N$0A@@glm@@SAHXZ ENDP			; glm::tvec1<bool,0>::length
_TEXT	ENDS
; Function compile flags: /Odtp /RTCsu
; File C:\Users\ksart\OneDrive\Desktop\FlappyBird\libraries\external\glm\glm\gtc\epsilon.inl
;	COMDAT ??$epsilonEqual@M$0A@Utvec1@glm@@@glm@@YA?AU?$tvec1@_N$0A@@0@AEBU?$tvec1@M$0A@@0@00@Z
_TEXT	SEGMENT
$T1 = 32
$T2 = 36
$T3 = 40
__$ReturnUdt$ = 64
x$ = 72
y$ = 80
epsilon$ = 88
??$epsilonEqual@M$0A@Utvec1@glm@@@glm@@YA?AU?$tvec1@_N$0A@@0@AEBU?$tvec1@M$0A@@0@00@Z PROC ; glm::epsilonEqual<float,0,glm::tvec1>, COMDAT

; 76   : 	{

$LN3:
	mov	QWORD PTR [rsp+32], r9
	mov	QWORD PTR [rsp+24], r8
	mov	QWORD PTR [rsp+16], rdx
	mov	QWORD PTR [rsp+8], rcx
	push	rdi
	sub	rsp, 48					; 00000030H

; 77   : 		return lessThan(abs(x - y), vecType<T, P>(epsilon));

	mov	rax, QWORD PTR epsilon$[rsp]
	mov	eax, DWORD PTR [rax]
	mov	DWORD PTR $T1[rsp], eax
	mov	r8, QWORD PTR y$[rsp]
	mov	rdx, QWORD PTR x$[rsp]
	lea	rcx, QWORD PTR $T2[rsp]
	call	??$?GM$0A@@glm@@YA?AU?$tvec1@M$0A@@0@AEBU10@0@Z ; glm::operator-<float,0>
	mov	rdx, rax
	lea	rcx, QWORD PTR $T3[rsp]
	call	??$abs@M$0A@Utvec1@glm@@@glm@@YA?AU?$tvec1@M$0A@@0@AEBU10@@Z ; glm::abs<float,0,glm::tvec1>
	lea	r8, QWORD PTR $T1[rsp]
	mov	rdx, rax
	mov	rcx, QWORD PTR __$ReturnUdt$[rsp]
	call	??$lessThan@M$0A@Utvec1@glm@@@glm@@YA?AU?$tvec1@_N$0A@@0@AEBU?$tvec1@M$0A@@0@0@Z ; glm::lessThan<float,0,glm::tvec1>
	mov	rax, QWORD PTR __$ReturnUdt$[rsp]

; 78   : 	}

	add	rsp, 48					; 00000030H
	pop	rdi
	ret	0
??$epsilonEqual@M$0A@Utvec1@glm@@@glm@@YA?AU?$tvec1@_N$0A@@0@AEBU?$tvec1@M$0A@@0@00@Z ENDP ; glm::epsilonEqual<float,0,glm::tvec1>
_TEXT	ENDS
; Function compile flags: /Odtp /RTCsu
; File C:\Users\ksart\OneDrive\Desktop\FlappyBird\libraries\external\glm\glm\detail\func_exponential.inl
;	COMDAT ??$log2@M$0A@Utvec1@glm@@@glm@@YA?AU?$tvec1@M$0A@@0@AEBU10@@Z
_TEXT	SEGMENT
__$ReturnUdt$ = 48
x$ = 56
??$log2@M$0A@Utvec1@glm@@@glm@@YA?AU?$tvec1@M$0A@@0@AEBU10@@Z PROC ; glm::log2<float,0,glm::tvec1>, COMDAT

; 115  : 	{

$LN3:
	mov	QWORD PTR [rsp+16], rdx
	mov	QWORD PTR [rsp+8], rcx
	push	rdi
	sub	rsp, 32					; 00000020H

; 116  : 		return detail::compute_log2<T, P, vecType, std::numeric_limits<T>::is_iec559, detail::is_aligned<P>::value>::call(x);

	mov	rdx, QWORD PTR x$[rsp]
	mov	rcx, QWORD PTR __$ReturnUdt$[rsp]
	call	?call@?$compute_log2@M$0A@Utvec1@glm@@$00$0A@@detail@glm@@SA?AU?$tvec1@M$0A@@3@AEBU43@@Z ; glm::detail::compute_log2<float,0,glm::tvec1,1,0>::call
	mov	rax, QWORD PTR __$ReturnUdt$[rsp]

; 117  : 	}

	add	rsp, 32					; 00000020H
	pop	rdi
	ret	0
??$log2@M$0A@Utvec1@glm@@@glm@@YA?AU?$tvec1@M$0A@@0@AEBU10@@Z ENDP ; glm::log2<float,0,glm::tvec1>
_TEXT	ENDS
; Function compile flags: /Odtp /RTCsu
; File C:\Users\ksart\OneDrive\Desktop\FlappyBird\libraries\external\glm\glm\gtx\log_base.inl
;	COMDAT ??$log@M$0A@Utvec1@glm@@@glm@@YA?AU?$tvec1@M$0A@@0@AEBU10@0@Z
_TEXT	SEGMENT
$T1 = 32
$T2 = 36
tv65 = 40
__$ReturnUdt$ = 64
x$ = 72
base$ = 80
??$log@M$0A@Utvec1@glm@@@glm@@YA?AU?$tvec1@M$0A@@0@AEBU10@0@Z PROC ; glm::log<float,0,glm::tvec1>, COMDAT

; 15   : 	{

$LN3:
	mov	QWORD PTR [rsp+24], r8
	mov	QWORD PTR [rsp+16], rdx
	mov	QWORD PTR [rsp+8], rcx
	push	rdi
	sub	rsp, 48					; 00000030H

; 16   : 		return glm::log(x) / glm::log(base);

	mov	rdx, QWORD PTR base$[rsp]
	lea	rcx, QWORD PTR $T1[rsp]
	call	??$log@M$0A@Utvec1@glm@@@glm@@YA?AU?$tvec1@M$0A@@0@AEBU10@@Z ; glm::log<float,0,glm::tvec1>
	mov	QWORD PTR tv65[rsp], rax
	mov	rdx, QWORD PTR x$[rsp]
	lea	rcx, QWORD PTR $T2[rsp]
	call	??$log@M$0A@Utvec1@glm@@@glm@@YA?AU?$tvec1@M$0A@@0@AEBU10@@Z ; glm::log<float,0,glm::tvec1>
	mov	rcx, QWORD PTR tv65[rsp]
	mov	r8, rcx
	mov	rdx, rax
	mov	rcx, QWORD PTR __$ReturnUdt$[rsp]
	call	??$?KM$0A@@glm@@YA?AU?$tvec1@M$0A@@0@AEBU10@0@Z ; glm::operator/<float,0>
	mov	rax, QWORD PTR __$ReturnUdt$[rsp]

; 17   : 	}

	add	rsp, 48					; 00000030H
	pop	rdi
	ret	0
??$log@M$0A@Utvec1@glm@@@glm@@YA?AU?$tvec1@M$0A@@0@AEBU10@0@Z ENDP ; glm::log<float,0,glm::tvec1>
_TEXT	ENDS
; Function compile flags: /Odtp /RTCsu
; File C:\Users\ksart\OneDrive\Desktop\FlappyBird\libraries\external\glm\glm\detail\type_vec1.inl
;	COMDAT ??0?$tvec1@M$0A@@glm@@QEAA@M@Z
_TEXT	SEGMENT
this$ = 16
scalar$ = 24
??0?$tvec1@M$0A@@glm@@QEAA@M@Z PROC			; glm::tvec1<float,0>::tvec1<float,0>, COMDAT

; 39   : 	{}

$LN3:
	movss	DWORD PTR [rsp+16], xmm1
	mov	QWORD PTR [rsp+8], rcx
	push	rdi

; 38   : 		: x(scalar)

	mov	rax, QWORD PTR this$[rsp]
	movss	xmm0, DWORD PTR scalar$[rsp]
	movss	DWORD PTR [rax], xmm0

; 39   : 	{}

	mov	rax, QWORD PTR this$[rsp]
	pop	rdi
	ret	0
??0?$tvec1@M$0A@@glm@@QEAA@M@Z ENDP			; glm::tvec1<float,0>::tvec1<float,0>
_TEXT	ENDS
; Function compile flags: /Odtp /RTCsu
; File C:\Users\ksart\OneDrive\Desktop\FlappyBird\libraries\external\glm\glm\detail\type_vec1.inl
;	COMDAT ??A?$tvec1@M$0A@@glm@@QEBAAEBMH@Z
_TEXT	SEGMENT
this$ = 48
i$ = 56
??A?$tvec1@M$0A@@glm@@QEBAAEBMH@Z PROC			; glm::tvec1<float,0>::operator[], COMDAT

; 78   : 	{

$LN5:
	mov	DWORD PTR [rsp+16], edx
	mov	QWORD PTR [rsp+8], rcx
	push	rdi
	sub	rsp, 32					; 00000020H

; 79   : 		assert(i >= 0 && i < this->length());

	cmp	DWORD PTR i$[rsp], 0
	jl	SHORT $LN3@operator
	call	?length@?$tvec1@M$0A@@glm@@SAHXZ	; glm::tvec1<float,0>::length
	cmp	DWORD PTR i$[rsp], eax
	jl	SHORT $LN4@operator
$LN3@operator:
	mov	r8d, 79					; 0000004fH
	lea	rdx, OFFSET FLAT:??_C@_1LG@CIKOIEGN@?$AAC?$AA?3?$AA?2?$AAU?$AAs?$AAe?$AAr?$AAs?$AA?2?$AAk?$AAs?$AAa?$AAr?$AAt?$AA?2@
	lea	rcx, OFFSET FLAT:??_C@_1DK@BGNCJAPL@?$AAi?$AA?5?$AA?$DO?$AA?$DN?$AA?5?$AA0?$AA?5?$AA?$CG?$AA?$CG?$AA?5?$AAi?$AA?5?$AA?$DM?$AA?5?$AAt@
	call	QWORD PTR __imp__wassert
	xor	eax, eax
$LN4@operator:

; 80   : 		return (&x)[i];

	movsxd	rax, DWORD PTR i$[rsp]
	mov	rcx, QWORD PTR this$[rsp]
	lea	rax, QWORD PTR [rcx+rax*4]

; 81   : 	}

	add	rsp, 32					; 00000020H
	pop	rdi
	ret	0
??A?$tvec1@M$0A@@glm@@QEBAAEBMH@Z ENDP			; glm::tvec1<float,0>::operator[]
_TEXT	ENDS
; Function compile flags: /Odtp /RTCsu
; File C:\Users\ksart\OneDrive\Desktop\FlappyBird\libraries\external\glm\glm\detail\type_vec1.hpp
;	COMDAT ?length@?$tvec1@M$0A@@glm@@SAHXZ
_TEXT	SEGMENT
?length@?$tvec1@M$0A@@glm@@SAHXZ PROC			; glm::tvec1<float,0>::length, COMDAT

; 81   : 		GLM_FUNC_DECL static length_type length(){return 1;}

$LN3:
	push	rdi
	mov	eax, 1
	pop	rdi
	ret	0
?length@?$tvec1@M$0A@@glm@@SAHXZ ENDP			; glm::tvec1<float,0>::length
_TEXT	ENDS
; Function compile flags: /Odtp /RTCsu
; File C:\Users\ksart\OneDrive\Desktop\FlappyBird\libraries\external\glm\glm\detail\func_exponential.inl
;	COMDAT ??$log2@M@glm@@YAMM@Z
_TEXT	SEGMENT
$T1 = 48
$T2 = 52
x$ = 80
??$log2@M@glm@@YAMM@Z PROC				; glm::log2<float>, COMDAT

; 109  : 	{

$LN3:
	movss	DWORD PTR [rsp+8], xmm0
	push	rdi
	sub	rsp, 64					; 00000040H

; 110  : 		return log2(tvec1<genType>(x)).x;

	movss	xmm1, DWORD PTR x$[rsp]
	lea	rcx, QWORD PTR $T1[rsp]
	call	??0?$tvec1@M$0A@@glm@@QEAA@M@Z		; glm::tvec1<float,0>::tvec1<float,0>
	mov	rdx, rax
	lea	rcx, QWORD PTR $T2[rsp]
	call	??$log2@M$0A@Utvec1@glm@@@glm@@YA?AU?$tvec1@M$0A@@0@AEBU10@@Z ; glm::log2<float,0,glm::tvec1>
	movss	xmm0, DWORD PTR [rax]

; 111  : 	}

	add	rsp, 64					; 00000040H
	pop	rdi
	ret	0
??$log2@M@glm@@YAMM@Z ENDP				; glm::log2<float>
_TEXT	ENDS
; Function compile flags: /Odtp /RTCsu
; File C:\Users\ksart\OneDrive\Desktop\FlappyBird\libraries\external\glm\glm\gtx\log_base.inl
;	COMDAT ??$log@M@glm@@YAMAEBM0@Z
_TEXT	SEGMENT
tv69 = 48
x$ = 80
base$ = 88
??$log@M@glm@@YAMAEBM0@Z PROC				; glm::log<float>, COMDAT

; 8    : 	{

$LN4:
	mov	QWORD PTR [rsp+16], rdx
	mov	QWORD PTR [rsp+8], rcx
	push	rdi
	sub	rsp, 64					; 00000040H

; 9    : 		assert(x != genType(0));

	mov	rax, QWORD PTR x$[rsp]
	movss	xmm0, DWORD PTR [rax]
	ucomiss	xmm0, DWORD PTR __real@00000000
	jp	SHORT $LN3@log
	jne	SHORT $LN3@log
	mov	r8d, 9
	lea	rdx, OFFSET FLAT:??_C@_1KO@MEDIOOM@?$AAC?$AA?3?$AA?2?$AAU?$AAs?$AAe?$AAr?$AAs?$AA?2?$AAk?$AAs?$AAa?$AAr?$AAt?$AA?2@
	lea	rcx, OFFSET FLAT:??_C@_1CA@KHCKNFCF@?$AAx?$AA?5?$AA?$CB?$AA?$DN?$AA?5?$AAg?$AAe?$AAn?$AAT?$AAy?$AAp?$AAe?$AA?$CI?$AA0?$AA?$CJ@
	call	QWORD PTR __imp__wassert
	xor	eax, eax
$LN3@log:

; 10   : 		return glm::log(x) / glm::log(base);

	mov	rax, QWORD PTR x$[rsp]
	movss	xmm0, DWORD PTR [rax]
	call	?log@@YAMM@Z				; log
	movss	DWORD PTR tv69[rsp], xmm0
	mov	rax, QWORD PTR base$[rsp]
	movss	xmm0, DWORD PTR [rax]
	call	?log@@YAMM@Z				; log
	movss	xmm1, DWORD PTR tv69[rsp]
	divss	xmm1, xmm0
	movaps	xmm0, xmm1

; 11   : 	}

	add	rsp, 64					; 00000040H
	pop	rdi
	ret	0
??$log@M@glm@@YAMAEBM0@Z ENDP				; glm::log<float>
_TEXT	ENDS
; Function compile flags: /Odtp /RTCsu
; File C:\Users\ksart\OneDrive\Desktop\FlappyBird\libraries\external\glm\test\gtx\gtx_log_base.cpp
_TEXT	SEGMENT
Error$ = 32
A$13 = 52
B$14 = 84
A$15 = 116
B$16 = 148
A$17 = 184
B$18 = 216
A$19 = 248
B$20 = 296
A$21 = 344
B$22 = 392
$T23 = 420
$T24 = 424
$T25 = 428
$T26 = 432
$T27 = 436
$T28 = 440
$T29 = 444
$T30 = 448
$T31 = 452
$T32 = 460
$T33 = 468
$T34 = 476
$T35 = 484
$T36 = 488
$T37 = 500
$T38 = 512
$T39 = 524
$T40 = 536
$T41 = 540
$T42 = 556
$T43 = 572
$T44 = 588
$T45 = 604
tv75 = 608
tv79 = 616
tv135 = 624
tv139 = 632
tv163 = 640
tv167 = 648
tv191 = 656
tv195 = 664
tv219 = 672
?run@test_log@@YAHXZ PROC				; test_log::run

; 9    : 	{

$LN13:
	push	rdi
	sub	rsp, 688				; 000002b0H
	lea	rdi, QWORD PTR [rsp+32]
	mov	ecx, 164				; 000000a4H
	mov	eax, -858993460				; ccccccccH
	rep stosd

; 10   : 		int Error = 0;

	mov	DWORD PTR Error$[rsp], 0

; 11   : 
; 12   : 		{
; 13   : 			float A = glm::log(10.f, 2.0f);

	movss	xmm0, DWORD PTR __real@40000000
	movss	DWORD PTR $T23[rsp], xmm0
	movss	xmm0, DWORD PTR __real@41200000
	movss	DWORD PTR $T24[rsp], xmm0
	lea	rdx, QWORD PTR $T23[rsp]
	lea	rcx, QWORD PTR $T24[rsp]
	call	??$log@M@glm@@YAMAEBM0@Z		; glm::log<float>
	movss	DWORD PTR A$13[rsp], xmm0

; 14   : 			float B = glm::log2(10.f);

	movss	xmm0, DWORD PTR __real@41200000
	call	??$log2@M@glm@@YAMM@Z			; glm::log2<float>
	movss	DWORD PTR B$14[rsp], xmm0

; 15   : 			Error += glm::epsilonEqual(A, B, 0.00001f) ? 0 : 1;

	movss	xmm0, DWORD PTR __real@3727c5ac
	movss	DWORD PTR $T25[rsp], xmm0
	lea	r8, QWORD PTR $T25[rsp]
	lea	rdx, QWORD PTR B$14[rsp]
	lea	rcx, QWORD PTR A$13[rsp]
	call	??$epsilonEqual@M@glm@@YA_NAEBM00@Z	; glm::epsilonEqual<float>
	movzx	eax, al
	test	eax, eax
	je	SHORT $LN3@run
	mov	DWORD PTR tv75[rsp], 0
	jmp	SHORT $LN4@run
$LN3@run:
	mov	DWORD PTR tv75[rsp], 1
$LN4@run:
	mov	eax, DWORD PTR tv75[rsp]
	mov	ecx, DWORD PTR Error$[rsp]
	add	ecx, eax
	mov	eax, ecx
	mov	DWORD PTR Error$[rsp], eax

; 16   : 		}
; 17   : 
; 18   : 		{
; 19   : 			glm::vec1 A = glm::log(glm::vec1(10.f), glm::vec1(2.0f));

	movss	xmm1, DWORD PTR __real@40000000
	lea	rcx, QWORD PTR $T26[rsp]
	call	??0?$tvec1@M$0A@@glm@@QEAA@M@Z		; glm::tvec1<float,0>::tvec1<float,0>
	mov	QWORD PTR tv79[rsp], rax
	movss	xmm1, DWORD PTR __real@41200000
	lea	rcx, QWORD PTR $T27[rsp]
	call	??0?$tvec1@M$0A@@glm@@QEAA@M@Z		; glm::tvec1<float,0>::tvec1<float,0>
	mov	rcx, QWORD PTR tv79[rsp]
	mov	r8, rcx
	mov	rdx, rax
	lea	rcx, QWORD PTR A$15[rsp]
	call	??$log@M$0A@Utvec1@glm@@@glm@@YA?AU?$tvec1@M$0A@@0@AEBU10@0@Z ; glm::log<float,0,glm::tvec1>

; 20   : 			glm::vec1 B = glm::log2(glm::vec1(10.f));

	movss	xmm1, DWORD PTR __real@41200000
	lea	rcx, QWORD PTR $T28[rsp]
	call	??0?$tvec1@M$0A@@glm@@QEAA@M@Z		; glm::tvec1<float,0>::tvec1<float,0>
	mov	rdx, rax
	lea	rcx, QWORD PTR B$16[rsp]
	call	??$log2@M$0A@Utvec1@glm@@@glm@@YA?AU?$tvec1@M$0A@@0@AEBU10@@Z ; glm::log2<float,0,glm::tvec1>

; 21   : 			Error += glm::all(glm::epsilonEqual(A, B, glm::vec1(0.00001f))) ? 0 : 1;

	movss	xmm1, DWORD PTR __real@3727c5ac
	lea	rcx, QWORD PTR $T29[rsp]
	call	??0?$tvec1@M$0A@@glm@@QEAA@M@Z		; glm::tvec1<float,0>::tvec1<float,0>
	mov	r9, rax
	lea	r8, QWORD PTR B$16[rsp]
	lea	rdx, QWORD PTR A$15[rsp]
	lea	rcx, QWORD PTR $T30[rsp]
	call	??$epsilonEqual@M$0A@Utvec1@glm@@@glm@@YA?AU?$tvec1@_N$0A@@0@AEBU?$tvec1@M$0A@@0@00@Z ; glm::epsilonEqual<float,0,glm::tvec1>
	mov	rcx, rax
	call	??$all@$0A@Utvec1@glm@@@glm@@YA_NAEBU?$tvec1@_N$0A@@0@@Z ; glm::all<0,glm::tvec1>
	movzx	eax, al
	test	eax, eax
	je	SHORT $LN5@run
	mov	DWORD PTR tv135[rsp], 0
	jmp	SHORT $LN6@run
$LN5@run:
	mov	DWORD PTR tv135[rsp], 1
$LN6@run:
	mov	eax, DWORD PTR tv135[rsp]
	mov	ecx, DWORD PTR Error$[rsp]
	add	ecx, eax
	mov	eax, ecx
	mov	DWORD PTR Error$[rsp], eax

; 22   : 		}
; 23   : 
; 24   : 		{
; 25   : 			glm::vec2 A = glm::log(glm::vec2(10.f), glm::vec2(2.0f));

	movss	xmm1, DWORD PTR __real@40000000
	lea	rcx, QWORD PTR $T31[rsp]
	call	??0?$tvec2@M$0A@@glm@@QEAA@M@Z		; glm::tvec2<float,0>::tvec2<float,0>
	mov	QWORD PTR tv139[rsp], rax
	movss	xmm1, DWORD PTR __real@41200000
	lea	rcx, QWORD PTR $T32[rsp]
	call	??0?$tvec2@M$0A@@glm@@QEAA@M@Z		; glm::tvec2<float,0>::tvec2<float,0>
	mov	rcx, QWORD PTR tv139[rsp]
	mov	r8, rcx
	mov	rdx, rax
	lea	rcx, QWORD PTR A$17[rsp]
	call	??$log@M$0A@Utvec2@glm@@@glm@@YA?AU?$tvec2@M$0A@@0@AEBU10@0@Z ; glm::log<float,0,glm::tvec2>

; 26   : 			glm::vec2 B = glm::log2(glm::vec2(10.f));

	movss	xmm1, DWORD PTR __real@41200000
	lea	rcx, QWORD PTR $T33[rsp]
	call	??0?$tvec2@M$0A@@glm@@QEAA@M@Z		; glm::tvec2<float,0>::tvec2<float,0>
	mov	rdx, rax
	lea	rcx, QWORD PTR B$18[rsp]
	call	??$log2@M$0A@Utvec2@glm@@@glm@@YA?AU?$tvec2@M$0A@@0@AEBU10@@Z ; glm::log2<float,0,glm::tvec2>

; 27   : 			Error += glm::all(glm::epsilonEqual(A, B, glm::vec2(0.00001f))) ? 0 : 1;

	movss	xmm1, DWORD PTR __real@3727c5ac
	lea	rcx, QWORD PTR $T34[rsp]
	call	??0?$tvec2@M$0A@@glm@@QEAA@M@Z		; glm::tvec2<float,0>::tvec2<float,0>
	mov	r9, rax
	lea	r8, QWORD PTR B$18[rsp]
	lea	rdx, QWORD PTR A$17[rsp]
	lea	rcx, QWORD PTR $T35[rsp]
	call	??$epsilonEqual@M$0A@Utvec2@glm@@@glm@@YA?AU?$tvec2@_N$0A@@0@AEBU?$tvec2@M$0A@@0@00@Z ; glm::epsilonEqual<float,0,glm::tvec2>
	mov	rcx, rax
	call	??$all@$0A@Utvec2@glm@@@glm@@YA_NAEBU?$tvec2@_N$0A@@0@@Z ; glm::all<0,glm::tvec2>
	movzx	eax, al
	test	eax, eax
	je	SHORT $LN7@run
	mov	DWORD PTR tv163[rsp], 0
	jmp	SHORT $LN8@run
$LN7@run:
	mov	DWORD PTR tv163[rsp], 1
$LN8@run:
	mov	eax, DWORD PTR tv163[rsp]
	mov	ecx, DWORD PTR Error$[rsp]
	add	ecx, eax
	mov	eax, ecx
	mov	DWORD PTR Error$[rsp], eax

; 28   : 		}
; 29   : 
; 30   : 		{
; 31   : 			glm::vec3 A = glm::log(glm::vec3(10.f), glm::vec3(2.0f));

	movss	xmm1, DWORD PTR __real@40000000
	lea	rcx, QWORD PTR $T36[rsp]
	call	??0?$tvec3@M$0A@@glm@@QEAA@M@Z		; glm::tvec3<float,0>::tvec3<float,0>
	mov	QWORD PTR tv167[rsp], rax
	movss	xmm1, DWORD PTR __real@41200000
	lea	rcx, QWORD PTR $T37[rsp]
	call	??0?$tvec3@M$0A@@glm@@QEAA@M@Z		; glm::tvec3<float,0>::tvec3<float,0>
	mov	rcx, QWORD PTR tv167[rsp]
	mov	r8, rcx
	mov	rdx, rax
	lea	rcx, QWORD PTR A$19[rsp]
	call	??$log@M$0A@Utvec3@glm@@@glm@@YA?AU?$tvec3@M$0A@@0@AEBU10@0@Z ; glm::log<float,0,glm::tvec3>

; 32   : 			glm::vec3 B = glm::log2(glm::vec3(10.f));

	movss	xmm1, DWORD PTR __real@41200000
	lea	rcx, QWORD PTR $T38[rsp]
	call	??0?$tvec3@M$0A@@glm@@QEAA@M@Z		; glm::tvec3<float,0>::tvec3<float,0>
	mov	rdx, rax
	lea	rcx, QWORD PTR B$20[rsp]
	call	??$log2@M$0A@Utvec3@glm@@@glm@@YA?AU?$tvec3@M$0A@@0@AEBU10@@Z ; glm::log2<float,0,glm::tvec3>

; 33   : 			Error += glm::all(glm::epsilonEqual(A, B, glm::vec3(0.00001f))) ? 0 : 1;

	movss	xmm1, DWORD PTR __real@3727c5ac
	lea	rcx, QWORD PTR $T39[rsp]
	call	??0?$tvec3@M$0A@@glm@@QEAA@M@Z		; glm::tvec3<float,0>::tvec3<float,0>
	mov	r9, rax
	lea	r8, QWORD PTR B$20[rsp]
	lea	rdx, QWORD PTR A$19[rsp]
	lea	rcx, QWORD PTR $T40[rsp]
	call	??$epsilonEqual@M$0A@Utvec3@glm@@@glm@@YA?AU?$tvec3@_N$0A@@0@AEBU?$tvec3@M$0A@@0@00@Z ; glm::epsilonEqual<float,0,glm::tvec3>
	mov	rcx, rax
	call	??$all@$0A@Utvec3@glm@@@glm@@YA_NAEBU?$tvec3@_N$0A@@0@@Z ; glm::all<0,glm::tvec3>
	movzx	eax, al
	test	eax, eax
	je	SHORT $LN9@run
	mov	DWORD PTR tv191[rsp], 0
	jmp	SHORT $LN10@run
$LN9@run:
	mov	DWORD PTR tv191[rsp], 1
$LN10@run:
	mov	eax, DWORD PTR tv191[rsp]
	mov	ecx, DWORD PTR Error$[rsp]
	add	ecx, eax
	mov	eax, ecx
	mov	DWORD PTR Error$[rsp], eax

; 34   : 		}
; 35   : 
; 36   : 		{
; 37   : 			glm::vec4 A = glm::log(glm::vec4(10.f), glm::vec4(2.0f));

	movss	xmm1, DWORD PTR __real@40000000
	lea	rcx, QWORD PTR $T41[rsp]
	call	??0?$tvec4@M$0A@@glm@@QEAA@M@Z		; glm::tvec4<float,0>::tvec4<float,0>
	mov	QWORD PTR tv195[rsp], rax
	movss	xmm1, DWORD PTR __real@41200000
	lea	rcx, QWORD PTR $T42[rsp]
	call	??0?$tvec4@M$0A@@glm@@QEAA@M@Z		; glm::tvec4<float,0>::tvec4<float,0>
	mov	rcx, QWORD PTR tv195[rsp]
	mov	r8, rcx
	mov	rdx, rax
	lea	rcx, QWORD PTR A$21[rsp]
	call	??$log@M$0A@Utvec4@glm@@@glm@@YA?AU?$tvec4@M$0A@@0@AEBU10@0@Z ; glm::log<float,0,glm::tvec4>

; 38   : 			glm::vec4 B = glm::log2(glm::vec4(10.f));

	movss	xmm1, DWORD PTR __real@41200000
	lea	rcx, QWORD PTR $T43[rsp]
	call	??0?$tvec4@M$0A@@glm@@QEAA@M@Z		; glm::tvec4<float,0>::tvec4<float,0>
	mov	rdx, rax
	lea	rcx, QWORD PTR B$22[rsp]
	call	??$log2@M$0A@Utvec4@glm@@@glm@@YA?AU?$tvec4@M$0A@@0@AEBU10@@Z ; glm::log2<float,0,glm::tvec4>

; 39   : 			Error += glm::all(glm::epsilonEqual(A, B, glm::vec4(0.00001f))) ? 0 : 1;

	movss	xmm1, DWORD PTR __real@3727c5ac
	lea	rcx, QWORD PTR $T44[rsp]
	call	??0?$tvec4@M$0A@@glm@@QEAA@M@Z		; glm::tvec4<float,0>::tvec4<float,0>
	mov	r9, rax
	lea	r8, QWORD PTR B$22[rsp]
	lea	rdx, QWORD PTR A$21[rsp]
	lea	rcx, QWORD PTR $T45[rsp]
	call	??$epsilonEqual@M$0A@Utvec4@glm@@@glm@@YA?AU?$tvec4@_N$0A@@0@AEBU?$tvec4@M$0A@@0@00@Z ; glm::epsilonEqual<float,0,glm::tvec4>
	mov	rcx, rax
	call	??$all@$0A@Utvec4@glm@@@glm@@YA_NAEBU?$tvec4@_N$0A@@0@@Z ; glm::all<0,glm::tvec4>
	movzx	eax, al
	test	eax, eax
	je	SHORT $LN11@run
	mov	DWORD PTR tv219[rsp], 0
	jmp	SHORT $LN12@run
$LN11@run:
	mov	DWORD PTR tv219[rsp], 1
$LN12@run:
	mov	eax, DWORD PTR tv219[rsp]
	mov	ecx, DWORD PTR Error$[rsp]
	add	ecx, eax
	mov	eax, ecx
	mov	DWORD PTR Error$[rsp], eax

; 40   : 		}
; 41   : 
; 42   : 		return Error;

	mov	eax, DWORD PTR Error$[rsp]

; 43   : 	}

	mov	edi, eax
	mov	rcx, rsp
	lea	rdx, OFFSET FLAT:?run@test_log@@YAHXZ$rtcFrameData
	call	_RTC_CheckStackVars
	mov	eax, edi
	add	rsp, 688				; 000002b0H
	pop	rdi
	ret	0
?run@test_log@@YAHXZ ENDP				; test_log::run
_TEXT	ENDS
; Function compile flags: /Odtp /RTCsu
; File C:\Users\ksart\OneDrive\Desktop\FlappyBird\libraries\external\glm\glm\detail\func_common.inl
;	COMDAT ??$abs@M@glm@@YAMM@Z
_TEXT	SEGMENT
x$ = 64
??$abs@M@glm@@YAMM@Z PROC				; glm::abs<float>, COMDAT

; 310  : 	{

$LN3:
	movss	DWORD PTR [rsp+8], xmm0
	push	rdi
	sub	rsp, 48					; 00000030H

; 311  : 		return detail::compute_abs<genFIType, std::numeric_limits<genFIType>::is_signed>::call(x);

	movss	xmm0, DWORD PTR x$[rsp]
	call	?call@?$compute_abs@M$00@detail@glm@@SAMM@Z ; glm::detail::compute_abs<float,1>::call

; 312  : 	}

	add	rsp, 48					; 00000030H
	pop	rdi
	ret	0
??$abs@M@glm@@YAMM@Z ENDP				; glm::abs<float>
_TEXT	ENDS
; Function compile flags: /Odtp /RTCsu
; File C:\Users\ksart\OneDrive\Desktop\FlappyBird\libraries\external\glm\glm\gtc\epsilon.inl
;	COMDAT ??$epsilonEqual@M@glm@@YA_NAEBM00@Z
_TEXT	SEGMENT
tv68 = 32
x$ = 64
y$ = 72
epsilon$ = 80
??$epsilonEqual@M@glm@@YA_NAEBM00@Z PROC		; glm::epsilonEqual<float>, COMDAT

; 21   : 	{

$LN5:
	mov	QWORD PTR [rsp+24], r8
	mov	QWORD PTR [rsp+16], rdx
	mov	QWORD PTR [rsp+8], rcx
	push	rdi
	sub	rsp, 48					; 00000030H

; 22   : 		return abs(x - y) < epsilon;

	mov	rax, QWORD PTR x$[rsp]
	mov	rcx, QWORD PTR y$[rsp]
	movss	xmm0, DWORD PTR [rax]
	subss	xmm0, DWORD PTR [rcx]
	call	??$abs@M@glm@@YAMM@Z			; glm::abs<float>
	mov	rax, QWORD PTR epsilon$[rsp]
	movss	xmm1, DWORD PTR [rax]
	comiss	xmm1, xmm0
	jbe	SHORT $LN3@epsilonEqu
	mov	DWORD PTR tv68[rsp], 1
	jmp	SHORT $LN4@epsilonEqu
$LN3@epsilonEqu:
	mov	DWORD PTR tv68[rsp], 0
$LN4@epsilonEqu:
	movzx	eax, BYTE PTR tv68[rsp]

; 23   : 	}

	add	rsp, 48					; 00000030H
	pop	rdi
	ret	0
??$epsilonEqual@M@glm@@YA_NAEBM00@Z ENDP		; glm::epsilonEqual<float>
_TEXT	ENDS
; Function compile flags: /Odtp /RTCsu
; File C:\Users\ksart\OneDrive\Desktop\FlappyBird\libraries\external\glm\glm\detail\type_vec4.inl
;	COMDAT ??0?$tvec4@M$0A@@glm@@QEAA@MMMM@Z
_TEXT	SEGMENT
this$ = 16
a$ = 24
b$ = 32
c$ = 40
d$ = 48
??0?$tvec4@M$0A@@glm@@QEAA@MMMM@Z PROC			; glm::tvec4<float,0>::tvec4<float,0>, COMDAT

; 193  : 	{}

$LN3:
	movss	DWORD PTR [rsp+32], xmm3
	movss	DWORD PTR [rsp+24], xmm2
	movss	DWORD PTR [rsp+16], xmm1
	mov	QWORD PTR [rsp+8], rcx
	push	rdi

; 192  : 		: x(a), y(b), z(c), w(d)

	mov	rax, QWORD PTR this$[rsp]
	movss	xmm0, DWORD PTR a$[rsp]
	movss	DWORD PTR [rax], xmm0
	mov	rax, QWORD PTR this$[rsp]
	movss	xmm0, DWORD PTR b$[rsp]
	movss	DWORD PTR [rax+4], xmm0
	mov	rax, QWORD PTR this$[rsp]
	movss	xmm0, DWORD PTR c$[rsp]
	movss	DWORD PTR [rax+8], xmm0
	mov	rax, QWORD PTR this$[rsp]
	movss	xmm0, DWORD PTR d$[rsp]
	movss	DWORD PTR [rax+12], xmm0

; 193  : 	{}

	mov	rax, QWORD PTR this$[rsp]
	pop	rdi
	ret	0
??0?$tvec4@M$0A@@glm@@QEAA@MMMM@Z ENDP			; glm::tvec4<float,0>::tvec4<float,0>
_TEXT	ENDS
; Function compile flags: /Odtp /RTCsu
; File C:\Users\ksart\OneDrive\Desktop\FlappyBird\libraries\external\glm\glm\detail\type_vec4.inl
;	COMDAT ??0?$tvec4@M$0A@@glm@@QEAA@M@Z
_TEXT	SEGMENT
this$ = 16
scalar$ = 24
??0?$tvec4@M$0A@@glm@@QEAA@M@Z PROC			; glm::tvec4<float,0>::tvec4<float,0>, COMDAT

; 188  : 	{}

$LN3:
	movss	DWORD PTR [rsp+16], xmm1
	mov	QWORD PTR [rsp+8], rcx
	push	rdi

; 187  : 		: x(scalar), y(scalar), z(scalar), w(scalar)

	mov	rax, QWORD PTR this$[rsp]
	movss	xmm0, DWORD PTR scalar$[rsp]
	movss	DWORD PTR [rax], xmm0
	mov	rax, QWORD PTR this$[rsp]
	movss	xmm0, DWORD PTR scalar$[rsp]
	movss	DWORD PTR [rax+4], xmm0
	mov	rax, QWORD PTR this$[rsp]
	movss	xmm0, DWORD PTR scalar$[rsp]
	movss	DWORD PTR [rax+8], xmm0
	mov	rax, QWORD PTR this$[rsp]
	movss	xmm0, DWORD PTR scalar$[rsp]
	movss	DWORD PTR [rax+12], xmm0

; 188  : 	{}

	mov	rax, QWORD PTR this$[rsp]
	pop	rdi
	ret	0
??0?$tvec4@M$0A@@glm@@QEAA@M@Z ENDP			; glm::tvec4<float,0>::tvec4<float,0>
_TEXT	ENDS
; Function compile flags: /Odtp /RTCsu
; File C:\Users\ksart\OneDrive\Desktop\FlappyBird\libraries\external\glm\glm\detail\type_vec4.inl
;	COMDAT ??A?$tvec4@M$0A@@glm@@QEBAAEBMH@Z
_TEXT	SEGMENT
this$ = 48
i$ = 56
??A?$tvec4@M$0A@@glm@@QEBAAEBMH@Z PROC			; glm::tvec4<float,0>::operator[], COMDAT

; 336  : 	{

$LN5:
	mov	DWORD PTR [rsp+16], edx
	mov	QWORD PTR [rsp+8], rcx
	push	rdi
	sub	rsp, 32					; 00000020H

; 337  : 		assert(i >= 0 && i < this->length());

	cmp	DWORD PTR i$[rsp], 0
	jl	SHORT $LN3@operator
	call	?length@?$tvec4@M$0A@@glm@@SAHXZ	; glm::tvec4<float,0>::length
	cmp	DWORD PTR i$[rsp], eax
	jl	SHORT $LN4@operator
$LN3@operator:
	mov	r8d, 337				; 00000151H
	lea	rdx, OFFSET FLAT:??_C@_1LG@LAANPDHN@?$AAC?$AA?3?$AA?2?$AAU?$AAs?$AAe?$AAr?$AAs?$AA?2?$AAk?$AAs?$AAa?$AAr?$AAt?$AA?2@
	lea	rcx, OFFSET FLAT:??_C@_1DK@BGNCJAPL@?$AAi?$AA?5?$AA?$DO?$AA?$DN?$AA?5?$AA0?$AA?5?$AA?$CG?$AA?$CG?$AA?5?$AAi?$AA?5?$AA?$DM?$AA?5?$AAt@
	call	QWORD PTR __imp__wassert
	xor	eax, eax
$LN4@operator:

; 338  : 		return (&x)[i];

	movsxd	rax, DWORD PTR i$[rsp]
	mov	rcx, QWORD PTR this$[rsp]
	lea	rax, QWORD PTR [rcx+rax*4]

; 339  : 	}

	add	rsp, 32					; 00000020H
	pop	rdi
	ret	0
??A?$tvec4@M$0A@@glm@@QEBAAEBMH@Z ENDP			; glm::tvec4<float,0>::operator[]
_TEXT	ENDS
; Function compile flags: /Odtp /RTCsu
; File C:\Users\ksart\OneDrive\Desktop\FlappyBird\libraries\external\glm\glm\detail\type_vec4.hpp
;	COMDAT ?length@?$tvec4@M$0A@@glm@@SAHXZ
_TEXT	SEGMENT
?length@?$tvec4@M$0A@@glm@@SAHXZ PROC			; glm::tvec4<float,0>::length, COMDAT

; 85   : 		GLM_FUNC_DECL static length_type length(){return 4;}

$LN3:
	push	rdi
	mov	eax, 4
	pop	rdi
	ret	0
?length@?$tvec4@M$0A@@glm@@SAHXZ ENDP			; glm::tvec4<float,0>::length
_TEXT	ENDS
; Function compile flags: /Odtp /RTCsu
; File C:\Users\ksart\OneDrive\Desktop\FlappyBird\libraries\external\glm\glm\detail\type_vec2.inl
;	COMDAT ??0?$tvec2@M$0A@@glm@@QEAA@MM@Z
_TEXT	SEGMENT
this$ = 16
s1$ = 24
s2$ = 32
??0?$tvec2@M$0A@@glm@@QEAA@MM@Z PROC			; glm::tvec2<float,0>::tvec2<float,0>, COMDAT

; 57   : 	{}

$LN3:
	movss	DWORD PTR [rsp+24], xmm2
	movss	DWORD PTR [rsp+16], xmm1
	mov	QWORD PTR [rsp+8], rcx
	push	rdi

; 56   : 		: x(s1), y(s2)

	mov	rax, QWORD PTR this$[rsp]
	movss	xmm0, DWORD PTR s1$[rsp]
	movss	DWORD PTR [rax], xmm0
	mov	rax, QWORD PTR this$[rsp]
	movss	xmm0, DWORD PTR s2$[rsp]
	movss	DWORD PTR [rax+4], xmm0

; 57   : 	{}

	mov	rax, QWORD PTR this$[rsp]
	pop	rdi
	ret	0
??0?$tvec2@M$0A@@glm@@QEAA@MM@Z ENDP			; glm::tvec2<float,0>::tvec2<float,0>
_TEXT	ENDS
; Function compile flags: /Odtp /RTCsu
; File C:\Users\ksart\OneDrive\Desktop\FlappyBird\libraries\external\glm\glm\detail\type_vec2.inl
;	COMDAT ??0?$tvec2@M$0A@@glm@@QEAA@M@Z
_TEXT	SEGMENT
this$ = 16
scalar$ = 24
??0?$tvec2@M$0A@@glm@@QEAA@M@Z PROC			; glm::tvec2<float,0>::tvec2<float,0>, COMDAT

; 52   : 	{}

$LN3:
	movss	DWORD PTR [rsp+16], xmm1
	mov	QWORD PTR [rsp+8], rcx
	push	rdi

; 51   : 		: x(scalar), y(scalar)

	mov	rax, QWORD PTR this$[rsp]
	movss	xmm0, DWORD PTR scalar$[rsp]
	movss	DWORD PTR [rax], xmm0
	mov	rax, QWORD PTR this$[rsp]
	movss	xmm0, DWORD PTR scalar$[rsp]
	movss	DWORD PTR [rax+4], xmm0

; 52   : 	{}

	mov	rax, QWORD PTR this$[rsp]
	pop	rdi
	ret	0
??0?$tvec2@M$0A@@glm@@QEAA@M@Z ENDP			; glm::tvec2<float,0>::tvec2<float,0>
_TEXT	ENDS
; Function compile flags: /Odtp /RTCsu
; File C:\Users\ksart\OneDrive\Desktop\FlappyBird\libraries\external\glm\glm\detail\type_vec2.inl
;	COMDAT ??A?$tvec2@M$0A@@glm@@QEBAAEBMH@Z
_TEXT	SEGMENT
this$ = 48
i$ = 56
??A?$tvec2@M$0A@@glm@@QEBAAEBMH@Z PROC			; glm::tvec2<float,0>::operator[], COMDAT

; 109  : 	{

$LN5:
	mov	DWORD PTR [rsp+16], edx
	mov	QWORD PTR [rsp+8], rcx
	push	rdi
	sub	rsp, 32					; 00000020H

; 110  : 		assert(i >= 0 && i < this->length());

	cmp	DWORD PTR i$[rsp], 0
	jl	SHORT $LN3@operator
	call	?length@?$tvec2@M$0A@@glm@@SAHXZ	; glm::tvec2<float,0>::length
	cmp	DWORD PTR i$[rsp], eax
	jl	SHORT $LN4@operator
$LN3@operator:
	mov	r8d, 110				; 0000006eH
	lea	rdx, OFFSET FLAT:??_C@_1LG@FPDAFGJN@?$AAC?$AA?3?$AA?2?$AAU?$AAs?$AAe?$AAr?$AAs?$AA?2?$AAk?$AAs?$AAa?$AAr?$AAt?$AA?2@
	lea	rcx, OFFSET FLAT:??_C@_1DK@BGNCJAPL@?$AAi?$AA?5?$AA?$DO?$AA?$DN?$AA?5?$AA0?$AA?5?$AA?$CG?$AA?$CG?$AA?5?$AAi?$AA?5?$AA?$DM?$AA?5?$AAt@
	call	QWORD PTR __imp__wassert
	xor	eax, eax
$LN4@operator:

; 111  : 		return (&x)[i];

	movsxd	rax, DWORD PTR i$[rsp]
	mov	rcx, QWORD PTR this$[rsp]
	lea	rax, QWORD PTR [rcx+rax*4]

; 112  : 	}

	add	rsp, 32					; 00000020H
	pop	rdi
	ret	0
??A?$tvec2@M$0A@@glm@@QEBAAEBMH@Z ENDP			; glm::tvec2<float,0>::operator[]
_TEXT	ENDS
; Function compile flags: /Odtp /RTCsu
; File C:\Users\ksart\OneDrive\Desktop\FlappyBird\libraries\external\glm\glm\detail\type_vec2.hpp
;	COMDAT ?length@?$tvec2@M$0A@@glm@@SAHXZ
_TEXT	SEGMENT
?length@?$tvec2@M$0A@@glm@@SAHXZ PROC			; glm::tvec2<float,0>::length, COMDAT

; 82   : 		GLM_FUNC_DECL static length_type length(){return 2;}

$LN3:
	push	rdi
	mov	eax, 2
	pop	rdi
	ret	0
?length@?$tvec2@M$0A@@glm@@SAHXZ ENDP			; glm::tvec2<float,0>::length
_TEXT	ENDS
; Function compile flags: /Odtp /RTCsu
; File C:\Program Files\Microsoft Visual Studio\2022\Community\VC\Tools\MSVC\14.32.31326\include\cmath
;	COMDAT ?log2@@YAMM@Z
_TEXT	SEGMENT
_Xx$ = 64
?log2@@YAMM@Z PROC					; log2, COMDAT

; 190  : _NODISCARD _Check_return_ inline float log2(_In_ float _Xx) noexcept /* strengthened */ {

$LN3:
	movss	DWORD PTR [rsp+8], xmm0
	push	rdi
	sub	rsp, 48					; 00000030H

; 191  :     return _CSTD log2f(_Xx);

	movss	xmm0, DWORD PTR _Xx$[rsp]
	call	QWORD PTR __imp_log2f

; 192  : }

	add	rsp, 48					; 00000030H
	pop	rdi
	ret	0
?log2@@YAMM@Z ENDP					; log2
_TEXT	ENDS
; Function compile flags: /Odtp /RTCsu
; File C:\Program Files\Microsoft Visual Studio\2022\Community\VC\Tools\MSVC\14.32.31326\include\cmath
;	COMDAT ?log@@YAMM@Z
_TEXT	SEGMENT
_Xx$ = 64
?log@@YAMM@Z PROC					; log, COMDAT

; 178  : _NODISCARD _Check_return_ inline float log(_In_ float _Xx) noexcept /* strengthened */ {

$LN3:
	movss	DWORD PTR [rsp+8], xmm0
	push	rdi
	sub	rsp, 48					; 00000030H

; 179  :     return _CSTD logf(_Xx);

	movss	xmm0, DWORD PTR _Xx$[rsp]
	call	QWORD PTR __imp_logf

; 180  : }

	add	rsp, 48					; 00000030H
	pop	rdi
	ret	0
?log@@YAMM@Z ENDP					; log
_TEXT	ENDS
END
