; Listing generated by Microsoft (R) Optimizing Compiler Version 19.32.31329.0 

include listing.inc

INCLUDELIB MSVCRTD

CONST	SEGMENT
$SG90870 DB	'>: ', 00H
$SG90872 DB	'>: ', 00H
$SG90871 DB	'mat4x4<', 00H
$SG90873 DB	'mat4x3<', 00H
$SG90874 DB	'>: ', 00H
$SG90876 DB	'>: ', 00H
$SG90875 DB	'mat4x2<', 00H
$SG90877 DB	'mat3x4<', 00H
$SG90878 DB	'>: ', 00H
$SG90880 DB	'>: ', 00H
$SG90879 DB	'mat3x3<', 00H
$SG90881 DB	'mat3x2<', 00H
$SG90882 DB	'>: ', 00H
$SG90884 DB	'>: ', 00H
$SG90883 DB	'mat2x4<', 00H
$SG90885 DB	'mat2x3<', 00H
$SG90886 DB	'>: ', 00H
$SG90888 DB	'>: ', 00H
$SG90887 DB	'mat2x2<', 00H
$SG90889 DB	'mat4x4<', 00H
$SG90890 DB	'>: ', 00H
$SG90892 DB	'>: ', 00H
$SG90891 DB	'mat4x3<', 00H
$SG90893 DB	'mat4x2<', 00H
$SG90894 DB	'>: ', 00H
$SG90896 DB	'>: ', 00H
$SG90895 DB	'mat3x4<', 00H
$SG90897 DB	'mat3x3<', 00H
$SG90898 DB	'>: ', 00H
$SG90900 DB	'>: ', 00H
$SG90899 DB	'mat3x2<', 00H
$SG90901 DB	'mat2x4<', 00H
$SG90902 DB	'>: ', 00H
$SG90904 DB	'>: ', 00H
$SG90903 DB	'mat2x3<', 00H
$SG90905 DB	'mat2x2<', 00H
$SG93426 DB	'quat', 00H
	ORG $+3
$SG93060 DB	'C:\Program Files\Microsoft Visual Studio\2022\Community\'
	DB	'VC\Tools\MSVC\14.32.31326\include\xlocale', 00H
	ORG $+2
$SG93429 DB	'vec2', 00H
	ORG $+3
$SG93432 DB	'vec3', 00H
	ORG $+3
$SG93435 DB	'vec4', 00H
	ORG $+3
$SG93438 DB	'mat2x2', 00H
	ORG $+1
$SG93441 DB	'mat2x3', 00H
	ORG $+1
$SG93444 DB	'mat2x4', 00H
	ORG $+1
$SG93447 DB	'mat3x2', 00H
	ORG $+1
$SG93450 DB	'mat3x3', 00H
	ORG $+1
$SG93453 DB	'mat3x4', 00H
	ORG $+1
$SG93456 DB	'mat4x2', 00H
	ORG $+1
$SG93459 DB	'mat4x3', 00H
	ORG $+1
$SG93462 DB	'mat4x4', 00H
	ORG $+1
$SG85623 DB	': ', 00H
	ORG $+1
$SG93463 DB	'unknown', 00H
$SG93725 DB	'quat', 00H
	ORG $+3
$SG93728 DB	'vec2', 00H
	ORG $+3
$SG93731 DB	'vec3', 00H
	ORG $+3
$SG93734 DB	'vec4', 00H
	ORG $+3
$SG93737 DB	'mat2x2', 00H
	ORG $+1
$SG93740 DB	'mat2x3', 00H
	ORG $+1
$SG93743 DB	'mat2x4', 00H
	ORG $+1
$SG93746 DB	'mat3x2', 00H
	ORG $+1
$SG93749 DB	'mat3x3', 00H
	ORG $+1
$SG93752 DB	'mat3x4', 00H
	ORG $+1
$SG93755 DB	'mat4x2', 00H
	ORG $+1
$SG93758 DB	'mat4x3', 00H
	ORG $+1
$SG93761 DB	'mat4x4', 00H
	ORG $+1
$SG93762 DB	'unknown', 00H
$SG85624 DB	': ', 00H
	ORG $+1
$SG85759 DB	': ', 00H
	ORG $+1
$SG85760 DB	': ', 00H
	ORG $+1
$SG85871 DB	': ', 00H
	ORG $+1
$SG85872 DB	': ', 00H
	ORG $+1
$SG85916 DB	': ', 00H
	ORG $+1
$SG85917 DB	': ', 00H
	ORG $+1
$SG86028 DB	': ', 00H
	ORG $+1
$SG86029 DB	': ', 00H
	ORG $+1
$SG86073 DB	': ', 00H
	ORG $+1
$SG86074 DB	': ', 00H
	ORG $+1
$SG86362 DB	': ', 00H
	ORG $+1
$SG86363 DB	': ', 00H
	ORG $+1
$SG86364 DB	': ', 00H
	ORG $+1
$SG86365 DB	': ', 00H
	ORG $+1
$SG86366 DB	': ', 00H
	ORG $+1
$SG86367 DB	': ', 00H
	ORG $+1
$SG86450 DB	': ', 00H
	ORG $+1
$SG86451 DB	': ', 00H
	ORG $+1
$SG86452 DB	': ', 00H
	ORG $+1
$SG86453 DB	': ', 00H
	ORG $+1
$SG86454 DB	': ', 00H
	ORG $+1
$SG86455 DB	': ', 00H
	ORG $+1
$SG94723 DB	'quat', 00H
	ORG $+3
$SG94726 DB	'vec2', 00H
	ORG $+3
$SG94729 DB	'vec3', 00H
	ORG $+3
$SG94732 DB	'vec4', 00H
	ORG $+3
$SG94735 DB	'mat2x2', 00H
	ORG $+1
$SG94738 DB	'mat2x3', 00H
	ORG $+1
$SG94741 DB	'mat2x4', 00H
	ORG $+1
$SG94744 DB	'mat3x2', 00H
	ORG $+1
$SG94747 DB	'mat3x3', 00H
	ORG $+1
$SG94750 DB	'mat3x4', 00H
	ORG $+1
$SG94753 DB	'mat4x2', 00H
	ORG $+1
$SG94756 DB	'mat4x3', 00H
	ORG $+1
$SG94759 DB	'mat4x4', 00H
	ORG $+1
$SG87106 DB	': ', 00H
	ORG $+1
$SG94760 DB	'unknown', 00H
$SG94795 DB	'quat', 00H
	ORG $+3
$SG94798 DB	'vec2', 00H
	ORG $+3
$SG94801 DB	'vec3', 00H
	ORG $+3
$SG94804 DB	'vec4', 00H
	ORG $+3
$SG94807 DB	'mat2x2', 00H
	ORG $+1
$SG94810 DB	'mat2x3', 00H
	ORG $+1
$SG94813 DB	'mat2x4', 00H
	ORG $+1
$SG94816 DB	'mat3x2', 00H
	ORG $+1
$SG94819 DB	'mat3x3', 00H
	ORG $+1
$SG94822 DB	'mat3x4', 00H
	ORG $+1
$SG94825 DB	'mat4x2', 00H
	ORG $+1
$SG94828 DB	'mat4x3', 00H
	ORG $+1
$SG94831 DB	'mat4x4', 00H
	ORG $+1
$SG94832 DB	'unknown', 00H
$SG87107 DB	': ', 00H
	ORG $+1
$SG87108 DB	': ', 00H
	ORG $+1
$SG87109 DB	': ', 00H
	ORG $+1
$SG87110 DB	': ', 00H
	ORG $+1
$SG87111 DB	': ', 00H
	ORG $+1
$SG87194 DB	': ', 00H
	ORG $+1
$SG87195 DB	': ', 00H
	ORG $+1
$SG87196 DB	': ', 00H
	ORG $+1
$SG87197 DB	': ', 00H
	ORG $+1
$SG87198 DB	': ', 00H
	ORG $+1
$SG87199 DB	': ', 00H
	ORG $+1
$SG95764 DB	'quat', 00H
	ORG $+3
$SG95767 DB	'vec2', 00H
	ORG $+3
$SG95770 DB	'vec3', 00H
	ORG $+3
$SG95773 DB	'vec4', 00H
	ORG $+3
$SG95776 DB	'mat2x2', 00H
	ORG $+1
$SG95779 DB	'mat2x3', 00H
	ORG $+1
$SG95782 DB	'mat2x4', 00H
	ORG $+1
$SG95785 DB	'mat3x2', 00H
	ORG $+1
$SG95788 DB	'mat3x3', 00H
	ORG $+1
$SG95791 DB	'mat3x4', 00H
	ORG $+1
$SG95794 DB	'mat4x2', 00H
	ORG $+1
$SG95797 DB	'mat4x3', 00H
	ORG $+1
$SG95800 DB	'mat4x4', 00H
	ORG $+1
$SG87849 DB	': ', 00H
	ORG $+1
$SG95801 DB	'unknown', 00H
$SG95836 DB	'quat', 00H
	ORG $+3
$SG95839 DB	'vec2', 00H
	ORG $+3
$SG95842 DB	'vec3', 00H
	ORG $+3
$SG95845 DB	'vec4', 00H
	ORG $+3
$SG95848 DB	'mat2x2', 00H
	ORG $+1
$SG95851 DB	'mat2x3', 00H
	ORG $+1
$SG95854 DB	'mat2x4', 00H
	ORG $+1
$SG95857 DB	'mat3x2', 00H
	ORG $+1
$SG95860 DB	'mat3x3', 00H
	ORG $+1
$SG95863 DB	'mat3x4', 00H
	ORG $+1
$SG95866 DB	'mat4x2', 00H
	ORG $+1
$SG95869 DB	'mat4x3', 00H
	ORG $+1
$SG95872 DB	'mat4x4', 00H
	ORG $+1
$SG95873 DB	'unknown', 00H
$SG95923 DB	'quat', 00H
	ORG $+3
$SG95926 DB	'vec2', 00H
	ORG $+3
$SG95929 DB	'vec3', 00H
	ORG $+3
$SG95932 DB	'vec4', 00H
	ORG $+3
$SG95935 DB	'mat2x2', 00H
	ORG $+1
$SG95938 DB	'mat2x3', 00H
	ORG $+1
$SG95941 DB	'mat2x4', 00H
	ORG $+1
$SG95944 DB	'mat3x2', 00H
	ORG $+1
$SG95947 DB	'mat3x3', 00H
	ORG $+1
$SG95950 DB	'mat3x4', 00H
	ORG $+1
$SG95953 DB	'mat4x2', 00H
	ORG $+1
$SG95956 DB	'mat4x3', 00H
	ORG $+1
$SG95959 DB	'mat4x4', 00H
	ORG $+1
$SG95960 DB	'unknown', 00H
$SG95995 DB	'quat', 00H
	ORG $+3
$SG95998 DB	'vec2', 00H
	ORG $+3
$SG96001 DB	'vec3', 00H
	ORG $+3
$SG96004 DB	'vec4', 00H
	ORG $+3
$SG96007 DB	'mat2x2', 00H
	ORG $+1
$SG96010 DB	'mat2x3', 00H
	ORG $+1
$SG96013 DB	'mat2x4', 00H
	ORG $+1
$SG96016 DB	'mat3x2', 00H
	ORG $+1
$SG96019 DB	'mat3x3', 00H
	ORG $+1
$SG96022 DB	'mat3x4', 00H
	ORG $+1
$SG96025 DB	'mat4x2', 00H
	ORG $+1
$SG96028 DB	'mat4x3', 00H
	ORG $+1
$SG96031 DB	'mat4x4', 00H
	ORG $+1
$SG96032 DB	'unknown', 00H
$SG87850 DB	': ', 00H
	ORG $+1
$SG87851 DB	': ', 00H
	ORG $+1
$SG87852 DB	': ', 00H
	ORG $+1
$SG87853 DB	': ', 00H
	ORG $+1
$SG87854 DB	': ', 00H
	ORG $+1
$SG96067 DB	'quat', 00H
	ORG $+3
$SG96070 DB	'vec2', 00H
	ORG $+3
$SG96073 DB	'vec3', 00H
	ORG $+3
$SG96076 DB	'vec4', 00H
	ORG $+3
$SG96079 DB	'mat2x2', 00H
	ORG $+1
$SG96082 DB	'mat2x3', 00H
	ORG $+1
$SG96085 DB	'mat2x4', 00H
	ORG $+1
$SG96088 DB	'mat3x2', 00H
	ORG $+1
$SG96091 DB	'mat3x3', 00H
	ORG $+1
$SG96094 DB	'mat3x4', 00H
	ORG $+1
$SG96097 DB	'mat4x2', 00H
	ORG $+1
$SG96100 DB	'mat4x3', 00H
	ORG $+1
$SG96103 DB	'mat4x4', 00H
	ORG $+1
$SG87937 DB	': ', 00H
	ORG $+1
$SG96104 DB	'unknown', 00H
$SG87938 DB	': ', 00H
	ORG $+1
$SG87939 DB	': ', 00H
	ORG $+1
$SG87940 DB	': ', 00H
	ORG $+1
$SG87941 DB	': ', 00H
	ORG $+1
$SG87942 DB	': ', 00H
	ORG $+1
$SG96139 DB	'quat', 00H
	ORG $+3
$SG96142 DB	'vec2', 00H
	ORG $+3
$SG96145 DB	'vec3', 00H
	ORG $+3
$SG96148 DB	'vec4', 00H
	ORG $+3
$SG96151 DB	'mat2x2', 00H
	ORG $+1
$SG96154 DB	'mat2x3', 00H
	ORG $+1
$SG96157 DB	'mat2x4', 00H
	ORG $+1
$SG96160 DB	'mat3x2', 00H
	ORG $+1
$SG96163 DB	'mat3x3', 00H
	ORG $+1
$SG96166 DB	'mat3x4', 00H
	ORG $+1
$SG96169 DB	'mat4x2', 00H
	ORG $+1
$SG96172 DB	'mat4x3', 00H
	ORG $+1
$SG96175 DB	'mat4x4', 00H
	ORG $+1
$SG97221 DB	'uhi', 00H
$SG96176 DB	'unknown', 00H
$SG96211 DB	'quat', 00H
	ORG $+3
$SG96214 DB	'vec2', 00H
	ORG $+3
$SG96217 DB	'vec3', 00H
	ORG $+3
$SG96220 DB	'vec4', 00H
	ORG $+3
$SG96223 DB	'mat2x2', 00H
	ORG $+1
$SG96226 DB	'mat2x3', 00H
	ORG $+1
$SG96229 DB	'mat2x4', 00H
	ORG $+1
$SG96232 DB	'mat3x2', 00H
	ORG $+1
$SG96235 DB	'mat3x3', 00H
	ORG $+1
$SG96238 DB	'mat3x4', 00H
	ORG $+1
$SG96241 DB	'mat4x2', 00H
	ORG $+1
$SG96244 DB	'mat4x3', 00H
	ORG $+1
$SG96247 DB	'mat4x4', 00H
	ORG $+1
$SG96248 DB	'unknown', 00H
$SG96283 DB	'quat', 00H
	ORG $+3
$SG96286 DB	'vec2', 00H
	ORG $+3
$SG96289 DB	'vec3', 00H
	ORG $+3
$SG96292 DB	'vec4', 00H
	ORG $+3
$SG96295 DB	'mat2x2', 00H
	ORG $+1
$SG96298 DB	'mat2x3', 00H
	ORG $+1
$SG96301 DB	'mat2x4', 00H
	ORG $+1
$SG96304 DB	'mat3x2', 00H
	ORG $+1
$SG96307 DB	'mat3x3', 00H
	ORG $+1
$SG96310 DB	'mat3x4', 00H
	ORG $+1
$SG96313 DB	'mat4x2', 00H
	ORG $+1
$SG96316 DB	'mat4x3', 00H
	ORG $+1
$SG96319 DB	'mat4x4', 00H
	ORG $+1
$SG96320 DB	'unknown', 00H
$SG96355 DB	'quat', 00H
	ORG $+3
$SG96358 DB	'vec2', 00H
	ORG $+3
$SG96361 DB	'vec3', 00H
	ORG $+3
$SG96364 DB	'vec4', 00H
	ORG $+3
$SG96367 DB	'mat2x2', 00H
	ORG $+1
$SG96370 DB	'mat2x3', 00H
	ORG $+1
$SG96373 DB	'mat2x4', 00H
	ORG $+1
$SG96376 DB	'mat3x2', 00H
	ORG $+1
$SG96379 DB	'mat3x3', 00H
	ORG $+1
$SG96382 DB	'mat3x4', 00H
	ORG $+1
$SG96385 DB	'mat4x2', 00H
	ORG $+1
$SG96388 DB	'mat4x3', 00H
	ORG $+1
$SG96391 DB	'mat4x4', 00H
	ORG $+1
$SG96392 DB	'unknown', 00H
$SG96427 DB	'quat', 00H
	ORG $+3
$SG96430 DB	'vec2', 00H
	ORG $+3
$SG96433 DB	'vec3', 00H
	ORG $+3
$SG96436 DB	'vec4', 00H
	ORG $+3
$SG96439 DB	'mat2x2', 00H
	ORG $+1
$SG96442 DB	'mat2x3', 00H
	ORG $+1
$SG96445 DB	'mat2x4', 00H
	ORG $+1
$SG96448 DB	'mat3x2', 00H
	ORG $+1
$SG96451 DB	'mat3x3', 00H
	ORG $+1
$SG96454 DB	'mat3x4', 00H
	ORG $+1
$SG96457 DB	'mat4x2', 00H
	ORG $+1
$SG96460 DB	'mat4x3', 00H
	ORG $+1
$SG96463 DB	'mat4x4', 00H
	ORG $+1
$SG96464 DB	'unknown', 00H
$SG96499 DB	'quat', 00H
	ORG $+3
$SG96502 DB	'vec2', 00H
	ORG $+3
$SG96505 DB	'vec3', 00H
	ORG $+3
$SG96508 DB	'vec4', 00H
	ORG $+3
$SG96511 DB	'mat2x2', 00H
	ORG $+1
$SG96514 DB	'mat2x3', 00H
	ORG $+1
$SG96517 DB	'mat2x4', 00H
	ORG $+1
$SG96520 DB	'mat3x2', 00H
	ORG $+1
$SG96523 DB	'mat3x3', 00H
	ORG $+1
$SG96526 DB	'mat3x4', 00H
	ORG $+1
$SG96529 DB	'mat4x2', 00H
	ORG $+1
$SG96532 DB	'mat4x3', 00H
	ORG $+1
$SG96535 DB	'mat4x4', 00H
	ORG $+1
$SG96536 DB	'unknown', 00H
$SG96571 DB	'quat', 00H
	ORG $+3
$SG96574 DB	'vec2', 00H
	ORG $+3
$SG96577 DB	'vec3', 00H
	ORG $+3
$SG96580 DB	'vec4', 00H
	ORG $+3
$SG96583 DB	'mat2x2', 00H
	ORG $+1
$SG96586 DB	'mat2x3', 00H
	ORG $+1
$SG96589 DB	'mat2x4', 00H
	ORG $+1
$SG96592 DB	'mat3x2', 00H
	ORG $+1
$SG96595 DB	'mat3x3', 00H
	ORG $+1
$SG96598 DB	'mat3x4', 00H
	ORG $+1
$SG96601 DB	'mat4x2', 00H
	ORG $+1
$SG96604 DB	'mat4x3', 00H
	ORG $+1
$SG96607 DB	'mat4x4', 00H
	ORG $+1
$SG96608 DB	'unknown', 00H
$SG96643 DB	'quat', 00H
	ORG $+3
$SG96646 DB	'vec2', 00H
	ORG $+3
$SG96649 DB	'vec3', 00H
	ORG $+3
$SG96652 DB	'vec4', 00H
	ORG $+3
$SG96655 DB	'mat2x2', 00H
	ORG $+1
$SG96658 DB	'mat2x3', 00H
	ORG $+1
$SG96661 DB	'mat2x4', 00H
	ORG $+1
$SG96664 DB	'mat3x2', 00H
	ORG $+1
$SG96667 DB	'mat3x3', 00H
	ORG $+1
$SG96670 DB	'mat3x4', 00H
	ORG $+1
$SG96673 DB	'mat4x2', 00H
	ORG $+1
$SG96676 DB	'mat4x3', 00H
	ORG $+1
$SG96679 DB	'mat4x4', 00H
	ORG $+1
$SG96680 DB	'unknown', 00H
$SG96715 DB	'quat', 00H
	ORG $+3
$SG96718 DB	'vec2', 00H
	ORG $+3
$SG96721 DB	'vec3', 00H
	ORG $+3
$SG96724 DB	'vec4', 00H
	ORG $+3
$SG96727 DB	'mat2x2', 00H
	ORG $+1
$SG96730 DB	'mat2x3', 00H
	ORG $+1
$SG96733 DB	'mat2x4', 00H
	ORG $+1
$SG96736 DB	'mat3x2', 00H
	ORG $+1
$SG96739 DB	'mat3x3', 00H
	ORG $+1
$SG96742 DB	'mat3x4', 00H
	ORG $+1
$SG96745 DB	'mat4x2', 00H
	ORG $+1
$SG96748 DB	'mat4x3', 00H
	ORG $+1
$SG96751 DB	'mat4x4', 00H
	ORG $+1
$SG96752 DB	'unknown', 00H
$SG96802 DB	'quat', 00H
	ORG $+3
$SG96805 DB	'vec2', 00H
	ORG $+3
$SG96808 DB	'vec3', 00H
	ORG $+3
$SG96811 DB	'vec4', 00H
	ORG $+3
$SG96814 DB	'mat2x2', 00H
	ORG $+1
$SG96817 DB	'mat2x3', 00H
	ORG $+1
$SG96820 DB	'mat2x4', 00H
	ORG $+1
$SG96823 DB	'mat3x2', 00H
	ORG $+1
$SG96826 DB	'mat3x3', 00H
	ORG $+1
$SG96829 DB	'mat3x4', 00H
	ORG $+1
$SG96832 DB	'mat4x2', 00H
	ORG $+1
$SG96835 DB	'mat4x3', 00H
	ORG $+1
$SG96838 DB	'mat4x4', 00H
	ORG $+1
$SG96839 DB	'unknown', 00H
$SG96874 DB	'quat', 00H
	ORG $+3
$SG96877 DB	'vec2', 00H
	ORG $+3
$SG96880 DB	'vec3', 00H
	ORG $+3
$SG96883 DB	'vec4', 00H
	ORG $+3
$SG96886 DB	'mat2x2', 00H
	ORG $+1
$SG96889 DB	'mat2x3', 00H
	ORG $+1
$SG96892 DB	'mat2x4', 00H
	ORG $+1
$SG96895 DB	'mat3x2', 00H
	ORG $+1
$SG96898 DB	'mat3x3', 00H
	ORG $+1
$SG96901 DB	'mat3x4', 00H
	ORG $+1
$SG96904 DB	'mat4x2', 00H
	ORG $+1
$SG96907 DB	'mat4x3', 00H
	ORG $+1
$SG96910 DB	'mat4x4', 00H
	ORG $+1
$SG96911 DB	'unknown', 00H
$SG96946 DB	'quat', 00H
	ORG $+3
$SG96949 DB	'vec2', 00H
	ORG $+3
$SG96952 DB	'vec3', 00H
	ORG $+3
$SG96955 DB	'vec4', 00H
	ORG $+3
$SG96958 DB	'mat2x2', 00H
	ORG $+1
$SG96961 DB	'mat2x3', 00H
	ORG $+1
$SG96964 DB	'mat2x4', 00H
	ORG $+1
$SG96967 DB	'mat3x2', 00H
	ORG $+1
$SG96970 DB	'mat3x3', 00H
	ORG $+1
$SG96973 DB	'mat3x4', 00H
	ORG $+1
$SG96976 DB	'mat4x2', 00H
	ORG $+1
$SG96979 DB	'mat4x3', 00H
	ORG $+1
$SG96982 DB	'mat4x4', 00H
	ORG $+1
$SG96983 DB	'unknown', 00H
$SG97018 DB	'quat', 00H
	ORG $+3
$SG97021 DB	'vec2', 00H
	ORG $+3
$SG97024 DB	'vec3', 00H
	ORG $+3
$SG97027 DB	'vec4', 00H
	ORG $+3
$SG97030 DB	'mat2x2', 00H
	ORG $+1
$SG97033 DB	'mat2x3', 00H
	ORG $+1
$SG97036 DB	'mat2x4', 00H
	ORG $+1
$SG97039 DB	'mat3x2', 00H
	ORG $+1
$SG97042 DB	'mat3x3', 00H
	ORG $+1
$SG97045 DB	'mat3x4', 00H
	ORG $+1
$SG97048 DB	'mat4x2', 00H
	ORG $+1
$SG97051 DB	'mat4x3', 00H
	ORG $+1
$SG97054 DB	'mat4x4', 00H
	ORG $+1
$SG97055 DB	'unknown', 00H
$SG97090 DB	'quat', 00H
	ORG $+3
$SG97093 DB	'vec2', 00H
	ORG $+3
$SG97096 DB	'vec3', 00H
	ORG $+3
$SG97099 DB	'vec4', 00H
	ORG $+3
$SG97102 DB	'mat2x2', 00H
	ORG $+1
$SG97105 DB	'mat2x3', 00H
	ORG $+1
$SG97108 DB	'mat2x4', 00H
	ORG $+1
$SG97111 DB	'mat3x2', 00H
	ORG $+1
$SG97114 DB	'mat3x3', 00H
	ORG $+1
$SG97117 DB	'mat3x4', 00H
	ORG $+1
$SG97120 DB	'mat4x2', 00H
	ORG $+1
$SG97123 DB	'mat4x3', 00H
	ORG $+1
$SG97126 DB	'mat4x4', 00H
	ORG $+1
$SG97127 DB	'unknown', 00H
$SG97162 DB	'quat', 00H
	ORG $+3
$SG97165 DB	'vec2', 00H
	ORG $+3
$SG97168 DB	'vec3', 00H
	ORG $+3
$SG97171 DB	'vec4', 00H
	ORG $+3
$SG97174 DB	'mat2x2', 00H
	ORG $+1
$SG97177 DB	'mat2x3', 00H
	ORG $+1
$SG97180 DB	'mat2x4', 00H
	ORG $+1
$SG97183 DB	'mat3x2', 00H
	ORG $+1
$SG97186 DB	'mat3x3', 00H
	ORG $+1
$SG97189 DB	'mat3x4', 00H
	ORG $+1
$SG97192 DB	'mat4x2', 00H
	ORG $+1
$SG97195 DB	'mat4x3', 00H
	ORG $+1
$SG97198 DB	'mat4x4', 00H
	ORG $+1
$SG97199 DB	'unknown', 00H
$SG97223 DB	'umd', 00H
$SG97225 DB	'ulo', 00H
$SG89127 DB	'>: ', 00H
$SG89129 DB	'>: ', 00H
$SG89128 DB	'mat4x4<', 00H
$SG89130 DB	'mat4x3<', 00H
$SG89131 DB	'>: ', 00H
$SG89133 DB	'>: ', 00H
$SG89132 DB	'mat4x2<', 00H
$SG89134 DB	'mat3x4<', 00H
$SG89135 DB	'>: ', 00H
$SG89137 DB	'>: ', 00H
$SG89136 DB	'mat3x3<', 00H
$SG89138 DB	'mat3x2<', 00H
$SG89139 DB	'>: ', 00H
$SG89141 DB	'>: ', 00H
$SG89140 DB	'mat2x4<', 00H
$SG89142 DB	'mat2x3<', 00H
$SG89143 DB	'>: ', 00H
$SG89145 DB	'>: ', 00H
$SG89144 DB	'mat2x2<', 00H
$SG89146 DB	'mat4x4<', 00H
$SG89147 DB	'>: ', 00H
$SG89149 DB	'>: ', 00H
$SG89148 DB	'mat4x3<', 00H
$SG89150 DB	'mat4x2<', 00H
$SG97343 DB	'uhi', 00H
$SG89151 DB	'>: ', 00H
$SG89152 DB	'mat3x4<', 00H
$SG97345 DB	'umd', 00H
$SG89153 DB	'>: ', 00H
$SG89154 DB	'mat3x3<', 00H
$SG97347 DB	'ulo', 00H
$SG89155 DB	'>: ', 00H
$SG89156 DB	'mat3x2<', 00H
$SG89157 DB	'>: ', 00H
$SG89159 DB	'>: ', 00H
$SG89158 DB	'mat2x4<', 00H
$SG89160 DB	'mat2x3<', 00H
$SG89161 DB	'>: ', 00H
$SG97929 DB	'%s', 00H
	ORG $+1
$SG89162 DB	'mat2x2<', 00H
$SG97928 DB	'invalid argument', 00H
	ORG $+3
$SG97932 DB	00H, 00H
	ORG $+2
$SG97933 DB	'"', 00H, 'i', 00H, 'n', 00H, 'v', 00H, 'a', 00H, 'l', 00H
	DB	'i', 00H, 'd', 00H, ' ', 00H, 'a', 00H, 'r', 00H, 'g', 00H, 'u'
	DB	00H, 'm', 00H, 'e', 00H, 'n', 00H, 't', 00H, '"', 00H, 00H, 00H
	ORG $+2
$SG97930 DB	'C:\Program Files\Microsoft Visual Studio\2022\Community\'
	DB	'VC\Tools\MSVC\14.32.31326\include\xmemory', 00H
	ORG $+14
$SG97931 DB	'C', 00H, ':', 00H, '\', 00H, 'P', 00H, 'r', 00H, 'o', 00H
	DB	'g', 00H, 'r', 00H, 'a', 00H, 'm', 00H, ' ', 00H, 'F', 00H, 'i'
	DB	00H, 'l', 00H, 'e', 00H, 's', 00H, '\', 00H, 'M', 00H, 'i', 00H
	DB	'c', 00H, 'r', 00H, 'o', 00H, 's', 00H, 'o', 00H, 'f', 00H, 't'
	DB	00H, ' ', 00H, 'V', 00H, 'i', 00H, 's', 00H, 'u', 00H, 'a', 00H
	DB	'l', 00H, ' ', 00H, 'S', 00H, 't', 00H, 'u', 00H, 'd', 00H, 'i'
	DB	00H, 'o', 00H, '\', 00H, '2', 00H, '0', 00H, '2', 00H, '2', 00H
	DB	'\', 00H, 'C', 00H, 'o', 00H, 'm', 00H, 'm', 00H, 'u', 00H, 'n'
	DB	00H, 'i', 00H, 't', 00H, 'y', 00H, '\', 00H, 'V', 00H, 'C', 00H
	DB	'\', 00H, 'T', 00H, 'o', 00H, 'o', 00H, 'l', 00H, 's', 00H, '\'
	DB	00H, 'M', 00H, 'S', 00H, 'V', 00H, 'C', 00H, '\', 00H, '1', 00H
	DB	'4', 00H, '.', 00H, '3', 00H, '2', 00H, '.', 00H, '3', 00H, '1'
	DB	00H, '3', 00H, '2', 00H, '6', 00H, '\', 00H, 'i', 00H, 'n', 00H
	DB	'c', 00H, 'l', 00H, 'u', 00H, 'd', 00H, 'e', 00H, '\', 00H, 'x'
	DB	00H, 'm', 00H, 'e', 00H, 'm', 00H, 'o', 00H, 'r', 00H, 'y', 00H
	DB	00H, 00H
CONST	ENDS
PUBLIC	??_H@YAXPEAX_K1P6APEAX0@Z@Z			; `vector constructor iterator'
PUBLIC	?__empty_global_delete@@YAXPEAX@Z		; __empty_global_delete
PUBLIC	?__empty_global_delete@@YAXPEAX_K@Z		; __empty_global_delete
PUBLIC	wmemcpy
PUBLIC	?max@?$numeric_limits@_J@std@@SA_JXZ		; std::numeric_limits<__int64>::max
PUBLIC	??2@YAPEAX_KPEAX@Z				; operator new
PUBLIC	?length@?$tvec2@M$0A@@glm@@SAHXZ		; glm::tvec2<float,0>::length
PUBLIC	??A?$tvec2@M$0A@@glm@@QEAAAEAMH@Z		; glm::tvec2<float,0>::operator[]
PUBLIC	??A?$tvec2@M$0A@@glm@@QEBAAEBMH@Z		; glm::tvec2<float,0>::operator[]
PUBLIC	??0?$tvec2@M$0A@@glm@@QEAA@XZ			; glm::tvec2<float,0>::tvec2<float,0>
PUBLIC	?length@?$tvec4@M$0A@@glm@@SAHXZ		; glm::tvec4<float,0>::length
PUBLIC	??A?$tvec4@M$0A@@glm@@QEAAAEAMH@Z		; glm::tvec4<float,0>::operator[]
PUBLIC	??A?$tvec4@M$0A@@glm@@QEBAAEBMH@Z		; glm::tvec4<float,0>::operator[]
PUBLIC	??0?$tvec4@M$0A@@glm@@QEAA@XZ			; glm::tvec4<float,0>::tvec4<float,0>
PUBLIC	??0exception@std@@QEAA@QEBDH@Z			; std::exception::exception
PUBLIC	??0exception@std@@QEAA@AEBV01@@Z		; std::exception::exception
PUBLIC	??1exception@std@@UEAA@XZ			; std::exception::~exception
PUBLIC	?what@exception@std@@UEBAPEBDXZ			; std::exception::what
PUBLIC	??_Gexception@std@@UEAAPEAXI@Z			; std::exception::`scalar deleting destructor'
PUBLIC	??0bad_alloc@std@@AEAA@QEBD@Z			; std::bad_alloc::bad_alloc
PUBLIC	??1bad_alloc@std@@UEAA@XZ			; std::bad_alloc::~bad_alloc
PUBLIC	??0bad_alloc@std@@QEAA@AEBV01@@Z		; std::bad_alloc::bad_alloc
PUBLIC	??_Gbad_alloc@std@@UEAAPEAXI@Z			; std::bad_alloc::`scalar deleting destructor'
PUBLIC	??0bad_array_new_length@std@@QEAA@XZ		; std::bad_array_new_length::bad_array_new_length
PUBLIC	??1bad_array_new_length@std@@UEAA@XZ		; std::bad_array_new_length::~bad_array_new_length
PUBLIC	??0bad_array_new_length@std@@QEAA@AEBV01@@Z	; std::bad_array_new_length::bad_array_new_length
PUBLIC	??_Gbad_array_new_length@std@@UEAAPEAXI@Z	; std::bad_array_new_length::`scalar deleting destructor'
PUBLIC	?_Throw_bad_array_new_length@std@@YAXXZ		; std::_Throw_bad_array_new_length
PUBLIC	?_Allocate@_Default_allocate_traits@std@@SAPEAX_K@Z ; std::_Default_allocate_traits::_Allocate
PUBLIC	?_Adjust_manually_vector_aligned@std@@YAXAEAPEAXAEA_K@Z ; std::_Adjust_manually_vector_aligned
PUBLIC	??0_Container_proxy@std@@QEAA@PEAU_Container_base12@1@@Z ; std::_Container_proxy::_Container_proxy
PUBLIC	??0_Container_base12@std@@QEAA@XZ		; std::_Container_base12::_Container_base12
PUBLIC	?_Orphan_all@_Container_base12@std@@QEAAXXZ	; std::_Container_base12::_Orphan_all
PUBLIC	?_Swap_proxy_and_iterators@_Container_base12@std@@QEAAXAEAU12@@Z ; std::_Container_base12::_Swap_proxy_and_iterators
PUBLIC	?_Orphan_all_unlocked_v3@_Container_base12@std@@AEAAXXZ ; std::_Container_base12::_Orphan_all_unlocked_v3
PUBLIC	?_Swap_proxy_and_iterators_unlocked@_Container_base12@std@@AEAAXAEAU12@@Z ; std::_Container_base12::_Swap_proxy_and_iterators_unlocked
PUBLIC	?_Orphan_all_locked_v3@_Container_base12@std@@AEAAXXZ ; std::_Container_base12::_Orphan_all_locked_v3
PUBLIC	?_Swap_proxy_and_iterators_locked@_Container_base12@std@@AEAAXAEAU12@@Z ; std::_Container_base12::_Swap_proxy_and_iterators_locked
PUBLIC	?copy@?$_Char_traits@_WG@std@@SAPEA_WQEA_WQEB_W_K@Z ; std::_Char_traits<wchar_t,unsigned short>::copy
PUBLIC	?move@?$_Char_traits@_WG@std@@SAPEA_WQEA_WQEB_W_K@Z ; std::_Char_traits<wchar_t,unsigned short>::move
PUBLIC	?assign@?$_WChar_traits@_W@std@@SAXAEA_WAEB_W@Z	; std::_WChar_traits<wchar_t>::assign
PUBLIC	?eq@?$_WChar_traits@_W@std@@SA_NAEB_W0@Z	; std::_WChar_traits<wchar_t>::eq
PUBLIC	?to_char_type@?$_WChar_traits@_W@std@@SA_WAEBG@Z ; std::_WChar_traits<wchar_t>::to_char_type
PUBLIC	?to_int_type@?$_WChar_traits@_W@std@@SAGAEB_W@Z	; std::_WChar_traits<wchar_t>::to_int_type
PUBLIC	?eq_int_type@?$_WChar_traits@_W@std@@SA_NAEBG0@Z ; std::_WChar_traits<wchar_t>::eq_int_type
PUBLIC	?not_eof@?$_WChar_traits@_W@std@@SAGAEBG@Z	; std::_WChar_traits<wchar_t>::not_eof
PUBLIC	?eof@?$_WChar_traits@_W@std@@SAGXZ		; std::_WChar_traits<wchar_t>::eof
PUBLIC	?copy@?$_Char_traits@DH@std@@SAPEADQEADQEBD_K@Z	; std::_Char_traits<char,int>::copy
PUBLIC	?move@?$_Char_traits@DH@std@@SAPEADQEADQEBD_K@Z	; std::_Char_traits<char,int>::move
PUBLIC	?length@?$_Narrow_char_traits@DH@std@@SA_KQEBD@Z ; std::_Narrow_char_traits<char,int>::length
PUBLIC	?assign@?$_Narrow_char_traits@DH@std@@SAXAEADAEBD@Z ; std::_Narrow_char_traits<char,int>::assign
PUBLIC	?eq@?$_Narrow_char_traits@DH@std@@SA_NAEBD0@Z	; std::_Narrow_char_traits<char,int>::eq
PUBLIC	?to_char_type@?$_Narrow_char_traits@DH@std@@SADAEBH@Z ; std::_Narrow_char_traits<char,int>::to_char_type
PUBLIC	?to_int_type@?$_Narrow_char_traits@DH@std@@SAHAEBD@Z ; std::_Narrow_char_traits<char,int>::to_int_type
PUBLIC	?eq_int_type@?$_Narrow_char_traits@DH@std@@SA_NAEBH0@Z ; std::_Narrow_char_traits<char,int>::eq_int_type
PUBLIC	?not_eof@?$_Narrow_char_traits@DH@std@@SAHAEBH@Z ; std::_Narrow_char_traits<char,int>::not_eof
PUBLIC	?eof@?$_Narrow_char_traits@DH@std@@SAHXZ	; std::_Narrow_char_traits<char,int>::eof
PUBLIC	?_Xlen_string@std@@YAXXZ			; std::_Xlen_string
PUBLIC	??0?$allocator@D@std@@QEAA@XZ			; std::allocator<char>::allocator<char>
PUBLIC	?deallocate@?$allocator@D@std@@QEAAXQEAD_K@Z	; std::allocator<char>::deallocate
PUBLIC	?allocate@?$allocator@D@std@@QEAAPEAD_K@Z	; std::allocator<char>::allocate
PUBLIC	?max_size@?$_Default_allocator_traits@V?$allocator@D@std@@@std@@SA_KAEBV?$allocator@D@2@@Z ; std::_Default_allocator_traits<std::allocator<char> >::max_size
PUBLIC	??0?$_String_val@U?$_Simple_types@D@std@@@std@@QEAA@XZ ; std::_String_val<std::_Simple_types<char> >::_String_val<std::_Simple_types<char> >
PUBLIC	?_Myptr@?$_String_val@U?$_Simple_types@D@std@@@std@@QEAAPEADXZ ; std::_String_val<std::_Simple_types<char> >::_Myptr
PUBLIC	?_Myptr@?$_String_val@U?$_Simple_types@D@std@@@std@@QEBAPEBDXZ ; std::_String_val<std::_Simple_types<char> >::_Myptr
PUBLIC	?_Large_string_engaged@?$_String_val@U?$_Simple_types@D@std@@@std@@QEBA_NXZ ; std::_String_val<std::_Simple_types<char> >::_Large_string_engaged
PUBLIC	??0_Bxty@?$_String_val@U?$_Simple_types@D@std@@@std@@QEAA@XZ ; std::_String_val<std::_Simple_types<char> >::_Bxty::_Bxty
PUBLIC	??1_Bxty@?$_String_val@U?$_Simple_types@D@std@@@std@@QEAA@XZ ; std::_String_val<std::_Simple_types<char> >::_Bxty::~_Bxty
PUBLIC	??1?$_String_val@U?$_Simple_types@D@std@@@std@@QEAA@XZ ; std::_String_val<std::_Simple_types<char> >::~_String_val<std::_Simple_types<char> >
PUBLIC	??0?$basic_string@DU?$char_traits@D@std@@V?$allocator@D@2@@std@@QEAA@AEBV?$allocator@D@1@@Z ; std::basic_string<char,std::char_traits<char>,std::allocator<char> >::basic_string<char,std::char_traits<char>,std::allocator<char> >
PUBLIC	??0?$basic_string@DU?$char_traits@D@std@@V?$allocator@D@2@@std@@QEAA@$$QEAV01@@Z ; std::basic_string<char,std::char_traits<char>,std::allocator<char> >::basic_string<char,std::char_traits<char>,std::allocator<char> >
PUBLIC	?_Memcpy_val_from@?$basic_string@DU?$char_traits@D@std@@V?$allocator@D@2@@std@@AEAAXAEBV12@@Z ; std::basic_string<char,std::char_traits<char>,std::allocator<char> >::_Memcpy_val_from
PUBLIC	?_Take_contents@?$basic_string@DU?$char_traits@D@std@@V?$allocator@D@2@@std@@AEAAXAEAV12@@Z ; std::basic_string<char,std::char_traits<char>,std::allocator<char> >::_Take_contents
PUBLIC	??1?$basic_string@DU?$char_traits@D@std@@V?$allocator@D@2@@std@@QEAA@XZ ; std::basic_string<char,std::char_traits<char>,std::allocator<char> >::~basic_string<char,std::char_traits<char>,std::allocator<char> >
PUBLIC	?assign@?$basic_string@DU?$char_traits@D@std@@V?$allocator@D@2@@std@@QEAAAEAV12@QEBD_K@Z ; std::basic_string<char,std::char_traits<char>,std::allocator<char> >::assign
PUBLIC	?data@?$basic_string@DU?$char_traits@D@std@@V?$allocator@D@2@@std@@QEBAPEBDXZ ; std::basic_string<char,std::char_traits<char>,std::allocator<char> >::data
PUBLIC	?size@?$basic_string@DU?$char_traits@D@std@@V?$allocator@D@2@@std@@QEBA_KXZ ; std::basic_string<char,std::char_traits<char>,std::allocator<char> >::size
PUBLIC	?max_size@?$basic_string@DU?$char_traits@D@std@@V?$allocator@D@2@@std@@QEBA_KXZ ; std::basic_string<char,std::char_traits<char>,std::allocator<char> >::max_size
PUBLIC	?_Calculate_growth@?$basic_string@DU?$char_traits@D@std@@V?$allocator@D@2@@std@@CA_K_K00@Z ; std::basic_string<char,std::char_traits<char>,std::allocator<char> >::_Calculate_growth
PUBLIC	?_Calculate_growth@?$basic_string@DU?$char_traits@D@std@@V?$allocator@D@2@@std@@AEBA_K_K@Z ; std::basic_string<char,std::char_traits<char>,std::allocator<char> >::_Calculate_growth
PUBLIC	?_Tidy_init@?$basic_string@DU?$char_traits@D@std@@V?$allocator@D@2@@std@@AEAAXXZ ; std::basic_string<char,std::char_traits<char>,std::allocator<char> >::_Tidy_init
PUBLIC	?_Tidy_deallocate@?$basic_string@DU?$char_traits@D@std@@V?$allocator@D@2@@std@@AEAAXXZ ; std::basic_string<char,std::char_traits<char>,std::allocator<char> >::_Tidy_deallocate
PUBLIC	?_Swap_proxy_and_iterators@?$basic_string@DU?$char_traits@D@std@@V?$allocator@D@2@@std@@AEAAXAEAV12@@Z ; std::basic_string<char,std::char_traits<char>,std::allocator<char> >::_Swap_proxy_and_iterators
PUBLIC	?_Getal@?$basic_string@DU?$char_traits@D@std@@V?$allocator@D@2@@std@@AEAAAEAV?$allocator@D@2@XZ ; std::basic_string<char,std::char_traits<char>,std::allocator<char> >::_Getal
PUBLIC	?_Getal@?$basic_string@DU?$char_traits@D@std@@V?$allocator@D@2@@std@@AEBAAEBV?$allocator@D@2@XZ ; std::basic_string<char,std::char_traits<char>,std::allocator<char> >::_Getal
PUBLIC	?_Get_first@?$_Compressed_pair@V?$allocator@D@std@@V?$_String_val@U?$_Simple_types@D@std@@@2@$00@std@@QEAAAEAV?$allocator@D@2@XZ ; std::_Compressed_pair<std::allocator<char>,std::_String_val<std::_Simple_types<char> >,1>::_Get_first
PUBLIC	?_Get_first@?$_Compressed_pair@V?$allocator@D@std@@V?$_String_val@U?$_Simple_types@D@std@@@2@$00@std@@QEBAAEBV?$allocator@D@2@XZ ; std::_Compressed_pair<std::allocator<char>,std::_String_val<std::_Simple_types<char> >,1>::_Get_first
PUBLIC	??1?$_Compressed_pair@V?$allocator@D@std@@V?$_String_val@U?$_Simple_types@D@std@@@2@$00@std@@QEAA@XZ ; std::_Compressed_pair<std::allocator<char>,std::_String_val<std::_Simple_types<char> >,1>::~_Compressed_pair<std::allocator<char>,std::_String_val<std::_Simple_types<char> >,1>
PUBLIC	??0?$allocator@_W@std@@QEAA@XZ			; std::allocator<wchar_t>::allocator<wchar_t>
PUBLIC	?deallocate@?$allocator@_W@std@@QEAAXQEA_W_K@Z	; std::allocator<wchar_t>::deallocate
PUBLIC	?allocate@?$allocator@_W@std@@QEAAPEA_W_K@Z	; std::allocator<wchar_t>::allocate
PUBLIC	?max_size@?$_Default_allocator_traits@V?$allocator@_W@std@@@std@@SA_KAEBV?$allocator@_W@2@@Z ; std::_Default_allocator_traits<std::allocator<wchar_t> >::max_size
PUBLIC	??0?$_String_val@U?$_Simple_types@_W@std@@@std@@QEAA@XZ ; std::_String_val<std::_Simple_types<wchar_t> >::_String_val<std::_Simple_types<wchar_t> >
PUBLIC	?_Myptr@?$_String_val@U?$_Simple_types@_W@std@@@std@@QEAAPEA_WXZ ; std::_String_val<std::_Simple_types<wchar_t> >::_Myptr
PUBLIC	?_Myptr@?$_String_val@U?$_Simple_types@_W@std@@@std@@QEBAPEB_WXZ ; std::_String_val<std::_Simple_types<wchar_t> >::_Myptr
PUBLIC	?_Large_string_engaged@?$_String_val@U?$_Simple_types@_W@std@@@std@@QEBA_NXZ ; std::_String_val<std::_Simple_types<wchar_t> >::_Large_string_engaged
PUBLIC	??0_Bxty@?$_String_val@U?$_Simple_types@_W@std@@@std@@QEAA@XZ ; std::_String_val<std::_Simple_types<wchar_t> >::_Bxty::_Bxty
PUBLIC	??1_Bxty@?$_String_val@U?$_Simple_types@_W@std@@@std@@QEAA@XZ ; std::_String_val<std::_Simple_types<wchar_t> >::_Bxty::~_Bxty
PUBLIC	??1?$_String_val@U?$_Simple_types@_W@std@@@std@@QEAA@XZ ; std::_String_val<std::_Simple_types<wchar_t> >::~_String_val<std::_Simple_types<wchar_t> >
PUBLIC	??0?$basic_string@_WU?$char_traits@_W@std@@V?$allocator@_W@2@@std@@QEAA@AEBV?$allocator@_W@1@@Z ; std::basic_string<wchar_t,std::char_traits<wchar_t>,std::allocator<wchar_t> >::basic_string<wchar_t,std::char_traits<wchar_t>,std::allocator<wchar_t> >
PUBLIC	??0?$basic_string@_WU?$char_traits@_W@std@@V?$allocator@_W@2@@std@@QEAA@$$QEAV01@@Z ; std::basic_string<wchar_t,std::char_traits<wchar_t>,std::allocator<wchar_t> >::basic_string<wchar_t,std::char_traits<wchar_t>,std::allocator<wchar_t> >
PUBLIC	?_Memcpy_val_from@?$basic_string@_WU?$char_traits@_W@std@@V?$allocator@_W@2@@std@@AEAAXAEBV12@@Z ; std::basic_string<wchar_t,std::char_traits<wchar_t>,std::allocator<wchar_t> >::_Memcpy_val_from
PUBLIC	?_Take_contents@?$basic_string@_WU?$char_traits@_W@std@@V?$allocator@_W@2@@std@@AEAAXAEAV12@@Z ; std::basic_string<wchar_t,std::char_traits<wchar_t>,std::allocator<wchar_t> >::_Take_contents
PUBLIC	??1?$basic_string@_WU?$char_traits@_W@std@@V?$allocator@_W@2@@std@@QEAA@XZ ; std::basic_string<wchar_t,std::char_traits<wchar_t>,std::allocator<wchar_t> >::~basic_string<wchar_t,std::char_traits<wchar_t>,std::allocator<wchar_t> >
PUBLIC	?assign@?$basic_string@_WU?$char_traits@_W@std@@V?$allocator@_W@2@@std@@QEAAAEAV12@QEB_W_K@Z ; std::basic_string<wchar_t,std::char_traits<wchar_t>,std::allocator<wchar_t> >::assign
PUBLIC	?data@?$basic_string@_WU?$char_traits@_W@std@@V?$allocator@_W@2@@std@@QEBAPEB_WXZ ; std::basic_string<wchar_t,std::char_traits<wchar_t>,std::allocator<wchar_t> >::data
PUBLIC	?size@?$basic_string@_WU?$char_traits@_W@std@@V?$allocator@_W@2@@std@@QEBA_KXZ ; std::basic_string<wchar_t,std::char_traits<wchar_t>,std::allocator<wchar_t> >::size
PUBLIC	?max_size@?$basic_string@_WU?$char_traits@_W@std@@V?$allocator@_W@2@@std@@QEBA_KXZ ; std::basic_string<wchar_t,std::char_traits<wchar_t>,std::allocator<wchar_t> >::max_size
PUBLIC	?_Calculate_growth@?$basic_string@_WU?$char_traits@_W@std@@V?$allocator@_W@2@@std@@CA_K_K00@Z ; std::basic_string<wchar_t,std::char_traits<wchar_t>,std::allocator<wchar_t> >::_Calculate_growth
PUBLIC	?_Calculate_growth@?$basic_string@_WU?$char_traits@_W@std@@V?$allocator@_W@2@@std@@AEBA_K_K@Z ; std::basic_string<wchar_t,std::char_traits<wchar_t>,std::allocator<wchar_t> >::_Calculate_growth
PUBLIC	?_Tidy_init@?$basic_string@_WU?$char_traits@_W@std@@V?$allocator@_W@2@@std@@AEAAXXZ ; std::basic_string<wchar_t,std::char_traits<wchar_t>,std::allocator<wchar_t> >::_Tidy_init
PUBLIC	?_Tidy_deallocate@?$basic_string@_WU?$char_traits@_W@std@@V?$allocator@_W@2@@std@@AEAAXXZ ; std::basic_string<wchar_t,std::char_traits<wchar_t>,std::allocator<wchar_t> >::_Tidy_deallocate
PUBLIC	?_Swap_proxy_and_iterators@?$basic_string@_WU?$char_traits@_W@std@@V?$allocator@_W@2@@std@@AEAAXAEAV12@@Z ; std::basic_string<wchar_t,std::char_traits<wchar_t>,std::allocator<wchar_t> >::_Swap_proxy_and_iterators
PUBLIC	?_Getal@?$basic_string@_WU?$char_traits@_W@std@@V?$allocator@_W@2@@std@@AEAAAEAV?$allocator@_W@2@XZ ; std::basic_string<wchar_t,std::char_traits<wchar_t>,std::allocator<wchar_t> >::_Getal
PUBLIC	?_Getal@?$basic_string@_WU?$char_traits@_W@std@@V?$allocator@_W@2@@std@@AEBAAEBV?$allocator@_W@2@XZ ; std::basic_string<wchar_t,std::char_traits<wchar_t>,std::allocator<wchar_t> >::_Getal
PUBLIC	?_Get_first@?$_Compressed_pair@V?$allocator@_W@std@@V?$_String_val@U?$_Simple_types@_W@std@@@2@$00@std@@QEAAAEAV?$allocator@_W@2@XZ ; std::_Compressed_pair<std::allocator<wchar_t>,std::_String_val<std::_Simple_types<wchar_t> >,1>::_Get_first
PUBLIC	?_Get_first@?$_Compressed_pair@V?$allocator@_W@std@@V?$_String_val@U?$_Simple_types@_W@std@@@2@$00@std@@QEBAAEBV?$allocator@_W@2@XZ ; std::_Compressed_pair<std::allocator<wchar_t>,std::_String_val<std::_Simple_types<wchar_t> >,1>::_Get_first
PUBLIC	??1?$_Compressed_pair@V?$allocator@_W@std@@V?$_String_val@U?$_Simple_types@_W@std@@@2@$00@std@@QEAA@XZ ; std::_Compressed_pair<std::allocator<wchar_t>,std::_String_val<std::_Simple_types<wchar_t> >,1>::~_Compressed_pair<std::allocator<wchar_t>,std::_String_val<std::_Simple_types<wchar_t> >,1>
PUBLIC	??8type_info@@QEBA_NAEBV0@@Z			; type_info::operator==
PUBLIC	?name@type_info@@QEBAPEBDXZ			; type_info::name
PUBLIC	??0bad_cast@std@@QEAA@XZ			; std::bad_cast::bad_cast
PUBLIC	??1bad_cast@std@@UEAA@XZ			; std::bad_cast::~bad_cast
PUBLIC	??0bad_cast@std@@QEAA@AEBV01@@Z			; std::bad_cast::bad_cast
PUBLIC	??_Gbad_cast@std@@UEAAPEAXI@Z			; std::bad_cast::`scalar deleting destructor'
PUBLIC	?_Throw_bad_cast@std@@YAXXZ			; std::_Throw_bad_cast
PUBLIC	??1locale@std@@QEAA@XZ				; std::locale::~locale
PUBLIC	?_Getfacet@locale@std@@QEBAPEBVfacet@12@_K@Z	; std::locale::_Getfacet
PUBLIC	??$_Maklocstr@_W@std@@YAPEA_WPEBDPEA_WAEBU_Cvtvec@@@Z ; std::_Maklocstr<wchar_t>
PUBLIC	?_Maklocwcs@std@@YAPEA_WPEB_W@Z			; std::_Maklocwcs
PUBLIC	??$_Getvals@_W@?$time_get@DV?$istreambuf_iterator@DU?$char_traits@D@std@@@std@@@std@@IEAAX_WAEBV_Locinfo@1@@Z ; std::time_get<char,std::istreambuf_iterator<char,std::char_traits<char> > >::_Getvals<wchar_t>
PUBLIC	??$_Getvals@_W@?$time_get@_WV?$istreambuf_iterator@_WU?$char_traits@_W@std@@@std@@@std@@IEAAX_WAEBV_Locinfo@1@@Z ; std::time_get<wchar_t,std::istreambuf_iterator<wchar_t,std::char_traits<wchar_t> > >::_Getvals<wchar_t>
PUBLIC	??0precision@io@glm@@QEAA@I@Z			; glm::io::precision::precision
PUBLIC	??0width@io@glm@@QEAA@I@Z			; glm::io::width::width
PUBLIC	??0order@io@glm@@QEAA@W4order_type@12@@Z	; glm::io::order::order
PUBLIC	?fixed@std@@YAAEAVios_base@1@AEAV21@@Z		; std::fixed
PUBLIC	?right@std@@YAAEAVios_base@1@AEAV21@@Z		; std::right
PUBLIC	main
PUBLIC	??$test_io_quat@M$0A@V?$basic_ostream@DU?$char_traits@D@std@@@std@@@@YAHAEAV?$basic_ostream@DU?$char_traits@D@std@@@std@@@Z ; test_io_quat<float,0,std::basic_ostream<char,std::char_traits<char> > >
PUBLIC	??$test_io_quat@M$0A@V?$basic_ostream@_WU?$char_traits@_W@std@@@std@@@@YAHAEAV?$basic_ostream@_WU?$char_traits@_W@std@@@std@@@Z ; test_io_quat<float,0,std::basic_ostream<wchar_t,std::char_traits<wchar_t> > >
PUBLIC	??$test_io_quat@H$00V?$basic_ostream@DU?$char_traits@D@std@@@std@@@@YAHAEAV?$basic_ostream@DU?$char_traits@D@std@@@std@@@Z ; test_io_quat<int,1,std::basic_ostream<char,std::char_traits<char> > >
PUBLIC	??$test_io_quat@H$00V?$basic_ostream@_WU?$char_traits@_W@std@@@std@@@@YAHAEAV?$basic_ostream@_WU?$char_traits@_W@std@@@std@@@Z ; test_io_quat<int,1,std::basic_ostream<wchar_t,std::char_traits<wchar_t> > >
PUBLIC	??$test_io_quat@I$01V?$basic_ostream@DU?$char_traits@D@std@@@std@@@@YAHAEAV?$basic_ostream@DU?$char_traits@D@std@@@std@@@Z ; test_io_quat<unsigned int,2,std::basic_ostream<char,std::char_traits<char> > >
PUBLIC	??$test_io_quat@I$01V?$basic_ostream@_WU?$char_traits@_W@std@@@std@@@@YAHAEAV?$basic_ostream@_WU?$char_traits@_W@std@@@std@@@Z ; test_io_quat<unsigned int,2,std::basic_ostream<wchar_t,std::char_traits<wchar_t> > >
PUBLIC	??$test_io_vec@M$0A@V?$basic_ostream@DU?$char_traits@D@std@@@std@@@@YAHAEAV?$basic_ostream@DU?$char_traits@D@std@@@std@@@Z ; test_io_vec<float,0,std::basic_ostream<char,std::char_traits<char> > >
PUBLIC	??$test_io_vec@M$0A@V?$basic_ostream@_WU?$char_traits@_W@std@@@std@@@@YAHAEAV?$basic_ostream@_WU?$char_traits@_W@std@@@std@@@Z ; test_io_vec<float,0,std::basic_ostream<wchar_t,std::char_traits<wchar_t> > >
PUBLIC	??$test_io_vec@H$00V?$basic_ostream@DU?$char_traits@D@std@@@std@@@@YAHAEAV?$basic_ostream@DU?$char_traits@D@std@@@std@@@Z ; test_io_vec<int,1,std::basic_ostream<char,std::char_traits<char> > >
PUBLIC	??$test_io_vec@H$00V?$basic_ostream@_WU?$char_traits@_W@std@@@std@@@@YAHAEAV?$basic_ostream@_WU?$char_traits@_W@std@@@std@@@Z ; test_io_vec<int,1,std::basic_ostream<wchar_t,std::char_traits<wchar_t> > >
PUBLIC	??$test_io_vec@I$01V?$basic_ostream@DU?$char_traits@D@std@@@std@@@@YAHAEAV?$basic_ostream@DU?$char_traits@D@std@@@std@@@Z ; test_io_vec<unsigned int,2,std::basic_ostream<char,std::char_traits<char> > >
PUBLIC	??$test_io_vec@I$01V?$basic_ostream@_WU?$char_traits@_W@std@@@std@@@@YAHAEAV?$basic_ostream@_WU?$char_traits@_W@std@@@std@@@Z ; test_io_vec<unsigned int,2,std::basic_ostream<wchar_t,std::char_traits<wchar_t> > >
PUBLIC	??$test_io_mat@M$0A@V?$basic_ostream@DU?$char_traits@D@std@@@std@@@@YAHAEAV?$basic_ostream@DU?$char_traits@D@std@@@std@@W4order_type@io@glm@@@Z ; test_io_mat<float,0,std::basic_ostream<char,std::char_traits<char> > >
PUBLIC	??$test_io_mat@M$01V?$basic_ostream@_WU?$char_traits@_W@std@@@std@@@@YAHAEAV?$basic_ostream@_WU?$char_traits@_W@std@@@std@@W4order_type@io@glm@@@Z ; test_io_mat<float,2,std::basic_ostream<wchar_t,std::char_traits<wchar_t> > >
PUBLIC	??$use_facet@V?$ctype@_W@std@@@std@@YAAEBV?$ctype@_W@0@AEBVlocale@0@@Z ; std::use_facet<std::ctype<wchar_t> >
PUBLIC	??0?$fpos@U_Mbstatet@@@std@@QEAA@_J@Z		; std::fpos<_Mbstatet>::fpos<_Mbstatet>
PUBLIC	??B?$fpos@U_Mbstatet@@@std@@QEBA_JXZ		; std::fpos<_Mbstatet>::operator __int64
PUBLIC	??$min@_K@std@@YAAEB_KAEB_K0@Z			; std::min<unsigned __int64>
PUBLIC	?allocate@?$allocator@U_Container_proxy@std@@@std@@QEAAPEAU_Container_proxy@2@_K@Z ; std::allocator<std::_Container_proxy>::allocate
PUBLIC	??$_Delete_plain_internal@V?$allocator@U_Container_proxy@std@@@std@@@std@@YAXAEAV?$allocator@U_Container_proxy@std@@@0@QEAU_Container_proxy@0@@Z ; std::_Delete_plain_internal<std::allocator<std::_Container_proxy> >
PUBLIC	??$?0_W@?$allocator@U_Container_proxy@std@@@std@@QEAA@AEBV?$allocator@_W@1@@Z ; std::allocator<std::_Container_proxy>::allocator<std::_Container_proxy><wchar_t>
PUBLIC	??$move@AEAV?$allocator@_W@std@@@std@@YA$$QEAV?$allocator@_W@0@AEAV10@@Z ; std::move<std::allocator<wchar_t> &>
PUBLIC	??$?0V?$allocator@_W@std@@$$V@?$_Compressed_pair@V?$allocator@_W@std@@V?$_String_val@U?$_Simple_types@_W@std@@@2@$00@std@@QEAA@U_One_then_variadic_args_t@1@$$QEAV?$allocator@_W@1@@Z ; std::_Compressed_pair<std::allocator<wchar_t>,std::_String_val<std::_Simple_types<wchar_t> >,1>::_Compressed_pair<std::allocator<wchar_t>,std::_String_val<std::_Simple_types<wchar_t> >,1><std::allocator<wchar_t> >
PUBLIC	??$_Alloc_proxy@V?$allocator@U_Container_proxy@std@@@std@@@_Container_base12@std@@QEAAX$$QEAV?$allocator@U_Container_proxy@std@@@1@@Z ; std::_Container_base12::_Alloc_proxy<std::allocator<std::_Container_proxy> >
PUBLIC	??$?0D@?$allocator@U_Container_proxy@std@@@std@@QEAA@AEBV?$allocator@D@1@@Z ; std::allocator<std::_Container_proxy>::allocator<std::_Container_proxy><char>
PUBLIC	??$move@AEAV?$allocator@D@std@@@std@@YA$$QEAV?$allocator@D@0@AEAV10@@Z ; std::move<std::allocator<char> &>
PUBLIC	??$?0V?$allocator@D@std@@$$V@?$_Compressed_pair@V?$allocator@D@std@@V?$_String_val@U?$_Simple_types@D@std@@@2@$00@std@@QEAA@U_One_then_variadic_args_t@1@$$QEAV?$allocator@D@1@@Z ; std::_Compressed_pair<std::allocator<char>,std::_String_val<std::_Simple_types<char> >,1>::_Compressed_pair<std::allocator<char>,std::_String_val<std::_Simple_types<char> >,1><std::allocator<char> >
PUBLIC	??$_Unfancy@U_Container_proxy@std@@@std@@YAPEAU_Container_proxy@0@PEAU10@@Z ; std::_Unfancy<std::_Container_proxy>
PUBLIC	??$_Construct_in_place@U_Container_proxy@std@@PEAU_Container_base12@2@@std@@YAXAEAU_Container_proxy@0@$$QEAPEAU_Container_base12@0@@Z ; std::_Construct_in_place<std::_Container_proxy,std::_Container_base12 *>
PUBLIC	??$_Destroy_in_place@PEA_W@std@@YAXAEAPEA_W@Z	; std::_Destroy_in_place<wchar_t *>
PUBLIC	??R<lambda_3fa8b2c8193a0f3144fc4b1b8f243931>@@QEBA@QEA_W_KQEB_W@Z ; <lambda_3fa8b2c8193a0f3144fc4b1b8f243931>::operator()
PUBLIC	??$_Reallocate_for@V<lambda_3fa8b2c8193a0f3144fc4b1b8f243931>@@PEB_W@?$basic_string@_WU?$char_traits@_W@std@@V?$allocator@_W@2@@std@@AEAAAEAV01@_KV<lambda_3fa8b2c8193a0f3144fc4b1b8f243931>@@PEB_W@Z ; std::basic_string<wchar_t,std::char_traits<wchar_t>,std::allocator<wchar_t> >::_Reallocate_for<<lambda_3fa8b2c8193a0f3144fc4b1b8f243931>,wchar_t const *>
PUBLIC	??$_Construct_in_place@PEA_WAEAPEA_W@std@@YAXAEAPEA_W0@Z ; std::_Construct_in_place<wchar_t *,wchar_t * &>
PUBLIC	??$_Unfancy@_W@std@@YAPEA_WPEA_W@Z		; std::_Unfancy<wchar_t>
PUBLIC	??$_Destroy_in_place@PEAD@std@@YAXAEAPEAD@Z	; std::_Destroy_in_place<char *>
PUBLIC	??R<lambda_66f57f934f28d61049862f64df852ff0>@@QEBA@QEAD_KQEBD@Z ; <lambda_66f57f934f28d61049862f64df852ff0>::operator()
PUBLIC	??$_Reallocate_for@V<lambda_66f57f934f28d61049862f64df852ff0>@@PEBD@?$basic_string@DU?$char_traits@D@std@@V?$allocator@D@2@@std@@AEAAAEAV01@_KV<lambda_66f57f934f28d61049862f64df852ff0>@@PEBD@Z ; std::basic_string<char,std::char_traits<char>,std::allocator<char> >::_Reallocate_for<<lambda_66f57f934f28d61049862f64df852ff0>,char const *>
PUBLIC	??$_Construct_in_place@PEADAEBQEAD@std@@YAXAEAPEADAEBQEAD@Z ; std::_Construct_in_place<char *,char * const &>
PUBLIC	??$_Unfancy@D@std@@YAPEADPEAD@Z			; std::_Unfancy<char>
PUBLIC	??$_Construct_in_place@PEADAEAPEAD@std@@YAXAEAPEAD0@Z ; std::_Construct_in_place<char *,char * &>
PUBLIC	??$max@_K@std@@YAAEB_KAEB_K0@Z			; std::max<unsigned __int64>
PUBLIC	??$_Get_size_of_n@$0BA@@std@@YA_K_K@Z		; std::_Get_size_of_n<16>
PUBLIC	??$_Allocate@$0BA@U_Default_allocate_traits@std@@$0A@@std@@YAPEAX_K@Z ; std::_Allocate<16,std::_Default_allocate_traits,0>
PUBLIC	??$_Deallocate@$0BA@$0A@@std@@YAXPEAX_K@Z	; std::_Deallocate<16,0>
PUBLIC	?pointer_to@?$pointer_traits@PEA_W@std@@SAPEA_WAEA_W@Z ; std::pointer_traits<wchar_t *>::pointer_to
PUBLIC	??$addressof@V?$_String_val@U?$_Simple_types@_W@std@@@std@@@std@@YAPEAV?$_String_val@U?$_Simple_types@_W@std@@@0@AEAV10@@Z ; std::addressof<std::_String_val<std::_Simple_types<wchar_t> > >
PUBLIC	??$_Construct_in_place@PEA_WAEBQEA_W@std@@YAXAEAPEA_WAEBQEA_W@Z ; std::_Construct_in_place<wchar_t *,wchar_t * const &>
PUBLIC	??$addressof@$$CBV?$_String_val@U?$_Simple_types@_W@std@@@std@@@std@@YAPEBV?$_String_val@U?$_Simple_types@_W@std@@@0@AEBV10@@Z ; std::addressof<std::_String_val<std::_Simple_types<wchar_t> > const >
PUBLIC	?pointer_to@?$pointer_traits@PEAD@std@@SAPEADAEAD@Z ; std::pointer_traits<char *>::pointer_to
PUBLIC	??$addressof@V?$_String_val@U?$_Simple_types@D@std@@@std@@@std@@YAPEAV?$_String_val@U?$_Simple_types@D@std@@@0@AEAV10@@Z ; std::addressof<std::_String_val<std::_Simple_types<char> > >
PUBLIC	??$addressof@$$CBV?$_String_val@U?$_Simple_types@D@std@@@std@@@std@@YAPEBV?$_String_val@U?$_Simple_types@D@std@@@0@AEBV10@@Z ; std::addressof<std::_String_val<std::_Simple_types<char> > const >
PUBLIC	??$_Get_size_of_n@$00@std@@YA_K_K@Z		; std::_Get_size_of_n<1>
PUBLIC	??$_Get_size_of_n@$01@std@@YA_K_K@Z		; std::_Get_size_of_n<2>
PUBLIC	??R?$default_delete@V_Facet_base@std@@@std@@QEBAXPEAV_Facet_base@1@@Z ; std::default_delete<std::_Facet_base>::operator()
PUBLIC	??1?$unique_ptr@V_Facet_base@std@@U?$default_delete@V_Facet_base@std@@@2@@std@@QEAA@XZ ; std::unique_ptr<std::_Facet_base,std::default_delete<std::_Facet_base> >::~unique_ptr<std::_Facet_base,std::default_delete<std::_Facet_base> >
PUBLIC	?release@?$unique_ptr@V_Facet_base@std@@U?$default_delete@V_Facet_base@std@@@2@@std@@QEAAPEAV_Facet_base@2@XZ ; std::unique_ptr<std::_Facet_base,std::default_delete<std::_Facet_base> >::release
PUBLIC	?_Get_first@?$_Compressed_pair@U?$default_delete@V_Facet_base@std@@@std@@PEAV_Facet_base@2@$00@std@@QEAAAEAU?$default_delete@V_Facet_base@std@@@2@XZ ; std::_Compressed_pair<std::default_delete<std::_Facet_base>,std::_Facet_base *,1>::_Get_first
PUBLIC	??$?0U?$default_delete@V_Facet_base@std@@@std@@$0A@@?$unique_ptr@V_Facet_base@std@@U?$default_delete@V_Facet_base@std@@@2@@std@@QEAA@PEAV_Facet_base@1@@Z ; std::unique_ptr<std::_Facet_base,std::default_delete<std::_Facet_base> >::unique_ptr<std::_Facet_base,std::default_delete<std::_Facet_base> ><std::default_delete<std::_Facet_base>,0>
PUBLIC	??$_Maklocstr@D@std@@YAPEADPEBDPEADAEBU_Cvtvec@@@Z ; std::_Maklocstr<char>
PUBLIC	??$?6U?$char_traits@D@std@@@std@@YAAEAV?$basic_ostream@DU?$char_traits@D@std@@@0@AEAV10@D@Z ; std::operator<<<std::char_traits<char> >
PUBLIC	??$?6U?$char_traits@D@std@@@std@@YAAEAV?$basic_ostream@DU?$char_traits@D@std@@@0@AEAV10@PEBD@Z ; std::operator<<<std::char_traits<char> >
PUBLIC	?length@?$tquat@M$0A@@glm@@SAHXZ		; glm::tquat<float,0>::length
PUBLIC	??A?$tquat@M$0A@@glm@@QEBAAEBMH@Z		; glm::tquat<float,0>::operator[]
PUBLIC	??0?$tquat@M$0A@@glm@@QEAA@AEBM000@Z		; glm::tquat<float,0>::tquat<float,0>
PUBLIC	??0?$basic_format_saver@DU?$char_traits@D@std@@@io@glm@@QEAA@AEAV?$basic_ios@DU?$char_traits@D@std@@@std@@@Z ; glm::io::basic_format_saver<char,std::char_traits<char> >::basic_format_saver<char,std::char_traits<char> >
PUBLIC	??1?$basic_format_saver@DU?$char_traits@D@std@@@io@glm@@QEAA@XZ ; glm::io::basic_format_saver<char,std::char_traits<char> >::~basic_format_saver<char,std::char_traits<char> >
PUBLIC	??0?$basic_state_saver@DU?$char_traits@D@std@@@io@glm@@QEAA@AEAV?$basic_ios@DU?$char_traits@D@std@@@std@@@Z ; glm::io::basic_state_saver<char,std::char_traits<char> >::basic_state_saver<char,std::char_traits<char> >
PUBLIC	??1?$basic_state_saver@DU?$char_traits@D@std@@@io@glm@@QEAA@XZ ; glm::io::basic_state_saver<char,std::char_traits<char> >::~basic_state_saver<char,std::char_traits<char> >
PUBLIC	??$?6DU?$char_traits@D@std@@@io@glm@@YAAEAV?$basic_ostream@DU?$char_traits@D@std@@@std@@AEAV23@AEBUprecision@01@@Z ; glm::io::operator<<<char,std::char_traits<char> >
PUBLIC	??$?6DU?$char_traits@D@std@@@io@glm@@YAAEAV?$basic_ostream@DU?$char_traits@D@std@@@std@@AEAV23@AEBUwidth@01@@Z ; glm::io::operator<<<char,std::char_traits<char> >
PUBLIC	??$?6DU?$char_traits@D@std@@V?$allocator@D@1@@std@@YAAEAV?$basic_ostream@DU?$char_traits@D@std@@@0@AEAV10@AEBV?$basic_string@DU?$char_traits@D@std@@V?$allocator@D@2@@0@@Z ; std::operator<<<char,std::char_traits<char>,std::allocator<char> >
PUBLIC	??$?6DU?$char_traits@D@std@@M$0A@@glm@@YAAEAV?$basic_ostream@DU?$char_traits@D@std@@@std@@AEAV12@AEBU?$tquat@M$0A@@0@@Z ; glm::operator<<<char,std::char_traits<char>,float,0>
PUBLIC	??$unformatted@DU?$char_traits@D@std@@@io@glm@@YAAEAV?$basic_ios@DU?$char_traits@D@std@@@std@@AEAV23@@Z ; glm::io::unformatted<char,std::char_traits<char> >
PUBLIC	??$?6_WU?$char_traits@_W@std@@@std@@YAAEAV?$basic_ostream@_WU?$char_traits@_W@std@@@0@AEAV10@D@Z ; std::operator<<<wchar_t,std::char_traits<wchar_t> >
PUBLIC	??$?6_WU?$char_traits@_W@std@@@std@@YAAEAV?$basic_ostream@_WU?$char_traits@_W@std@@@0@AEAV10@PEBD@Z ; std::operator<<<wchar_t,std::char_traits<wchar_t> >
PUBLIC	??0?$basic_format_saver@_WU?$char_traits@_W@std@@@io@glm@@QEAA@AEAV?$basic_ios@_WU?$char_traits@_W@std@@@std@@@Z ; glm::io::basic_format_saver<wchar_t,std::char_traits<wchar_t> >::basic_format_saver<wchar_t,std::char_traits<wchar_t> >
PUBLIC	??1?$basic_format_saver@_WU?$char_traits@_W@std@@@io@glm@@QEAA@XZ ; glm::io::basic_format_saver<wchar_t,std::char_traits<wchar_t> >::~basic_format_saver<wchar_t,std::char_traits<wchar_t> >
PUBLIC	??0?$basic_state_saver@_WU?$char_traits@_W@std@@@io@glm@@QEAA@AEAV?$basic_ios@_WU?$char_traits@_W@std@@@std@@@Z ; glm::io::basic_state_saver<wchar_t,std::char_traits<wchar_t> >::basic_state_saver<wchar_t,std::char_traits<wchar_t> >
PUBLIC	??1?$basic_state_saver@_WU?$char_traits@_W@std@@@io@glm@@QEAA@XZ ; glm::io::basic_state_saver<wchar_t,std::char_traits<wchar_t> >::~basic_state_saver<wchar_t,std::char_traits<wchar_t> >
PUBLIC	??$?6_WU?$char_traits@_W@std@@@io@glm@@YAAEAV?$basic_ostream@_WU?$char_traits@_W@std@@@std@@AEAV23@AEBUprecision@01@@Z ; glm::io::operator<<<wchar_t,std::char_traits<wchar_t> >
PUBLIC	??$?6_WU?$char_traits@_W@std@@@io@glm@@YAAEAV?$basic_ostream@_WU?$char_traits@_W@std@@@std@@AEAV23@AEBUwidth@01@@Z ; glm::io::operator<<<wchar_t,std::char_traits<wchar_t> >
PUBLIC	??$?6_WU?$char_traits@_W@std@@V?$allocator@_W@1@@std@@YAAEAV?$basic_ostream@_WU?$char_traits@_W@std@@@0@AEAV10@AEBV?$basic_string@_WU?$char_traits@_W@std@@V?$allocator@_W@2@@0@@Z ; std::operator<<<wchar_t,std::char_traits<wchar_t>,std::allocator<wchar_t> >
PUBLIC	??$?6_WU?$char_traits@_W@std@@M$0A@@glm@@YAAEAV?$basic_ostream@_WU?$char_traits@_W@std@@@std@@AEAV12@AEBU?$tquat@M$0A@@0@@Z ; glm::operator<<<wchar_t,std::char_traits<wchar_t>,float,0>
PUBLIC	??$?6_WU?$char_traits@_W@std@@@std@@YAAEAV?$basic_ostream@_WU?$char_traits@_W@std@@@0@AEAV10@_W@Z ; std::operator<<<wchar_t,std::char_traits<wchar_t> >
PUBLIC	??$unformatted@_WU?$char_traits@_W@std@@@io@glm@@YAAEAV?$basic_ios@_WU?$char_traits@_W@std@@@std@@AEAV23@@Z ; glm::io::unformatted<wchar_t,std::char_traits<wchar_t> >
PUBLIC	?length@?$tquat@H$00@glm@@SAHXZ			; glm::tquat<int,1>::length
PUBLIC	??A?$tquat@H$00@glm@@QEBAAEBHH@Z		; glm::tquat<int,1>::operator[]
PUBLIC	??0?$tquat@H$00@glm@@QEAA@AEBH000@Z		; glm::tquat<int,1>::tquat<int,1>
PUBLIC	??$?6DU?$char_traits@D@std@@H$00@glm@@YAAEAV?$basic_ostream@DU?$char_traits@D@std@@@std@@AEAV12@AEBU?$tquat@H$00@0@@Z ; glm::operator<<<char,std::char_traits<char>,int,1>
PUBLIC	??$?6_WU?$char_traits@_W@std@@H$00@glm@@YAAEAV?$basic_ostream@_WU?$char_traits@_W@std@@@std@@AEAV12@AEBU?$tquat@H$00@0@@Z ; glm::operator<<<wchar_t,std::char_traits<wchar_t>,int,1>
PUBLIC	?length@?$tquat@I$01@glm@@SAHXZ			; glm::tquat<unsigned int,2>::length
PUBLIC	??A?$tquat@I$01@glm@@QEBAAEBIH@Z		; glm::tquat<unsigned int,2>::operator[]
PUBLIC	??0?$tquat@I$01@glm@@QEAA@AEBI000@Z		; glm::tquat<unsigned int,2>::tquat<unsigned int,2>
PUBLIC	??$?6DU?$char_traits@D@std@@I$01@glm@@YAAEAV?$basic_ostream@DU?$char_traits@D@std@@@std@@AEAV12@AEBU?$tquat@I$01@0@@Z ; glm::operator<<<char,std::char_traits<char>,unsigned int,2>
PUBLIC	??$?6_WU?$char_traits@_W@std@@I$01@glm@@YAAEAV?$basic_ostream@_WU?$char_traits@_W@std@@@std@@AEAV12@AEBU?$tquat@I$01@0@@Z ; glm::operator<<<wchar_t,std::char_traits<wchar_t>,unsigned int,2>
PUBLIC	??$?0HH@?$tvec2@M$0A@@glm@@QEAA@HH@Z		; glm::tvec2<float,0>::tvec2<float,0><int,int>
PUBLIC	?length@?$tvec3@M$0A@@glm@@SAHXZ		; glm::tvec3<float,0>::length
PUBLIC	??A?$tvec3@M$0A@@glm@@QEAAAEAMH@Z		; glm::tvec3<float,0>::operator[]
PUBLIC	??A?$tvec3@M$0A@@glm@@QEBAAEBMH@Z		; glm::tvec3<float,0>::operator[]
PUBLIC	??0?$tvec3@M$0A@@glm@@QEAA@XZ			; glm::tvec3<float,0>::tvec3<float,0>
PUBLIC	??$?0HHH@?$tvec3@M$0A@@glm@@QEAA@HHH@Z		; glm::tvec3<float,0>::tvec3<float,0><int,int,int>
PUBLIC	??$?0HHHH@?$tvec4@M$0A@@glm@@QEAA@HHHH@Z	; glm::tvec4<float,0>::tvec4<float,0><int,int,int,int>
PUBLIC	??$?6DU?$char_traits@D@std@@M$0A@@glm@@YAAEAV?$basic_ostream@DU?$char_traits@D@std@@@std@@AEAV12@AEBU?$tvec2@M$0A@@0@@Z ; glm::operator<<<char,std::char_traits<char>,float,0>
PUBLIC	??$?6DU?$char_traits@D@std@@M$0A@@glm@@YAAEAV?$basic_ostream@DU?$char_traits@D@std@@@std@@AEAV12@AEBU?$tvec3@M$0A@@0@@Z ; glm::operator<<<char,std::char_traits<char>,float,0>
PUBLIC	??$?6DU?$char_traits@D@std@@M$0A@@glm@@YAAEAV?$basic_ostream@DU?$char_traits@D@std@@@std@@AEAV12@AEBU?$tvec4@M$0A@@0@@Z ; glm::operator<<<char,std::char_traits<char>,float,0>
PUBLIC	??$?6_WU?$char_traits@_W@std@@M$0A@@glm@@YAAEAV?$basic_ostream@_WU?$char_traits@_W@std@@@std@@AEAV12@AEBU?$tvec2@M$0A@@0@@Z ; glm::operator<<<wchar_t,std::char_traits<wchar_t>,float,0>
PUBLIC	??$?6_WU?$char_traits@_W@std@@M$0A@@glm@@YAAEAV?$basic_ostream@_WU?$char_traits@_W@std@@@std@@AEAV12@AEBU?$tvec3@M$0A@@0@@Z ; glm::operator<<<wchar_t,std::char_traits<wchar_t>,float,0>
PUBLIC	??$?6_WU?$char_traits@_W@std@@M$0A@@glm@@YAAEAV?$basic_ostream@_WU?$char_traits@_W@std@@@std@@AEAV12@AEBU?$tvec4@M$0A@@0@@Z ; glm::operator<<<wchar_t,std::char_traits<wchar_t>,float,0>
PUBLIC	?length@?$tvec2@H$00@glm@@SAHXZ			; glm::tvec2<int,1>::length
PUBLIC	??A?$tvec2@H$00@glm@@QEBAAEBHH@Z		; glm::tvec2<int,1>::operator[]
PUBLIC	??0?$tvec2@H$00@glm@@QEAA@HH@Z			; glm::tvec2<int,1>::tvec2<int,1>
PUBLIC	?length@?$tvec3@H$00@glm@@SAHXZ			; glm::tvec3<int,1>::length
PUBLIC	??A?$tvec3@H$00@glm@@QEBAAEBHH@Z		; glm::tvec3<int,1>::operator[]
PUBLIC	??0?$tvec3@H$00@glm@@QEAA@HHH@Z			; glm::tvec3<int,1>::tvec3<int,1>
PUBLIC	?length@?$tvec4@H$00@glm@@SAHXZ			; glm::tvec4<int,1>::length
PUBLIC	??A?$tvec4@H$00@glm@@QEBAAEBHH@Z		; glm::tvec4<int,1>::operator[]
PUBLIC	??0?$tvec4@H$00@glm@@QEAA@HHHH@Z		; glm::tvec4<int,1>::tvec4<int,1>
PUBLIC	??$?6DU?$char_traits@D@std@@H$00@glm@@YAAEAV?$basic_ostream@DU?$char_traits@D@std@@@std@@AEAV12@AEBU?$tvec2@H$00@0@@Z ; glm::operator<<<char,std::char_traits<char>,int,1>
PUBLIC	??$?6DU?$char_traits@D@std@@H$00@glm@@YAAEAV?$basic_ostream@DU?$char_traits@D@std@@@std@@AEAV12@AEBU?$tvec3@H$00@0@@Z ; glm::operator<<<char,std::char_traits<char>,int,1>
PUBLIC	??$?6DU?$char_traits@D@std@@H$00@glm@@YAAEAV?$basic_ostream@DU?$char_traits@D@std@@@std@@AEAV12@AEBU?$tvec4@H$00@0@@Z ; glm::operator<<<char,std::char_traits<char>,int,1>
PUBLIC	??$?6_WU?$char_traits@_W@std@@H$00@glm@@YAAEAV?$basic_ostream@_WU?$char_traits@_W@std@@@std@@AEAV12@AEBU?$tvec2@H$00@0@@Z ; glm::operator<<<wchar_t,std::char_traits<wchar_t>,int,1>
PUBLIC	??$?6_WU?$char_traits@_W@std@@H$00@glm@@YAAEAV?$basic_ostream@_WU?$char_traits@_W@std@@@std@@AEAV12@AEBU?$tvec3@H$00@0@@Z ; glm::operator<<<wchar_t,std::char_traits<wchar_t>,int,1>
PUBLIC	??$?6_WU?$char_traits@_W@std@@H$00@glm@@YAAEAV?$basic_ostream@_WU?$char_traits@_W@std@@@std@@AEAV12@AEBU?$tvec4@H$00@0@@Z ; glm::operator<<<wchar_t,std::char_traits<wchar_t>,int,1>
PUBLIC	?length@?$tvec2@I$01@glm@@SAHXZ			; glm::tvec2<unsigned int,2>::length
PUBLIC	??A?$tvec2@I$01@glm@@QEBAAEBIH@Z		; glm::tvec2<unsigned int,2>::operator[]
PUBLIC	??$?0HH@?$tvec2@I$01@glm@@QEAA@HH@Z		; glm::tvec2<unsigned int,2>::tvec2<unsigned int,2><int,int>
PUBLIC	?length@?$tvec3@I$01@glm@@SAHXZ			; glm::tvec3<unsigned int,2>::length
PUBLIC	??A?$tvec3@I$01@glm@@QEBAAEBIH@Z		; glm::tvec3<unsigned int,2>::operator[]
PUBLIC	??$?0HHH@?$tvec3@I$01@glm@@QEAA@HHH@Z		; glm::tvec3<unsigned int,2>::tvec3<unsigned int,2><int,int,int>
PUBLIC	?length@?$tvec4@I$01@glm@@SAHXZ			; glm::tvec4<unsigned int,2>::length
PUBLIC	??A?$tvec4@I$01@glm@@QEBAAEBIH@Z		; glm::tvec4<unsigned int,2>::operator[]
PUBLIC	??$?0HHHH@?$tvec4@I$01@glm@@QEAA@HHHH@Z		; glm::tvec4<unsigned int,2>::tvec4<unsigned int,2><int,int,int,int>
PUBLIC	??$?6DU?$char_traits@D@std@@I$01@glm@@YAAEAV?$basic_ostream@DU?$char_traits@D@std@@@std@@AEAV12@AEBU?$tvec2@I$01@0@@Z ; glm::operator<<<char,std::char_traits<char>,unsigned int,2>
PUBLIC	??$?6DU?$char_traits@D@std@@I$01@glm@@YAAEAV?$basic_ostream@DU?$char_traits@D@std@@@std@@AEAV12@AEBU?$tvec3@I$01@0@@Z ; glm::operator<<<char,std::char_traits<char>,unsigned int,2>
PUBLIC	??$?6DU?$char_traits@D@std@@I$01@glm@@YAAEAV?$basic_ostream@DU?$char_traits@D@std@@@std@@AEAV12@AEBU?$tvec4@I$01@0@@Z ; glm::operator<<<char,std::char_traits<char>,unsigned int,2>
PUBLIC	??$?6_WU?$char_traits@_W@std@@I$01@glm@@YAAEAV?$basic_ostream@_WU?$char_traits@_W@std@@@std@@AEAV12@AEBU?$tvec2@I$01@0@@Z ; glm::operator<<<wchar_t,std::char_traits<wchar_t>,unsigned int,2>
PUBLIC	??$?6_WU?$char_traits@_W@std@@I$01@glm@@YAAEAV?$basic_ostream@_WU?$char_traits@_W@std@@@std@@AEAV12@AEBU?$tvec3@I$01@0@@Z ; glm::operator<<<wchar_t,std::char_traits<wchar_t>,unsigned int,2>
PUBLIC	??$?6_WU?$char_traits@_W@std@@I$01@glm@@YAAEAV?$basic_ostream@_WU?$char_traits@_W@std@@@std@@AEAV12@AEBU?$tvec4@I$01@0@@Z ; glm::operator<<<wchar_t,std::char_traits<wchar_t>,unsigned int,2>
PUBLIC	??$?6DU?$char_traits@D@std@@@io@glm@@YAAEAV?$basic_ostream@DU?$char_traits@D@std@@@std@@AEAV23@AEBUorder@01@@Z ; glm::io::operator<<<char,std::char_traits<char> >
PUBLIC	??0?$tmat2x2@M$0A@@glm@@QEAA@AEBU?$tvec2@M$0A@@1@0@Z ; glm::tmat2x2<float,0>::tmat2x2<float,0>
PUBLIC	?length@?$tmat2x2@M$0A@@glm@@SAHXZ		; glm::tmat2x2<float,0>::length
PUBLIC	??A?$tmat2x2@M$0A@@glm@@QEBAAEBU?$tvec2@M$0A@@1@H@Z ; glm::tmat2x2<float,0>::operator[]
PUBLIC	??$?6DU?$char_traits@D@std@@M$0A@@glm@@YAAEAV?$basic_ostream@DU?$char_traits@D@std@@@std@@AEAV12@AEBU?$tmat2x2@M$0A@@0@@Z ; glm::operator<<<char,std::char_traits<char>,float,0>
PUBLIC	??0?$tmat2x3@M$0A@@glm@@QEAA@AEBU?$tvec3@M$0A@@1@0@Z ; glm::tmat2x3<float,0>::tmat2x3<float,0>
PUBLIC	?length@?$tmat2x3@M$0A@@glm@@SAHXZ		; glm::tmat2x3<float,0>::length
PUBLIC	??A?$tmat2x3@M$0A@@glm@@QEBAAEBU?$tvec3@M$0A@@1@H@Z ; glm::tmat2x3<float,0>::operator[]
PUBLIC	??$?6DU?$char_traits@D@std@@M$0A@@glm@@YAAEAV?$basic_ostream@DU?$char_traits@D@std@@@std@@AEAV12@AEBU?$tmat2x3@M$0A@@0@@Z ; glm::operator<<<char,std::char_traits<char>,float,0>
PUBLIC	??0?$tmat2x4@M$0A@@glm@@QEAA@AEBU?$tvec4@M$0A@@1@0@Z ; glm::tmat2x4<float,0>::tmat2x4<float,0>
PUBLIC	?length@?$tmat2x4@M$0A@@glm@@SAHXZ		; glm::tmat2x4<float,0>::length
PUBLIC	??A?$tmat2x4@M$0A@@glm@@QEBAAEBU?$tvec4@M$0A@@1@H@Z ; glm::tmat2x4<float,0>::operator[]
PUBLIC	??$?6DU?$char_traits@D@std@@M$0A@@glm@@YAAEAV?$basic_ostream@DU?$char_traits@D@std@@@std@@AEAV12@AEBU?$tmat2x4@M$0A@@0@@Z ; glm::operator<<<char,std::char_traits<char>,float,0>
PUBLIC	??0?$tmat3x2@M$0A@@glm@@QEAA@AEBU?$tvec2@M$0A@@1@00@Z ; glm::tmat3x2<float,0>::tmat3x2<float,0>
PUBLIC	?length@?$tmat3x2@M$0A@@glm@@SAHXZ		; glm::tmat3x2<float,0>::length
PUBLIC	??A?$tmat3x2@M$0A@@glm@@QEBAAEBU?$tvec2@M$0A@@1@H@Z ; glm::tmat3x2<float,0>::operator[]
PUBLIC	??$?6DU?$char_traits@D@std@@M$0A@@glm@@YAAEAV?$basic_ostream@DU?$char_traits@D@std@@@std@@AEAV12@AEBU?$tmat3x2@M$0A@@0@@Z ; glm::operator<<<char,std::char_traits<char>,float,0>
PUBLIC	??0?$tmat3x3@M$0A@@glm@@QEAA@AEBU?$tvec3@M$0A@@1@00@Z ; glm::tmat3x3<float,0>::tmat3x3<float,0>
PUBLIC	?length@?$tmat3x3@M$0A@@glm@@SAHXZ		; glm::tmat3x3<float,0>::length
PUBLIC	??A?$tmat3x3@M$0A@@glm@@QEBAAEBU?$tvec3@M$0A@@1@H@Z ; glm::tmat3x3<float,0>::operator[]
PUBLIC	??$?6DU?$char_traits@D@std@@M$0A@@glm@@YAAEAV?$basic_ostream@DU?$char_traits@D@std@@@std@@AEAV12@AEBU?$tmat3x3@M$0A@@0@@Z ; glm::operator<<<char,std::char_traits<char>,float,0>
PUBLIC	??0?$tmat3x4@M$0A@@glm@@QEAA@AEBU?$tvec4@M$0A@@1@00@Z ; glm::tmat3x4<float,0>::tmat3x4<float,0>
PUBLIC	?length@?$tmat3x4@M$0A@@glm@@SAHXZ		; glm::tmat3x4<float,0>::length
PUBLIC	??A?$tmat3x4@M$0A@@glm@@QEBAAEBU?$tvec4@M$0A@@1@H@Z ; glm::tmat3x4<float,0>::operator[]
PUBLIC	??$?6DU?$char_traits@D@std@@M$0A@@glm@@YAAEAV?$basic_ostream@DU?$char_traits@D@std@@@std@@AEAV12@AEBU?$tmat3x4@M$0A@@0@@Z ; glm::operator<<<char,std::char_traits<char>,float,0>
PUBLIC	??0?$tmat4x2@M$0A@@glm@@QEAA@AEBU?$tvec2@M$0A@@1@000@Z ; glm::tmat4x2<float,0>::tmat4x2<float,0>
PUBLIC	?length@?$tmat4x2@M$0A@@glm@@SAHXZ		; glm::tmat4x2<float,0>::length
PUBLIC	??A?$tmat4x2@M$0A@@glm@@QEBAAEBU?$tvec2@M$0A@@1@H@Z ; glm::tmat4x2<float,0>::operator[]
PUBLIC	??$?6DU?$char_traits@D@std@@M$0A@@glm@@YAAEAV?$basic_ostream@DU?$char_traits@D@std@@@std@@AEAV12@AEBU?$tmat4x2@M$0A@@0@@Z ; glm::operator<<<char,std::char_traits<char>,float,0>
PUBLIC	??0?$tmat4x3@M$0A@@glm@@QEAA@AEBU?$tvec3@M$0A@@1@000@Z ; glm::tmat4x3<float,0>::tmat4x3<float,0>
PUBLIC	?length@?$tmat4x3@M$0A@@glm@@SAHXZ		; glm::tmat4x3<float,0>::length
PUBLIC	??A?$tmat4x3@M$0A@@glm@@QEBAAEBU?$tvec3@M$0A@@1@H@Z ; glm::tmat4x3<float,0>::operator[]
PUBLIC	??$?6DU?$char_traits@D@std@@M$0A@@glm@@YAAEAV?$basic_ostream@DU?$char_traits@D@std@@@std@@AEAV12@AEBU?$tmat4x3@M$0A@@0@@Z ; glm::operator<<<char,std::char_traits<char>,float,0>
PUBLIC	??0?$tmat4x4@M$0A@@glm@@QEAA@AEBU?$tvec4@M$0A@@1@000@Z ; glm::tmat4x4<float,0>::tmat4x4<float,0>
PUBLIC	?length@?$tmat4x4@M$0A@@glm@@SAHXZ		; glm::tmat4x4<float,0>::length
PUBLIC	??A?$tmat4x4@M$0A@@glm@@QEBAAEBU?$tvec4@M$0A@@1@H@Z ; glm::tmat4x4<float,0>::operator[]
PUBLIC	??$?6DU?$char_traits@D@std@@M$0A@@glm@@YAAEAV?$basic_ostream@DU?$char_traits@D@std@@@std@@AEAV12@AEBU?$tmat4x4@M$0A@@0@@Z ; glm::operator<<<char,std::char_traits<char>,float,0>
PUBLIC	?length@?$tvec2@M$01@glm@@SAHXZ			; glm::tvec2<float,2>::length
PUBLIC	??A?$tvec2@M$01@glm@@QEAAAEAMH@Z		; glm::tvec2<float,2>::operator[]
PUBLIC	??A?$tvec2@M$01@glm@@QEBAAEBMH@Z		; glm::tvec2<float,2>::operator[]
PUBLIC	??0?$tvec2@M$01@glm@@QEAA@XZ			; glm::tvec2<float,2>::tvec2<float,2>
PUBLIC	??$?0HH@?$tvec2@M$01@glm@@QEAA@HH@Z		; glm::tvec2<float,2>::tvec2<float,2><int,int>
PUBLIC	?length@?$tvec3@M$01@glm@@SAHXZ			; glm::tvec3<float,2>::length
PUBLIC	??A?$tvec3@M$01@glm@@QEAAAEAMH@Z		; glm::tvec3<float,2>::operator[]
PUBLIC	??A?$tvec3@M$01@glm@@QEBAAEBMH@Z		; glm::tvec3<float,2>::operator[]
PUBLIC	??0?$tvec3@M$01@glm@@QEAA@XZ			; glm::tvec3<float,2>::tvec3<float,2>
PUBLIC	??$?0HHH@?$tvec3@M$01@glm@@QEAA@HHH@Z		; glm::tvec3<float,2>::tvec3<float,2><int,int,int>
PUBLIC	?length@?$tvec4@M$01@glm@@SAHXZ			; glm::tvec4<float,2>::length
PUBLIC	??A?$tvec4@M$01@glm@@QEAAAEAMH@Z		; glm::tvec4<float,2>::operator[]
PUBLIC	??A?$tvec4@M$01@glm@@QEBAAEBMH@Z		; glm::tvec4<float,2>::operator[]
PUBLIC	??0?$tvec4@M$01@glm@@QEAA@XZ			; glm::tvec4<float,2>::tvec4<float,2>
PUBLIC	??$?0HHHH@?$tvec4@M$01@glm@@QEAA@HHHH@Z		; glm::tvec4<float,2>::tvec4<float,2><int,int,int,int>
PUBLIC	??$?6_WU?$char_traits@_W@std@@@io@glm@@YAAEAV?$basic_ostream@_WU?$char_traits@_W@std@@@std@@AEAV23@AEBUorder@01@@Z ; glm::io::operator<<<wchar_t,std::char_traits<wchar_t> >
PUBLIC	??0?$tmat2x2@M$01@glm@@QEAA@AEBU?$tvec2@M$01@1@0@Z ; glm::tmat2x2<float,2>::tmat2x2<float,2>
PUBLIC	?length@?$tmat2x2@M$01@glm@@SAHXZ		; glm::tmat2x2<float,2>::length
PUBLIC	??A?$tmat2x2@M$01@glm@@QEBAAEBU?$tvec2@M$01@1@H@Z ; glm::tmat2x2<float,2>::operator[]
PUBLIC	??$?6_WU?$char_traits@_W@std@@M$01@glm@@YAAEAV?$basic_ostream@_WU?$char_traits@_W@std@@@std@@AEAV12@AEBU?$tmat2x2@M$01@0@@Z ; glm::operator<<<wchar_t,std::char_traits<wchar_t>,float,2>
PUBLIC	??0?$tmat2x3@M$01@glm@@QEAA@AEBU?$tvec3@M$01@1@0@Z ; glm::tmat2x3<float,2>::tmat2x3<float,2>
PUBLIC	?length@?$tmat2x3@M$01@glm@@SAHXZ		; glm::tmat2x3<float,2>::length
PUBLIC	??A?$tmat2x3@M$01@glm@@QEBAAEBU?$tvec3@M$01@1@H@Z ; glm::tmat2x3<float,2>::operator[]
PUBLIC	??$?6_WU?$char_traits@_W@std@@M$01@glm@@YAAEAV?$basic_ostream@_WU?$char_traits@_W@std@@@std@@AEAV12@AEBU?$tmat2x3@M$01@0@@Z ; glm::operator<<<wchar_t,std::char_traits<wchar_t>,float,2>
PUBLIC	??0?$tmat2x4@M$01@glm@@QEAA@AEBU?$tvec4@M$01@1@0@Z ; glm::tmat2x4<float,2>::tmat2x4<float,2>
PUBLIC	?length@?$tmat2x4@M$01@glm@@SAHXZ		; glm::tmat2x4<float,2>::length
PUBLIC	??A?$tmat2x4@M$01@glm@@QEBAAEBU?$tvec4@M$01@1@H@Z ; glm::tmat2x4<float,2>::operator[]
PUBLIC	??$?6_WU?$char_traits@_W@std@@M$01@glm@@YAAEAV?$basic_ostream@_WU?$char_traits@_W@std@@@std@@AEAV12@AEBU?$tmat2x4@M$01@0@@Z ; glm::operator<<<wchar_t,std::char_traits<wchar_t>,float,2>
PUBLIC	??0?$tmat3x2@M$01@glm@@QEAA@AEBU?$tvec2@M$01@1@00@Z ; glm::tmat3x2<float,2>::tmat3x2<float,2>
PUBLIC	?length@?$tmat3x2@M$01@glm@@SAHXZ		; glm::tmat3x2<float,2>::length
PUBLIC	??A?$tmat3x2@M$01@glm@@QEBAAEBU?$tvec2@M$01@1@H@Z ; glm::tmat3x2<float,2>::operator[]
PUBLIC	??$?6_WU?$char_traits@_W@std@@M$01@glm@@YAAEAV?$basic_ostream@_WU?$char_traits@_W@std@@@std@@AEAV12@AEBU?$tmat3x2@M$01@0@@Z ; glm::operator<<<wchar_t,std::char_traits<wchar_t>,float,2>
PUBLIC	??0?$tmat3x3@M$01@glm@@QEAA@AEBU?$tvec3@M$01@1@00@Z ; glm::tmat3x3<float,2>::tmat3x3<float,2>
PUBLIC	?length@?$tmat3x3@M$01@glm@@SAHXZ		; glm::tmat3x3<float,2>::length
PUBLIC	??A?$tmat3x3@M$01@glm@@QEBAAEBU?$tvec3@M$01@1@H@Z ; glm::tmat3x3<float,2>::operator[]
PUBLIC	??$?6_WU?$char_traits@_W@std@@M$01@glm@@YAAEAV?$basic_ostream@_WU?$char_traits@_W@std@@@std@@AEAV12@AEBU?$tmat3x3@M$01@0@@Z ; glm::operator<<<wchar_t,std::char_traits<wchar_t>,float,2>
PUBLIC	??0?$tmat3x4@M$01@glm@@QEAA@AEBU?$tvec4@M$01@1@00@Z ; glm::tmat3x4<float,2>::tmat3x4<float,2>
PUBLIC	?length@?$tmat3x4@M$01@glm@@SAHXZ		; glm::tmat3x4<float,2>::length
PUBLIC	??A?$tmat3x4@M$01@glm@@QEBAAEBU?$tvec4@M$01@1@H@Z ; glm::tmat3x4<float,2>::operator[]
PUBLIC	??$?6_WU?$char_traits@_W@std@@M$01@glm@@YAAEAV?$basic_ostream@_WU?$char_traits@_W@std@@@std@@AEAV12@AEBU?$tmat3x4@M$01@0@@Z ; glm::operator<<<wchar_t,std::char_traits<wchar_t>,float,2>
PUBLIC	??0?$tmat4x2@M$01@glm@@QEAA@AEBU?$tvec2@M$01@1@000@Z ; glm::tmat4x2<float,2>::tmat4x2<float,2>
PUBLIC	?length@?$tmat4x2@M$01@glm@@SAHXZ		; glm::tmat4x2<float,2>::length
PUBLIC	??A?$tmat4x2@M$01@glm@@QEBAAEBU?$tvec2@M$01@1@H@Z ; glm::tmat4x2<float,2>::operator[]
PUBLIC	??$?6_WU?$char_traits@_W@std@@M$01@glm@@YAAEAV?$basic_ostream@_WU?$char_traits@_W@std@@@std@@AEAV12@AEBU?$tmat4x2@M$01@0@@Z ; glm::operator<<<wchar_t,std::char_traits<wchar_t>,float,2>
PUBLIC	??0?$tmat4x3@M$01@glm@@QEAA@AEBU?$tvec3@M$01@1@000@Z ; glm::tmat4x3<float,2>::tmat4x3<float,2>
PUBLIC	?length@?$tmat4x3@M$01@glm@@SAHXZ		; glm::tmat4x3<float,2>::length
PUBLIC	??A?$tmat4x3@M$01@glm@@QEBAAEBU?$tvec3@M$01@1@H@Z ; glm::tmat4x3<float,2>::operator[]
PUBLIC	??$?6_WU?$char_traits@_W@std@@M$01@glm@@YAAEAV?$basic_ostream@_WU?$char_traits@_W@std@@@std@@AEAV12@AEBU?$tmat4x3@M$01@0@@Z ; glm::operator<<<wchar_t,std::char_traits<wchar_t>,float,2>
PUBLIC	??0?$tmat4x4@M$01@glm@@QEAA@AEBU?$tvec4@M$01@1@000@Z ; glm::tmat4x4<float,2>::tmat4x4<float,2>
PUBLIC	?length@?$tmat4x4@M$01@glm@@SAHXZ		; glm::tmat4x4<float,2>::length
PUBLIC	??A?$tmat4x4@M$01@glm@@QEBAAEBU?$tvec4@M$01@1@H@Z ; glm::tmat4x4<float,2>::operator[]
PUBLIC	??$?6_WU?$char_traits@_W@std@@M$01@glm@@YAAEAV?$basic_ostream@_WU?$char_traits@_W@std@@@std@@AEAV12@AEBU?$tmat4x4@M$01@0@@Z ; glm::operator<<<wchar_t,std::char_traits<wchar_t>,float,2>
PUBLIC	??$_Deallocate_plain@V?$allocator@U_Container_proxy@std@@@std@@@std@@YAXAEAV?$allocator@U_Container_proxy@std@@@0@QEAU_Container_proxy@0@@Z ; std::_Deallocate_plain<std::allocator<std::_Container_proxy> >
PUBLIC	??$forward@V?$allocator@_W@std@@@std@@YA$$QEAV?$allocator@_W@0@AEAV10@@Z ; std::forward<std::allocator<wchar_t> >
PUBLIC	??$forward@V?$allocator@D@std@@@std@@YA$$QEAV?$allocator@D@0@AEAV10@@Z ; std::forward<std::allocator<char> >
PUBLIC	??$addressof@U_Container_proxy@std@@@std@@YAPEAU_Container_proxy@0@AEAU10@@Z ; std::addressof<std::_Container_proxy>
PUBLIC	??$_Voidify_iter@PEAU_Container_proxy@std@@@std@@YAPEAXPEAU_Container_proxy@0@@Z ; std::_Voidify_iter<std::_Container_proxy *>
PUBLIC	??$forward@PEAU_Container_base12@std@@@std@@YA$$QEAPEAU_Container_base12@0@AEAPEAU10@@Z ; std::forward<std::_Container_base12 *>
PUBLIC	??$addressof@PEA_W@std@@YAPEAPEA_WAEAPEA_W@Z	; std::addressof<wchar_t *>
PUBLIC	??$_Voidify_iter@PEAPEA_W@std@@YAPEAXPEAPEA_W@Z	; std::_Voidify_iter<wchar_t * *>
PUBLIC	??$forward@AEAPEA_W@std@@YAAEAPEA_WAEAPEA_W@Z	; std::forward<wchar_t * &>
PUBLIC	??$addressof@PEAD@std@@YAPEAPEADAEAPEAD@Z	; std::addressof<char *>
PUBLIC	??$_Voidify_iter@PEAPEAD@std@@YAPEAXPEAPEAD@Z	; std::_Voidify_iter<char * *>
PUBLIC	??$forward@AEBQEAD@std@@YAAEBQEADAEBQEAD@Z	; std::forward<char * const &>
PUBLIC	??$forward@AEAPEAD@std@@YAAEAPEADAEAPEAD@Z	; std::forward<char * &>
PUBLIC	??$_Allocate_manually_vector_aligned@U_Default_allocate_traits@std@@@std@@YAPEAX_K@Z ; std::_Allocate_manually_vector_aligned<std::_Default_allocate_traits>
PUBLIC	??$forward@AEBQEA_W@std@@YAAEBQEA_WAEBQEA_W@Z	; std::forward<wchar_t * const &>
PUBLIC	??$exchange@PEAV_Facet_base@std@@$$T@std@@YAPEAV_Facet_base@0@AEAPEAV10@$$QEA$$T@Z ; std::exchange<std::_Facet_base *,std::nullptr_t>
PUBLIC	??0?$format_punct@D@io@glm@@QEAA@_K@Z		; glm::io::format_punct<char>::format_punct<char>
PUBLIC	??0?$format_punct@D@io@glm@@QEAA@AEBV012@@Z	; glm::io::format_punct<char>::format_punct<char>
PUBLIC	??1?$format_punct@D@io@glm@@UEAA@XZ		; glm::io::format_punct<char>::~format_punct<char>
PUBLIC	??_G?$format_punct@D@io@glm@@UEAAPEAXI@Z	; glm::io::format_punct<char>::`scalar deleting destructor'
PUBLIC	??$get_facet@V?$format_punct@D@io@glm@@DU?$char_traits@D@std@@@io@glm@@YAAEBV?$format_punct@D@01@AEAV?$basic_ios@DU?$char_traits@D@std@@@std@@@Z ; glm::io::get_facet<glm::io::format_punct<char>,char,std::char_traits<char> >
PUBLIC	??$?0V?$format_punct@D@io@glm@@@locale@std@@QEAA@AEBV01@PEBV?$format_punct@D@io@glm@@@Z ; std::locale::locale<glm::io::format_punct<char> >
PUBLIC	??0?$format_punct@_W@io@glm@@QEAA@_K@Z		; glm::io::format_punct<wchar_t>::format_punct<wchar_t>
PUBLIC	??0?$format_punct@_W@io@glm@@QEAA@AEBV012@@Z	; glm::io::format_punct<wchar_t>::format_punct<wchar_t>
PUBLIC	??1?$format_punct@_W@io@glm@@UEAA@XZ		; glm::io::format_punct<wchar_t>::~format_punct<wchar_t>
PUBLIC	??_G?$format_punct@_W@io@glm@@UEAAPEAXI@Z	; glm::io::format_punct<wchar_t>::`scalar deleting destructor'
PUBLIC	??$get_facet@V?$format_punct@_W@io@glm@@_WU?$char_traits@_W@std@@@io@glm@@YAAEBV?$format_punct@_W@01@AEAV?$basic_ios@_WU?$char_traits@_W@std@@@std@@@Z ; glm::io::get_facet<glm::io::format_punct<wchar_t>,wchar_t,std::char_traits<wchar_t> >
PUBLIC	??$?0V?$format_punct@_W@io@glm@@@locale@std@@QEAA@AEBV01@PEBV?$format_punct@_W@io@glm@@@Z ; std::locale::locale<glm::io::format_punct<wchar_t> >
PUBLIC	??$?0AEAPEAV_Facet_base@std@@@?$_Compressed_pair@U?$default_delete@V_Facet_base@std@@@std@@PEAV_Facet_base@2@$00@std@@QEAA@U_Zero_then_variadic_args_t@1@AEAPEAV_Facet_base@1@@Z ; std::_Compressed_pair<std::default_delete<std::_Facet_base>,std::_Facet_base *,1>::_Compressed_pair<std::default_delete<std::_Facet_base>,std::_Facet_base *,1><std::_Facet_base * &>
PUBLIC	??$?0AEBV?$allocator@D@std@@$$V@?$_Compressed_pair@V?$allocator@D@std@@V?$_String_val@U?$_Simple_types@D@std@@@2@$00@std@@QEAA@U_One_then_variadic_args_t@1@AEBV?$allocator@D@1@@Z ; std::_Compressed_pair<std::allocator<char>,std::_String_val<std::_Simple_types<char> >,1>::_Compressed_pair<std::allocator<char>,std::_String_val<std::_Simple_types<char> >,1><std::allocator<char> const &>
PUBLIC	??$?0AEBV?$allocator@_W@std@@$$V@?$_Compressed_pair@V?$allocator@_W@std@@V?$_String_val@U?$_Simple_types@_W@std@@@2@$00@std@@QEAA@U_One_then_variadic_args_t@1@AEBV?$allocator@_W@1@@Z ; std::_Compressed_pair<std::allocator<wchar_t>,std::_String_val<std::_Simple_types<wchar_t> >,1>::_Compressed_pair<std::allocator<wchar_t>,std::_String_val<std::_Simple_types<wchar_t> >,1><std::allocator<wchar_t> const &>
PUBLIC	??0_Sentry_base@?$basic_ostream@DU?$char_traits@D@std@@@std@@QEAA@AEAV12@@Z ; std::basic_ostream<char,std::char_traits<char> >::_Sentry_base::_Sentry_base
PUBLIC	??1_Sentry_base@?$basic_ostream@DU?$char_traits@D@std@@@std@@QEAA@XZ ; std::basic_ostream<char,std::char_traits<char> >::_Sentry_base::~_Sentry_base
PUBLIC	??0sentry@?$basic_ostream@DU?$char_traits@D@std@@@std@@QEAA@AEAV12@@Z ; std::basic_ostream<char,std::char_traits<char> >::sentry::sentry
PUBLIC	??1sentry@?$basic_ostream@DU?$char_traits@D@std@@@std@@QEAA@XZ ; std::basic_ostream<char,std::char_traits<char> >::sentry::~sentry
PUBLIC	??Bsentry@?$basic_ostream@DU?$char_traits@D@std@@@std@@QEBA_NXZ ; std::basic_ostream<char,std::char_traits<char> >::sentry::operator bool
PUBLIC	??0?$basic_ostringstream@DU?$char_traits@D@std@@V?$allocator@D@2@@std@@QEAA@XZ ; std::basic_ostringstream<char,std::char_traits<char>,std::allocator<char> >::basic_ostringstream<char,std::char_traits<char>,std::allocator<char> >
PUBLIC	??1?$basic_ostringstream@DU?$char_traits@D@std@@V?$allocator@D@2@@std@@UEAA@XZ ; std::basic_ostringstream<char,std::char_traits<char>,std::allocator<char> >::~basic_ostringstream<char,std::char_traits<char>,std::allocator<char> >
PUBLIC	?str@?$basic_ostringstream@DU?$char_traits@D@std@@V?$allocator@D@2@@std@@QEBA?AV?$basic_string@DU?$char_traits@D@std@@V?$allocator@D@2@@2@XZ ; std::basic_ostringstream<char,std::char_traits<char>,std::allocator<char> >::str
PUBLIC	??0?$basic_stringbuf@DU?$char_traits@D@std@@V?$allocator@D@2@@std@@QEAA@H@Z ; std::basic_stringbuf<char,std::char_traits<char>,std::allocator<char> >::basic_stringbuf<char,std::char_traits<char>,std::allocator<char> >
PUBLIC	??1?$basic_stringbuf@DU?$char_traits@D@std@@V?$allocator@D@2@@std@@UEAA@XZ ; std::basic_stringbuf<char,std::char_traits<char>,std::allocator<char> >::~basic_stringbuf<char,std::char_traits<char>,std::allocator<char> >
PUBLIC	?_Get_buffer_view@?$basic_stringbuf@DU?$char_traits@D@std@@V?$allocator@D@2@@std@@QEBA?AU_Buffer_view@12@XZ ; std::basic_stringbuf<char,std::char_traits<char>,std::allocator<char> >::_Get_buffer_view
PUBLIC	?str@?$basic_stringbuf@DU?$char_traits@D@std@@V?$allocator@D@2@@std@@QEBA?AV?$basic_string@DU?$char_traits@D@std@@V?$allocator@D@2@@2@XZ ; std::basic_stringbuf<char,std::char_traits<char>,std::allocator<char> >::str
PUBLIC	?overflow@?$basic_stringbuf@DU?$char_traits@D@std@@V?$allocator@D@2@@std@@MEAAHH@Z ; std::basic_stringbuf<char,std::char_traits<char>,std::allocator<char> >::overflow
PUBLIC	?pbackfail@?$basic_stringbuf@DU?$char_traits@D@std@@V?$allocator@D@2@@std@@MEAAHH@Z ; std::basic_stringbuf<char,std::char_traits<char>,std::allocator<char> >::pbackfail
PUBLIC	?underflow@?$basic_stringbuf@DU?$char_traits@D@std@@V?$allocator@D@2@@std@@MEAAHXZ ; std::basic_stringbuf<char,std::char_traits<char>,std::allocator<char> >::underflow
PUBLIC	?seekoff@?$basic_stringbuf@DU?$char_traits@D@std@@V?$allocator@D@2@@std@@MEAA?AV?$fpos@U_Mbstatet@@@2@_JHH@Z ; std::basic_stringbuf<char,std::char_traits<char>,std::allocator<char> >::seekoff
PUBLIC	?seekpos@?$basic_stringbuf@DU?$char_traits@D@std@@V?$allocator@D@2@@std@@MEAA?AV?$fpos@U_Mbstatet@@@2@V32@H@Z ; std::basic_stringbuf<char,std::char_traits<char>,std::allocator<char> >::seekpos
PUBLIC	?_Tidy@?$basic_stringbuf@DU?$char_traits@D@std@@V?$allocator@D@2@@std@@IEAAXXZ ; std::basic_stringbuf<char,std::char_traits<char>,std::allocator<char> >::_Tidy
PUBLIC	?_Getstate@?$basic_stringbuf@DU?$char_traits@D@std@@V?$allocator@D@2@@std@@CAHH@Z ; std::basic_stringbuf<char,std::char_traits<char>,std::allocator<char> >::_Getstate
PUBLIC	??_G?$basic_stringbuf@DU?$char_traits@D@std@@V?$allocator@D@2@@std@@UEAAPEAXI@Z ; std::basic_stringbuf<char,std::char_traits<char>,std::allocator<char> >::`scalar deleting destructor'
PUBLIC	??_G?$basic_ostringstream@DU?$char_traits@D@std@@V?$allocator@D@2@@std@@UEAAPEAXI@Z ; std::basic_ostringstream<char,std::char_traits<char>,std::allocator<char> >::`scalar deleting destructor'
PUBLIC	??_D?$basic_ostringstream@DU?$char_traits@D@std@@V?$allocator@D@2@@std@@QEAAXXZ ; std::basic_ostringstream<char,std::char_traits<char>,std::allocator<char> >::`vbase destructor'
PUBLIC	??$_Insert_string@DU?$char_traits@D@std@@_K@std@@YAAEAV?$basic_ostream@DU?$char_traits@D@std@@@0@AEAV10@QEBD_K@Z ; std::_Insert_string<char,std::char_traits<char>,unsigned __int64>
PUBLIC	??$print_vector_on@DU?$char_traits@D@std@@Utquat@glm@@M$0A@@detail@glm@@YAAEAV?$basic_ostream@DU?$char_traits@D@std@@@std@@AEAV23@AEBU?$tquat@M$0A@@1@@Z ; glm::detail::print_vector_on<char,std::char_traits<char>,glm::tquat,float,0>
PUBLIC	??0_Sentry_base@?$basic_ostream@_WU?$char_traits@_W@std@@@std@@QEAA@AEAV12@@Z ; std::basic_ostream<wchar_t,std::char_traits<wchar_t> >::_Sentry_base::_Sentry_base
PUBLIC	??1_Sentry_base@?$basic_ostream@_WU?$char_traits@_W@std@@@std@@QEAA@XZ ; std::basic_ostream<wchar_t,std::char_traits<wchar_t> >::_Sentry_base::~_Sentry_base
PUBLIC	??0sentry@?$basic_ostream@_WU?$char_traits@_W@std@@@std@@QEAA@AEAV12@@Z ; std::basic_ostream<wchar_t,std::char_traits<wchar_t> >::sentry::sentry
PUBLIC	??1sentry@?$basic_ostream@_WU?$char_traits@_W@std@@@std@@QEAA@XZ ; std::basic_ostream<wchar_t,std::char_traits<wchar_t> >::sentry::~sentry
PUBLIC	??Bsentry@?$basic_ostream@_WU?$char_traits@_W@std@@@std@@QEBA_NXZ ; std::basic_ostream<wchar_t,std::char_traits<wchar_t> >::sentry::operator bool
PUBLIC	??0?$basic_ostringstream@_WU?$char_traits@_W@std@@V?$allocator@_W@2@@std@@QEAA@XZ ; std::basic_ostringstream<wchar_t,std::char_traits<wchar_t>,std::allocator<wchar_t> >::basic_ostringstream<wchar_t,std::char_traits<wchar_t>,std::allocator<wchar_t> >
PUBLIC	??1?$basic_ostringstream@_WU?$char_traits@_W@std@@V?$allocator@_W@2@@std@@UEAA@XZ ; std::basic_ostringstream<wchar_t,std::char_traits<wchar_t>,std::allocator<wchar_t> >::~basic_ostringstream<wchar_t,std::char_traits<wchar_t>,std::allocator<wchar_t> >
PUBLIC	?str@?$basic_ostringstream@_WU?$char_traits@_W@std@@V?$allocator@_W@2@@std@@QEBA?AV?$basic_string@_WU?$char_traits@_W@std@@V?$allocator@_W@2@@2@XZ ; std::basic_ostringstream<wchar_t,std::char_traits<wchar_t>,std::allocator<wchar_t> >::str
PUBLIC	??0?$basic_stringbuf@_WU?$char_traits@_W@std@@V?$allocator@_W@2@@std@@QEAA@H@Z ; std::basic_stringbuf<wchar_t,std::char_traits<wchar_t>,std::allocator<wchar_t> >::basic_stringbuf<wchar_t,std::char_traits<wchar_t>,std::allocator<wchar_t> >
PUBLIC	??1?$basic_stringbuf@_WU?$char_traits@_W@std@@V?$allocator@_W@2@@std@@UEAA@XZ ; std::basic_stringbuf<wchar_t,std::char_traits<wchar_t>,std::allocator<wchar_t> >::~basic_stringbuf<wchar_t,std::char_traits<wchar_t>,std::allocator<wchar_t> >
PUBLIC	?_Get_buffer_view@?$basic_stringbuf@_WU?$char_traits@_W@std@@V?$allocator@_W@2@@std@@QEBA?AU_Buffer_view@12@XZ ; std::basic_stringbuf<wchar_t,std::char_traits<wchar_t>,std::allocator<wchar_t> >::_Get_buffer_view
PUBLIC	?str@?$basic_stringbuf@_WU?$char_traits@_W@std@@V?$allocator@_W@2@@std@@QEBA?AV?$basic_string@_WU?$char_traits@_W@std@@V?$allocator@_W@2@@2@XZ ; std::basic_stringbuf<wchar_t,std::char_traits<wchar_t>,std::allocator<wchar_t> >::str
PUBLIC	?overflow@?$basic_stringbuf@_WU?$char_traits@_W@std@@V?$allocator@_W@2@@std@@MEAAGG@Z ; std::basic_stringbuf<wchar_t,std::char_traits<wchar_t>,std::allocator<wchar_t> >::overflow
PUBLIC	?pbackfail@?$basic_stringbuf@_WU?$char_traits@_W@std@@V?$allocator@_W@2@@std@@MEAAGG@Z ; std::basic_stringbuf<wchar_t,std::char_traits<wchar_t>,std::allocator<wchar_t> >::pbackfail
PUBLIC	?underflow@?$basic_stringbuf@_WU?$char_traits@_W@std@@V?$allocator@_W@2@@std@@MEAAGXZ ; std::basic_stringbuf<wchar_t,std::char_traits<wchar_t>,std::allocator<wchar_t> >::underflow
PUBLIC	?seekoff@?$basic_stringbuf@_WU?$char_traits@_W@std@@V?$allocator@_W@2@@std@@MEAA?AV?$fpos@U_Mbstatet@@@2@_JHH@Z ; std::basic_stringbuf<wchar_t,std::char_traits<wchar_t>,std::allocator<wchar_t> >::seekoff
PUBLIC	?seekpos@?$basic_stringbuf@_WU?$char_traits@_W@std@@V?$allocator@_W@2@@std@@MEAA?AV?$fpos@U_Mbstatet@@@2@V32@H@Z ; std::basic_stringbuf<wchar_t,std::char_traits<wchar_t>,std::allocator<wchar_t> >::seekpos
PUBLIC	?_Tidy@?$basic_stringbuf@_WU?$char_traits@_W@std@@V?$allocator@_W@2@@std@@IEAAXXZ ; std::basic_stringbuf<wchar_t,std::char_traits<wchar_t>,std::allocator<wchar_t> >::_Tidy
PUBLIC	?_Getstate@?$basic_stringbuf@_WU?$char_traits@_W@std@@V?$allocator@_W@2@@std@@CAHH@Z ; std::basic_stringbuf<wchar_t,std::char_traits<wchar_t>,std::allocator<wchar_t> >::_Getstate
PUBLIC	??_G?$basic_stringbuf@_WU?$char_traits@_W@std@@V?$allocator@_W@2@@std@@UEAAPEAXI@Z ; std::basic_stringbuf<wchar_t,std::char_traits<wchar_t>,std::allocator<wchar_t> >::`scalar deleting destructor'
PUBLIC	??_G?$basic_ostringstream@_WU?$char_traits@_W@std@@V?$allocator@_W@2@@std@@UEAAPEAXI@Z ; std::basic_ostringstream<wchar_t,std::char_traits<wchar_t>,std::allocator<wchar_t> >::`scalar deleting destructor'
PUBLIC	??_D?$basic_ostringstream@_WU?$char_traits@_W@std@@V?$allocator@_W@2@@std@@QEAAXXZ ; std::basic_ostringstream<wchar_t,std::char_traits<wchar_t>,std::allocator<wchar_t> >::`vbase destructor'
PUBLIC	??$_Insert_string@_WU?$char_traits@_W@std@@_K@std@@YAAEAV?$basic_ostream@_WU?$char_traits@_W@std@@@0@AEAV10@QEB_W_K@Z ; std::_Insert_string<wchar_t,std::char_traits<wchar_t>,unsigned __int64>
PUBLIC	??$print_vector_on@_WU?$char_traits@_W@std@@Utquat@glm@@M$0A@@detail@glm@@YAAEAV?$basic_ostream@_WU?$char_traits@_W@std@@@std@@AEAV23@AEBU?$tquat@M$0A@@1@@Z ; glm::detail::print_vector_on<wchar_t,std::char_traits<wchar_t>,glm::tquat,float,0>
PUBLIC	??$print_vector_on@DU?$char_traits@D@std@@Utquat@glm@@H$00@detail@glm@@YAAEAV?$basic_ostream@DU?$char_traits@D@std@@@std@@AEAV23@AEBU?$tquat@H$00@1@@Z ; glm::detail::print_vector_on<char,std::char_traits<char>,glm::tquat,int,1>
PUBLIC	??$print_vector_on@_WU?$char_traits@_W@std@@Utquat@glm@@H$00@detail@glm@@YAAEAV?$basic_ostream@_WU?$char_traits@_W@std@@@std@@AEAV23@AEBU?$tquat@H$00@1@@Z ; glm::detail::print_vector_on<wchar_t,std::char_traits<wchar_t>,glm::tquat,int,1>
PUBLIC	??$print_vector_on@DU?$char_traits@D@std@@Utquat@glm@@I$01@detail@glm@@YAAEAV?$basic_ostream@DU?$char_traits@D@std@@@std@@AEAV23@AEBU?$tquat@I$01@1@@Z ; glm::detail::print_vector_on<char,std::char_traits<char>,glm::tquat,unsigned int,2>
PUBLIC	??$print_vector_on@_WU?$char_traits@_W@std@@Utquat@glm@@I$01@detail@glm@@YAAEAV?$basic_ostream@_WU?$char_traits@_W@std@@@std@@AEAV23@AEBU?$tquat@I$01@1@@Z ; glm::detail::print_vector_on<wchar_t,std::char_traits<wchar_t>,glm::tquat,unsigned int,2>
PUBLIC	??$print_vector_on@DU?$char_traits@D@std@@Utvec2@glm@@M$0A@@detail@glm@@YAAEAV?$basic_ostream@DU?$char_traits@D@std@@@std@@AEAV23@AEBU?$tvec2@M$0A@@1@@Z ; glm::detail::print_vector_on<char,std::char_traits<char>,glm::tvec2,float,0>
PUBLIC	??$print_vector_on@DU?$char_traits@D@std@@Utvec3@glm@@M$0A@@detail@glm@@YAAEAV?$basic_ostream@DU?$char_traits@D@std@@@std@@AEAV23@AEBU?$tvec3@M$0A@@1@@Z ; glm::detail::print_vector_on<char,std::char_traits<char>,glm::tvec3,float,0>
PUBLIC	??$print_vector_on@DU?$char_traits@D@std@@Utvec4@glm@@M$0A@@detail@glm@@YAAEAV?$basic_ostream@DU?$char_traits@D@std@@@std@@AEAV23@AEBU?$tvec4@M$0A@@1@@Z ; glm::detail::print_vector_on<char,std::char_traits<char>,glm::tvec4,float,0>
PUBLIC	??$print_vector_on@_WU?$char_traits@_W@std@@Utvec2@glm@@M$0A@@detail@glm@@YAAEAV?$basic_ostream@_WU?$char_traits@_W@std@@@std@@AEAV23@AEBU?$tvec2@M$0A@@1@@Z ; glm::detail::print_vector_on<wchar_t,std::char_traits<wchar_t>,glm::tvec2,float,0>
PUBLIC	??$print_vector_on@_WU?$char_traits@_W@std@@Utvec3@glm@@M$0A@@detail@glm@@YAAEAV?$basic_ostream@_WU?$char_traits@_W@std@@@std@@AEAV23@AEBU?$tvec3@M$0A@@1@@Z ; glm::detail::print_vector_on<wchar_t,std::char_traits<wchar_t>,glm::tvec3,float,0>
PUBLIC	??$print_vector_on@_WU?$char_traits@_W@std@@Utvec4@glm@@M$0A@@detail@glm@@YAAEAV?$basic_ostream@_WU?$char_traits@_W@std@@@std@@AEAV23@AEBU?$tvec4@M$0A@@1@@Z ; glm::detail::print_vector_on<wchar_t,std::char_traits<wchar_t>,glm::tvec4,float,0>
PUBLIC	??$print_vector_on@DU?$char_traits@D@std@@Utvec2@glm@@H$00@detail@glm@@YAAEAV?$basic_ostream@DU?$char_traits@D@std@@@std@@AEAV23@AEBU?$tvec2@H$00@1@@Z ; glm::detail::print_vector_on<char,std::char_traits<char>,glm::tvec2,int,1>
PUBLIC	??$print_vector_on@DU?$char_traits@D@std@@Utvec3@glm@@H$00@detail@glm@@YAAEAV?$basic_ostream@DU?$char_traits@D@std@@@std@@AEAV23@AEBU?$tvec3@H$00@1@@Z ; glm::detail::print_vector_on<char,std::char_traits<char>,glm::tvec3,int,1>
PUBLIC	??$print_vector_on@DU?$char_traits@D@std@@Utvec4@glm@@H$00@detail@glm@@YAAEAV?$basic_ostream@DU?$char_traits@D@std@@@std@@AEAV23@AEBU?$tvec4@H$00@1@@Z ; glm::detail::print_vector_on<char,std::char_traits<char>,glm::tvec4,int,1>
PUBLIC	??$print_vector_on@_WU?$char_traits@_W@std@@Utvec2@glm@@H$00@detail@glm@@YAAEAV?$basic_ostream@_WU?$char_traits@_W@std@@@std@@AEAV23@AEBU?$tvec2@H$00@1@@Z ; glm::detail::print_vector_on<wchar_t,std::char_traits<wchar_t>,glm::tvec2,int,1>
PUBLIC	??$print_vector_on@_WU?$char_traits@_W@std@@Utvec3@glm@@H$00@detail@glm@@YAAEAV?$basic_ostream@_WU?$char_traits@_W@std@@@std@@AEAV23@AEBU?$tvec3@H$00@1@@Z ; glm::detail::print_vector_on<wchar_t,std::char_traits<wchar_t>,glm::tvec3,int,1>
PUBLIC	??$print_vector_on@_WU?$char_traits@_W@std@@Utvec4@glm@@H$00@detail@glm@@YAAEAV?$basic_ostream@_WU?$char_traits@_W@std@@@std@@AEAV23@AEBU?$tvec4@H$00@1@@Z ; glm::detail::print_vector_on<wchar_t,std::char_traits<wchar_t>,glm::tvec4,int,1>
PUBLIC	??$print_vector_on@DU?$char_traits@D@std@@Utvec2@glm@@I$01@detail@glm@@YAAEAV?$basic_ostream@DU?$char_traits@D@std@@@std@@AEAV23@AEBU?$tvec2@I$01@1@@Z ; glm::detail::print_vector_on<char,std::char_traits<char>,glm::tvec2,unsigned int,2>
PUBLIC	??$print_vector_on@DU?$char_traits@D@std@@Utvec3@glm@@I$01@detail@glm@@YAAEAV?$basic_ostream@DU?$char_traits@D@std@@@std@@AEAV23@AEBU?$tvec3@I$01@1@@Z ; glm::detail::print_vector_on<char,std::char_traits<char>,glm::tvec3,unsigned int,2>
PUBLIC	??$print_vector_on@DU?$char_traits@D@std@@Utvec4@glm@@I$01@detail@glm@@YAAEAV?$basic_ostream@DU?$char_traits@D@std@@@std@@AEAV23@AEBU?$tvec4@I$01@1@@Z ; glm::detail::print_vector_on<char,std::char_traits<char>,glm::tvec4,unsigned int,2>
PUBLIC	??$print_vector_on@_WU?$char_traits@_W@std@@Utvec2@glm@@I$01@detail@glm@@YAAEAV?$basic_ostream@_WU?$char_traits@_W@std@@@std@@AEAV23@AEBU?$tvec2@I$01@1@@Z ; glm::detail::print_vector_on<wchar_t,std::char_traits<wchar_t>,glm::tvec2,unsigned int,2>
PUBLIC	??$print_vector_on@_WU?$char_traits@_W@std@@Utvec3@glm@@I$01@detail@glm@@YAAEAV?$basic_ostream@_WU?$char_traits@_W@std@@@std@@AEAV23@AEBU?$tvec3@I$01@1@@Z ; glm::detail::print_vector_on<wchar_t,std::char_traits<wchar_t>,glm::tvec3,unsigned int,2>
PUBLIC	??$print_vector_on@_WU?$char_traits@_W@std@@Utvec4@glm@@I$01@detail@glm@@YAAEAV?$basic_ostream@_WU?$char_traits@_W@std@@@std@@AEAV23@AEBU?$tvec4@I$01@1@@Z ; glm::detail::print_vector_on<wchar_t,std::char_traits<wchar_t>,glm::tvec4,unsigned int,2>
PUBLIC	??$print_matrix_on@DU?$char_traits@D@std@@Utmat2x2@glm@@M$0A@@detail@glm@@YAAEAV?$basic_ostream@DU?$char_traits@D@std@@@std@@AEAV23@AEBU?$tmat2x2@M$0A@@1@@Z ; glm::detail::print_matrix_on<char,std::char_traits<char>,glm::tmat2x2,float,0>
PUBLIC	??$print_matrix_on@DU?$char_traits@D@std@@Utmat2x3@glm@@M$0A@@detail@glm@@YAAEAV?$basic_ostream@DU?$char_traits@D@std@@@std@@AEAV23@AEBU?$tmat2x3@M$0A@@1@@Z ; glm::detail::print_matrix_on<char,std::char_traits<char>,glm::tmat2x3,float,0>
PUBLIC	??$print_matrix_on@DU?$char_traits@D@std@@Utmat2x4@glm@@M$0A@@detail@glm@@YAAEAV?$basic_ostream@DU?$char_traits@D@std@@@std@@AEAV23@AEBU?$tmat2x4@M$0A@@1@@Z ; glm::detail::print_matrix_on<char,std::char_traits<char>,glm::tmat2x4,float,0>
PUBLIC	??$print_matrix_on@DU?$char_traits@D@std@@Utmat3x2@glm@@M$0A@@detail@glm@@YAAEAV?$basic_ostream@DU?$char_traits@D@std@@@std@@AEAV23@AEBU?$tmat3x2@M$0A@@1@@Z ; glm::detail::print_matrix_on<char,std::char_traits<char>,glm::tmat3x2,float,0>
PUBLIC	??$print_matrix_on@DU?$char_traits@D@std@@Utmat3x3@glm@@M$0A@@detail@glm@@YAAEAV?$basic_ostream@DU?$char_traits@D@std@@@std@@AEAV23@AEBU?$tmat3x3@M$0A@@1@@Z ; glm::detail::print_matrix_on<char,std::char_traits<char>,glm::tmat3x3,float,0>
PUBLIC	??$print_matrix_on@DU?$char_traits@D@std@@Utmat3x4@glm@@M$0A@@detail@glm@@YAAEAV?$basic_ostream@DU?$char_traits@D@std@@@std@@AEAV23@AEBU?$tmat3x4@M$0A@@1@@Z ; glm::detail::print_matrix_on<char,std::char_traits<char>,glm::tmat3x4,float,0>
PUBLIC	??$print_matrix_on@DU?$char_traits@D@std@@Utmat4x2@glm@@M$0A@@detail@glm@@YAAEAV?$basic_ostream@DU?$char_traits@D@std@@@std@@AEAV23@AEBU?$tmat4x2@M$0A@@1@@Z ; glm::detail::print_matrix_on<char,std::char_traits<char>,glm::tmat4x2,float,0>
PUBLIC	??$print_matrix_on@DU?$char_traits@D@std@@Utmat4x3@glm@@M$0A@@detail@glm@@YAAEAV?$basic_ostream@DU?$char_traits@D@std@@@std@@AEAV23@AEBU?$tmat4x3@M$0A@@1@@Z ; glm::detail::print_matrix_on<char,std::char_traits<char>,glm::tmat4x3,float,0>
PUBLIC	??$print_matrix_on@DU?$char_traits@D@std@@Utmat4x4@glm@@M$0A@@detail@glm@@YAAEAV?$basic_ostream@DU?$char_traits@D@std@@@std@@AEAV23@AEBU?$tmat4x4@M$0A@@1@@Z ; glm::detail::print_matrix_on<char,std::char_traits<char>,glm::tmat4x4,float,0>
PUBLIC	??$print_matrix_on@_WU?$char_traits@_W@std@@Utmat2x2@glm@@M$01@detail@glm@@YAAEAV?$basic_ostream@_WU?$char_traits@_W@std@@@std@@AEAV23@AEBU?$tmat2x2@M$01@1@@Z ; glm::detail::print_matrix_on<wchar_t,std::char_traits<wchar_t>,glm::tmat2x2,float,2>
PUBLIC	??$print_matrix_on@_WU?$char_traits@_W@std@@Utmat2x3@glm@@M$01@detail@glm@@YAAEAV?$basic_ostream@_WU?$char_traits@_W@std@@@std@@AEAV23@AEBU?$tmat2x3@M$01@1@@Z ; glm::detail::print_matrix_on<wchar_t,std::char_traits<wchar_t>,glm::tmat2x3,float,2>
PUBLIC	??$print_matrix_on@_WU?$char_traits@_W@std@@Utmat2x4@glm@@M$01@detail@glm@@YAAEAV?$basic_ostream@_WU?$char_traits@_W@std@@@std@@AEAV23@AEBU?$tmat2x4@M$01@1@@Z ; glm::detail::print_matrix_on<wchar_t,std::char_traits<wchar_t>,glm::tmat2x4,float,2>
PUBLIC	??$print_matrix_on@_WU?$char_traits@_W@std@@Utmat3x2@glm@@M$01@detail@glm@@YAAEAV?$basic_ostream@_WU?$char_traits@_W@std@@@std@@AEAV23@AEBU?$tmat3x2@M$01@1@@Z ; glm::detail::print_matrix_on<wchar_t,std::char_traits<wchar_t>,glm::tmat3x2,float,2>
PUBLIC	??$print_matrix_on@_WU?$char_traits@_W@std@@Utmat3x3@glm@@M$01@detail@glm@@YAAEAV?$basic_ostream@_WU?$char_traits@_W@std@@@std@@AEAV23@AEBU?$tmat3x3@M$01@1@@Z ; glm::detail::print_matrix_on<wchar_t,std::char_traits<wchar_t>,glm::tmat3x3,float,2>
PUBLIC	??$print_matrix_on@_WU?$char_traits@_W@std@@Utmat3x4@glm@@M$01@detail@glm@@YAAEAV?$basic_ostream@_WU?$char_traits@_W@std@@@std@@AEAV23@AEBU?$tmat3x4@M$01@1@@Z ; glm::detail::print_matrix_on<wchar_t,std::char_traits<wchar_t>,glm::tmat3x4,float,2>
PUBLIC	??$print_matrix_on@_WU?$char_traits@_W@std@@Utmat4x2@glm@@M$01@detail@glm@@YAAEAV?$basic_ostream@_WU?$char_traits@_W@std@@@std@@AEAV23@AEBU?$tmat4x2@M$01@1@@Z ; glm::detail::print_matrix_on<wchar_t,std::char_traits<wchar_t>,glm::tmat4x2,float,2>
PUBLIC	??$print_matrix_on@_WU?$char_traits@_W@std@@Utmat4x3@glm@@M$01@detail@glm@@YAAEAV?$basic_ostream@_WU?$char_traits@_W@std@@@std@@AEAV23@AEBU?$tmat4x3@M$01@1@@Z ; glm::detail::print_matrix_on<wchar_t,std::char_traits<wchar_t>,glm::tmat4x3,float,2>
PUBLIC	??$print_matrix_on@_WU?$char_traits@_W@std@@Utmat4x4@glm@@M$01@detail@glm@@YAAEAV?$basic_ostream@_WU?$char_traits@_W@std@@@std@@AEAV23@AEBU?$tmat4x4@M$01@1@@Z ; glm::detail::print_matrix_on<wchar_t,std::char_traits<wchar_t>,glm::tmat4x4,float,2>
PUBLIC	?deallocate@?$_Default_allocator_traits@V?$allocator@U_Container_proxy@std@@@std@@@std@@SAXAEAV?$allocator@U_Container_proxy@std@@@2@QEAU_Container_proxy@2@_K@Z ; std::_Default_allocator_traits<std::allocator<std::_Container_proxy> >::deallocate
PUBLIC	??$max@PEA_W@std@@YAAEBQEA_WAEBQEA_W0@Z		; std::max<wchar_t *>
PUBLIC	??$addressof@V?$basic_stringbuf@_WU?$char_traits@_W@std@@V?$allocator@_W@2@@std@@@std@@YAPEAV?$basic_stringbuf@_WU?$char_traits@_W@std@@V?$allocator@_W@2@@0@AEAV10@@Z ; std::addressof<std::basic_stringbuf<wchar_t,std::char_traits<wchar_t>,std::allocator<wchar_t> > >
PUBLIC	??$max@PEAD@std@@YAAEBQEADAEBQEAD0@Z		; std::max<char *>
PUBLIC	??$addressof@V?$basic_stringbuf@DU?$char_traits@D@std@@V?$allocator@D@2@@std@@@std@@YAPEAV?$basic_stringbuf@DU?$char_traits@D@std@@V?$allocator@D@2@@0@AEAV10@@Z ; std::addressof<std::basic_stringbuf<char,std::char_traits<char>,std::allocator<char> > >
PUBLIC	??$addressof@D@std@@YAPEADAEAD@Z		; std::addressof<char>
PUBLIC	??$addressof@_W@std@@YAPEA_WAEA_W@Z		; std::addressof<wchar_t>
PUBLIC	??$has_facet@V?$format_punct@D@io@glm@@@std@@YA_NAEBVlocale@0@@Z ; std::has_facet<glm::io::format_punct<char> >
PUBLIC	??$use_facet@V?$format_punct@D@io@glm@@@std@@YAAEBV?$format_punct@D@io@glm@@AEBVlocale@0@@Z ; std::use_facet<glm::io::format_punct<char> >
PUBLIC	??$has_facet@V?$format_punct@_W@io@glm@@@std@@YA_NAEBVlocale@0@@Z ; std::has_facet<glm::io::format_punct<wchar_t> >
PUBLIC	??$use_facet@V?$format_punct@_W@io@glm@@@std@@YAAEBV?$format_punct@_W@io@glm@@AEBVlocale@0@@Z ; std::use_facet<glm::io::format_punct<wchar_t> >
PUBLIC	??$forward@AEAPEAV_Facet_base@std@@@std@@YAAEAPEAV_Facet_base@0@AEAPEAV10@@Z ; std::forward<std::_Facet_base * &>
PUBLIC	??$forward@AEBV?$allocator@D@std@@@std@@YAAEBV?$allocator@D@0@AEBV10@@Z ; std::forward<std::allocator<char> const &>
PUBLIC	??$forward@AEBV?$allocator@_W@std@@@std@@YAAEBV?$allocator@_W@0@AEBV10@@Z ; std::forward<std::allocator<wchar_t> const &>
PUBLIC	??$?6DU?$char_traits@D@std@@_J@std@@YAAEAV?$basic_ostream@DU?$char_traits@D@std@@@0@AEAV10@AEBU?$_Smanip@_J@0@@Z ; std::operator<<<char,std::char_traits<char>,__int64>
PUBLIC	??$setfill@D@std@@YA?AU?$_Fillobj@D@0@D@Z	; std::setfill<char>
PUBLIC	??0?$_Fillobj@D@std@@QEAA@D@Z			; std::_Fillobj<char>::_Fillobj<char>
PUBLIC	??$?6DU?$char_traits@D@std@@D@std@@YAAEAV?$basic_ostream@DU?$char_traits@D@std@@@0@AEAV10@AEBU?$_Fillobj@D@0@@Z ; std::operator<<<char,std::char_traits<char>,char>
PUBLIC	??$?6_WU?$char_traits@_W@std@@_J@std@@YAAEAV?$basic_ostream@_WU?$char_traits@_W@std@@@0@AEAV10@AEBU?$_Smanip@_J@0@@Z ; std::operator<<<wchar_t,std::char_traits<wchar_t>,__int64>
PUBLIC	??$setfill@_W@std@@YA?AU?$_Fillobj@_W@0@_W@Z	; std::setfill<wchar_t>
PUBLIC	??0?$_Fillobj@_W@std@@QEAA@_W@Z			; std::_Fillobj<wchar_t>::_Fillobj<wchar_t>
PUBLIC	??$?6_WU?$char_traits@_W@std@@_W@std@@YAAEAV?$basic_ostream@_WU?$char_traits@_W@std@@@0@AEAV10@AEBU?$_Fillobj@_W@0@@Z ; std::operator<<<wchar_t,std::char_traits<wchar_t>,wchar_t>
PUBLIC	??$row@U?$tmat2x2@M$0A@@glm@@@glm@@YA?AU?$tvec2@M$0A@@0@AEBU?$tmat2x2@M$0A@@0@H@Z ; glm::row<glm::tmat2x2<float,0> >
PUBLIC	??$column@U?$tmat2x2@M$0A@@glm@@@glm@@YA?AU?$tvec2@M$0A@@0@AEBU?$tmat2x2@M$0A@@0@H@Z ; glm::column<glm::tmat2x2<float,0> >
PUBLIC	??$row@U?$tmat2x3@M$0A@@glm@@@glm@@YA?AU?$tvec2@M$0A@@0@AEBU?$tmat2x3@M$0A@@0@H@Z ; glm::row<glm::tmat2x3<float,0> >
PUBLIC	??$column@U?$tmat2x3@M$0A@@glm@@@glm@@YA?AU?$tvec3@M$0A@@0@AEBU?$tmat2x3@M$0A@@0@H@Z ; glm::column<glm::tmat2x3<float,0> >
PUBLIC	??$row@U?$tmat2x4@M$0A@@glm@@@glm@@YA?AU?$tvec2@M$0A@@0@AEBU?$tmat2x4@M$0A@@0@H@Z ; glm::row<glm::tmat2x4<float,0> >
PUBLIC	??$column@U?$tmat2x4@M$0A@@glm@@@glm@@YA?AU?$tvec4@M$0A@@0@AEBU?$tmat2x4@M$0A@@0@H@Z ; glm::column<glm::tmat2x4<float,0> >
PUBLIC	??$row@U?$tmat3x2@M$0A@@glm@@@glm@@YA?AU?$tvec3@M$0A@@0@AEBU?$tmat3x2@M$0A@@0@H@Z ; glm::row<glm::tmat3x2<float,0> >
PUBLIC	??$column@U?$tmat3x2@M$0A@@glm@@@glm@@YA?AU?$tvec2@M$0A@@0@AEBU?$tmat3x2@M$0A@@0@H@Z ; glm::column<glm::tmat3x2<float,0> >
PUBLIC	??$row@U?$tmat3x3@M$0A@@glm@@@glm@@YA?AU?$tvec3@M$0A@@0@AEBU?$tmat3x3@M$0A@@0@H@Z ; glm::row<glm::tmat3x3<float,0> >
PUBLIC	??$column@U?$tmat3x3@M$0A@@glm@@@glm@@YA?AU?$tvec3@M$0A@@0@AEBU?$tmat3x3@M$0A@@0@H@Z ; glm::column<glm::tmat3x3<float,0> >
PUBLIC	??$row@U?$tmat3x4@M$0A@@glm@@@glm@@YA?AU?$tvec3@M$0A@@0@AEBU?$tmat3x4@M$0A@@0@H@Z ; glm::row<glm::tmat3x4<float,0> >
PUBLIC	??$column@U?$tmat3x4@M$0A@@glm@@@glm@@YA?AU?$tvec4@M$0A@@0@AEBU?$tmat3x4@M$0A@@0@H@Z ; glm::column<glm::tmat3x4<float,0> >
PUBLIC	??$row@U?$tmat4x2@M$0A@@glm@@@glm@@YA?AU?$tvec4@M$0A@@0@AEBU?$tmat4x2@M$0A@@0@H@Z ; glm::row<glm::tmat4x2<float,0> >
PUBLIC	??$column@U?$tmat4x2@M$0A@@glm@@@glm@@YA?AU?$tvec2@M$0A@@0@AEBU?$tmat4x2@M$0A@@0@H@Z ; glm::column<glm::tmat4x2<float,0> >
PUBLIC	??$row@U?$tmat4x3@M$0A@@glm@@@glm@@YA?AU?$tvec4@M$0A@@0@AEBU?$tmat4x3@M$0A@@0@H@Z ; glm::row<glm::tmat4x3<float,0> >
PUBLIC	??$column@U?$tmat4x3@M$0A@@glm@@@glm@@YA?AU?$tvec3@M$0A@@0@AEBU?$tmat4x3@M$0A@@0@H@Z ; glm::column<glm::tmat4x3<float,0> >
PUBLIC	??$row@U?$tmat4x4@M$0A@@glm@@@glm@@YA?AU?$tvec4@M$0A@@0@AEBU?$tmat4x4@M$0A@@0@H@Z ; glm::row<glm::tmat4x4<float,0> >
PUBLIC	??$column@U?$tmat4x4@M$0A@@glm@@@glm@@YA?AU?$tvec4@M$0A@@0@AEBU?$tmat4x4@M$0A@@0@H@Z ; glm::column<glm::tmat4x4<float,0> >
PUBLIC	??$row@U?$tmat2x2@M$01@glm@@@glm@@YA?AU?$tvec2@M$01@0@AEBU?$tmat2x2@M$01@0@H@Z ; glm::row<glm::tmat2x2<float,2> >
PUBLIC	??$?6_WU?$char_traits@_W@std@@M$01@glm@@YAAEAV?$basic_ostream@_WU?$char_traits@_W@std@@@std@@AEAV12@AEBU?$tvec2@M$01@0@@Z ; glm::operator<<<wchar_t,std::char_traits<wchar_t>,float,2>
PUBLIC	??$column@U?$tmat2x2@M$01@glm@@@glm@@YA?AU?$tvec2@M$01@0@AEBU?$tmat2x2@M$01@0@H@Z ; glm::column<glm::tmat2x2<float,2> >
PUBLIC	??$row@U?$tmat2x3@M$01@glm@@@glm@@YA?AU?$tvec2@M$01@0@AEBU?$tmat2x3@M$01@0@H@Z ; glm::row<glm::tmat2x3<float,2> >
PUBLIC	??$column@U?$tmat2x3@M$01@glm@@@glm@@YA?AU?$tvec3@M$01@0@AEBU?$tmat2x3@M$01@0@H@Z ; glm::column<glm::tmat2x3<float,2> >
PUBLIC	??$?6_WU?$char_traits@_W@std@@M$01@glm@@YAAEAV?$basic_ostream@_WU?$char_traits@_W@std@@@std@@AEAV12@AEBU?$tvec3@M$01@0@@Z ; glm::operator<<<wchar_t,std::char_traits<wchar_t>,float,2>
PUBLIC	??$row@U?$tmat2x4@M$01@glm@@@glm@@YA?AU?$tvec2@M$01@0@AEBU?$tmat2x4@M$01@0@H@Z ; glm::row<glm::tmat2x4<float,2> >
PUBLIC	??$column@U?$tmat2x4@M$01@glm@@@glm@@YA?AU?$tvec4@M$01@0@AEBU?$tmat2x4@M$01@0@H@Z ; glm::column<glm::tmat2x4<float,2> >
PUBLIC	??$?6_WU?$char_traits@_W@std@@M$01@glm@@YAAEAV?$basic_ostream@_WU?$char_traits@_W@std@@@std@@AEAV12@AEBU?$tvec4@M$01@0@@Z ; glm::operator<<<wchar_t,std::char_traits<wchar_t>,float,2>
PUBLIC	??$row@U?$tmat3x2@M$01@glm@@@glm@@YA?AU?$tvec3@M$01@0@AEBU?$tmat3x2@M$01@0@H@Z ; glm::row<glm::tmat3x2<float,2> >
PUBLIC	??$column@U?$tmat3x2@M$01@glm@@@glm@@YA?AU?$tvec2@M$01@0@AEBU?$tmat3x2@M$01@0@H@Z ; glm::column<glm::tmat3x2<float,2> >
PUBLIC	??$row@U?$tmat3x3@M$01@glm@@@glm@@YA?AU?$tvec3@M$01@0@AEBU?$tmat3x3@M$01@0@H@Z ; glm::row<glm::tmat3x3<float,2> >
PUBLIC	??$column@U?$tmat3x3@M$01@glm@@@glm@@YA?AU?$tvec3@M$01@0@AEBU?$tmat3x3@M$01@0@H@Z ; glm::column<glm::tmat3x3<float,2> >
PUBLIC	??$row@U?$tmat3x4@M$01@glm@@@glm@@YA?AU?$tvec3@M$01@0@AEBU?$tmat3x4@M$01@0@H@Z ; glm::row<glm::tmat3x4<float,2> >
PUBLIC	??$column@U?$tmat3x4@M$01@glm@@@glm@@YA?AU?$tvec4@M$01@0@AEBU?$tmat3x4@M$01@0@H@Z ; glm::column<glm::tmat3x4<float,2> >
PUBLIC	??$row@U?$tmat4x2@M$01@glm@@@glm@@YA?AU?$tvec4@M$01@0@AEBU?$tmat4x2@M$01@0@H@Z ; glm::row<glm::tmat4x2<float,2> >
PUBLIC	??$column@U?$tmat4x2@M$01@glm@@@glm@@YA?AU?$tvec2@M$01@0@AEBU?$tmat4x2@M$01@0@H@Z ; glm::column<glm::tmat4x2<float,2> >
PUBLIC	??$row@U?$tmat4x3@M$01@glm@@@glm@@YA?AU?$tvec4@M$01@0@AEBU?$tmat4x3@M$01@0@H@Z ; glm::row<glm::tmat4x3<float,2> >
PUBLIC	??$column@U?$tmat4x3@M$01@glm@@@glm@@YA?AU?$tvec3@M$01@0@AEBU?$tmat4x3@M$01@0@H@Z ; glm::column<glm::tmat4x3<float,2> >
PUBLIC	??$row@U?$tmat4x4@M$01@glm@@@glm@@YA?AU?$tvec4@M$01@0@AEBU?$tmat4x4@M$01@0@H@Z ; glm::row<glm::tmat4x4<float,2> >
PUBLIC	??$column@U?$tmat4x4@M$01@glm@@@glm@@YA?AU?$tvec4@M$01@0@AEBU?$tmat4x4@M$01@0@H@Z ; glm::column<glm::tmat4x4<float,2> >
PUBLIC	??$print_vector_on@_WU?$char_traits@_W@std@@Utvec2@glm@@M$01@detail@glm@@YAAEAV?$basic_ostream@_WU?$char_traits@_W@std@@@std@@AEAV23@AEBU?$tvec2@M$01@1@@Z ; glm::detail::print_vector_on<wchar_t,std::char_traits<wchar_t>,glm::tvec2,float,2>
PUBLIC	??$print_vector_on@_WU?$char_traits@_W@std@@Utvec3@glm@@M$01@detail@glm@@YAAEAV?$basic_ostream@_WU?$char_traits@_W@std@@@std@@AEAV23@AEBU?$tvec3@M$01@1@@Z ; glm::detail::print_vector_on<wchar_t,std::char_traits<wchar_t>,glm::tvec3,float,2>
PUBLIC	??$print_vector_on@_WU?$char_traits@_W@std@@Utvec4@glm@@M$01@detail@glm@@YAAEAV?$basic_ostream@_WU?$char_traits@_W@std@@@std@@AEAV23@AEBU?$tvec4@M$01@1@@Z ; glm::detail::print_vector_on<wchar_t,std::char_traits<wchar_t>,glm::tvec4,float,2>
PUBLIC	??_E?$basic_ostringstream@DU?$char_traits@D@std@@V?$allocator@D@2@@std@@$4PPPPPPPM@A@EAAPEAXI@Z ; std::basic_ostringstream<char,std::char_traits<char>,std::allocator<char> >::`vector deleting destructor'
PUBLIC	??_E?$basic_ostringstream@_WU?$char_traits@_W@std@@V?$allocator@_W@2@@std@@$4PPPPPPPM@A@EAAPEAXI@Z ; std::basic_ostringstream<wchar_t,std::char_traits<wchar_t>,std::allocator<wchar_t> >::`vector deleting destructor'
PUBLIC	??_7exception@std@@6B@				; std::exception::`vftable'
PUBLIC	??_C@_0BC@EOODALEL@Unknown?5exception@		; `string'
PUBLIC	??_7bad_alloc@std@@6B@				; std::bad_alloc::`vftable'
PUBLIC	??_7bad_array_new_length@std@@6B@		; std::bad_array_new_length::`vftable'
PUBLIC	??_C@_0BF@KINCDENJ@bad?5array?5new?5length@	; `string'
PUBLIC	_TI3?AVbad_array_new_length@std@@
PUBLIC	_CTA3?AVbad_array_new_length@std@@
PUBLIC	??_R0?AVbad_array_new_length@std@@@8		; std::bad_array_new_length `RTTI Type Descriptor'
PUBLIC	_CT??_R0?AVbad_array_new_length@std@@@8??0bad_array_new_length@std@@QEAA@AEBV01@@Z24
PUBLIC	??_R0?AVbad_alloc@std@@@8			; std::bad_alloc `RTTI Type Descriptor'
PUBLIC	_CT??_R0?AVbad_alloc@std@@@8??0bad_alloc@std@@QEAA@AEBV01@@Z24
PUBLIC	??_R0?AVexception@std@@@8			; std::exception `RTTI Type Descriptor'
PUBLIC	_CT??_R0?AVexception@std@@@8??0exception@std@@QEAA@AEBV01@@Z24
PUBLIC	??_C@_0BB@FCMFBGOM@invalid?5argument@		; `string'
PUBLIC	??_C@_02DKCKIIND@?$CFs@				; `string'
PUBLIC	??_C@_0GC@DJFHHHKN@C?3?2Program?5Files?2Microsoft?5Visu@ ; `string'
PUBLIC	??_C@_1ME@GEFGDEOM@?$AAC?$AA?3?$AA?2?$AAP?$AAr?$AAo?$AAg?$AAr?$AAa?$AAm?$AA?5?$AAF?$AAi?$AAl?$AAe@ ; `string'
PUBLIC	??_C@_11LOCGONAA@@				; `string'
PUBLIC	??_C@_1CG@JNLFBNGN@?$AA?$CC?$AAi?$AAn?$AAv?$AAa?$AAl?$AAi?$AAd?$AA?5?$AAa?$AAr?$AAg?$AAu?$AAm?$AAe@ ; `string'
PUBLIC	??_C@_0BA@JFNIOLAK@string?5too?5long@		; `string'
PUBLIC	??_7bad_cast@std@@6B@				; std::bad_cast::`vftable'
PUBLIC	??_C@_08EPJLHIJG@bad?5cast@			; `string'
PUBLIC	_TI2?AVbad_cast@std@@
PUBLIC	_CTA2?AVbad_cast@std@@
PUBLIC	??_R0?AVbad_cast@std@@@8			; std::bad_cast `RTTI Type Descriptor'
PUBLIC	_CT??_R0?AVbad_cast@std@@@8??0bad_cast@std@@QEAA@AEBV01@@Z24
PUBLIC	??_C@_0GC@JBJLEFAK@C?3?2Program?5Files?2Microsoft?5Visu@ ; `string'
PUBLIC	??_C@_01NBENCBCI@?$CK@				; `string'
PUBLIC	??_C@_0GC@BCNGEHKL@C?3?2Program?5Files?2Microsoft?5Visu@ ; `string'
PUBLIC	??_C@_0N@LPFKKEBD@?3AM?3am?3PM?3pm@		; `string'
PUBLIC	??_C@_0DG@KGHKKGBC@null?5pointer?5cannot?5point?5to?5a?5@ ; `string'
PUBLIC	??_C@_1HA@FACCKGGH@?$AA?$CC?$AAn?$AAu?$AAl?$AAl?$AA?5?$AAp?$AAo?$AAi?$AAn?$AAt?$AAe?$AAr?$AA?5?$AAc@ ; `string'
PUBLIC	??_C@_1LG@FPDAFGJN@?$AAC?$AA?3?$AA?2?$AAU?$AAs?$AAe?$AAr?$AAs?$AA?2?$AAk?$AAs?$AAa?$AAr?$AAt?$AA?2@ ; `string'
PUBLIC	??_C@_1DK@BGNCJAPL@?$AAi?$AA?5?$AA?$DO?$AA?$DN?$AA?5?$AA0?$AA?5?$AA?$CG?$AA?$CG?$AA?5?$AAi?$AA?5?$AA?$DM?$AA?5?$AAt@ ; `string'
PUBLIC	??_C@_1LG@LAANPDHN@?$AAC?$AA?3?$AA?2?$AAU?$AAs?$AAe?$AAr?$AAs?$AA?2?$AAk?$AAs?$AAa?$AAr?$AAt?$AA?2@ ; `string'
PUBLIC	??_C@_1BK@MHIKGOKE@?$AA?3?$AAA?$AAM?$AA?3?$AAa?$AAm?$AA?3?$AAP?$AAM?$AA?3?$AAp?$AAm@ ; `string'
PUBLIC	??_R0?AV?$basic_ostream@DU?$char_traits@D@std@@@std@@@8 ; std::basic_ostream<char,std::char_traits<char> > `RTTI Type Descriptor'
PUBLIC	??_R0?AV?$basic_ostream@_WU?$char_traits@_W@std@@@std@@@8 ; std::basic_ostream<wchar_t,std::char_traits<wchar_t> > `RTTI Type Descriptor'
PUBLIC	??_R0M@8					; float `RTTI Type Descriptor'
PUBLIC	?_Psave@?$_Facetptr@V?$ctype@_W@std@@@std@@2PEBVfacet@locale@2@EB ; std::_Facetptr<std::ctype<wchar_t> >::_Psave
PUBLIC	?id@?$format_punct@D@io@glm@@2V0locale@std@@A	; glm::io::format_punct<char>::id
PUBLIC	??_7?$format_punct@D@io@glm@@6B@		; glm::io::format_punct<char>::`vftable'
PUBLIC	?id@?$format_punct@_W@io@glm@@2V0locale@std@@A	; glm::io::format_punct<wchar_t>::id
PUBLIC	??_7?$format_punct@_W@io@glm@@6B@		; glm::io::format_punct<wchar_t>::`vftable'
PUBLIC	??_7?$basic_stringbuf@DU?$char_traits@D@std@@V?$allocator@D@2@@std@@6B@ ; std::basic_stringbuf<char,std::char_traits<char>,std::allocator<char> >::`vftable'
PUBLIC	??_7?$basic_ostringstream@DU?$char_traits@D@std@@V?$allocator@D@2@@std@@6B@ ; std::basic_ostringstream<char,std::char_traits<char>,std::allocator<char> >::`vftable'
PUBLIC	??_8?$basic_ostringstream@DU?$char_traits@D@std@@V?$allocator@D@2@@std@@7B@ ; std::basic_ostringstream<char,std::char_traits<char>,std::allocator<char> >::`vbtable'
PUBLIC	??_R0?AU?$tquat@M$0A@@glm@@@8			; glm::tquat<float,0> `RTTI Type Descriptor'
PUBLIC	??_R0?AU?$tvec2@M$0A@@glm@@@8			; glm::tvec2<float,0> `RTTI Type Descriptor'
PUBLIC	??_R0?AU?$tvec3@M$0A@@glm@@@8			; glm::tvec3<float,0> `RTTI Type Descriptor'
PUBLIC	??_R0?AU?$tvec4@M$0A@@glm@@@8			; glm::tvec4<float,0> `RTTI Type Descriptor'
PUBLIC	??_R0?AU?$tmat2x2@M$0A@@glm@@@8			; glm::tmat2x2<float,0> `RTTI Type Descriptor'
PUBLIC	??_R0?AU?$tmat2x3@M$0A@@glm@@@8			; glm::tmat2x3<float,0> `RTTI Type Descriptor'
PUBLIC	??_R0?AU?$tmat2x4@M$0A@@glm@@@8			; glm::tmat2x4<float,0> `RTTI Type Descriptor'
PUBLIC	??_R0?AU?$tmat3x2@M$0A@@glm@@@8			; glm::tmat3x2<float,0> `RTTI Type Descriptor'
PUBLIC	??_R0?AU?$tmat3x3@M$0A@@glm@@@8			; glm::tmat3x3<float,0> `RTTI Type Descriptor'
PUBLIC	??_R0?AU?$tmat3x4@M$0A@@glm@@@8			; glm::tmat3x4<float,0> `RTTI Type Descriptor'
PUBLIC	??_R0?AU?$tmat4x2@M$0A@@glm@@@8			; glm::tmat4x2<float,0> `RTTI Type Descriptor'
PUBLIC	??_R0?AU?$tmat4x3@M$0A@@glm@@@8			; glm::tmat4x3<float,0> `RTTI Type Descriptor'
PUBLIC	??_R0?AU?$tmat4x4@M$0A@@glm@@@8			; glm::tmat4x4<float,0> `RTTI Type Descriptor'
PUBLIC	??_7?$basic_stringbuf@_WU?$char_traits@_W@std@@V?$allocator@_W@2@@std@@6B@ ; std::basic_stringbuf<wchar_t,std::char_traits<wchar_t>,std::allocator<wchar_t> >::`vftable'
PUBLIC	??_7?$basic_ostringstream@_WU?$char_traits@_W@std@@V?$allocator@_W@2@@std@@6B@ ; std::basic_ostringstream<wchar_t,std::char_traits<wchar_t>,std::allocator<wchar_t> >::`vftable'
PUBLIC	??_8?$basic_ostringstream@_WU?$char_traits@_W@std@@V?$allocator@_W@2@@std@@7B@ ; std::basic_ostringstream<wchar_t,std::char_traits<wchar_t>,std::allocator<wchar_t> >::`vbtable'
PUBLIC	??_R0?AU?$tquat@H$00@glm@@@8			; glm::tquat<int,1> `RTTI Type Descriptor'
PUBLIC	??_R0?AU?$tvec2@H$00@glm@@@8			; glm::tvec2<int,1> `RTTI Type Descriptor'
PUBLIC	??_R0?AU?$tvec3@H$00@glm@@@8			; glm::tvec3<int,1> `RTTI Type Descriptor'
PUBLIC	??_R0?AU?$tvec4@H$00@glm@@@8			; glm::tvec4<int,1> `RTTI Type Descriptor'
PUBLIC	??_R0?AU?$tmat2x2@H$00@glm@@@8			; glm::tmat2x2<int,1> `RTTI Type Descriptor'
PUBLIC	??_R0?AU?$tmat2x3@H$00@glm@@@8			; glm::tmat2x3<int,1> `RTTI Type Descriptor'
PUBLIC	??_R0?AU?$tmat2x4@H$00@glm@@@8			; glm::tmat2x4<int,1> `RTTI Type Descriptor'
PUBLIC	??_R0?AU?$tmat3x2@H$00@glm@@@8			; glm::tmat3x2<int,1> `RTTI Type Descriptor'
PUBLIC	??_R0?AU?$tmat3x3@H$00@glm@@@8			; glm::tmat3x3<int,1> `RTTI Type Descriptor'
PUBLIC	??_R0?AU?$tmat3x4@H$00@glm@@@8			; glm::tmat3x4<int,1> `RTTI Type Descriptor'
PUBLIC	??_R0?AU?$tmat4x2@H$00@glm@@@8			; glm::tmat4x2<int,1> `RTTI Type Descriptor'
PUBLIC	??_R0?AU?$tmat4x3@H$00@glm@@@8			; glm::tmat4x3<int,1> `RTTI Type Descriptor'
PUBLIC	??_R0?AU?$tmat4x4@H$00@glm@@@8			; glm::tmat4x4<int,1> `RTTI Type Descriptor'
PUBLIC	??_R0H@8					; int `RTTI Type Descriptor'
PUBLIC	??_R0?AU?$tquat@I$01@glm@@@8			; glm::tquat<unsigned int,2> `RTTI Type Descriptor'
PUBLIC	??_R0?AU?$tvec2@I$01@glm@@@8			; glm::tvec2<unsigned int,2> `RTTI Type Descriptor'
PUBLIC	??_R0?AU?$tvec3@I$01@glm@@@8			; glm::tvec3<unsigned int,2> `RTTI Type Descriptor'
PUBLIC	??_R0?AU?$tvec4@I$01@glm@@@8			; glm::tvec4<unsigned int,2> `RTTI Type Descriptor'
PUBLIC	??_R0?AU?$tmat2x2@I$01@glm@@@8			; glm::tmat2x2<unsigned int,2> `RTTI Type Descriptor'
PUBLIC	??_R0?AU?$tmat2x3@I$01@glm@@@8			; glm::tmat2x3<unsigned int,2> `RTTI Type Descriptor'
PUBLIC	??_R0?AU?$tmat2x4@I$01@glm@@@8			; glm::tmat2x4<unsigned int,2> `RTTI Type Descriptor'
PUBLIC	??_R0?AU?$tmat3x2@I$01@glm@@@8			; glm::tmat3x2<unsigned int,2> `RTTI Type Descriptor'
PUBLIC	??_R0?AU?$tmat3x3@I$01@glm@@@8			; glm::tmat3x3<unsigned int,2> `RTTI Type Descriptor'
PUBLIC	??_R0?AU?$tmat3x4@I$01@glm@@@8			; glm::tmat3x4<unsigned int,2> `RTTI Type Descriptor'
PUBLIC	??_R0?AU?$tmat4x2@I$01@glm@@@8			; glm::tmat4x2<unsigned int,2> `RTTI Type Descriptor'
PUBLIC	??_R0?AU?$tmat4x3@I$01@glm@@@8			; glm::tmat4x3<unsigned int,2> `RTTI Type Descriptor'
PUBLIC	??_R0?AU?$tmat4x4@I$01@glm@@@8			; glm::tmat4x4<unsigned int,2> `RTTI Type Descriptor'
PUBLIC	??_R0I@8					; unsigned int `RTTI Type Descriptor'
PUBLIC	??_C@_1LG@MEJFBKPC@?$AAC?$AA?3?$AA?2?$AAU?$AAs?$AAe?$AAr?$AAs?$AA?2?$AAk?$AAs?$AAa?$AAr?$AAt?$AA?2@ ; `string'
PUBLIC	??_C@_1LC@KEKMINFC@?$AAC?$AA?3?$AA?2?$AAU?$AAs?$AAe?$AAr?$AAs?$AA?2?$AAk?$AAs?$AAa?$AAr?$AAt?$AA?2@ ; `string'
PUBLIC	?_Psave@?$_Facetptr@V?$format_punct@D@io@glm@@@std@@2PEBVfacet@locale@2@EB ; std::_Facetptr<glm::io::format_punct<char> >::_Psave
PUBLIC	?_Psave@?$_Facetptr@V?$format_punct@_W@io@glm@@@std@@2PEBVfacet@locale@2@EB ; std::_Facetptr<glm::io::format_punct<wchar_t> >::_Psave
PUBLIC	??_C@_1LI@ENJGLEAI@?$AAC?$AA?3?$AA?2?$AAU?$AAs?$AAe?$AAr?$AAs?$AA?2?$AAk?$AAs?$AAa?$AAr?$AAt?$AA?2@ ; `string'
PUBLIC	??_C@_1EI@MABFCMEO@?$AAi?$AAn?$AAd?$AAe?$AAx?$AA?5?$AA?$DO?$AA?$DN?$AA?5?$AA0?$AA?5?$AA?$CG?$AA?$CG?$AA?5?$AAi@ ; `string'
PUBLIC	??_C@_1EC@JICLCAOD@?$AAi?$AAn?$AAd?$AAe?$AAx?$AA?5?$AA?$DO?$AA?$DN?$AA?5?$AA0?$AA?5?$AA?$CG?$AA?$CG?$AA?5?$AAi@ ; `string'
PUBLIC	??_C@_1LK@KMFBDMLF@?$AAC?$AA?3?$AA?2?$AAU?$AAs?$AAe?$AAr?$AAs?$AA?2?$AAk?$AAs?$AAa?$AAr?$AAt?$AA?2@ ; `string'
PUBLIC	??_C@_1CG@KOFHLCJL@?$AAi?$AA?5?$AA?$DM?$AA?5?$AAt?$AAh?$AAi?$AAs?$AA?9?$AA?$DO?$AAl?$AAe?$AAn?$AAg?$AAt@ ; `string'
PUBLIC	??_C@_1LK@DHPEHANK@?$AAC?$AA?3?$AA?2?$AAU?$AAs?$AAe?$AAr?$AAs?$AA?2?$AAk?$AAs?$AAa?$AAr?$AAt?$AA?2@ ; `string'
PUBLIC	??_C@_1LK@EDGMJJFF@?$AAC?$AA?3?$AA?2?$AAU?$AAs?$AAe?$AAr?$AAs?$AA?2?$AAk?$AAs?$AAa?$AAr?$AAt?$AA?2@ ; `string'
PUBLIC	??_C@_1LK@CDJKNCE@?$AAC?$AA?3?$AA?2?$AAU?$AAs?$AAe?$AAr?$AAs?$AA?2?$AAk?$AAs?$AAa?$AAr?$AAt?$AA?2@ ; `string'
PUBLIC	??_C@_1LK@JJJMOBEL@?$AAC?$AA?3?$AA?2?$AAU?$AAs?$AAe?$AAr?$AAs?$AA?2?$AAk?$AAs?$AAa?$AAr?$AAt?$AA?2@ ; `string'
PUBLIC	??_C@_1LK@ONAEAIME@?$AAC?$AA?3?$AA?2?$AAU?$AAs?$AAe?$AAr?$AAs?$AA?2?$AAk?$AAs?$AAa?$AAr?$AAt?$AA?2@ ; `string'
PUBLIC	??_C@_1LK@PPMAFFFB@?$AAC?$AA?3?$AA?2?$AAU?$AAs?$AAe?$AAr?$AAs?$AA?2?$AAk?$AAs?$AAa?$AAr?$AAt?$AA?2@ ; `string'
PUBLIC	??_C@_1LK@GEGFBJDO@?$AAC?$AA?3?$AA?2?$AAU?$AAs?$AAe?$AAr?$AAs?$AA?2?$AAk?$AAs?$AAa?$AAr?$AAt?$AA?2@ ; `string'
PUBLIC	??_C@_1LK@BAPNPALB@?$AAC?$AA?3?$AA?2?$AAU?$AAs?$AAe?$AAr?$AAs?$AA?2?$AAk?$AAs?$AAa?$AAr?$AAt?$AA?2@ ; `string'
PUBLIC	??_R4?$basic_stringbuf@DU?$char_traits@D@std@@V?$allocator@D@2@@std@@6B@ ; std::basic_stringbuf<char,std::char_traits<char>,std::allocator<char> >::`RTTI Complete Object Locator'
PUBLIC	??_R0?AV?$basic_stringbuf@DU?$char_traits@D@std@@V?$allocator@D@2@@std@@@8 ; std::basic_stringbuf<char,std::char_traits<char>,std::allocator<char> > `RTTI Type Descriptor'
PUBLIC	??_R3?$basic_stringbuf@DU?$char_traits@D@std@@V?$allocator@D@2@@std@@8 ; std::basic_stringbuf<char,std::char_traits<char>,std::allocator<char> >::`RTTI Class Hierarchy Descriptor'
PUBLIC	??_R2?$basic_stringbuf@DU?$char_traits@D@std@@V?$allocator@D@2@@std@@8 ; std::basic_stringbuf<char,std::char_traits<char>,std::allocator<char> >::`RTTI Base Class Array'
PUBLIC	??_R1A@?0A@EA@?$basic_stringbuf@DU?$char_traits@D@std@@V?$allocator@D@2@@std@@8 ; std::basic_stringbuf<char,std::char_traits<char>,std::allocator<char> >::`RTTI Base Class Descriptor at (0,-1,0,64)'
PUBLIC	??_R1A@?0A@EA@?$basic_streambuf@DU?$char_traits@D@std@@@std@@8 ; std::basic_streambuf<char,std::char_traits<char> >::`RTTI Base Class Descriptor at (0,-1,0,64)'
PUBLIC	??_R0?AV?$basic_streambuf@DU?$char_traits@D@std@@@std@@@8 ; std::basic_streambuf<char,std::char_traits<char> > `RTTI Type Descriptor'
PUBLIC	??_R3?$basic_streambuf@DU?$char_traits@D@std@@@std@@8 ; std::basic_streambuf<char,std::char_traits<char> >::`RTTI Class Hierarchy Descriptor'
PUBLIC	??_R2?$basic_streambuf@DU?$char_traits@D@std@@@std@@8 ; std::basic_streambuf<char,std::char_traits<char> >::`RTTI Base Class Array'
PUBLIC	??_R4?$basic_ostringstream@DU?$char_traits@D@std@@V?$allocator@D@2@@std@@6B@ ; std::basic_ostringstream<char,std::char_traits<char>,std::allocator<char> >::`RTTI Complete Object Locator'
PUBLIC	??_R0?AV?$basic_ostringstream@DU?$char_traits@D@std@@V?$allocator@D@2@@std@@@8 ; std::basic_ostringstream<char,std::char_traits<char>,std::allocator<char> > `RTTI Type Descriptor'
PUBLIC	??_R3?$basic_ostringstream@DU?$char_traits@D@std@@V?$allocator@D@2@@std@@8 ; std::basic_ostringstream<char,std::char_traits<char>,std::allocator<char> >::`RTTI Class Hierarchy Descriptor'
PUBLIC	??_R2?$basic_ostringstream@DU?$char_traits@D@std@@V?$allocator@D@2@@std@@8 ; std::basic_ostringstream<char,std::char_traits<char>,std::allocator<char> >::`RTTI Base Class Array'
PUBLIC	??_R1A@?0A@EA@?$basic_ostringstream@DU?$char_traits@D@std@@V?$allocator@D@2@@std@@8 ; std::basic_ostringstream<char,std::char_traits<char>,std::allocator<char> >::`RTTI Base Class Descriptor at (0,-1,0,64)'
PUBLIC	??_R1A@?0A@EA@?$basic_ostream@DU?$char_traits@D@std@@@std@@8 ; std::basic_ostream<char,std::char_traits<char> >::`RTTI Base Class Descriptor at (0,-1,0,64)'
PUBLIC	??_R3?$basic_ostream@DU?$char_traits@D@std@@@std@@8 ; std::basic_ostream<char,std::char_traits<char> >::`RTTI Class Hierarchy Descriptor'
PUBLIC	??_R2?$basic_ostream@DU?$char_traits@D@std@@@std@@8 ; std::basic_ostream<char,std::char_traits<char> >::`RTTI Base Class Array'
PUBLIC	??_R1A@A@3FA@?$basic_ios@DU?$char_traits@D@std@@@std@@8 ; std::basic_ios<char,std::char_traits<char> >::`RTTI Base Class Descriptor at (0,0,4,80)'
PUBLIC	??_R0?AV?$basic_ios@DU?$char_traits@D@std@@@std@@@8 ; std::basic_ios<char,std::char_traits<char> > `RTTI Type Descriptor'
PUBLIC	??_R3?$basic_ios@DU?$char_traits@D@std@@@std@@8	; std::basic_ios<char,std::char_traits<char> >::`RTTI Class Hierarchy Descriptor'
PUBLIC	??_R2?$basic_ios@DU?$char_traits@D@std@@@std@@8	; std::basic_ios<char,std::char_traits<char> >::`RTTI Base Class Array'
PUBLIC	??_R1A@?0A@EA@?$basic_ios@DU?$char_traits@D@std@@@std@@8 ; std::basic_ios<char,std::char_traits<char> >::`RTTI Base Class Descriptor at (0,-1,0,64)'
PUBLIC	??_R1A@?0A@EA@ios_base@std@@8			; std::ios_base::`RTTI Base Class Descriptor at (0,-1,0,64)'
PUBLIC	??_R0?AVios_base@std@@@8			; std::ios_base `RTTI Type Descriptor'
PUBLIC	??_R3ios_base@std@@8				; std::ios_base::`RTTI Class Hierarchy Descriptor'
PUBLIC	??_R2ios_base@std@@8				; std::ios_base::`RTTI Base Class Array'
PUBLIC	??_R17?0A@EA@?$_Iosb@H@std@@8			; std::_Iosb<int>::`RTTI Base Class Descriptor at (8,-1,0,64)'
PUBLIC	??_R0?AV?$_Iosb@H@std@@@8			; std::_Iosb<int> `RTTI Type Descriptor'
PUBLIC	??_R3?$_Iosb@H@std@@8				; std::_Iosb<int>::`RTTI Class Hierarchy Descriptor'
PUBLIC	??_R2?$_Iosb@H@std@@8				; std::_Iosb<int>::`RTTI Base Class Array'
PUBLIC	??_R1A@?0A@EA@?$_Iosb@H@std@@8			; std::_Iosb<int>::`RTTI Base Class Descriptor at (0,-1,0,64)'
PUBLIC	??_R1A@A@3EA@ios_base@std@@8			; std::ios_base::`RTTI Base Class Descriptor at (0,0,4,64)'
PUBLIC	??_R17A@3EA@?$_Iosb@H@std@@8			; std::_Iosb<int>::`RTTI Base Class Descriptor at (8,0,4,64)'
PUBLIC	??_R4?$basic_stringbuf@_WU?$char_traits@_W@std@@V?$allocator@_W@2@@std@@6B@ ; std::basic_stringbuf<wchar_t,std::char_traits<wchar_t>,std::allocator<wchar_t> >::`RTTI Complete Object Locator'
PUBLIC	??_R0?AV?$basic_stringbuf@_WU?$char_traits@_W@std@@V?$allocator@_W@2@@std@@@8 ; std::basic_stringbuf<wchar_t,std::char_traits<wchar_t>,std::allocator<wchar_t> > `RTTI Type Descriptor'
PUBLIC	??_R3?$basic_stringbuf@_WU?$char_traits@_W@std@@V?$allocator@_W@2@@std@@8 ; std::basic_stringbuf<wchar_t,std::char_traits<wchar_t>,std::allocator<wchar_t> >::`RTTI Class Hierarchy Descriptor'
PUBLIC	??_R2?$basic_stringbuf@_WU?$char_traits@_W@std@@V?$allocator@_W@2@@std@@8 ; std::basic_stringbuf<wchar_t,std::char_traits<wchar_t>,std::allocator<wchar_t> >::`RTTI Base Class Array'
PUBLIC	??_R1A@?0A@EA@?$basic_stringbuf@_WU?$char_traits@_W@std@@V?$allocator@_W@2@@std@@8 ; std::basic_stringbuf<wchar_t,std::char_traits<wchar_t>,std::allocator<wchar_t> >::`RTTI Base Class Descriptor at (0,-1,0,64)'
PUBLIC	??_R1A@?0A@EA@?$basic_streambuf@_WU?$char_traits@_W@std@@@std@@8 ; std::basic_streambuf<wchar_t,std::char_traits<wchar_t> >::`RTTI Base Class Descriptor at (0,-1,0,64)'
PUBLIC	??_R0?AV?$basic_streambuf@_WU?$char_traits@_W@std@@@std@@@8 ; std::basic_streambuf<wchar_t,std::char_traits<wchar_t> > `RTTI Type Descriptor'
PUBLIC	??_R3?$basic_streambuf@_WU?$char_traits@_W@std@@@std@@8 ; std::basic_streambuf<wchar_t,std::char_traits<wchar_t> >::`RTTI Class Hierarchy Descriptor'
PUBLIC	??_R2?$basic_streambuf@_WU?$char_traits@_W@std@@@std@@8 ; std::basic_streambuf<wchar_t,std::char_traits<wchar_t> >::`RTTI Base Class Array'
PUBLIC	??_R4?$basic_ostringstream@_WU?$char_traits@_W@std@@V?$allocator@_W@2@@std@@6B@ ; std::basic_ostringstream<wchar_t,std::char_traits<wchar_t>,std::allocator<wchar_t> >::`RTTI Complete Object Locator'
PUBLIC	??_R0?AV?$basic_ostringstream@_WU?$char_traits@_W@std@@V?$allocator@_W@2@@std@@@8 ; std::basic_ostringstream<wchar_t,std::char_traits<wchar_t>,std::allocator<wchar_t> > `RTTI Type Descriptor'
PUBLIC	??_R3?$basic_ostringstream@_WU?$char_traits@_W@std@@V?$allocator@_W@2@@std@@8 ; std::basic_ostringstream<wchar_t,std::char_traits<wchar_t>,std::allocator<wchar_t> >::`RTTI Class Hierarchy Descriptor'
PUBLIC	??_R2?$basic_ostringstream@_WU?$char_traits@_W@std@@V?$allocator@_W@2@@std@@8 ; std::basic_ostringstream<wchar_t,std::char_traits<wchar_t>,std::allocator<wchar_t> >::`RTTI Base Class Array'
PUBLIC	??_R1A@?0A@EA@?$basic_ostringstream@_WU?$char_traits@_W@std@@V?$allocator@_W@2@@std@@8 ; std::basic_ostringstream<wchar_t,std::char_traits<wchar_t>,std::allocator<wchar_t> >::`RTTI Base Class Descriptor at (0,-1,0,64)'
PUBLIC	??_R1A@?0A@EA@?$basic_ostream@_WU?$char_traits@_W@std@@@std@@8 ; std::basic_ostream<wchar_t,std::char_traits<wchar_t> >::`RTTI Base Class Descriptor at (0,-1,0,64)'
PUBLIC	??_R3?$basic_ostream@_WU?$char_traits@_W@std@@@std@@8 ; std::basic_ostream<wchar_t,std::char_traits<wchar_t> >::`RTTI Class Hierarchy Descriptor'
PUBLIC	??_R2?$basic_ostream@_WU?$char_traits@_W@std@@@std@@8 ; std::basic_ostream<wchar_t,std::char_traits<wchar_t> >::`RTTI Base Class Array'
PUBLIC	??_R1A@A@3FA@?$basic_ios@_WU?$char_traits@_W@std@@@std@@8 ; std::basic_ios<wchar_t,std::char_traits<wchar_t> >::`RTTI Base Class Descriptor at (0,0,4,80)'
PUBLIC	??_R0?AV?$basic_ios@_WU?$char_traits@_W@std@@@std@@@8 ; std::basic_ios<wchar_t,std::char_traits<wchar_t> > `RTTI Type Descriptor'
PUBLIC	??_R3?$basic_ios@_WU?$char_traits@_W@std@@@std@@8 ; std::basic_ios<wchar_t,std::char_traits<wchar_t> >::`RTTI Class Hierarchy Descriptor'
PUBLIC	??_R2?$basic_ios@_WU?$char_traits@_W@std@@@std@@8 ; std::basic_ios<wchar_t,std::char_traits<wchar_t> >::`RTTI Base Class Array'
PUBLIC	??_R1A@?0A@EA@?$basic_ios@_WU?$char_traits@_W@std@@@std@@8 ; std::basic_ios<wchar_t,std::char_traits<wchar_t> >::`RTTI Base Class Descriptor at (0,-1,0,64)'
PUBLIC	??_R4exception@std@@6B@				; std::exception::`RTTI Complete Object Locator'
PUBLIC	??_R3exception@std@@8				; std::exception::`RTTI Class Hierarchy Descriptor'
PUBLIC	??_R2exception@std@@8				; std::exception::`RTTI Base Class Array'
PUBLIC	??_R1A@?0A@EA@exception@std@@8			; std::exception::`RTTI Base Class Descriptor at (0,-1,0,64)'
PUBLIC	??_R4bad_alloc@std@@6B@				; std::bad_alloc::`RTTI Complete Object Locator'
PUBLIC	??_R3bad_alloc@std@@8				; std::bad_alloc::`RTTI Class Hierarchy Descriptor'
PUBLIC	??_R2bad_alloc@std@@8				; std::bad_alloc::`RTTI Base Class Array'
PUBLIC	??_R1A@?0A@EA@bad_alloc@std@@8			; std::bad_alloc::`RTTI Base Class Descriptor at (0,-1,0,64)'
PUBLIC	??_R4bad_array_new_length@std@@6B@		; std::bad_array_new_length::`RTTI Complete Object Locator'
PUBLIC	??_R3bad_array_new_length@std@@8		; std::bad_array_new_length::`RTTI Class Hierarchy Descriptor'
PUBLIC	??_R2bad_array_new_length@std@@8		; std::bad_array_new_length::`RTTI Base Class Array'
PUBLIC	??_R1A@?0A@EA@bad_array_new_length@std@@8	; std::bad_array_new_length::`RTTI Base Class Descriptor at (0,-1,0,64)'
PUBLIC	??_R4bad_cast@std@@6B@				; std::bad_cast::`RTTI Complete Object Locator'
PUBLIC	??_R3bad_cast@std@@8				; std::bad_cast::`RTTI Class Hierarchy Descriptor'
PUBLIC	??_R2bad_cast@std@@8				; std::bad_cast::`RTTI Base Class Array'
PUBLIC	??_R1A@?0A@EA@bad_cast@std@@8			; std::bad_cast::`RTTI Base Class Descriptor at (0,-1,0,64)'
PUBLIC	??_R1A@?0A@EA@facet@locale@std@@8		; std::locale::facet::`RTTI Base Class Descriptor at (0,-1,0,64)'
PUBLIC	??_R0?AVfacet@locale@std@@@8			; std::locale::facet `RTTI Type Descriptor'
PUBLIC	??_R3facet@locale@std@@8			; std::locale::facet::`RTTI Class Hierarchy Descriptor'
PUBLIC	??_R2facet@locale@std@@8			; std::locale::facet::`RTTI Base Class Array'
PUBLIC	??_R1A@?0A@EA@_Facet_base@std@@8		; std::_Facet_base::`RTTI Base Class Descriptor at (0,-1,0,64)'
PUBLIC	??_R0?AV_Facet_base@std@@@8			; std::_Facet_base `RTTI Type Descriptor'
PUBLIC	??_R3_Facet_base@std@@8				; std::_Facet_base::`RTTI Class Hierarchy Descriptor'
PUBLIC	??_R2_Facet_base@std@@8				; std::_Facet_base::`RTTI Base Class Array'
PUBLIC	??_R17?0A@EA@_Crt_new_delete@std@@8		; std::_Crt_new_delete::`RTTI Base Class Descriptor at (8,-1,0,64)'
PUBLIC	??_R0?AU_Crt_new_delete@std@@@8			; std::_Crt_new_delete `RTTI Type Descriptor'
PUBLIC	??_R3_Crt_new_delete@std@@8			; std::_Crt_new_delete::`RTTI Class Hierarchy Descriptor'
PUBLIC	??_R2_Crt_new_delete@std@@8			; std::_Crt_new_delete::`RTTI Base Class Array'
PUBLIC	??_R1A@?0A@EA@_Crt_new_delete@std@@8		; std::_Crt_new_delete::`RTTI Base Class Descriptor at (0,-1,0,64)'
PUBLIC	??_R4?$format_punct@D@io@glm@@6B@		; glm::io::format_punct<char>::`RTTI Complete Object Locator'
PUBLIC	??_R0?AV?$format_punct@D@io@glm@@@8		; glm::io::format_punct<char> `RTTI Type Descriptor'
PUBLIC	??_R3?$format_punct@D@io@glm@@8			; glm::io::format_punct<char>::`RTTI Class Hierarchy Descriptor'
PUBLIC	??_R2?$format_punct@D@io@glm@@8			; glm::io::format_punct<char>::`RTTI Base Class Array'
PUBLIC	??_R1A@?0A@EA@?$format_punct@D@io@glm@@8	; glm::io::format_punct<char>::`RTTI Base Class Descriptor at (0,-1,0,64)'
PUBLIC	??_R4?$format_punct@_W@io@glm@@6B@		; glm::io::format_punct<wchar_t>::`RTTI Complete Object Locator'
PUBLIC	??_R0?AV?$format_punct@_W@io@glm@@@8		; glm::io::format_punct<wchar_t> `RTTI Type Descriptor'
PUBLIC	??_R3?$format_punct@_W@io@glm@@8		; glm::io::format_punct<wchar_t>::`RTTI Class Hierarchy Descriptor'
PUBLIC	??_R2?$format_punct@_W@io@glm@@8		; glm::io::format_punct<wchar_t>::`RTTI Base Class Array'
PUBLIC	??_R1A@?0A@EA@?$format_punct@_W@io@glm@@8	; glm::io::format_punct<wchar_t>::`RTTI Base Class Descriptor at (0,-1,0,64)'
PUBLIC	__real@3f800000
EXTRN	??2@YAPEAX_K@Z:PROC				; operator new
EXTRN	??3@YAXPEAX_K@Z:PROC				; operator delete
EXTRN	?__global_delete@@YAXPEAX_K@Z:PROC		; __global_delete
EXTRN	__imp__invalid_parameter:PROC
EXTRN	__imp__wassert:PROC
EXTRN	memcpy:PROC
EXTRN	memmove:PROC
EXTRN	__imp_wcslen:PROC
EXTRN	__imp__calloc_dbg:PROC
EXTRN	__imp__CrtDbgReport:PROC
EXTRN	__imp_??0_Lockit@std@@QEAA@H@Z:PROC
EXTRN	__imp_??1_Lockit@std@@QEAA@XZ:PROC
EXTRN	strlen:PROC
EXTRN	?uncaught_exception@std@@YA_NXZ:PROC		; std::uncaught_exception
EXTRN	__std_exception_copy:PROC
EXTRN	__std_exception_destroy:PROC
EXTRN	??_Eexception@std@@UEAAPEAXI@Z:PROC		; std::exception::`vector deleting destructor'
EXTRN	??_Ebad_alloc@std@@UEAAPEAXI@Z:PROC		; std::bad_alloc::`vector deleting destructor'
EXTRN	??_Ebad_array_new_length@std@@UEAAPEAXI@Z:PROC	; std::bad_array_new_length::`vector deleting destructor'
EXTRN	?_Xbad_alloc@std@@YAXXZ:PROC			; std::_Xbad_alloc
EXTRN	?_Xlength_error@std@@YAXPEBD@Z:PROC		; std::_Xlength_error
EXTRN	__std_type_info_compare:PROC
EXTRN	__std_type_info_name:PROC
EXTRN	??_Ebad_cast@std@@UEAAPEAXI@Z:PROC		; std::bad_cast::`vector deleting destructor'
EXTRN	?_Facet_Register@std@@YAXPEAV_Facet_base@1@@Z:PROC ; std::_Facet_Register
EXTRN	_Mbrtowc:PROC
EXTRN	__imp_?_Getcvt@_Locinfo@std@@QEBA?AU_Cvtvec@@XZ:PROC
EXTRN	__imp_?_Getdays@_Locinfo@std@@QEBAPEBDXZ:PROC
EXTRN	__imp_?_Getmonths@_Locinfo@std@@QEBAPEBDXZ:PROC
EXTRN	__imp_?_W_Getdays@_Locinfo@std@@QEBAPEBGXZ:PROC
EXTRN	__imp_?_W_Getmonths@_Locinfo@std@@QEBAPEBGXZ:PROC
EXTRN	__imp_??4?$_Yarn@D@std@@QEAAAEAV01@PEBD@Z:PROC
EXTRN	__imp_??2_Crt_new_delete@std@@SAPEAX_K@Z:PROC
EXTRN	__imp_??3_Crt_new_delete@std@@SAXPEAX@Z:PROC
EXTRN	__imp_??0id@locale@std@@QEAA@_K@Z:PROC
EXTRN	__imp_??Bid@locale@std@@QEAA_KXZ:PROC
EXTRN	__imp_?_Getcat@facet@locale@std@@SA_KPEAPEBV123@PEBV23@@Z:PROC
EXTRN	__imp_??0facet@locale@std@@IEAA@_K@Z:PROC
EXTRN	__imp_??1facet@locale@std@@MEAA@XZ:PROC
EXTRN	__imp_?_New_Locimp@_Locimp@locale@std@@CAPEAV123@AEBV123@@Z:PROC
EXTRN	__imp_?_Addfac@_Locimp@locale@std@@AEAAXPEAVfacet@23@_K@Z:PROC
EXTRN	?_Getgloballocale@locale@std@@CAPEAV_Locimp@12@XZ:PROC ; std::locale::_Getgloballocale
EXTRN	__imp_?widen@?$ctype@_W@std@@QEBA_WD@Z:PROC
EXTRN	__imp_?_Getcat@?$ctype@_W@std@@SA_KPEAPEBVfacet@locale@2@PEBV42@@Z:PROC
EXTRN	__imp_?good@ios_base@std@@QEBA_NXZ:PROC
EXTRN	__imp_?flags@ios_base@std@@QEBAHXZ:PROC
EXTRN	__imp_?flags@ios_base@std@@QEAAHH@Z:PROC
EXTRN	__imp_?setf@ios_base@std@@QEAAHHH@Z:PROC
EXTRN	__imp_?precision@ios_base@std@@QEBA_JXZ:PROC
EXTRN	__imp_?precision@ios_base@std@@QEAA_J_J@Z:PROC
EXTRN	__imp_?width@ios_base@std@@QEBA_JXZ:PROC
EXTRN	__imp_?width@ios_base@std@@QEAA_J_J@Z:PROC
EXTRN	__imp_?getloc@ios_base@std@@QEBA?AVlocale@2@XZ:PROC
EXTRN	__imp_??0?$basic_streambuf@DU?$char_traits@D@std@@@std@@IEAA@XZ:PROC
EXTRN	__imp_??1?$basic_streambuf@DU?$char_traits@D@std@@@std@@UEAA@XZ:PROC
EXTRN	__imp_?sputc@?$basic_streambuf@DU?$char_traits@D@std@@@std@@QEAAHD@Z:PROC
EXTRN	__imp_?sputn@?$basic_streambuf@DU?$char_traits@D@std@@@std@@QEAA_JPEBD_J@Z:PROC
EXTRN	__imp_?eback@?$basic_streambuf@DU?$char_traits@D@std@@@std@@IEBAPEADXZ:PROC
EXTRN	__imp_?gptr@?$basic_streambuf@DU?$char_traits@D@std@@@std@@IEBAPEADXZ:PROC
EXTRN	__imp_?pbase@?$basic_streambuf@DU?$char_traits@D@std@@@std@@IEBAPEADXZ:PROC
EXTRN	__imp_?pptr@?$basic_streambuf@DU?$char_traits@D@std@@@std@@IEBAPEADXZ:PROC
EXTRN	__imp_?egptr@?$basic_streambuf@DU?$char_traits@D@std@@@std@@IEBAPEADXZ:PROC
EXTRN	__imp_?gbump@?$basic_streambuf@DU?$char_traits@D@std@@@std@@IEAAXH@Z:PROC
EXTRN	__imp_?setg@?$basic_streambuf@DU?$char_traits@D@std@@@std@@IEAAXPEAD00@Z:PROC
EXTRN	__imp_?epptr@?$basic_streambuf@DU?$char_traits@D@std@@@std@@IEBAPEADXZ:PROC
EXTRN	__imp_?setp@?$basic_streambuf@DU?$char_traits@D@std@@@std@@IEAAXPEAD0@Z:PROC
EXTRN	__imp_?setp@?$basic_streambuf@DU?$char_traits@D@std@@@std@@IEAAXPEAD00@Z:PROC
EXTRN	__imp_?_Pninc@?$basic_streambuf@DU?$char_traits@D@std@@@std@@IEAAPEADXZ:PROC
EXTRN	__imp_??0?$basic_streambuf@_WU?$char_traits@_W@std@@@std@@IEAA@XZ:PROC
EXTRN	__imp_??1?$basic_streambuf@_WU?$char_traits@_W@std@@@std@@UEAA@XZ:PROC
EXTRN	__imp_?sputc@?$basic_streambuf@_WU?$char_traits@_W@std@@@std@@QEAAG_W@Z:PROC
EXTRN	__imp_?sputn@?$basic_streambuf@_WU?$char_traits@_W@std@@@std@@QEAA_JPEB_W_J@Z:PROC
EXTRN	__imp_?eback@?$basic_streambuf@_WU?$char_traits@_W@std@@@std@@IEBAPEA_WXZ:PROC
EXTRN	__imp_?gptr@?$basic_streambuf@_WU?$char_traits@_W@std@@@std@@IEBAPEA_WXZ:PROC
EXTRN	__imp_?pbase@?$basic_streambuf@_WU?$char_traits@_W@std@@@std@@IEBAPEA_WXZ:PROC
EXTRN	__imp_?pptr@?$basic_streambuf@_WU?$char_traits@_W@std@@@std@@IEBAPEA_WXZ:PROC
EXTRN	__imp_?egptr@?$basic_streambuf@_WU?$char_traits@_W@std@@@std@@IEBAPEA_WXZ:PROC
EXTRN	__imp_?gbump@?$basic_streambuf@_WU?$char_traits@_W@std@@@std@@IEAAXH@Z:PROC
EXTRN	__imp_?setg@?$basic_streambuf@_WU?$char_traits@_W@std@@@std@@IEAAXPEA_W00@Z:PROC
EXTRN	__imp_?epptr@?$basic_streambuf@_WU?$char_traits@_W@std@@@std@@IEBAPEA_WXZ:PROC
EXTRN	__imp_?setp@?$basic_streambuf@_WU?$char_traits@_W@std@@@std@@IEAAXPEA_W0@Z:PROC
EXTRN	__imp_?setp@?$basic_streambuf@_WU?$char_traits@_W@std@@@std@@IEAAXPEA_W00@Z:PROC
EXTRN	__imp_?_Pninc@?$basic_streambuf@_WU?$char_traits@_W@std@@@std@@IEAAPEA_WXZ:PROC
EXTRN	__imp_??1?$basic_ios@DU?$char_traits@D@std@@@std@@UEAA@XZ:PROC
EXTRN	__imp_?setstate@?$basic_ios@DU?$char_traits@D@std@@@std@@QEAAXH_N@Z:PROC
EXTRN	__imp_?tie@?$basic_ios@DU?$char_traits@D@std@@@std@@QEBAPEAV?$basic_ostream@DU?$char_traits@D@std@@@2@XZ:PROC
EXTRN	__imp_?rdbuf@?$basic_ios@DU?$char_traits@D@std@@@std@@QEBAPEAV?$basic_streambuf@DU?$char_traits@D@std@@@2@XZ:PROC
EXTRN	__imp_?imbue@?$basic_ios@DU?$char_traits@D@std@@@std@@QEAA?AVlocale@2@AEBV32@@Z:PROC
EXTRN	__imp_?fill@?$basic_ios@DU?$char_traits@D@std@@@std@@QEBADXZ:PROC
EXTRN	__imp_?fill@?$basic_ios@DU?$char_traits@D@std@@@std@@QEAADD@Z:PROC
EXTRN	__imp_??0?$basic_ios@DU?$char_traits@D@std@@@std@@IEAA@XZ:PROC
EXTRN	__imp_??1?$basic_ios@_WU?$char_traits@_W@std@@@std@@UEAA@XZ:PROC
EXTRN	__imp_?setstate@?$basic_ios@_WU?$char_traits@_W@std@@@std@@QEAAXH_N@Z:PROC
EXTRN	__imp_?tie@?$basic_ios@_WU?$char_traits@_W@std@@@std@@QEBAPEAV?$basic_ostream@_WU?$char_traits@_W@std@@@2@XZ:PROC
EXTRN	__imp_?rdbuf@?$basic_ios@_WU?$char_traits@_W@std@@@std@@QEBAPEAV?$basic_streambuf@_WU?$char_traits@_W@std@@@2@XZ:PROC
EXTRN	__imp_?imbue@?$basic_ios@_WU?$char_traits@_W@std@@@std@@QEAA?AVlocale@2@AEBV32@@Z:PROC
EXTRN	__imp_?fill@?$basic_ios@_WU?$char_traits@_W@std@@@std@@QEBA_WXZ:PROC
EXTRN	__imp_?fill@?$basic_ios@_WU?$char_traits@_W@std@@@std@@QEAA_W_W@Z:PROC
EXTRN	__imp_??0?$basic_ios@_WU?$char_traits@_W@std@@@std@@IEAA@XZ:PROC
EXTRN	__imp_??0?$basic_ostream@DU?$char_traits@D@std@@@std@@QEAA@PEAV?$basic_streambuf@DU?$char_traits@D@std@@@1@_N@Z:PROC
EXTRN	__imp_??1?$basic_ostream@DU?$char_traits@D@std@@@std@@UEAA@XZ:PROC
EXTRN	__imp_?_Osfx@?$basic_ostream@DU?$char_traits@D@std@@@std@@QEAAXXZ:PROC
EXTRN	__imp_??6?$basic_ostream@DU?$char_traits@D@std@@@std@@QEAAAEAV01@P6AAEAV?$basic_ios@DU?$char_traits@D@std@@@1@AEAV21@@Z@Z:PROC
EXTRN	__imp_??6?$basic_ostream@DU?$char_traits@D@std@@@std@@QEAAAEAV01@P6AAEAVios_base@1@AEAV21@@Z@Z:PROC
EXTRN	__imp_??6?$basic_ostream@DU?$char_traits@D@std@@@std@@QEAAAEAV01@H@Z:PROC
EXTRN	__imp_??6?$basic_ostream@DU?$char_traits@D@std@@@std@@QEAAAEAV01@I@Z:PROC
EXTRN	__imp_??6?$basic_ostream@DU?$char_traits@D@std@@@std@@QEAAAEAV01@M@Z:PROC
EXTRN	__imp_?flush@?$basic_ostream@DU?$char_traits@D@std@@@std@@QEAAAEAV12@XZ:PROC
EXTRN	__imp_??0?$basic_ostream@_WU?$char_traits@_W@std@@@std@@QEAA@PEAV?$basic_streambuf@_WU?$char_traits@_W@std@@@1@_N@Z:PROC
EXTRN	__imp_??1?$basic_ostream@_WU?$char_traits@_W@std@@@std@@UEAA@XZ:PROC
EXTRN	__imp_?_Osfx@?$basic_ostream@_WU?$char_traits@_W@std@@@std@@QEAAXXZ:PROC
EXTRN	__imp_??6?$basic_ostream@_WU?$char_traits@_W@std@@@std@@QEAAAEAV01@P6AAEAV?$basic_ios@_WU?$char_traits@_W@std@@@1@AEAV21@@Z@Z:PROC
EXTRN	__imp_??6?$basic_ostream@_WU?$char_traits@_W@std@@@std@@QEAAAEAV01@P6AAEAVios_base@1@AEAV21@@Z@Z:PROC
EXTRN	__imp_??6?$basic_ostream@_WU?$char_traits@_W@std@@@std@@QEAAAEAV01@H@Z:PROC
EXTRN	__imp_??6?$basic_ostream@_WU?$char_traits@_W@std@@@std@@QEAAAEAV01@I@Z:PROC
EXTRN	__imp_??6?$basic_ostream@_WU?$char_traits@_W@std@@@std@@QEAAAEAV01@M@Z:PROC
EXTRN	__imp_?flush@?$basic_ostream@_WU?$char_traits@_W@std@@@std@@QEAAAEAV12@XZ:PROC
EXTRN	?setprecision@std@@YA?AU?$_Smanip@_J@1@_J@Z:PROC ; std::setprecision
EXTRN	?setw@std@@YA?AU?$_Smanip@_J@1@_J@Z:PROC	; std::setw
EXTRN	??_E?$format_punct@D@io@glm@@UEAAPEAXI@Z:PROC	; glm::io::format_punct<char>::`vector deleting destructor'
EXTRN	??_E?$format_punct@_W@io@glm@@UEAAPEAXI@Z:PROC	; glm::io::format_punct<wchar_t>::`vector deleting destructor'
EXTRN	??_E?$basic_stringbuf@DU?$char_traits@D@std@@V?$allocator@D@2@@std@@UEAAPEAXI@Z:PROC ; std::basic_stringbuf<char,std::char_traits<char>,std::allocator<char> >::`vector deleting destructor'
EXTRN	??_E?$basic_ostringstream@DU?$char_traits@D@std@@V?$allocator@D@2@@std@@UEAAPEAXI@Z:PROC ; std::basic_ostringstream<char,std::char_traits<char>,std::allocator<char> >::`vector deleting destructor'
EXTRN	??_E?$basic_stringbuf@_WU?$char_traits@_W@std@@V?$allocator@_W@2@@std@@UEAAPEAXI@Z:PROC ; std::basic_stringbuf<wchar_t,std::char_traits<wchar_t>,std::allocator<wchar_t> >::`vector deleting destructor'
EXTRN	??_E?$basic_ostringstream@_WU?$char_traits@_W@std@@V?$allocator@_W@2@@std@@UEAAPEAXI@Z:PROC ; std::basic_ostringstream<wchar_t,std::char_traits<wchar_t>,std::allocator<wchar_t> >::`vector deleting destructor'
EXTRN	?_Incref@facet@locale@std@@UEAAXXZ:PROC		; std::locale::facet::_Incref
EXTRN	?_Decref@facet@locale@std@@UEAAPEAV_Facet_base@3@XZ:PROC ; std::locale::facet::_Decref
EXTRN	?imbue@?$basic_streambuf@_WU?$char_traits@_W@std@@@std@@MEAAXAEBVlocale@2@@Z:PROC ; std::basic_streambuf<wchar_t,std::char_traits<wchar_t> >::imbue
EXTRN	?sync@?$basic_streambuf@_WU?$char_traits@_W@std@@@std@@MEAAHXZ:PROC ; std::basic_streambuf<wchar_t,std::char_traits<wchar_t> >::sync
EXTRN	?setbuf@?$basic_streambuf@_WU?$char_traits@_W@std@@@std@@MEAAPEAV12@PEA_W_J@Z:PROC ; std::basic_streambuf<wchar_t,std::char_traits<wchar_t> >::setbuf
EXTRN	?xsputn@?$basic_streambuf@_WU?$char_traits@_W@std@@@std@@MEAA_JPEB_W_J@Z:PROC ; std::basic_streambuf<wchar_t,std::char_traits<wchar_t> >::xsputn
EXTRN	?xsgetn@?$basic_streambuf@_WU?$char_traits@_W@std@@@std@@MEAA_JPEA_W_J@Z:PROC ; std::basic_streambuf<wchar_t,std::char_traits<wchar_t> >::xsgetn
EXTRN	?uflow@?$basic_streambuf@_WU?$char_traits@_W@std@@@std@@MEAAGXZ:PROC ; std::basic_streambuf<wchar_t,std::char_traits<wchar_t> >::uflow
EXTRN	?showmanyc@?$basic_streambuf@_WU?$char_traits@_W@std@@@std@@MEAA_JXZ:PROC ; std::basic_streambuf<wchar_t,std::char_traits<wchar_t> >::showmanyc
EXTRN	?_Unlock@?$basic_streambuf@_WU?$char_traits@_W@std@@@std@@UEAAXXZ:PROC ; std::basic_streambuf<wchar_t,std::char_traits<wchar_t> >::_Unlock
EXTRN	?_Lock@?$basic_streambuf@_WU?$char_traits@_W@std@@@std@@UEAAXXZ:PROC ; std::basic_streambuf<wchar_t,std::char_traits<wchar_t> >::_Lock
EXTRN	?imbue@?$basic_streambuf@DU?$char_traits@D@std@@@std@@MEAAXAEBVlocale@2@@Z:PROC ; std::basic_streambuf<char,std::char_traits<char> >::imbue
EXTRN	?sync@?$basic_streambuf@DU?$char_traits@D@std@@@std@@MEAAHXZ:PROC ; std::basic_streambuf<char,std::char_traits<char> >::sync
EXTRN	?setbuf@?$basic_streambuf@DU?$char_traits@D@std@@@std@@MEAAPEAV12@PEAD_J@Z:PROC ; std::basic_streambuf<char,std::char_traits<char> >::setbuf
EXTRN	?xsputn@?$basic_streambuf@DU?$char_traits@D@std@@@std@@MEAA_JPEBD_J@Z:PROC ; std::basic_streambuf<char,std::char_traits<char> >::xsputn
EXTRN	?xsgetn@?$basic_streambuf@DU?$char_traits@D@std@@@std@@MEAA_JPEAD_J@Z:PROC ; std::basic_streambuf<char,std::char_traits<char> >::xsgetn
EXTRN	?uflow@?$basic_streambuf@DU?$char_traits@D@std@@@std@@MEAAHXZ:PROC ; std::basic_streambuf<char,std::char_traits<char> >::uflow
EXTRN	?showmanyc@?$basic_streambuf@DU?$char_traits@D@std@@@std@@MEAA_JXZ:PROC ; std::basic_streambuf<char,std::char_traits<char> >::showmanyc
EXTRN	?_Unlock@?$basic_streambuf@DU?$char_traits@D@std@@@std@@UEAAXXZ:PROC ; std::basic_streambuf<char,std::char_traits<char> >::_Unlock
EXTRN	?_Lock@?$basic_streambuf@DU?$char_traits@D@std@@@std@@UEAAXXZ:PROC ; std::basic_streambuf<char,std::char_traits<char> >::_Lock
EXTRN	_CxxThrowException:PROC
EXTRN	_RTC_CheckStackVars:PROC
EXTRN	_RTC_InitBase:PROC
EXTRN	_RTC_Shutdown:PROC
EXTRN	__CxxFrameHandler4:PROC
EXTRN	__GSHandlerCheck:PROC
EXTRN	__GSHandlerCheck_EH4:PROC
EXTRN	__security_check_cookie:PROC
EXTRN	??_7type_info@@6B@:BYTE				; type_info::`vftable'
EXTRN	?__type_info_root_node@@3U__type_info_node@@A:BYTE ; __type_info_root_node
EXTRN	__imp_?id@?$ctype@_W@std@@2V0locale@2@A:QWORD
EXTRN	__imp_?cout@std@@3V?$basic_ostream@DU?$char_traits@D@std@@@1@A:BYTE
EXTRN	__imp_?wcout@std@@3V?$basic_ostream@_WU?$char_traits@_W@std@@@1@A:BYTE
EXTRN	__security_cookie:QWORD
EXTRN	_fltused:DWORD
;	COMDAT ?_Psave@?$_Facetptr@V?$ctype@_W@std@@@std@@2PEBVfacet@locale@2@EB
_BSS	SEGMENT
?_Psave@?$_Facetptr@V?$ctype@_W@std@@@std@@2PEBVfacet@locale@2@EB DQ 01H DUP (?) ; std::_Facetptr<std::ctype<wchar_t> >::_Psave
_BSS	ENDS
;	COMDAT ?id@?$format_punct@D@io@glm@@2V0locale@std@@A
_BSS	SEGMENT
?id@?$format_punct@D@io@glm@@2V0locale@std@@A DQ 01H DUP (?) ; glm::io::format_punct<char>::id
_BSS	ENDS
;	COMDAT ?id@?$format_punct@_W@io@glm@@2V0locale@std@@A
_BSS	SEGMENT
?id@?$format_punct@_W@io@glm@@2V0locale@std@@A DQ 01H DUP (?) ; glm::io::format_punct<wchar_t>::id
_BSS	ENDS
;	COMDAT ?_Psave@?$_Facetptr@V?$format_punct@D@io@glm@@@std@@2PEBVfacet@locale@2@EB
_BSS	SEGMENT
?_Psave@?$_Facetptr@V?$format_punct@D@io@glm@@@std@@2PEBVfacet@locale@2@EB DQ 01H DUP (?) ; std::_Facetptr<glm::io::format_punct<char> >::_Psave
_BSS	ENDS
;	COMDAT ?_Psave@?$_Facetptr@V?$format_punct@_W@io@glm@@@std@@2PEBVfacet@locale@2@EB
_BSS	SEGMENT
?_Psave@?$_Facetptr@V?$format_punct@_W@io@glm@@@std@@2PEBVfacet@locale@2@EB DQ 01H DUP (?) ; std::_Facetptr<glm::io::format_punct<wchar_t> >::_Psave
_BSS	ENDS
;	COMDAT pdata
pdata	SEGMENT
$pdata$??_H@YAXPEAX_K1P6APEAX0@Z@Z DD imagerel $LN7
	DD	imagerel $LN7+119
	DD	imagerel $unwind$??_H@YAXPEAX_K1P6APEAX0@Z@Z
pdata	ENDS
;	COMDAT pdata
pdata	SEGMENT
$pdata$?__empty_global_delete@@YAXPEAX@Z DD imagerel $LN3
	DD	imagerel $LN3+8
	DD	imagerel $unwind$?__empty_global_delete@@YAXPEAX@Z
pdata	ENDS
;	COMDAT pdata
pdata	SEGMENT
$pdata$?__empty_global_delete@@YAXPEAX_K@Z DD imagerel $LN3
	DD	imagerel $LN3+13
	DD	imagerel $unwind$?__empty_global_delete@@YAXPEAX_K@Z
pdata	ENDS
;	COMDAT pdata
pdata	SEGMENT
$pdata$wmemcpy DD imagerel $LN3
	DD	imagerel $LN3+52
	DD	imagerel $unwind$wmemcpy
pdata	ENDS
;	COMDAT pdata
pdata	SEGMENT
$pdata$?max@?$numeric_limits@_J@std@@SA_JXZ DD imagerel $LN3
	DD	imagerel $LN3+14
	DD	imagerel $unwind$?max@?$numeric_limits@_J@std@@SA_JXZ
pdata	ENDS
;	COMDAT pdata
pdata	SEGMENT
$pdata$??2@YAPEAX_KPEAX@Z DD imagerel $LN3
	DD	imagerel $LN3+18
	DD	imagerel $unwind$??2@YAPEAX_KPEAX@Z
pdata	ENDS
;	COMDAT pdata
pdata	SEGMENT
$pdata$?length@?$tvec2@M$0A@@glm@@SAHXZ DD imagerel $LN3
	DD	imagerel $LN3+9
	DD	imagerel $unwind$?length@?$tvec2@M$0A@@glm@@SAHXZ
pdata	ENDS
;	COMDAT pdata
pdata	SEGMENT
$pdata$??A?$tvec2@M$0A@@glm@@QEAAAEAMH@Z DD imagerel $LN5
	DD	imagerel $LN5+80
	DD	imagerel $unwind$??A?$tvec2@M$0A@@glm@@QEAAAEAMH@Z
pdata	ENDS
;	COMDAT pdata
pdata	SEGMENT
$pdata$??A?$tvec2@M$0A@@glm@@QEBAAEBMH@Z DD imagerel $LN5
	DD	imagerel $LN5+80
	DD	imagerel $unwind$??A?$tvec2@M$0A@@glm@@QEBAAEBMH@Z
pdata	ENDS
;	COMDAT pdata
pdata	SEGMENT
$pdata$??0?$tvec2@M$0A@@glm@@QEAA@XZ DD imagerel $LN3
	DD	imagerel $LN3+38
	DD	imagerel $unwind$??0?$tvec2@M$0A@@glm@@QEAA@XZ
pdata	ENDS
;	COMDAT pdata
pdata	SEGMENT
$pdata$?length@?$tvec4@M$0A@@glm@@SAHXZ DD imagerel $LN3
	DD	imagerel $LN3+9
	DD	imagerel $unwind$?length@?$tvec4@M$0A@@glm@@SAHXZ
pdata	ENDS
;	COMDAT pdata
pdata	SEGMENT
$pdata$??A?$tvec4@M$0A@@glm@@QEAAAEAMH@Z DD imagerel $LN5
	DD	imagerel $LN5+80
	DD	imagerel $unwind$??A?$tvec4@M$0A@@glm@@QEAAAEAMH@Z
pdata	ENDS
;	COMDAT pdata
pdata	SEGMENT
$pdata$??A?$tvec4@M$0A@@glm@@QEBAAEBMH@Z DD imagerel $LN5
	DD	imagerel $LN5+80
	DD	imagerel $unwind$??A?$tvec4@M$0A@@glm@@QEBAAEBMH@Z
pdata	ENDS
;	COMDAT pdata
pdata	SEGMENT
$pdata$??0?$tvec4@M$0A@@glm@@QEAA@XZ DD imagerel $LN3
	DD	imagerel $LN3+64
	DD	imagerel $unwind$??0?$tvec4@M$0A@@glm@@QEAA@XZ
pdata	ENDS
;	COMDAT pdata
pdata	SEGMENT
$pdata$??0exception@std@@QEAA@QEBDH@Z DD imagerel $LN3
	DD	imagerel $LN3+73
	DD	imagerel $unwind$??0exception@std@@QEAA@QEBDH@Z
pdata	ENDS
;	COMDAT pdata
pdata	SEGMENT
$pdata$??0exception@std@@QEAA@AEBV01@@Z DD imagerel $LN3
	DD	imagerel $LN3+88
	DD	imagerel $unwind$??0exception@std@@QEAA@AEBV01@@Z
pdata	ENDS
;	COMDAT pdata
pdata	SEGMENT
$pdata$??1exception@std@@UEAA@XZ DD imagerel $LN3
	DD	imagerel $LN3+48
	DD	imagerel $unwind$??1exception@std@@UEAA@XZ
pdata	ENDS
;	COMDAT pdata
pdata	SEGMENT
$pdata$?what@exception@std@@UEBAPEBDXZ DD imagerel $LN5
	DD	imagerel $LN5+58
	DD	imagerel $unwind$?what@exception@std@@UEBAPEBDXZ
pdata	ENDS
;	COMDAT pdata
pdata	SEGMENT
$pdata$??_Gexception@std@@UEAAPEAXI@Z DD imagerel $LN4
	DD	imagerel $LN4+61
	DD	imagerel $unwind$??_Gexception@std@@UEAAPEAXI@Z
pdata	ENDS
;	COMDAT pdata
pdata	SEGMENT
$pdata$??0bad_alloc@std@@AEAA@QEBD@Z DD imagerel $LN3
	DD	imagerel $LN3+62
	DD	imagerel $unwind$??0bad_alloc@std@@AEAA@QEBD@Z
pdata	ENDS
;	COMDAT pdata
pdata	SEGMENT
$pdata$??1bad_alloc@std@@UEAA@XZ DD imagerel $LN3
	DD	imagerel $LN3+26
	DD	imagerel $unwind$??1bad_alloc@std@@UEAA@XZ
pdata	ENDS
;	COMDAT pdata
pdata	SEGMENT
$pdata$??0bad_alloc@std@@QEAA@AEBV01@@Z DD imagerel $LN3
	DD	imagerel $LN3+56
	DD	imagerel $unwind$??0bad_alloc@std@@QEAA@AEBV01@@Z
pdata	ENDS
;	COMDAT pdata
pdata	SEGMENT
$pdata$??_Gbad_alloc@std@@UEAAPEAXI@Z DD imagerel $LN4
	DD	imagerel $LN4+61
	DD	imagerel $unwind$??_Gbad_alloc@std@@UEAAPEAXI@Z
pdata	ENDS
;	COMDAT pdata
pdata	SEGMENT
$pdata$??0bad_array_new_length@std@@QEAA@XZ DD imagerel $LN3
	DD	imagerel $LN3+53
	DD	imagerel $unwind$??0bad_array_new_length@std@@QEAA@XZ
pdata	ENDS
;	COMDAT pdata
pdata	SEGMENT
$pdata$??1bad_array_new_length@std@@UEAA@XZ DD imagerel $LN3
	DD	imagerel $LN3+26
	DD	imagerel $unwind$??1bad_array_new_length@std@@UEAA@XZ
pdata	ENDS
;	COMDAT pdata
pdata	SEGMENT
$pdata$??0bad_array_new_length@std@@QEAA@AEBV01@@Z DD imagerel $LN3
	DD	imagerel $LN3+56
	DD	imagerel $unwind$??0bad_array_new_length@std@@QEAA@AEBV01@@Z
pdata	ENDS
;	COMDAT pdata
pdata	SEGMENT
$pdata$??_Gbad_array_new_length@std@@UEAAPEAXI@Z DD imagerel $LN4
	DD	imagerel $LN4+61
	DD	imagerel $unwind$??_Gbad_array_new_length@std@@UEAAPEAXI@Z
pdata	ENDS
;	COMDAT pdata
pdata	SEGMENT
$pdata$?_Throw_bad_array_new_length@std@@YAXXZ DD imagerel $LN3
	DD	imagerel $LN3+39
	DD	imagerel $unwind$?_Throw_bad_array_new_length@std@@YAXXZ
pdata	ENDS
;	COMDAT pdata
pdata	SEGMENT
$pdata$?_Allocate@_Default_allocate_traits@std@@SAPEAX_K@Z DD imagerel $LN3
	DD	imagerel $LN3+26
	DD	imagerel $unwind$?_Allocate@_Default_allocate_traits@std@@SAPEAX_K@Z
pdata	ENDS
;	COMDAT pdata
pdata	SEGMENT
$pdata$?_Adjust_manually_vector_aligned@std@@YAXAEAPEAXAEA_K@Z DD imagerel $LN21
	DD	imagerel $LN21+404
	DD	imagerel $unwind$?_Adjust_manually_vector_aligned@std@@YAXAEAPEAXAEA_K@Z
pdata	ENDS
;	COMDAT pdata
pdata	SEGMENT
$pdata$??0_Container_proxy@std@@QEAA@PEAU_Container_base12@1@@Z DD imagerel $LN3
	DD	imagerel $LN3+44
	DD	imagerel $unwind$??0_Container_proxy@std@@QEAA@PEAU_Container_base12@1@@Z
pdata	ENDS
;	COMDAT pdata
pdata	SEGMENT
$pdata$??0_Container_base12@std@@QEAA@XZ DD imagerel $LN3
	DD	imagerel $LN3+25
	DD	imagerel $unwind$??0_Container_base12@std@@QEAA@XZ
pdata	ENDS
;	COMDAT pdata
pdata	SEGMENT
$pdata$?_Orphan_all@_Container_base12@std@@QEAAXXZ DD imagerel $LN3
	DD	imagerel $LN3+26
	DD	imagerel $unwind$?_Orphan_all@_Container_base12@std@@QEAAXXZ
pdata	ENDS
;	COMDAT pdata
pdata	SEGMENT
$pdata$?_Swap_proxy_and_iterators@_Container_base12@std@@QEAAXAEAU12@@Z DD imagerel $LN3
	DD	imagerel $LN3+36
	DD	imagerel $unwind$?_Swap_proxy_and_iterators@_Container_base12@std@@QEAAXAEAU12@@Z
pdata	ENDS
;	COMDAT pdata
pdata	SEGMENT
$pdata$?_Orphan_all_unlocked_v3@_Container_base12@std@@AEAAXXZ DD imagerel $LN7
	DD	imagerel $LN7+107
	DD	imagerel $unwind$?_Orphan_all_unlocked_v3@_Container_base12@std@@AEAAXXZ
pdata	ENDS
;	COMDAT pdata
pdata	SEGMENT
$pdata$?_Swap_proxy_and_iterators_unlocked@_Container_base12@std@@AEAAXAEAU12@@Z DD imagerel $LN5
	DD	imagerel $LN5+115
	DD	imagerel $unwind$?_Swap_proxy_and_iterators_unlocked@_Container_base12@std@@AEAAXAEAU12@@Z
pdata	ENDS
;	COMDAT pdata
pdata	SEGMENT
$pdata$?_Orphan_all_locked_v3@_Container_base12@std@@AEAAXXZ DD imagerel $LN3
	DD	imagerel $LN3+90
	DD	imagerel $unwind$?_Orphan_all_locked_v3@_Container_base12@std@@AEAAXXZ
pdata	ENDS
;	COMDAT pdata
pdata	SEGMENT
$pdata$?_Swap_proxy_and_iterators_locked@_Container_base12@std@@AEAAXAEAU12@@Z DD imagerel $LN3
	DD	imagerel $LN3+100
	DD	imagerel $unwind$?_Swap_proxy_and_iterators_locked@_Container_base12@std@@AEAAXAEAU12@@Z
pdata	ENDS
;	COMDAT pdata
pdata	SEGMENT
$pdata$?copy@?$_Char_traits@_WG@std@@SAPEA_WQEA_WQEB_W_K@Z DD imagerel $LN3
	DD	imagerel $LN3+57
	DD	imagerel $unwind$?copy@?$_Char_traits@_WG@std@@SAPEA_WQEA_WQEB_W_K@Z
pdata	ENDS
;	COMDAT pdata
pdata	SEGMENT
$pdata$?move@?$_Char_traits@_WG@std@@SAPEA_WQEA_WQEB_W_K@Z DD imagerel $LN3
	DD	imagerel $LN3+57
	DD	imagerel $unwind$?move@?$_Char_traits@_WG@std@@SAPEA_WQEA_WQEB_W_K@Z
pdata	ENDS
;	COMDAT pdata
pdata	SEGMENT
$pdata$?assign@?$_WChar_traits@_W@std@@SAXAEA_WAEB_W@Z DD imagerel $LN3
	DD	imagerel $LN3+29
	DD	imagerel $unwind$?assign@?$_WChar_traits@_W@std@@SAXAEA_WAEB_W@Z
pdata	ENDS
;	COMDAT pdata
pdata	SEGMENT
$pdata$?eq@?$_WChar_traits@_W@std@@SA_NAEB_W0@Z DD imagerel $LN5
	DD	imagerel $LN5+61
	DD	imagerel $unwind$?eq@?$_WChar_traits@_W@std@@SA_NAEB_W0@Z
pdata	ENDS
;	COMDAT pdata
pdata	SEGMENT
$pdata$?to_char_type@?$_WChar_traits@_W@std@@SA_WAEBG@Z DD imagerel $LN3
	DD	imagerel $LN3+16
	DD	imagerel $unwind$?to_char_type@?$_WChar_traits@_W@std@@SA_WAEBG@Z
pdata	ENDS
;	COMDAT pdata
pdata	SEGMENT
$pdata$?to_int_type@?$_WChar_traits@_W@std@@SAGAEB_W@Z DD imagerel $LN3
	DD	imagerel $LN3+16
	DD	imagerel $unwind$?to_int_type@?$_WChar_traits@_W@std@@SAGAEB_W@Z
pdata	ENDS
;	COMDAT pdata
pdata	SEGMENT
$pdata$?eq_int_type@?$_WChar_traits@_W@std@@SA_NAEBG0@Z DD imagerel $LN5
	DD	imagerel $LN5+61
	DD	imagerel $unwind$?eq_int_type@?$_WChar_traits@_W@std@@SA_NAEBG0@Z
pdata	ENDS
;	COMDAT pdata
pdata	SEGMENT
$pdata$?not_eof@?$_WChar_traits@_W@std@@SAGAEBG@Z DD imagerel $LN7
	DD	imagerel $LN7+105
	DD	imagerel $unwind$?not_eof@?$_WChar_traits@_W@std@@SAGAEBG@Z
pdata	ENDS
;	COMDAT pdata
pdata	SEGMENT
$pdata$?eof@?$_WChar_traits@_W@std@@SAGXZ DD imagerel $LN3
	DD	imagerel $LN3+9
	DD	imagerel $unwind$?eof@?$_WChar_traits@_W@std@@SAGXZ
pdata	ENDS
;	COMDAT pdata
pdata	SEGMENT
$pdata$?copy@?$_Char_traits@DH@std@@SAPEADQEADQEBD_K@Z DD imagerel $LN3
	DD	imagerel $LN3+51
	DD	imagerel $unwind$?copy@?$_Char_traits@DH@std@@SAPEADQEADQEBD_K@Z
pdata	ENDS
;	COMDAT pdata
pdata	SEGMENT
$pdata$?move@?$_Char_traits@DH@std@@SAPEADQEADQEBD_K@Z DD imagerel $LN3
	DD	imagerel $LN3+51
	DD	imagerel $unwind$?move@?$_Char_traits@DH@std@@SAPEADQEADQEBD_K@Z
pdata	ENDS
;	COMDAT pdata
pdata	SEGMENT
$pdata$?length@?$_Narrow_char_traits@DH@std@@SA_KQEBD@Z DD imagerel $LN3
	DD	imagerel $LN3+26
	DD	imagerel $unwind$?length@?$_Narrow_char_traits@DH@std@@SA_KQEBD@Z
pdata	ENDS
;	COMDAT pdata
pdata	SEGMENT
$pdata$?assign@?$_Narrow_char_traits@DH@std@@SAXAEADAEBD@Z DD imagerel $LN3
	DD	imagerel $LN3+28
	DD	imagerel $unwind$?assign@?$_Narrow_char_traits@DH@std@@SAXAEADAEBD@Z
pdata	ENDS
;	COMDAT pdata
pdata	SEGMENT
$pdata$?eq@?$_Narrow_char_traits@DH@std@@SA_NAEBD0@Z DD imagerel $LN5
	DD	imagerel $LN5+61
	DD	imagerel $unwind$?eq@?$_Narrow_char_traits@DH@std@@SA_NAEBD0@Z
pdata	ENDS
;	COMDAT pdata
pdata	SEGMENT
$pdata$?to_char_type@?$_Narrow_char_traits@DH@std@@SADAEBH@Z DD imagerel $LN3
	DD	imagerel $LN3+16
	DD	imagerel $unwind$?to_char_type@?$_Narrow_char_traits@DH@std@@SADAEBH@Z
pdata	ENDS
;	COMDAT pdata
pdata	SEGMENT
$pdata$?to_int_type@?$_Narrow_char_traits@DH@std@@SAHAEBD@Z DD imagerel $LN3
	DD	imagerel $LN3+16
	DD	imagerel $unwind$?to_int_type@?$_Narrow_char_traits@DH@std@@SAHAEBD@Z
pdata	ENDS
;	COMDAT pdata
pdata	SEGMENT
$pdata$?eq_int_type@?$_Narrow_char_traits@DH@std@@SA_NAEBH0@Z DD imagerel $LN5
	DD	imagerel $LN5+57
	DD	imagerel $unwind$?eq_int_type@?$_Narrow_char_traits@DH@std@@SA_NAEBH0@Z
pdata	ENDS
;	COMDAT pdata
pdata	SEGMENT
$pdata$?not_eof@?$_Narrow_char_traits@DH@std@@SAHAEBH@Z DD imagerel $LN7
	DD	imagerel $LN7+82
	DD	imagerel $unwind$?not_eof@?$_Narrow_char_traits@DH@std@@SAHAEBH@Z
pdata	ENDS
;	COMDAT pdata
pdata	SEGMENT
$pdata$?eof@?$_Narrow_char_traits@DH@std@@SAHXZ DD imagerel $LN3
	DD	imagerel $LN3+9
	DD	imagerel $unwind$?eof@?$_Narrow_char_traits@DH@std@@SAHXZ
pdata	ENDS
;	COMDAT pdata
pdata	SEGMENT
$pdata$?_Xlen_string@std@@YAXXZ DD imagerel $LN3
	DD	imagerel $LN3+24
	DD	imagerel $unwind$?_Xlen_string@std@@YAXXZ
pdata	ENDS
;	COMDAT pdata
pdata	SEGMENT
$pdata$??0?$allocator@D@std@@QEAA@XZ DD imagerel $LN3
	DD	imagerel $LN3+13
	DD	imagerel $unwind$??0?$allocator@D@std@@QEAA@XZ
pdata	ENDS
;	COMDAT pdata
pdata	SEGMENT
$pdata$?deallocate@?$allocator@D@std@@QEAAXQEAD_K@Z DD imagerel $LN13
	DD	imagerel $LN13+176
	DD	imagerel $unwind$?deallocate@?$allocator@D@std@@QEAAXQEAD_K@Z
pdata	ENDS
;	COMDAT pdata
pdata	SEGMENT
$pdata$?allocate@?$allocator@D@std@@QEAAPEAD_K@Z DD imagerel $LN3
	DD	imagerel $LN3+39
	DD	imagerel $unwind$?allocate@?$allocator@D@std@@QEAAPEAD_K@Z
pdata	ENDS
;	COMDAT pdata
pdata	SEGMENT
$pdata$?max_size@?$_Default_allocator_traits@V?$allocator@D@std@@@std@@SA_KAEBV?$allocator@D@2@@Z DD imagerel $LN3
	DD	imagerel $LN3+15
	DD	imagerel $unwind$?max_size@?$_Default_allocator_traits@V?$allocator@D@std@@@std@@SA_KAEBV?$allocator@D@2@@Z
pdata	ENDS
;	COMDAT pdata
pdata	SEGMENT
$pdata$??0?$_String_val@U?$_Simple_types@D@std@@@std@@QEAA@XZ DD imagerel $LN3
	DD	imagerel $LN3+74
	DD	imagerel $unwind$??0?$_String_val@U?$_Simple_types@D@std@@@std@@QEAA@XZ
pdata	ENDS
;	COMDAT pdata
pdata	SEGMENT
$pdata$?_Myptr@?$_String_val@U?$_Simple_types@D@std@@@std@@QEAAPEADXZ DD imagerel $LN4
	DD	imagerel $LN4+71
	DD	imagerel $unwind$?_Myptr@?$_String_val@U?$_Simple_types@D@std@@@std@@QEAAPEADXZ
pdata	ENDS
;	COMDAT pdata
pdata	SEGMENT
$pdata$?_Myptr@?$_String_val@U?$_Simple_types@D@std@@@std@@QEBAPEBDXZ DD imagerel $LN4
	DD	imagerel $LN4+71
	DD	imagerel $unwind$?_Myptr@?$_String_val@U?$_Simple_types@D@std@@@std@@QEBAPEBDXZ
pdata	ENDS
;	COMDAT pdata
pdata	SEGMENT
$pdata$?_Large_string_engaged@?$_String_val@U?$_Simple_types@D@std@@@std@@QEBA_NXZ DD imagerel $LN5
	DD	imagerel $LN5+48
	DD	imagerel $unwind$?_Large_string_engaged@?$_String_val@U?$_Simple_types@D@std@@@std@@QEBA_NXZ
pdata	ENDS
;	COMDAT pdata
pdata	SEGMENT
$pdata$??0_Bxty@?$_String_val@U?$_Simple_types@D@std@@@std@@QEAA@XZ DD imagerel $LN3
	DD	imagerel $LN3+25
	DD	imagerel $unwind$??0_Bxty@?$_String_val@U?$_Simple_types@D@std@@@std@@QEAA@XZ
pdata	ENDS
;	COMDAT pdata
pdata	SEGMENT
$pdata$??1_Bxty@?$_String_val@U?$_Simple_types@D@std@@@std@@QEAA@XZ DD imagerel $LN3
	DD	imagerel $LN3+8
	DD	imagerel $unwind$??1_Bxty@?$_String_val@U?$_Simple_types@D@std@@@std@@QEAA@XZ
pdata	ENDS
;	COMDAT pdata
pdata	SEGMENT
$pdata$??1?$_String_val@U?$_Simple_types@D@std@@@std@@QEAA@XZ DD imagerel $LN3
	DD	imagerel $LN3+33
	DD	imagerel $unwind$??1?$_String_val@U?$_Simple_types@D@std@@@std@@QEAA@XZ
pdata	ENDS
;	COMDAT pdata
pdata	SEGMENT
$pdata$??0?$basic_string@DU?$char_traits@D@std@@V?$allocator@D@2@@std@@QEAA@AEBV?$allocator@D@1@@Z DD imagerel $LN3
	DD	imagerel $LN3+95
	DD	imagerel $unwind$??0?$basic_string@DU?$char_traits@D@std@@V?$allocator@D@2@@std@@QEAA@AEBV?$allocator@D@1@@Z
pdata	ENDS
;	COMDAT pdata
pdata	SEGMENT
$pdata$??0?$basic_string@DU?$char_traits@D@std@@V?$allocator@D@2@@std@@QEAA@$$QEAV01@@Z DD imagerel $LN3
	DD	imagerel $LN3+113
	DD	imagerel $unwind$??0?$basic_string@DU?$char_traits@D@std@@V?$allocator@D@2@@std@@QEAA@$$QEAV01@@Z
pdata	ENDS
;	COMDAT pdata
pdata	SEGMENT
$pdata$?_Memcpy_val_from@?$basic_string@DU?$char_traits@D@std@@V?$allocator@D@2@@std@@AEAAXAEBV12@@Z DD imagerel $LN3
	DD	imagerel $LN3+86
	DD	imagerel $unwind$?_Memcpy_val_from@?$basic_string@DU?$char_traits@D@std@@V?$allocator@D@2@@std@@AEAAXAEBV12@@Z
pdata	ENDS
;	COMDAT pdata
pdata	SEGMENT
$pdata$?_Take_contents@?$basic_string@DU?$char_traits@D@std@@V?$allocator@D@2@@std@@AEAAXAEAV12@@Z DD imagerel $LN7
	DD	imagerel $LN7+299
	DD	imagerel $unwind$?_Take_contents@?$basic_string@DU?$char_traits@D@std@@V?$allocator@D@2@@std@@AEAAXAEAV12@@Z
pdata	ENDS
;	COMDAT pdata
pdata	SEGMENT
$pdata$??1?$basic_string@DU?$char_traits@D@std@@V?$allocator@D@2@@std@@QEAA@XZ DD imagerel $LN3
	DD	imagerel $LN3+149
	DD	imagerel $unwind$??1?$basic_string@DU?$char_traits@D@std@@V?$allocator@D@2@@std@@QEAA@XZ
pdata	ENDS
;	COMDAT pdata
pdata	SEGMENT
$pdata$?assign@?$basic_string@DU?$char_traits@D@std@@V?$allocator@D@2@@std@@QEAAAEAV12@QEBD_K@Z DD imagerel $LN4
	DD	imagerel $LN4+178
	DD	imagerel $unwind$?assign@?$basic_string@DU?$char_traits@D@std@@V?$allocator@D@2@@std@@QEAAAEAV12@QEBD_K@Z
pdata	ENDS
;	COMDAT pdata
pdata	SEGMENT
$pdata$?data@?$basic_string@DU?$char_traits@D@std@@V?$allocator@D@2@@std@@QEBAPEBDXZ DD imagerel $LN3
	DD	imagerel $LN3+29
	DD	imagerel $unwind$?data@?$basic_string@DU?$char_traits@D@std@@V?$allocator@D@2@@std@@QEBAPEBDXZ
pdata	ENDS
;	COMDAT pdata
pdata	SEGMENT
$pdata$?size@?$basic_string@DU?$char_traits@D@std@@V?$allocator@D@2@@std@@QEBA_KXZ DD imagerel $LN3
	DD	imagerel $LN3+17
	DD	imagerel $unwind$?size@?$basic_string@DU?$char_traits@D@std@@V?$allocator@D@2@@std@@QEBA_KXZ
pdata	ENDS
;	COMDAT pdata
pdata	SEGMENT
$pdata$?max_size@?$basic_string@DU?$char_traits@D@std@@V?$allocator@D@2@@std@@QEBA_KXZ DD imagerel $LN3
	DD	imagerel $LN3+155
	DD	imagerel $unwind$?max_size@?$basic_string@DU?$char_traits@D@std@@V?$allocator@D@2@@std@@QEBA_KXZ
pdata	ENDS
;	COMDAT pdata
pdata	SEGMENT
$pdata$?_Calculate_growth@?$basic_string@DU?$char_traits@D@std@@V?$allocator@D@2@@std@@CA_K_K00@Z DD imagerel $LN5
	DD	imagerel $LN5+191
	DD	imagerel $unwind$?_Calculate_growth@?$basic_string@DU?$char_traits@D@std@@V?$allocator@D@2@@std@@CA_K_K00@Z
pdata	ENDS
;	COMDAT pdata
pdata	SEGMENT
$pdata$?_Calculate_growth@?$basic_string@DU?$char_traits@D@std@@V?$allocator@D@2@@std@@AEBA_K_K@Z DD imagerel $LN3
	DD	imagerel $LN3+53
	DD	imagerel $unwind$?_Calculate_growth@?$basic_string@DU?$char_traits@D@std@@V?$allocator@D@2@@std@@AEBA_K_K@Z
pdata	ENDS
;	COMDAT pdata
pdata	SEGMENT
$pdata$?_Tidy_init@?$basic_string@DU?$char_traits@D@std@@V?$allocator@D@2@@std@@AEAAXXZ DD imagerel $LN3
	DD	imagerel $LN3+89
	DD	imagerel $unwind$?_Tidy_init@?$basic_string@DU?$char_traits@D@std@@V?$allocator@D@2@@std@@AEAAXXZ
pdata	ENDS
;	COMDAT pdata
pdata	SEGMENT
$pdata$?_Tidy_deallocate@?$basic_string@DU?$char_traits@D@std@@V?$allocator@D@2@@std@@AEAAXXZ DD imagerel $LN4
	DD	imagerel $LN4+189
	DD	imagerel $unwind$?_Tidy_deallocate@?$basic_string@DU?$char_traits@D@std@@V?$allocator@D@2@@std@@AEAAXXZ
pdata	ENDS
;	COMDAT pdata
pdata	SEGMENT
$pdata$?_Swap_proxy_and_iterators@?$basic_string@DU?$char_traits@D@std@@V?$allocator@D@2@@std@@AEAAXAEAV12@@Z DD imagerel $LN3
	DD	imagerel $LN3+39
	DD	imagerel $unwind$?_Swap_proxy_and_iterators@?$basic_string@DU?$char_traits@D@std@@V?$allocator@D@2@@std@@AEAAXAEAV12@@Z
pdata	ENDS
;	COMDAT pdata
pdata	SEGMENT
$pdata$?_Getal@?$basic_string@DU?$char_traits@D@std@@V?$allocator@D@2@@std@@AEAAAEAV?$allocator@D@2@XZ DD imagerel $LN3
	DD	imagerel $LN3+29
	DD	imagerel $unwind$?_Getal@?$basic_string@DU?$char_traits@D@std@@V?$allocator@D@2@@std@@AEAAAEAV?$allocator@D@2@XZ
pdata	ENDS
;	COMDAT pdata
pdata	SEGMENT
$pdata$?_Getal@?$basic_string@DU?$char_traits@D@std@@V?$allocator@D@2@@std@@AEBAAEBV?$allocator@D@2@XZ DD imagerel $LN3
	DD	imagerel $LN3+29
	DD	imagerel $unwind$?_Getal@?$basic_string@DU?$char_traits@D@std@@V?$allocator@D@2@@std@@AEBAAEBV?$allocator@D@2@XZ
pdata	ENDS
;	COMDAT pdata
pdata	SEGMENT
$pdata$?_Get_first@?$_Compressed_pair@V?$allocator@D@std@@V?$_String_val@U?$_Simple_types@D@std@@@2@$00@std@@QEAAAEAV?$allocator@D@2@XZ DD imagerel $LN3
	DD	imagerel $LN3+13
	DD	imagerel $unwind$?_Get_first@?$_Compressed_pair@V?$allocator@D@std@@V?$_String_val@U?$_Simple_types@D@std@@@2@$00@std@@QEAAAEAV?$allocator@D@2@XZ
pdata	ENDS
;	COMDAT pdata
pdata	SEGMENT
$pdata$?_Get_first@?$_Compressed_pair@V?$allocator@D@std@@V?$_String_val@U?$_Simple_types@D@std@@@2@$00@std@@QEBAAEBV?$allocator@D@2@XZ DD imagerel $LN3
	DD	imagerel $LN3+13
	DD	imagerel $unwind$?_Get_first@?$_Compressed_pair@V?$allocator@D@std@@V?$_String_val@U?$_Simple_types@D@std@@@2@$00@std@@QEBAAEBV?$allocator@D@2@XZ
pdata	ENDS
;	COMDAT pdata
pdata	SEGMENT
$pdata$??1?$_Compressed_pair@V?$allocator@D@std@@V?$_String_val@U?$_Simple_types@D@std@@@2@$00@std@@QEAA@XZ DD imagerel $LN3
	DD	imagerel $LN3+29
	DD	imagerel $unwind$??1?$_Compressed_pair@V?$allocator@D@std@@V?$_String_val@U?$_Simple_types@D@std@@@2@$00@std@@QEAA@XZ
pdata	ENDS
;	COMDAT pdata
pdata	SEGMENT
$pdata$??0?$allocator@_W@std@@QEAA@XZ DD imagerel $LN3
	DD	imagerel $LN3+13
	DD	imagerel $unwind$??0?$allocator@_W@std@@QEAA@XZ
pdata	ENDS
;	COMDAT pdata
pdata	SEGMENT
$pdata$?deallocate@?$allocator@_W@std@@QEAAXQEA_W_K@Z DD imagerel $LN13
	DD	imagerel $LN13+182
	DD	imagerel $unwind$?deallocate@?$allocator@_W@std@@QEAAXQEA_W_K@Z
pdata	ENDS
;	COMDAT pdata
pdata	SEGMENT
$pdata$?allocate@?$allocator@_W@std@@QEAAPEA_W_K@Z DD imagerel $LN3
	DD	imagerel $LN3+39
	DD	imagerel $unwind$?allocate@?$allocator@_W@std@@QEAAPEA_W_K@Z
pdata	ENDS
;	COMDAT pdata
pdata	SEGMENT
$pdata$?max_size@?$_Default_allocator_traits@V?$allocator@_W@std@@@std@@SA_KAEBV?$allocator@_W@2@@Z DD imagerel $LN3
	DD	imagerel $LN3+18
	DD	imagerel $unwind$?max_size@?$_Default_allocator_traits@V?$allocator@_W@std@@@std@@SA_KAEBV?$allocator@_W@2@@Z
pdata	ENDS
;	COMDAT pdata
pdata	SEGMENT
$pdata$??0?$_String_val@U?$_Simple_types@_W@std@@@std@@QEAA@XZ DD imagerel $LN3
	DD	imagerel $LN3+74
	DD	imagerel $unwind$??0?$_String_val@U?$_Simple_types@_W@std@@@std@@QEAA@XZ
pdata	ENDS
;	COMDAT pdata
pdata	SEGMENT
$pdata$?_Myptr@?$_String_val@U?$_Simple_types@_W@std@@@std@@QEAAPEA_WXZ DD imagerel $LN4
	DD	imagerel $LN4+71
	DD	imagerel $unwind$?_Myptr@?$_String_val@U?$_Simple_types@_W@std@@@std@@QEAAPEA_WXZ
pdata	ENDS
;	COMDAT pdata
pdata	SEGMENT
$pdata$?_Myptr@?$_String_val@U?$_Simple_types@_W@std@@@std@@QEBAPEB_WXZ DD imagerel $LN4
	DD	imagerel $LN4+71
	DD	imagerel $unwind$?_Myptr@?$_String_val@U?$_Simple_types@_W@std@@@std@@QEBAPEB_WXZ
pdata	ENDS
;	COMDAT pdata
pdata	SEGMENT
$pdata$?_Large_string_engaged@?$_String_val@U?$_Simple_types@_W@std@@@std@@QEBA_NXZ DD imagerel $LN5
	DD	imagerel $LN5+48
	DD	imagerel $unwind$?_Large_string_engaged@?$_String_val@U?$_Simple_types@_W@std@@@std@@QEBA_NXZ
pdata	ENDS
;	COMDAT pdata
pdata	SEGMENT
$pdata$??0_Bxty@?$_String_val@U?$_Simple_types@_W@std@@@std@@QEAA@XZ DD imagerel $LN3
	DD	imagerel $LN3+25
	DD	imagerel $unwind$??0_Bxty@?$_String_val@U?$_Simple_types@_W@std@@@std@@QEAA@XZ
pdata	ENDS
;	COMDAT pdata
pdata	SEGMENT
$pdata$??1_Bxty@?$_String_val@U?$_Simple_types@_W@std@@@std@@QEAA@XZ DD imagerel $LN3
	DD	imagerel $LN3+8
	DD	imagerel $unwind$??1_Bxty@?$_String_val@U?$_Simple_types@_W@std@@@std@@QEAA@XZ
pdata	ENDS
;	COMDAT pdata
pdata	SEGMENT
$pdata$??1?$_String_val@U?$_Simple_types@_W@std@@@std@@QEAA@XZ DD imagerel $LN3
	DD	imagerel $LN3+33
	DD	imagerel $unwind$??1?$_String_val@U?$_Simple_types@_W@std@@@std@@QEAA@XZ
pdata	ENDS
;	COMDAT pdata
pdata	SEGMENT
$pdata$??0?$basic_string@_WU?$char_traits@_W@std@@V?$allocator@_W@2@@std@@QEAA@AEBV?$allocator@_W@1@@Z DD imagerel $LN3
	DD	imagerel $LN3+95
	DD	imagerel $unwind$??0?$basic_string@_WU?$char_traits@_W@std@@V?$allocator@_W@2@@std@@QEAA@AEBV?$allocator@_W@1@@Z
pdata	ENDS
;	COMDAT pdata
pdata	SEGMENT
$pdata$??0?$basic_string@_WU?$char_traits@_W@std@@V?$allocator@_W@2@@std@@QEAA@$$QEAV01@@Z DD imagerel $LN3
	DD	imagerel $LN3+113
	DD	imagerel $unwind$??0?$basic_string@_WU?$char_traits@_W@std@@V?$allocator@_W@2@@std@@QEAA@$$QEAV01@@Z
pdata	ENDS
;	COMDAT pdata
pdata	SEGMENT
$pdata$?_Memcpy_val_from@?$basic_string@_WU?$char_traits@_W@std@@V?$allocator@_W@2@@std@@AEAAXAEBV12@@Z DD imagerel $LN3
	DD	imagerel $LN3+86
	DD	imagerel $unwind$?_Memcpy_val_from@?$basic_string@_WU?$char_traits@_W@std@@V?$allocator@_W@2@@std@@AEAAXAEBV12@@Z
pdata	ENDS
;	COMDAT pdata
pdata	SEGMENT
$pdata$?_Take_contents@?$basic_string@_WU?$char_traits@_W@std@@V?$allocator@_W@2@@std@@AEAAXAEAV12@@Z DD imagerel $LN7
	DD	imagerel $LN7+299
	DD	imagerel $unwind$?_Take_contents@?$basic_string@_WU?$char_traits@_W@std@@V?$allocator@_W@2@@std@@AEAAXAEAV12@@Z
pdata	ENDS
;	COMDAT pdata
pdata	SEGMENT
$pdata$??1?$basic_string@_WU?$char_traits@_W@std@@V?$allocator@_W@2@@std@@QEAA@XZ DD imagerel $LN3
	DD	imagerel $LN3+149
	DD	imagerel $unwind$??1?$basic_string@_WU?$char_traits@_W@std@@V?$allocator@_W@2@@std@@QEAA@XZ
pdata	ENDS
;	COMDAT pdata
pdata	SEGMENT
$pdata$?assign@?$basic_string@_WU?$char_traits@_W@std@@V?$allocator@_W@2@@std@@QEAAAEAV12@QEB_W_K@Z DD imagerel $LN4
	DD	imagerel $LN4+178
	DD	imagerel $unwind$?assign@?$basic_string@_WU?$char_traits@_W@std@@V?$allocator@_W@2@@std@@QEAAAEAV12@QEB_W_K@Z
pdata	ENDS
;	COMDAT pdata
pdata	SEGMENT
$pdata$?data@?$basic_string@_WU?$char_traits@_W@std@@V?$allocator@_W@2@@std@@QEBAPEB_WXZ DD imagerel $LN3
	DD	imagerel $LN3+29
	DD	imagerel $unwind$?data@?$basic_string@_WU?$char_traits@_W@std@@V?$allocator@_W@2@@std@@QEBAPEB_WXZ
pdata	ENDS
;	COMDAT pdata
pdata	SEGMENT
$pdata$?size@?$basic_string@_WU?$char_traits@_W@std@@V?$allocator@_W@2@@std@@QEBA_KXZ DD imagerel $LN3
	DD	imagerel $LN3+17
	DD	imagerel $unwind$?size@?$basic_string@_WU?$char_traits@_W@std@@V?$allocator@_W@2@@std@@QEBA_KXZ
pdata	ENDS
;	COMDAT pdata
pdata	SEGMENT
$pdata$?max_size@?$basic_string@_WU?$char_traits@_W@std@@V?$allocator@_W@2@@std@@QEBA_KXZ DD imagerel $LN3
	DD	imagerel $LN3+155
	DD	imagerel $unwind$?max_size@?$basic_string@_WU?$char_traits@_W@std@@V?$allocator@_W@2@@std@@QEBA_KXZ
pdata	ENDS
;	COMDAT pdata
pdata	SEGMENT
$pdata$?_Calculate_growth@?$basic_string@_WU?$char_traits@_W@std@@V?$allocator@_W@2@@std@@CA_K_K00@Z DD imagerel $LN5
	DD	imagerel $LN5+191
	DD	imagerel $unwind$?_Calculate_growth@?$basic_string@_WU?$char_traits@_W@std@@V?$allocator@_W@2@@std@@CA_K_K00@Z
pdata	ENDS
;	COMDAT pdata
pdata	SEGMENT
$pdata$?_Calculate_growth@?$basic_string@_WU?$char_traits@_W@std@@V?$allocator@_W@2@@std@@AEBA_K_K@Z DD imagerel $LN3
	DD	imagerel $LN3+53
	DD	imagerel $unwind$?_Calculate_growth@?$basic_string@_WU?$char_traits@_W@std@@V?$allocator@_W@2@@std@@AEBA_K_K@Z
pdata	ENDS
;	COMDAT pdata
pdata	SEGMENT
$pdata$?_Tidy_init@?$basic_string@_WU?$char_traits@_W@std@@V?$allocator@_W@2@@std@@AEAAXXZ DD imagerel $LN3
	DD	imagerel $LN3+91
	DD	imagerel $unwind$?_Tidy_init@?$basic_string@_WU?$char_traits@_W@std@@V?$allocator@_W@2@@std@@AEAAXXZ
pdata	ENDS
;	COMDAT pdata
pdata	SEGMENT
$pdata$?_Tidy_deallocate@?$basic_string@_WU?$char_traits@_W@std@@V?$allocator@_W@2@@std@@AEAAXXZ DD imagerel $LN4
	DD	imagerel $LN4+191
	DD	imagerel $unwind$?_Tidy_deallocate@?$basic_string@_WU?$char_traits@_W@std@@V?$allocator@_W@2@@std@@AEAAXXZ
pdata	ENDS
;	COMDAT pdata
pdata	SEGMENT
$pdata$?_Swap_proxy_and_iterators@?$basic_string@_WU?$char_traits@_W@std@@V?$allocator@_W@2@@std@@AEAAXAEAV12@@Z DD imagerel $LN3
	DD	imagerel $LN3+39
	DD	imagerel $unwind$?_Swap_proxy_and_iterators@?$basic_string@_WU?$char_traits@_W@std@@V?$allocator@_W@2@@std@@AEAAXAEAV12@@Z
pdata	ENDS
;	COMDAT pdata
pdata	SEGMENT
$pdata$?_Getal@?$basic_string@_WU?$char_traits@_W@std@@V?$allocator@_W@2@@std@@AEAAAEAV?$allocator@_W@2@XZ DD imagerel $LN3
	DD	imagerel $LN3+29
	DD	imagerel $unwind$?_Getal@?$basic_string@_WU?$char_traits@_W@std@@V?$allocator@_W@2@@std@@AEAAAEAV?$allocator@_W@2@XZ
pdata	ENDS
;	COMDAT pdata
pdata	SEGMENT
$pdata$?_Getal@?$basic_string@_WU?$char_traits@_W@std@@V?$allocator@_W@2@@std@@AEBAAEBV?$allocator@_W@2@XZ DD imagerel $LN3
	DD	imagerel $LN3+29
	DD	imagerel $unwind$?_Getal@?$basic_string@_WU?$char_traits@_W@std@@V?$allocator@_W@2@@std@@AEBAAEBV?$allocator@_W@2@XZ
pdata	ENDS
;	COMDAT pdata
pdata	SEGMENT
$pdata$?_Get_first@?$_Compressed_pair@V?$allocator@_W@std@@V?$_String_val@U?$_Simple_types@_W@std@@@2@$00@std@@QEAAAEAV?$allocator@_W@2@XZ DD imagerel $LN3
	DD	imagerel $LN3+13
	DD	imagerel $unwind$?_Get_first@?$_Compressed_pair@V?$allocator@_W@std@@V?$_String_val@U?$_Simple_types@_W@std@@@2@$00@std@@QEAAAEAV?$allocator@_W@2@XZ
pdata	ENDS
;	COMDAT pdata
pdata	SEGMENT
$pdata$?_Get_first@?$_Compressed_pair@V?$allocator@_W@std@@V?$_String_val@U?$_Simple_types@_W@std@@@2@$00@std@@QEBAAEBV?$allocator@_W@2@XZ DD imagerel $LN3
	DD	imagerel $LN3+13
	DD	imagerel $unwind$?_Get_first@?$_Compressed_pair@V?$allocator@_W@std@@V?$_String_val@U?$_Simple_types@_W@std@@@2@$00@std@@QEBAAEBV?$allocator@_W@2@XZ
pdata	ENDS
;	COMDAT pdata
pdata	SEGMENT
$pdata$??1?$_Compressed_pair@V?$allocator@_W@std@@V?$_String_val@U?$_Simple_types@_W@std@@@2@$00@std@@QEAA@XZ DD imagerel $LN3
	DD	imagerel $LN3+29
	DD	imagerel $unwind$??1?$_Compressed_pair@V?$allocator@_W@std@@V?$_String_val@U?$_Simple_types@_W@std@@@2@$00@std@@QEAA@XZ
pdata	ENDS
;	COMDAT pdata
pdata	SEGMENT
$pdata$??8type_info@@QEBA_NAEBV0@@Z DD imagerel $LN5
	DD	imagerel $LN5+74
	DD	imagerel $unwind$??8type_info@@QEBA_NAEBV0@@Z
pdata	ENDS
;	COMDAT pdata
pdata	SEGMENT
$pdata$?name@type_info@@QEBAPEBDXZ DD imagerel $LN3
	DD	imagerel $LN3+40
	DD	imagerel $unwind$?name@type_info@@QEBAPEBDXZ
pdata	ENDS
;	COMDAT pdata
pdata	SEGMENT
$pdata$??0bad_cast@std@@QEAA@XZ DD imagerel $LN3
	DD	imagerel $LN3+59
	DD	imagerel $unwind$??0bad_cast@std@@QEAA@XZ
pdata	ENDS
;	COMDAT pdata
pdata	SEGMENT
$pdata$??1bad_cast@std@@UEAA@XZ DD imagerel $LN3
	DD	imagerel $LN3+26
	DD	imagerel $unwind$??1bad_cast@std@@UEAA@XZ
pdata	ENDS
;	COMDAT pdata
pdata	SEGMENT
$pdata$??0bad_cast@std@@QEAA@AEBV01@@Z DD imagerel $LN3
	DD	imagerel $LN3+56
	DD	imagerel $unwind$??0bad_cast@std@@QEAA@AEBV01@@Z
pdata	ENDS
;	COMDAT pdata
pdata	SEGMENT
$pdata$??_Gbad_cast@std@@UEAAPEAXI@Z DD imagerel $LN4
	DD	imagerel $LN4+61
	DD	imagerel $unwind$??_Gbad_cast@std@@UEAAPEAXI@Z
pdata	ENDS
;	COMDAT pdata
pdata	SEGMENT
$pdata$?_Throw_bad_cast@std@@YAXXZ DD imagerel $LN3
	DD	imagerel $LN3+39
	DD	imagerel $unwind$?_Throw_bad_cast@std@@YAXXZ
pdata	ENDS
;	COMDAT pdata
pdata	SEGMENT
$pdata$??1locale@std@@QEAA@XZ DD imagerel $LN6
	DD	imagerel $LN6+101
	DD	imagerel $unwind$??1locale@std@@QEAA@XZ
pdata	ENDS
;	COMDAT pdata
pdata	SEGMENT
$pdata$?_Getfacet@locale@std@@QEBAPEBVfacet@12@_K@Z DD imagerel $LN8
	DD	imagerel $LN8+169
	DD	imagerel $unwind$?_Getfacet@locale@std@@QEBAPEBVfacet@12@_K@Z
pdata	ENDS
;	COMDAT pdata
pdata	SEGMENT
$pdata$??$_Maklocstr@_W@std@@YAPEA_WPEBDPEA_WAEBU_Cvtvec@@@Z DD imagerel $LN12
	DD	imagerel $LN12+559
	DD	imagerel $unwind$??$_Maklocstr@_W@std@@YAPEA_WPEBDPEA_WAEBU_Cvtvec@@@Z
pdata	ENDS
;	COMDAT pdata
pdata	SEGMENT
$pdata$?_Maklocwcs@std@@YAPEA_WPEB_W@Z DD imagerel $LN4
	DD	imagerel $LN4+115
	DD	imagerel $unwind$?_Maklocwcs@std@@YAPEA_WPEB_W@Z
pdata	ENDS
;	COMDAT pdata
pdata	SEGMENT
$pdata$??$_Getvals@_W@?$time_get@DV?$istreambuf_iterator@DU?$char_traits@D@std@@@std@@@std@@IEAAX_WAEBV_Locinfo@1@@Z DD imagerel $LN5
	DD	imagerel $LN5+364
	DD	imagerel $unwind$??$_Getvals@_W@?$time_get@DV?$istreambuf_iterator@DU?$char_traits@D@std@@@std@@@std@@IEAAX_WAEBV_Locinfo@1@@Z
pdata	ENDS
;	COMDAT pdata
pdata	SEGMENT
$pdata$??$_Getvals@_W@?$time_get@_WV?$istreambuf_iterator@_WU?$char_traits@_W@std@@@std@@@std@@IEAAX_WAEBV_Locinfo@1@@Z DD imagerel $LN5
	DD	imagerel $LN5+364
	DD	imagerel $unwind$??$_Getvals@_W@?$time_get@_WV?$istreambuf_iterator@_WU?$char_traits@_W@std@@@std@@@std@@IEAAX_WAEBV_Locinfo@1@@Z
pdata	ENDS
;	COMDAT pdata
pdata	SEGMENT
$pdata$??0precision@io@glm@@QEAA@I@Z DD imagerel $LN3
	DD	imagerel $LN3+28
	DD	imagerel $unwind$??0precision@io@glm@@QEAA@I@Z
pdata	ENDS
;	COMDAT pdata
pdata	SEGMENT
$pdata$??0width@io@glm@@QEAA@I@Z DD imagerel $LN3
	DD	imagerel $LN3+28
	DD	imagerel $unwind$??0width@io@glm@@QEAA@I@Z
pdata	ENDS
;	COMDAT pdata
pdata	SEGMENT
$pdata$??0order@io@glm@@QEAA@W4order_type@12@@Z DD imagerel $LN3
	DD	imagerel $LN3+28
	DD	imagerel $unwind$??0order@io@glm@@QEAA@W4order_type@12@@Z
pdata	ENDS
;	COMDAT pdata
pdata	SEGMENT
$pdata$?fixed@std@@YAAEAVios_base@1@AEAV21@@Z DD imagerel $LN3
	DD	imagerel $LN3+43
	DD	imagerel $unwind$?fixed@std@@YAAEAVios_base@1@AEAV21@@Z
pdata	ENDS
;	COMDAT pdata
pdata	SEGMENT
$pdata$?right@std@@YAAEAVios_base@1@AEAV21@@Z DD imagerel $LN3
	DD	imagerel $LN3+43
	DD	imagerel $unwind$?right@std@@YAAEAVios_base@1@AEAV21@@Z
pdata	ENDS
pdata	SEGMENT
$pdata$main DD	imagerel $LN3
	DD	imagerel $LN3+422
	DD	imagerel $unwind$main
pdata	ENDS
;	COMDAT pdata
pdata	SEGMENT
$pdata$??$test_io_quat@M$0A@V?$basic_ostream@DU?$char_traits@D@std@@@std@@@@YAHAEAV?$basic_ostream@DU?$char_traits@D@std@@@std@@@Z DD imagerel $LN7
	DD	imagerel $LN7+716
	DD	imagerel $unwind$??$test_io_quat@M$0A@V?$basic_ostream@DU?$char_traits@D@std@@@std@@@@YAHAEAV?$basic_ostream@DU?$char_traits@D@std@@@std@@@Z
pdata	ENDS
;	COMDAT pdata
pdata	SEGMENT
$pdata$?dtor$0@?0???$test_io_quat@M$0A@V?$basic_ostream@DU?$char_traits@D@std@@@std@@@@YAHAEAV?$basic_ostream@DU?$char_traits@D@std@@@std@@@Z@4HA DD imagerel ?dtor$0@?0???$test_io_quat@M$0A@V?$basic_ostream@DU?$char_traits@D@std@@@std@@@@YAHAEAV?$basic_ostream@DU?$char_traits@D@std@@@std@@@Z@4HA
	DD	imagerel ?dtor$0@?0???$test_io_quat@M$0A@V?$basic_ostream@DU?$char_traits@D@std@@@std@@@@YAHAEAV?$basic_ostream@DU?$char_traits@D@std@@@std@@@Z@4HA+35
	DD	imagerel $unwind$?dtor$0@?0???$test_io_quat@M$0A@V?$basic_ostream@DU?$char_traits@D@std@@@std@@@@YAHAEAV?$basic_ostream@DU?$char_traits@D@std@@@std@@@Z@4HA
pdata	ENDS
;	COMDAT pdata
pdata	SEGMENT
$pdata$?dtor$1@?0???$test_io_quat@M$0A@V?$basic_ostream@DU?$char_traits@D@std@@@std@@@@YAHAEAV?$basic_ostream@DU?$char_traits@D@std@@@std@@@Z@4HA DD imagerel ?dtor$1@?0???$test_io_quat@M$0A@V?$basic_ostream@DU?$char_traits@D@std@@@std@@@@YAHAEAV?$basic_ostream@DU?$char_traits@D@std@@@std@@@Z@4HA
	DD	imagerel ?dtor$1@?0???$test_io_quat@M$0A@V?$basic_ostream@DU?$char_traits@D@std@@@std@@@@YAHAEAV?$basic_ostream@DU?$char_traits@D@std@@@std@@@Z@4HA+38
	DD	imagerel $unwind$?dtor$1@?0???$test_io_quat@M$0A@V?$basic_ostream@DU?$char_traits@D@std@@@std@@@@YAHAEAV?$basic_ostream@DU?$char_traits@D@std@@@std@@@Z@4HA
pdata	ENDS
;	COMDAT pdata
pdata	SEGMENT
$pdata$?dtor$2@?0???$test_io_quat@M$0A@V?$basic_ostream@DU?$char_traits@D@std@@@std@@@@YAHAEAV?$basic_ostream@DU?$char_traits@D@std@@@std@@@Z@4HA DD imagerel ?dtor$2@?0???$test_io_quat@M$0A@V?$basic_ostream@DU?$char_traits@D@std@@@std@@@@YAHAEAV?$basic_ostream@DU?$char_traits@D@std@@@std@@@Z@4HA
	DD	imagerel ?dtor$2@?0???$test_io_quat@M$0A@V?$basic_ostream@DU?$char_traits@D@std@@@std@@@@YAHAEAV?$basic_ostream@DU?$char_traits@D@std@@@std@@@Z@4HA+38
	DD	imagerel $unwind$?dtor$2@?0???$test_io_quat@M$0A@V?$basic_ostream@DU?$char_traits@D@std@@@std@@@@YAHAEAV?$basic_ostream@DU?$char_traits@D@std@@@std@@@Z@4HA
pdata	ENDS
;	COMDAT pdata
pdata	SEGMENT
$pdata$?dtor$3@?0???$test_io_quat@M$0A@V?$basic_ostream@DU?$char_traits@D@std@@@std@@@@YAHAEAV?$basic_ostream@DU?$char_traits@D@std@@@std@@@Z@4HA DD imagerel ?dtor$3@?0???$test_io_quat@M$0A@V?$basic_ostream@DU?$char_traits@D@std@@@std@@@@YAHAEAV?$basic_ostream@DU?$char_traits@D@std@@@std@@@Z@4HA
	DD	imagerel ?dtor$3@?0???$test_io_quat@M$0A@V?$basic_ostream@DU?$char_traits@D@std@@@std@@@@YAHAEAV?$basic_ostream@DU?$char_traits@D@std@@@std@@@Z@4HA+38
	DD	imagerel $unwind$?dtor$3@?0???$test_io_quat@M$0A@V?$basic_ostream@DU?$char_traits@D@std@@@std@@@@YAHAEAV?$basic_ostream@DU?$char_traits@D@std@@@std@@@Z@4HA
pdata	ENDS
;	COMDAT pdata
pdata	SEGMENT
$pdata$??$test_io_quat@M$0A@V?$basic_ostream@_WU?$char_traits@_W@std@@@std@@@@YAHAEAV?$basic_ostream@_WU?$char_traits@_W@std@@@std@@@Z DD imagerel $LN7
	DD	imagerel $LN7+716
	DD	imagerel $unwind$??$test_io_quat@M$0A@V?$basic_ostream@_WU?$char_traits@_W@std@@@std@@@@YAHAEAV?$basic_ostream@_WU?$char_traits@_W@std@@@std@@@Z
pdata	ENDS
;	COMDAT pdata
pdata	SEGMENT
$pdata$?dtor$0@?0???$test_io_quat@M$0A@V?$basic_ostream@_WU?$char_traits@_W@std@@@std@@@@YAHAEAV?$basic_ostream@_WU?$char_traits@_W@std@@@std@@@Z@4HA DD imagerel ?dtor$0@?0???$test_io_quat@M$0A@V?$basic_ostream@_WU?$char_traits@_W@std@@@std@@@@YAHAEAV?$basic_ostream@_WU?$char_traits@_W@std@@@std@@@Z@4HA
	DD	imagerel ?dtor$0@?0???$test_io_quat@M$0A@V?$basic_ostream@_WU?$char_traits@_W@std@@@std@@@@YAHAEAV?$basic_ostream@_WU?$char_traits@_W@std@@@std@@@Z@4HA+35
	DD	imagerel $unwind$?dtor$0@?0???$test_io_quat@M$0A@V?$basic_ostream@_WU?$char_traits@_W@std@@@std@@@@YAHAEAV?$basic_ostream@_WU?$char_traits@_W@std@@@std@@@Z@4HA
pdata	ENDS
;	COMDAT pdata
pdata	SEGMENT
$pdata$?dtor$1@?0???$test_io_quat@M$0A@V?$basic_ostream@_WU?$char_traits@_W@std@@@std@@@@YAHAEAV?$basic_ostream@_WU?$char_traits@_W@std@@@std@@@Z@4HA DD imagerel ?dtor$1@?0???$test_io_quat@M$0A@V?$basic_ostream@_WU?$char_traits@_W@std@@@std@@@@YAHAEAV?$basic_ostream@_WU?$char_traits@_W@std@@@std@@@Z@4HA
	DD	imagerel ?dtor$1@?0???$test_io_quat@M$0A@V?$basic_ostream@_WU?$char_traits@_W@std@@@std@@@@YAHAEAV?$basic_ostream@_WU?$char_traits@_W@std@@@std@@@Z@4HA+38
	DD	imagerel $unwind$?dtor$1@?0???$test_io_quat@M$0A@V?$basic_ostream@_WU?$char_traits@_W@std@@@std@@@@YAHAEAV?$basic_ostream@_WU?$char_traits@_W@std@@@std@@@Z@4HA
pdata	ENDS
;	COMDAT pdata
pdata	SEGMENT
$pdata$?dtor$2@?0???$test_io_quat@M$0A@V?$basic_ostream@_WU?$char_traits@_W@std@@@std@@@@YAHAEAV?$basic_ostream@_WU?$char_traits@_W@std@@@std@@@Z@4HA DD imagerel ?dtor$2@?0???$test_io_quat@M$0A@V?$basic_ostream@_WU?$char_traits@_W@std@@@std@@@@YAHAEAV?$basic_ostream@_WU?$char_traits@_W@std@@@std@@@Z@4HA
	DD	imagerel ?dtor$2@?0???$test_io_quat@M$0A@V?$basic_ostream@_WU?$char_traits@_W@std@@@std@@@@YAHAEAV?$basic_ostream@_WU?$char_traits@_W@std@@@std@@@Z@4HA+38
	DD	imagerel $unwind$?dtor$2@?0???$test_io_quat@M$0A@V?$basic_ostream@_WU?$char_traits@_W@std@@@std@@@@YAHAEAV?$basic_ostream@_WU?$char_traits@_W@std@@@std@@@Z@4HA
pdata	ENDS
;	COMDAT pdata
pdata	SEGMENT
$pdata$?dtor$3@?0???$test_io_quat@M$0A@V?$basic_ostream@_WU?$char_traits@_W@std@@@std@@@@YAHAEAV?$basic_ostream@_WU?$char_traits@_W@std@@@std@@@Z@4HA DD imagerel ?dtor$3@?0???$test_io_quat@M$0A@V?$basic_ostream@_WU?$char_traits@_W@std@@@std@@@@YAHAEAV?$basic_ostream@_WU?$char_traits@_W@std@@@std@@@Z@4HA
	DD	imagerel ?dtor$3@?0???$test_io_quat@M$0A@V?$basic_ostream@_WU?$char_traits@_W@std@@@std@@@@YAHAEAV?$basic_ostream@_WU?$char_traits@_W@std@@@std@@@Z@4HA+38
	DD	imagerel $unwind$?dtor$3@?0???$test_io_quat@M$0A@V?$basic_ostream@_WU?$char_traits@_W@std@@@std@@@@YAHAEAV?$basic_ostream@_WU?$char_traits@_W@std@@@std@@@Z@4HA
pdata	ENDS
;	COMDAT pdata
pdata	SEGMENT
$pdata$??$test_io_quat@H$00V?$basic_ostream@DU?$char_traits@D@std@@@std@@@@YAHAEAV?$basic_ostream@DU?$char_traits@D@std@@@std@@@Z DD imagerel $LN7
	DD	imagerel $LN7+707
	DD	imagerel $unwind$??$test_io_quat@H$00V?$basic_ostream@DU?$char_traits@D@std@@@std@@@@YAHAEAV?$basic_ostream@DU?$char_traits@D@std@@@std@@@Z
pdata	ENDS
;	COMDAT pdata
pdata	SEGMENT
$pdata$?dtor$0@?0???$test_io_quat@H$00V?$basic_ostream@DU?$char_traits@D@std@@@std@@@@YAHAEAV?$basic_ostream@DU?$char_traits@D@std@@@std@@@Z@4HA DD imagerel ?dtor$0@?0???$test_io_quat@H$00V?$basic_ostream@DU?$char_traits@D@std@@@std@@@@YAHAEAV?$basic_ostream@DU?$char_traits@D@std@@@std@@@Z@4HA
	DD	imagerel ?dtor$0@?0???$test_io_quat@H$00V?$basic_ostream@DU?$char_traits@D@std@@@std@@@@YAHAEAV?$basic_ostream@DU?$char_traits@D@std@@@std@@@Z@4HA+35
	DD	imagerel $unwind$?dtor$0@?0???$test_io_quat@H$00V?$basic_ostream@DU?$char_traits@D@std@@@std@@@@YAHAEAV?$basic_ostream@DU?$char_traits@D@std@@@std@@@Z@4HA
pdata	ENDS
;	COMDAT pdata
pdata	SEGMENT
$pdata$?dtor$1@?0???$test_io_quat@H$00V?$basic_ostream@DU?$char_traits@D@std@@@std@@@@YAHAEAV?$basic_ostream@DU?$char_traits@D@std@@@std@@@Z@4HA DD imagerel ?dtor$1@?0???$test_io_quat@H$00V?$basic_ostream@DU?$char_traits@D@std@@@std@@@@YAHAEAV?$basic_ostream@DU?$char_traits@D@std@@@std@@@Z@4HA
	DD	imagerel ?dtor$1@?0???$test_io_quat@H$00V?$basic_ostream@DU?$char_traits@D@std@@@std@@@@YAHAEAV?$basic_ostream@DU?$char_traits@D@std@@@std@@@Z@4HA+38
	DD	imagerel $unwind$?dtor$1@?0???$test_io_quat@H$00V?$basic_ostream@DU?$char_traits@D@std@@@std@@@@YAHAEAV?$basic_ostream@DU?$char_traits@D@std@@@std@@@Z@4HA
pdata	ENDS
;	COMDAT pdata
pdata	SEGMENT
$pdata$?dtor$2@?0???$test_io_quat@H$00V?$basic_ostream@DU?$char_traits@D@std@@@std@@@@YAHAEAV?$basic_ostream@DU?$char_traits@D@std@@@std@@@Z@4HA DD imagerel ?dtor$2@?0???$test_io_quat@H$00V?$basic_ostream@DU?$char_traits@D@std@@@std@@@@YAHAEAV?$basic_ostream@DU?$char_traits@D@std@@@std@@@Z@4HA
	DD	imagerel ?dtor$2@?0???$test_io_quat@H$00V?$basic_ostream@DU?$char_traits@D@std@@@std@@@@YAHAEAV?$basic_ostream@DU?$char_traits@D@std@@@std@@@Z@4HA+38
	DD	imagerel $unwind$?dtor$2@?0???$test_io_quat@H$00V?$basic_ostream@DU?$char_traits@D@std@@@std@@@@YAHAEAV?$basic_ostream@DU?$char_traits@D@std@@@std@@@Z@4HA
pdata	ENDS
;	COMDAT pdata
pdata	SEGMENT
$pdata$?dtor$3@?0???$test_io_quat@H$00V?$basic_ostream@DU?$char_traits@D@std@@@std@@@@YAHAEAV?$basic_ostream@DU?$char_traits@D@std@@@std@@@Z@4HA DD imagerel ?dtor$3@?0???$test_io_quat@H$00V?$basic_ostream@DU?$char_traits@D@std@@@std@@@@YAHAEAV?$basic_ostream@DU?$char_traits@D@std@@@std@@@Z@4HA
	DD	imagerel ?dtor$3@?0???$test_io_quat@H$00V?$basic_ostream@DU?$char_traits@D@std@@@std@@@@YAHAEAV?$basic_ostream@DU?$char_traits@D@std@@@std@@@Z@4HA+38
	DD	imagerel $unwind$?dtor$3@?0???$test_io_quat@H$00V?$basic_ostream@DU?$char_traits@D@std@@@std@@@@YAHAEAV?$basic_ostream@DU?$char_traits@D@std@@@std@@@Z@4HA
pdata	ENDS
;	COMDAT pdata
pdata	SEGMENT
$pdata$??$test_io_quat@H$00V?$basic_ostream@_WU?$char_traits@_W@std@@@std@@@@YAHAEAV?$basic_ostream@_WU?$char_traits@_W@std@@@std@@@Z DD imagerel $LN7
	DD	imagerel $LN7+707
	DD	imagerel $unwind$??$test_io_quat@H$00V?$basic_ostream@_WU?$char_traits@_W@std@@@std@@@@YAHAEAV?$basic_ostream@_WU?$char_traits@_W@std@@@std@@@Z
pdata	ENDS
;	COMDAT pdata
pdata	SEGMENT
$pdata$?dtor$0@?0???$test_io_quat@H$00V?$basic_ostream@_WU?$char_traits@_W@std@@@std@@@@YAHAEAV?$basic_ostream@_WU?$char_traits@_W@std@@@std@@@Z@4HA DD imagerel ?dtor$0@?0???$test_io_quat@H$00V?$basic_ostream@_WU?$char_traits@_W@std@@@std@@@@YAHAEAV?$basic_ostream@_WU?$char_traits@_W@std@@@std@@@Z@4HA
	DD	imagerel ?dtor$0@?0???$test_io_quat@H$00V?$basic_ostream@_WU?$char_traits@_W@std@@@std@@@@YAHAEAV?$basic_ostream@_WU?$char_traits@_W@std@@@std@@@Z@4HA+35
	DD	imagerel $unwind$?dtor$0@?0???$test_io_quat@H$00V?$basic_ostream@_WU?$char_traits@_W@std@@@std@@@@YAHAEAV?$basic_ostream@_WU?$char_traits@_W@std@@@std@@@Z@4HA
pdata	ENDS
;	COMDAT pdata
pdata	SEGMENT
$pdata$?dtor$1@?0???$test_io_quat@H$00V?$basic_ostream@_WU?$char_traits@_W@std@@@std@@@@YAHAEAV?$basic_ostream@_WU?$char_traits@_W@std@@@std@@@Z@4HA DD imagerel ?dtor$1@?0???$test_io_quat@H$00V?$basic_ostream@_WU?$char_traits@_W@std@@@std@@@@YAHAEAV?$basic_ostream@_WU?$char_traits@_W@std@@@std@@@Z@4HA
	DD	imagerel ?dtor$1@?0???$test_io_quat@H$00V?$basic_ostream@_WU?$char_traits@_W@std@@@std@@@@YAHAEAV?$basic_ostream@_WU?$char_traits@_W@std@@@std@@@Z@4HA+38
	DD	imagerel $unwind$?dtor$1@?0???$test_io_quat@H$00V?$basic_ostream@_WU?$char_traits@_W@std@@@std@@@@YAHAEAV?$basic_ostream@_WU?$char_traits@_W@std@@@std@@@Z@4HA
pdata	ENDS
;	COMDAT pdata
pdata	SEGMENT
$pdata$?dtor$2@?0???$test_io_quat@H$00V?$basic_ostream@_WU?$char_traits@_W@std@@@std@@@@YAHAEAV?$basic_ostream@_WU?$char_traits@_W@std@@@std@@@Z@4HA DD imagerel ?dtor$2@?0???$test_io_quat@H$00V?$basic_ostream@_WU?$char_traits@_W@std@@@std@@@@YAHAEAV?$basic_ostream@_WU?$char_traits@_W@std@@@std@@@Z@4HA
	DD	imagerel ?dtor$2@?0???$test_io_quat@H$00V?$basic_ostream@_WU?$char_traits@_W@std@@@std@@@@YAHAEAV?$basic_ostream@_WU?$char_traits@_W@std@@@std@@@Z@4HA+38
	DD	imagerel $unwind$?dtor$2@?0???$test_io_quat@H$00V?$basic_ostream@_WU?$char_traits@_W@std@@@std@@@@YAHAEAV?$basic_ostream@_WU?$char_traits@_W@std@@@std@@@Z@4HA
pdata	ENDS
;	COMDAT pdata
pdata	SEGMENT
$pdata$?dtor$3@?0???$test_io_quat@H$00V?$basic_ostream@_WU?$char_traits@_W@std@@@std@@@@YAHAEAV?$basic_ostream@_WU?$char_traits@_W@std@@@std@@@Z@4HA DD imagerel ?dtor$3@?0???$test_io_quat@H$00V?$basic_ostream@_WU?$char_traits@_W@std@@@std@@@@YAHAEAV?$basic_ostream@_WU?$char_traits@_W@std@@@std@@@Z@4HA
	DD	imagerel ?dtor$3@?0???$test_io_quat@H$00V?$basic_ostream@_WU?$char_traits@_W@std@@@std@@@@YAHAEAV?$basic_ostream@_WU?$char_traits@_W@std@@@std@@@Z@4HA+38
	DD	imagerel $unwind$?dtor$3@?0???$test_io_quat@H$00V?$basic_ostream@_WU?$char_traits@_W@std@@@std@@@@YAHAEAV?$basic_ostream@_WU?$char_traits@_W@std@@@std@@@Z@4HA
pdata	ENDS
;	COMDAT pdata
pdata	SEGMENT
$pdata$??$test_io_quat@I$01V?$basic_ostream@DU?$char_traits@D@std@@@std@@@@YAHAEAV?$basic_ostream@DU?$char_traits@D@std@@@std@@@Z DD imagerel $LN7
	DD	imagerel $LN7+707
	DD	imagerel $unwind$??$test_io_quat@I$01V?$basic_ostream@DU?$char_traits@D@std@@@std@@@@YAHAEAV?$basic_ostream@DU?$char_traits@D@std@@@std@@@Z
pdata	ENDS
;	COMDAT pdata
pdata	SEGMENT
$pdata$?dtor$0@?0???$test_io_quat@I$01V?$basic_ostream@DU?$char_traits@D@std@@@std@@@@YAHAEAV?$basic_ostream@DU?$char_traits@D@std@@@std@@@Z@4HA DD imagerel ?dtor$0@?0???$test_io_quat@I$01V?$basic_ostream@DU?$char_traits@D@std@@@std@@@@YAHAEAV?$basic_ostream@DU?$char_traits@D@std@@@std@@@Z@4HA
	DD	imagerel ?dtor$0@?0???$test_io_quat@I$01V?$basic_ostream@DU?$char_traits@D@std@@@std@@@@YAHAEAV?$basic_ostream@DU?$char_traits@D@std@@@std@@@Z@4HA+35
	DD	imagerel $unwind$?dtor$0@?0???$test_io_quat@I$01V?$basic_ostream@DU?$char_traits@D@std@@@std@@@@YAHAEAV?$basic_ostream@DU?$char_traits@D@std@@@std@@@Z@4HA
pdata	ENDS
;	COMDAT pdata
pdata	SEGMENT
$pdata$?dtor$1@?0???$test_io_quat@I$01V?$basic_ostream@DU?$char_traits@D@std@@@std@@@@YAHAEAV?$basic_ostream@DU?$char_traits@D@std@@@std@@@Z@4HA DD imagerel ?dtor$1@?0???$test_io_quat@I$01V?$basic_ostream@DU?$char_traits@D@std@@@std@@@@YAHAEAV?$basic_ostream@DU?$char_traits@D@std@@@std@@@Z@4HA
	DD	imagerel ?dtor$1@?0???$test_io_quat@I$01V?$basic_ostream@DU?$char_traits@D@std@@@std@@@@YAHAEAV?$basic_ostream@DU?$char_traits@D@std@@@std@@@Z@4HA+38
	DD	imagerel $unwind$?dtor$1@?0???$test_io_quat@I$01V?$basic_ostream@DU?$char_traits@D@std@@@std@@@@YAHAEAV?$basic_ostream@DU?$char_traits@D@std@@@std@@@Z@4HA
pdata	ENDS
;	COMDAT pdata
pdata	SEGMENT
$pdata$?dtor$2@?0???$test_io_quat@I$01V?$basic_ostream@DU?$char_traits@D@std@@@std@@@@YAHAEAV?$basic_ostream@DU?$char_traits@D@std@@@std@@@Z@4HA DD imagerel ?dtor$2@?0???$test_io_quat@I$01V?$basic_ostream@DU?$char_traits@D@std@@@std@@@@YAHAEAV?$basic_ostream@DU?$char_traits@D@std@@@std@@@Z@4HA
	DD	imagerel ?dtor$2@?0???$test_io_quat@I$01V?$basic_ostream@DU?$char_traits@D@std@@@std@@@@YAHAEAV?$basic_ostream@DU?$char_traits@D@std@@@std@@@Z@4HA+38
	DD	imagerel $unwind$?dtor$2@?0???$test_io_quat@I$01V?$basic_ostream@DU?$char_traits@D@std@@@std@@@@YAHAEAV?$basic_ostream@DU?$char_traits@D@std@@@std@@@Z@4HA
pdata	ENDS
;	COMDAT pdata
pdata	SEGMENT
$pdata$?dtor$3@?0???$test_io_quat@I$01V?$basic_ostream@DU?$char_traits@D@std@@@std@@@@YAHAEAV?$basic_ostream@DU?$char_traits@D@std@@@std@@@Z@4HA DD imagerel ?dtor$3@?0???$test_io_quat@I$01V?$basic_ostream@DU?$char_traits@D@std@@@std@@@@YAHAEAV?$basic_ostream@DU?$char_traits@D@std@@@std@@@Z@4HA
	DD	imagerel ?dtor$3@?0???$test_io_quat@I$01V?$basic_ostream@DU?$char_traits@D@std@@@std@@@@YAHAEAV?$basic_ostream@DU?$char_traits@D@std@@@std@@@Z@4HA+38
	DD	imagerel $unwind$?dtor$3@?0???$test_io_quat@I$01V?$basic_ostream@DU?$char_traits@D@std@@@std@@@@YAHAEAV?$basic_ostream@DU?$char_traits@D@std@@@std@@@Z@4HA
pdata	ENDS
;	COMDAT pdata
pdata	SEGMENT
$pdata$??$test_io_quat@I$01V?$basic_ostream@_WU?$char_traits@_W@std@@@std@@@@YAHAEAV?$basic_ostream@_WU?$char_traits@_W@std@@@std@@@Z DD imagerel $LN7
	DD	imagerel $LN7+707
	DD	imagerel $unwind$??$test_io_quat@I$01V?$basic_ostream@_WU?$char_traits@_W@std@@@std@@@@YAHAEAV?$basic_ostream@_WU?$char_traits@_W@std@@@std@@@Z
pdata	ENDS
;	COMDAT pdata
pdata	SEGMENT
$pdata$?dtor$0@?0???$test_io_quat@I$01V?$basic_ostream@_WU?$char_traits@_W@std@@@std@@@@YAHAEAV?$basic_ostream@_WU?$char_traits@_W@std@@@std@@@Z@4HA DD imagerel ?dtor$0@?0???$test_io_quat@I$01V?$basic_ostream@_WU?$char_traits@_W@std@@@std@@@@YAHAEAV?$basic_ostream@_WU?$char_traits@_W@std@@@std@@@Z@4HA
	DD	imagerel ?dtor$0@?0???$test_io_quat@I$01V?$basic_ostream@_WU?$char_traits@_W@std@@@std@@@@YAHAEAV?$basic_ostream@_WU?$char_traits@_W@std@@@std@@@Z@4HA+35
	DD	imagerel $unwind$?dtor$0@?0???$test_io_quat@I$01V?$basic_ostream@_WU?$char_traits@_W@std@@@std@@@@YAHAEAV?$basic_ostream@_WU?$char_traits@_W@std@@@std@@@Z@4HA
pdata	ENDS
;	COMDAT pdata
pdata	SEGMENT
$pdata$?dtor$1@?0???$test_io_quat@I$01V?$basic_ostream@_WU?$char_traits@_W@std@@@std@@@@YAHAEAV?$basic_ostream@_WU?$char_traits@_W@std@@@std@@@Z@4HA DD imagerel ?dtor$1@?0???$test_io_quat@I$01V?$basic_ostream@_WU?$char_traits@_W@std@@@std@@@@YAHAEAV?$basic_ostream@_WU?$char_traits@_W@std@@@std@@@Z@4HA
	DD	imagerel ?dtor$1@?0???$test_io_quat@I$01V?$basic_ostream@_WU?$char_traits@_W@std@@@std@@@@YAHAEAV?$basic_ostream@_WU?$char_traits@_W@std@@@std@@@Z@4HA+38
	DD	imagerel $unwind$?dtor$1@?0???$test_io_quat@I$01V?$basic_ostream@_WU?$char_traits@_W@std@@@std@@@@YAHAEAV?$basic_ostream@_WU?$char_traits@_W@std@@@std@@@Z@4HA
pdata	ENDS
;	COMDAT pdata
pdata	SEGMENT
$pdata$?dtor$2@?0???$test_io_quat@I$01V?$basic_ostream@_WU?$char_traits@_W@std@@@std@@@@YAHAEAV?$basic_ostream@_WU?$char_traits@_W@std@@@std@@@Z@4HA DD imagerel ?dtor$2@?0???$test_io_quat@I$01V?$basic_ostream@_WU?$char_traits@_W@std@@@std@@@@YAHAEAV?$basic_ostream@_WU?$char_traits@_W@std@@@std@@@Z@4HA
	DD	imagerel ?dtor$2@?0???$test_io_quat@I$01V?$basic_ostream@_WU?$char_traits@_W@std@@@std@@@@YAHAEAV?$basic_ostream@_WU?$char_traits@_W@std@@@std@@@Z@4HA+38
	DD	imagerel $unwind$?dtor$2@?0???$test_io_quat@I$01V?$basic_ostream@_WU?$char_traits@_W@std@@@std@@@@YAHAEAV?$basic_ostream@_WU?$char_traits@_W@std@@@std@@@Z@4HA
pdata	ENDS
;	COMDAT pdata
pdata	SEGMENT
$pdata$?dtor$3@?0???$test_io_quat@I$01V?$basic_ostream@_WU?$char_traits@_W@std@@@std@@@@YAHAEAV?$basic_ostream@_WU?$char_traits@_W@std@@@std@@@Z@4HA DD imagerel ?dtor$3@?0???$test_io_quat@I$01V?$basic_ostream@_WU?$char_traits@_W@std@@@std@@@@YAHAEAV?$basic_ostream@_WU?$char_traits@_W@std@@@std@@@Z@4HA
	DD	imagerel ?dtor$3@?0???$test_io_quat@I$01V?$basic_ostream@_WU?$char_traits@_W@std@@@std@@@@YAHAEAV?$basic_ostream@_WU?$char_traits@_W@std@@@std@@@Z@4HA+38
	DD	imagerel $unwind$?dtor$3@?0???$test_io_quat@I$01V?$basic_ostream@_WU?$char_traits@_W@std@@@std@@@@YAHAEAV?$basic_ostream@_WU?$char_traits@_W@std@@@std@@@Z@4HA
pdata	ENDS
;	COMDAT pdata
pdata	SEGMENT
$pdata$??$test_io_vec@M$0A@V?$basic_ostream@DU?$char_traits@D@std@@@std@@@@YAHAEAV?$basic_ostream@DU?$char_traits@D@std@@@std@@@Z DD imagerel $LN10
	DD	imagerel $LN10+1128
	DD	imagerel $unwind$??$test_io_vec@M$0A@V?$basic_ostream@DU?$char_traits@D@std@@@std@@@@YAHAEAV?$basic_ostream@DU?$char_traits@D@std@@@std@@@Z
pdata	ENDS
;	COMDAT pdata
pdata	SEGMENT
$pdata$?dtor$0@?0???$test_io_vec@M$0A@V?$basic_ostream@DU?$char_traits@D@std@@@std@@@@YAHAEAV?$basic_ostream@DU?$char_traits@D@std@@@std@@@Z@4HA DD imagerel ?dtor$0@?0???$test_io_vec@M$0A@V?$basic_ostream@DU?$char_traits@D@std@@@std@@@@YAHAEAV?$basic_ostream@DU?$char_traits@D@std@@@std@@@Z@4HA
	DD	imagerel ?dtor$0@?0???$test_io_vec@M$0A@V?$basic_ostream@DU?$char_traits@D@std@@@std@@@@YAHAEAV?$basic_ostream@DU?$char_traits@D@std@@@std@@@Z@4HA+38
	DD	imagerel $unwind$?dtor$0@?0???$test_io_vec@M$0A@V?$basic_ostream@DU?$char_traits@D@std@@@std@@@@YAHAEAV?$basic_ostream@DU?$char_traits@D@std@@@std@@@Z@4HA
pdata	ENDS
;	COMDAT pdata
pdata	SEGMENT
$pdata$?dtor$1@?0???$test_io_vec@M$0A@V?$basic_ostream@DU?$char_traits@D@std@@@std@@@@YAHAEAV?$basic_ostream@DU?$char_traits@D@std@@@std@@@Z@4HA DD imagerel ?dtor$1@?0???$test_io_vec@M$0A@V?$basic_ostream@DU?$char_traits@D@std@@@std@@@@YAHAEAV?$basic_ostream@DU?$char_traits@D@std@@@std@@@Z@4HA
	DD	imagerel ?dtor$1@?0???$test_io_vec@M$0A@V?$basic_ostream@DU?$char_traits@D@std@@@std@@@@YAHAEAV?$basic_ostream@DU?$char_traits@D@std@@@std@@@Z@4HA+38
	DD	imagerel $unwind$?dtor$1@?0???$test_io_vec@M$0A@V?$basic_ostream@DU?$char_traits@D@std@@@std@@@@YAHAEAV?$basic_ostream@DU?$char_traits@D@std@@@std@@@Z@4HA
pdata	ENDS
;	COMDAT pdata
pdata	SEGMENT
$pdata$?dtor$2@?0???$test_io_vec@M$0A@V?$basic_ostream@DU?$char_traits@D@std@@@std@@@@YAHAEAV?$basic_ostream@DU?$char_traits@D@std@@@std@@@Z@4HA DD imagerel ?dtor$2@?0???$test_io_vec@M$0A@V?$basic_ostream@DU?$char_traits@D@std@@@std@@@@YAHAEAV?$basic_ostream@DU?$char_traits@D@std@@@std@@@Z@4HA
	DD	imagerel ?dtor$2@?0???$test_io_vec@M$0A@V?$basic_ostream@DU?$char_traits@D@std@@@std@@@@YAHAEAV?$basic_ostream@DU?$char_traits@D@std@@@std@@@Z@4HA+38
	DD	imagerel $unwind$?dtor$2@?0???$test_io_vec@M$0A@V?$basic_ostream@DU?$char_traits@D@std@@@std@@@@YAHAEAV?$basic_ostream@DU?$char_traits@D@std@@@std@@@Z@4HA
pdata	ENDS
;	COMDAT pdata
pdata	SEGMENT
$pdata$?dtor$3@?0???$test_io_vec@M$0A@V?$basic_ostream@DU?$char_traits@D@std@@@std@@@@YAHAEAV?$basic_ostream@DU?$char_traits@D@std@@@std@@@Z@4HA DD imagerel ?dtor$3@?0???$test_io_vec@M$0A@V?$basic_ostream@DU?$char_traits@D@std@@@std@@@@YAHAEAV?$basic_ostream@DU?$char_traits@D@std@@@std@@@Z@4HA
	DD	imagerel ?dtor$3@?0???$test_io_vec@M$0A@V?$basic_ostream@DU?$char_traits@D@std@@@std@@@@YAHAEAV?$basic_ostream@DU?$char_traits@D@std@@@std@@@Z@4HA+38
	DD	imagerel $unwind$?dtor$3@?0???$test_io_vec@M$0A@V?$basic_ostream@DU?$char_traits@D@std@@@std@@@@YAHAEAV?$basic_ostream@DU?$char_traits@D@std@@@std@@@Z@4HA
pdata	ENDS
;	COMDAT pdata
pdata	SEGMENT
$pdata$?dtor$4@?0???$test_io_vec@M$0A@V?$basic_ostream@DU?$char_traits@D@std@@@std@@@@YAHAEAV?$basic_ostream@DU?$char_traits@D@std@@@std@@@Z@4HA DD imagerel ?dtor$4@?0???$test_io_vec@M$0A@V?$basic_ostream@DU?$char_traits@D@std@@@std@@@@YAHAEAV?$basic_ostream@DU?$char_traits@D@std@@@std@@@Z@4HA
	DD	imagerel ?dtor$4@?0???$test_io_vec@M$0A@V?$basic_ostream@DU?$char_traits@D@std@@@std@@@@YAHAEAV?$basic_ostream@DU?$char_traits@D@std@@@std@@@Z@4HA+38
	DD	imagerel $unwind$?dtor$4@?0???$test_io_vec@M$0A@V?$basic_ostream@DU?$char_traits@D@std@@@std@@@@YAHAEAV?$basic_ostream@DU?$char_traits@D@std@@@std@@@Z@4HA
pdata	ENDS
;	COMDAT pdata
pdata	SEGMENT
$pdata$?dtor$5@?0???$test_io_vec@M$0A@V?$basic_ostream@DU?$char_traits@D@std@@@std@@@@YAHAEAV?$basic_ostream@DU?$char_traits@D@std@@@std@@@Z@4HA DD imagerel ?dtor$5@?0???$test_io_vec@M$0A@V?$basic_ostream@DU?$char_traits@D@std@@@std@@@@YAHAEAV?$basic_ostream@DU?$char_traits@D@std@@@std@@@Z@4HA
	DD	imagerel ?dtor$5@?0???$test_io_vec@M$0A@V?$basic_ostream@DU?$char_traits@D@std@@@std@@@@YAHAEAV?$basic_ostream@DU?$char_traits@D@std@@@std@@@Z@4HA+38
	DD	imagerel $unwind$?dtor$5@?0???$test_io_vec@M$0A@V?$basic_ostream@DU?$char_traits@D@std@@@std@@@@YAHAEAV?$basic_ostream@DU?$char_traits@D@std@@@std@@@Z@4HA
pdata	ENDS
;	COMDAT pdata
pdata	SEGMENT
$pdata$?dtor$6@?0???$test_io_vec@M$0A@V?$basic_ostream@DU?$char_traits@D@std@@@std@@@@YAHAEAV?$basic_ostream@DU?$char_traits@D@std@@@std@@@Z@4HA DD imagerel ?dtor$6@?0???$test_io_vec@M$0A@V?$basic_ostream@DU?$char_traits@D@std@@@std@@@@YAHAEAV?$basic_ostream@DU?$char_traits@D@std@@@std@@@Z@4HA
	DD	imagerel ?dtor$6@?0???$test_io_vec@M$0A@V?$basic_ostream@DU?$char_traits@D@std@@@std@@@@YAHAEAV?$basic_ostream@DU?$char_traits@D@std@@@std@@@Z@4HA+38
	DD	imagerel $unwind$?dtor$6@?0???$test_io_vec@M$0A@V?$basic_ostream@DU?$char_traits@D@std@@@std@@@@YAHAEAV?$basic_ostream@DU?$char_traits@D@std@@@std@@@Z@4HA
pdata	ENDS
;	COMDAT pdata
pdata	SEGMENT
$pdata$??$test_io_vec@M$0A@V?$basic_ostream@_WU?$char_traits@_W@std@@@std@@@@YAHAEAV?$basic_ostream@_WU?$char_traits@_W@std@@@std@@@Z DD imagerel $LN10
	DD	imagerel $LN10+1128
	DD	imagerel $unwind$??$test_io_vec@M$0A@V?$basic_ostream@_WU?$char_traits@_W@std@@@std@@@@YAHAEAV?$basic_ostream@_WU?$char_traits@_W@std@@@std@@@Z
pdata	ENDS
;	COMDAT pdata
pdata	SEGMENT
$pdata$?dtor$0@?0???$test_io_vec@M$0A@V?$basic_ostream@_WU?$char_traits@_W@std@@@std@@@@YAHAEAV?$basic_ostream@_WU?$char_traits@_W@std@@@std@@@Z@4HA DD imagerel ?dtor$0@?0???$test_io_vec@M$0A@V?$basic_ostream@_WU?$char_traits@_W@std@@@std@@@@YAHAEAV?$basic_ostream@_WU?$char_traits@_W@std@@@std@@@Z@4HA
	DD	imagerel ?dtor$0@?0???$test_io_vec@M$0A@V?$basic_ostream@_WU?$char_traits@_W@std@@@std@@@@YAHAEAV?$basic_ostream@_WU?$char_traits@_W@std@@@std@@@Z@4HA+38
	DD	imagerel $unwind$?dtor$0@?0???$test_io_vec@M$0A@V?$basic_ostream@_WU?$char_traits@_W@std@@@std@@@@YAHAEAV?$basic_ostream@_WU?$char_traits@_W@std@@@std@@@Z@4HA
pdata	ENDS
;	COMDAT pdata
pdata	SEGMENT
$pdata$?dtor$1@?0???$test_io_vec@M$0A@V?$basic_ostream@_WU?$char_traits@_W@std@@@std@@@@YAHAEAV?$basic_ostream@_WU?$char_traits@_W@std@@@std@@@Z@4HA DD imagerel ?dtor$1@?0???$test_io_vec@M$0A@V?$basic_ostream@_WU?$char_traits@_W@std@@@std@@@@YAHAEAV?$basic_ostream@_WU?$char_traits@_W@std@@@std@@@Z@4HA
	DD	imagerel ?dtor$1@?0???$test_io_vec@M$0A@V?$basic_ostream@_WU?$char_traits@_W@std@@@std@@@@YAHAEAV?$basic_ostream@_WU?$char_traits@_W@std@@@std@@@Z@4HA+38
	DD	imagerel $unwind$?dtor$1@?0???$test_io_vec@M$0A@V?$basic_ostream@_WU?$char_traits@_W@std@@@std@@@@YAHAEAV?$basic_ostream@_WU?$char_traits@_W@std@@@std@@@Z@4HA
pdata	ENDS
;	COMDAT pdata
pdata	SEGMENT
$pdata$?dtor$2@?0???$test_io_vec@M$0A@V?$basic_ostream@_WU?$char_traits@_W@std@@@std@@@@YAHAEAV?$basic_ostream@_WU?$char_traits@_W@std@@@std@@@Z@4HA DD imagerel ?dtor$2@?0???$test_io_vec@M$0A@V?$basic_ostream@_WU?$char_traits@_W@std@@@std@@@@YAHAEAV?$basic_ostream@_WU?$char_traits@_W@std@@@std@@@Z@4HA
	DD	imagerel ?dtor$2@?0???$test_io_vec@M$0A@V?$basic_ostream@_WU?$char_traits@_W@std@@@std@@@@YAHAEAV?$basic_ostream@_WU?$char_traits@_W@std@@@std@@@Z@4HA+38
	DD	imagerel $unwind$?dtor$2@?0???$test_io_vec@M$0A@V?$basic_ostream@_WU?$char_traits@_W@std@@@std@@@@YAHAEAV?$basic_ostream@_WU?$char_traits@_W@std@@@std@@@Z@4HA
pdata	ENDS
;	COMDAT pdata
pdata	SEGMENT
$pdata$?dtor$3@?0???$test_io_vec@M$0A@V?$basic_ostream@_WU?$char_traits@_W@std@@@std@@@@YAHAEAV?$basic_ostream@_WU?$char_traits@_W@std@@@std@@@Z@4HA DD imagerel ?dtor$3@?0???$test_io_vec@M$0A@V?$basic_ostream@_WU?$char_traits@_W@std@@@std@@@@YAHAEAV?$basic_ostream@_WU?$char_traits@_W@std@@@std@@@Z@4HA
	DD	imagerel ?dtor$3@?0???$test_io_vec@M$0A@V?$basic_ostream@_WU?$char_traits@_W@std@@@std@@@@YAHAEAV?$basic_ostream@_WU?$char_traits@_W@std@@@std@@@Z@4HA+38
	DD	imagerel $unwind$?dtor$3@?0???$test_io_vec@M$0A@V?$basic_ostream@_WU?$char_traits@_W@std@@@std@@@@YAHAEAV?$basic_ostream@_WU?$char_traits@_W@std@@@std@@@Z@4HA
pdata	ENDS
;	COMDAT pdata
pdata	SEGMENT
$pdata$?dtor$4@?0???$test_io_vec@M$0A@V?$basic_ostream@_WU?$char_traits@_W@std@@@std@@@@YAHAEAV?$basic_ostream@_WU?$char_traits@_W@std@@@std@@@Z@4HA DD imagerel ?dtor$4@?0???$test_io_vec@M$0A@V?$basic_ostream@_WU?$char_traits@_W@std@@@std@@@@YAHAEAV?$basic_ostream@_WU?$char_traits@_W@std@@@std@@@Z@4HA
	DD	imagerel ?dtor$4@?0???$test_io_vec@M$0A@V?$basic_ostream@_WU?$char_traits@_W@std@@@std@@@@YAHAEAV?$basic_ostream@_WU?$char_traits@_W@std@@@std@@@Z@4HA+38
	DD	imagerel $unwind$?dtor$4@?0???$test_io_vec@M$0A@V?$basic_ostream@_WU?$char_traits@_W@std@@@std@@@@YAHAEAV?$basic_ostream@_WU?$char_traits@_W@std@@@std@@@Z@4HA
pdata	ENDS
;	COMDAT pdata
pdata	SEGMENT
$pdata$?dtor$5@?0???$test_io_vec@M$0A@V?$basic_ostream@_WU?$char_traits@_W@std@@@std@@@@YAHAEAV?$basic_ostream@_WU?$char_traits@_W@std@@@std@@@Z@4HA DD imagerel ?dtor$5@?0???$test_io_vec@M$0A@V?$basic_ostream@_WU?$char_traits@_W@std@@@std@@@@YAHAEAV?$basic_ostream@_WU?$char_traits@_W@std@@@std@@@Z@4HA
	DD	imagerel ?dtor$5@?0???$test_io_vec@M$0A@V?$basic_ostream@_WU?$char_traits@_W@std@@@std@@@@YAHAEAV?$basic_ostream@_WU?$char_traits@_W@std@@@std@@@Z@4HA+38
	DD	imagerel $unwind$?dtor$5@?0???$test_io_vec@M$0A@V?$basic_ostream@_WU?$char_traits@_W@std@@@std@@@@YAHAEAV?$basic_ostream@_WU?$char_traits@_W@std@@@std@@@Z@4HA
pdata	ENDS
;	COMDAT pdata
pdata	SEGMENT
$pdata$?dtor$6@?0???$test_io_vec@M$0A@V?$basic_ostream@_WU?$char_traits@_W@std@@@std@@@@YAHAEAV?$basic_ostream@_WU?$char_traits@_W@std@@@std@@@Z@4HA DD imagerel ?dtor$6@?0???$test_io_vec@M$0A@V?$basic_ostream@_WU?$char_traits@_W@std@@@std@@@@YAHAEAV?$basic_ostream@_WU?$char_traits@_W@std@@@std@@@Z@4HA
	DD	imagerel ?dtor$6@?0???$test_io_vec@M$0A@V?$basic_ostream@_WU?$char_traits@_W@std@@@std@@@@YAHAEAV?$basic_ostream@_WU?$char_traits@_W@std@@@std@@@Z@4HA+38
	DD	imagerel $unwind$?dtor$6@?0???$test_io_vec@M$0A@V?$basic_ostream@_WU?$char_traits@_W@std@@@std@@@@YAHAEAV?$basic_ostream@_WU?$char_traits@_W@std@@@std@@@Z@4HA
pdata	ENDS
;	COMDAT pdata
pdata	SEGMENT
$pdata$??$test_io_vec@H$00V?$basic_ostream@DU?$char_traits@D@std@@@std@@@@YAHAEAV?$basic_ostream@DU?$char_traits@D@std@@@std@@@Z DD imagerel $LN10
	DD	imagerel $LN10+1128
	DD	imagerel $unwind$??$test_io_vec@H$00V?$basic_ostream@DU?$char_traits@D@std@@@std@@@@YAHAEAV?$basic_ostream@DU?$char_traits@D@std@@@std@@@Z
pdata	ENDS
;	COMDAT pdata
pdata	SEGMENT
$pdata$?dtor$0@?0???$test_io_vec@H$00V?$basic_ostream@DU?$char_traits@D@std@@@std@@@@YAHAEAV?$basic_ostream@DU?$char_traits@D@std@@@std@@@Z@4HA DD imagerel ?dtor$0@?0???$test_io_vec@H$00V?$basic_ostream@DU?$char_traits@D@std@@@std@@@@YAHAEAV?$basic_ostream@DU?$char_traits@D@std@@@std@@@Z@4HA
	DD	imagerel ?dtor$0@?0???$test_io_vec@H$00V?$basic_ostream@DU?$char_traits@D@std@@@std@@@@YAHAEAV?$basic_ostream@DU?$char_traits@D@std@@@std@@@Z@4HA+38
	DD	imagerel $unwind$?dtor$0@?0???$test_io_vec@H$00V?$basic_ostream@DU?$char_traits@D@std@@@std@@@@YAHAEAV?$basic_ostream@DU?$char_traits@D@std@@@std@@@Z@4HA
pdata	ENDS
;	COMDAT pdata
pdata	SEGMENT
$pdata$?dtor$1@?0???$test_io_vec@H$00V?$basic_ostream@DU?$char_traits@D@std@@@std@@@@YAHAEAV?$basic_ostream@DU?$char_traits@D@std@@@std@@@Z@4HA DD imagerel ?dtor$1@?0???$test_io_vec@H$00V?$basic_ostream@DU?$char_traits@D@std@@@std@@@@YAHAEAV?$basic_ostream@DU?$char_traits@D@std@@@std@@@Z@4HA
	DD	imagerel ?dtor$1@?0???$test_io_vec@H$00V?$basic_ostream@DU?$char_traits@D@std@@@std@@@@YAHAEAV?$basic_ostream@DU?$char_traits@D@std@@@std@@@Z@4HA+38
	DD	imagerel $unwind$?dtor$1@?0???$test_io_vec@H$00V?$basic_ostream@DU?$char_traits@D@std@@@std@@@@YAHAEAV?$basic_ostream@DU?$char_traits@D@std@@@std@@@Z@4HA
pdata	ENDS
;	COMDAT pdata
pdata	SEGMENT
$pdata$?dtor$2@?0???$test_io_vec@H$00V?$basic_ostream@DU?$char_traits@D@std@@@std@@@@YAHAEAV?$basic_ostream@DU?$char_traits@D@std@@@std@@@Z@4HA DD imagerel ?dtor$2@?0???$test_io_vec@H$00V?$basic_ostream@DU?$char_traits@D@std@@@std@@@@YAHAEAV?$basic_ostream@DU?$char_traits@D@std@@@std@@@Z@4HA
	DD	imagerel ?dtor$2@?0???$test_io_vec@H$00V?$basic_ostream@DU?$char_traits@D@std@@@std@@@@YAHAEAV?$basic_ostream@DU?$char_traits@D@std@@@std@@@Z@4HA+38
	DD	imagerel $unwind$?dtor$2@?0???$test_io_vec@H$00V?$basic_ostream@DU?$char_traits@D@std@@@std@@@@YAHAEAV?$basic_ostream@DU?$char_traits@D@std@@@std@@@Z@4HA
pdata	ENDS
;	COMDAT pdata
pdata	SEGMENT
$pdata$?dtor$3@?0???$test_io_vec@H$00V?$basic_ostream@DU?$char_traits@D@std@@@std@@@@YAHAEAV?$basic_ostream@DU?$char_traits@D@std@@@std@@@Z@4HA DD imagerel ?dtor$3@?0???$test_io_vec@H$00V?$basic_ostream@DU?$char_traits@D@std@@@std@@@@YAHAEAV?$basic_ostream@DU?$char_traits@D@std@@@std@@@Z@4HA
	DD	imagerel ?dtor$3@?0???$test_io_vec@H$00V?$basic_ostream@DU?$char_traits@D@std@@@std@@@@YAHAEAV?$basic_ostream@DU?$char_traits@D@std@@@std@@@Z@4HA+38
	DD	imagerel $unwind$?dtor$3@?0???$test_io_vec@H$00V?$basic_ostream@DU?$char_traits@D@std@@@std@@@@YAHAEAV?$basic_ostream@DU?$char_traits@D@std@@@std@@@Z@4HA
pdata	ENDS
;	COMDAT pdata
pdata	SEGMENT
$pdata$?dtor$4@?0???$test_io_vec@H$00V?$basic_ostream@DU?$char_traits@D@std@@@std@@@@YAHAEAV?$basic_ostream@DU?$char_traits@D@std@@@std@@@Z@4HA DD imagerel ?dtor$4@?0???$test_io_vec@H$00V?$basic_ostream@DU?$char_traits@D@std@@@std@@@@YAHAEAV?$basic_ostream@DU?$char_traits@D@std@@@std@@@Z@4HA
	DD	imagerel ?dtor$4@?0???$test_io_vec@H$00V?$basic_ostream@DU?$char_traits@D@std@@@std@@@@YAHAEAV?$basic_ostream@DU?$char_traits@D@std@@@std@@@Z@4HA+38
	DD	imagerel $unwind$?dtor$4@?0???$test_io_vec@H$00V?$basic_ostream@DU?$char_traits@D@std@@@std@@@@YAHAEAV?$basic_ostream@DU?$char_traits@D@std@@@std@@@Z@4HA
pdata	ENDS
;	COMDAT pdata
pdata	SEGMENT
$pdata$?dtor$5@?0???$test_io_vec@H$00V?$basic_ostream@DU?$char_traits@D@std@@@std@@@@YAHAEAV?$basic_ostream@DU?$char_traits@D@std@@@std@@@Z@4HA DD imagerel ?dtor$5@?0???$test_io_vec@H$00V?$basic_ostream@DU?$char_traits@D@std@@@std@@@@YAHAEAV?$basic_ostream@DU?$char_traits@D@std@@@std@@@Z@4HA
	DD	imagerel ?dtor$5@?0???$test_io_vec@H$00V?$basic_ostream@DU?$char_traits@D@std@@@std@@@@YAHAEAV?$basic_ostream@DU?$char_traits@D@std@@@std@@@Z@4HA+38
	DD	imagerel $unwind$?dtor$5@?0???$test_io_vec@H$00V?$basic_ostream@DU?$char_traits@D@std@@@std@@@@YAHAEAV?$basic_ostream@DU?$char_traits@D@std@@@std@@@Z@4HA
pdata	ENDS
;	COMDAT pdata
pdata	SEGMENT
$pdata$?dtor$6@?0???$test_io_vec@H$00V?$basic_ostream@DU?$char_traits@D@std@@@std@@@@YAHAEAV?$basic_ostream@DU?$char_traits@D@std@@@std@@@Z@4HA DD imagerel ?dtor$6@?0???$test_io_vec@H$00V?$basic_ostream@DU?$char_traits@D@std@@@std@@@@YAHAEAV?$basic_ostream@DU?$char_traits@D@std@@@std@@@Z@4HA
	DD	imagerel ?dtor$6@?0???$test_io_vec@H$00V?$basic_ostream@DU?$char_traits@D@std@@@std@@@@YAHAEAV?$basic_ostream@DU?$char_traits@D@std@@@std@@@Z@4HA+38
	DD	imagerel $unwind$?dtor$6@?0???$test_io_vec@H$00V?$basic_ostream@DU?$char_traits@D@std@@@std@@@@YAHAEAV?$basic_ostream@DU?$char_traits@D@std@@@std@@@Z@4HA
pdata	ENDS
;	COMDAT pdata
pdata	SEGMENT
$pdata$??$test_io_vec@H$00V?$basic_ostream@_WU?$char_traits@_W@std@@@std@@@@YAHAEAV?$basic_ostream@_WU?$char_traits@_W@std@@@std@@@Z DD imagerel $LN10
	DD	imagerel $LN10+1128
	DD	imagerel $unwind$??$test_io_vec@H$00V?$basic_ostream@_WU?$char_traits@_W@std@@@std@@@@YAHAEAV?$basic_ostream@_WU?$char_traits@_W@std@@@std@@@Z
pdata	ENDS
;	COMDAT pdata
pdata	SEGMENT
$pdata$?dtor$0@?0???$test_io_vec@H$00V?$basic_ostream@_WU?$char_traits@_W@std@@@std@@@@YAHAEAV?$basic_ostream@_WU?$char_traits@_W@std@@@std@@@Z@4HA DD imagerel ?dtor$0@?0???$test_io_vec@H$00V?$basic_ostream@_WU?$char_traits@_W@std@@@std@@@@YAHAEAV?$basic_ostream@_WU?$char_traits@_W@std@@@std@@@Z@4HA
	DD	imagerel ?dtor$0@?0???$test_io_vec@H$00V?$basic_ostream@_WU?$char_traits@_W@std@@@std@@@@YAHAEAV?$basic_ostream@_WU?$char_traits@_W@std@@@std@@@Z@4HA+38
	DD	imagerel $unwind$?dtor$0@?0???$test_io_vec@H$00V?$basic_ostream@_WU?$char_traits@_W@std@@@std@@@@YAHAEAV?$basic_ostream@_WU?$char_traits@_W@std@@@std@@@Z@4HA
pdata	ENDS
;	COMDAT pdata
pdata	SEGMENT
$pdata$?dtor$1@?0???$test_io_vec@H$00V?$basic_ostream@_WU?$char_traits@_W@std@@@std@@@@YAHAEAV?$basic_ostream@_WU?$char_traits@_W@std@@@std@@@Z@4HA DD imagerel ?dtor$1@?0???$test_io_vec@H$00V?$basic_ostream@_WU?$char_traits@_W@std@@@std@@@@YAHAEAV?$basic_ostream@_WU?$char_traits@_W@std@@@std@@@Z@4HA
	DD	imagerel ?dtor$1@?0???$test_io_vec@H$00V?$basic_ostream@_WU?$char_traits@_W@std@@@std@@@@YAHAEAV?$basic_ostream@_WU?$char_traits@_W@std@@@std@@@Z@4HA+38
	DD	imagerel $unwind$?dtor$1@?0???$test_io_vec@H$00V?$basic_ostream@_WU?$char_traits@_W@std@@@std@@@@YAHAEAV?$basic_ostream@_WU?$char_traits@_W@std@@@std@@@Z@4HA
pdata	ENDS
;	COMDAT pdata
pdata	SEGMENT
$pdata$?dtor$2@?0???$test_io_vec@H$00V?$basic_ostream@_WU?$char_traits@_W@std@@@std@@@@YAHAEAV?$basic_ostream@_WU?$char_traits@_W@std@@@std@@@Z@4HA DD imagerel ?dtor$2@?0???$test_io_vec@H$00V?$basic_ostream@_WU?$char_traits@_W@std@@@std@@@@YAHAEAV?$basic_ostream@_WU?$char_traits@_W@std@@@std@@@Z@4HA
	DD	imagerel ?dtor$2@?0???$test_io_vec@H$00V?$basic_ostream@_WU?$char_traits@_W@std@@@std@@@@YAHAEAV?$basic_ostream@_WU?$char_traits@_W@std@@@std@@@Z@4HA+38
	DD	imagerel $unwind$?dtor$2@?0???$test_io_vec@H$00V?$basic_ostream@_WU?$char_traits@_W@std@@@std@@@@YAHAEAV?$basic_ostream@_WU?$char_traits@_W@std@@@std@@@Z@4HA
pdata	ENDS
;	COMDAT pdata
pdata	SEGMENT
$pdata$?dtor$3@?0???$test_io_vec@H$00V?$basic_ostream@_WU?$char_traits@_W@std@@@std@@@@YAHAEAV?$basic_ostream@_WU?$char_traits@_W@std@@@std@@@Z@4HA DD imagerel ?dtor$3@?0???$test_io_vec@H$00V?$basic_ostream@_WU?$char_traits@_W@std@@@std@@@@YAHAEAV?$basic_ostream@_WU?$char_traits@_W@std@@@std@@@Z@4HA
	DD	imagerel ?dtor$3@?0???$test_io_vec@H$00V?$basic_ostream@_WU?$char_traits@_W@std@@@std@@@@YAHAEAV?$basic_ostream@_WU?$char_traits@_W@std@@@std@@@Z@4HA+38
	DD	imagerel $unwind$?dtor$3@?0???$test_io_vec@H$00V?$basic_ostream@_WU?$char_traits@_W@std@@@std@@@@YAHAEAV?$basic_ostream@_WU?$char_traits@_W@std@@@std@@@Z@4HA
pdata	ENDS
;	COMDAT pdata
pdata	SEGMENT
$pdata$?dtor$4@?0???$test_io_vec@H$00V?$basic_ostream@_WU?$char_traits@_W@std@@@std@@@@YAHAEAV?$basic_ostream@_WU?$char_traits@_W@std@@@std@@@Z@4HA DD imagerel ?dtor$4@?0???$test_io_vec@H$00V?$basic_ostream@_WU?$char_traits@_W@std@@@std@@@@YAHAEAV?$basic_ostream@_WU?$char_traits@_W@std@@@std@@@Z@4HA
	DD	imagerel ?dtor$4@?0???$test_io_vec@H$00V?$basic_ostream@_WU?$char_traits@_W@std@@@std@@@@YAHAEAV?$basic_ostream@_WU?$char_traits@_W@std@@@std@@@Z@4HA+38
	DD	imagerel $unwind$?dtor$4@?0???$test_io_vec@H$00V?$basic_ostream@_WU?$char_traits@_W@std@@@std@@@@YAHAEAV?$basic_ostream@_WU?$char_traits@_W@std@@@std@@@Z@4HA
pdata	ENDS
;	COMDAT pdata
pdata	SEGMENT
$pdata$?dtor$5@?0???$test_io_vec@H$00V?$basic_ostream@_WU?$char_traits@_W@std@@@std@@@@YAHAEAV?$basic_ostream@_WU?$char_traits@_W@std@@@std@@@Z@4HA DD imagerel ?dtor$5@?0???$test_io_vec@H$00V?$basic_ostream@_WU?$char_traits@_W@std@@@std@@@@YAHAEAV?$basic_ostream@_WU?$char_traits@_W@std@@@std@@@Z@4HA
	DD	imagerel ?dtor$5@?0???$test_io_vec@H$00V?$basic_ostream@_WU?$char_traits@_W@std@@@std@@@@YAHAEAV?$basic_ostream@_WU?$char_traits@_W@std@@@std@@@Z@4HA+38
	DD	imagerel $unwind$?dtor$5@?0???$test_io_vec@H$00V?$basic_ostream@_WU?$char_traits@_W@std@@@std@@@@YAHAEAV?$basic_ostream@_WU?$char_traits@_W@std@@@std@@@Z@4HA
pdata	ENDS
;	COMDAT pdata
pdata	SEGMENT
$pdata$?dtor$6@?0???$test_io_vec@H$00V?$basic_ostream@_WU?$char_traits@_W@std@@@std@@@@YAHAEAV?$basic_ostream@_WU?$char_traits@_W@std@@@std@@@Z@4HA DD imagerel ?dtor$6@?0???$test_io_vec@H$00V?$basic_ostream@_WU?$char_traits@_W@std@@@std@@@@YAHAEAV?$basic_ostream@_WU?$char_traits@_W@std@@@std@@@Z@4HA
	DD	imagerel ?dtor$6@?0???$test_io_vec@H$00V?$basic_ostream@_WU?$char_traits@_W@std@@@std@@@@YAHAEAV?$basic_ostream@_WU?$char_traits@_W@std@@@std@@@Z@4HA+38
	DD	imagerel $unwind$?dtor$6@?0???$test_io_vec@H$00V?$basic_ostream@_WU?$char_traits@_W@std@@@std@@@@YAHAEAV?$basic_ostream@_WU?$char_traits@_W@std@@@std@@@Z@4HA
pdata	ENDS
;	COMDAT pdata
pdata	SEGMENT
$pdata$??$test_io_vec@I$01V?$basic_ostream@DU?$char_traits@D@std@@@std@@@@YAHAEAV?$basic_ostream@DU?$char_traits@D@std@@@std@@@Z DD imagerel $LN10
	DD	imagerel $LN10+1128
	DD	imagerel $unwind$??$test_io_vec@I$01V?$basic_ostream@DU?$char_traits@D@std@@@std@@@@YAHAEAV?$basic_ostream@DU?$char_traits@D@std@@@std@@@Z
pdata	ENDS
;	COMDAT pdata
pdata	SEGMENT
$pdata$?dtor$0@?0???$test_io_vec@I$01V?$basic_ostream@DU?$char_traits@D@std@@@std@@@@YAHAEAV?$basic_ostream@DU?$char_traits@D@std@@@std@@@Z@4HA DD imagerel ?dtor$0@?0???$test_io_vec@I$01V?$basic_ostream@DU?$char_traits@D@std@@@std@@@@YAHAEAV?$basic_ostream@DU?$char_traits@D@std@@@std@@@Z@4HA
	DD	imagerel ?dtor$0@?0???$test_io_vec@I$01V?$basic_ostream@DU?$char_traits@D@std@@@std@@@@YAHAEAV?$basic_ostream@DU?$char_traits@D@std@@@std@@@Z@4HA+38
	DD	imagerel $unwind$?dtor$0@?0???$test_io_vec@I$01V?$basic_ostream@DU?$char_traits@D@std@@@std@@@@YAHAEAV?$basic_ostream@DU?$char_traits@D@std@@@std@@@Z@4HA
pdata	ENDS
;	COMDAT pdata
pdata	SEGMENT
$pdata$?dtor$1@?0???$test_io_vec@I$01V?$basic_ostream@DU?$char_traits@D@std@@@std@@@@YAHAEAV?$basic_ostream@DU?$char_traits@D@std@@@std@@@Z@4HA DD imagerel ?dtor$1@?0???$test_io_vec@I$01V?$basic_ostream@DU?$char_traits@D@std@@@std@@@@YAHAEAV?$basic_ostream@DU?$char_traits@D@std@@@std@@@Z@4HA
	DD	imagerel ?dtor$1@?0???$test_io_vec@I$01V?$basic_ostream@DU?$char_traits@D@std@@@std@@@@YAHAEAV?$basic_ostream@DU?$char_traits@D@std@@@std@@@Z@4HA+38
	DD	imagerel $unwind$?dtor$1@?0???$test_io_vec@I$01V?$basic_ostream@DU?$char_traits@D@std@@@std@@@@YAHAEAV?$basic_ostream@DU?$char_traits@D@std@@@std@@@Z@4HA
pdata	ENDS
;	COMDAT pdata
pdata	SEGMENT
$pdata$?dtor$2@?0???$test_io_vec@I$01V?$basic_ostream@DU?$char_traits@D@std@@@std@@@@YAHAEAV?$basic_ostream@DU?$char_traits@D@std@@@std@@@Z@4HA DD imagerel ?dtor$2@?0???$test_io_vec@I$01V?$basic_ostream@DU?$char_traits@D@std@@@std@@@@YAHAEAV?$basic_ostream@DU?$char_traits@D@std@@@std@@@Z@4HA
	DD	imagerel ?dtor$2@?0???$test_io_vec@I$01V?$basic_ostream@DU?$char_traits@D@std@@@std@@@@YAHAEAV?$basic_ostream@DU?$char_traits@D@std@@@std@@@Z@4HA+38
	DD	imagerel $unwind$?dtor$2@?0???$test_io_vec@I$01V?$basic_ostream@DU?$char_traits@D@std@@@std@@@@YAHAEAV?$basic_ostream@DU?$char_traits@D@std@@@std@@@Z@4HA
pdata	ENDS
;	COMDAT pdata
pdata	SEGMENT
$pdata$?dtor$3@?0???$test_io_vec@I$01V?$basic_ostream@DU?$char_traits@D@std@@@std@@@@YAHAEAV?$basic_ostream@DU?$char_traits@D@std@@@std@@@Z@4HA DD imagerel ?dtor$3@?0???$test_io_vec@I$01V?$basic_ostream@DU?$char_traits@D@std@@@std@@@@YAHAEAV?$basic_ostream@DU?$char_traits@D@std@@@std@@@Z@4HA
	DD	imagerel ?dtor$3@?0???$test_io_vec@I$01V?$basic_ostream@DU?$char_traits@D@std@@@std@@@@YAHAEAV?$basic_ostream@DU?$char_traits@D@std@@@std@@@Z@4HA+38
	DD	imagerel $unwind$?dtor$3@?0???$test_io_vec@I$01V?$basic_ostream@DU?$char_traits@D@std@@@std@@@@YAHAEAV?$basic_ostream@DU?$char_traits@D@std@@@std@@@Z@4HA
pdata	ENDS
;	COMDAT pdata
pdata	SEGMENT
$pdata$?dtor$4@?0???$test_io_vec@I$01V?$basic_ostream@DU?$char_traits@D@std@@@std@@@@YAHAEAV?$basic_ostream@DU?$char_traits@D@std@@@std@@@Z@4HA DD imagerel ?dtor$4@?0???$test_io_vec@I$01V?$basic_ostream@DU?$char_traits@D@std@@@std@@@@YAHAEAV?$basic_ostream@DU?$char_traits@D@std@@@std@@@Z@4HA
	DD	imagerel ?dtor$4@?0???$test_io_vec@I$01V?$basic_ostream@DU?$char_traits@D@std@@@std@@@@YAHAEAV?$basic_ostream@DU?$char_traits@D@std@@@std@@@Z@4HA+38
	DD	imagerel $unwind$?dtor$4@?0???$test_io_vec@I$01V?$basic_ostream@DU?$char_traits@D@std@@@std@@@@YAHAEAV?$basic_ostream@DU?$char_traits@D@std@@@std@@@Z@4HA
pdata	ENDS
;	COMDAT pdata
pdata	SEGMENT
$pdata$?dtor$5@?0???$test_io_vec@I$01V?$basic_ostream@DU?$char_traits@D@std@@@std@@@@YAHAEAV?$basic_ostream@DU?$char_traits@D@std@@@std@@@Z@4HA DD imagerel ?dtor$5@?0???$test_io_vec@I$01V?$basic_ostream@DU?$char_traits@D@std@@@std@@@@YAHAEAV?$basic_ostream@DU?$char_traits@D@std@@@std@@@Z@4HA
	DD	imagerel ?dtor$5@?0???$test_io_vec@I$01V?$basic_ostream@DU?$char_traits@D@std@@@std@@@@YAHAEAV?$basic_ostream@DU?$char_traits@D@std@@@std@@@Z@4HA+38
	DD	imagerel $unwind$?dtor$5@?0???$test_io_vec@I$01V?$basic_ostream@DU?$char_traits@D@std@@@std@@@@YAHAEAV?$basic_ostream@DU?$char_traits@D@std@@@std@@@Z@4HA
pdata	ENDS
;	COMDAT pdata
pdata	SEGMENT
$pdata$?dtor$6@?0???$test_io_vec@I$01V?$basic_ostream@DU?$char_traits@D@std@@@std@@@@YAHAEAV?$basic_ostream@DU?$char_traits@D@std@@@std@@@Z@4HA DD imagerel ?dtor$6@?0???$test_io_vec@I$01V?$basic_ostream@DU?$char_traits@D@std@@@std@@@@YAHAEAV?$basic_ostream@DU?$char_traits@D@std@@@std@@@Z@4HA
	DD	imagerel ?dtor$6@?0???$test_io_vec@I$01V?$basic_ostream@DU?$char_traits@D@std@@@std@@@@YAHAEAV?$basic_ostream@DU?$char_traits@D@std@@@std@@@Z@4HA+38
	DD	imagerel $unwind$?dtor$6@?0???$test_io_vec@I$01V?$basic_ostream@DU?$char_traits@D@std@@@std@@@@YAHAEAV?$basic_ostream@DU?$char_traits@D@std@@@std@@@Z@4HA
pdata	ENDS
;	COMDAT pdata
pdata	SEGMENT
$pdata$??$test_io_vec@I$01V?$basic_ostream@_WU?$char_traits@_W@std@@@std@@@@YAHAEAV?$basic_ostream@_WU?$char_traits@_W@std@@@std@@@Z DD imagerel $LN10
	DD	imagerel $LN10+1128
	DD	imagerel $unwind$??$test_io_vec@I$01V?$basic_ostream@_WU?$char_traits@_W@std@@@std@@@@YAHAEAV?$basic_ostream@_WU?$char_traits@_W@std@@@std@@@Z
pdata	ENDS
;	COMDAT pdata
pdata	SEGMENT
$pdata$?dtor$0@?0???$test_io_vec@I$01V?$basic_ostream@_WU?$char_traits@_W@std@@@std@@@@YAHAEAV?$basic_ostream@_WU?$char_traits@_W@std@@@std@@@Z@4HA DD imagerel ?dtor$0@?0???$test_io_vec@I$01V?$basic_ostream@_WU?$char_traits@_W@std@@@std@@@@YAHAEAV?$basic_ostream@_WU?$char_traits@_W@std@@@std@@@Z@4HA
	DD	imagerel ?dtor$0@?0???$test_io_vec@I$01V?$basic_ostream@_WU?$char_traits@_W@std@@@std@@@@YAHAEAV?$basic_ostream@_WU?$char_traits@_W@std@@@std@@@Z@4HA+38
	DD	imagerel $unwind$?dtor$0@?0???$test_io_vec@I$01V?$basic_ostream@_WU?$char_traits@_W@std@@@std@@@@YAHAEAV?$basic_ostream@_WU?$char_traits@_W@std@@@std@@@Z@4HA
pdata	ENDS
;	COMDAT pdata
pdata	SEGMENT
$pdata$?dtor$1@?0???$test_io_vec@I$01V?$basic_ostream@_WU?$char_traits@_W@std@@@std@@@@YAHAEAV?$basic_ostream@_WU?$char_traits@_W@std@@@std@@@Z@4HA DD imagerel ?dtor$1@?0???$test_io_vec@I$01V?$basic_ostream@_WU?$char_traits@_W@std@@@std@@@@YAHAEAV?$basic_ostream@_WU?$char_traits@_W@std@@@std@@@Z@4HA
	DD	imagerel ?dtor$1@?0???$test_io_vec@I$01V?$basic_ostream@_WU?$char_traits@_W@std@@@std@@@@YAHAEAV?$basic_ostream@_WU?$char_traits@_W@std@@@std@@@Z@4HA+38
	DD	imagerel $unwind$?dtor$1@?0???$test_io_vec@I$01V?$basic_ostream@_WU?$char_traits@_W@std@@@std@@@@YAHAEAV?$basic_ostream@_WU?$char_traits@_W@std@@@std@@@Z@4HA
pdata	ENDS
;	COMDAT pdata
pdata	SEGMENT
$pdata$?dtor$2@?0???$test_io_vec@I$01V?$basic_ostream@_WU?$char_traits@_W@std@@@std@@@@YAHAEAV?$basic_ostream@_WU?$char_traits@_W@std@@@std@@@Z@4HA DD imagerel ?dtor$2@?0???$test_io_vec@I$01V?$basic_ostream@_WU?$char_traits@_W@std@@@std@@@@YAHAEAV?$basic_ostream@_WU?$char_traits@_W@std@@@std@@@Z@4HA
	DD	imagerel ?dtor$2@?0???$test_io_vec@I$01V?$basic_ostream@_WU?$char_traits@_W@std@@@std@@@@YAHAEAV?$basic_ostream@_WU?$char_traits@_W@std@@@std@@@Z@4HA+38
	DD	imagerel $unwind$?dtor$2@?0???$test_io_vec@I$01V?$basic_ostream@_WU?$char_traits@_W@std@@@std@@@@YAHAEAV?$basic_ostream@_WU?$char_traits@_W@std@@@std@@@Z@4HA
pdata	ENDS
;	COMDAT pdata
pdata	SEGMENT
$pdata$?dtor$3@?0???$test_io_vec@I$01V?$basic_ostream@_WU?$char_traits@_W@std@@@std@@@@YAHAEAV?$basic_ostream@_WU?$char_traits@_W@std@@@std@@@Z@4HA DD imagerel ?dtor$3@?0???$test_io_vec@I$01V?$basic_ostream@_WU?$char_traits@_W@std@@@std@@@@YAHAEAV?$basic_ostream@_WU?$char_traits@_W@std@@@std@@@Z@4HA
	DD	imagerel ?dtor$3@?0???$test_io_vec@I$01V?$basic_ostream@_WU?$char_traits@_W@std@@@std@@@@YAHAEAV?$basic_ostream@_WU?$char_traits@_W@std@@@std@@@Z@4HA+38
	DD	imagerel $unwind$?dtor$3@?0???$test_io_vec@I$01V?$basic_ostream@_WU?$char_traits@_W@std@@@std@@@@YAHAEAV?$basic_ostream@_WU?$char_traits@_W@std@@@std@@@Z@4HA
pdata	ENDS
;	COMDAT pdata
pdata	SEGMENT
$pdata$?dtor$4@?0???$test_io_vec@I$01V?$basic_ostream@_WU?$char_traits@_W@std@@@std@@@@YAHAEAV?$basic_ostream@_WU?$char_traits@_W@std@@@std@@@Z@4HA DD imagerel ?dtor$4@?0???$test_io_vec@I$01V?$basic_ostream@_WU?$char_traits@_W@std@@@std@@@@YAHAEAV?$basic_ostream@_WU?$char_traits@_W@std@@@std@@@Z@4HA
	DD	imagerel ?dtor$4@?0???$test_io_vec@I$01V?$basic_ostream@_WU?$char_traits@_W@std@@@std@@@@YAHAEAV?$basic_ostream@_WU?$char_traits@_W@std@@@std@@@Z@4HA+38
	DD	imagerel $unwind$?dtor$4@?0???$test_io_vec@I$01V?$basic_ostream@_WU?$char_traits@_W@std@@@std@@@@YAHAEAV?$basic_ostream@_WU?$char_traits@_W@std@@@std@@@Z@4HA
pdata	ENDS
;	COMDAT pdata
pdata	SEGMENT
$pdata$?dtor$5@?0???$test_io_vec@I$01V?$basic_ostream@_WU?$char_traits@_W@std@@@std@@@@YAHAEAV?$basic_ostream@_WU?$char_traits@_W@std@@@std@@@Z@4HA DD imagerel ?dtor$5@?0???$test_io_vec@I$01V?$basic_ostream@_WU?$char_traits@_W@std@@@std@@@@YAHAEAV?$basic_ostream@_WU?$char_traits@_W@std@@@std@@@Z@4HA
	DD	imagerel ?dtor$5@?0???$test_io_vec@I$01V?$basic_ostream@_WU?$char_traits@_W@std@@@std@@@@YAHAEAV?$basic_ostream@_WU?$char_traits@_W@std@@@std@@@Z@4HA+38
	DD	imagerel $unwind$?dtor$5@?0???$test_io_vec@I$01V?$basic_ostream@_WU?$char_traits@_W@std@@@std@@@@YAHAEAV?$basic_ostream@_WU?$char_traits@_W@std@@@std@@@Z@4HA
pdata	ENDS
;	COMDAT pdata
pdata	SEGMENT
$pdata$?dtor$6@?0???$test_io_vec@I$01V?$basic_ostream@_WU?$char_traits@_W@std@@@std@@@@YAHAEAV?$basic_ostream@_WU?$char_traits@_W@std@@@std@@@Z@4HA DD imagerel ?dtor$6@?0???$test_io_vec@I$01V?$basic_ostream@_WU?$char_traits@_W@std@@@std@@@@YAHAEAV?$basic_ostream@_WU?$char_traits@_W@std@@@std@@@Z@4HA
	DD	imagerel ?dtor$6@?0???$test_io_vec@I$01V?$basic_ostream@_WU?$char_traits@_W@std@@@std@@@@YAHAEAV?$basic_ostream@_WU?$char_traits@_W@std@@@std@@@Z@4HA+38
	DD	imagerel $unwind$?dtor$6@?0???$test_io_vec@I$01V?$basic_ostream@_WU?$char_traits@_W@std@@@std@@@@YAHAEAV?$basic_ostream@_WU?$char_traits@_W@std@@@std@@@Z@4HA
pdata	ENDS
;	COMDAT pdata
pdata	SEGMENT
$pdata$??$test_io_mat@M$0A@V?$basic_ostream@DU?$char_traits@D@std@@@std@@@@YAHAEAV?$basic_ostream@DU?$char_traits@D@std@@@std@@W4order_type@io@glm@@@Z DD imagerel $LN4
	DD	imagerel $LN4+4017
	DD	imagerel $unwind$??$test_io_mat@M$0A@V?$basic_ostream@DU?$char_traits@D@std@@@std@@@@YAHAEAV?$basic_ostream@DU?$char_traits@D@std@@@std@@W4order_type@io@glm@@@Z
pdata	ENDS
;	COMDAT pdata
pdata	SEGMENT
$pdata$?dtor$0@?0???$test_io_mat@M$0A@V?$basic_ostream@DU?$char_traits@D@std@@@std@@@@YAHAEAV?$basic_ostream@DU?$char_traits@D@std@@@std@@W4order_type@io@glm@@@Z@4HA DD imagerel ?dtor$0@?0???$test_io_mat@M$0A@V?$basic_ostream@DU?$char_traits@D@std@@@std@@@@YAHAEAV?$basic_ostream@DU?$char_traits@D@std@@@std@@W4order_type@io@glm@@@Z@4HA
	DD	imagerel ?dtor$0@?0???$test_io_mat@M$0A@V?$basic_ostream@DU?$char_traits@D@std@@@std@@@@YAHAEAV?$basic_ostream@DU?$char_traits@D@std@@@std@@W4order_type@io@glm@@@Z@4HA+38
	DD	imagerel $unwind$?dtor$0@?0???$test_io_mat@M$0A@V?$basic_ostream@DU?$char_traits@D@std@@@std@@@@YAHAEAV?$basic_ostream@DU?$char_traits@D@std@@@std@@W4order_type@io@glm@@@Z@4HA
pdata	ENDS
;	COMDAT pdata
pdata	SEGMENT
$pdata$??$test_io_mat@M$01V?$basic_ostream@_WU?$char_traits@_W@std@@@std@@@@YAHAEAV?$basic_ostream@_WU?$char_traits@_W@std@@@std@@W4order_type@io@glm@@@Z DD imagerel $LN4
	DD	imagerel $LN4+4017
	DD	imagerel $unwind$??$test_io_mat@M$01V?$basic_ostream@_WU?$char_traits@_W@std@@@std@@@@YAHAEAV?$basic_ostream@_WU?$char_traits@_W@std@@@std@@W4order_type@io@glm@@@Z
pdata	ENDS
;	COMDAT pdata
pdata	SEGMENT
$pdata$?dtor$0@?0???$test_io_mat@M$01V?$basic_ostream@_WU?$char_traits@_W@std@@@std@@@@YAHAEAV?$basic_ostream@_WU?$char_traits@_W@std@@@std@@W4order_type@io@glm@@@Z@4HA DD imagerel ?dtor$0@?0???$test_io_mat@M$01V?$basic_ostream@_WU?$char_traits@_W@std@@@std@@@@YAHAEAV?$basic_ostream@_WU?$char_traits@_W@std@@@std@@W4order_type@io@glm@@@Z@4HA
	DD	imagerel ?dtor$0@?0???$test_io_mat@M$01V?$basic_ostream@_WU?$char_traits@_W@std@@@std@@@@YAHAEAV?$basic_ostream@_WU?$char_traits@_W@std@@@std@@W4order_type@io@glm@@@Z@4HA+38
	DD	imagerel $unwind$?dtor$0@?0???$test_io_mat@M$01V?$basic_ostream@_WU?$char_traits@_W@std@@@std@@@@YAHAEAV?$basic_ostream@_WU?$char_traits@_W@std@@@std@@W4order_type@io@glm@@@Z@4HA
pdata	ENDS
;	COMDAT pdata
pdata	SEGMENT
$pdata$??$use_facet@V?$ctype@_W@std@@@std@@YAAEBV?$ctype@_W@0@AEBVlocale@0@@Z DD imagerel $LN11
	DD	imagerel $LN11+330
	DD	imagerel $unwind$??$use_facet@V?$ctype@_W@std@@@std@@YAAEBV?$ctype@_W@0@AEBVlocale@0@@Z
pdata	ENDS
;	COMDAT pdata
pdata	SEGMENT
$pdata$?dtor$0@?0???$use_facet@V?$ctype@_W@std@@@std@@YAAEBV?$ctype@_W@0@AEBVlocale@0@@Z@4HA DD imagerel ?dtor$0@?0???$use_facet@V?$ctype@_W@std@@@std@@YAAEBV?$ctype@_W@0@AEBVlocale@0@@Z@4HA
	DD	imagerel ?dtor$0@?0???$use_facet@V?$ctype@_W@std@@@std@@YAAEBV?$ctype@_W@0@AEBVlocale@0@@Z@4HA+36
	DD	imagerel $unwind$?dtor$0@?0???$use_facet@V?$ctype@_W@std@@@std@@YAAEBV?$ctype@_W@0@AEBVlocale@0@@Z@4HA
pdata	ENDS
;	COMDAT pdata
pdata	SEGMENT
$pdata$?dtor$1@?0???$use_facet@V?$ctype@_W@std@@@std@@YAAEBV?$ctype@_W@0@AEBVlocale@0@@Z@4HA DD imagerel ?dtor$1@?0???$use_facet@V?$ctype@_W@std@@@std@@YAAEBV?$ctype@_W@0@AEBVlocale@0@@Z@4HA
	DD	imagerel ?dtor$1@?0???$use_facet@V?$ctype@_W@std@@@std@@YAAEBV?$ctype@_W@0@AEBVlocale@0@@Z@4HA+35
	DD	imagerel $unwind$?dtor$1@?0???$use_facet@V?$ctype@_W@std@@@std@@YAAEBV?$ctype@_W@0@AEBVlocale@0@@Z@4HA
pdata	ENDS
;	COMDAT pdata
pdata	SEGMENT
$pdata$??0?$fpos@U_Mbstatet@@@std@@QEAA@_J@Z DD imagerel $LN3
	DD	imagerel $LN3+65
	DD	imagerel $unwind$??0?$fpos@U_Mbstatet@@@std@@QEAA@_J@Z
pdata	ENDS
;	COMDAT pdata
pdata	SEGMENT
$pdata$??B?$fpos@U_Mbstatet@@@std@@QEBA_JXZ DD imagerel $LN3
	DD	imagerel $LN3+25
	DD	imagerel $unwind$??B?$fpos@U_Mbstatet@@@std@@QEBA_JXZ
pdata	ENDS
;	COMDAT pdata
pdata	SEGMENT
$pdata$??$min@_K@std@@YAAEB_KAEB_K0@Z DD imagerel $LN5
	DD	imagerel $LN5+74
	DD	imagerel $unwind$??$min@_K@std@@YAAEB_KAEB_K0@Z
pdata	ENDS
;	COMDAT pdata
pdata	SEGMENT
$pdata$?allocate@?$allocator@U_Container_proxy@std@@@std@@QEAAPEAU_Container_proxy@2@_K@Z DD imagerel $LN3
	DD	imagerel $LN3+39
	DD	imagerel $unwind$?allocate@?$allocator@U_Container_proxy@std@@@std@@QEAAPEAU_Container_proxy@2@_K@Z
pdata	ENDS
;	COMDAT pdata
pdata	SEGMENT
$pdata$??$_Delete_plain_internal@V?$allocator@U_Container_proxy@std@@@std@@@std@@YAXAEAV?$allocator@U_Container_proxy@std@@@0@QEAU_Container_proxy@0@@Z DD imagerel $LN3
	DD	imagerel $LN3+36
	DD	imagerel $unwind$??$_Delete_plain_internal@V?$allocator@U_Container_proxy@std@@@std@@@std@@YAXAEAV?$allocator@U_Container_proxy@std@@@0@QEAU_Container_proxy@0@@Z
pdata	ENDS
;	COMDAT pdata
pdata	SEGMENT
$pdata$??$?0_W@?$allocator@U_Container_proxy@std@@@std@@QEAA@AEBV?$allocator@_W@1@@Z DD imagerel $LN3
	DD	imagerel $LN3+18
	DD	imagerel $unwind$??$?0_W@?$allocator@U_Container_proxy@std@@@std@@QEAA@AEBV?$allocator@_W@1@@Z
pdata	ENDS
;	COMDAT pdata
pdata	SEGMENT
$pdata$??$move@AEAV?$allocator@_W@std@@@std@@YA$$QEAV?$allocator@_W@0@AEAV10@@Z DD imagerel $LN3
	DD	imagerel $LN3+13
	DD	imagerel $unwind$??$move@AEAV?$allocator@_W@std@@@std@@YA$$QEAV?$allocator@_W@0@AEAV10@@Z
pdata	ENDS
;	COMDAT pdata
pdata	SEGMENT
$pdata$??$?0V?$allocator@_W@std@@$$V@?$_Compressed_pair@V?$allocator@_W@std@@V?$_String_val@U?$_Simple_types@_W@std@@@2@$00@std@@QEAA@U_One_then_variadic_args_t@1@$$QEAV?$allocator@_W@1@@Z DD imagerel $LN3
	DD	imagerel $LN3+53
	DD	imagerel $unwind$??$?0V?$allocator@_W@std@@$$V@?$_Compressed_pair@V?$allocator@_W@std@@V?$_String_val@U?$_Simple_types@_W@std@@@2@$00@std@@QEAA@U_One_then_variadic_args_t@1@$$QEAV?$allocator@_W@1@@Z
pdata	ENDS
;	COMDAT pdata
pdata	SEGMENT
$pdata$??$_Alloc_proxy@V?$allocator@U_Container_proxy@std@@@std@@@_Container_base12@std@@QEAAX$$QEAV?$allocator@U_Container_proxy@std@@@1@@Z DD imagerel $LN3
	DD	imagerel $LN3+100
	DD	imagerel $unwind$??$_Alloc_proxy@V?$allocator@U_Container_proxy@std@@@std@@@_Container_base12@std@@QEAAX$$QEAV?$allocator@U_Container_proxy@std@@@1@@Z
pdata	ENDS
;	COMDAT pdata
pdata	SEGMENT
$pdata$??$?0D@?$allocator@U_Container_proxy@std@@@std@@QEAA@AEBV?$allocator@D@1@@Z DD imagerel $LN3
	DD	imagerel $LN3+18
	DD	imagerel $unwind$??$?0D@?$allocator@U_Container_proxy@std@@@std@@QEAA@AEBV?$allocator@D@1@@Z
pdata	ENDS
;	COMDAT pdata
pdata	SEGMENT
$pdata$??$move@AEAV?$allocator@D@std@@@std@@YA$$QEAV?$allocator@D@0@AEAV10@@Z DD imagerel $LN3
	DD	imagerel $LN3+13
	DD	imagerel $unwind$??$move@AEAV?$allocator@D@std@@@std@@YA$$QEAV?$allocator@D@0@AEAV10@@Z
pdata	ENDS
;	COMDAT pdata
pdata	SEGMENT
$pdata$??$?0V?$allocator@D@std@@$$V@?$_Compressed_pair@V?$allocator@D@std@@V?$_String_val@U?$_Simple_types@D@std@@@2@$00@std@@QEAA@U_One_then_variadic_args_t@1@$$QEAV?$allocator@D@1@@Z DD imagerel $LN3
	DD	imagerel $LN3+53
	DD	imagerel $unwind$??$?0V?$allocator@D@std@@$$V@?$_Compressed_pair@V?$allocator@D@std@@V?$_String_val@U?$_Simple_types@D@std@@@2@$00@std@@QEAA@U_One_then_variadic_args_t@1@$$QEAV?$allocator@D@1@@Z
pdata	ENDS
;	COMDAT pdata
pdata	SEGMENT
$pdata$??$_Unfancy@U_Container_proxy@std@@@std@@YAPEAU_Container_proxy@0@PEAU10@@Z DD imagerel $LN3
	DD	imagerel $LN3+13
	DD	imagerel $unwind$??$_Unfancy@U_Container_proxy@std@@@std@@YAPEAU_Container_proxy@0@PEAU10@@Z
pdata	ENDS
;	COMDAT pdata
pdata	SEGMENT
$pdata$??$_Construct_in_place@U_Container_proxy@std@@PEAU_Container_base12@2@@std@@YAXAEAU_Container_proxy@0@$$QEAPEAU_Container_base12@0@@Z DD imagerel $LN3
	DD	imagerel $LN3+80
	DD	imagerel $unwind$??$_Construct_in_place@U_Container_proxy@std@@PEAU_Container_base12@2@@std@@YAXAEAU_Container_proxy@0@$$QEAPEAU_Container_base12@0@@Z
pdata	ENDS
;	COMDAT pdata
pdata	SEGMENT
$pdata$??$_Destroy_in_place@PEA_W@std@@YAXAEAPEA_W@Z DD imagerel $LN3
	DD	imagerel $LN3+8
	DD	imagerel $unwind$??$_Destroy_in_place@PEA_W@std@@YAXAEAPEA_W@Z
pdata	ENDS
;	COMDAT pdata
pdata	SEGMENT
$pdata$??R<lambda_3fa8b2c8193a0f3144fc4b1b8f243931>@@QEBA@QEA_W_KQEB_W@Z DD imagerel $LN3
	DD	imagerel $LN3+85
	DD	imagerel $unwind$??R<lambda_3fa8b2c8193a0f3144fc4b1b8f243931>@@QEBA@QEA_W_KQEB_W@Z
pdata	ENDS
;	COMDAT pdata
pdata	SEGMENT
$pdata$??$_Reallocate_for@V<lambda_3fa8b2c8193a0f3144fc4b1b8f243931>@@PEB_W@?$basic_string@_WU?$char_traits@_W@std@@V?$allocator@_W@2@@std@@AEAAAEAV01@_KV<lambda_3fa8b2c8193a0f3144fc4b1b8f243931>@@PEB_W@Z DD imagerel $LN6
	DD	imagerel $LN6+332
	DD	imagerel $unwind$??$_Reallocate_for@V<lambda_3fa8b2c8193a0f3144fc4b1b8f243931>@@PEB_W@?$basic_string@_WU?$char_traits@_W@std@@V?$allocator@_W@2@@std@@AEAAAEAV01@_KV<lambda_3fa8b2c8193a0f3144fc4b1b8f243931>@@PEB_W@Z
pdata	ENDS
;	COMDAT pdata
pdata	SEGMENT
$pdata$??$_Construct_in_place@PEA_WAEAPEA_W@std@@YAXAEAPEA_W0@Z DD imagerel $LN3
	DD	imagerel $LN3+78
	DD	imagerel $unwind$??$_Construct_in_place@PEA_WAEAPEA_W@std@@YAXAEAPEA_W0@Z
pdata	ENDS
;	COMDAT pdata
pdata	SEGMENT
$pdata$??$_Unfancy@_W@std@@YAPEA_WPEA_W@Z DD imagerel $LN3
	DD	imagerel $LN3+13
	DD	imagerel $unwind$??$_Unfancy@_W@std@@YAPEA_WPEA_W@Z
pdata	ENDS
;	COMDAT pdata
pdata	SEGMENT
$pdata$??$_Destroy_in_place@PEAD@std@@YAXAEAPEAD@Z DD imagerel $LN3
	DD	imagerel $LN3+8
	DD	imagerel $unwind$??$_Destroy_in_place@PEAD@std@@YAXAEAPEAD@Z
pdata	ENDS
;	COMDAT pdata
pdata	SEGMENT
$pdata$??R<lambda_66f57f934f28d61049862f64df852ff0>@@QEBA@QEAD_KQEBD@Z DD imagerel $LN3
	DD	imagerel $LN3+85
	DD	imagerel $unwind$??R<lambda_66f57f934f28d61049862f64df852ff0>@@QEBA@QEAD_KQEBD@Z
pdata	ENDS
;	COMDAT pdata
pdata	SEGMENT
$pdata$??$_Reallocate_for@V<lambda_66f57f934f28d61049862f64df852ff0>@@PEBD@?$basic_string@DU?$char_traits@D@std@@V?$allocator@D@2@@std@@AEAAAEAV01@_KV<lambda_66f57f934f28d61049862f64df852ff0>@@PEBD@Z DD imagerel $LN6
	DD	imagerel $LN6+332
	DD	imagerel $unwind$??$_Reallocate_for@V<lambda_66f57f934f28d61049862f64df852ff0>@@PEBD@?$basic_string@DU?$char_traits@D@std@@V?$allocator@D@2@@std@@AEAAAEAV01@_KV<lambda_66f57f934f28d61049862f64df852ff0>@@PEBD@Z
pdata	ENDS
;	COMDAT pdata
pdata	SEGMENT
$pdata$??$_Construct_in_place@PEADAEBQEAD@std@@YAXAEAPEADAEBQEAD@Z DD imagerel $LN3
	DD	imagerel $LN3+78
	DD	imagerel $unwind$??$_Construct_in_place@PEADAEBQEAD@std@@YAXAEAPEADAEBQEAD@Z
pdata	ENDS
;	COMDAT pdata
pdata	SEGMENT
$pdata$??$_Unfancy@D@std@@YAPEADPEAD@Z DD imagerel $LN3
	DD	imagerel $LN3+13
	DD	imagerel $unwind$??$_Unfancy@D@std@@YAPEADPEAD@Z
pdata	ENDS
;	COMDAT pdata
pdata	SEGMENT
$pdata$??$_Construct_in_place@PEADAEAPEAD@std@@YAXAEAPEAD0@Z DD imagerel $LN3
	DD	imagerel $LN3+78
	DD	imagerel $unwind$??$_Construct_in_place@PEADAEAPEAD@std@@YAXAEAPEAD0@Z
pdata	ENDS
;	COMDAT pdata
pdata	SEGMENT
$pdata$??$max@_K@std@@YAAEB_KAEB_K0@Z DD imagerel $LN5
	DD	imagerel $LN5+74
	DD	imagerel $unwind$??$max@_K@std@@YAAEB_KAEB_K0@Z
pdata	ENDS
;	COMDAT pdata
pdata	SEGMENT
$pdata$??$_Get_size_of_n@$0BA@@std@@YA_K_K@Z DD imagerel $LN4
	DD	imagerel $LN4+64
	DD	imagerel $unwind$??$_Get_size_of_n@$0BA@@std@@YA_K_K@Z
pdata	ENDS
;	COMDAT pdata
pdata	SEGMENT
$pdata$??$_Allocate@$0BA@U_Default_allocate_traits@std@@$0A@@std@@YAPEAX_K@Z DD imagerel $LN5
	DD	imagerel $LN5+61
	DD	imagerel $unwind$??$_Allocate@$0BA@U_Default_allocate_traits@std@@$0A@@std@@YAPEAX_K@Z
pdata	ENDS
;	COMDAT pdata
pdata	SEGMENT
$pdata$??$_Deallocate@$0BA@$0A@@std@@YAXPEAX_K@Z DD imagerel $LN4
	DD	imagerel $LN4+63
	DD	imagerel $unwind$??$_Deallocate@$0BA@$0A@@std@@YAXPEAX_K@Z
pdata	ENDS
;	COMDAT pdata
pdata	SEGMENT
$pdata$?pointer_to@?$pointer_traits@PEA_W@std@@SAPEA_WAEA_W@Z DD imagerel $LN3
	DD	imagerel $LN3+26
	DD	imagerel $unwind$?pointer_to@?$pointer_traits@PEA_W@std@@SAPEA_WAEA_W@Z
pdata	ENDS
;	COMDAT pdata
pdata	SEGMENT
$pdata$??$addressof@V?$_String_val@U?$_Simple_types@_W@std@@@std@@@std@@YAPEAV?$_String_val@U?$_Simple_types@_W@std@@@0@AEAV10@@Z DD imagerel $LN3
	DD	imagerel $LN3+13
	DD	imagerel $unwind$??$addressof@V?$_String_val@U?$_Simple_types@_W@std@@@std@@@std@@YAPEAV?$_String_val@U?$_Simple_types@_W@std@@@0@AEAV10@@Z
pdata	ENDS
;	COMDAT pdata
pdata	SEGMENT
$pdata$??$_Construct_in_place@PEA_WAEBQEA_W@std@@YAXAEAPEA_WAEBQEA_W@Z DD imagerel $LN3
	DD	imagerel $LN3+78
	DD	imagerel $unwind$??$_Construct_in_place@PEA_WAEBQEA_W@std@@YAXAEAPEA_WAEBQEA_W@Z
pdata	ENDS
;	COMDAT pdata
pdata	SEGMENT
$pdata$??$addressof@$$CBV?$_String_val@U?$_Simple_types@_W@std@@@std@@@std@@YAPEBV?$_String_val@U?$_Simple_types@_W@std@@@0@AEBV10@@Z DD imagerel $LN3
	DD	imagerel $LN3+13
	DD	imagerel $unwind$??$addressof@$$CBV?$_String_val@U?$_Simple_types@_W@std@@@std@@@std@@YAPEBV?$_String_val@U?$_Simple_types@_W@std@@@0@AEBV10@@Z
pdata	ENDS
;	COMDAT pdata
pdata	SEGMENT
$pdata$?pointer_to@?$pointer_traits@PEAD@std@@SAPEADAEAD@Z DD imagerel $LN3
	DD	imagerel $LN3+26
	DD	imagerel $unwind$?pointer_to@?$pointer_traits@PEAD@std@@SAPEADAEAD@Z
pdata	ENDS
;	COMDAT pdata
pdata	SEGMENT
$pdata$??$addressof@V?$_String_val@U?$_Simple_types@D@std@@@std@@@std@@YAPEAV?$_String_val@U?$_Simple_types@D@std@@@0@AEAV10@@Z DD imagerel $LN3
	DD	imagerel $LN3+13
	DD	imagerel $unwind$??$addressof@V?$_String_val@U?$_Simple_types@D@std@@@std@@@std@@YAPEAV?$_String_val@U?$_Simple_types@D@std@@@0@AEAV10@@Z
pdata	ENDS
;	COMDAT pdata
pdata	SEGMENT
$pdata$??$addressof@$$CBV?$_String_val@U?$_Simple_types@D@std@@@std@@@std@@YAPEBV?$_String_val@U?$_Simple_types@D@std@@@0@AEBV10@@Z DD imagerel $LN3
	DD	imagerel $LN3+13
	DD	imagerel $unwind$??$addressof@$$CBV?$_String_val@U?$_Simple_types@D@std@@@std@@@std@@YAPEBV?$_String_val@U?$_Simple_types@D@std@@@0@AEBV10@@Z
pdata	ENDS
;	COMDAT pdata
pdata	SEGMENT
$pdata$??$_Get_size_of_n@$00@std@@YA_K_K@Z DD imagerel $LN3
	DD	imagerel $LN3+25
	DD	imagerel $unwind$??$_Get_size_of_n@$00@std@@YA_K_K@Z
pdata	ENDS
;	COMDAT pdata
pdata	SEGMENT
$pdata$??$_Get_size_of_n@$01@std@@YA_K_K@Z DD imagerel $LN4
	DD	imagerel $LN4+66
	DD	imagerel $unwind$??$_Get_size_of_n@$01@std@@YA_K_K@Z
pdata	ENDS
;	COMDAT pdata
pdata	SEGMENT
$pdata$??R?$default_delete@V_Facet_base@std@@@std@@QEBAXPEAV_Facet_base@1@@Z DD imagerel $LN5
	DD	imagerel $LN5+75
	DD	imagerel $unwind$??R?$default_delete@V_Facet_base@std@@@std@@QEBAXPEAV_Facet_base@1@@Z
pdata	ENDS
;	COMDAT pdata
pdata	SEGMENT
$pdata$??1?$unique_ptr@V_Facet_base@std@@U?$default_delete@V_Facet_base@std@@@2@@std@@QEAA@XZ DD imagerel $LN4
	DD	imagerel $LN4+56
	DD	imagerel $unwind$??1?$unique_ptr@V_Facet_base@std@@U?$default_delete@V_Facet_base@std@@@2@@std@@QEAA@XZ
pdata	ENDS
;	COMDAT pdata
pdata	SEGMENT
$pdata$?release@?$unique_ptr@V_Facet_base@std@@U?$default_delete@V_Facet_base@std@@@2@@std@@QEAAPEAV_Facet_base@2@XZ DD imagerel $LN3
	DD	imagerel $LN3+43
	DD	imagerel $unwind$?release@?$unique_ptr@V_Facet_base@std@@U?$default_delete@V_Facet_base@std@@@2@@std@@QEAAPEAV_Facet_base@2@XZ
pdata	ENDS
;	COMDAT pdata
pdata	SEGMENT
$pdata$?_Get_first@?$_Compressed_pair@U?$default_delete@V_Facet_base@std@@@std@@PEAV_Facet_base@2@$00@std@@QEAAAEAU?$default_delete@V_Facet_base@std@@@2@XZ DD imagerel $LN3
	DD	imagerel $LN3+13
	DD	imagerel $unwind$?_Get_first@?$_Compressed_pair@U?$default_delete@V_Facet_base@std@@@std@@PEAV_Facet_base@2@$00@std@@QEAAAEAU?$default_delete@V_Facet_base@std@@@2@XZ
pdata	ENDS
;	COMDAT pdata
pdata	SEGMENT
$pdata$??$?0U?$default_delete@V_Facet_base@std@@@std@@$0A@@?$unique_ptr@V_Facet_base@std@@U?$default_delete@V_Facet_base@std@@@2@@std@@QEAA@PEAV_Facet_base@1@@Z DD imagerel $LN3
	DD	imagerel $LN3+49
	DD	imagerel $unwind$??$?0U?$default_delete@V_Facet_base@std@@@std@@$0A@@?$unique_ptr@V_Facet_base@std@@U?$default_delete@V_Facet_base@std@@@2@@std@@QEAA@PEAV_Facet_base@1@@Z
pdata	ENDS
;	COMDAT pdata
pdata	SEGMENT
$pdata$??$_Maklocstr@D@std@@YAPEADPEBDPEADAEBU_Cvtvec@@@Z DD imagerel $LN7
	DD	imagerel $LN7+180
	DD	imagerel $unwind$??$_Maklocstr@D@std@@YAPEADPEBDPEADAEBU_Cvtvec@@@Z
pdata	ENDS
;	COMDAT pdata
pdata	SEGMENT
$pdata$??$?6U?$char_traits@D@std@@@std@@YAAEAV?$basic_ostream@DU?$char_traits@D@std@@@0@AEAV10@D@Z DD imagerel $LN23
	DD	imagerel $LN23+992
	DD	imagerel $unwind$??$?6U?$char_traits@D@std@@@std@@YAAEAV?$basic_ostream@DU?$char_traits@D@std@@@0@AEAV10@D@Z
pdata	ENDS
;	COMDAT pdata
pdata	SEGMENT
$pdata$?dtor$0@?0???$?6U?$char_traits@D@std@@@std@@YAAEAV?$basic_ostream@DU?$char_traits@D@std@@@0@AEAV10@D@Z@4HA DD imagerel ?dtor$0@?0???$?6U?$char_traits@D@std@@@std@@YAAEAV?$basic_ostream@DU?$char_traits@D@std@@@0@AEAV10@D@Z@4HA
	DD	imagerel ?dtor$0@?0???$?6U?$char_traits@D@std@@@std@@YAAEAV?$basic_ostream@DU?$char_traits@D@std@@@0@AEAV10@D@Z@4HA+35
	DD	imagerel $unwind$?dtor$0@?0???$?6U?$char_traits@D@std@@@std@@YAAEAV?$basic_ostream@DU?$char_traits@D@std@@@0@AEAV10@D@Z@4HA
pdata	ENDS
;	COMDAT pdata
pdata	SEGMENT
$pdata$?catch$1@?0???$?6U?$char_traits@D@std@@@std@@YAAEAV?$basic_ostream@DU?$char_traits@D@std@@@0@AEAV10@D@Z@4HA DD imagerel ?catch$1@?0???$?6U?$char_traits@D@std@@@std@@YAAEAV?$basic_ostream@DU?$char_traits@D@std@@@0@AEAV10@D@Z@4HA
	DD	imagerel ?catch$1@?0???$?6U?$char_traits@D@std@@@std@@YAAEAV?$basic_ostream@DU?$char_traits@D@std@@@0@AEAV10@D@Z@4HA+79
	DD	imagerel $unwind$?catch$1@?0???$?6U?$char_traits@D@std@@@std@@YAAEAV?$basic_ostream@DU?$char_traits@D@std@@@0@AEAV10@D@Z@4HA
pdata	ENDS
;	COMDAT pdata
pdata	SEGMENT
$pdata$??$?6U?$char_traits@D@std@@@std@@YAAEAV?$basic_ostream@DU?$char_traits@D@std@@@0@AEAV10@PEBD@Z DD imagerel $LN25
	DD	imagerel $LN25+1038
	DD	imagerel $unwind$??$?6U?$char_traits@D@std@@@std@@YAAEAV?$basic_ostream@DU?$char_traits@D@std@@@0@AEAV10@PEBD@Z
pdata	ENDS
;	COMDAT pdata
pdata	SEGMENT
$pdata$?dtor$0@?0???$?6U?$char_traits@D@std@@@std@@YAAEAV?$basic_ostream@DU?$char_traits@D@std@@@0@AEAV10@PEBD@Z@4HA DD imagerel ?dtor$0@?0???$?6U?$char_traits@D@std@@@std@@YAAEAV?$basic_ostream@DU?$char_traits@D@std@@@0@AEAV10@PEBD@Z@4HA
	DD	imagerel ?dtor$0@?0???$?6U?$char_traits@D@std@@@std@@YAAEAV?$basic_ostream@DU?$char_traits@D@std@@@0@AEAV10@PEBD@Z@4HA+35
	DD	imagerel $unwind$?dtor$0@?0???$?6U?$char_traits@D@std@@@std@@YAAEAV?$basic_ostream@DU?$char_traits@D@std@@@0@AEAV10@PEBD@Z@4HA
pdata	ENDS
;	COMDAT pdata
pdata	SEGMENT
$pdata$?catch$1@?0???$?6U?$char_traits@D@std@@@std@@YAAEAV?$basic_ostream@DU?$char_traits@D@std@@@0@AEAV10@PEBD@Z@4HA DD imagerel ?catch$1@?0???$?6U?$char_traits@D@std@@@std@@YAAEAV?$basic_ostream@DU?$char_traits@D@std@@@0@AEAV10@PEBD@Z@4HA
	DD	imagerel ?catch$1@?0???$?6U?$char_traits@D@std@@@std@@YAAEAV?$basic_ostream@DU?$char_traits@D@std@@@0@AEAV10@PEBD@Z@4HA+79
	DD	imagerel $unwind$?catch$1@?0???$?6U?$char_traits@D@std@@@std@@YAAEAV?$basic_ostream@DU?$char_traits@D@std@@@0@AEAV10@PEBD@Z@4HA
pdata	ENDS
;	COMDAT pdata
pdata	SEGMENT
$pdata$?length@?$tquat@M$0A@@glm@@SAHXZ DD imagerel $LN3
	DD	imagerel $LN3+9
	DD	imagerel $unwind$?length@?$tquat@M$0A@@glm@@SAHXZ
pdata	ENDS
;	COMDAT pdata
pdata	SEGMENT
$pdata$??A?$tquat@M$0A@@glm@@QEBAAEBMH@Z DD imagerel $LN5
	DD	imagerel $LN5+80
	DD	imagerel $unwind$??A?$tquat@M$0A@@glm@@QEBAAEBMH@Z
pdata	ENDS
;	COMDAT pdata
pdata	SEGMENT
$pdata$??0?$tquat@M$0A@@glm@@QEAA@AEBM000@Z DD imagerel $LN3
	DD	imagerel $LN3+103
	DD	imagerel $unwind$??0?$tquat@M$0A@@glm@@QEAA@AEBM000@Z
pdata	ENDS
;	COMDAT pdata
pdata	SEGMENT
$pdata$??0?$basic_format_saver@DU?$char_traits@D@std@@@io@glm@@QEAA@AEAV?$basic_ios@DU?$char_traits@D@std@@@std@@@Z DD imagerel $LN10
	DD	imagerel $LN10+268
	DD	imagerel $unwind$??0?$basic_format_saver@DU?$char_traits@D@std@@@io@glm@@QEAA@AEAV?$basic_ios@DU?$char_traits@D@std@@@std@@@Z
pdata	ENDS
;	COMDAT pdata
pdata	SEGMENT
$pdata$?dtor$0@?0???0?$basic_format_saver@DU?$char_traits@D@std@@@io@glm@@QEAA@AEAV?$basic_ios@DU?$char_traits@D@std@@@std@@@Z@4HA DD imagerel ?dtor$0@?0???0?$basic_format_saver@DU?$char_traits@D@std@@@io@glm@@QEAA@AEAV?$basic_ios@DU?$char_traits@D@std@@@std@@@Z@4HA
	DD	imagerel ?dtor$0@?0???0?$basic_format_saver@DU?$char_traits@D@std@@@io@glm@@QEAA@AEAV?$basic_ios@DU?$char_traits@D@std@@@std@@@Z@4HA+38
	DD	imagerel $unwind$?dtor$0@?0???0?$basic_format_saver@DU?$char_traits@D@std@@@io@glm@@QEAA@AEAV?$basic_ios@DU?$char_traits@D@std@@@std@@@Z@4HA
pdata	ENDS
;	COMDAT pdata
pdata	SEGMENT
$pdata$?dtor$1@?0???0?$basic_format_saver@DU?$char_traits@D@std@@@io@glm@@QEAA@AEAV?$basic_ios@DU?$char_traits@D@std@@@std@@@Z@4HA DD imagerel ?dtor$1@?0???0?$basic_format_saver@DU?$char_traits@D@std@@@io@glm@@QEAA@AEAV?$basic_ios@DU?$char_traits@D@std@@@std@@@Z@4HA
	DD	imagerel ?dtor$1@?0???0?$basic_format_saver@DU?$char_traits@D@std@@@io@glm@@QEAA@AEAV?$basic_ios@DU?$char_traits@D@std@@@std@@@Z@4HA+36
	DD	imagerel $unwind$?dtor$1@?0???0?$basic_format_saver@DU?$char_traits@D@std@@@io@glm@@QEAA@AEAV?$basic_ios@DU?$char_traits@D@std@@@std@@@Z@4HA
pdata	ENDS
;	COMDAT pdata
pdata	SEGMENT
$pdata$?dtor$2@?0???0?$basic_format_saver@DU?$char_traits@D@std@@@io@glm@@QEAA@AEAV?$basic_ios@DU?$char_traits@D@std@@@std@@@Z@4HA DD imagerel ?dtor$2@?0???0?$basic_format_saver@DU?$char_traits@D@std@@@io@glm@@QEAA@AEAV?$basic_ios@DU?$char_traits@D@std@@@std@@@Z@4HA
	DD	imagerel ?dtor$2@?0???0?$basic_format_saver@DU?$char_traits@D@std@@@io@glm@@QEAA@AEAV?$basic_ios@DU?$char_traits@D@std@@@std@@@Z@4HA+35
	DD	imagerel $unwind$?dtor$2@?0???0?$basic_format_saver@DU?$char_traits@D@std@@@io@glm@@QEAA@AEAV?$basic_ios@DU?$char_traits@D@std@@@std@@@Z@4HA
pdata	ENDS
;	COMDAT pdata
pdata	SEGMENT
$pdata$?dtor$3@?0???0?$basic_format_saver@DU?$char_traits@D@std@@@io@glm@@QEAA@AEAV?$basic_ios@DU?$char_traits@D@std@@@std@@@Z@4HA DD imagerel ?dtor$3@?0???0?$basic_format_saver@DU?$char_traits@D@std@@@io@glm@@QEAA@AEAV?$basic_ios@DU?$char_traits@D@std@@@std@@@Z@4HA
	DD	imagerel ?dtor$3@?0???0?$basic_format_saver@DU?$char_traits@D@std@@@io@glm@@QEAA@AEAV?$basic_ios@DU?$char_traits@D@std@@@std@@@Z@4HA+35
	DD	imagerel $unwind$?dtor$3@?0???0?$basic_format_saver@DU?$char_traits@D@std@@@io@glm@@QEAA@AEAV?$basic_ios@DU?$char_traits@D@std@@@std@@@Z@4HA
pdata	ENDS
;	COMDAT pdata
pdata	SEGMENT
$pdata$??1?$basic_format_saver@DU?$char_traits@D@std@@@io@glm@@QEAA@XZ DD imagerel $LN3
	DD	imagerel $LN3+29
	DD	imagerel $unwind$??1?$basic_format_saver@DU?$char_traits@D@std@@@io@glm@@QEAA@XZ
pdata	ENDS
;	COMDAT pdata
pdata	SEGMENT
$pdata$??0?$basic_state_saver@DU?$char_traits@D@std@@@io@glm@@QEAA@AEAV?$basic_ios@DU?$char_traits@D@std@@@std@@@Z DD imagerel $LN4
	DD	imagerel $LN4+140
	DD	imagerel $unwind$??0?$basic_state_saver@DU?$char_traits@D@std@@@io@glm@@QEAA@AEAV?$basic_ios@DU?$char_traits@D@std@@@std@@@Z
pdata	ENDS
;	COMDAT pdata
pdata	SEGMENT
$pdata$??1?$basic_state_saver@DU?$char_traits@D@std@@@io@glm@@QEAA@XZ DD imagerel $LN3
	DD	imagerel $LN3+166
	DD	imagerel $unwind$??1?$basic_state_saver@DU?$char_traits@D@std@@@io@glm@@QEAA@XZ
pdata	ENDS
;	COMDAT pdata
pdata	SEGMENT
$pdata$??$?6DU?$char_traits@D@std@@@io@glm@@YAAEAV?$basic_ostream@DU?$char_traits@D@std@@@std@@AEAV23@AEBUprecision@01@@Z DD imagerel $LN3
	DD	imagerel $LN3+67
	DD	imagerel $unwind$??$?6DU?$char_traits@D@std@@@io@glm@@YAAEAV?$basic_ostream@DU?$char_traits@D@std@@@std@@AEAV23@AEBUprecision@01@@Z
pdata	ENDS
;	COMDAT pdata
pdata	SEGMENT
$pdata$??$?6DU?$char_traits@D@std@@@io@glm@@YAAEAV?$basic_ostream@DU?$char_traits@D@std@@@std@@AEAV23@AEBUwidth@01@@Z DD imagerel $LN3
	DD	imagerel $LN3+67
	DD	imagerel $unwind$??$?6DU?$char_traits@D@std@@@io@glm@@YAAEAV?$basic_ostream@DU?$char_traits@D@std@@@std@@AEAV23@AEBUwidth@01@@Z
pdata	ENDS
;	COMDAT pdata
pdata	SEGMENT
$pdata$??$type_name@M$0A@U?$tquat@M$0A@@glm@@DU?$char_traits@D@std@@@?A0x3bf44740@@YA?AV?$basic_string@DU?$char_traits@D@std@@V?$allocator@D@2@@std@@AEAV?$basic_ostream@DU?$char_traits@D@std@@@2@AEBU?$tquat@M$0A@@glm@@@Z DD imagerel ??$type_name@M$0A@U?$tquat@M$0A@@glm@@DU?$char_traits@D@std@@@?A0x3bf44740@@YA?AV?$basic_string@DU?$char_traits@D@std@@V?$allocator@D@2@@std@@AEAV?$basic_ostream@DU?$char_traits@D@std@@@2@AEBU?$tquat@M$0A@@glm@@@Z
	DD	imagerel ??$type_name@M$0A@U?$tquat@M$0A@@glm@@DU?$char_traits@D@std@@@?A0x3bf44740@@YA?AV?$basic_string@DU?$char_traits@D@std@@V?$allocator@D@2@@std@@AEAV?$basic_ostream@DU?$char_traits@D@std@@@2@AEBU?$tquat@M$0A@@glm@@@Z+888
	DD	imagerel $unwind$??$type_name@M$0A@U?$tquat@M$0A@@glm@@DU?$char_traits@D@std@@@?A0x3bf44740@@YA?AV?$basic_string@DU?$char_traits@D@std@@V?$allocator@D@2@@std@@AEAV?$basic_ostream@DU?$char_traits@D@std@@@2@AEBU?$tquat@M$0A@@glm@@@Z
pdata	ENDS
;	COMDAT pdata
pdata	SEGMENT
$pdata$?dtor$0@?0???$type_name@M$0A@U?$tquat@M$0A@@glm@@DU?$char_traits@D@std@@@?A0x3bf44740@@YA?AV?$basic_string@DU?$char_traits@D@std@@V?$allocator@D@2@@std@@AEAV?$basic_ostream@DU?$char_traits@D@std@@@2@AEBU?$tquat@M$0A@@glm@@@Z@4HA DD imagerel ?dtor$0@?0???$type_name@M$0A@U?$tquat@M$0A@@glm@@DU?$char_traits@D@std@@@?A0x3bf44740@@YA?AV?$basic_string@DU?$char_traits@D@std@@V?$allocator@D@2@@std@@AEAV?$basic_ostream@DU?$char_traits@D@std@@@2@AEBU?$tquat@M$0A@@glm@@@Z@4HA
	DD	imagerel ?dtor$0@?0???$type_name@M$0A@U?$tquat@M$0A@@glm@@DU?$char_traits@D@std@@@?A0x3bf44740@@YA?AV?$basic_string@DU?$char_traits@D@std@@V?$allocator@D@2@@std@@AEAV?$basic_ostream@DU?$char_traits@D@std@@@2@AEBU?$tquat@M$0A@@glm@@@Z@4HA+35
	DD	imagerel $unwind$?dtor$0@?0???$type_name@M$0A@U?$tquat@M$0A@@glm@@DU?$char_traits@D@std@@@?A0x3bf44740@@YA?AV?$basic_string@DU?$char_traits@D@std@@V?$allocator@D@2@@std@@AEAV?$basic_ostream@DU?$char_traits@D@std@@@2@AEBU?$tquat@M$0A@@glm@@@Z@4HA
pdata	ENDS
;	COMDAT pdata
pdata	SEGMENT
$pdata$??$?6DU?$char_traits@D@std@@V?$allocator@D@1@@std@@YAAEAV?$basic_ostream@DU?$char_traits@D@std@@@0@AEAV10@AEBV?$basic_string@DU?$char_traits@D@std@@V?$allocator@D@2@@0@@Z DD imagerel $LN3
	DD	imagerel $LN3+67
	DD	imagerel $unwind$??$?6DU?$char_traits@D@std@@V?$allocator@D@1@@std@@YAAEAV?$basic_ostream@DU?$char_traits@D@std@@@0@AEAV10@AEBV?$basic_string@DU?$char_traits@D@std@@V?$allocator@D@2@@0@@Z
pdata	ENDS
;	COMDAT pdata
pdata	SEGMENT
$pdata$??$?6DU?$char_traits@D@std@@M$0A@@glm@@YAAEAV?$basic_ostream@DU?$char_traits@D@std@@@std@@AEAV12@AEBU?$tquat@M$0A@@0@@Z DD imagerel $LN3
	DD	imagerel $LN3+36
	DD	imagerel $unwind$??$?6DU?$char_traits@D@std@@M$0A@@glm@@YAAEAV?$basic_ostream@DU?$char_traits@D@std@@@std@@AEAV12@AEBU?$tquat@M$0A@@0@@Z
pdata	ENDS
;	COMDAT pdata
pdata	SEGMENT
$pdata$??$unformatted@DU?$char_traits@D@std@@@io@glm@@YAAEAV?$basic_ios@DU?$char_traits@D@std@@@std@@AEAV23@@Z DD imagerel $LN3
	DD	imagerel $LN3+35
	DD	imagerel $unwind$??$unformatted@DU?$char_traits@D@std@@@io@glm@@YAAEAV?$basic_ios@DU?$char_traits@D@std@@@std@@AEAV23@@Z
pdata	ENDS
;	COMDAT pdata
pdata	SEGMENT
$pdata$??$?6_WU?$char_traits@_W@std@@@std@@YAAEAV?$basic_ostream@_WU?$char_traits@_W@std@@@0@AEAV10@D@Z DD imagerel $LN24
	DD	imagerel $LN24+1146
	DD	imagerel $unwind$??$?6_WU?$char_traits@_W@std@@@std@@YAAEAV?$basic_ostream@_WU?$char_traits@_W@std@@@0@AEAV10@D@Z
pdata	ENDS
;	COMDAT pdata
pdata	SEGMENT
$pdata$?dtor$0@?0???$?6_WU?$char_traits@_W@std@@@std@@YAAEAV?$basic_ostream@_WU?$char_traits@_W@std@@@0@AEAV10@D@Z@4HA DD imagerel ?dtor$0@?0???$?6_WU?$char_traits@_W@std@@@std@@YAAEAV?$basic_ostream@_WU?$char_traits@_W@std@@@0@AEAV10@D@Z@4HA
	DD	imagerel ?dtor$0@?0???$?6_WU?$char_traits@_W@std@@@std@@YAAEAV?$basic_ostream@_WU?$char_traits@_W@std@@@0@AEAV10@D@Z@4HA+35
	DD	imagerel $unwind$?dtor$0@?0???$?6_WU?$char_traits@_W@std@@@std@@YAAEAV?$basic_ostream@_WU?$char_traits@_W@std@@@0@AEAV10@D@Z@4HA
pdata	ENDS
;	COMDAT pdata
pdata	SEGMENT
$pdata$?dtor$1@?0???$?6_WU?$char_traits@_W@std@@@std@@YAAEAV?$basic_ostream@_WU?$char_traits@_W@std@@@0@AEAV10@D@Z@4HA DD imagerel ?dtor$1@?0???$?6_WU?$char_traits@_W@std@@@std@@YAAEAV?$basic_ostream@_WU?$char_traits@_W@std@@@0@AEAV10@D@Z@4HA
	DD	imagerel ?dtor$1@?0???$?6_WU?$char_traits@_W@std@@@std@@YAAEAV?$basic_ostream@_WU?$char_traits@_W@std@@@0@AEAV10@D@Z@4HA+35
	DD	imagerel $unwind$?dtor$1@?0???$?6_WU?$char_traits@_W@std@@@std@@YAAEAV?$basic_ostream@_WU?$char_traits@_W@std@@@0@AEAV10@D@Z@4HA
pdata	ENDS
;	COMDAT pdata
pdata	SEGMENT
$pdata$?catch$2@?0???$?6_WU?$char_traits@_W@std@@@std@@YAAEAV?$basic_ostream@_WU?$char_traits@_W@std@@@0@AEAV10@D@Z@4HA DD imagerel ?catch$2@?0???$?6_WU?$char_traits@_W@std@@@std@@YAAEAV?$basic_ostream@_WU?$char_traits@_W@std@@@0@AEAV10@D@Z@4HA
	DD	imagerel ?catch$2@?0???$?6_WU?$char_traits@_W@std@@@std@@YAAEAV?$basic_ostream@_WU?$char_traits@_W@std@@@0@AEAV10@D@Z@4HA+79
	DD	imagerel $unwind$?catch$2@?0???$?6_WU?$char_traits@_W@std@@@std@@YAAEAV?$basic_ostream@_WU?$char_traits@_W@std@@@0@AEAV10@D@Z@4HA
pdata	ENDS
;	COMDAT pdata
pdata	SEGMENT
$pdata$??$?6_WU?$char_traits@_W@std@@@std@@YAAEAV?$basic_ostream@_WU?$char_traits@_W@std@@@0@AEAV10@PEBD@Z DD imagerel $LN29
	DD	imagerel $LN29+1311
	DD	imagerel $unwind$??$?6_WU?$char_traits@_W@std@@@std@@YAAEAV?$basic_ostream@_WU?$char_traits@_W@std@@@0@AEAV10@PEBD@Z
pdata	ENDS
;	COMDAT pdata
pdata	SEGMENT
$pdata$?dtor$0@?0???$?6_WU?$char_traits@_W@std@@@std@@YAAEAV?$basic_ostream@_WU?$char_traits@_W@std@@@0@AEAV10@PEBD@Z@4HA DD imagerel ?dtor$0@?0???$?6_WU?$char_traits@_W@std@@@std@@YAAEAV?$basic_ostream@_WU?$char_traits@_W@std@@@0@AEAV10@PEBD@Z@4HA
	DD	imagerel ?dtor$0@?0???$?6_WU?$char_traits@_W@std@@@std@@YAAEAV?$basic_ostream@_WU?$char_traits@_W@std@@@0@AEAV10@PEBD@Z@4HA+35
	DD	imagerel $unwind$?dtor$0@?0???$?6_WU?$char_traits@_W@std@@@std@@YAAEAV?$basic_ostream@_WU?$char_traits@_W@std@@@0@AEAV10@PEBD@Z@4HA
pdata	ENDS
;	COMDAT pdata
pdata	SEGMENT
$pdata$?dtor$1@?0???$?6_WU?$char_traits@_W@std@@@std@@YAAEAV?$basic_ostream@_WU?$char_traits@_W@std@@@0@AEAV10@PEBD@Z@4HA DD imagerel ?dtor$1@?0???$?6_WU?$char_traits@_W@std@@@std@@YAAEAV?$basic_ostream@_WU?$char_traits@_W@std@@@0@AEAV10@PEBD@Z@4HA
	DD	imagerel ?dtor$1@?0???$?6_WU?$char_traits@_W@std@@@std@@YAAEAV?$basic_ostream@_WU?$char_traits@_W@std@@@0@AEAV10@PEBD@Z@4HA+35
	DD	imagerel $unwind$?dtor$1@?0???$?6_WU?$char_traits@_W@std@@@std@@YAAEAV?$basic_ostream@_WU?$char_traits@_W@std@@@0@AEAV10@PEBD@Z@4HA
pdata	ENDS
;	COMDAT pdata
pdata	SEGMENT
$pdata$?catch$2@?0???$?6_WU?$char_traits@_W@std@@@std@@YAAEAV?$basic_ostream@_WU?$char_traits@_W@std@@@0@AEAV10@PEBD@Z@4HA DD imagerel ?catch$2@?0???$?6_WU?$char_traits@_W@std@@@std@@YAAEAV?$basic_ostream@_WU?$char_traits@_W@std@@@0@AEAV10@PEBD@Z@4HA
	DD	imagerel ?catch$2@?0???$?6_WU?$char_traits@_W@std@@@std@@YAAEAV?$basic_ostream@_WU?$char_traits@_W@std@@@0@AEAV10@PEBD@Z@4HA+79
	DD	imagerel $unwind$?catch$2@?0???$?6_WU?$char_traits@_W@std@@@std@@YAAEAV?$basic_ostream@_WU?$char_traits@_W@std@@@0@AEAV10@PEBD@Z@4HA
pdata	ENDS
;	COMDAT pdata
pdata	SEGMENT
$pdata$??0?$basic_format_saver@_WU?$char_traits@_W@std@@@io@glm@@QEAA@AEAV?$basic_ios@_WU?$char_traits@_W@std@@@std@@@Z DD imagerel $LN10
	DD	imagerel $LN10+268
	DD	imagerel $unwind$??0?$basic_format_saver@_WU?$char_traits@_W@std@@@io@glm@@QEAA@AEAV?$basic_ios@_WU?$char_traits@_W@std@@@std@@@Z
pdata	ENDS
;	COMDAT pdata
pdata	SEGMENT
$pdata$?dtor$0@?0???0?$basic_format_saver@_WU?$char_traits@_W@std@@@io@glm@@QEAA@AEAV?$basic_ios@_WU?$char_traits@_W@std@@@std@@@Z@4HA DD imagerel ?dtor$0@?0???0?$basic_format_saver@_WU?$char_traits@_W@std@@@io@glm@@QEAA@AEAV?$basic_ios@_WU?$char_traits@_W@std@@@std@@@Z@4HA
	DD	imagerel ?dtor$0@?0???0?$basic_format_saver@_WU?$char_traits@_W@std@@@io@glm@@QEAA@AEAV?$basic_ios@_WU?$char_traits@_W@std@@@std@@@Z@4HA+38
	DD	imagerel $unwind$?dtor$0@?0???0?$basic_format_saver@_WU?$char_traits@_W@std@@@io@glm@@QEAA@AEAV?$basic_ios@_WU?$char_traits@_W@std@@@std@@@Z@4HA
pdata	ENDS
;	COMDAT pdata
pdata	SEGMENT
$pdata$?dtor$1@?0???0?$basic_format_saver@_WU?$char_traits@_W@std@@@io@glm@@QEAA@AEAV?$basic_ios@_WU?$char_traits@_W@std@@@std@@@Z@4HA DD imagerel ?dtor$1@?0???0?$basic_format_saver@_WU?$char_traits@_W@std@@@io@glm@@QEAA@AEAV?$basic_ios@_WU?$char_traits@_W@std@@@std@@@Z@4HA
	DD	imagerel ?dtor$1@?0???0?$basic_format_saver@_WU?$char_traits@_W@std@@@io@glm@@QEAA@AEAV?$basic_ios@_WU?$char_traits@_W@std@@@std@@@Z@4HA+36
	DD	imagerel $unwind$?dtor$1@?0???0?$basic_format_saver@_WU?$char_traits@_W@std@@@io@glm@@QEAA@AEAV?$basic_ios@_WU?$char_traits@_W@std@@@std@@@Z@4HA
pdata	ENDS
;	COMDAT pdata
pdata	SEGMENT
$pdata$?dtor$2@?0???0?$basic_format_saver@_WU?$char_traits@_W@std@@@io@glm@@QEAA@AEAV?$basic_ios@_WU?$char_traits@_W@std@@@std@@@Z@4HA DD imagerel ?dtor$2@?0???0?$basic_format_saver@_WU?$char_traits@_W@std@@@io@glm@@QEAA@AEAV?$basic_ios@_WU?$char_traits@_W@std@@@std@@@Z@4HA
	DD	imagerel ?dtor$2@?0???0?$basic_format_saver@_WU?$char_traits@_W@std@@@io@glm@@QEAA@AEAV?$basic_ios@_WU?$char_traits@_W@std@@@std@@@Z@4HA+35
	DD	imagerel $unwind$?dtor$2@?0???0?$basic_format_saver@_WU?$char_traits@_W@std@@@io@glm@@QEAA@AEAV?$basic_ios@_WU?$char_traits@_W@std@@@std@@@Z@4HA
pdata	ENDS
;	COMDAT pdata
pdata	SEGMENT
$pdata$?dtor$3@?0???0?$basic_format_saver@_WU?$char_traits@_W@std@@@io@glm@@QEAA@AEAV?$basic_ios@_WU?$char_traits@_W@std@@@std@@@Z@4HA DD imagerel ?dtor$3@?0???0?$basic_format_saver@_WU?$char_traits@_W@std@@@io@glm@@QEAA@AEAV?$basic_ios@_WU?$char_traits@_W@std@@@std@@@Z@4HA
	DD	imagerel ?dtor$3@?0???0?$basic_format_saver@_WU?$char_traits@_W@std@@@io@glm@@QEAA@AEAV?$basic_ios@_WU?$char_traits@_W@std@@@std@@@Z@4HA+35
	DD	imagerel $unwind$?dtor$3@?0???0?$basic_format_saver@_WU?$char_traits@_W@std@@@io@glm@@QEAA@AEAV?$basic_ios@_WU?$char_traits@_W@std@@@std@@@Z@4HA
pdata	ENDS
;	COMDAT pdata
pdata	SEGMENT
$pdata$??1?$basic_format_saver@_WU?$char_traits@_W@std@@@io@glm@@QEAA@XZ DD imagerel $LN3
	DD	imagerel $LN3+29
	DD	imagerel $unwind$??1?$basic_format_saver@_WU?$char_traits@_W@std@@@io@glm@@QEAA@XZ
pdata	ENDS
;	COMDAT pdata
pdata	SEGMENT
$pdata$??0?$basic_state_saver@_WU?$char_traits@_W@std@@@io@glm@@QEAA@AEAV?$basic_ios@_WU?$char_traits@_W@std@@@std@@@Z DD imagerel $LN4
	DD	imagerel $LN4+141
	DD	imagerel $unwind$??0?$basic_state_saver@_WU?$char_traits@_W@std@@@io@glm@@QEAA@AEAV?$basic_ios@_WU?$char_traits@_W@std@@@std@@@Z
pdata	ENDS
;	COMDAT pdata
pdata	SEGMENT
$pdata$??1?$basic_state_saver@_WU?$char_traits@_W@std@@@io@glm@@QEAA@XZ DD imagerel $LN3
	DD	imagerel $LN3+166
	DD	imagerel $unwind$??1?$basic_state_saver@_WU?$char_traits@_W@std@@@io@glm@@QEAA@XZ
pdata	ENDS
;	COMDAT pdata
pdata	SEGMENT
$pdata$??$?6_WU?$char_traits@_W@std@@@io@glm@@YAAEAV?$basic_ostream@_WU?$char_traits@_W@std@@@std@@AEAV23@AEBUprecision@01@@Z DD imagerel $LN3
	DD	imagerel $LN3+67
	DD	imagerel $unwind$??$?6_WU?$char_traits@_W@std@@@io@glm@@YAAEAV?$basic_ostream@_WU?$char_traits@_W@std@@@std@@AEAV23@AEBUprecision@01@@Z
pdata	ENDS
;	COMDAT pdata
pdata	SEGMENT
$pdata$??$?6_WU?$char_traits@_W@std@@@io@glm@@YAAEAV?$basic_ostream@_WU?$char_traits@_W@std@@@std@@AEAV23@AEBUwidth@01@@Z DD imagerel $LN3
	DD	imagerel $LN3+67
	DD	imagerel $unwind$??$?6_WU?$char_traits@_W@std@@@io@glm@@YAAEAV?$basic_ostream@_WU?$char_traits@_W@std@@@std@@AEAV23@AEBUwidth@01@@Z
pdata	ENDS
;	COMDAT pdata
pdata	SEGMENT
$pdata$??$type_name@M$0A@U?$tquat@M$0A@@glm@@_WU?$char_traits@_W@std@@@?A0x3bf44740@@YA?AV?$basic_string@_WU?$char_traits@_W@std@@V?$allocator@_W@2@@std@@AEAV?$basic_ostream@_WU?$char_traits@_W@std@@@2@AEBU?$tquat@M$0A@@glm@@@Z DD imagerel ??$type_name@M$0A@U?$tquat@M$0A@@glm@@_WU?$char_traits@_W@std@@@?A0x3bf44740@@YA?AV?$basic_string@_WU?$char_traits@_W@std@@V?$allocator@_W@2@@std@@AEAV?$basic_ostream@_WU?$char_traits@_W@std@@@2@AEBU?$tquat@M$0A@@glm@@@Z
	DD	imagerel ??$type_name@M$0A@U?$tquat@M$0A@@glm@@_WU?$char_traits@_W@std@@@?A0x3bf44740@@YA?AV?$basic_string@_WU?$char_traits@_W@std@@V?$allocator@_W@2@@std@@AEAV?$basic_ostream@_WU?$char_traits@_W@std@@@2@AEBU?$tquat@M$0A@@glm@@@Z+888
	DD	imagerel $unwind$??$type_name@M$0A@U?$tquat@M$0A@@glm@@_WU?$char_traits@_W@std@@@?A0x3bf44740@@YA?AV?$basic_string@_WU?$char_traits@_W@std@@V?$allocator@_W@2@@std@@AEAV?$basic_ostream@_WU?$char_traits@_W@std@@@2@AEBU?$tquat@M$0A@@glm@@@Z
pdata	ENDS
;	COMDAT pdata
pdata	SEGMENT
$pdata$?dtor$0@?0???$type_name@M$0A@U?$tquat@M$0A@@glm@@_WU?$char_traits@_W@std@@@?A0x3bf44740@@YA?AV?$basic_string@_WU?$char_traits@_W@std@@V?$allocator@_W@2@@std@@AEAV?$basic_ostream@_WU?$char_traits@_W@std@@@2@AEBU?$tquat@M$0A@@glm@@@Z@4HA DD imagerel ?dtor$0@?0???$type_name@M$0A@U?$tquat@M$0A@@glm@@_WU?$char_traits@_W@std@@@?A0x3bf44740@@YA?AV?$basic_string@_WU?$char_traits@_W@std@@V?$allocator@_W@2@@std@@AEAV?$basic_ostream@_WU?$char_traits@_W@std@@@2@AEBU?$tquat@M$0A@@glm@@@Z@4HA
	DD	imagerel ?dtor$0@?0???$type_name@M$0A@U?$tquat@M$0A@@glm@@_WU?$char_traits@_W@std@@@?A0x3bf44740@@YA?AV?$basic_string@_WU?$char_traits@_W@std@@V?$allocator@_W@2@@std@@AEAV?$basic_ostream@_WU?$char_traits@_W@std@@@2@AEBU?$tquat@M$0A@@glm@@@Z@4HA+35
	DD	imagerel $unwind$?dtor$0@?0???$type_name@M$0A@U?$tquat@M$0A@@glm@@_WU?$char_traits@_W@std@@@?A0x3bf44740@@YA?AV?$basic_string@_WU?$char_traits@_W@std@@V?$allocator@_W@2@@std@@AEAV?$basic_ostream@_WU?$char_traits@_W@std@@@2@AEBU?$tquat@M$0A@@glm@@@Z@4HA
pdata	ENDS
;	COMDAT pdata
pdata	SEGMENT
$pdata$??$?6_WU?$char_traits@_W@std@@V?$allocator@_W@1@@std@@YAAEAV?$basic_ostream@_WU?$char_traits@_W@std@@@0@AEAV10@AEBV?$basic_string@_WU?$char_traits@_W@std@@V?$allocator@_W@2@@0@@Z DD imagerel $LN3
	DD	imagerel $LN3+67
	DD	imagerel $unwind$??$?6_WU?$char_traits@_W@std@@V?$allocator@_W@1@@std@@YAAEAV?$basic_ostream@_WU?$char_traits@_W@std@@@0@AEAV10@AEBV?$basic_string@_WU?$char_traits@_W@std@@V?$allocator@_W@2@@0@@Z
pdata	ENDS
;	COMDAT pdata
pdata	SEGMENT
$pdata$??$?6_WU?$char_traits@_W@std@@M$0A@@glm@@YAAEAV?$basic_ostream@_WU?$char_traits@_W@std@@@std@@AEAV12@AEBU?$tquat@M$0A@@0@@Z DD imagerel $LN3
	DD	imagerel $LN3+36
	DD	imagerel $unwind$??$?6_WU?$char_traits@_W@std@@M$0A@@glm@@YAAEAV?$basic_ostream@_WU?$char_traits@_W@std@@@std@@AEAV12@AEBU?$tquat@M$0A@@0@@Z
pdata	ENDS
;	COMDAT pdata
pdata	SEGMENT
$pdata$??$?6_WU?$char_traits@_W@std@@@std@@YAAEAV?$basic_ostream@_WU?$char_traits@_W@std@@@0@AEAV10@_W@Z DD imagerel $LN23
	DD	imagerel $LN23+998
	DD	imagerel $unwind$??$?6_WU?$char_traits@_W@std@@@std@@YAAEAV?$basic_ostream@_WU?$char_traits@_W@std@@@0@AEAV10@_W@Z
pdata	ENDS
;	COMDAT pdata
pdata	SEGMENT
