; Listing generated by Microsoft (R) Optimizing Compiler Version 19.32.31329.0 

include listing.inc

INCLUDELIB MSVCRTD

CONST	SEGMENT
?DataI32@findLSB@@3QBU?$type@HH@1@B DD 01H		; findLSB::DataI32
	DD	00H
	DD	03H
	DD	00H
	DD	02H
	DD	01H
	DD	010000H
	DD	010H
	DD	07fff0000H
	DD	010H
	DD	07f000000H
	DD	018H
	DD	07f00ff00H
	DD	08H
	DD	00H
	DD	0ffffffffH
$SG58056 DB	'glm::findLSB: %d clocks', 0aH, 00H
	ORG $+7
$SG58057 DB	'findLSB - 0.9.5: %d clocks', 0aH, 00H
$SG68723 DB	'%s', 00H
	ORG $+1
$SG58058 DB	'findLSB - intrinsics: %d clocks', 0aH, 00H
	ORG $+3
$SG68726 DB	00H, 00H
	ORG $+2
$SG58059 DB	'findLSB - ntz2: %d clocks', 0aH, 00H
	ORG $+5
$SG58060 DB	'findLSB - branchfree: %d clocks', 0aH, 00H
	ORG $+7
?DataI32@bitCount@@3QBU?$type@H@1@B DD 01H		; bitCount::DataI32
	DD	01H
	DD	03H
	DD	02H
	DD	02H
	DD	01H
	DD	07fffffffH
	DD	01fH
	DD	00H
	DD	00H
$SG68722 DB	'invalid argument', 00H
	ORG $+7
$SG68724 DB	'C:\Program Files\Microsoft Visual Studio\2022\Community\'
	DB	'VC\Tools\MSVC\14.32.31326\include\xmemory', 00H
	ORG $+6
$SG68727 DB	'"', 00H, 'i', 00H, 'n', 00H, 'v', 00H, 'a', 00H, 'l', 00H
	DB	'i', 00H, 'd', 00H, ' ', 00H, 'a', 00H, 'r', 00H, 'g', 00H, 'u'
	DB	00H, 'm', 00H, 'e', 00H, 'n', 00H, 't', 00H, '"', 00H, 00H, 00H
	ORG $+2
$SG68725 DB	'C', 00H, ':', 00H, '\', 00H, 'P', 00H, 'r', 00H, 'o', 00H
	DB	'g', 00H, 'r', 00H, 'a', 00H, 'm', 00H, ' ', 00H, 'F', 00H, 'i'
	DB	00H, 'l', 00H, 'e', 00H, 's', 00H, '\', 00H, 'M', 00H, 'i', 00H
	DB	'c', 00H, 'r', 00H, 'o', 00H, 's', 00H, 'o', 00H, 'f', 00H, 't'
	DB	00H, ' ', 00H, 'V', 00H, 'i', 00H, 's', 00H, 'u', 00H, 'a', 00H
	DB	'l', 00H, ' ', 00H, 'S', 00H, 't', 00H, 'u', 00H, 'd', 00H, 'i'
	DB	00H, 'o', 00H, '\', 00H, '2', 00H, '0', 00H, '2', 00H, '2', 00H
	DB	'\', 00H, 'C', 00H, 'o', 00H, 'm', 00H, 'm', 00H, 'u', 00H, 'n'
	DB	00H, 'i', 00H, 't', 00H, 'y', 00H, '\', 00H, 'V', 00H, 'C', 00H
	DB	'\', 00H, 'T', 00H, 'o', 00H, 'o', 00H, 'l', 00H, 's', 00H, '\'
	DB	00H, 'M', 00H, 'S', 00H, 'V', 00H, 'C', 00H, '\', 00H, '1', 00H
	DB	'4', 00H, '.', 00H, '3', 00H, '2', 00H, '.', 00H, '3', 00H, '1'
	DB	00H, '3', 00H, '2', 00H, '6', 00H, '\', 00H, 'i', 00H, 'n', 00H
	DB	'c', 00H, 'l', 00H, 'u', 00H, 'd', 00H, 'e', 00H, '\', 00H, 'x'
	DB	00H, 'm', 00H, 'e', 00H, 'm', 00H, 'o', 00H, 'r', 00H, 'y', 00H
	DB	00H, 00H
	ORG $+4
$SG60876 DB	'bitCount - TimeIf %d', 0aH, 00H
	ORG $+2
$SG60877 DB	'bitCount - TimeVec %d', 0aH, 00H
	ORG $+1
$SG60878 DB	'bitCount - TimeDefault %d', 0aH, 00H
	ORG $+5
$SG60879 DB	'bitCount - TimeVec4 %d', 0aH, 00H
$SG60880 DB	'bitCount - bitfield %d', 0aH, 00H
	ORG $+8
$SG60905 DB	'C', 00H, ':', 00H, '\', 00H, 'U', 00H, 's', 00H, 'e', 00H
	DB	'r', 00H, 's', 00H, '\', 00H, 'k', 00H, 's', 00H, 'a', 00H, 'r'
	DB	00H, 't', 00H, '\', 00H, 'O', 00H, 'n', 00H, 'e', 00H, 'D', 00H
	DB	'r', 00H, 'i', 00H, 'v', 00H, 'e', 00H, '\', 00H, 'D', 00H, 'e'
	DB	00H, 's', 00H, 'k', 00H, 't', 00H, 'o', 00H, 'p', 00H, '\', 00H
	DB	'F', 00H, 'l', 00H, 'a', 00H, 'p', 00H, 'p', 00H, 'y', 00H, 'B'
	DB	00H, 'i', 00H, 'r', 00H, 'd', 00H, '\', 00H, 'l', 00H, 'i', 00H
	DB	'b', 00H, 'r', 00H, 'a', 00H, 'r', 00H, 'i', 00H, 'e', 00H, 's'
	DB	00H, '\', 00H, 'e', 00H, 'x', 00H, 't', 00H, 'e', 00H, 'r', 00H
	DB	'n', 00H, 'a', 00H, 'l', 00H, '\', 00H, 'g', 00H, 'l', 00H, 'm'
	DB	00H, '\', 00H, 't', 00H, 'e', 00H, 's', 00H, 't', 00H, '\', 00H
	DB	'c', 00H, 'o', 00H, 'r', 00H, 'e', 00H, '\', 00H, 'c', 00H, 'o'
	DB	00H, 'r', 00H, 'e', 00H, '_', 00H, 'f', 00H, 'u', 00H, 'n', 00H
	DB	'c', 00H, '_', 00H, 'i', 00H, 'n', 00H, 't', 00H, 'e', 00H, 'g'
	DB	00H, 'e', 00H, 'r', 00H, '.', 00H, 'c', 00H, 'p', 00H, 'p', 00H
	DB	00H, 00H
	ORG $+4
$SG60906 DB	'!', 00H, 'E', 00H, 'r', 00H, 'r', 00H, 'o', 00H, 'r', 00H
	DB	00H, 00H
	ORG $+10
?Data32@bitfieldInsert@@3QBU?$type@II@1@B DD 00H	; bitfieldInsert::Data32
	DD	0ffffffffH
	DD	00H
	DD	020H
	DD	0ffffffffH
	DD	00H
	DD	0ffffffffH
	DD	00H
	DD	01fH
	DD	07fffffffH
	DD	00H
	DD	0ffffffffH
	DD	00H
	DD	00H
	DD	00H
	DD	0ff000000H
	DD	0ff00H
	DD	08H
	DD	08H
	DD	0ff00ff00H
	DD	0ffff0000H
	DD	0ffffH
	DD	010H
	DD	010H
	DD	00H
	DD	0ffffH
	DD	0ffff0000H
	DD	010H
	DD	010H
	DD	0ffffffffH
	ORG $+8
?Data32@bitfieldExtract@@3QBU?$type@II@1@B DD 0ffffffffH ; bitfieldExtract::Data32
	DD	00H
	DD	020H
	DD	0ffffffffH
	DD	00H
	DD	0ffffffffH
	DD	08H
	DD	00H
	DD	00H
	DD	00H
	DD	00H
	DD	00H
	DD	020H
	DD	00H
	DD	00H
	DD	0f0f0f0fH
	DD	00H
	DD	020H
	DD	0f0f0f0fH
	DD	00H
	DD	00H
	DD	08H
	DD	00H
	DD	00H
	DD	00H
	DD	080000000H
	DD	01fH
	DD	01H
	DD	01H
	DD	00H
	DD	07fffffffH
	DD	01fH
	DD	01H
	DD	00H
	DD	00H
	DD	0300H
	DD	08H
	DD	08H
	DD	03H
	DD	00H
	DD	0ff00H
	DD	08H
	DD	08H
	DD	0ffH
	DD	00H
	DD	0fffffff0H
	DD	00H
	DD	05H
	DD	010H
	DD	00H
	DD	0ffH
	DD	01H
	DD	03H
	DD	07H
	DD	00H
	DD	0ffH
	DD	00H
	DD	03H
	DD	07H
	DD	00H
	DD	00H
	DD	00H
	DD	02H
	DD	00H
	DD	00H
	DD	0ffffffffH
	DD	00H
	DD	08H
	DD	0ffH
	DD	00H
	DD	0ffff0000H
	DD	010H
	DD	010H
	DD	0ffffH
	DD	00H
	DD	0fffffff0H
	DD	00H
	DD	08H
	DD	00H
	DD	01H
	DD	0ffffffffH
	DD	010H
	DD	010H
	DD	00H
	DD	01H
	ORG $+12
?Data32@bitfieldReverse@@3QBU?$type@I@1@B DD 01H	; bitfieldReverse::Data32
	DD	080000000H
	DD	00H
	DD	0fH
	DD	0f0000000H
	DD	00H
	DD	0ffH
	DD	0ff000000H
	DD	00H
	DD	0f0000000H
	DD	0fH
	DD	00H
	DD	0ff000000H
	DD	0ffH
	DD	00H
	DD	0ffffffffH
	DD	0ffffffffH
	DD	00H
	DD	00H
	DD	00H
	DD	00H
	ORG $+12
?Data64@bitfieldReverse@@3QBU?$type@_K@1@B DQ 00000000000000ffH ; bitfieldReverse::Data64
	DQ	ff00000000000000H
	DD	00H
	ORG $+4
	DQ	000000000000000fH
	DQ	f000000000000000H
	DD	00H
	ORG $+4
	DQ	f000000000000000H
	DQ	000000000000000fH
	DD	00H
	ORG $+4
	DQ	ffffffffffffffffH
	DQ	ffffffffffffffffH
	DD	00H
	ORG $+4
	DQ	0000000000000000H
	DQ	0000000000000000H
	DD	00H
	ORG $+4
$SG56548 DB	'glm::bitfieldReverse: %d clocks', 0aH, 00H
	ORG $+7
$SG56549 DB	'bitfieldReverseLoop: %d clocks', 0aH, 00H
$SG56550 DB	'bitfieldReverseUint32: %d clocks', 0aH, 00H
	ORG $+6
$SG56551 DB	'bitfieldReverseOps: %d clocks', 0aH, 00H
	ORG $+1
$SG57102 DB	'glm::bitfieldReverse - 64: %d clocks', 0aH, 00H
	ORG $+2
$SG57103 DB	'bitfieldReverseLoop - 64: %d clocks', 0aH, 00H
	ORG $+3
$SG57104 DB	'bitfieldReverseUint - 64: %d clocks', 0aH, 00H
	ORG $+3
$SG57105 DB	'bitfieldReverseOps - 64: %d clocks', 0aH, 00H
	ORG $+4
$SG57268 DB	'glm::findMSB: %d clocks', 0aH, 00H
	ORG $+7
$SG57269 DB	'findMSB - nlz1: %d clocks', 0aH, 00H
	ORG $+5
$SG57270 DB	'findMSB - nlz2: %d clocks', 0aH, 00H
	ORG $+5
$SG57271 DB	'findMSB - 0.9.5: %d clocks', 0aH, 00H
	ORG $+4
$SG57272 DB	'findMSB - intrinsics: %d clocks', 0aH, 00H
	ORG $+7
$SG57273 DB	'findMSB - pop: %d clocks', 0aH, 00H
	ORG $+6
$SG57274 DB	'findMSB - avx tzcnt: %d clocks', 0aH, 00H
CONST	ENDS
PUBLIC	??2@YAPEAX_KPEAX@Z				; operator new
PUBLIC	__local_stdio_printf_options
PUBLIC	_vfprintf_l
PUBLIC	printf
PUBLIC	?max@?$numeric_limits@_J@std@@SA_JXZ		; std::numeric_limits<__int64>::max
PUBLIC	?max@?$numeric_limits@I@std@@SAIXZ		; std::numeric_limits<unsigned int>::max
PUBLIC	?uaddCarry@glm@@YAIAEBI0AEAI@Z			; glm::uaddCarry
PUBLIC	?usubBorrow@glm@@YAIAEBI0AEAI@Z			; glm::usubBorrow
PUBLIC	?umulExtended@glm@@YAXAEBI0AEAI1@Z		; glm::umulExtended
PUBLIC	?imulExtended@glm@@YAXHHAEAH0@Z			; glm::imulExtended
PUBLIC	?length@?$tvec2@I$0A@@glm@@SAHXZ		; glm::tvec2<unsigned int,0>::length
PUBLIC	??A?$tvec2@I$0A@@glm@@QEAAAEAIH@Z		; glm::tvec2<unsigned int,0>::operator[]
PUBLIC	??A?$tvec2@I$0A@@glm@@QEBAAEBIH@Z		; glm::tvec2<unsigned int,0>::operator[]
PUBLIC	??0?$tvec2@I$0A@@glm@@QEAA@W4ctor@1@@Z		; glm::tvec2<unsigned int,0>::tvec2<unsigned int,0>
PUBLIC	??0?$tvec2@I$0A@@glm@@QEAA@I@Z			; glm::tvec2<unsigned int,0>::tvec2<unsigned int,0>
PUBLIC	??0?$tvec2@I$0A@@glm@@QEAA@II@Z			; glm::tvec2<unsigned int,0>::tvec2<unsigned int,0>
PUBLIC	??0exception@std@@QEAA@QEBDH@Z			; std::exception::exception
PUBLIC	??0exception@std@@QEAA@AEBV01@@Z		; std::exception::exception
PUBLIC	??1exception@std@@UEAA@XZ			; std::exception::~exception
PUBLIC	?what@exception@std@@UEBAPEBDXZ			; std::exception::what
PUBLIC	??_Gexception@std@@UEAAPEAXI@Z			; std::exception::`scalar deleting destructor'
PUBLIC	??0bad_alloc@std@@AEAA@QEBD@Z			; std::bad_alloc::bad_alloc
PUBLIC	??1bad_alloc@std@@UEAA@XZ			; std::bad_alloc::~bad_alloc
PUBLIC	??0bad_alloc@std@@QEAA@AEBV01@@Z		; std::bad_alloc::bad_alloc
PUBLIC	??_Gbad_alloc@std@@UEAAPEAXI@Z			; std::bad_alloc::`scalar deleting destructor'
PUBLIC	??0bad_array_new_length@std@@QEAA@XZ		; std::bad_array_new_length::bad_array_new_length
PUBLIC	??1bad_array_new_length@std@@UEAA@XZ		; std::bad_array_new_length::~bad_array_new_length
PUBLIC	??0bad_array_new_length@std@@QEAA@AEBV01@@Z	; std::bad_array_new_length::bad_array_new_length
PUBLIC	??_Gbad_array_new_length@std@@UEAAPEAXI@Z	; std::bad_array_new_length::`scalar deleting destructor'
PUBLIC	?_Throw_bad_array_new_length@std@@YAXXZ		; std::_Throw_bad_array_new_length
PUBLIC	?_Allocate@_Default_allocate_traits@std@@SAPEAX_K@Z ; std::_Default_allocate_traits::_Allocate
PUBLIC	?_Adjust_manually_vector_aligned@std@@YAXAEAPEAXAEA_K@Z ; std::_Adjust_manually_vector_aligned
PUBLIC	??0_Container_proxy@std@@QEAA@PEAU_Container_base12@1@@Z ; std::_Container_proxy::_Container_proxy
PUBLIC	??0_Container_base12@std@@QEAA@XZ		; std::_Container_base12::_Container_base12
PUBLIC	?_Orphan_all@_Container_base12@std@@QEAAXXZ	; std::_Container_base12::_Orphan_all
PUBLIC	?_Orphan_all_unlocked_v3@_Container_base12@std@@AEAAXXZ ; std::_Container_base12::_Orphan_all_unlocked_v3
PUBLIC	?_Orphan_all_locked_v3@_Container_base12@std@@AEAAXXZ ; std::_Container_base12::_Orphan_all_locked_v3
PUBLIC	?test@bitfieldInsert@@YAHXZ			; bitfieldInsert::test
PUBLIC	??$bitfieldInsert@I@glm@@YAIAEBI0HH@Z		; glm::bitfieldInsert<unsigned int>
PUBLIC	?test@bitfieldExtract@@YAHXZ			; bitfieldExtract::test
PUBLIC	??$bitfieldExtract@I@glm@@YAIIHH@Z		; glm::bitfieldExtract<unsigned int>
PUBLIC	?bitfieldReverseUint32@bitfieldReverse@@YAII@Z	; bitfieldReverse::bitfieldReverseUint32
PUBLIC	?bitfieldReverseUint64@bitfieldReverse@@YA_K_K@Z ; bitfieldReverse::bitfieldReverseUint64
PUBLIC	?test32_bitfieldReverse@bitfieldReverse@@YAHXZ	; bitfieldReverse::test32_bitfieldReverse
PUBLIC	??$bitfieldReverse@I@glm@@YAII@Z		; glm::bitfieldReverse<unsigned int>
PUBLIC	?test32_bitfieldReverseLoop@bitfieldReverse@@YAHXZ ; bitfieldReverse::test32_bitfieldReverseLoop
PUBLIC	??$bitfieldReverseLoop@I@bitfieldReverse@@YAII@Z ; bitfieldReverse::bitfieldReverseLoop<unsigned int>
PUBLIC	?test32_bitfieldReverseUint32@bitfieldReverse@@YAHXZ ; bitfieldReverse::test32_bitfieldReverseUint32
PUBLIC	?test32_bitfieldReverseOps@bitfieldReverse@@YAHXZ ; bitfieldReverse::test32_bitfieldReverseOps
PUBLIC	??$bitfieldReverseOps@I@bitfieldReverse@@YAII@Z	; bitfieldReverse::bitfieldReverseOps<unsigned int>
PUBLIC	?test64_bitfieldReverse@bitfieldReverse@@YAHXZ	; bitfieldReverse::test64_bitfieldReverse
PUBLIC	??$bitfieldReverse@_K@glm@@YA_K_K@Z		; glm::bitfieldReverse<unsigned __int64>
PUBLIC	?test64_bitfieldReverseLoop@bitfieldReverse@@YAHXZ ; bitfieldReverse::test64_bitfieldReverseLoop
PUBLIC	??$bitfieldReverseLoop@_K@bitfieldReverse@@YA_K_K@Z ; bitfieldReverse::bitfieldReverseLoop<unsigned __int64>
PUBLIC	?test64_bitfieldReverseUint64@bitfieldReverse@@YAHXZ ; bitfieldReverse::test64_bitfieldReverseUint64
PUBLIC	?test64_bitfieldReverseOps@bitfieldReverse@@YAHXZ ; bitfieldReverse::test64_bitfieldReverseOps
PUBLIC	??$bitfieldReverseOps@_K@bitfieldReverse@@YA_K_K@Z ; bitfieldReverse::bitfieldReverseOps<unsigned __int64>
PUBLIC	?test@bitfieldReverse@@YAHXZ			; bitfieldReverse::test
PUBLIC	?perf32@bitfieldReverse@@YAHI@Z			; bitfieldReverse::perf32
PUBLIC	??0?$allocator@I@std@@QEAA@XZ			; std::allocator<unsigned int>::allocator<unsigned int>
PUBLIC	?deallocate@?$allocator@I@std@@QEAAXQEAI_K@Z	; std::allocator<unsigned int>::deallocate
PUBLIC	?allocate@?$allocator@I@std@@QEAAPEAI_K@Z	; std::allocator<unsigned int>::allocate
PUBLIC	?max_size@?$_Default_allocator_traits@V?$allocator@I@std@@@std@@SA_KAEBV?$allocator@I@2@@Z ; std::_Default_allocator_traits<std::allocator<unsigned int> >::max_size
PUBLIC	??0?$vector@IV?$allocator@I@std@@@std@@QEAA@XZ	; std::vector<unsigned int,std::allocator<unsigned int> >::vector<unsigned int,std::allocator<unsigned int> >
PUBLIC	??1?$vector@IV?$allocator@I@std@@@std@@QEAA@XZ	; std::vector<unsigned int,std::allocator<unsigned int> >::~vector<unsigned int,std::allocator<unsigned int> >
PUBLIC	?resize@?$vector@IV?$allocator@I@std@@@std@@QEAAX_K@Z ; std::vector<unsigned int,std::allocator<unsigned int> >::resize
PUBLIC	?max_size@?$vector@IV?$allocator@I@std@@@std@@QEBA_KXZ ; std::vector<unsigned int,std::allocator<unsigned int> >::max_size
PUBLIC	?capacity@?$vector@IV?$allocator@I@std@@@std@@QEBA_KXZ ; std::vector<unsigned int,std::allocator<unsigned int> >::capacity
PUBLIC	??A?$vector@IV?$allocator@I@std@@@std@@QEAAAEAI_K@Z ; std::vector<unsigned int,std::allocator<unsigned int> >::operator[]
PUBLIC	?_Calculate_growth@?$vector@IV?$allocator@I@std@@@std@@AEBA_K_K@Z ; std::vector<unsigned int,std::allocator<unsigned int> >::_Calculate_growth
PUBLIC	?_Change_array@?$vector@IV?$allocator@I@std@@@std@@AEAAXQEAI_K1@Z ; std::vector<unsigned int,std::allocator<unsigned int> >::_Change_array
PUBLIC	?_Tidy@?$vector@IV?$allocator@I@std@@@std@@AEAAXXZ ; std::vector<unsigned int,std::allocator<unsigned int> >::_Tidy
PUBLIC	?_Xlength@?$vector@IV?$allocator@I@std@@@std@@CAXXZ ; std::vector<unsigned int,std::allocator<unsigned int> >::_Xlength
PUBLIC	?_Orphan_range_unlocked@?$vector@IV?$allocator@I@std@@@std@@AEBAXPEAI0@Z ; std::vector<unsigned int,std::allocator<unsigned int> >::_Orphan_range_unlocked
PUBLIC	?_Orphan_range_locked@?$vector@IV?$allocator@I@std@@@std@@AEBAXPEAI0@Z ; std::vector<unsigned int,std::allocator<unsigned int> >::_Orphan_range_locked
PUBLIC	?_Orphan_range@?$vector@IV?$allocator@I@std@@@std@@AEBAXPEAI0@Z ; std::vector<unsigned int,std::allocator<unsigned int> >::_Orphan_range
PUBLIC	?_Getal@?$vector@IV?$allocator@I@std@@@std@@AEAAAEAV?$allocator@I@2@XZ ; std::vector<unsigned int,std::allocator<unsigned int> >::_Getal
PUBLIC	?_Getal@?$vector@IV?$allocator@I@std@@@std@@AEBAAEBV?$allocator@I@2@XZ ; std::vector<unsigned int,std::allocator<unsigned int> >::_Getal
PUBLIC	??0?$_Vector_val@U?$_Simple_types@I@std@@@std@@QEAA@XZ ; std::_Vector_val<std::_Simple_types<unsigned int> >::_Vector_val<std::_Simple_types<unsigned int> >
PUBLIC	?_Get_first@?$_Compressed_pair@V?$allocator@I@std@@V?$_Vector_val@U?$_Simple_types@I@std@@@2@$00@std@@QEAAAEAV?$allocator@I@2@XZ ; std::_Compressed_pair<std::allocator<unsigned int>,std::_Vector_val<std::_Simple_types<unsigned int> >,1>::_Get_first
PUBLIC	?_Get_first@?$_Compressed_pair@V?$allocator@I@std@@V?$_Vector_val@U?$_Simple_types@I@std@@@2@$00@std@@QEBAAEBV?$allocator@I@2@XZ ; std::_Compressed_pair<std::allocator<unsigned int>,std::_Vector_val<std::_Simple_types<unsigned int> >,1>::_Get_first
PUBLIC	?perf64@bitfieldReverse@@YAH_K@Z		; bitfieldReverse::perf64
PUBLIC	??0?$allocator@_K@std@@QEAA@XZ			; std::allocator<unsigned __int64>::allocator<unsigned __int64>
PUBLIC	?deallocate@?$allocator@_K@std@@QEAAXQEA_K_K@Z	; std::allocator<unsigned __int64>::deallocate
PUBLIC	?allocate@?$allocator@_K@std@@QEAAPEA_K_K@Z	; std::allocator<unsigned __int64>::allocate
PUBLIC	?max_size@?$_Default_allocator_traits@V?$allocator@_K@std@@@std@@SA_KAEBV?$allocator@_K@2@@Z ; std::_Default_allocator_traits<std::allocator<unsigned __int64> >::max_size
PUBLIC	??0?$vector@_KV?$allocator@_K@std@@@std@@QEAA@XZ ; std::vector<unsigned __int64,std::allocator<unsigned __int64> >::vector<unsigned __int64,std::allocator<unsigned __int64> >
PUBLIC	??1?$vector@_KV?$allocator@_K@std@@@std@@QEAA@XZ ; std::vector<unsigned __int64,std::allocator<unsigned __int64> >::~vector<unsigned __int64,std::allocator<unsigned __int64> >
PUBLIC	?resize@?$vector@_KV?$allocator@_K@std@@@std@@QEAAX_K@Z ; std::vector<unsigned __int64,std::allocator<unsigned __int64> >::resize
PUBLIC	?max_size@?$vector@_KV?$allocator@_K@std@@@std@@QEBA_KXZ ; std::vector<unsigned __int64,std::allocator<unsigned __int64> >::max_size
PUBLIC	?capacity@?$vector@_KV?$allocator@_K@std@@@std@@QEBA_KXZ ; std::vector<unsigned __int64,std::allocator<unsigned __int64> >::capacity
PUBLIC	??A?$vector@_KV?$allocator@_K@std@@@std@@QEAAAEA_K_K@Z ; std::vector<unsigned __int64,std::allocator<unsigned __int64> >::operator[]
PUBLIC	?_Calculate_growth@?$vector@_KV?$allocator@_K@std@@@std@@AEBA_K_K@Z ; std::vector<unsigned __int64,std::allocator<unsigned __int64> >::_Calculate_growth
PUBLIC	?_Change_array@?$vector@_KV?$allocator@_K@std@@@std@@AEAAXQEA_K_K1@Z ; std::vector<unsigned __int64,std::allocator<unsigned __int64> >::_Change_array
PUBLIC	?_Tidy@?$vector@_KV?$allocator@_K@std@@@std@@AEAAXXZ ; std::vector<unsigned __int64,std::allocator<unsigned __int64> >::_Tidy
PUBLIC	?_Xlength@?$vector@_KV?$allocator@_K@std@@@std@@CAXXZ ; std::vector<unsigned __int64,std::allocator<unsigned __int64> >::_Xlength
PUBLIC	?_Orphan_range_unlocked@?$vector@_KV?$allocator@_K@std@@@std@@AEBAXPEA_K0@Z ; std::vector<unsigned __int64,std::allocator<unsigned __int64> >::_Orphan_range_unlocked
PUBLIC	?_Orphan_range_locked@?$vector@_KV?$allocator@_K@std@@@std@@AEBAXPEA_K0@Z ; std::vector<unsigned __int64,std::allocator<unsigned __int64> >::_Orphan_range_locked
PUBLIC	?_Orphan_range@?$vector@_KV?$allocator@_K@std@@@std@@AEBAXPEA_K0@Z ; std::vector<unsigned __int64,std::allocator<unsigned __int64> >::_Orphan_range
PUBLIC	?_Getal@?$vector@_KV?$allocator@_K@std@@@std@@AEAAAEAV?$allocator@_K@2@XZ ; std::vector<unsigned __int64,std::allocator<unsigned __int64> >::_Getal
PUBLIC	?_Getal@?$vector@_KV?$allocator@_K@std@@@std@@AEBAAEBV?$allocator@_K@2@XZ ; std::vector<unsigned __int64,std::allocator<unsigned __int64> >::_Getal
PUBLIC	??0?$_Vector_val@U?$_Simple_types@_K@std@@@std@@QEAA@XZ ; std::_Vector_val<std::_Simple_types<unsigned __int64> >::_Vector_val<std::_Simple_types<unsigned __int64> >
PUBLIC	?_Get_first@?$_Compressed_pair@V?$allocator@_K@std@@V?$_Vector_val@U?$_Simple_types@_K@std@@@2@$00@std@@QEAAAEAV?$allocator@_K@2@XZ ; std::_Compressed_pair<std::allocator<unsigned __int64>,std::_Vector_val<std::_Simple_types<unsigned __int64> >,1>::_Get_first
PUBLIC	?_Get_first@?$_Compressed_pair@V?$allocator@_K@std@@V?$_Vector_val@U?$_Simple_types@_K@std@@@2@$00@std@@QEBAAEBV?$allocator@_K@2@XZ ; std::_Compressed_pair<std::allocator<unsigned __int64>,std::_Vector_val<std::_Simple_types<unsigned __int64> >,1>::_Get_first
PUBLIC	?perf@bitfieldReverse@@YAH_K@Z			; bitfieldReverse::perf
PUBLIC	?findMSB_nlz2@findMSB@@YAHI@Z			; findMSB::findMSB_nlz2
PUBLIC	?findMSB_pop@findMSB@@YAHI@Z			; findMSB::findMSB_pop
PUBLIC	??$bitCount@I@glm@@YAHI@Z			; glm::bitCount<unsigned int>
PUBLIC	?perf_int@findMSB@@YAH_K@Z			; findMSB::perf_int
PUBLIC	??$findMSB@H@glm@@YAHH@Z			; glm::findMSB<int>
PUBLIC	??$findMSB_nlz1@H@findMSB@@YAHH@Z		; findMSB::findMSB_nlz1<int>
PUBLIC	??$findMSB_095@H@findMSB@@YAHH@Z		; findMSB::findMSB_095<int>
PUBLIC	??$findMSB_intrinsic@H@findMSB@@YAHH@Z		; findMSB::findMSB_intrinsic<int>
PUBLIC	??$findMSB_avx@H@findMSB@@YAHH@Z		; findMSB::findMSB_avx<int>
PUBLIC	?test_ivec4@findMSB@@YAHXZ			; findMSB::test_ivec4
PUBLIC	?length@?$tvec4@H$0A@@glm@@SAHXZ		; glm::tvec4<int,0>::length
PUBLIC	??A?$tvec4@H$0A@@glm@@QEBAAEBHH@Z		; glm::tvec4<int,0>::operator[]
PUBLIC	??0?$tvec4@H$0A@@glm@@QEAA@XZ			; glm::tvec4<int,0>::tvec4<int,0>
PUBLIC	??0?$tvec4@H$0A@@glm@@QEAA@H@Z			; glm::tvec4<int,0>::tvec4<int,0>
PUBLIC	??0?$tvec4@H$0A@@glm@@QEAA@HHHH@Z		; glm::tvec4<int,0>::tvec4<int,0>
PUBLIC	??$findMSB@H$0A@Utvec4@glm@@@glm@@YA?AU?$tvec4@H$0A@@0@AEBU10@@Z ; glm::findMSB<int,0,glm::tvec4>
PUBLIC	??$equal@H$0A@Utvec4@glm@@@glm@@YA?AU?$tvec4@_N$0A@@0@AEBU?$tvec4@H$0A@@0@0@Z ; glm::equal<int,0,glm::tvec4>
PUBLIC	?length@?$tvec4@_N$0A@@glm@@SAHXZ		; glm::tvec4<bool,0>::length
PUBLIC	??A?$tvec4@_N$0A@@glm@@QEAAAEA_NH@Z		; glm::tvec4<bool,0>::operator[]
PUBLIC	??A?$tvec4@_N$0A@@glm@@QEBAAEB_NH@Z		; glm::tvec4<bool,0>::operator[]
PUBLIC	??0?$tvec4@_N$0A@@glm@@QEAA@W4ctor@1@@Z		; glm::tvec4<bool,0>::tvec4<bool,0>
PUBLIC	??$all@$0A@Utvec4@glm@@@glm@@YA_NAEBU?$tvec4@_N$0A@@0@@Z ; glm::all<0,glm::tvec4>
PUBLIC	?test_int@findMSB@@YAHXZ			; findMSB::test_int
PUBLIC	??$findMSB@I@glm@@YAHI@Z			; glm::findMSB<unsigned int>
PUBLIC	??$findMSB_nlz1@I@findMSB@@YAHI@Z		; findMSB::findMSB_nlz1<unsigned int>
PUBLIC	??$findMSB_095@I@findMSB@@YAHI@Z		; findMSB::findMSB_095<unsigned int>
PUBLIC	??$findMSB_intrinsic@I@findMSB@@YAHI@Z		; findMSB::findMSB_intrinsic<unsigned int>
PUBLIC	?test@findMSB@@YAHXZ				; findMSB::test
PUBLIC	?perf@findMSB@@YAH_K@Z				; findMSB::perf
PUBLIC	?test_int@findLSB@@YAHXZ			; findLSB::test_int
PUBLIC	??$findLSB@H@glm@@YAHH@Z			; glm::findLSB<int>
PUBLIC	??$findLSB_095@H@findLSB@@YAHH@Z		; findLSB::findLSB_095<int>
PUBLIC	??$findLSB_intrinsic@H@findLSB@@YAHH@Z		; findLSB::findLSB_intrinsic<int>
PUBLIC	??$findLSB_ntz2@H@findLSB@@YAHH@Z		; findLSB::findLSB_ntz2<int>
PUBLIC	??$findLSB_branchfree@H@findLSB@@YAHH@Z		; findLSB::findLSB_branchfree<int>
PUBLIC	?test@findLSB@@YAHXZ				; findLSB::test
PUBLIC	?perf_int@findLSB@@YAH_K@Z			; findLSB::perf_int
PUBLIC	?perf@findLSB@@YAH_K@Z				; findLSB::perf
PUBLIC	?test@uaddCarry@@YAHXZ				; uaddCarry::test
PUBLIC	?length@?$tvec1@I$0A@@glm@@SAHXZ		; glm::tvec1<unsigned int,0>::length
PUBLIC	??A?$tvec1@I$0A@@glm@@QEAAAEAIH@Z		; glm::tvec1<unsigned int,0>::operator[]
PUBLIC	??A?$tvec1@I$0A@@glm@@QEBAAEBIH@Z		; glm::tvec1<unsigned int,0>::operator[]
PUBLIC	??0?$tvec1@I$0A@@glm@@QEAA@W4ctor@1@@Z		; glm::tvec1<unsigned int,0>::tvec1<unsigned int,0>
PUBLIC	??0?$tvec1@I$0A@@glm@@QEAA@I@Z			; glm::tvec1<unsigned int,0>::tvec1<unsigned int,0>
PUBLIC	??$uaddCarry@$0A@Utvec1@glm@@@glm@@YA?AU?$tvec1@I$0A@@0@AEBU10@0AEAU10@@Z ; glm::uaddCarry<0,glm::tvec1>
PUBLIC	??$equal@I$0A@Utvec1@glm@@@glm@@YA?AU?$tvec1@_N$0A@@0@AEBU?$tvec1@I$0A@@0@0@Z ; glm::equal<unsigned int,0,glm::tvec1>
PUBLIC	?length@?$tvec1@_N$0A@@glm@@SAHXZ		; glm::tvec1<bool,0>::length
PUBLIC	??A?$tvec1@_N$0A@@glm@@QEAAAEA_NH@Z		; glm::tvec1<bool,0>::operator[]
PUBLIC	??A?$tvec1@_N$0A@@glm@@QEBAAEB_NH@Z		; glm::tvec1<bool,0>::operator[]
PUBLIC	??0?$tvec1@_N$0A@@glm@@QEAA@W4ctor@1@@Z		; glm::tvec1<bool,0>::tvec1<bool,0>
PUBLIC	??$all@$0A@Utvec1@glm@@@glm@@YA_NAEBU?$tvec1@_N$0A@@0@@Z ; glm::all<0,glm::tvec1>
PUBLIC	?test@usubBorrow@@YAHXZ				; usubBorrow::test
PUBLIC	??$usubBorrow@$0A@Utvec1@glm@@@glm@@YA?AU?$tvec1@I$0A@@0@AEBU10@0AEAU10@@Z ; glm::usubBorrow<0,glm::tvec1>
PUBLIC	??$usubBorrow@$0A@Utvec2@glm@@@glm@@YA?AU?$tvec2@I$0A@@0@AEBU10@0AEAU10@@Z ; glm::usubBorrow<0,glm::tvec2>
PUBLIC	??$equal@I$0A@Utvec2@glm@@@glm@@YA?AU?$tvec2@_N$0A@@0@AEBU?$tvec2@I$0A@@0@0@Z ; glm::equal<unsigned int,0,glm::tvec2>
PUBLIC	?length@?$tvec2@_N$0A@@glm@@SAHXZ		; glm::tvec2<bool,0>::length
PUBLIC	??A?$tvec2@_N$0A@@glm@@QEAAAEA_NH@Z		; glm::tvec2<bool,0>::operator[]
PUBLIC	??A?$tvec2@_N$0A@@glm@@QEBAAEB_NH@Z		; glm::tvec2<bool,0>::operator[]
PUBLIC	??0?$tvec2@_N$0A@@glm@@QEAA@W4ctor@1@@Z		; glm::tvec2<bool,0>::tvec2<bool,0>
PUBLIC	??$all@$0A@Utvec2@glm@@@glm@@YA_NAEBU?$tvec2@_N$0A@@0@@Z ; glm::all<0,glm::tvec2>
PUBLIC	?length@?$tvec3@I$0A@@glm@@SAHXZ		; glm::tvec3<unsigned int,0>::length
PUBLIC	??A?$tvec3@I$0A@@glm@@QEAAAEAIH@Z		; glm::tvec3<unsigned int,0>::operator[]
PUBLIC	??A?$tvec3@I$0A@@glm@@QEBAAEBIH@Z		; glm::tvec3<unsigned int,0>::operator[]
PUBLIC	??0?$tvec3@I$0A@@glm@@QEAA@W4ctor@1@@Z		; glm::tvec3<unsigned int,0>::tvec3<unsigned int,0>
PUBLIC	??0?$tvec3@I$0A@@glm@@QEAA@I@Z			; glm::tvec3<unsigned int,0>::tvec3<unsigned int,0>
PUBLIC	??0?$tvec3@I$0A@@glm@@QEAA@III@Z		; glm::tvec3<unsigned int,0>::tvec3<unsigned int,0>
PUBLIC	??$usubBorrow@$0A@Utvec3@glm@@@glm@@YA?AU?$tvec3@I$0A@@0@AEBU10@0AEAU10@@Z ; glm::usubBorrow<0,glm::tvec3>
PUBLIC	??$equal@I$0A@Utvec3@glm@@@glm@@YA?AU?$tvec3@_N$0A@@0@AEBU?$tvec3@I$0A@@0@0@Z ; glm::equal<unsigned int,0,glm::tvec3>
PUBLIC	?length@?$tvec3@_N$0A@@glm@@SAHXZ		; glm::tvec3<bool,0>::length
PUBLIC	??A?$tvec3@_N$0A@@glm@@QEAAAEA_NH@Z		; glm::tvec3<bool,0>::operator[]
PUBLIC	??A?$tvec3@_N$0A@@glm@@QEBAAEB_NH@Z		; glm::tvec3<bool,0>::operator[]
PUBLIC	??0?$tvec3@_N$0A@@glm@@QEAA@W4ctor@1@@Z		; glm::tvec3<bool,0>::tvec3<bool,0>
PUBLIC	??$all@$0A@Utvec3@glm@@@glm@@YA_NAEBU?$tvec3@_N$0A@@0@@Z ; glm::all<0,glm::tvec3>
PUBLIC	?length@?$tvec4@I$0A@@glm@@SAHXZ		; glm::tvec4<unsigned int,0>::length
PUBLIC	??A?$tvec4@I$0A@@glm@@QEAAAEAIH@Z		; glm::tvec4<unsigned int,0>::operator[]
PUBLIC	??A?$tvec4@I$0A@@glm@@QEBAAEBIH@Z		; glm::tvec4<unsigned int,0>::operator[]
PUBLIC	??0?$tvec4@I$0A@@glm@@QEAA@W4ctor@1@@Z		; glm::tvec4<unsigned int,0>::tvec4<unsigned int,0>
PUBLIC	??0?$tvec4@I$0A@@glm@@QEAA@I@Z			; glm::tvec4<unsigned int,0>::tvec4<unsigned int,0>
PUBLIC	??0?$tvec4@I$0A@@glm@@QEAA@IIII@Z		; glm::tvec4<unsigned int,0>::tvec4<unsigned int,0>
PUBLIC	??$usubBorrow@$0A@Utvec4@glm@@@glm@@YA?AU?$tvec4@I$0A@@0@AEBU10@0AEAU10@@Z ; glm::usubBorrow<0,glm::tvec4>
PUBLIC	??$equal@I$0A@Utvec4@glm@@@glm@@YA?AU?$tvec4@_N$0A@@0@AEBU?$tvec4@I$0A@@0@0@Z ; glm::equal<unsigned int,0,glm::tvec4>
PUBLIC	?test@umulExtended@@YAHXZ			; umulExtended::test
PUBLIC	??$umulExtended@$0A@Utvec1@glm@@@glm@@YAXAEBU?$tvec1@I$0A@@0@0AEAU10@1@Z ; glm::umulExtended<0,glm::tvec1>
PUBLIC	??$umulExtended@$0A@Utvec2@glm@@@glm@@YAXAEBU?$tvec2@I$0A@@0@0AEAU10@1@Z ; glm::umulExtended<0,glm::tvec2>
PUBLIC	??$umulExtended@$0A@Utvec3@glm@@@glm@@YAXAEBU?$tvec3@I$0A@@0@0AEAU10@1@Z ; glm::umulExtended<0,glm::tvec3>
PUBLIC	??$umulExtended@$0A@Utvec4@glm@@@glm@@YAXAEBU?$tvec4@I$0A@@0@0AEAU10@1@Z ; glm::umulExtended<0,glm::tvec4>
PUBLIC	?test@imulExtended@@YAHXZ			; imulExtended::test
PUBLIC	?length@?$tvec1@H$0A@@glm@@SAHXZ		; glm::tvec1<int,0>::length
PUBLIC	??A?$tvec1@H$0A@@glm@@QEBAAEBHH@Z		; glm::tvec1<int,0>::operator[]
PUBLIC	??0?$tvec1@H$0A@@glm@@QEAA@H@Z			; glm::tvec1<int,0>::tvec1<int,0>
PUBLIC	??$imulExtended@$0A@Utvec1@glm@@@glm@@YAXAEBU?$tvec1@H$0A@@0@0AEAU10@1@Z ; glm::imulExtended<0,glm::tvec1>
PUBLIC	??$equal@H$0A@Utvec1@glm@@@glm@@YA?AU?$tvec1@_N$0A@@0@AEBU?$tvec1@H$0A@@0@0@Z ; glm::equal<int,0,glm::tvec1>
PUBLIC	?length@?$tvec2@H$0A@@glm@@SAHXZ		; glm::tvec2<int,0>::length
PUBLIC	??A?$tvec2@H$0A@@glm@@QEBAAEBHH@Z		; glm::tvec2<int,0>::operator[]
PUBLIC	??0?$tvec2@H$0A@@glm@@QEAA@H@Z			; glm::tvec2<int,0>::tvec2<int,0>
PUBLIC	??$imulExtended@$0A@Utvec2@glm@@@glm@@YAXAEBU?$tvec2@H$0A@@0@0AEAU10@1@Z ; glm::imulExtended<0,glm::tvec2>
PUBLIC	??$equal@H$0A@Utvec2@glm@@@glm@@YA?AU?$tvec2@_N$0A@@0@AEBU?$tvec2@H$0A@@0@0@Z ; glm::equal<int,0,glm::tvec2>
PUBLIC	?length@?$tvec3@H$0A@@glm@@SAHXZ		; glm::tvec3<int,0>::length
PUBLIC	??A?$tvec3@H$0A@@glm@@QEBAAEBHH@Z		; glm::tvec3<int,0>::operator[]
PUBLIC	??0?$tvec3@H$0A@@glm@@QEAA@H@Z			; glm::tvec3<int,0>::tvec3<int,0>
PUBLIC	??$imulExtended@$0A@Utvec3@glm@@@glm@@YAXAEBU?$tvec3@H$0A@@0@0AEAU10@1@Z ; glm::imulExtended<0,glm::tvec3>
PUBLIC	??$equal@H$0A@Utvec3@glm@@@glm@@YA?AU?$tvec3@_N$0A@@0@AEBU?$tvec3@H$0A@@0@0@Z ; glm::equal<int,0,glm::tvec3>
PUBLIC	??$imulExtended@$0A@Utvec4@glm@@@glm@@YAXAEBU?$tvec4@H$0A@@0@0AEAU10@1@Z ; glm::imulExtended<0,glm::tvec4>
PUBLIC	?perf@bitCount@@YAH_K@Z				; bitCount::perf
PUBLIC	??0?$allocator@H@std@@QEAA@XZ			; std::allocator<int>::allocator<int>
PUBLIC	?deallocate@?$allocator@H@std@@QEAAXQEAH_K@Z	; std::allocator<int>::deallocate
PUBLIC	?allocate@?$allocator@H@std@@QEAAPEAH_K@Z	; std::allocator<int>::allocate
PUBLIC	?max_size@?$_Default_allocator_traits@V?$allocator@H@std@@@std@@SA_KAEBV?$allocator@H@2@@Z ; std::_Default_allocator_traits<std::allocator<int> >::max_size
PUBLIC	??0?$vector@HV?$allocator@H@std@@@std@@QEAA@XZ	; std::vector<int,std::allocator<int> >::vector<int,std::allocator<int> >
PUBLIC	??1?$vector@HV?$allocator@H@std@@@std@@QEAA@XZ	; std::vector<int,std::allocator<int> >::~vector<int,std::allocator<int> >
PUBLIC	?resize@?$vector@HV?$allocator@H@std@@@std@@QEAAX_K@Z ; std::vector<int,std::allocator<int> >::resize
PUBLIC	?size@?$vector@HV?$allocator@H@std@@@std@@QEBA_KXZ ; std::vector<int,std::allocator<int> >::size
PUBLIC	?max_size@?$vector@HV?$allocator@H@std@@@std@@QEBA_KXZ ; std::vector<int,std::allocator<int> >::max_size
PUBLIC	?capacity@?$vector@HV?$allocator@H@std@@@std@@QEBA_KXZ ; std::vector<int,std::allocator<int> >::capacity
PUBLIC	??A?$vector@HV?$allocator@H@std@@@std@@QEAAAEAH_K@Z ; std::vector<int,std::allocator<int> >::operator[]
PUBLIC	?_Calculate_growth@?$vector@HV?$allocator@H@std@@@std@@AEBA_K_K@Z ; std::vector<int,std::allocator<int> >::_Calculate_growth
PUBLIC	?_Change_array@?$vector@HV?$allocator@H@std@@@std@@AEAAXQEAH_K1@Z ; std::vector<int,std::allocator<int> >::_Change_array
PUBLIC	?_Tidy@?$vector@HV?$allocator@H@std@@@std@@AEAAXXZ ; std::vector<int,std::allocator<int> >::_Tidy
PUBLIC	?_Xlength@?$vector@HV?$allocator@H@std@@@std@@CAXXZ ; std::vector<int,std::allocator<int> >::_Xlength
PUBLIC	?_Orphan_range_unlocked@?$vector@HV?$allocator@H@std@@@std@@AEBAXPEAH0@Z ; std::vector<int,std::allocator<int> >::_Orphan_range_unlocked
PUBLIC	?_Orphan_range_locked@?$vector@HV?$allocator@H@std@@@std@@AEBAXPEAH0@Z ; std::vector<int,std::allocator<int> >::_Orphan_range_locked
PUBLIC	?_Orphan_range@?$vector@HV?$allocator@H@std@@@std@@AEBAXPEAH0@Z ; std::vector<int,std::allocator<int> >::_Orphan_range
PUBLIC	?_Getal@?$vector@HV?$allocator@H@std@@@std@@AEAAAEAV?$allocator@H@2@XZ ; std::vector<int,std::allocator<int> >::_Getal
PUBLIC	?_Getal@?$vector@HV?$allocator@H@std@@@std@@AEBAAEBV?$allocator@H@2@XZ ; std::vector<int,std::allocator<int> >::_Getal
PUBLIC	??0?$_Vector_val@U?$_Simple_types@H@std@@@std@@QEAA@XZ ; std::_Vector_val<std::_Simple_types<int> >::_Vector_val<std::_Simple_types<int> >
PUBLIC	?_Get_first@?$_Compressed_pair@V?$allocator@H@std@@V?$_Vector_val@U?$_Simple_types@H@std@@@2@$00@std@@QEAAAEAV?$allocator@H@2@XZ ; std::_Compressed_pair<std::allocator<int>,std::_Vector_val<std::_Simple_types<int> >,1>::_Get_first
PUBLIC	?_Get_first@?$_Compressed_pair@V?$allocator@H@std@@V?$_Vector_val@U?$_Simple_types@H@std@@@2@$00@std@@QEBAAEBV?$allocator@H@2@XZ ; std::_Compressed_pair<std::allocator<int>,std::_Vector_val<std::_Simple_types<int> >,1>::_Get_first
PUBLIC	??0?$allocator@U?$tvec4@H$0A@@glm@@@std@@QEAA@XZ ; std::allocator<glm::tvec4<int,0> >::allocator<glm::tvec4<int,0> >
PUBLIC	?deallocate@?$allocator@U?$tvec4@H$0A@@glm@@@std@@QEAAXQEAU?$tvec4@H$0A@@glm@@_K@Z ; std::allocator<glm::tvec4<int,0> >::deallocate
PUBLIC	?allocate@?$allocator@U?$tvec4@H$0A@@glm@@@std@@QEAAPEAU?$tvec4@H$0A@@glm@@_K@Z ; std::allocator<glm::tvec4<int,0> >::allocate
PUBLIC	?max_size@?$_Default_allocator_traits@V?$allocator@U?$tvec4@H$0A@@glm@@@std@@@std@@SA_KAEBV?$allocator@U?$tvec4@H$0A@@glm@@@2@@Z ; std::_Default_allocator_traits<std::allocator<glm::tvec4<int,0> > >::max_size
PUBLIC	??0?$vector@U?$tvec4@H$0A@@glm@@V?$allocator@U?$tvec4@H$0A@@glm@@@std@@@std@@QEAA@XZ ; std::vector<glm::tvec4<int,0>,std::allocator<glm::tvec4<int,0> > >::vector<glm::tvec4<int,0>,std::allocator<glm::tvec4<int,0> > >
PUBLIC	??1?$vector@U?$tvec4@H$0A@@glm@@V?$allocator@U?$tvec4@H$0A@@glm@@@std@@@std@@QEAA@XZ ; std::vector<glm::tvec4<int,0>,std::allocator<glm::tvec4<int,0> > >::~vector<glm::tvec4<int,0>,std::allocator<glm::tvec4<int,0> > >
PUBLIC	?resize@?$vector@U?$tvec4@H$0A@@glm@@V?$allocator@U?$tvec4@H$0A@@glm@@@std@@@std@@QEAAX_K@Z ; std::vector<glm::tvec4<int,0>,std::allocator<glm::tvec4<int,0> > >::resize
PUBLIC	?max_size@?$vector@U?$tvec4@H$0A@@glm@@V?$allocator@U?$tvec4@H$0A@@glm@@@std@@@std@@QEBA_KXZ ; std::vector<glm::tvec4<int,0>,std::allocator<glm::tvec4<int,0> > >::max_size
PUBLIC	?capacity@?$vector@U?$tvec4@H$0A@@glm@@V?$allocator@U?$tvec4@H$0A@@glm@@@std@@@std@@QEBA_KXZ ; std::vector<glm::tvec4<int,0>,std::allocator<glm::tvec4<int,0> > >::capacity
PUBLIC	??A?$vector@U?$tvec4@H$0A@@glm@@V?$allocator@U?$tvec4@H$0A@@glm@@@std@@@std@@QEAAAEAU?$tvec4@H$0A@@glm@@_K@Z ; std::vector<glm::tvec4<int,0>,std::allocator<glm::tvec4<int,0> > >::operator[]
PUBLIC	?_Calculate_growth@?$vector@U?$tvec4@H$0A@@glm@@V?$allocator@U?$tvec4@H$0A@@glm@@@std@@@std@@AEBA_K_K@Z ; std::vector<glm::tvec4<int,0>,std::allocator<glm::tvec4<int,0> > >::_Calculate_growth
PUBLIC	?_Change_array@?$vector@U?$tvec4@H$0A@@glm@@V?$allocator@U?$tvec4@H$0A@@glm@@@std@@@std@@AEAAXQEAU?$tvec4@H$0A@@glm@@_K1@Z ; std::vector<glm::tvec4<int,0>,std::allocator<glm::tvec4<int,0> > >::_Change_array
PUBLIC	?_Tidy@?$vector@U?$tvec4@H$0A@@glm@@V?$allocator@U?$tvec4@H$0A@@glm@@@std@@@std@@AEAAXXZ ; std::vector<glm::tvec4<int,0>,std::allocator<glm::tvec4<int,0> > >::_Tidy
PUBLIC	?_Xlength@?$vector@U?$tvec4@H$0A@@glm@@V?$allocator@U?$tvec4@H$0A@@glm@@@std@@@std@@CAXXZ ; std::vector<glm::tvec4<int,0>,std::allocator<glm::tvec4<int,0> > >::_Xlength
PUBLIC	?_Orphan_range_unlocked@?$vector@U?$tvec4@H$0A@@glm@@V?$allocator@U?$tvec4@H$0A@@glm@@@std@@@std@@AEBAXPEAU?$tvec4@H$0A@@glm@@0@Z ; std::vector<glm::tvec4<int,0>,std::allocator<glm::tvec4<int,0> > >::_Orphan_range_unlocked
PUBLIC	?_Orphan_range_locked@?$vector@U?$tvec4@H$0A@@glm@@V?$allocator@U?$tvec4@H$0A@@glm@@@std@@@std@@AEBAXPEAU?$tvec4@H$0A@@glm@@0@Z ; std::vector<glm::tvec4<int,0>,std::allocator<glm::tvec4<int,0> > >::_Orphan_range_locked
PUBLIC	?_Orphan_range@?$vector@U?$tvec4@H$0A@@glm@@V?$allocator@U?$tvec4@H$0A@@glm@@@std@@@std@@AEBAXPEAU?$tvec4@H$0A@@glm@@0@Z ; std::vector<glm::tvec4<int,0>,std::allocator<glm::tvec4<int,0> > >::_Orphan_range
PUBLIC	?_Getal@?$vector@U?$tvec4@H$0A@@glm@@V?$allocator@U?$tvec4@H$0A@@glm@@@std@@@std@@AEAAAEAV?$allocator@U?$tvec4@H$0A@@glm@@@2@XZ ; std::vector<glm::tvec4<int,0>,std::allocator<glm::tvec4<int,0> > >::_Getal
PUBLIC	?_Getal@?$vector@U?$tvec4@H$0A@@glm@@V?$allocator@U?$tvec4@H$0A@@glm@@@std@@@std@@AEBAAEBV?$allocator@U?$tvec4@H$0A@@glm@@@2@XZ ; std::vector<glm::tvec4<int,0>,std::allocator<glm::tvec4<int,0> > >::_Getal
PUBLIC	??0?$_Vector_val@U?$_Simple_types@U?$tvec4@H$0A@@glm@@@std@@@std@@QEAA@XZ ; std::_Vector_val<std::_Simple_types<glm::tvec4<int,0> > >::_Vector_val<std::_Simple_types<glm::tvec4<int,0> > >
PUBLIC	?_Get_first@?$_Compressed_pair@V?$allocator@U?$tvec4@H$0A@@glm@@@std@@V?$_Vector_val@U?$_Simple_types@U?$tvec4@H$0A@@glm@@@std@@@2@$00@std@@QEAAAEAV?$allocator@U?$tvec4@H$0A@@glm@@@2@XZ ; std::_Compressed_pair<std::allocator<glm::tvec4<int,0> >,std::_Vector_val<std::_Simple_types<glm::tvec4<int,0> > >,1>::_Get_first
PUBLIC	?_Get_first@?$_Compressed_pair@V?$allocator@U?$tvec4@H$0A@@glm@@@std@@V?$_Vector_val@U?$_Simple_types@U?$tvec4@H$0A@@glm@@@std@@@2@$00@std@@QEBAAEBV?$allocator@U?$tvec4@H$0A@@glm@@@2@XZ ; std::_Compressed_pair<std::allocator<glm::tvec4<int,0> >,std::_Vector_val<std::_Simple_types<glm::tvec4<int,0> > >,1>::_Get_first
PUBLIC	??$bitCount_if@H@bitCount@@YAHH@Z		; bitCount::bitCount_if<int>
PUBLIC	??$bitCount_vec@_K@bitCount@@YAH_K@Z		; bitCount::bitCount_vec<unsigned __int64>
PUBLIC	??$bitCount@_K@glm@@YAH_K@Z			; glm::bitCount<unsigned __int64>
PUBLIC	??$bitCount@H$0A@Utvec4@glm@@@glm@@YA?AU?$tvec4@H$0A@@0@AEBU10@@Z ; glm::bitCount<int,0,glm::tvec4>
PUBLIC	??$bitCount_bitfield@H@bitCount@@YAHH@Z		; bitCount::bitCount_bitfield<int>
PUBLIC	?test@bitCount@@YAHXZ				; bitCount::test
PUBLIC	??$bitCount@H@glm@@YAHH@Z			; glm::bitCount<int>
PUBLIC	??$bitCount_vec@H@bitCount@@YAHH@Z		; bitCount::bitCount_vec<int>
PUBLIC	main
PUBLIC	??$_Resize@U_Value_init_tag@std@@@?$vector@U?$tvec4@H$0A@@glm@@V?$allocator@U?$tvec4@H$0A@@glm@@@std@@@std@@AEAAX_KAEBU_Value_init_tag@1@@Z ; std::vector<glm::tvec4<int,0>,std::allocator<glm::tvec4<int,0> > >::_Resize<std::_Value_init_tag>
PUBLIC	?allocate@?$allocator@U_Container_proxy@std@@@std@@QEAAPEAU_Container_proxy@2@_K@Z ; std::allocator<std::_Container_proxy>::allocate
PUBLIC	??$?0U?$tvec4@H$0A@@glm@@@?$allocator@U_Container_proxy@std@@@std@@QEAA@AEBV?$allocator@U?$tvec4@H$0A@@glm@@@1@@Z ; std::allocator<std::_Container_proxy>::allocator<std::_Container_proxy><glm::tvec4<int,0> >
PUBLIC	??$exchange@PEAU_Container_proxy@std@@$$T@std@@YAPEAU_Container_proxy@0@AEAPEAU10@$$QEA$$T@Z ; std::exchange<std::_Container_proxy *,std::nullptr_t>
PUBLIC	??$_Delete_plain_internal@V?$allocator@U_Container_proxy@std@@@std@@@std@@YAXAEAV?$allocator@U_Container_proxy@std@@@0@QEAU_Container_proxy@0@@Z ; std::_Delete_plain_internal<std::allocator<std::_Container_proxy> >
PUBLIC	??$?0$$V@?$_Compressed_pair@V?$allocator@U?$tvec4@H$0A@@glm@@@std@@V?$_Vector_val@U?$_Simple_types@U?$tvec4@H$0A@@glm@@@std@@@2@$00@std@@QEAA@U_Zero_then_variadic_args_t@1@@Z ; std::_Compressed_pair<std::allocator<glm::tvec4<int,0> >,std::_Vector_val<std::_Simple_types<glm::tvec4<int,0> > >,1>::_Compressed_pair<std::allocator<glm::tvec4<int,0> >,std::_Vector_val<std::_Simple_types<glm::tvec4<int,0> > >,1><>
PUBLIC	??$_Alloc_proxy@V?$allocator@U_Container_proxy@std@@@std@@@_Container_base12@std@@QEAAX$$QEAV?$allocator@U_Container_proxy@std@@@1@@Z ; std::_Container_base12::_Alloc_proxy<std::allocator<std::_Container_proxy> >
PUBLIC	??$_Resize@U_Value_init_tag@std@@@?$vector@HV?$allocator@H@std@@@std@@AEAAX_KAEBU_Value_init_tag@1@@Z ; std::vector<int,std::allocator<int> >::_Resize<std::_Value_init_tag>
PUBLIC	??$?0H@?$allocator@U_Container_proxy@std@@@std@@QEAA@AEBV?$allocator@H@1@@Z ; std::allocator<std::_Container_proxy>::allocator<std::_Container_proxy><int>
PUBLIC	??$?0$$V@?$_Compressed_pair@V?$allocator@H@std@@V?$_Vector_val@U?$_Simple_types@H@std@@@2@$00@std@@QEAA@U_Zero_then_variadic_args_t@1@@Z ; std::_Compressed_pair<std::allocator<int>,std::_Vector_val<std::_Simple_types<int> >,1>::_Compressed_pair<std::allocator<int>,std::_Vector_val<std::_Simple_types<int> >,1><>
PUBLIC	??$_Resize@U_Value_init_tag@std@@@?$vector@_KV?$allocator@_K@std@@@std@@AEAAX_KAEBU_Value_init_tag@1@@Z ; std::vector<unsigned __int64,std::allocator<unsigned __int64> >::_Resize<std::_Value_init_tag>
PUBLIC	??$?0_K@?$allocator@U_Container_proxy@std@@@std@@QEAA@AEBV?$allocator@_K@1@@Z ; std::allocator<std::_Container_proxy>::allocator<std::_Container_proxy><unsigned __int64>
PUBLIC	??$?0$$V@?$_Compressed_pair@V?$allocator@_K@std@@V?$_Vector_val@U?$_Simple_types@_K@std@@@2@$00@std@@QEAA@U_Zero_then_variadic_args_t@1@@Z ; std::_Compressed_pair<std::allocator<unsigned __int64>,std::_Vector_val<std::_Simple_types<unsigned __int64> >,1>::_Compressed_pair<std::allocator<unsigned __int64>,std::_Vector_val<std::_Simple_types<unsigned __int64> >,1><>
PUBLIC	??$_Resize@U_Value_init_tag@std@@@?$vector@IV?$allocator@I@std@@@std@@AEAAX_KAEBU_Value_init_tag@1@@Z ; std::vector<unsigned int,std::allocator<unsigned int> >::_Resize<std::_Value_init_tag>
PUBLIC	??$?0I@?$allocator@U_Container_proxy@std@@@std@@QEAA@AEBV?$allocator@I@1@@Z ; std::allocator<std::_Container_proxy>::allocator<std::_Container_proxy><unsigned int>
PUBLIC	??$?0$$V@?$_Compressed_pair@V?$allocator@I@std@@V?$_Vector_val@U?$_Simple_types@I@std@@@2@$00@std@@QEAA@U_Zero_then_variadic_args_t@1@@Z ; std::_Compressed_pair<std::allocator<unsigned int>,std::_Vector_val<std::_Simple_types<unsigned int> >,1>::_Compressed_pair<std::allocator<unsigned int>,std::_Vector_val<std::_Simple_types<unsigned int> >,1><>
PUBLIC	??$_Destroy_range@V?$allocator@U?$tvec4@H$0A@@glm@@@std@@@std@@YAXPEAU?$tvec4@H$0A@@glm@@QEAU12@AEAV?$allocator@U?$tvec4@H$0A@@glm@@@0@@Z ; std::_Destroy_range<std::allocator<glm::tvec4<int,0> > >
PUBLIC	??$_Destroy_range@V?$allocator@H@std@@@std@@YAXPEAHQEAHAEAV?$allocator@H@0@@Z ; std::_Destroy_range<std::allocator<int> >
PUBLIC	??$_Destroy_range@V?$allocator@_K@std@@@std@@YAXPEA_KQEA_KAEAV?$allocator@_K@0@@Z ; std::_Destroy_range<std::allocator<unsigned __int64> >
PUBLIC	??$_Destroy_range@V?$allocator@I@std@@@std@@YAXPEAIQEAIAEAV?$allocator@I@0@@Z ; std::_Destroy_range<std::allocator<unsigned int> >
PUBLIC	??$_Deallocate@$0BA@$0A@@std@@YAXPEAX_K@Z	; std::_Deallocate<16,0>
PUBLIC	??$bitfieldInsert@I$0A@Utvec1@glm@@@glm@@YA?AU?$tvec1@I$0A@@0@AEBU10@0HH@Z ; glm::bitfieldInsert<unsigned int,0,glm::tvec1>
PUBLIC	??$bitfieldExtract@I$0A@Utvec1@glm@@@glm@@YA?AU?$tvec1@I$0A@@0@AEBU10@HH@Z ; glm::bitfieldExtract<unsigned int,0,glm::tvec1>
PUBLIC	??$bitfieldReverse@I$0A@Utvec1@glm@@@glm@@YA?AU?$tvec1@I$0A@@0@AEBU10@@Z ; glm::bitfieldReverse<unsigned int,0,glm::tvec1>
PUBLIC	??$bitfieldReverseLoop@I$0A@Utvec1@glm@@@bitfieldReverse@@YA?AU?$tvec1@I$0A@@glm@@AEBU12@@Z ; bitfieldReverse::bitfieldReverseLoop<unsigned int,0,glm::tvec1>
PUBLIC	??$bitfieldReverseOps@I$0A@Utvec1@glm@@@bitfieldReverse@@YA?AU?$tvec1@I$0A@@glm@@AEBU12@@Z ; bitfieldReverse::bitfieldReverseOps<unsigned int,0,glm::tvec1>
PUBLIC	?length@?$tvec1@_K$0A@@glm@@SAHXZ		; glm::tvec1<unsigned __int64,0>::length
PUBLIC	??A?$tvec1@_K$0A@@glm@@QEBAAEB_KH@Z		; glm::tvec1<unsigned __int64,0>::operator[]
PUBLIC	??0?$tvec1@_K$0A@@glm@@QEAA@_K@Z		; glm::tvec1<unsigned __int64,0>::tvec1<unsigned __int64,0>
PUBLIC	??$bitfieldReverse@_K$0A@Utvec1@glm@@@glm@@YA?AU?$tvec1@_K$0A@@0@AEBU10@@Z ; glm::bitfieldReverse<unsigned __int64,0,glm::tvec1>
PUBLIC	??$bitfieldReverseLoop@_K$0A@Utvec1@glm@@@bitfieldReverse@@YA?AU?$tvec1@_K$0A@@glm@@AEBU12@@Z ; bitfieldReverse::bitfieldReverseLoop<unsigned __int64,0,glm::tvec1>
PUBLIC	??$bitfieldReverseOps@_K$0A@Utvec1@glm@@@bitfieldReverse@@YA?AU?$tvec1@_K$0A@@glm@@AEBU12@@Z ; bitfieldReverse::bitfieldReverseOps<unsigned __int64,0,glm::tvec1>
PUBLIC	??$bitCount@I$0A@Utvec1@glm@@@glm@@YA?AU?$tvec1@H$0A@@0@AEBU?$tvec1@I$0A@@0@@Z ; glm::bitCount<unsigned int,0,glm::tvec1>
PUBLIC	??$findMSB@H$0A@Utvec1@glm@@@glm@@YA?AU?$tvec1@H$0A@@0@AEBU10@@Z ; glm::findMSB<int,0,glm::tvec1>
PUBLIC	?call@?$compute_findMSB_vec@H$0A@Utvec4@glm@@$0CA@@detail@glm@@SA?AU?$tvec4@H$0A@@3@AEBU43@@Z ; glm::detail::compute_findMSB_vec<int,0,glm::tvec4,32>::call
PUBLIC	??$findMSB@I$0A@Utvec1@glm@@@glm@@YA?AU?$tvec1@H$0A@@0@AEBU?$tvec1@I$0A@@0@@Z ; glm::findMSB<unsigned int,0,glm::tvec1>
PUBLIC	?call@?$compute_findLSB@H$0CA@@detail@glm@@SAHH@Z ; glm::detail::compute_findLSB<int,32>::call
PUBLIC	??$?0I$0A@@?$tvec1@_K$0A@@glm@@QEAA@AEBU?$tvec1@I$0A@@1@@Z ; glm::tvec1<unsigned __int64,0>::tvec1<unsigned __int64,0><unsigned int,0>
PUBLIC	??$?H_K$0A@@glm@@YA?AU?$tvec1@_K$0A@@0@AEBU10@0@Z ; glm::operator+<unsigned __int64,0>
PUBLIC	??$greaterThan@_K$0A@Utvec1@glm@@@glm@@YA?AU?$tvec1@_N$0A@@0@AEBU?$tvec1@_K$0A@@0@0@Z ; glm::greaterThan<unsigned __int64,0,glm::tvec1>
PUBLIC	??$mix@I_N$0A@Utvec1@glm@@@glm@@YA?AU?$tvec1@I$0A@@0@AEBU10@0AEBU?$tvec1@_N$0A@@0@@Z ; glm::mix<unsigned int,bool,0,glm::tvec1>
PUBLIC	??$?H_K$0A@@glm@@YA?AU?$tvec1@_K$0A@@0@AEBU10@_K@Z ; glm::operator+<unsigned __int64,0>
PUBLIC	??$?L_K$0A@@glm@@YA?AU?$tvec1@_K$0A@@0@AEBU10@0@Z ; glm::operator%<unsigned __int64,0>
PUBLIC	??$?0_K$0A@@?$tvec1@I$0A@@glm@@QEAA@AEBU?$tvec1@_K$0A@@1@@Z ; glm::tvec1<unsigned int,0>::tvec1<unsigned int,0><unsigned __int64,0>
PUBLIC	??$greaterThanEqual@I$0A@Utvec1@glm@@@glm@@YA?AU?$tvec1@_N$0A@@0@AEBU?$tvec1@I$0A@@0@0@Z ; glm::greaterThanEqual<unsigned int,0,glm::tvec1>
PUBLIC	??$?GI$0A@@glm@@YA?AU?$tvec1@I$0A@@0@AEBU10@0@Z	; glm::operator-<unsigned int,0>
PUBLIC	??0?$tvec1@_J$0A@@glm@@QEAA@_J@Z		; glm::tvec1<__int64,0>::tvec1<__int64,0>
PUBLIC	??$?0I$0A@@?$tvec1@_J$0A@@glm@@QEAA@AEBU?$tvec1@I$0A@@1@@Z ; glm::tvec1<__int64,0>::tvec1<__int64,0><unsigned int,0>
PUBLIC	??$?G_J$0A@@glm@@YA?AU?$tvec1@_J$0A@@0@AEBU10@0@Z ; glm::operator-<__int64,0>
PUBLIC	??$?H_J$0A@@glm@@YA?AU?$tvec1@_J$0A@@0@_JAEBU10@@Z ; glm::operator+<__int64,0>
PUBLIC	??$?0_J$0A@@?$tvec1@I$0A@@glm@@QEAA@AEBU?$tvec1@_J$0A@@1@@Z ; glm::tvec1<unsigned int,0>::tvec1<unsigned int,0><__int64,0>
PUBLIC	??$greaterThanEqual@I$0A@Utvec2@glm@@@glm@@YA?AU?$tvec2@_N$0A@@0@AEBU?$tvec2@I$0A@@0@0@Z ; glm::greaterThanEqual<unsigned int,0,glm::tvec2>
PUBLIC	??$mix@I_N$0A@Utvec2@glm@@@glm@@YA?AU?$tvec2@I$0A@@0@AEBU10@0AEBU?$tvec2@_N$0A@@0@@Z ; glm::mix<unsigned int,bool,0,glm::tvec2>
PUBLIC	??$?GI$0A@@glm@@YA?AU?$tvec2@I$0A@@0@AEBU10@0@Z	; glm::operator-<unsigned int,0>
PUBLIC	??0?$tvec2@_J$0A@@glm@@QEAA@_J0@Z		; glm::tvec2<__int64,0>::tvec2<__int64,0>
PUBLIC	??$?0I$0A@@?$tvec2@_J$0A@@glm@@QEAA@AEBU?$tvec2@I$0A@@1@@Z ; glm::tvec2<__int64,0>::tvec2<__int64,0><unsigned int,0>
PUBLIC	??$?G_J$0A@@glm@@YA?AU?$tvec2@_J$0A@@0@AEBU10@0@Z ; glm::operator-<__int64,0>
PUBLIC	??$?H_J$0A@@glm@@YA?AU?$tvec2@_J$0A@@0@_JAEBU10@@Z ; glm::operator+<__int64,0>
PUBLIC	??$?0_J$0A@@?$tvec2@I$0A@@glm@@QEAA@AEBU?$tvec2@_J$0A@@1@@Z ; glm::tvec2<unsigned int,0>::tvec2<unsigned int,0><__int64,0>
PUBLIC	??$greaterThanEqual@I$0A@Utvec3@glm@@@glm@@YA?AU?$tvec3@_N$0A@@0@AEBU?$tvec3@I$0A@@0@0@Z ; glm::greaterThanEqual<unsigned int,0,glm::tvec3>
PUBLIC	??$mix@I_N$0A@Utvec3@glm@@@glm@@YA?AU?$tvec3@I$0A@@0@AEBU10@0AEBU?$tvec3@_N$0A@@0@@Z ; glm::mix<unsigned int,bool,0,glm::tvec3>
PUBLIC	??$?GI$0A@@glm@@YA?AU?$tvec3@I$0A@@0@AEBU10@0@Z	; glm::operator-<unsigned int,0>
PUBLIC	??0?$tvec3@_J$0A@@glm@@QEAA@_J00@Z		; glm::tvec3<__int64,0>::tvec3<__int64,0>
PUBLIC	??$?0I$0A@@?$tvec3@_J$0A@@glm@@QEAA@AEBU?$tvec3@I$0A@@1@@Z ; glm::tvec3<__int64,0>::tvec3<__int64,0><unsigned int,0>
PUBLIC	??$?G_J$0A@@glm@@YA?AU?$tvec3@_J$0A@@0@AEBU10@0@Z ; glm::operator-<__int64,0>
PUBLIC	??$?H_J$0A@@glm@@YA?AU?$tvec3@_J$0A@@0@_JAEBU10@@Z ; glm::operator+<__int64,0>
PUBLIC	??$?0_J$0A@@?$tvec3@I$0A@@glm@@QEAA@AEBU?$tvec3@_J$0A@@1@@Z ; glm::tvec3<unsigned int,0>::tvec3<unsigned int,0><__int64,0>
PUBLIC	??$greaterThanEqual@I$0A@Utvec4@glm@@@glm@@YA?AU?$tvec4@_N$0A@@0@AEBU?$tvec4@I$0A@@0@0@Z ; glm::greaterThanEqual<unsigned int,0,glm::tvec4>
PUBLIC	??$mix@I_N$0A@Utvec4@glm@@@glm@@YA?AU?$tvec4@I$0A@@0@AEBU10@0AEBU?$tvec4@_N$0A@@0@@Z ; glm::mix<unsigned int,bool,0,glm::tvec4>
PUBLIC	??$?GI$0A@@glm@@YA?AU?$tvec4@I$0A@@0@AEBU10@0@Z	; glm::operator-<unsigned int,0>
PUBLIC	??0?$tvec4@_J$0A@@glm@@QEAA@_J@Z		; glm::tvec4<__int64,0>::tvec4<__int64,0>
PUBLIC	??0?$tvec4@_J$0A@@glm@@QEAA@_J000@Z		; glm::tvec4<__int64,0>::tvec4<__int64,0>
PUBLIC	??$?0I$0A@@?$tvec4@_J$0A@@glm@@QEAA@AEBU?$tvec4@I$0A@@1@@Z ; glm::tvec4<__int64,0>::tvec4<__int64,0><unsigned int,0>
PUBLIC	??$?G_J$0A@@glm@@YA?AU?$tvec4@_J$0A@@0@AEBU10@0@Z ; glm::operator-<__int64,0>
PUBLIC	??$?H_J$0A@@glm@@YA?AU?$tvec4@_J$0A@@0@_JAEBU10@@Z ; glm::operator+<__int64,0>
PUBLIC	??$?0_J$0A@@?$tvec4@I$0A@@glm@@QEAA@AEBU?$tvec4@_J$0A@@1@@Z ; glm::tvec4<unsigned int,0>::tvec4<unsigned int,0><__int64,0>
PUBLIC	??$?D_K$0A@@glm@@YA?AU?$tvec1@_K$0A@@0@AEBU10@0@Z ; glm::operator*<unsigned __int64,0>
PUBLIC	??$?5_K$0A@@glm@@YA?AU?$tvec1@_K$0A@@0@AEBU10@_K@Z ; glm::operator>><unsigned __int64,0>
PUBLIC	??0?$tvec2@_K$0A@@glm@@QEAA@_K0@Z		; glm::tvec2<unsigned __int64,0>::tvec2<unsigned __int64,0>
PUBLIC	??$?0I$0A@@?$tvec2@_K$0A@@glm@@QEAA@AEBU?$tvec2@I$0A@@1@@Z ; glm::tvec2<unsigned __int64,0>::tvec2<unsigned __int64,0><unsigned int,0>
PUBLIC	??$?D_K$0A@@glm@@YA?AU?$tvec2@_K$0A@@0@AEBU10@0@Z ; glm::operator*<unsigned __int64,0>
PUBLIC	??$?5_K$0A@@glm@@YA?AU?$tvec2@_K$0A@@0@AEBU10@_K@Z ; glm::operator>><unsigned __int64,0>
PUBLIC	??$?0_K$0A@@?$tvec2@I$0A@@glm@@QEAA@AEBU?$tvec2@_K$0A@@1@@Z ; glm::tvec2<unsigned int,0>::tvec2<unsigned int,0><unsigned __int64,0>
PUBLIC	??0?$tvec3@_K$0A@@glm@@QEAA@_K00@Z		; glm::tvec3<unsigned __int64,0>::tvec3<unsigned __int64,0>
PUBLIC	??$?0I$0A@@?$tvec3@_K$0A@@glm@@QEAA@AEBU?$tvec3@I$0A@@1@@Z ; glm::tvec3<unsigned __int64,0>::tvec3<unsigned __int64,0><unsigned int,0>
PUBLIC	??$?D_K$0A@@glm@@YA?AU?$tvec3@_K$0A@@0@AEBU10@0@Z ; glm::operator*<unsigned __int64,0>
PUBLIC	??$?5_K$0A@@glm@@YA?AU?$tvec3@_K$0A@@0@AEBU10@_K@Z ; glm::operator>><unsigned __int64,0>
PUBLIC	??$?0_K$0A@@?$tvec3@I$0A@@glm@@QEAA@AEBU?$tvec3@_K$0A@@1@@Z ; glm::tvec3<unsigned int,0>::tvec3<unsigned int,0><unsigned __int64,0>
PUBLIC	??0?$tvec4@_K$0A@@glm@@QEAA@_K@Z		; glm::tvec4<unsigned __int64,0>::tvec4<unsigned __int64,0>
PUBLIC	??0?$tvec4@_K$0A@@glm@@QEAA@_K000@Z		; glm::tvec4<unsigned __int64,0>::tvec4<unsigned __int64,0>
PUBLIC	??$?0I$0A@@?$tvec4@_K$0A@@glm@@QEAA@AEBU?$tvec4@I$0A@@1@@Z ; glm::tvec4<unsigned __int64,0>::tvec4<unsigned __int64,0><unsigned int,0>
PUBLIC	??$?D_K$0A@@glm@@YA?AU?$tvec4@_K$0A@@0@AEBU10@0@Z ; glm::operator*<unsigned __int64,0>
PUBLIC	??$?5_K$0A@@glm@@YA?AU?$tvec4@_K$0A@@0@AEBU10@_K@Z ; glm::operator>><unsigned __int64,0>
PUBLIC	??$?0_K$0A@@?$tvec4@I$0A@@glm@@QEAA@AEBU?$tvec4@_K$0A@@1@@Z ; glm::tvec4<unsigned int,0>::tvec4<unsigned int,0><unsigned __int64,0>
PUBLIC	??$?0H$0A@@?$tvec1@_J$0A@@glm@@QEAA@AEBU?$tvec1@H$0A@@1@@Z ; glm::tvec1<__int64,0>::tvec1<__int64,0><int,0>
PUBLIC	??$?D_J$0A@@glm@@YA?AU?$tvec1@_J$0A@@0@AEBU10@0@Z ; glm::operator*<__int64,0>
PUBLIC	??$?I_J$0A@@glm@@YA?AU?$tvec1@_J$0A@@0@AEBU10@_J@Z ; glm::operator&<__int64,0>
PUBLIC	??$?0_J$0A@@?$tvec1@H$0A@@glm@@QEAA@AEBU?$tvec1@_J$0A@@1@@Z ; glm::tvec1<int,0>::tvec1<int,0><__int64,0>
PUBLIC	??$?5_J$0A@@glm@@YA?AU?$tvec1@_J$0A@@0@AEBU10@_J@Z ; glm::operator>><__int64,0>
PUBLIC	??$?0H$0A@@?$tvec2@_J$0A@@glm@@QEAA@AEBU?$tvec2@H$0A@@1@@Z ; glm::tvec2<__int64,0>::tvec2<__int64,0><int,0>
PUBLIC	??$?D_J$0A@@glm@@YA?AU?$tvec2@_J$0A@@0@AEBU10@0@Z ; glm::operator*<__int64,0>
PUBLIC	??$?I_J$0A@@glm@@YA?AU?$tvec2@_J$0A@@0@AEBU10@_J@Z ; glm::operator&<__int64,0>
PUBLIC	??$?0_J$0A@@?$tvec2@H$0A@@glm@@QEAA@AEBU?$tvec2@_J$0A@@1@@Z ; glm::tvec2<int,0>::tvec2<int,0><__int64,0>
PUBLIC	??$?5_J$0A@@glm@@YA?AU?$tvec2@_J$0A@@0@AEBU10@_J@Z ; glm::operator>><__int64,0>
PUBLIC	??$?0H$0A@@?$tvec3@_J$0A@@glm@@QEAA@AEBU?$tvec3@H$0A@@1@@Z ; glm::tvec3<__int64,0>::tvec3<__int64,0><int,0>
PUBLIC	??$?D_J$0A@@glm@@YA?AU?$tvec3@_J$0A@@0@AEBU10@0@Z ; glm::operator*<__int64,0>
PUBLIC	??$?I_J$0A@@glm@@YA?AU?$tvec3@_J$0A@@0@AEBU10@_J@Z ; glm::operator&<__int64,0>
PUBLIC	??$?0_J$0A@@?$tvec3@H$0A@@glm@@QEAA@AEBU?$tvec3@_J$0A@@1@@Z ; glm::tvec3<int,0>::tvec3<int,0><__int64,0>
PUBLIC	??$?5_J$0A@@glm@@YA?AU?$tvec3@_J$0A@@0@AEBU10@_J@Z ; glm::operator>><__int64,0>
PUBLIC	??$?0H$0A@@?$tvec4@_J$0A@@glm@@QEAA@AEBU?$tvec4@H$0A@@1@@Z ; glm::tvec4<__int64,0>::tvec4<__int64,0><int,0>
PUBLIC	??$?D_J$0A@@glm@@YA?AU?$tvec4@_J$0A@@0@AEBU10@0@Z ; glm::operator*<__int64,0>
PUBLIC	??$?I_J$0A@@glm@@YA?AU?$tvec4@_J$0A@@0@AEBU10@_J@Z ; glm::operator&<__int64,0>
PUBLIC	??$?0_J$0A@@?$tvec4@H$0A@@glm@@QEAA@AEBU?$tvec4@_J$0A@@1@@Z ; glm::tvec4<int,0>::tvec4<int,0><__int64,0>
PUBLIC	??$?5_J$0A@@glm@@YA?AU?$tvec4@_J$0A@@0@AEBU10@_J@Z ; glm::operator>><__int64,0>
PUBLIC	??$bitCount@_K$0A@Utvec1@glm@@@glm@@YA?AU?$tvec1@H$0A@@0@AEBU?$tvec1@_K$0A@@0@@Z ; glm::bitCount<unsigned __int64,0,glm::tvec1>
PUBLIC	?call@?$compute_bitfieldBitCountStep@I$0A@Utvec4@glm@@$0A@$00@detail@glm@@SA?AU?$tvec4@I$0A@@3@AEBU43@II@Z ; glm::detail::compute_bitfieldBitCountStep<unsigned int,0,glm::tvec4,0,1>::call
PUBLIC	?call@?$compute_bitfieldBitCountStep@I$0A@Utvec4@glm@@$0A@$0A@@detail@glm@@SA?AU?$tvec4@I$0A@@3@AEBU43@II@Z ; glm::detail::compute_bitfieldBitCountStep<unsigned int,0,glm::tvec4,0,0>::call
PUBLIC	??$?0I$0A@@?$tvec4@H$0A@@glm@@QEAA@AEBU?$tvec4@I$0A@@1@@Z ; glm::tvec4<int,0>::tvec4<int,0><unsigned int,0>
PUBLIC	??$bitCount_bitfield@H$0A@Utvec1@glm@@@bitCount@@YA?AU?$tvec1@H$0A@@glm@@AEBU12@@Z ; bitCount::bitCount_bitfield<int,0,glm::tvec1>
PUBLIC	??$bitCount@H$0A@Utvec1@glm@@@glm@@YA?AU?$tvec1@H$0A@@0@AEBU10@@Z ; glm::bitCount<int,0,glm::tvec1>
PUBLIC	??$_Resize_reallocate@U_Value_init_tag@std@@@?$vector@U?$tvec4@H$0A@@glm@@V?$allocator@U?$tvec4@H$0A@@glm@@@std@@@std@@AEAAX_KAEBU_Value_init_tag@1@@Z ; std::vector<glm::tvec4<int,0>,std::allocator<glm::tvec4<int,0> > >::_Resize_reallocate<std::_Value_init_tag>
PUBLIC	??$_Uninitialized_value_construct_n@V?$allocator@U?$tvec4@H$0A@@glm@@@std@@@std@@YAPEAU?$tvec4@H$0A@@glm@@PEAU12@_KAEAV?$allocator@U?$tvec4@H$0A@@glm@@@0@@Z ; std::_Uninitialized_value_construct_n<std::allocator<glm::tvec4<int,0> > >
PUBLIC	??$_Deallocate_plain@V?$allocator@U_Container_proxy@std@@@std@@@std@@YAXAEAV?$allocator@U_Container_proxy@std@@@0@QEAU_Container_proxy@0@@Z ; std::_Deallocate_plain<std::allocator<std::_Container_proxy> >
PUBLIC	??$_Unfancy@U_Container_proxy@std@@@std@@YAPEAU_Container_proxy@0@PEAU10@@Z ; std::_Unfancy<std::_Container_proxy>
PUBLIC	??$_Construct_in_place@U_Container_proxy@std@@PEAU_Container_base12@2@@std@@YAXAEAU_Container_proxy@0@$$QEAPEAU_Container_base12@0@@Z ; std::_Construct_in_place<std::_Container_proxy,std::_Container_base12 *>
PUBLIC	??$_Resize_reallocate@U_Value_init_tag@std@@@?$vector@HV?$allocator@H@std@@@std@@AEAAX_KAEBU_Value_init_tag@1@@Z ; std::vector<int,std::allocator<int> >::_Resize_reallocate<std::_Value_init_tag>
PUBLIC	??$_Uninitialized_value_construct_n@V?$allocator@H@std@@@std@@YAPEAHPEAH_KAEAV?$allocator@H@0@@Z ; std::_Uninitialized_value_construct_n<std::allocator<int> >
PUBLIC	??$_Resize_reallocate@U_Value_init_tag@std@@@?$vector@_KV?$allocator@_K@std@@@std@@AEAAX_KAEBU_Value_init_tag@1@@Z ; std::vector<unsigned __int64,std::allocator<unsigned __int64> >::_Resize_reallocate<std::_Value_init_tag>
PUBLIC	??$_Uninitialized_value_construct_n@V?$allocator@_K@std@@@std@@YAPEA_KPEA_K_KAEAV?$allocator@_K@0@@Z ; std::_Uninitialized_value_construct_n<std::allocator<unsigned __int64> >
PUBLIC	??$_Resize_reallocate@U_Value_init_tag@std@@@?$vector@IV?$allocator@I@std@@@std@@AEAAX_KAEBU_Value_init_tag@1@@Z ; std::vector<unsigned int,std::allocator<unsigned int> >::_Resize_reallocate<std::_Value_init_tag>
PUBLIC	??$_Uninitialized_value_construct_n@V?$allocator@I@std@@@std@@YAPEAIPEAI_KAEAV?$allocator@I@0@@Z ; std::_Uninitialized_value_construct_n<std::allocator<unsigned int> >
PUBLIC	??$?II$0A@@glm@@YA?AU?$tvec4@I$0A@@0@AEBU10@I@Z	; glm::operator&<unsigned int,0>
PUBLIC	??$?5I$0A@@glm@@YA?AU?$tvec4@I$0A@@0@AEBU10@I@Z	; glm::operator>><unsigned int,0>
PUBLIC	??$?HI$0A@@glm@@YA?AU?$tvec4@I$0A@@0@AEBU10@0@Z	; glm::operator+<unsigned int,0>
PUBLIC	?call@?$functor1@HH$0A@Utvec4@glm@@@detail@glm@@SA?AU?$tvec4@H$0A@@3@P6AHH@ZAEBU43@@Z ; glm::detail::functor1<int,int,0,glm::tvec4>::call
PUBLIC	??$compute_findMSB_32@H@detail@glm@@YAHH@Z	; glm::detail::compute_findMSB_32<int>
PUBLIC	??$_Get_size_of_n@$0BA@@std@@YA_K_K@Z		; std::_Get_size_of_n<16>
PUBLIC	??$_Allocate@$0BA@U_Default_allocate_traits@std@@$0A@@std@@YAPEAX_K@Z ; std::_Allocate<16,std::_Default_allocate_traits,0>
PUBLIC	??$mask@H@detail@glm@@YAHH@Z			; glm::detail::mask<int>
PUBLIC	??$?II$0A@@glm@@YA?AU?$tvec1@I$0A@@0@AEBU10@I@Z	; glm::operator&<unsigned int,0>
PUBLIC	??$?UI$0A@@glm@@YA?AU?$tvec1@I$0A@@0@AEBU10@0@Z	; glm::operator|<unsigned int,0>
PUBLIC	??$?5I$0A@@glm@@YA?AU?$tvec1@I$0A@@0@AEBU10@I@Z	; glm::operator>><unsigned int,0>
PUBLIC	?call@?$compute_bitfieldReverseStep@I$0A@Utvec1@glm@@$0A@$00@detail@glm@@SA?AU?$tvec1@I$0A@@3@AEBU43@II@Z ; glm::detail::compute_bitfieldReverseStep<unsigned int,0,glm::tvec1,0,1>::call
PUBLIC	?call@?$compute_bitfieldReverseStep@I$0A@Utvec1@glm@@$0A@$0A@@detail@glm@@SA?AU?$tvec1@I$0A@@3@AEBU43@II@Z ; glm::detail::compute_bitfieldReverseStep<unsigned int,0,glm::tvec1,0,0>::call
PUBLIC	??$?6I$0A@@glm@@YA?AU?$tvec1@I$0A@@0@AEBU10@I@Z	; glm::operator<<<unsigned int,0>
PUBLIC	??$?_5I@?$tvec1@I$0A@@glm@@QEAAAEAU01@AEBU01@@Z	; glm::tvec1<unsigned int,0>::operator|=<unsigned int>
PUBLIC	??$call@I$0A@Utvec1@glm@@@?$compute_bitfieldReverseStep@$00@bitfieldReverse@@SA?AU?$tvec1@I$0A@@glm@@AEBU23@II@Z ; bitfieldReverse::compute_bitfieldReverseStep<1>::call<unsigned int,0,glm::tvec1>
PUBLIC	??$call@I$0A@Utvec1@glm@@@?$compute_bitfieldReverseStep@$0A@@bitfieldReverse@@SA?AU?$tvec1@I$0A@@glm@@AEBU23@II@Z ; bitfieldReverse::compute_bitfieldReverseStep<0>::call<unsigned int,0,glm::tvec1>
PUBLIC	?call@?$compute_bitfieldReverseStep@_K$0A@Utvec1@glm@@$0A@$00@detail@glm@@SA?AU?$tvec1@_K$0A@@3@AEBU43@_K1@Z ; glm::detail::compute_bitfieldReverseStep<unsigned __int64,0,glm::tvec1,0,1>::call
PUBLIC	??$?I_K$0A@@glm@@YA?AU?$tvec1@_K$0A@@0@AEBU10@_K@Z ; glm::operator&<unsigned __int64,0>
PUBLIC	??$?6_K$0A@@glm@@YA?AU?$tvec1@_K$0A@@0@AEBU10@_K@Z ; glm::operator<<<unsigned __int64,0>
PUBLIC	??$?_5_K@?$tvec1@_K$0A@@glm@@QEAAAEAU01@AEBU01@@Z ; glm::tvec1<unsigned __int64,0>::operator|=<unsigned __int64>
PUBLIC	??$call@_K$0A@Utvec1@glm@@@?$compute_bitfieldReverseStep@$00@bitfieldReverse@@SA?AU?$tvec1@_K$0A@@glm@@AEBU23@_K1@Z ; bitfieldReverse::compute_bitfieldReverseStep<1>::call<unsigned __int64,0,glm::tvec1>
PUBLIC	?call@?$compute_bitfieldBitCountStep@I$0A@Utvec1@glm@@$0A@$00@detail@glm@@SA?AU?$tvec1@I$0A@@3@AEBU43@II@Z ; glm::detail::compute_bitfieldBitCountStep<unsigned int,0,glm::tvec1,0,1>::call
PUBLIC	?call@?$compute_bitfieldBitCountStep@I$0A@Utvec1@glm@@$0A@$0A@@detail@glm@@SA?AU?$tvec1@I$0A@@3@AEBU43@II@Z ; glm::detail::compute_bitfieldBitCountStep<unsigned int,0,glm::tvec1,0,0>::call
PUBLIC	??$?0I$0A@@?$tvec1@H$0A@@glm@@QEAA@AEBU?$tvec1@I$0A@@1@@Z ; glm::tvec1<int,0>::tvec1<int,0><unsigned int,0>
PUBLIC	?call@?$compute_findMSB_vec@H$0A@Utvec1@glm@@$0CA@@detail@glm@@SA?AU?$tvec1@H$0A@@3@AEBU43@@Z ; glm::detail::compute_findMSB_vec<int,0,glm::tvec1,32>::call
PUBLIC	?call@?$compute_findMSB_vec@I$0A@Utvec1@glm@@$0CA@@detail@glm@@SA?AU?$tvec1@H$0A@@3@AEBU?$tvec1@I$0A@@3@@Z ; glm::detail::compute_findMSB_vec<unsigned int,0,glm::tvec1,32>::call
PUBLIC	?call@?$compute_mix_vector@I_N$0A@Utvec1@glm@@$0A@@detail@glm@@SA?AU?$tvec1@I$0A@@3@AEBU43@0AEBU?$tvec1@_N$0A@@3@@Z ; glm::detail::compute_mix_vector<unsigned int,bool,0,glm::tvec1,0>::call
PUBLIC	?call@?$compute_mix_vector@I_N$0A@Utvec2@glm@@$0A@@detail@glm@@SA?AU?$tvec2@I$0A@@3@AEBU43@0AEBU?$tvec2@_N$0A@@3@@Z ; glm::detail::compute_mix_vector<unsigned int,bool,0,glm::tvec2,0>::call
PUBLIC	?call@?$compute_mix_vector@I_N$0A@Utvec3@glm@@$0A@@detail@glm@@SA?AU?$tvec3@I$0A@@3@AEBU43@0AEBU?$tvec3@_N$0A@@3@@Z ; glm::detail::compute_mix_vector<unsigned int,bool,0,glm::tvec3,0>::call
PUBLIC	?call@?$compute_mix_vector@I_N$0A@Utvec4@glm@@$0A@@detail@glm@@SA?AU?$tvec4@I$0A@@3@AEBU43@0AEBU?$tvec4@_N$0A@@3@@Z ; glm::detail::compute_mix_vector<unsigned int,bool,0,glm::tvec4,0>::call
PUBLIC	??$?ZI@?$tvec4@I$0A@@glm@@QEAAAEAU01@AEBU01@@Z	; glm::tvec4<unsigned int,0>::operator-=<unsigned int>
PUBLIC	??$?Z_J@?$tvec4@_J$0A@@glm@@QEAAAEAU01@AEBU01@@Z ; glm::tvec4<__int64,0>::operator-=<__int64>
PUBLIC	??$?Y_J@?$tvec4@_J$0A@@glm@@QEAAAEAU01@_J@Z	; glm::tvec4<__int64,0>::operator+=<__int64>
PUBLIC	??$?X_K@?$tvec4@_K$0A@@glm@@QEAAAEAU01@AEBU01@@Z ; glm::tvec4<unsigned __int64,0>::operator*=<unsigned __int64>
PUBLIC	??$?_2_K@?$tvec4@_K$0A@@glm@@QEAAAEAU01@_K@Z	; glm::tvec4<unsigned __int64,0>::operator>>=<unsigned __int64>
PUBLIC	??$?X_J@?$tvec4@_J$0A@@glm@@QEAAAEAU01@AEBU01@@Z ; glm::tvec4<__int64,0>::operator*=<__int64>
PUBLIC	??$?_4_J@?$tvec4@_J$0A@@glm@@QEAAAEAU01@_J@Z	; glm::tvec4<__int64,0>::operator&=<__int64>
PUBLIC	??$?_2_J@?$tvec4@_J$0A@@glm@@QEAAAEAU01@_J@Z	; glm::tvec4<__int64,0>::operator>>=<__int64>
PUBLIC	?call@?$compute_bitfieldBitCountStep@_K$0A@Utvec1@glm@@$0A@$00@detail@glm@@SA?AU?$tvec1@_K$0A@@3@AEBU43@_K1@Z ; glm::detail::compute_bitfieldBitCountStep<unsigned __int64,0,glm::tvec1,0,1>::call
PUBLIC	??$?0_K$0A@@?$tvec1@H$0A@@glm@@QEAA@AEBU?$tvec1@_K$0A@@1@@Z ; glm::tvec1<int,0>::tvec1<int,0><unsigned __int64,0>
PUBLIC	??$call@I$0A@Utvec1@glm@@@?$compute_bitfieldBitCountStep@$00@bitCount@@SA?AU?$tvec1@I$0A@@glm@@AEBU23@II@Z ; bitCount::compute_bitfieldBitCountStep<1>::call<unsigned int,0,glm::tvec1>
PUBLIC	??$call@I$0A@Utvec1@glm@@@?$compute_bitfieldBitCountStep@$0A@@bitCount@@SA?AU?$tvec1@I$0A@@glm@@AEBU23@II@Z ; bitCount::compute_bitfieldBitCountStep<0>::call<unsigned int,0,glm::tvec1>
PUBLIC	??$_Uninitialized_move@PEAU?$tvec4@H$0A@@glm@@V?$allocator@U?$tvec4@H$0A@@glm@@@std@@@std@@YAPEAU?$tvec4@H$0A@@glm@@QEAU12@0PEAU12@AEAV?$allocator@U?$tvec4@H$0A@@glm@@@0@@Z ; std::_Uninitialized_move<glm::tvec4<int,0> *,std::allocator<glm::tvec4<int,0> > >
PUBLIC	??0?$_Uninitialized_backout_al@V?$allocator@U?$tvec4@H$0A@@glm@@@std@@@std@@QEAA@PEAU?$tvec4@H$0A@@glm@@AEAV?$allocator@U?$tvec4@H$0A@@glm@@@1@@Z ; std::_Uninitialized_backout_al<std::allocator<glm::tvec4<int,0> > >::_Uninitialized_backout_al<std::allocator<glm::tvec4<int,0> > >
PUBLIC	??1?$_Uninitialized_backout_al@V?$allocator@U?$tvec4@H$0A@@glm@@@std@@@std@@QEAA@XZ ; std::_Uninitialized_backout_al<std::allocator<glm::tvec4<int,0> > >::~_Uninitialized_backout_al<std::allocator<glm::tvec4<int,0> > >
PUBLIC	?_Release@?$_Uninitialized_backout_al@V?$allocator@U?$tvec4@H$0A@@glm@@@std@@@std@@QEAAPEAU?$tvec4@H$0A@@glm@@XZ ; std::_Uninitialized_backout_al<std::allocator<glm::tvec4<int,0> > >::_Release
PUBLIC	??$_Emplace_back@$$V@?$_Uninitialized_backout_al@V?$allocator@U?$tvec4@H$0A@@glm@@@std@@@std@@QEAAXXZ ; std::_Uninitialized_backout_al<std::allocator<glm::tvec4<int,0> > >::_Emplace_back<>
PUBLIC	?deallocate@?$_Default_allocator_traits@V?$allocator@U_Container_proxy@std@@@std@@@std@@SAXAEAV?$allocator@U_Container_proxy@std@@@2@QEAU_Container_proxy@2@_K@Z ; std::_Default_allocator_traits<std::allocator<std::_Container_proxy> >::deallocate
PUBLIC	??$addressof@U_Container_proxy@std@@@std@@YAPEAU_Container_proxy@0@AEAU10@@Z ; std::addressof<std::_Container_proxy>
PUBLIC	??$_Voidify_iter@PEAU_Container_proxy@std@@@std@@YAPEAXPEAU_Container_proxy@0@@Z ; std::_Voidify_iter<std::_Container_proxy *>
PUBLIC	??$forward@PEAU_Container_base12@std@@@std@@YA$$QEAPEAU_Container_base12@0@AEAPEAU10@@Z ; std::forward<std::_Container_base12 *>
PUBLIC	??$_Uninitialized_move@PEAHV?$allocator@H@std@@@std@@YAPEAHQEAH0PEAHAEAV?$allocator@H@0@@Z ; std::_Uninitialized_move<int *,std::allocator<int> >
PUBLIC	??$_Unfancy@H@std@@YAPEAHPEAH@Z			; std::_Unfancy<int>
PUBLIC	??$_Zero_range@PEAH@std@@YAPEAHQEAH0@Z		; std::_Zero_range<int *>
PUBLIC	??0?$_Uninitialized_backout_al@V?$allocator@H@std@@@std@@QEAA@PEAHAEAV?$allocator@H@1@@Z ; std::_Uninitialized_backout_al<std::allocator<int> >::_Uninitialized_backout_al<std::allocator<int> >
PUBLIC	??1?$_Uninitialized_backout_al@V?$allocator@H@std@@@std@@QEAA@XZ ; std::_Uninitialized_backout_al<std::allocator<int> >::~_Uninitialized_backout_al<std::allocator<int> >
PUBLIC	?_Release@?$_Uninitialized_backout_al@V?$allocator@H@std@@@std@@QEAAPEAHXZ ; std::_Uninitialized_backout_al<std::allocator<int> >::_Release
PUBLIC	??$_Emplace_back@$$V@?$_Uninitialized_backout_al@V?$allocator@H@std@@@std@@QEAAXXZ ; std::_Uninitialized_backout_al<std::allocator<int> >::_Emplace_back<>
PUBLIC	??$_Uninitialized_move@PEA_KV?$allocator@_K@std@@@std@@YAPEA_KQEA_K0PEA_KAEAV?$allocator@_K@0@@Z ; std::_Uninitialized_move<unsigned __int64 *,std::allocator<unsigned __int64> >
PUBLIC	??$_Unfancy@_K@std@@YAPEA_KPEA_K@Z		; std::_Unfancy<unsigned __int64>
PUBLIC	??$_Zero_range@PEA_K@std@@YAPEA_KQEA_K0@Z	; std::_Zero_range<unsigned __int64 *>
PUBLIC	??0?$_Uninitialized_backout_al@V?$allocator@_K@std@@@std@@QEAA@PEA_KAEAV?$allocator@_K@1@@Z ; std::_Uninitialized_backout_al<std::allocator<unsigned __int64> >::_Uninitialized_backout_al<std::allocator<unsigned __int64> >
PUBLIC	??1?$_Uninitialized_backout_al@V?$allocator@_K@std@@@std@@QEAA@XZ ; std::_Uninitialized_backout_al<std::allocator<unsigned __int64> >::~_Uninitialized_backout_al<std::allocator<unsigned __int64> >
PUBLIC	?_Release@?$_Uninitialized_backout_al@V?$allocator@_K@std@@@std@@QEAAPEA_KXZ ; std::_Uninitialized_backout_al<std::allocator<unsigned __int64> >::_Release
PUBLIC	??$_Emplace_back@$$V@?$_Uninitialized_backout_al@V?$allocator@_K@std@@@std@@QEAAXXZ ; std::_Uninitialized_backout_al<std::allocator<unsigned __int64> >::_Emplace_back<>
PUBLIC	??$_Uninitialized_move@PEAIV?$allocator@I@std@@@std@@YAPEAIQEAI0PEAIAEAV?$allocator@I@0@@Z ; std::_Uninitialized_move<unsigned int *,std::allocator<unsigned int> >
PUBLIC	??$_Unfancy@I@std@@YAPEAIPEAI@Z			; std::_Unfancy<unsigned int>
PUBLIC	??$_Zero_range@PEAI@std@@YAPEAIQEAI0@Z		; std::_Zero_range<unsigned int *>
PUBLIC	??0?$_Uninitialized_backout_al@V?$allocator@I@std@@@std@@QEAA@PEAIAEAV?$allocator@I@1@@Z ; std::_Uninitialized_backout_al<std::allocator<unsigned int> >::_Uninitialized_backout_al<std::allocator<unsigned int> >
PUBLIC	??1?$_Uninitialized_backout_al@V?$allocator@I@std@@@std@@QEAA@XZ ; std::_Uninitialized_backout_al<std::allocator<unsigned int> >::~_Uninitialized_backout_al<std::allocator<unsigned int> >
PUBLIC	?_Release@?$_Uninitialized_backout_al@V?$allocator@I@std@@@std@@QEAAPEAIXZ ; std::_Uninitialized_backout_al<std::allocator<unsigned int> >::_Release
PUBLIC	??$_Emplace_back@$$V@?$_Uninitialized_backout_al@V?$allocator@I@std@@@std@@QEAAXXZ ; std::_Uninitialized_backout_al<std::allocator<unsigned int> >::_Emplace_back<>
PUBLIC	??$?_4I@?$tvec4@I$0A@@glm@@QEAAAEAU01@I@Z	; glm::tvec4<unsigned int,0>::operator&=<unsigned int>
PUBLIC	??$?_2I@?$tvec4@I$0A@@glm@@QEAAAEAU01@I@Z	; glm::tvec4<unsigned int,0>::operator>>=<unsigned int>
PUBLIC	??$?YI@?$tvec4@I$0A@@glm@@QEAAAEAU01@AEBU01@@Z	; glm::tvec4<unsigned int,0>::operator+=<unsigned int>
PUBLIC	??$_Allocate_manually_vector_aligned@U_Default_allocate_traits@std@@@std@@YAPEAX_K@Z ; std::_Allocate_manually_vector_aligned<std::_Default_allocate_traits>
PUBLIC	?call@?$functor1@HI$0A@Utvec1@glm@@@detail@glm@@SA?AU?$tvec1@H$0A@@3@P6AHI@ZAEBU?$tvec1@I$0A@@3@@Z ; glm::detail::functor1<int,unsigned int,0,glm::tvec1>::call
PUBLIC	??$compute_findMSB_32@I@detail@glm@@YAHI@Z	; glm::detail::compute_findMSB_32<unsigned int>
PUBLIC	?call@?$functor1@HH$0A@Utvec1@glm@@@detail@glm@@SA?AU?$tvec1@H$0A@@3@P6AHH@ZAEBU43@@Z ; glm::detail::functor1<int,int,0,glm::tvec1>::call
PUBLIC	??$?HI$0A@@glm@@YA?AU?$tvec1@I$0A@@0@AEBU10@0@Z	; glm::operator+<unsigned int,0>
PUBLIC	??$?U_K$0A@@glm@@YA?AU?$tvec1@_K$0A@@0@AEBU10@0@Z ; glm::operator|<unsigned __int64,0>
PUBLIC	??$min@_K@std@@YAAEB_KAEB_K0@Z			; std::min<unsigned __int64>
PUBLIC	??$_Get_size_of_n@$03@std@@YA_K_K@Z		; std::_Get_size_of_n<4>
PUBLIC	??$_Get_size_of_n@$07@std@@YA_K_K@Z		; std::_Get_size_of_n<8>
PUBLIC	?call@?$compute_vec4_sub@I$0A@$0A@@detail@glm@@SA?AU?$tvec4@I$0A@@3@AEBU43@0@Z ; glm::detail::compute_vec4_sub<unsigned int,0,0>::call
PUBLIC	?call@?$compute_vec4_sub@_J$0A@$0A@@detail@glm@@SA?AU?$tvec4@_J$0A@@3@AEBU43@0@Z ; glm::detail::compute_vec4_sub<__int64,0,0>::call
PUBLIC	?call@?$compute_vec4_add@_J$0A@$0A@@detail@glm@@SA?AU?$tvec4@_J$0A@@3@AEBU43@0@Z ; glm::detail::compute_vec4_add<__int64,0,0>::call
PUBLIC	?call@?$compute_vec4_mul@_K$0A@$0A@@detail@glm@@SA?AU?$tvec4@_K$0A@@3@AEBU43@0@Z ; glm::detail::compute_vec4_mul<unsigned __int64,0,0>::call
PUBLIC	?call@?$compute_vec4_shift_right@_K$0A@$0?0$0EA@$0A@@detail@glm@@SA?AU?$tvec4@_K$0A@@3@AEBU43@0@Z ; glm::detail::compute_vec4_shift_right<unsigned __int64,0,-1,64,0>::call
PUBLIC	?call@?$compute_vec4_mul@_J$0A@$0A@@detail@glm@@SA?AU?$tvec4@_J$0A@@3@AEBU43@0@Z ; glm::detail::compute_vec4_mul<__int64,0,0>::call
PUBLIC	?call@?$compute_vec4_and@_J$0A@$0?0$0EA@$0A@@detail@glm@@SA?AU?$tvec4@_J$0A@@3@AEBU43@0@Z ; glm::detail::compute_vec4_and<__int64,0,-1,64,0>::call
PUBLIC	?call@?$compute_vec4_shift_right@_J$0A@$0?0$0EA@$0A@@detail@glm@@SA?AU?$tvec4@_J$0A@@3@AEBU43@0@Z ; glm::detail::compute_vec4_shift_right<__int64,0,-1,64,0>::call
PUBLIC	??$_Get_unwrapped@AEBQEAU?$tvec4@H$0A@@glm@@@std@@YA?A_TAEBQEAU?$tvec4@H$0A@@glm@@@Z ; std::_Get_unwrapped<glm::tvec4<int,0> * const &>
PUBLIC	??$move@AEAU?$tvec4@H$0A@@glm@@@std@@YA$$QEAU?$tvec4@H$0A@@glm@@AEAU12@@Z ; std::move<glm::tvec4<int,0> &>
PUBLIC	??$_Unfancy@U?$tvec4@H$0A@@glm@@@std@@YAPEAU?$tvec4@H$0A@@glm@@PEAU12@@Z ; std::_Unfancy<glm::tvec4<int,0> >
PUBLIC	??$_Copy_memmove@PEAU?$tvec4@H$0A@@glm@@PEAU12@@std@@YAPEAU?$tvec4@H$0A@@glm@@PEAU12@00@Z ; std::_Copy_memmove<glm::tvec4<int,0> *,glm::tvec4<int,0> *>
PUBLIC	??$_Emplace_back@U?$tvec4@H$0A@@glm@@@?$_Uninitialized_backout_al@V?$allocator@U?$tvec4@H$0A@@glm@@@std@@@std@@QEAAX$$QEAU?$tvec4@H$0A@@glm@@@Z ; std::_Uninitialized_backout_al<std::allocator<glm::tvec4<int,0> > >::_Emplace_back<glm::tvec4<int,0> >
PUBLIC	??$construct@U?$tvec4@H$0A@@glm@@$$V@?$_Default_allocator_traits@V?$allocator@U?$tvec4@H$0A@@glm@@@std@@@std@@SAXAEAV?$allocator@U?$tvec4@H$0A@@glm@@@1@QEAU?$tvec4@H$0A@@glm@@@Z ; std::_Default_allocator_traits<std::allocator<glm::tvec4<int,0> > >::construct<glm::tvec4<int,0> >
PUBLIC	??$_Get_unwrapped@AEBQEAH@std@@YA?A_TAEBQEAH@Z	; std::_Get_unwrapped<int * const &>
PUBLIC	??$move@AEAH@std@@YA$$QEAHAEAH@Z		; std::move<int &>
PUBLIC	??$_Copy_memmove@PEAHPEAH@std@@YAPEAHPEAH00@Z	; std::_Copy_memmove<int *,int *>
PUBLIC	??$_Emplace_back@H@?$_Uninitialized_backout_al@V?$allocator@H@std@@@std@@QEAAX$$QEAH@Z ; std::_Uninitialized_backout_al<std::allocator<int> >::_Emplace_back<int>
PUBLIC	??$_To_address@PEAH@std@@YA?A_PAEBQEAH@Z	; std::_To_address<int *>
PUBLIC	??$construct@H$$V@?$_Default_allocator_traits@V?$allocator@H@std@@@std@@SAXAEAV?$allocator@H@1@QEAH@Z ; std::_Default_allocator_traits<std::allocator<int> >::construct<int>
PUBLIC	??$_Get_unwrapped@AEBQEA_K@std@@YA?A_TAEBQEA_K@Z ; std::_Get_unwrapped<unsigned __int64 * const &>
PUBLIC	??$move@AEA_K@std@@YA$$QEA_KAEA_K@Z		; std::move<unsigned __int64 &>
PUBLIC	??$_Copy_memmove@PEA_KPEA_K@std@@YAPEA_KPEA_K00@Z ; std::_Copy_memmove<unsigned __int64 *,unsigned __int64 *>
PUBLIC	??$_Emplace_back@_K@?$_Uninitialized_backout_al@V?$allocator@_K@std@@@std@@QEAAX$$QEA_K@Z ; std::_Uninitialized_backout_al<std::allocator<unsigned __int64> >::_Emplace_back<unsigned __int64>
PUBLIC	??$_To_address@PEA_K@std@@YA?A_PAEBQEA_K@Z	; std::_To_address<unsigned __int64 *>
PUBLIC	??$construct@_K$$V@?$_Default_allocator_traits@V?$allocator@_K@std@@@std@@SAXAEAV?$allocator@_K@1@QEA_K@Z ; std::_Default_allocator_traits<std::allocator<unsigned __int64> >::construct<unsigned __int64>
PUBLIC	??$_Get_unwrapped@AEBQEAI@std@@YA?A_TAEBQEAI@Z	; std::_Get_unwrapped<unsigned int * const &>
PUBLIC	??$move@AEAI@std@@YA$$QEAIAEAI@Z		; std::move<unsigned int &>
PUBLIC	??$_Copy_memmove@PEAIPEAI@std@@YAPEAIPEAI00@Z	; std::_Copy_memmove<unsigned int *,unsigned int *>
PUBLIC	??$_Emplace_back@I@?$_Uninitialized_backout_al@V?$allocator@I@std@@@std@@QEAAX$$QEAI@Z ; std::_Uninitialized_backout_al<std::allocator<unsigned int> >::_Emplace_back<unsigned int>
PUBLIC	??$_To_address@PEAI@std@@YA?A_PAEBQEAI@Z	; std::_To_address<unsigned int *>
PUBLIC	??$construct@I$$V@?$_Default_allocator_traits@V?$allocator@I@std@@@std@@SAXAEAV?$allocator@I@1@QEAI@Z ; std::_Default_allocator_traits<std::allocator<unsigned int> >::construct<unsigned int>
PUBLIC	?call@?$compute_vec4_and@I$0A@$0?0$0CA@$0A@@detail@glm@@SA?AU?$tvec4@I$0A@@3@AEBU43@0@Z ; glm::detail::compute_vec4_and<unsigned int,0,-1,32,0>::call
PUBLIC	?call@?$compute_vec4_shift_right@I$0A@$0?0$0CA@$0A@@detail@glm@@SA?AU?$tvec4@I$0A@@3@AEBU43@0@Z ; glm::detail::compute_vec4_shift_right<unsigned int,0,-1,32,0>::call
PUBLIC	?call@?$compute_vec4_add@I$0A@$0A@@detail@glm@@SA?AU?$tvec4@I$0A@@3@AEBU43@0@Z ; glm::detail::compute_vec4_add<unsigned int,0,0>::call
PUBLIC	??$_To_address@PEAU?$tvec4@H$0A@@glm@@@std@@YA?A_PAEBQEAU?$tvec4@H$0A@@glm@@@Z ; std::_To_address<glm::tvec4<int,0> *>
PUBLIC	??$forward@U?$tvec4@H$0A@@glm@@@std@@YA$$QEAU?$tvec4@H$0A@@glm@@AEAU12@@Z ; std::forward<glm::tvec4<int,0> >
PUBLIC	??$construct@U?$tvec4@H$0A@@glm@@U12@@?$_Default_allocator_traits@V?$allocator@U?$tvec4@H$0A@@glm@@@std@@@std@@SAXAEAV?$allocator@U?$tvec4@H$0A@@glm@@@1@QEAU?$tvec4@H$0A@@glm@@$$QEAU34@@Z ; std::_Default_allocator_traits<std::allocator<glm::tvec4<int,0> > >::construct<glm::tvec4<int,0>,glm::tvec4<int,0> >
PUBLIC	??$_Voidify_iter@PEAU?$tvec4@H$0A@@glm@@@std@@YAPEAXPEAU?$tvec4@H$0A@@glm@@@Z ; std::_Voidify_iter<glm::tvec4<int,0> *>
PUBLIC	??$forward@H@std@@YA$$QEAHAEAH@Z		; std::forward<int>
PUBLIC	??$construct@HH@?$_Default_allocator_traits@V?$allocator@H@std@@@std@@SAXAEAV?$allocator@H@1@QEAH$$QEAH@Z ; std::_Default_allocator_traits<std::allocator<int> >::construct<int,int>
PUBLIC	??$_Voidify_iter@PEAH@std@@YAPEAXPEAH@Z		; std::_Voidify_iter<int *>
PUBLIC	??$forward@_K@std@@YA$$QEA_KAEA_K@Z		; std::forward<unsigned __int64>
PUBLIC	??$construct@_K_K@?$_Default_allocator_traits@V?$allocator@_K@std@@@std@@SAXAEAV?$allocator@_K@1@QEA_K$$QEA_K@Z ; std::_Default_allocator_traits<std::allocator<unsigned __int64> >::construct<unsigned __int64,unsigned __int64>
PUBLIC	??$_Voidify_iter@PEA_K@std@@YAPEAXPEA_K@Z	; std::_Voidify_iter<unsigned __int64 *>
PUBLIC	??$forward@I@std@@YA$$QEAIAEAI@Z		; std::forward<unsigned int>
PUBLIC	??$construct@II@?$_Default_allocator_traits@V?$allocator@I@std@@@std@@SAXAEAV?$allocator@I@1@QEAI$$QEAI@Z ; std::_Default_allocator_traits<std::allocator<unsigned int> >::construct<unsigned int,unsigned int>
PUBLIC	??$_Voidify_iter@PEAI@std@@YAPEAXPEAI@Z		; std::_Voidify_iter<unsigned int *>
PUBLIC	?_OptionsStorage@?1??__local_stdio_printf_options@@9@4_KA ; `__local_stdio_printf_options'::`2'::_OptionsStorage
PUBLIC	??_7exception@std@@6B@				; std::exception::`vftable'
PUBLIC	??_C@_0BC@EOODALEL@Unknown?5exception@		; `string'
PUBLIC	??_7bad_alloc@std@@6B@				; std::bad_alloc::`vftable'
PUBLIC	??_7bad_array_new_length@std@@6B@		; std::bad_array_new_length::`vftable'
PUBLIC	??_C@_0BF@KINCDENJ@bad?5array?5new?5length@	; `string'
PUBLIC	_TI3?AVbad_array_new_length@std@@
PUBLIC	_CTA3?AVbad_array_new_length@std@@
PUBLIC	??_R0?AVbad_array_new_length@std@@@8		; std::bad_array_new_length `RTTI Type Descriptor'
PUBLIC	_CT??_R0?AVbad_array_new_length@std@@@8??0bad_array_new_length@std@@QEAA@AEBV01@@Z24
PUBLIC	??_R0?AVbad_alloc@std@@@8			; std::bad_alloc `RTTI Type Descriptor'
PUBLIC	_CT??_R0?AVbad_alloc@std@@@8??0bad_alloc@std@@QEAA@AEBV01@@Z24
PUBLIC	??_R0?AVexception@std@@@8			; std::exception `RTTI Type Descriptor'
PUBLIC	_CT??_R0?AVexception@std@@@8??0exception@std@@QEAA@AEBV01@@Z24
PUBLIC	??_C@_0BB@FCMFBGOM@invalid?5argument@		; `string'
PUBLIC	??_C@_02DKCKIIND@?$CFs@				; `string'
PUBLIC	??_C@_0GC@DJFHHHKN@C?3?2Program?5Files?2Microsoft?5Visu@ ; `string'
PUBLIC	??_C@_1ME@GEFGDEOM@?$AAC?$AA?3?$AA?2?$AAP?$AAr?$AAo?$AAg?$AAr?$AAa?$AAm?$AA?5?$AAF?$AAi?$AAl?$AAe@ ; `string'
PUBLIC	??_C@_11LOCGONAA@@				; `string'
PUBLIC	??_C@_1CG@JNLFBNGN@?$AA?$CC?$AAi?$AAn?$AAv?$AAa?$AAl?$AAi?$AAd?$AA?5?$AAa?$AAr?$AAg?$AAu?$AAm?$AAe@ ; `string'
PUBLIC	??_C@_0BO@PFKOHNJC@vector?5subscript?5out?5of?5range@ ; `string'
PUBLIC	??_C@_0GB@GDCALCPO@C?3?2Program?5Files?2Microsoft?5Visu@ ; `string'
PUBLIC	??_C@_1MC@BJDJHFOD@?$AAC?$AA?3?$AA?2?$AAP?$AAr?$AAo?$AAg?$AAr?$AAa?$AAm?$AA?5?$AAF?$AAi?$AAl?$AAe@ ; `string'
PUBLIC	??_C@_1EA@LEKOKFNB@?$AA?$CC?$AAv?$AAe?$AAc?$AAt?$AAo?$AAr?$AA?5?$AAs?$AAu?$AAb?$AAs?$AAc?$AAr?$AAi@ ; `string'
PUBLIC	??_C@_0DG@KGHKKGBC@null?5pointer?5cannot?5point?5to?5a?5@ ; `string'
PUBLIC	??_C@_1HA@FACCKGGH@?$AA?$CC?$AAn?$AAu?$AAl?$AAl?$AA?5?$AAp?$AAo?$AAi?$AAn?$AAt?$AAe?$AAr?$AA?5?$AAc@ ; `string'
PUBLIC	??_C@_1LG@FPDAFGJN@?$AAC?$AA?3?$AA?2?$AAU?$AAs?$AAe?$AAr?$AAs?$AA?2?$AAk?$AAs?$AAa?$AAr?$AAt?$AA?2@ ; `string'
PUBLIC	??_C@_1DK@BGNCJAPL@?$AAi?$AA?5?$AA?$DO?$AA?$DN?$AA?5?$AA0?$AA?5?$AA?$CG?$AA?$CG?$AA?5?$AAi?$AA?5?$AA?$DM?$AA?5?$AAt@ ; `string'
PUBLIC	??_C@_1LG@LAANPDHN@?$AAC?$AA?3?$AA?2?$AAU?$AAs?$AAe?$AAr?$AAs?$AA?2?$AAk?$AAs?$AAa?$AAr?$AAt?$AA?2@ ; `string'
PUBLIC	??_C@_1ME@EGLCKJKB@?$AAC?$AA?3?$AA?2?$AAU?$AAs?$AAe?$AAr?$AAs?$AA?2?$AAk?$AAs?$AAa?$AAr?$AAt?$AA?2@ ; `string'
PUBLIC	??_C@_1DA@PHCGLBFJ@?$AAM?$AAo?$AAs?$AAt?$AAS?$AAi?$AAg?$AAn?$AAi?$AAf?$AAi?$AAc?$AAa?$AAn?$AAt@ ; `string'
PUBLIC	??_C@_1NA@OPABFNEN@?$AAC?$AA?3?$AA?2?$AAU?$AAs?$AAe?$AAr?$AAs?$AA?2?$AAk?$AAs?$AAa?$AAr?$AAt?$AA?2@ ; `string'
PUBLIC	??_C@_1DC@HHLCGOLC@?$AAx?$AA?4?$AAl?$AAe?$AAn?$AAg?$AAt?$AAh?$AA?$CI?$AA?$CJ?$AA?5?$AA?$DN?$AA?$DN?$AA?5?$AAy@ ; `string'
PUBLIC	??_C@_1LG@CIKOIEGN@?$AAC?$AA?3?$AA?2?$AAU?$AAs?$AAe?$AAr?$AAs?$AA?2?$AAk?$AAs?$AAa?$AAr?$AAt?$AA?2@ ; `string'
PUBLIC	??_C@_1LG@MEJFBKPC@?$AAC?$AA?3?$AA?2?$AAU?$AAs?$AAe?$AAr?$AAs?$AA?2?$AAk?$AAs?$AAa?$AAr?$AAt?$AA?2@ ; `string'
PUBLIC	??_C@_0BA@FOIKENOD@vector?5too?5long@		; `string'
PUBLIC	??_R4exception@std@@6B@				; std::exception::`RTTI Complete Object Locator'
PUBLIC	??_R3exception@std@@8				; std::exception::`RTTI Class Hierarchy Descriptor'
PUBLIC	??_R2exception@std@@8				; std::exception::`RTTI Base Class Array'
PUBLIC	??_R1A@?0A@EA@exception@std@@8			; std::exception::`RTTI Base Class Descriptor at (0,-1,0,64)'
PUBLIC	??_R4bad_alloc@std@@6B@				; std::bad_alloc::`RTTI Complete Object Locator'
PUBLIC	??_R3bad_alloc@std@@8				; std::bad_alloc::`RTTI Class Hierarchy Descriptor'
PUBLIC	??_R2bad_alloc@std@@8				; std::bad_alloc::`RTTI Base Class Array'
PUBLIC	??_R1A@?0A@EA@bad_alloc@std@@8			; std::bad_alloc::`RTTI Base Class Descriptor at (0,-1,0,64)'
PUBLIC	??_R4bad_array_new_length@std@@6B@		; std::bad_array_new_length::`RTTI Complete Object Locator'
PUBLIC	??_R3bad_array_new_length@std@@8		; std::bad_array_new_length::`RTTI Class Hierarchy Descriptor'
PUBLIC	??_R2bad_array_new_length@std@@8		; std::bad_array_new_length::`RTTI Base Class Array'
PUBLIC	??_R1A@?0A@EA@bad_array_new_length@std@@8	; std::bad_array_new_length::`RTTI Base Class Descriptor at (0,-1,0,64)'
EXTRN	??2@YAPEAX_K@Z:PROC				; operator new
EXTRN	??3@YAXPEAX_K@Z:PROC				; operator delete
EXTRN	__imp__invalid_parameter:PROC
EXTRN	__imp__wassert:PROC
EXTRN	__imp__CrtDbgReport:PROC
EXTRN	__imp_??0_Lockit@std@@QEAA@H@Z:PROC
EXTRN	__imp_??1_Lockit@std@@QEAA@XZ:PROC
EXTRN	__imp___acrt_iob_func:PROC
EXTRN	__imp___stdio_common_vfprintf:PROC
EXTRN	memmove:PROC
EXTRN	memset:PROC
EXTRN	__std_exception_copy:PROC
EXTRN	__std_exception_destroy:PROC
EXTRN	??_Eexception@std@@UEAAPEAXI@Z:PROC		; std::exception::`vector deleting destructor'
EXTRN	??_Ebad_alloc@std@@UEAAPEAXI@Z:PROC		; std::bad_alloc::`vector deleting destructor'
EXTRN	??_Ebad_array_new_length@std@@UEAAPEAXI@Z:PROC	; std::bad_array_new_length::`vector deleting destructor'
EXTRN	?_Xlength_error@std@@YAXPEBD@Z:PROC		; std::_Xlength_error
EXTRN	__imp_clock:PROC
EXTRN	_CxxThrowException:PROC
EXTRN	_RTC_CheckStackVars:PROC
EXTRN	_RTC_InitBase:PROC
EXTRN	_RTC_Shutdown:PROC
EXTRN	__CxxFrameHandler4:PROC
EXTRN	__GSHandlerCheck:PROC
EXTRN	__security_check_cookie:PROC
EXTRN	??_7type_info@@6B@:BYTE				; type_info::`vftable'
EXTRN	__security_cookie:QWORD
;	COMDAT ?_OptionsStorage@?1??__local_stdio_printf_options@@9@4_KA
_BSS	SEGMENT
?_OptionsStorage@?1??__local_stdio_printf_options@@9@4_KA DQ 01H DUP (?) ; `__local_stdio_printf_options'::`2'::_OptionsStorage
_BSS	ENDS
;	COMDAT pdata
pdata	SEGMENT
$pdata$??2@YAPEAX_KPEAX@Z DD imagerel $LN3
	DD	imagerel $LN3+18
	DD	imagerel $unwind$??2@YAPEAX_KPEAX@Z
pdata	ENDS
;	COMDAT pdata
pdata	SEGMENT
$pdata$__local_stdio_printf_options DD imagerel $LN3
	DD	imagerel $LN3+11
	DD	imagerel $unwind$__local_stdio_printf_options
pdata	ENDS
;	COMDAT pdata
pdata	SEGMENT
$pdata$_vfprintf_l DD imagerel $LN3
	DD	imagerel $LN3+70
	DD	imagerel $unwind$_vfprintf_l
pdata	ENDS
;	COMDAT pdata
pdata	SEGMENT
$pdata$printf DD imagerel $LN3
	DD	imagerel $LN3+131
	DD	imagerel $unwind$printf
pdata	ENDS
;	COMDAT pdata
pdata	SEGMENT
$pdata$?max@?$numeric_limits@_J@std@@SA_JXZ DD imagerel $LN3
	DD	imagerel $LN3+14
	DD	imagerel $unwind$?max@?$numeric_limits@_J@std@@SA_JXZ
pdata	ENDS
;	COMDAT pdata
pdata	SEGMENT
$pdata$?max@?$numeric_limits@I@std@@SAIXZ DD imagerel $LN3
	DD	imagerel $LN3+9
	DD	imagerel $unwind$?max@?$numeric_limits@I@std@@SAIXZ
pdata	ENDS
;	COMDAT pdata
pdata	SEGMENT
$pdata$?uaddCarry@glm@@YAIAEBI0AEAI@Z DD imagerel $LN5
	DD	imagerel $LN5+119
	DD	imagerel $unwind$?uaddCarry@glm@@YAIAEBI0AEAI@Z
pdata	ENDS
;	COMDAT pdata
pdata	SEGMENT
$pdata$?usubBorrow@glm@@YAIAEBI0AEAI@Z DD imagerel $LN7
	DD	imagerel $LN7+134
	DD	imagerel $unwind$?usubBorrow@glm@@YAIAEBI0AEAI@Z
pdata	ENDS
;	COMDAT pdata
pdata	SEGMENT
$pdata$?umulExtended@glm@@YAXAEBI0AEAI1@Z DD imagerel $LN3
	DD	imagerel $LN3+78
	DD	imagerel $unwind$?umulExtended@glm@@YAXAEBI0AEAI1@Z
pdata	ENDS
;	COMDAT pdata
pdata	SEGMENT
$pdata$?imulExtended@glm@@YAXHHAEAH0@Z DD imagerel $LN3
	DD	imagerel $LN3+72
	DD	imagerel $unwind$?imulExtended@glm@@YAXHHAEAH0@Z
pdata	ENDS
;	COMDAT pdata
pdata	SEGMENT
$pdata$?length@?$tvec2@I$0A@@glm@@SAHXZ DD imagerel $LN3
	DD	imagerel $LN3+9
	DD	imagerel $unwind$?length@?$tvec2@I$0A@@glm@@SAHXZ
pdata	ENDS
;	COMDAT pdata
pdata	SEGMENT
$pdata$??A?$tvec2@I$0A@@glm@@QEAAAEAIH@Z DD imagerel $LN5
	DD	imagerel $LN5+80
	DD	imagerel $unwind$??A?$tvec2@I$0A@@glm@@QEAAAEAIH@Z
pdata	ENDS
;	COMDAT pdata
pdata	SEGMENT
$pdata$??A?$tvec2@I$0A@@glm@@QEBAAEBIH@Z DD imagerel $LN5
	DD	imagerel $LN5+80
	DD	imagerel $unwind$??A?$tvec2@I$0A@@glm@@QEBAAEBIH@Z
pdata	ENDS
;	COMDAT pdata
pdata	SEGMENT
$pdata$??0?$tvec2@I$0A@@glm@@QEAA@W4ctor@1@@Z DD imagerel $LN3
	DD	imagerel $LN3+17
	DD	imagerel $unwind$??0?$tvec2@I$0A@@glm@@QEAA@W4ctor@1@@Z
pdata	ENDS
;	COMDAT pdata
pdata	SEGMENT
$pdata$??0?$tvec2@I$0A@@glm@@QEAA@I@Z DD imagerel $LN3
	DD	imagerel $LN3+40
	DD	imagerel $unwind$??0?$tvec2@I$0A@@glm@@QEAA@I@Z
pdata	ENDS
;	COMDAT pdata
pdata	SEGMENT
$pdata$??0?$tvec2@I$0A@@glm@@QEAA@II@Z DD imagerel $LN3
	DD	imagerel $LN3+45
	DD	imagerel $unwind$??0?$tvec2@I$0A@@glm@@QEAA@II@Z
pdata	ENDS
;	COMDAT pdata
pdata	SEGMENT
$pdata$??0exception@std@@QEAA@QEBDH@Z DD imagerel $LN3
	DD	imagerel $LN3+73
	DD	imagerel $unwind$??0exception@std@@QEAA@QEBDH@Z
pdata	ENDS
;	COMDAT pdata
pdata	SEGMENT
$pdata$??0exception@std@@QEAA@AEBV01@@Z DD imagerel $LN3
	DD	imagerel $LN3+88
	DD	imagerel $unwind$??0exception@std@@QEAA@AEBV01@@Z
pdata	ENDS
;	COMDAT pdata
pdata	SEGMENT
$pdata$??1exception@std@@UEAA@XZ DD imagerel $LN3
	DD	imagerel $LN3+48
	DD	imagerel $unwind$??1exception@std@@UEAA@XZ
pdata	ENDS
;	COMDAT pdata
pdata	SEGMENT
$pdata$?what@exception@std@@UEBAPEBDXZ DD imagerel $LN5
	DD	imagerel $LN5+58
	DD	imagerel $unwind$?what@exception@std@@UEBAPEBDXZ
pdata	ENDS
;	COMDAT pdata
pdata	SEGMENT
$pdata$??_Gexception@std@@UEAAPEAXI@Z DD imagerel $LN4
	DD	imagerel $LN4+61
	DD	imagerel $unwind$??_Gexception@std@@UEAAPEAXI@Z
pdata	ENDS
;	COMDAT pdata
pdata	SEGMENT
$pdata$??0bad_alloc@std@@AEAA@QEBD@Z DD imagerel $LN3
	DD	imagerel $LN3+62
	DD	imagerel $unwind$??0bad_alloc@std@@AEAA@QEBD@Z
pdata	ENDS
;	COMDAT pdata
pdata	SEGMENT
$pdata$??1bad_alloc@std@@UEAA@XZ DD imagerel $LN3
	DD	imagerel $LN3+26
	DD	imagerel $unwind$??1bad_alloc@std@@UEAA@XZ
pdata	ENDS
;	COMDAT pdata
pdata	SEGMENT
$pdata$??0bad_alloc@std@@QEAA@AEBV01@@Z DD imagerel $LN3
	DD	imagerel $LN3+56
	DD	imagerel $unwind$??0bad_alloc@std@@QEAA@AEBV01@@Z
pdata	ENDS
;	COMDAT pdata
pdata	SEGMENT
$pdata$??_Gbad_alloc@std@@UEAAPEAXI@Z DD imagerel $LN4
	DD	imagerel $LN4+61
	DD	imagerel $unwind$??_Gbad_alloc@std@@UEAAPEAXI@Z
pdata	ENDS
;	COMDAT pdata
pdata	SEGMENT
$pdata$??0bad_array_new_length@std@@QEAA@XZ DD imagerel $LN3
	DD	imagerel $LN3+53
	DD	imagerel $unwind$??0bad_array_new_length@std@@QEAA@XZ
pdata	ENDS
;	COMDAT pdata
pdata	SEGMENT
$pdata$??1bad_array_new_length@std@@UEAA@XZ DD imagerel $LN3
	DD	imagerel $LN3+26
	DD	imagerel $unwind$??1bad_array_new_length@std@@UEAA@XZ
pdata	ENDS
;	COMDAT pdata
pdata	SEGMENT
$pdata$??0bad_array_new_length@std@@QEAA@AEBV01@@Z DD imagerel $LN3
	DD	imagerel $LN3+56
	DD	imagerel $unwind$??0bad_array_new_length@std@@QEAA@AEBV01@@Z
pdata	ENDS
;	COMDAT pdata
pdata	SEGMENT
$pdata$??_Gbad_array_new_length@std@@UEAAPEAXI@Z DD imagerel $LN4
	DD	imagerel $LN4+61
	DD	imagerel $unwind$??_Gbad_array_new_length@std@@UEAAPEAXI@Z
pdata	ENDS
;	COMDAT pdata
pdata	SEGMENT
$pdata$?_Throw_bad_array_new_length@std@@YAXXZ DD imagerel $LN3
	DD	imagerel $LN3+39
	DD	imagerel $unwind$?_Throw_bad_array_new_length@std@@YAXXZ
pdata	ENDS
;	COMDAT pdata
pdata	SEGMENT
$pdata$?_Allocate@_Default_allocate_traits@std@@SAPEAX_K@Z DD imagerel $LN3
	DD	imagerel $LN3+26
	DD	imagerel $unwind$?_Allocate@_Default_allocate_traits@std@@SAPEAX_K@Z
pdata	ENDS
;	COMDAT pdata
pdata	SEGMENT
$pdata$?_Adjust_manually_vector_aligned@std@@YAXAEAPEAXAEA_K@Z DD imagerel $LN21
	DD	imagerel $LN21+404
	DD	imagerel $unwind$?_Adjust_manually_vector_aligned@std@@YAXAEAPEAXAEA_K@Z
pdata	ENDS
;	COMDAT pdata
pdata	SEGMENT
$pdata$??0_Container_proxy@std@@QEAA@PEAU_Container_base12@1@@Z DD imagerel $LN3
	DD	imagerel $LN3+44
	DD	imagerel $unwind$??0_Container_proxy@std@@QEAA@PEAU_Container_base12@1@@Z
pdata	ENDS
;	COMDAT pdata
pdata	SEGMENT
$pdata$??0_Container_base12@std@@QEAA@XZ DD imagerel $LN3
	DD	imagerel $LN3+25
	DD	imagerel $unwind$??0_Container_base12@std@@QEAA@XZ
pdata	ENDS
;	COMDAT pdata
pdata	SEGMENT
$pdata$?_Orphan_all@_Container_base12@std@@QEAAXXZ DD imagerel $LN3
	DD	imagerel $LN3+26
	DD	imagerel $unwind$?_Orphan_all@_Container_base12@std@@QEAAXXZ
pdata	ENDS
;	COMDAT pdata
pdata	SEGMENT
$pdata$?_Orphan_all_unlocked_v3@_Container_base12@std@@AEAAXXZ DD imagerel $LN7
	DD	imagerel $LN7+107
	DD	imagerel $unwind$?_Orphan_all_unlocked_v3@_Container_base12@std@@AEAAXXZ
pdata	ENDS
;	COMDAT pdata
pdata	SEGMENT
$pdata$?_Orphan_all_locked_v3@_Container_base12@std@@AEAAXXZ DD imagerel $LN3
	DD	imagerel $LN3+90
	DD	imagerel $unwind$?_Orphan_all_locked_v3@_Container_base12@std@@AEAAXXZ
pdata	ENDS
pdata	SEGMENT
$pdata$?test@bitfieldInsert@@YAHXZ DD imagerel $LN8
	DD	imagerel $LN8+238
	DD	imagerel $unwind$?test@bitfieldInsert@@YAHXZ
pdata	ENDS
;	COMDAT pdata
pdata	SEGMENT
$pdata$??$bitfieldInsert@I@glm@@YAIAEBI0HH@Z DD imagerel $LN3
	DD	imagerel $LN3+106
	DD	imagerel $unwind$??$bitfieldInsert@I@glm@@YAIAEBI0HH@Z
pdata	ENDS
pdata	SEGMENT
$pdata$?test@bitfieldExtract@@YAHXZ DD imagerel $LN11
	DD	imagerel $LN11+285
	DD	imagerel $unwind$?test@bitfieldExtract@@YAHXZ
pdata	ENDS
;	COMDAT pdata
pdata	SEGMENT
$pdata$??$bitfieldExtract@I@glm@@YAIIHH@Z DD imagerel $LN3
	DD	imagerel $LN3+63
	DD	imagerel $unwind$??$bitfieldExtract@I@glm@@YAIIHH@Z
pdata	ENDS
;	COMDAT pdata
pdata	SEGMENT
$pdata$?bitfieldReverseUint32@bitfieldReverse@@YAII@Z DD imagerel $LN3
	DD	imagerel $LN3+164
	DD	imagerel $unwind$?bitfieldReverseUint32@bitfieldReverse@@YAII@Z
pdata	ENDS
;	COMDAT pdata
pdata	SEGMENT
$pdata$?bitfieldReverseUint64@bitfieldReverse@@YA_K_K@Z DD imagerel $LN3
	DD	imagerel $LN3+354
	DD	imagerel $unwind$?bitfieldReverseUint64@bitfieldReverse@@YA_K_K@Z
pdata	ENDS
pdata	SEGMENT
$pdata$?test32_bitfieldReverse@bitfieldReverse@@YAHXZ DD imagerel $LN14
	DD	imagerel $LN14+257
	DD	imagerel $unwind$?test32_bitfieldReverse@bitfieldReverse@@YAHXZ
pdata	ENDS
;	COMDAT pdata
pdata	SEGMENT
$pdata$??$bitfieldReverse@I@glm@@YAII@Z DD imagerel $LN3
	DD	imagerel $LN3+44
	DD	imagerel $unwind$??$bitfieldReverse@I@glm@@YAII@Z
pdata	ENDS
pdata	SEGMENT
$pdata$?test32_bitfieldReverseLoop@bitfieldReverse@@YAHXZ DD imagerel $LN14
	DD	imagerel $LN14+257
	DD	imagerel $unwind$?test32_bitfieldReverseLoop@bitfieldReverse@@YAHXZ
pdata	ENDS
;	COMDAT pdata
pdata	SEGMENT
$pdata$??$bitfieldReverseLoop@I@bitfieldReverse@@YAII@Z DD imagerel $LN3
	DD	imagerel $LN3+44
	DD	imagerel $unwind$??$bitfieldReverseLoop@I@bitfieldReverse@@YAII@Z
pdata	ENDS
pdata	SEGMENT
$pdata$?test32_bitfieldReverseUint32@bitfieldReverse@@YAHXZ DD imagerel $LN14
	DD	imagerel $LN14+257
	DD	imagerel $unwind$?test32_bitfieldReverseUint32@bitfieldReverse@@YAHXZ
$pdata$?test32_bitfieldReverseOps@bitfieldReverse@@YAHXZ DD imagerel $LN14
	DD	imagerel $LN14+257
	DD	imagerel $unwind$?test32_bitfieldReverseOps@bitfieldReverse@@YAHXZ
pdata	ENDS
;	COMDAT pdata
pdata	SEGMENT
$pdata$??$bitfieldReverseOps@I@bitfieldReverse@@YAII@Z DD imagerel $LN3
	DD	imagerel $LN3+44
	DD	imagerel $unwind$??$bitfieldReverseOps@I@bitfieldReverse@@YAII@Z
pdata	ENDS
pdata	SEGMENT
$pdata$?test64_bitfieldReverse@bitfieldReverse@@YAHXZ DD imagerel $LN14
	DD	imagerel $LN14+261
	DD	imagerel $unwind$?test64_bitfieldReverse@bitfieldReverse@@YAHXZ
pdata	ENDS
;	COMDAT pdata
pdata	SEGMENT
$pdata$??$bitfieldReverse@_K@glm@@YA_K_K@Z DD imagerel $LN3
	DD	imagerel $LN3+47
	DD	imagerel $unwind$??$bitfieldReverse@_K@glm@@YA_K_K@Z
pdata	ENDS
pdata	SEGMENT
$pdata$?test64_bitfieldReverseLoop@bitfieldReverse@@YAHXZ DD imagerel $LN14
	DD	imagerel $LN14+261
	DD	imagerel $unwind$?test64_bitfieldReverseLoop@bitfieldReverse@@YAHXZ
pdata	ENDS
;	COMDAT pdata
pdata	SEGMENT
$pdata$??$bitfieldReverseLoop@_K@bitfieldReverse@@YA_K_K@Z DD imagerel $LN3
	DD	imagerel $LN3+47
	DD	imagerel $unwind$??$bitfieldReverseLoop@_K@bitfieldReverse@@YA_K_K@Z
pdata	ENDS
pdata	SEGMENT
$pdata$?test64_bitfieldReverseUint64@bitfieldReverse@@YAHXZ DD imagerel $LN14
	DD	imagerel $LN14+261
	DD	imagerel $unwind$?test64_bitfieldReverseUint64@bitfieldReverse@@YAHXZ
$pdata$?test64_bitfieldReverseOps@bitfieldReverse@@YAHXZ DD imagerel $LN14
	DD	imagerel $LN14+261
	DD	imagerel $unwind$?test64_bitfieldReverseOps@bitfieldReverse@@YAHXZ
pdata	ENDS
;	COMDAT pdata
pdata	SEGMENT
$pdata$??$bitfieldReverseOps@_K@bitfieldReverse@@YA_K_K@Z DD imagerel $LN3
	DD	imagerel $LN3+47
	DD	imagerel $unwind$??$bitfieldReverseOps@_K@bitfieldReverse@@YA_K_K@Z
pdata	ENDS
pdata	SEGMENT
$pdata$?test@bitfieldReverse@@YAHXZ DD imagerel $LN3
	DD	imagerel $LN3+160
	DD	imagerel $unwind$?test@bitfieldReverse@@YAHXZ
$pdata$?perf32@bitfieldReverse@@YAHI@Z DD imagerel $LN16
	DD	imagerel $LN16+612
	DD	imagerel $unwind$?perf32@bitfieldReverse@@YAHI@Z
pdata	ENDS
pdata	SEGMENT
$pdata$?dtor$0@?0??perf32@bitfieldReverse@@YAHI@Z@4HA DD imagerel ?dtor$0@?0??perf32@bitfieldReverse@@YAHI@Z@4HA
	DD	imagerel ?dtor$0@?0??perf32@bitfieldReverse@@YAHI@Z@4HA+35
	DD	imagerel $unwind$?dtor$0@?0??perf32@bitfieldReverse@@YAHI@Z@4HA
pdata	ENDS
;	COMDAT pdata
pdata	SEGMENT
$pdata$??0?$allocator@I@std@@QEAA@XZ DD imagerel $LN3
	DD	imagerel $LN3+13
	DD	imagerel $unwind$??0?$allocator@I@std@@QEAA@XZ
pdata	ENDS
;	COMDAT pdata
pdata	SEGMENT
$pdata$?deallocate@?$allocator@I@std@@QEAAXQEAI_K@Z DD imagerel $LN13
	DD	imagerel $LN13+183
	DD	imagerel $unwind$?deallocate@?$allocator@I@std@@QEAAXQEAI_K@Z
pdata	ENDS
;	COMDAT pdata
pdata	SEGMENT
$pdata$?allocate@?$allocator@I@std@@QEAAPEAI_K@Z DD imagerel $LN3
	DD	imagerel $LN3+39
	DD	imagerel $unwind$?allocate@?$allocator@I@std@@QEAAPEAI_K@Z
pdata	ENDS
;	COMDAT pdata
pdata	SEGMENT
$pdata$?max_size@?$_Default_allocator_traits@V?$allocator@I@std@@@std@@SA_KAEBV?$allocator@I@2@@Z DD imagerel $LN3
	DD	imagerel $LN3+18
	DD	imagerel $unwind$?max_size@?$_Default_allocator_traits@V?$allocator@I@std@@@std@@SA_KAEBV?$allocator@I@2@@Z
pdata	ENDS
;	COMDAT pdata
pdata	SEGMENT
$pdata$??0?$vector@IV?$allocator@I@std@@@std@@QEAA@XZ DD imagerel $LN3
	DD	imagerel $LN3+75
	DD	imagerel $unwind$??0?$vector@IV?$allocator@I@std@@@std@@QEAA@XZ
pdata	ENDS
;	COMDAT pdata
pdata	SEGMENT
$pdata$??1?$vector@IV?$allocator@I@std@@@std@@QEAA@XZ DD imagerel $LN3
	DD	imagerel $LN3+136
	DD	imagerel $unwind$??1?$vector@IV?$allocator@I@std@@@std@@QEAA@XZ
pdata	ENDS
;	COMDAT pdata
pdata	SEGMENT
$pdata$?resize@?$vector@IV?$allocator@I@std@@@std@@QEAAX_K@Z DD imagerel $LN3
	DD	imagerel $LN3+41
	DD	imagerel $unwind$?resize@?$vector@IV?$allocator@I@std@@@std@@QEAAX_K@Z
pdata	ENDS
;	COMDAT pdata
pdata	SEGMENT
$pdata$?max_size@?$vector@IV?$allocator@I@std@@@std@@QEBA_KXZ DD imagerel $LN3
	DD	imagerel $LN3+67
	DD	imagerel $unwind$?max_size@?$vector@IV?$allocator@I@std@@@std@@QEBA_KXZ
pdata	ENDS
;	COMDAT pdata
pdata	SEGMENT
$pdata$?capacity@?$vector@IV?$allocator@I@std@@@std@@QEBA_KXZ DD imagerel $LN3
	DD	imagerel $LN3+48
	DD	imagerel $unwind$?capacity@?$vector@IV?$allocator@I@std@@@std@@QEBA_KXZ
pdata	ENDS
;	COMDAT pdata
pdata	SEGMENT
$pdata$??A?$vector@IV?$allocator@I@std@@@std@@QEAAAEAI_K@Z DD imagerel $LN12
	DD	imagerel $LN12+200
	DD	imagerel $unwind$??A?$vector@IV?$allocator@I@std@@@std@@QEAAAEAI_K@Z
pdata	ENDS
;	COMDAT pdata
pdata	SEGMENT
$pdata$?_Calculate_growth@?$vector@IV?$allocator@I@std@@@std@@AEBA_K_K@Z DD imagerel $LN5
	DD	imagerel $LN5+146
	DD	imagerel $unwind$?_Calculate_growth@?$vector@IV?$allocator@I@std@@@std@@AEBA_K_K@Z
pdata	ENDS
;	COMDAT pdata
pdata	SEGMENT
$pdata$?_Change_array@?$vector@IV?$allocator@I@std@@@std@@AEAAXQEAI_K1@Z DD imagerel $LN4
	DD	imagerel $LN4+246
	DD	imagerel $unwind$?_Change_array@?$vector@IV?$allocator@I@std@@@std@@AEAAXQEAI_K1@Z
pdata	ENDS
;	COMDAT pdata
pdata	SEGMENT
$pdata$?_Tidy@?$vector@IV?$allocator@I@std@@@std@@AEAAXXZ DD imagerel $LN4
	DD	imagerel $LN4+210
	DD	imagerel $unwind$?_Tidy@?$vector@IV?$allocator@I@std@@@std@@AEAAXXZ
pdata	ENDS
;	COMDAT pdata
pdata	SEGMENT
$pdata$?_Xlength@?$vector@IV?$allocator@I@std@@@std@@CAXXZ DD imagerel $LN3
	DD	imagerel $LN3+24
	DD	imagerel $unwind$?_Xlength@?$vector@IV?$allocator@I@std@@@std@@CAXXZ
pdata	ENDS
;	COMDAT pdata
pdata	SEGMENT
$pdata$?_Orphan_range_unlocked@?$vector@IV?$allocator@I@std@@@std@@AEBAXPEAI0@Z DD imagerel $LN8
	DD	imagerel $LN8+161
	DD	imagerel $unwind$?_Orphan_range_unlocked@?$vector@IV?$allocator@I@std@@@std@@AEBAXPEAI0@Z
pdata	ENDS
;	COMDAT pdata
pdata	SEGMENT
$pdata$?_Orphan_range_locked@?$vector@IV?$allocator@I@std@@@std@@AEBAXPEAI0@Z DD imagerel $LN4
	DD	imagerel $LN4+112
	DD	imagerel $unwind$?_Orphan_range_locked@?$vector@IV?$allocator@I@std@@@std@@AEBAXPEAI0@Z
pdata	ENDS
;	COMDAT pdata
pdata	SEGMENT
$pdata$?dtor$0@?0??_Orphan_range_locked@?$vector@IV?$allocator@I@std@@@std@@AEBAXPEAI0@Z@4HA DD imagerel ?dtor$0@?0??_Orphan_range_locked@?$vector@IV?$allocator@I@std@@@std@@AEBAXPEAI0@Z@4HA
	DD	imagerel ?dtor$0@?0??_Orphan_range_locked@?$vector@IV?$allocator@I@std@@@std@@AEBAXPEAI0@Z@4HA+36
	DD	imagerel $unwind$?dtor$0@?0??_Orphan_range_locked@?$vector@IV?$allocator@I@std@@@std@@AEBAXPEAI0@Z@4HA
pdata	ENDS
;	COMDAT pdata
pdata	SEGMENT
$pdata$?_Orphan_range@?$vector@IV?$allocator@I@std@@@std@@AEBAXPEAI0@Z DD imagerel $LN3
	DD	imagerel $LN3+46
	DD	imagerel $unwind$?_Orphan_range@?$vector@IV?$allocator@I@std@@@std@@AEBAXPEAI0@Z
pdata	ENDS
;	COMDAT pdata
pdata	SEGMENT
$pdata$?_Getal@?$vector@IV?$allocator@I@std@@@std@@AEAAAEAV?$allocator@I@2@XZ DD imagerel $LN3
	DD	imagerel $LN3+29
	DD	imagerel $unwind$?_Getal@?$vector@IV?$allocator@I@std@@@std@@AEAAAEAV?$allocator@I@2@XZ
pdata	ENDS
;	COMDAT pdata
pdata	SEGMENT
$pdata$?_Getal@?$vector@IV?$allocator@I@std@@@std@@AEBAAEBV?$allocator@I@2@XZ DD imagerel $LN3
	DD	imagerel $LN3+29
	DD	imagerel $unwind$?_Getal@?$vector@IV?$allocator@I@std@@@std@@AEBAAEBV?$allocator@I@2@XZ
pdata	ENDS
;	COMDAT pdata
pdata	SEGMENT
$pdata$??0?$_Vector_val@U?$_Simple_types@I@std@@@std@@QEAA@XZ DD imagerel $LN3
	DD	imagerel $LN3+70
	DD	imagerel $unwind$??0?$_Vector_val@U?$_Simple_types@I@std@@@std@@QEAA@XZ
pdata	ENDS
;	COMDAT pdata
pdata	SEGMENT
$pdata$?_Get_first@?$_Compressed_pair@V?$allocator@I@std@@V?$_Vector_val@U?$_Simple_types@I@std@@@2@$00@std@@QEAAAEAV?$allocator@I@2@XZ DD imagerel $LN3
	DD	imagerel $LN3+13
	DD	imagerel $unwind$?_Get_first@?$_Compressed_pair@V?$allocator@I@std@@V?$_Vector_val@U?$_Simple_types@I@std@@@2@$00@std@@QEAAAEAV?$allocator@I@2@XZ
pdata	ENDS
;	COMDAT pdata
pdata	SEGMENT
$pdata$?_Get_first@?$_Compressed_pair@V?$allocator@I@std@@V?$_Vector_val@U?$_Simple_types@I@std@@@2@$00@std@@QEBAAEBV?$allocator@I@2@XZ DD imagerel $LN3
	DD	imagerel $LN3+13
	DD	imagerel $unwind$?_Get_first@?$_Compressed_pair@V?$allocator@I@std@@V?$_Vector_val@U?$_Simple_types@I@std@@@2@$00@std@@QEBAAEBV?$allocator@I@2@XZ
pdata	ENDS
pdata	SEGMENT
$pdata$?perf64@bitfieldReverse@@YAH_K@Z DD imagerel $LN16
	DD	imagerel $LN16+673
	DD	imagerel $unwind$?perf64@bitfieldReverse@@YAH_K@Z
pdata	ENDS
pdata	SEGMENT
$pdata$?dtor$0@?0??perf64@bitfieldReverse@@YAH_K@Z@4HA DD imagerel ?dtor$0@?0??perf64@bitfieldReverse@@YAH_K@Z@4HA
	DD	imagerel ?dtor$0@?0??perf64@bitfieldReverse@@YAH_K@Z@4HA+35
	DD	imagerel $unwind$?dtor$0@?0??perf64@bitfieldReverse@@YAH_K@Z@4HA
pdata	ENDS
;	COMDAT pdata
pdata	SEGMENT
$pdata$??0?$allocator@_K@std@@QEAA@XZ DD imagerel $LN3
	DD	imagerel $LN3+13
	DD	imagerel $unwind$??0?$allocator@_K@std@@QEAA@XZ
pdata	ENDS
;	COMDAT pdata
pdata	SEGMENT
$pdata$?deallocate@?$allocator@_K@std@@QEAAXQEA_K_K@Z DD imagerel $LN13
	DD	imagerel $LN13+183
	DD	imagerel $unwind$?deallocate@?$allocator@_K@std@@QEAAXQEA_K_K@Z
pdata	ENDS
;	COMDAT pdata
pdata	SEGMENT
$pdata$?allocate@?$allocator@_K@std@@QEAAPEA_K_K@Z DD imagerel $LN3
	DD	imagerel $LN3+39
	DD	imagerel $unwind$?allocate@?$allocator@_K@std@@QEAAPEA_K_K@Z
pdata	ENDS
;	COMDAT pdata
pdata	SEGMENT
$pdata$?max_size@?$_Default_allocator_traits@V?$allocator@_K@std@@@std@@SA_KAEBV?$allocator@_K@2@@Z DD imagerel $LN3
	DD	imagerel $LN3+18
	DD	imagerel $unwind$?max_size@?$_Default_allocator_traits@V?$allocator@_K@std@@@std@@SA_KAEBV?$allocator@_K@2@@Z
pdata	ENDS
;	COMDAT pdata
pdata	SEGMENT
$pdata$??0?$vector@_KV?$allocator@_K@std@@@std@@QEAA@XZ DD imagerel $LN3
	DD	imagerel $LN3+75
	DD	imagerel $unwind$??0?$vector@_KV?$allocator@_K@std@@@std@@QEAA@XZ
pdata	ENDS
;	COMDAT pdata
pdata	SEGMENT
$pdata$??1?$vector@_KV?$allocator@_K@std@@@std@@QEAA@XZ DD imagerel $LN3
	DD	imagerel $LN3+136
	DD	imagerel $unwind$??1?$vector@_KV?$allocator@_K@std@@@std@@QEAA@XZ
pdata	ENDS
;	COMDAT pdata
pdata	SEGMENT
$pdata$?resize@?$vector@_KV?$allocator@_K@std@@@std@@QEAAX_K@Z DD imagerel $LN3
	DD	imagerel $LN3+41
	DD	imagerel $unwind$?resize@?$vector@_KV?$allocator@_K@std@@@std@@QEAAX_K@Z
pdata	ENDS
;	COMDAT pdata
pdata	SEGMENT
$pdata$?max_size@?$vector@_KV?$allocator@_K@std@@@std@@QEBA_KXZ DD imagerel $LN3
	DD	imagerel $LN3+67
	DD	imagerel $unwind$?max_size@?$vector@_KV?$allocator@_K@std@@@std@@QEBA_KXZ
pdata	ENDS
;	COMDAT pdata
pdata	SEGMENT
$pdata$?capacity@?$vector@_KV?$allocator@_K@std@@@std@@QEBA_KXZ DD imagerel $LN3
	DD	imagerel $LN3+48
	DD	imagerel $unwind$?capacity@?$vector@_KV?$allocator@_K@std@@@std@@QEBA_KXZ
pdata	ENDS
;	COMDAT pdata
pdata	SEGMENT
$pdata$??A?$vector@_KV?$allocator@_K@std@@@std@@QEAAAEA_K_K@Z DD imagerel $LN12
	DD	imagerel $LN12+200
	DD	imagerel $unwind$??A?$vector@_KV?$allocator@_K@std@@@std@@QEAAAEA_K_K@Z
pdata	ENDS
;	COMDAT pdata
pdata	SEGMENT
$pdata$?_Calculate_growth@?$vector@_KV?$allocator@_K@std@@@std@@AEBA_K_K@Z DD imagerel $LN5
	DD	imagerel $LN5+146
	DD	imagerel $unwind$?_Calculate_growth@?$vector@_KV?$allocator@_K@std@@@std@@AEBA_K_K@Z
pdata	ENDS
;	COMDAT pdata
pdata	SEGMENT
$pdata$?_Change_array@?$vector@_KV?$allocator@_K@std@@@std@@AEAAXQEA_K_K1@Z DD imagerel $LN4
	DD	imagerel $LN4+246
	DD	imagerel $unwind$?_Change_array@?$vector@_KV?$allocator@_K@std@@@std@@AEAAXQEA_K_K1@Z
pdata	ENDS
;	COMDAT pdata
pdata	SEGMENT
$pdata$?_Tidy@?$vector@_KV?$allocator@_K@std@@@std@@AEAAXXZ DD imagerel $LN4
	DD	imagerel $LN4+210
	DD	imagerel $unwind$?_Tidy@?$vector@_KV?$allocator@_K@std@@@std@@AEAAXXZ
pdata	ENDS
;	COMDAT pdata
pdata	SEGMENT
$pdata$?_Xlength@?$vector@_KV?$allocator@_K@std@@@std@@CAXXZ DD imagerel $LN3
	DD	imagerel $LN3+24
	DD	imagerel $unwind$?_Xlength@?$vector@_KV?$allocator@_K@std@@@std@@CAXXZ
pdata	ENDS
;	COMDAT pdata
pdata	SEGMENT
$pdata$?_Orphan_range_unlocked@?$vector@_KV?$allocator@_K@std@@@std@@AEBAXPEA_K0@Z DD imagerel $LN8
	DD	imagerel $LN8+161
	DD	imagerel $unwind$?_Orphan_range_unlocked@?$vector@_KV?$allocator@_K@std@@@std@@AEBAXPEA_K0@Z
pdata	ENDS
;	COMDAT pdata
pdata	SEGMENT
$pdata$?_Orphan_range_locked@?$vector@_KV?$allocator@_K@std@@@std@@AEBAXPEA_K0@Z DD imagerel $LN4
	DD	imagerel $LN4+112
	DD	imagerel $unwind$?_Orphan_range_locked@?$vector@_KV?$allocator@_K@std@@@std@@AEBAXPEA_K0@Z
pdata	ENDS
;	COMDAT pdata
pdata	SEGMENT
$pdata$?dtor$0@?0??_Orphan_range_locked@?$vector@_KV?$allocator@_K@std@@@std@@AEBAXPEA_K0@Z@4HA DD imagerel ?dtor$0@?0??_Orphan_range_locked@?$vector@_KV?$allocator@_K@std@@@std@@AEBAXPEA_K0@Z@4HA
	DD	imagerel ?dtor$0@?0??_Orphan_range_locked@?$vector@_KV?$allocator@_K@std@@@std@@AEBAXPEA_K0@Z@4HA+36
	DD	imagerel $unwind$?dtor$0@?0??_Orphan_range_locked@?$vector@_KV?$allocator@_K@std@@@std@@AEBAXPEA_K0@Z@4HA
pdata	ENDS
;	COMDAT pdata
pdata	SEGMENT
$pdata$?_Orphan_range@?$vector@_KV?$allocator@_K@std@@@std@@AEBAXPEA_K0@Z DD imagerel $LN3
	DD	imagerel $LN3+46
	DD	imagerel $unwind$?_Orphan_range@?$vector@_KV?$allocator@_K@std@@@std@@AEBAXPEA_K0@Z
pdata	ENDS
;	COMDAT pdata
pdata	SEGMENT
$pdata$?_Getal@?$vector@_KV?$allocator@_K@std@@@std@@AEAAAEAV?$allocator@_K@2@XZ DD imagerel $LN3
	DD	imagerel $LN3+29
	DD	imagerel $unwind$?_Getal@?$vector@_KV?$allocator@_K@std@@@std@@AEAAAEAV?$allocator@_K@2@XZ
pdata	ENDS
;	COMDAT pdata
pdata	SEGMENT
$pdata$?_Getal@?$vector@_KV?$allocator@_K@std@@@std@@AEBAAEBV?$allocator@_K@2@XZ DD imagerel $LN3
	DD	imagerel $LN3+29
	DD	imagerel $unwind$?_Getal@?$vector@_KV?$allocator@_K@std@@@std@@AEBAAEBV?$allocator@_K@2@XZ
pdata	ENDS
;	COMDAT pdata
pdata	SEGMENT
$pdata$??0?$_Vector_val@U?$_Simple_types@_K@std@@@std@@QEAA@XZ DD imagerel $LN3
	DD	imagerel $LN3+70
	DD	imagerel $unwind$??0?$_Vector_val@U?$_Simple_types@_K@std@@@std@@QEAA@XZ
pdata	ENDS
;	COMDAT pdata
pdata	SEGMENT
$pdata$?_Get_first@?$_Compressed_pair@V?$allocator@_K@std@@V?$_Vector_val@U?$_Simple_types@_K@std@@@2@$00@std@@QEAAAEAV?$allocator@_K@2@XZ DD imagerel $LN3
	DD	imagerel $LN3+13
	DD	imagerel $unwind$?_Get_first@?$_Compressed_pair@V?$allocator@_K@std@@V?$_Vector_val@U?$_Simple_types@_K@std@@@2@$00@std@@QEAAAEAV?$allocator@_K@2@XZ
pdata	ENDS
;	COMDAT pdata
pdata	SEGMENT
$pdata$?_Get_first@?$_Compressed_pair@V?$allocator@_K@std@@V?$_Vector_val@U?$_Simple_types@_K@std@@@2@$00@std@@QEBAAEBV?$allocator@_K@2@XZ DD imagerel $LN3
	DD	imagerel $LN3+13
	DD	imagerel $unwind$?_Get_first@?$_Compressed_pair@V?$allocator@_K@std@@V?$_Vector_val@U?$_Simple_types@_K@std@@@2@$00@std@@QEBAAEBV?$allocator@_K@2@XZ
pdata	ENDS
pdata	SEGMENT
$pdata$?perf@bitfieldReverse@@YAH_K@Z DD imagerel $LN3
	DD	imagerel $LN3+71
	DD	imagerel $unwind$?perf@bitfieldReverse@@YAH_K@Z
$pdata$?findMSB_nlz2@findMSB@@YAHI@Z DD imagerel $LN8
	DD	imagerel $LN8+204
	DD	imagerel $unwind$?findMSB_nlz2@findMSB@@YAHI@Z
$pdata$?findMSB_pop@findMSB@@YAHI@Z DD imagerel $LN3
	DD	imagerel $LN3+131
	DD	imagerel $unwind$?findMSB_pop@findMSB@@YAHI@Z
pdata	ENDS
;	COMDAT pdata
pdata	SEGMENT
$pdata$??$bitCount@I@glm@@YAHI@Z DD imagerel $LN3
	DD	imagerel $LN3+44
	DD	imagerel $unwind$??$bitCount@I@glm@@YAHI@Z
pdata	ENDS
pdata	SEGMENT
$pdata$?perf_int@findMSB@@YAH_K@Z DD imagerel $LN59
	DD	imagerel $LN59+2556
	DD	imagerel $unwind$?perf_int@findMSB@@YAH_K@Z
pdata	ENDS
;	COMDAT pdata
pdata	SEGMENT
$pdata$??$findMSB@H@glm@@YAHH@Z DD imagerel $LN3
	DD	imagerel $LN3+44
	DD	imagerel $unwind$??$findMSB@H@glm@@YAHH@Z
pdata	ENDS
;	COMDAT pdata
pdata	SEGMENT
$pdata$??$findMSB_nlz1@H@findMSB@@YAHH@Z DD imagerel $LN9
	DD	imagerel $LN9+185
	DD	imagerel $unwind$??$findMSB_nlz1@H@findMSB@@YAHH@Z
pdata	ENDS
;	COMDAT pdata
pdata	SEGMENT
$pdata$??$findMSB_095@H@findMSB@@YAHH@Z DD imagerel $LN17
	DD	imagerel $LN17+256
	DD	imagerel $unwind$??$findMSB_095@H@findMSB@@YAHH@Z
pdata	ENDS
;	COMDAT pdata
pdata	SEGMENT
$pdata$??$findMSB_intrinsic@H@findMSB@@YAHH@Z DD imagerel $LN4
	DD	imagerel $LN4+94
	DD	imagerel $unwind$??$findMSB_intrinsic@H@findMSB@@YAHH@Z
pdata	ENDS
;	COMDAT pdata
pdata	SEGMENT
$pdata$??$findMSB_avx@H@findMSB@@YAHH@Z DD imagerel $LN4
	DD	imagerel $LN4+27
	DD	imagerel $unwind$??$findMSB_avx@H@findMSB@@YAHH@Z
pdata	ENDS
pdata	SEGMENT
$pdata$?test_ivec4@findMSB@@YAHXZ DD imagerel $LN8
	DD	imagerel $LN8+1530
	DD	imagerel $unwind$?test_ivec4@findMSB@@YAHXZ
pdata	ENDS
;	COMDAT pdata
pdata	SEGMENT
$pdata$?length@?$tvec4@H$0A@@glm@@SAHXZ DD imagerel $LN3
	DD	imagerel $LN3+9
	DD	imagerel $unwind$?length@?$tvec4@H$0A@@glm@@SAHXZ
pdata	ENDS
;	COMDAT pdata
pdata	SEGMENT
$pdata$??A?$tvec4@H$0A@@glm@@QEBAAEBHH@Z DD imagerel $LN5
	DD	imagerel $LN5+80
	DD	imagerel $unwind$??A?$tvec4@H$0A@@glm@@QEBAAEBHH@Z
pdata	ENDS
;	COMDAT pdata
pdata	SEGMENT
$pdata$??0?$tvec4@H$0A@@glm@@QEAA@XZ DD imagerel $LN3
	DD	imagerel $LN3+60
	DD	imagerel $unwind$??0?$tvec4@H$0A@@glm@@QEAA@XZ
pdata	ENDS
;	COMDAT pdata
pdata	SEGMENT
$pdata$??0?$tvec4@H$0A@@glm@@QEAA@H@Z DD imagerel $LN3
	DD	imagerel $LN3+64
	DD	imagerel $unwind$??0?$tvec4@H$0A@@glm@@QEAA@H@Z
pdata	ENDS
;	COMDAT pdata
pdata	SEGMENT
$pdata$??0?$tvec4@H$0A@@glm@@QEAA@HHHH@Z DD imagerel $LN3
	DD	imagerel $LN3+74
	DD	imagerel $unwind$??0?$tvec4@H$0A@@glm@@QEAA@HHHH@Z
pdata	ENDS
;	COMDAT pdata
pdata	SEGMENT
$pdata$??$findMSB@H$0A@Utvec4@glm@@@glm@@YA?AU?$tvec4@H$0A@@0@AEBU10@@Z DD imagerel $LN3
	DD	imagerel $LN3+41
	DD	imagerel $unwind$??$findMSB@H$0A@Utvec4@glm@@@glm@@YA?AU?$tvec4@H$0A@@0@AEBU10@@Z
pdata	ENDS
;	COMDAT pdata
pdata	SEGMENT
$pdata$??$equal@H$0A@Utvec4@glm@@@glm@@YA?AU?$tvec4@_N$0A@@0@AEBU?$tvec4@H$0A@@0@0@Z DD imagerel $LN9
	DD	imagerel $LN9+263
	DD	imagerel $unwind$??$equal@H$0A@Utvec4@glm@@@glm@@YA?AU?$tvec4@_N$0A@@0@AEBU?$tvec4@H$0A@@0@0@Z
pdata	ENDS
;	COMDAT pdata
pdata	SEGMENT
$pdata$?length@?$tvec4@_N$0A@@glm@@SAHXZ DD imagerel $LN3
	DD	imagerel $LN3+9
	DD	imagerel $unwind$?length@?$tvec4@_N$0A@@glm@@SAHXZ
pdata	ENDS
;	COMDAT pdata
pdata	SEGMENT
$pdata$??A?$tvec4@_N$0A@@glm@@QEAAAEA_NH@Z DD imagerel $LN5
	DD	imagerel $LN5+82
	DD	imagerel $unwind$??A?$tvec4@_N$0A@@glm@@QEAAAEA_NH@Z
pdata	ENDS
;	COMDAT pdata
pdata	SEGMENT
$pdata$??A?$tvec4@_N$0A@@glm@@QEBAAEB_NH@Z DD imagerel $LN5
	DD	imagerel $LN5+82
	DD	imagerel $unwind$??A?$tvec4@_N$0A@@glm@@QEBAAEB_NH@Z
pdata	ENDS
;	COMDAT pdata
pdata	SEGMENT
$pdata$??0?$tvec4@_N$0A@@glm@@QEAA@W4ctor@1@@Z DD imagerel $LN3
	DD	imagerel $LN3+17
	DD	imagerel $unwind$??0?$tvec4@_N$0A@@glm@@QEAA@W4ctor@1@@Z
pdata	ENDS
;	COMDAT pdata
pdata	SEGMENT
$pdata$??$all@$0A@Utvec4@glm@@@glm@@YA_NAEBU?$tvec4@_N$0A@@0@@Z DD imagerel $LN8
	DD	imagerel $LN8+116
	DD	imagerel $unwind$??$all@$0A@Utvec4@glm@@@glm@@YA_NAEBU?$tvec4@_N$0A@@0@@Z
pdata	ENDS
pdata	SEGMENT
$pdata$?test_int@findMSB@@YAHXZ DD imagerel $LN28
	DD	imagerel $LN28+1516
	DD	imagerel $unwind$?test_int@findMSB@@YAHXZ
pdata	ENDS
;	COMDAT pdata
pdata	SEGMENT
$pdata$??$findMSB@I@glm@@YAHI@Z DD imagerel $LN3
	DD	imagerel $LN3+44
	DD	imagerel $unwind$??$findMSB@I@glm@@YAHI@Z
pdata	ENDS
;	COMDAT pdata
pdata	SEGMENT
$pdata$??$findMSB_nlz1@I@findMSB@@YAHI@Z DD imagerel $LN9
	DD	imagerel $LN9+185
	DD	imagerel $unwind$??$findMSB_nlz1@I@findMSB@@YAHI@Z
pdata	ENDS
;	COMDAT pdata
pdata	SEGMENT
$pdata$??$findMSB_095@I@findMSB@@YAHI@Z DD imagerel $LN17
	DD	imagerel $LN17+256
	DD	imagerel $unwind$??$findMSB_095@I@findMSB@@YAHI@Z
pdata	ENDS
;	COMDAT pdata
pdata	SEGMENT
$pdata$??$findMSB_intrinsic@I@findMSB@@YAHI@Z DD imagerel $LN4
	DD	imagerel $LN4+94
	DD	imagerel $unwind$??$findMSB_intrinsic@I@findMSB@@YAHI@Z
pdata	ENDS
pdata	SEGMENT
$pdata$?test@findMSB@@YAHXZ DD imagerel $LN3
	DD	imagerel $LN3+58
	DD	imagerel $unwind$?test@findMSB@@YAHXZ
$pdata$?perf@findMSB@@YAH_K@Z DD imagerel $LN3
	DD	imagerel $LN3+50
	DD	imagerel $unwind$?perf@findMSB@@YAH_K@Z
$pdata$?test_int@findLSB@@YAHXZ DD imagerel $LN28
	DD	imagerel $LN28+618
	DD	imagerel $unwind$?test_int@findLSB@@YAHXZ
pdata	ENDS
;	COMDAT pdata
pdata	SEGMENT
$pdata$??$findLSB@H@glm@@YAHH@Z DD imagerel $LN3
	DD	imagerel $LN3+24
	DD	imagerel $unwind$??$findLSB@H@glm@@YAHH@Z
pdata	ENDS
;	COMDAT pdata
pdata	SEGMENT
$pdata$??$findLSB_095@H@findLSB@@YAHH@Z DD imagerel $LN7
	DD	imagerel $LN7+84
	DD	imagerel $unwind$??$findLSB_095@H@findLSB@@YAHH@Z
pdata	ENDS
;	COMDAT pdata
pdata	SEGMENT
$pdata$??$findLSB_intrinsic@H@findLSB@@YAHH@Z DD imagerel $LN4
	DD	imagerel $LN4+94
	DD	imagerel $unwind$??$findLSB_intrinsic@H@findLSB@@YAHH@Z
pdata	ENDS
;	COMDAT pdata
pdata	SEGMENT
$pdata$??$findLSB_ntz2@H@findLSB@@YAHH@Z DD imagerel $LN4
	DD	imagerel $LN4+50
	DD	imagerel $unwind$??$findLSB_ntz2@H@findLSB@@YAHH@Z
pdata	ENDS
;	COMDAT pdata
pdata	SEGMENT
$pdata$??$findLSB_branchfree@H@findLSB@@YAHH@Z DD imagerel $LN7
	DD	imagerel $LN7+126
	DD	imagerel $unwind$??$findLSB_branchfree@H@findLSB@@YAHH@Z
pdata	ENDS
pdata	SEGMENT
$pdata$?test@findLSB@@YAHXZ DD imagerel $LN3
	DD	imagerel $LN3+41
	DD	imagerel $unwind$?test@findLSB@@YAHXZ
$pdata$?perf_int@findLSB@@YAH_K@Z DD imagerel $LN43
	DD	imagerel $LN43+1139
	DD	imagerel $unwind$?perf_int@findLSB@@YAH_K@Z
$pdata$?perf@findLSB@@YAH_K@Z DD imagerel $LN3
	DD	imagerel $LN3+50
	DD	imagerel $unwind$?perf@findLSB@@YAH_K@Z
$pdata$?test@uaddCarry@@YAHXZ DD imagerel $LN19
	DD	imagerel $LN19+974
	DD	imagerel $unwind$?test@uaddCarry@@YAHXZ
pdata	ENDS
;	COMDAT pdata
pdata	SEGMENT
$pdata$?length@?$tvec1@I$0A@@glm@@SAHXZ DD imagerel $LN3
	DD	imagerel $LN3+9
	DD	imagerel $unwind$?length@?$tvec1@I$0A@@glm@@SAHXZ
pdata	ENDS
;	COMDAT pdata
pdata	SEGMENT
$pdata$??A?$tvec1@I$0A@@glm@@QEAAAEAIH@Z DD imagerel $LN5
	DD	imagerel $LN5+80
	DD	imagerel $unwind$??A?$tvec1@I$0A@@glm@@QEAAAEAIH@Z
pdata	ENDS
;	COMDAT pdata
pdata	SEGMENT
$pdata$??A?$tvec1@I$0A@@glm@@QEBAAEBIH@Z DD imagerel $LN5
	DD	imagerel $LN5+80
	DD	imagerel $unwind$??A?$tvec1@I$0A@@glm@@QEBAAEBIH@Z
pdata	ENDS
;	COMDAT pdata
pdata	SEGMENT
$pdata$??0?$tvec1@I$0A@@glm@@QEAA@W4ctor@1@@Z DD imagerel $LN3
	DD	imagerel $LN3+17
	DD	imagerel $unwind$??0?$tvec1@I$0A@@glm@@QEAA@W4ctor@1@@Z
pdata	ENDS
;	COMDAT pdata
pdata	SEGMENT
$pdata$??0?$tvec1@I$0A@@glm@@QEAA@I@Z DD imagerel $LN3
	DD	imagerel $LN3+28
	DD	imagerel $unwind$??0?$tvec1@I$0A@@glm@@QEAA@I@Z
pdata	ENDS
;	COMDAT pdata
pdata	SEGMENT
$pdata$??$uaddCarry@$0A@Utvec1@glm@@@glm@@YA?AU?$tvec1@I$0A@@0@AEBU10@0AEAU10@@Z DD imagerel $LN3
	DD	imagerel $LN3+342
	DD	imagerel $unwind$??$uaddCarry@$0A@Utvec1@glm@@@glm@@YA?AU?$tvec1@I$0A@@0@AEBU10@0AEAU10@@Z
pdata	ENDS
;	COMDAT pdata
pdata	SEGMENT
$pdata$??$equal@I$0A@Utvec1@glm@@@glm@@YA?AU?$tvec1@_N$0A@@0@AEBU?$tvec1@I$0A@@0@0@Z DD imagerel $LN9
	DD	imagerel $LN9+264
	DD	imagerel $unwind$??$equal@I$0A@Utvec1@glm@@@glm@@YA?AU?$tvec1@_N$0A@@0@AEBU?$tvec1@I$0A@@0@0@Z
pdata	ENDS
;	COMDAT pdata
pdata	SEGMENT
$pdata$?length@?$tvec1@_N$0A@@glm@@SAHXZ DD imagerel $LN3
	DD	imagerel $LN3+9
	DD	imagerel $unwind$?length@?$tvec1@_N$0A@@glm@@SAHXZ
pdata	ENDS
;	COMDAT pdata
pdata	SEGMENT
$pdata$??A?$tvec1@_N$0A@@glm@@QEAAAEA_NH@Z DD imagerel $LN5
	DD	imagerel $LN5+82
	DD	imagerel $unwind$??A?$tvec1@_N$0A@@glm@@QEAAAEA_NH@Z
pdata	ENDS
;	COMDAT pdata
pdata	SEGMENT
$pdata$??A?$tvec1@_N$0A@@glm@@QEBAAEB_NH@Z DD imagerel $LN5
	DD	imagerel $LN5+82
	DD	imagerel $unwind$??A?$tvec1@_N$0A@@glm@@QEBAAEB_NH@Z
pdata	ENDS
;	COMDAT pdata
pdata	SEGMENT
$pdata$??0?$tvec1@_N$0A@@glm@@QEAA@W4ctor@1@@Z DD imagerel $LN3
	DD	imagerel $LN3+17
	DD	imagerel $unwind$??0?$tvec1@_N$0A@@glm@@QEAA@W4ctor@1@@Z
pdata	ENDS
;	COMDAT pdata
pdata	SEGMENT
$pdata$??$all@$0A@Utvec1@glm@@@glm@@YA_NAEBU?$tvec1@_N$0A@@0@@Z DD imagerel $LN8
	DD	imagerel $LN8+116
	DD	imagerel $unwind$??$all@$0A@Utvec1@glm@@@glm@@YA_NAEBU?$tvec1@_N$0A@@0@@Z
pdata	ENDS
pdata	SEGMENT
$pdata$?test@usubBorrow@@YAHXZ DD imagerel $LN23
	DD	imagerel $LN23+1372
	DD	imagerel $unwind$?test@usubBorrow@@YAHXZ
pdata	ENDS
;	COMDAT pdata
pdata	SEGMENT
$pdata$??$usubBorrow@$0A@Utvec1@glm@@@glm@@YA?AU?$tvec1@I$0A@@0@AEBU10@0AEAU10@@Z DD imagerel $LN3
	DD	imagerel $LN3+395
	DD	imagerel $unwind$??$usubBorrow@$0A@Utvec1@glm@@@glm@@YA?AU?$tvec1@I$0A@@0@AEBU10@0AEAU10@@Z
pdata	ENDS
;	COMDAT pdata
pdata	SEGMENT
$pdata$??$usubBorrow@$0A@Utvec2@glm@@@glm@@YA?AU?$tvec2@I$0A@@0@AEBU10@0AEAU10@@Z DD imagerel $LN3
	DD	imagerel $LN3+403
	DD	imagerel $unwind$??$usubBorrow@$0A@Utvec2@glm@@@glm@@YA?AU?$tvec2@I$0A@@0@AEBU10@0AEAU10@@Z
pdata	ENDS
;	COMDAT pdata
pdata	SEGMENT
$pdata$??$equal@I$0A@Utvec2@glm@@@glm@@YA?AU?$tvec2@_N$0A@@0@AEBU?$tvec2@I$0A@@0@0@Z DD imagerel $LN9
	DD	imagerel $LN9+265
	DD	imagerel $unwind$??$equal@I$0A@Utvec2@glm@@@glm@@YA?AU?$tvec2@_N$0A@@0@AEBU?$tvec2@I$0A@@0@0@Z
pdata	ENDS
;	COMDAT pdata
pdata	SEGMENT
$pdata$?length@?$tvec2@_N$0A@@glm@@SAHXZ DD imagerel $LN3
	DD	imagerel $LN3+9
	DD	imagerel $unwind$?length@?$tvec2@_N$0A@@glm@@SAHXZ
pdata	ENDS
;	COMDAT pdata
pdata	SEGMENT
$pdata$??A?$tvec2@_N$0A@@glm@@QEAAAEA_NH@Z DD imagerel $LN5
	DD	imagerel $LN5+82
	DD	imagerel $unwind$??A?$tvec2@_N$0A@@glm@@QEAAAEA_NH@Z
pdata	ENDS
;	COMDAT pdata
pdata	SEGMENT
$pdata$??A?$tvec2@_N$0A@@glm@@QEBAAEB_NH@Z DD imagerel $LN5
	DD	imagerel $LN5+82
	DD	imagerel $unwind$??A?$tvec2@_N$0A@@glm@@QEBAAEB_NH@Z
pdata	ENDS
;	COMDAT pdata
pdata	SEGMENT
$pdata$??0?$tvec2@_N$0A@@glm@@QEAA@W4ctor@1@@Z DD imagerel $LN3
	DD	imagerel $LN3+17
	DD	imagerel $unwind$??0?$tvec2@_N$0A@@glm@@QEAA@W4ctor@1@@Z
pdata	ENDS
;	COMDAT pdata
pdata	SEGMENT
$pdata$??$all@$0A@Utvec2@glm@@@glm@@YA_NAEBU?$tvec2@_N$0A@@0@@Z DD imagerel $LN8
	DD	imagerel $LN8+116
	DD	imagerel $unwind$??$all@$0A@Utvec2@glm@@@glm@@YA_NAEBU?$tvec2@_N$0A@@0@@Z
pdata	ENDS
;	COMDAT pdata
pdata	SEGMENT
$pdata$?length@?$tvec3@I$0A@@glm@@SAHXZ DD imagerel $LN3
	DD	imagerel $LN3+9
	DD	imagerel $unwind$?length@?$tvec3@I$0A@@glm@@SAHXZ
pdata	ENDS
;	COMDAT pdata
pdata	SEGMENT
$pdata$??A?$tvec3@I$0A@@glm@@QEAAAEAIH@Z DD imagerel $LN5
	DD	imagerel $LN5+80
	DD	imagerel $unwind$??A?$tvec3@I$0A@@glm@@QEAAAEAIH@Z
pdata	ENDS
;	COMDAT pdata
pdata	SEGMENT
$pdata$??A?$tvec3@I$0A@@glm@@QEBAAEBIH@Z DD imagerel $LN5
	DD	imagerel $LN5+80
	DD	imagerel $unwind$??A?$tvec3@I$0A@@glm@@QEBAAEBIH@Z
pdata	ENDS
;	COMDAT pdata
pdata	SEGMENT
$pdata$??0?$tvec3@I$0A@@glm@@QEAA@W4ctor@1@@Z DD imagerel $LN3
	DD	imagerel $LN3+17
	DD	imagerel $unwind$??0?$tvec3@I$0A@@glm@@QEAA@W4ctor@1@@Z
pdata	ENDS
;	COMDAT pdata
pdata	SEGMENT
$pdata$??0?$tvec3@I$0A@@glm@@QEAA@I@Z DD imagerel $LN3
	DD	imagerel $LN3+52
	DD	imagerel $unwind$??0?$tvec3@I$0A@@glm@@QEAA@I@Z
pdata	ENDS
;	COMDAT pdata
pdata	SEGMENT
$pdata$??0?$tvec3@I$0A@@glm@@QEAA@III@Z DD imagerel $LN3
	DD	imagerel $LN3+62
	DD	imagerel $unwind$??0?$tvec3@I$0A@@glm@@QEAA@III@Z
pdata	ENDS
;	COMDAT pdata
pdata	SEGMENT
$pdata$??$usubBorrow@$0A@Utvec3@glm@@@glm@@YA?AU?$tvec3@I$0A@@0@AEBU10@0AEAU10@@Z DD imagerel $LN3
	DD	imagerel $LN3+418
	DD	imagerel $unwind$??$usubBorrow@$0A@Utvec3@glm@@@glm@@YA?AU?$tvec3@I$0A@@0@AEBU10@0AEAU10@@Z
pdata	ENDS
;	COMDAT pdata
pdata	SEGMENT
$pdata$??$equal@I$0A@Utvec3@glm@@@glm@@YA?AU?$tvec3@_N$0A@@0@AEBU?$tvec3@I$0A@@0@0@Z DD imagerel $LN9
	DD	imagerel $LN9+277
	DD	imagerel $unwind$??$equal@I$0A@Utvec3@glm@@@glm@@YA?AU?$tvec3@_N$0A@@0@AEBU?$tvec3@I$0A@@0@0@Z
pdata	ENDS
;	COMDAT pdata
pdata	SEGMENT
$pdata$?length@?$tvec3@_N$0A@@glm@@SAHXZ DD imagerel $LN3
	DD	imagerel $LN3+9
	DD	imagerel $unwind$?length@?$tvec3@_N$0A@@glm@@SAHXZ
pdata	ENDS
;	COMDAT pdata
pdata	SEGMENT
$pdata$??A?$tvec3@_N$0A@@glm@@QEAAAEA_NH@Z DD imagerel $LN5
	DD	imagerel $LN5+82
	DD	imagerel $unwind$??A?$tvec3@_N$0A@@glm@@QEAAAEA_NH@Z
pdata	ENDS
;	COMDAT pdata
pdata	SEGMENT
$pdata$??A?$tvec3@_N$0A@@glm@@QEBAAEB_NH@Z DD imagerel $LN5
	DD	imagerel $LN5+82
	DD	imagerel $unwind$??A?$tvec3@_N$0A@@glm@@QEBAAEB_NH@Z
pdata	ENDS
;	COMDAT pdata
pdata	SEGMENT
$pdata$??0?$tvec3@_N$0A@@glm@@QEAA@W4ctor@1@@Z DD imagerel $LN3
	DD	imagerel $LN3+17
	DD	imagerel $unwind$??0?$tvec3@_N$0A@@glm@@QEAA@W4ctor@1@@Z
pdata	ENDS
;	COMDAT pdata
pdata	SEGMENT
$pdata$??$all@$0A@Utvec3@glm@@@glm@@YA_NAEBU?$tvec3@_N$0A@@0@@Z DD imagerel $LN8
	DD	imagerel $LN8+116
	DD	imagerel $unwind$??$all@$0A@Utvec3@glm@@@glm@@YA_NAEBU?$tvec3@_N$0A@@0@@Z
pdata	ENDS
;	COMDAT pdata
pdata	SEGMENT
$pdata$?length@?$tvec4@I$0A@@glm@@SAHXZ DD imagerel $LN3
	DD	imagerel $LN3+9
	DD	imagerel $unwind$?length@?$tvec4@I$0A@@glm@@SAHXZ
pdata	ENDS
;	COMDAT pdata
pdata	SEGMENT
$pdata$??A?$tvec4@I$0A@@glm@@QEAAAEAIH@Z DD imagerel $LN5
	DD	imagerel $LN5+80
	DD	imagerel $unwind$??A?$tvec4@I$0A@@glm@@QEAAAEAIH@Z
pdata	ENDS
;	COMDAT pdata
pdata	SEGMENT
$pdata$??A?$tvec4@I$0A@@glm@@QEBAAEBIH@Z DD imagerel $LN5
	DD	imagerel $LN5+80
	DD	imagerel $unwind$??A?$tvec4@I$0A@@glm@@QEBAAEBIH@Z
pdata	ENDS
;	COMDAT pdata
pdata	SEGMENT
$pdata$??0?$tvec4@I$0A@@glm@@QEAA@W4ctor@1@@Z DD imagerel $LN3
	DD	imagerel $LN3+17
	DD	imagerel $unwind$??0?$tvec4@I$0A@@glm@@QEAA@W4ctor@1@@Z
pdata	ENDS
;	COMDAT pdata
pdata	SEGMENT
$pdata$??0?$tvec4@I$0A@@glm@@QEAA@I@Z DD imagerel $LN3
	DD	imagerel $LN3+64
	DD	imagerel $unwind$??0?$tvec4@I$0A@@glm@@QEAA@I@Z
pdata	ENDS
;	COMDAT pdata
pdata	SEGMENT
$pdata$??0?$tvec4@I$0A@@glm@@QEAA@IIII@Z DD imagerel $LN3
	DD	imagerel $LN3+74
	DD	imagerel $unwind$??0?$tvec4@I$0A@@glm@@QEAA@IIII@Z
pdata	ENDS
;	COMDAT pdata
pdata	SEGMENT
$pdata$??$usubBorrow@$0A@Utvec4@glm@@@glm@@YA?AU?$tvec4@I$0A@@0@AEBU10@0AEAU10@@Z DD imagerel $LN3
	DD	imagerel $LN3+418
	DD	imagerel $unwind$??$usubBorrow@$0A@Utvec4@glm@@@glm@@YA?AU?$tvec4@I$0A@@0@AEBU10@0AEAU10@@Z
pdata	ENDS
;	COMDAT pdata
pdata	SEGMENT
$pdata$??$equal@I$0A@Utvec4@glm@@@glm@@YA?AU?$tvec4@_N$0A@@0@AEBU?$tvec4@I$0A@@0@0@Z DD imagerel $LN9
	DD	imagerel $LN9+263
	DD	imagerel $unwind$??$equal@I$0A@Utvec4@glm@@@glm@@YA?AU?$tvec4@_N$0A@@0@AEBU?$tvec4@I$0A@@0@0@Z
pdata	ENDS
pdata	SEGMENT
$pdata$?test@umulExtended@@YAHXZ DD imagerel $LN23
	DD	imagerel $LN23+1432
	DD	imagerel $unwind$?test@umulExtended@@YAHXZ
pdata	ENDS
;	COMDAT pdata
pdata	SEGMENT
$pdata$??$umulExtended@$0A@Utvec1@glm@@@glm@@YAXAEBU?$tvec1@I$0A@@0@0AEAU10@1@Z DD imagerel $LN3
	DD	imagerel $LN3+206
	DD	imagerel $unwind$??$umulExtended@$0A@Utvec1@glm@@@glm@@YAXAEBU?$tvec1@I$0A@@0@0AEAU10@1@Z
pdata	ENDS
;	COMDAT pdata
pdata	SEGMENT
$pdata$??$umulExtended@$0A@Utvec2@glm@@@glm@@YAXAEBU?$tvec2@I$0A@@0@0AEAU10@1@Z DD imagerel $LN3
	DD	imagerel $LN3+225
	DD	imagerel $unwind$??$umulExtended@$0A@Utvec2@glm@@@glm@@YAXAEBU?$tvec2@I$0A@@0@0AEAU10@1@Z
pdata	ENDS
;	COMDAT pdata
pdata	SEGMENT
$pdata$??$umulExtended@$0A@Utvec3@glm@@@glm@@YAXAEBU?$tvec3@I$0A@@0@0AEAU10@1@Z DD imagerel $LN3
	DD	imagerel $LN3+238
	DD	imagerel $unwind$??$umulExtended@$0A@Utvec3@glm@@@glm@@YAXAEBU?$tvec3@I$0A@@0@0AEAU10@1@Z
pdata	ENDS
;	COMDAT pdata
pdata	SEGMENT
$pdata$??$umulExtended@$0A@Utvec4@glm@@@glm@@YAXAEBU?$tvec4@I$0A@@0@0AEAU10@1@Z DD imagerel $LN3
	DD	imagerel $LN3+241
	DD	imagerel $unwind$??$umulExtended@$0A@Utvec4@glm@@@glm@@YAXAEBU?$tvec4@I$0A@@0@0AEAU10@1@Z
pdata	ENDS
pdata	SEGMENT
$pdata$?test@imulExtended@@YAHXZ DD imagerel $LN23
	DD	imagerel $LN23+1415
	DD	imagerel $unwind$?test@imulExtended@@YAHXZ
pdata	ENDS
;	COMDAT pdata
pdata	SEGMENT
$pdata$?length@?$tvec1@H$0A@@glm@@SAHXZ DD imagerel $LN3
	DD	imagerel $LN3+9
	DD	imagerel $unwind$?length@?$tvec1@H$0A@@glm@@SAHXZ
pdata	ENDS
;	COMDAT pdata
pdata	SEGMENT
$pdata$??A?$tvec1@H$0A@@glm@@QEBAAEBHH@Z DD imagerel $LN5
	DD	imagerel $LN5+80
	DD	imagerel $unwind$??A?$tvec1@H$0A@@glm@@QEBAAEBHH@Z
pdata	ENDS
;	COMDAT pdata
pdata	SEGMENT
$pdata$??0?$tvec1@H$0A@@glm@@QEAA@H@Z DD imagerel $LN3
	DD	imagerel $LN3+28
	DD	imagerel $unwind$??0?$tvec1@H$0A@@glm@@QEAA@H@Z
pdata	ENDS
;	COMDAT pdata
pdata	SEGMENT
$pdata$??$imulExtended@$0A@Utvec1@glm@@@glm@@YAXAEBU?$tvec1@H$0A@@0@0AEAU10@1@Z DD imagerel $LN3
	DD	imagerel $LN3+250
	DD	imagerel $unwind$??$imulExtended@$0A@Utvec1@glm@@@glm@@YAXAEBU?$tvec1@H$0A@@0@0AEAU10@1@Z
pdata	ENDS
;	COMDAT pdata
pdata	SEGMENT
$pdata$??$equal@H$0A@Utvec1@glm@@@glm@@YA?AU?$tvec1@_N$0A@@0@AEBU?$tvec1@H$0A@@0@0@Z DD imagerel $LN9
	DD	imagerel $LN9+264
	DD	imagerel $unwind$??$equal@H$0A@Utvec1@glm@@@glm@@YA?AU?$tvec1@_N$0A@@0@AEBU?$tvec1@H$0A@@0@0@Z
pdata	ENDS
;	COMDAT pdata
pdata	SEGMENT
$pdata$?length@?$tvec2@H$0A@@glm@@SAHXZ DD imagerel $LN3
	DD	imagerel $LN3+9
	DD	imagerel $unwind$?length@?$tvec2@H$0A@@glm@@SAHXZ
pdata	ENDS
;	COMDAT pdata
pdata	SEGMENT
$pdata$??A?$tvec2@H$0A@@glm@@QEBAAEBHH@Z DD imagerel $LN5
	DD	imagerel $LN5+80
	DD	imagerel $unwind$??A?$tvec2@H$0A@@glm@@QEBAAEBHH@Z
pdata	ENDS
;	COMDAT pdata
pdata	SEGMENT
$pdata$??0?$tvec2@H$0A@@glm@@QEAA@H@Z DD imagerel $LN3
	DD	imagerel $LN3+40
	DD	imagerel $unwind$??0?$tvec2@H$0A@@glm@@QEAA@H@Z
pdata	ENDS
;	COMDAT pdata
pdata	SEGMENT
$pdata$??$imulExtended@$0A@Utvec2@glm@@@glm@@YAXAEBU?$tvec2@H$0A@@0@0AEAU10@1@Z DD imagerel $LN3
	DD	imagerel $LN3+269
	DD	imagerel $unwind$??$imulExtended@$0A@Utvec2@glm@@@glm@@YAXAEBU?$tvec2@H$0A@@0@0AEAU10@1@Z
pdata	ENDS
;	COMDAT pdata
pdata	SEGMENT
$pdata$??$equal@H$0A@Utvec2@glm@@@glm@@YA?AU?$tvec2@_N$0A@@0@AEBU?$tvec2@H$0A@@0@0@Z DD imagerel $LN9
	DD	imagerel $LN9+265
	DD	imagerel $unwind$??$equal@H$0A@Utvec2@glm@@@glm@@YA?AU?$tvec2@_N$0A@@0@AEBU?$tvec2@H$0A@@0@0@Z
pdata	ENDS
;	COMDAT pdata
pdata	SEGMENT
$pdata$?length@?$tvec3@H$0A@@glm@@SAHXZ DD imagerel $LN3
	DD	imagerel $LN3+9
	DD	imagerel $unwind$?length@?$tvec3@H$0A@@glm@@SAHXZ
pdata	ENDS
;	COMDAT pdata
pdata	SEGMENT
$pdata$??A?$tvec3@H$0A@@glm@@QEBAAEBHH@Z DD imagerel $LN5
	DD	imagerel $LN5+80
	DD	imagerel $unwind$??A?$tvec3@H$0A@@glm@@QEBAAEBHH@Z
pdata	ENDS
;	COMDAT pdata
pdata	SEGMENT
$pdata$??0?$tvec3@H$0A@@glm@@QEAA@H@Z DD imagerel $LN3
	DD	imagerel $LN3+52
	DD	imagerel $unwind$??0?$tvec3@H$0A@@glm@@QEAA@H@Z
pdata	ENDS
;	COMDAT pdata
pdata	SEGMENT
$pdata$??$imulExtended@$0A@Utvec3@glm@@@glm@@YAXAEBU?$tvec3@H$0A@@0@0AEAU10@1@Z DD imagerel $LN3
	DD	imagerel $LN3+282
	DD	imagerel $unwind$??$imulExtended@$0A@Utvec3@glm@@@glm@@YAXAEBU?$tvec3@H$0A@@0@0AEAU10@1@Z
pdata	ENDS
;	COMDAT pdata
pdata	SEGMENT
$pdata$??$equal@H$0A@Utvec3@glm@@@glm@@YA?AU?$tvec3@_N$0A@@0@AEBU?$tvec3@H$0A@@0@0@Z DD imagerel $LN9
	DD	imagerel $LN9+277
	DD	imagerel $unwind$??$equal@H$0A@Utvec3@glm@@@glm@@YA?AU?$tvec3@_N$0A@@0@AEBU?$tvec3@H$0A@@0@0@Z
pdata	ENDS
;	COMDAT pdata
pdata	SEGMENT
$pdata$??$imulExtended@$0A@Utvec4@glm@@@glm@@YAXAEBU?$tvec4@H$0A@@0@0AEAU10@1@Z DD imagerel $LN3
	DD	imagerel $LN3+285
	DD	imagerel $unwind$??$imulExtended@$0A@Utvec4@glm@@@glm@@YAXAEBU?$tvec4@H$0A@@0@0AEAU10@1@Z
pdata	ENDS
pdata	SEGMENT
$pdata$?perf@bitCount@@YAH_K@Z DD imagerel $LN20
	DD	imagerel $LN20+1035
	DD	imagerel $unwind$?perf@bitCount@@YAH_K@Z
pdata	ENDS
pdata	SEGMENT
$pdata$?dtor$0@?0??perf@bitCount@@YAH_K@Z@4HA DD imagerel ?dtor$0@?0??perf@bitCount@@YAH_K@Z@4HA
	DD	imagerel ?dtor$0@?0??perf@bitCount@@YAH_K@Z@4HA+35
	DD	imagerel $unwind$?dtor$0@?0??perf@bitCount@@YAH_K@Z@4HA
$pdata$?dtor$1@?0??perf@bitCount@@YAH_K@Z@4HA DD imagerel ?dtor$1@?0??perf@bitCount@@YAH_K@Z@4HA
	DD	imagerel ?dtor$1@?0??perf@bitCount@@YAH_K@Z@4HA+35
	DD	imagerel $unwind$?dtor$1@?0??perf@bitCount@@YAH_K@Z@4HA
pdata	ENDS
;	COMDAT pdata
pdata	SEGMENT
$pdata$??0?$allocator@H@std@@QEAA@XZ DD imagerel $LN3
	DD	imagerel $LN3+13
	DD	imagerel $unwind$??0?$allocator@H@std@@QEAA@XZ
pdata	ENDS
;	COMDAT pdata
pdata	SEGMENT
$pdata$?deallocate@?$allocator@H@std@@QEAAXQEAH_K@Z DD imagerel $LN13
	DD	imagerel $LN13+183
	DD	imagerel $unwind$?deallocate@?$allocator@H@std@@QEAAXQEAH_K@Z
pdata	ENDS
;	COMDAT pdata
pdata	SEGMENT
$pdata$?allocate@?$allocator@H@std@@QEAAPEAH_K@Z DD imagerel $LN3
	DD	imagerel $LN3+39
	DD	imagerel $unwind$?allocate@?$allocator@H@std@@QEAAPEAH_K@Z
pdata	ENDS
;	COMDAT pdata
pdata	SEGMENT
$pdata$?max_size@?$_Default_allocator_traits@V?$allocator@H@std@@@std@@SA_KAEBV?$allocator@H@2@@Z DD imagerel $LN3
	DD	imagerel $LN3+18
	DD	imagerel $unwind$?max_size@?$_Default_allocator_traits@V?$allocator@H@std@@@std@@SA_KAEBV?$allocator@H@2@@Z
pdata	ENDS
;	COMDAT pdata
pdata	SEGMENT
$pdata$??0?$vector@HV?$allocator@H@std@@@std@@QEAA@XZ DD imagerel $LN3
	DD	imagerel $LN3+75
	DD	imagerel $unwind$??0?$vector@HV?$allocator@H@std@@@std@@QEAA@XZ
pdata	ENDS
;	COMDAT pdata
pdata	SEGMENT
$pdata$??1?$vector@HV?$allocator@H@std@@@std@@QEAA@XZ DD imagerel $LN3
	DD	imagerel $LN3+136
	DD	imagerel $unwind$??1?$vector@HV?$allocator@H@std@@@std@@QEAA@XZ
pdata	ENDS
;	COMDAT pdata
pdata	SEGMENT
$pdata$?resize@?$vector@HV?$allocator@H@std@@@std@@QEAAX_K@Z DD imagerel $LN3
	DD	imagerel $LN3+41
	DD	imagerel $unwind$?resize@?$vector@HV?$allocator@H@std@@@std@@QEAAX_K@Z
pdata	ENDS
;	COMDAT pdata
pdata	SEGMENT
$pdata$?size@?$vector@HV?$allocator@H@std@@@std@@QEBA_KXZ DD imagerel $LN3
	DD	imagerel $LN3+48
	DD	imagerel $unwind$?size@?$vector@HV?$allocator@H@std@@@std@@QEBA_KXZ
pdata	ENDS
;	COMDAT pdata
pdata	SEGMENT
$pdata$?max_size@?$vector@HV?$allocator@H@std@@@std@@QEBA_KXZ DD imagerel $LN3
	DD	imagerel $LN3+67
	DD	imagerel $unwind$?max_size@?$vector@HV?$allocator@H@std@@@std@@QEBA_KXZ
pdata	ENDS
;	COMDAT pdata
pdata	SEGMENT
$pdata$?capacity@?$vector@HV?$allocator@H@std@@@std@@QEBA_KXZ DD imagerel $LN3
	DD	imagerel $LN3+48
	DD	imagerel $unwind$?capacity@?$vector@HV?$allocator@H@std@@@std@@QEBA_KXZ
pdata	ENDS
;	COMDAT pdata
pdata	SEGMENT
$pdata$??A?$vector@HV?$allocator@H@std@@@std@@QEAAAEAH_K@Z DD imagerel $LN12
	DD	imagerel $LN12+200
	DD	imagerel $unwind$??A?$vector@HV?$allocator@H@std@@@std@@QEAAAEAH_K@Z
pdata	ENDS
;	COMDAT pdata
pdata	SEGMENT
$pdata$?_Calculate_growth@?$vector@HV?$allocator@H@std@@@std@@AEBA_K_K@Z DD imagerel $LN5
	DD	imagerel $LN5+146
	DD	imagerel $unwind$?_Calculate_growth@?$vector@HV?$allocator@H@std@@@std@@AEBA_K_K@Z
pdata	ENDS
;	COMDAT pdata
pdata	SEGMENT
$pdata$?_Change_array@?$vector@HV?$allocator@H@std@@@std@@AEAAXQEAH_K1@Z DD imagerel $LN4
	DD	imagerel $LN4+246
	DD	imagerel $unwind$?_Change_array@?$vector@HV?$allocator@H@std@@@std@@AEAAXQEAH_K1@Z
pdata	ENDS
;	COMDAT pdata
pdata	SEGMENT
$pdata$?_Tidy@?$vector@HV?$allocator@H@std@@@std@@AEAAXXZ DD imagerel $LN4
	DD	imagerel $LN4+210
	DD	imagerel $unwind$?_Tidy@?$vector@HV?$allocator@H@std@@@std@@AEAAXXZ
pdata	ENDS
;	COMDAT pdata
pdata	SEGMENT
$pdata$?_Xlength@?$vector@HV?$allocator@H@std@@@std@@CAXXZ DD imagerel $LN3
	DD	imagerel $LN3+24
	DD	imagerel $unwind$?_Xlength@?$vector@HV?$allocator@H@std@@@std@@CAXXZ
pdata	ENDS
;	COMDAT pdata
pdata	SEGMENT
$pdata$?_Orphan_range_unlocked@?$vector@HV?$allocator@H@std@@@std@@AEBAXPEAH0@Z DD imagerel $LN8
	DD	imagerel $LN8+161
	DD	imagerel $unwind$?_Orphan_range_unlocked@?$vector@HV?$allocator@H@std@@@std@@AEBAXPEAH0@Z
pdata	ENDS
;	COMDAT pdata
pdata	SEGMENT
$pdata$?_Orphan_range_locked@?$vector@HV?$allocator@H@std@@@std@@AEBAXPEAH0@Z DD imagerel $LN4
	DD	imagerel $LN4+112
	DD	imagerel $unwind$?_Orphan_range_locked@?$vector@HV?$allocator@H@std@@@std@@AEBAXPEAH0@Z
pdata	ENDS
;	COMDAT pdata
pdata	SEGMENT
$pdata$?dtor$0@?0??_Orphan_range_locked@?$vector@HV?$allocator@H@std@@@std@@AEBAXPEAH0@Z@4HA DD imagerel ?dtor$0@?0??_Orphan_range_locked@?$vector@HV?$allocator@H@std@@@std@@AEBAXPEAH0@Z@4HA
	DD	imagerel ?dtor$0@?0??_Orphan_range_locked@?$vector@HV?$allocator@H@std@@@std@@AEBAXPEAH0@Z@4HA+36
	DD	imagerel $unwind$?dtor$0@?0??_Orphan_range_locked@?$vector@HV?$allocator@H@std@@@std@@AEBAXPEAH0@Z@4HA
pdata	ENDS
;	COMDAT pdata
pdata	SEGMENT
$pdata$?_Orphan_range@?$vector@HV?$allocator@H@std@@@std@@AEBAXPEAH0@Z DD imagerel $LN3
	DD	imagerel $LN3+46
	DD	imagerel $unwind$?_Orphan_range@?$vector@HV?$allocator@H@std@@@std@@AEBAXPEAH0@Z
pdata	ENDS
;	COMDAT pdata
pdata	SEGMENT
$pdata$?_Getal@?$vector@HV?$allocator@H@std@@@std@@AEAAAEAV?$allocator@H@2@XZ DD imagerel $LN3
	DD	imagerel $LN3+29
	DD	imagerel $unwind$?_Getal@?$vector@HV?$allocator@H@std@@@std@@AEAAAEAV?$allocator@H@2@XZ
pdata	ENDS
;	COMDAT pdata
pdata	SEGMENT
$pdata$?_Getal@?$vector@HV?$allocator@H@std@@@std@@AEBAAEBV?$allocator@H@2@XZ DD imagerel $LN3
	DD	imagerel $LN3+29
	DD	imagerel $unwind$?_Getal@?$vector@HV?$allocator@H@std@@@std@@AEBAAEBV?$allocator@H@2@XZ
pdata	ENDS
;	COMDAT pdata
pdata	SEGMENT
$pdata$??0?$_Vector_val@U?$_Simple_types@H@std@@@std@@QEAA@XZ DD imagerel $LN3
	DD	imagerel $LN3+70
	DD	imagerel $unwind$??0?$_Vector_val@U?$_Simple_types@H@std@@@std@@QEAA@XZ
pdata	ENDS
;	COMDAT pdata
pdata	SEGMENT
$pdata$?_Get_first@?$_Compressed_pair@V?$allocator@H@std@@V?$_Vector_val@U?$_Simple_types@H@std@@@2@$00@std@@QEAAAEAV?$allocator@H@2@XZ DD imagerel $LN3
	DD	imagerel $LN3+13
	DD	imagerel $unwind$?_Get_first@?$_Compressed_pair@V?$allocator@H@std@@V?$_Vector_val@U?$_Simple_types@H@std@@@2@$00@std@@QEAAAEAV?$allocator@H@2@XZ
pdata	ENDS
;	COMDAT pdata
pdata	SEGMENT
$pdata$?_Get_first@?$_Compressed_pair@V?$allocator@H@std@@V?$_Vector_val@U?$_Simple_types@H@std@@@2@$00@std@@QEBAAEBV?$allocator@H@2@XZ DD imagerel $LN3
	DD	imagerel $LN3+13
	DD	imagerel $unwind$?_Get_first@?$_Compressed_pair@V?$allocator@H@std@@V?$_Vector_val@U?$_Simple_types@H@std@@@2@$00@std@@QEBAAEBV?$allocator@H@2@XZ
pdata	ENDS
;	COMDAT pdata
pdata	SEGMENT
$pdata$??0?$allocator@U?$tvec4@H$0A@@glm@@@std@@QEAA@XZ DD imagerel $LN3
	DD	imagerel $LN3+13
	DD	imagerel $unwind$??0?$allocator@U?$tvec4@H$0A@@glm@@@std@@QEAA@XZ
pdata	ENDS
;	COMDAT pdata
pdata	SEGMENT
$pdata$?deallocate@?$allocator@U?$tvec4@H$0A@@glm@@@std@@QEAAXQEAU?$tvec4@H$0A@@glm@@_K@Z DD imagerel $LN13
	DD	imagerel $LN13+180
	DD	imagerel $unwind$?deallocate@?$allocator@U?$tvec4@H$0A@@glm@@@std@@QEAAXQEAU?$tvec4@H$0A@@glm@@_K@Z
pdata	ENDS
;	COMDAT pdata
pdata	SEGMENT
$pdata$?allocate@?$allocator@U?$tvec4@H$0A@@glm@@@std@@QEAAPEAU?$tvec4@H$0A@@glm@@_K@Z DD imagerel $LN3
	DD	imagerel $LN3+39
	DD	imagerel $unwind$?allocate@?$allocator@U?$tvec4@H$0A@@glm@@@std@@QEAAPEAU?$tvec4@H$0A@@glm@@_K@Z
pdata	ENDS
;	COMDAT pdata
pdata	SEGMENT
$pdata$?max_size@?$_Default_allocator_traits@V?$allocator@U?$tvec4@H$0A@@glm@@@std@@@std@@SA_KAEBV?$allocator@U?$tvec4@H$0A@@glm@@@2@@Z DD imagerel $LN3
	DD	imagerel $LN3+18
	DD	imagerel $unwind$?max_size@?$_Default_allocator_traits@V?$allocator@U?$tvec4@H$0A@@glm@@@std@@@std@@SA_KAEBV?$allocator@U?$tvec4@H$0A@@glm@@@2@@Z
pdata	ENDS
;	COMDAT pdata
pdata	SEGMENT
$pdata$??0?$vector@U?$tvec4@H$0A@@glm@@V?$allocator@U?$tvec4@H$0A@@glm@@@std@@@std@@QEAA@XZ DD imagerel $LN3
	DD	imagerel $LN3+75
	DD	imagerel $unwind$??0?$vector@U?$tvec4@H$0A@@glm@@V?$allocator@U?$tvec4@H$0A@@glm@@@std@@@std@@QEAA@XZ
pdata	ENDS
;	COMDAT pdata
pdata	SEGMENT
$pdata$??1?$vector@U?$tvec4@H$0A@@glm@@V?$allocator@U?$tvec4@H$0A@@glm@@@std@@@std@@QEAA@XZ DD imagerel $LN3
	DD	imagerel $LN3+136
	DD	imagerel $unwind$??1?$vector@U?$tvec4@H$0A@@glm@@V?$allocator@U?$tvec4@H$0A@@glm@@@std@@@std@@QEAA@XZ
pdata	ENDS
;	COMDAT pdata
pdata	SEGMENT
$pdata$?resize@?$vector@U?$tvec4@H$0A@@glm@@V?$allocator@U?$tvec4@H$0A@@glm@@@std@@@std@@QEAAX_K@Z DD imagerel $LN3
	DD	imagerel $LN3+41
	DD	imagerel $unwind$?resize@?$vector@U?$tvec4@H$0A@@glm@@V?$allocator@U?$tvec4@H$0A@@glm@@@std@@@std@@QEAAX_K@Z
pdata	ENDS
;	COMDAT pdata
pdata	SEGMENT
$pdata$?max_size@?$vector@U?$tvec4@H$0A@@glm@@V?$allocator@U?$tvec4@H$0A@@glm@@@std@@@std@@QEBA_KXZ DD imagerel $LN3
	DD	imagerel $LN3+67
	DD	imagerel $unwind$?max_size@?$vector@U?$tvec4@H$0A@@glm@@V?$allocator@U?$tvec4@H$0A@@glm@@@std@@@std@@QEBA_KXZ
pdata	ENDS
;	COMDAT pdata
pdata	SEGMENT
$pdata$?capacity@?$vector@U?$tvec4@H$0A@@glm@@V?$allocator@U?$tvec4@H$0A@@glm@@@std@@@std@@QEBA_KXZ DD imagerel $LN3
	DD	imagerel $LN3+48
	DD	imagerel $unwind$?capacity@?$vector@U?$tvec4@H$0A@@glm@@V?$allocator@U?$tvec4@H$0A@@glm@@@std@@@std@@QEBA_KXZ
pdata	ENDS
;	COMDAT pdata
pdata	SEGMENT
$pdata$??A?$vector@U?$tvec4@H$0A@@glm@@V?$allocator@U?$tvec4@H$0A@@glm@@@std@@@std@@QEAAAEAU?$tvec4@H$0A@@glm@@_K@Z DD imagerel $LN12
	DD	imagerel $LN12+197
	DD	imagerel $unwind$??A?$vector@U?$tvec4@H$0A@@glm@@V?$allocator@U?$tvec4@H$0A@@glm@@@std@@@std@@QEAAAEAU?$tvec4@H$0A@@glm@@_K@Z
pdata	ENDS
;	COMDAT pdata
pdata	SEGMENT
$pdata$?_Calculate_growth@?$vector@U?$tvec4@H$0A@@glm@@V?$allocator@U?$tvec4@H$0A@@glm@@@std@@@std@@AEBA_K_K@Z DD imagerel $LN5
	DD	imagerel $LN5+146
	DD	imagerel $unwind$?_Calculate_growth@?$vector@U?$tvec4@H$0A@@glm@@V?$allocator@U?$tvec4@H$0A@@glm@@@std@@@std@@AEBA_K_K@Z
pdata	ENDS
;	COMDAT pdata
pdata	SEGMENT
$pdata$?_Change_array@?$vector@U?$tvec4@H$0A@@glm@@V?$allocator@U?$tvec4@H$0A@@glm@@@std@@@std@@AEAAXQEAU?$tvec4@H$0A@@glm@@_K1@Z DD imagerel $LN4
	DD	imagerel $LN4+252
	DD	imagerel $unwind$?_Change_array@?$vector@U?$tvec4@H$0A@@glm@@V?$allocator@U?$tvec4@H$0A@@glm@@@std@@@std@@AEAAXQEAU?$tvec4@H$0A@@glm@@_K1@Z
pdata	ENDS
;	COMDAT pdata
pdata	SEGMENT
$pdata$?_Tidy@?$vector@U?$tvec4@H$0A@@glm@@V?$allocator@U?$tvec4@H$0A@@glm@@@std@@@std@@AEAAXXZ DD imagerel $LN4
	DD	imagerel $LN4+210
	DD	imagerel $unwind$?_Tidy@?$vector@U?$tvec4@H$0A@@glm@@V?$allocator@U?$tvec4@H$0A@@glm@@@std@@@std@@AEAAXXZ
pdata	ENDS
;	COMDAT pdata
pdata	SEGMENT
$pdata$?_Xlength@?$vector@U?$tvec4@H$0A@@glm@@V?$allocator@U?$tvec4@H$0A@@glm@@@std@@@std@@CAXXZ DD imagerel $LN3
	DD	imagerel $LN3+24
	DD	imagerel $unwind$?_Xlength@?$vector@U?$tvec4@H$0A@@glm@@V?$allocator@U?$tvec4@H$0A@@glm@@@std@@@std@@CAXXZ
pdata	ENDS
;	COMDAT pdata
pdata	SEGMENT
$pdata$?_Orphan_range_unlocked@?$vector@U?$tvec4@H$0A@@glm@@V?$allocator@U?$tvec4@H$0A@@glm@@@std@@@std@@AEBAXPEAU?$tvec4@H$0A@@glm@@0@Z DD imagerel $LN8
	DD	imagerel $LN8+161
	DD	imagerel $unwind$?_Orphan_range_unlocked@?$vector@U?$tvec4@H$0A@@glm@@V?$allocator@U?$tvec4@H$0A@@glm@@@std@@@std@@AEBAXPEAU?$tvec4@H$0A@@glm@@0@Z
pdata	ENDS
;	COMDAT pdata
pdata	SEGMENT
$pdata$?_Orphan_range_locked@?$vector@U?$tvec4@H$0A@@glm@@V?$allocator@U?$tvec4@H$0A@@glm@@@std@@@std@@AEBAXPEAU?$tvec4@H$0A@@glm@@0@Z DD imagerel $LN4
	DD	imagerel $LN4+112
	DD	imagerel $unwind$?_Orphan_range_locked@?$vector@U?$tvec4@H$0A@@glm@@V?$allocator@U?$tvec4@H$0A@@glm@@@std@@@std@@AEBAXPEAU?$tvec4@H$0A@@glm@@0@Z
pdata	ENDS
;	COMDAT pdata
pdata	SEGMENT
$pdata$?dtor$0@?0??_Orphan_range_locked@?$vector@U?$tvec4@H$0A@@glm@@V?$allocator@U?$tvec4@H$0A@@glm@@@std@@@std@@AEBAXPEAU?$tvec4@H$0A@@glm@@0@Z@4HA DD imagerel ?dtor$0@?0??_Orphan_range_locked@?$vector@U?$tvec4@H$0A@@glm@@V?$allocator@U?$tvec4@H$0A@@glm@@@std@@@std@@AEBAXPEAU?$tvec4@H$0A@@glm@@0@Z@4HA
	DD	imagerel ?dtor$0@?0??_Orphan_range_locked@?$vector@U?$tvec4@H$0A@@glm@@V?$allocator@U?$tvec4@H$0A@@glm@@@std@@@std@@AEBAXPEAU?$tvec4@H$0A@@glm@@0@Z@4HA+36
	DD	imagerel $unwind$?dtor$0@?0??_Orphan_range_locked@?$vector@U?$tvec4@H$0A@@glm@@V?$allocator@U?$tvec4@H$0A@@glm@@@std@@@std@@AEBAXPEAU?$tvec4@H$0A@@glm@@0@Z@4HA
pdata	ENDS
;	COMDAT pdata
pdata	SEGMENT
$pdata$?_Orphan_range@?$vector@U?$tvec4@H$0A@@glm@@V?$allocator@U?$tvec4@H$0A@@glm@@@std@@@std@@AEBAXPEAU?$tvec4@H$0A@@glm@@0@Z DD imagerel $LN3
	DD	imagerel $LN3+46
	DD	imagerel $unwind$?_Orphan_range@?$vector@U?$tvec4@H$0A@@glm@@V?$allocator@U?$tvec4@H$0A@@glm@@@std@@@std@@AEBAXPEAU?$tvec4@H$0A@@glm@@0@Z
pdata	ENDS
;	COMDAT pdata
pdata	SEGMENT
$pdata$?_Getal@?$vector@U?$tvec4@H$0A@@glm@@V?$allocator@U?$tvec4@H$0A@@glm@@@std@@@std@@AEAAAEAV?$allocator@U?$tvec4@H$0A@@glm@@@2@XZ DD imagerel $LN3
	DD	imagerel $LN3+29
	DD	imagerel $unwind$?_Getal@?$vector@U?$tvec4@H$0A@@glm@@V?$allocator@U?$tvec4@H$0A@@glm@@@std@@@std@@AEAAAEAV?$allocator@U?$tvec4@H$0A@@glm@@@2@XZ
pdata	ENDS
;	COMDAT pdata
pdata	SEGMENT
$pdata$?_Getal@?$vector@U?$tvec4@H$0A@@glm@@V?$allocator@U?$tvec4@H$0A@@glm@@@std@@@std@@AEBAAEBV?$allocator@U?$tvec4@H$0A@@glm@@@2@XZ DD imagerel $LN3
	DD	imagerel $LN3+29
	DD	imagerel $unwind$?_Getal@?$vector@U?$tvec4@H$0A@@glm@@V?$allocator@U?$tvec4@H$0A@@glm@@@std@@@std@@AEBAAEBV?$allocator@U?$tvec4@H$0A@@glm@@@2@XZ
pdata	ENDS
;	COMDAT pdata
pdata	SEGMENT
$pdata$??0?$_Vector_val@U?$_Simple_types@U?$tvec4@H$0A@@glm@@@std@@@std@@QEAA@XZ DD imagerel $LN3
	DD	imagerel $LN3+70
	DD	imagerel $unwind$??0?$_Vector_val@U?$_Simple_types@U?$tvec4@H$0A@@glm@@@std@@@std@@QEAA@XZ
pdata	ENDS
;	COMDAT pdata
pdata	SEGMENT
$pdata$?_Get_first@?$_Compressed_pair@V?$allocator@U?$tvec4@H$0A@@glm@@@std@@V?$_Vector_val@U?$_Simple_types@U?$tvec4@H$0A@@glm@@@std@@@2@$00@std@@QEAAAEAV?$allocator@U?$tvec4@H$0A@@glm@@@2@XZ DD imagerel $LN3
	DD	imagerel $LN3+13
	DD	imagerel $unwind$?_Get_first@?$_Compressed_pair@V?$allocator@U?$tvec4@H$0A@@glm@@@std@@V?$_Vector_val@U?$_Simple_types@U?$tvec4@H$0A@@glm@@@std@@@2@$00@std@@QEAAAEAV?$allocator@U?$tvec4@H$0A@@glm@@@2@XZ
pdata	ENDS
;	COMDAT pdata
pdata	SEGMENT
$pdata$?_Get_first@?$_Compressed_pair@V?$allocator@U?$tvec4@H$0A@@glm@@@std@@V?$_Vector_val@U?$_Simple_types@U?$tvec4@H$0A@@glm@@@std@@@2@$00@std@@QEBAAEBV?$allocator@U?$tvec4@H$0A@@glm@@@2@XZ DD imagerel $LN3
	DD	imagerel $LN3+13
	DD	imagerel $unwind$?_Get_first@?$_Compressed_pair@V?$allocator@U?$tvec4@H$0A@@glm@@@std@@V?$_Vector_val@U?$_Simple_types@U?$tvec4@H$0A@@glm@@@std@@@2@$00@std@@QEBAAEBV?$allocator@U?$tvec4@H$0A@@glm@@@2@XZ
pdata	ENDS
;	COMDAT pdata
pdata	SEGMENT
$pdata$??$bitCount_if@H@bitCount@@YAHH@Z DD imagerel $LN7
	DD	imagerel $LN7+107
	DD	imagerel $unwind$??$bitCount_if@H@bitCount@@YAHH@Z
pdata	ENDS
;	COMDAT pdata
pdata	SEGMENT
$pdata$??$bitCount_vec@_K@bitCount@@YAH_K@Z DD imagerel $LN6
	DD	imagerel $LN6+103
	DD	imagerel $unwind$??$bitCount_vec@_K@bitCount@@YAH_K@Z
pdata	ENDS
;	COMDAT pdata
pdata	SEGMENT
$pdata$??$bitCount@_K@glm@@YAH_K@Z DD imagerel $LN3
	DD	imagerel $LN3+46
	DD	imagerel $unwind$??$bitCount@_K@glm@@YAH_K@Z
pdata	ENDS
;	COMDAT pdata
pdata	SEGMENT
$pdata$??$bitCount@H$0A@Utvec4@glm@@@glm@@YA?AU?$tvec4@H$0A@@0@AEBU10@@Z DD imagerel $LN3
	DD	imagerel $LN3+400
	DD	imagerel $unwind$??$bitCount@H$0A@Utvec4@glm@@@glm@@YA?AU?$tvec4@H$0A@@0@AEBU10@@Z
pdata	ENDS
;	COMDAT pdata
pdata	SEGMENT
$pdata$??$bitCount_bitfield@H@bitCount@@YAHH@Z DD imagerel $LN3
	DD	imagerel $LN3+44
	DD	imagerel $unwind$??$bitCount_bitfield@H@bitCount@@YAHH@Z
pdata	ENDS
pdata	SEGMENT
$pdata$?test@bitCount@@YAHXZ DD imagerel $LN15
	DD	imagerel $LN15+433
	DD	imagerel $unwind$?test@bitCount@@YAHXZ
pdata	ENDS
;	COMDAT pdata
pdata	SEGMENT
$pdata$??$bitCount@H@glm@@YAHH@Z DD imagerel $LN3
	DD	imagerel $LN3+44
	DD	imagerel $unwind$??$bitCount@H@glm@@YAHH@Z
pdata	ENDS
;	COMDAT pdata
pdata	SEGMENT
$pdata$??$bitCount_vec@H@bitCount@@YAHH@Z DD imagerel $LN6
	DD	imagerel $LN6+91
	DD	imagerel $unwind$??$bitCount_vec@H@bitCount@@YAHH@Z
pdata	ENDS
pdata	SEGMENT
$pdata$main DD	imagerel $LN3
	DD	imagerel $LN3+194
	DD	imagerel $unwind$main
pdata	ENDS
;	COMDAT pdata
pdata	SEGMENT
$pdata$??$_Resize@U_Value_init_tag@std@@@?$vector@U?$tvec4@H$0A@@glm@@V?$allocator@U?$tvec4@H$0A@@glm@@@std@@@std@@AEAAX_KAEBU_Value_init_tag@1@@Z DD imagerel $LN6
	DD	imagerel $LN6+359
	DD	imagerel $unwind$??$_Resize@U_Value_init_tag@std@@@?$vector@U?$tvec4@H$0A@@glm@@V?$allocator@U?$tvec4@H$0A@@glm@@@std@@@std@@AEAAX_KAEBU_Value_init_tag@1@@Z
pdata	ENDS
;	COMDAT pdata
pdata	SEGMENT
$pdata$?allocate@?$allocator@U_Container_proxy@std@@@std@@QEAAPEAU_Container_proxy@2@_K@Z DD imagerel $LN3
	DD	imagerel $LN3+39
	DD	imagerel $unwind$?allocate@?$allocator@U_Container_proxy@std@@@std@@QEAAPEAU_Container_proxy@2@_K@Z
pdata	ENDS
;	COMDAT pdata
pdata	SEGMENT
$pdata$??$?0U?$tvec4@H$0A@@glm@@@?$allocator@U_Container_proxy@std@@@std@@QEAA@AEBV?$allocator@U?$tvec4@H$0A@@glm@@@1@@Z DD imagerel $LN3
	DD	imagerel $LN3+18
	DD	imagerel $unwind$??$?0U?$tvec4@H$0A@@glm@@@?$allocator@U_Container_proxy@std@@@std@@QEAA@AEBV?$allocator@U?$tvec4@H$0A@@glm@@@1@@Z
pdata	ENDS
;	COMDAT pdata
pdata	SEGMENT
$pdata$??$exchange@PEAU_Container_proxy@std@@$$T@std@@YAPEAU_Container_proxy@0@AEAPEAU10@$$QEA$$T@Z DD imagerel $LN3
	DD	imagerel $LN3+53
	DD	imagerel $unwind$??$exchange@PEAU_Container_proxy@std@@$$T@std@@YAPEAU_Container_proxy@0@AEAPEAU10@$$QEA$$T@Z
pdata	ENDS
;	COMDAT pdata
pdata	SEGMENT
$pdata$??$_Delete_plain_internal@V?$allocator@U_Container_proxy@std@@@std@@@std@@YAXAEAV?$allocator@U_Container_proxy@std@@@0@QEAU_Container_proxy@0@@Z DD imagerel $LN3
	DD	imagerel $LN3+36
	DD	imagerel $unwind$??$_Delete_plain_internal@V?$allocator@U_Container_proxy@std@@@std@@@std@@YAXAEAV?$allocator@U_Container_proxy@std@@@0@QEAU_Container_proxy@0@@Z
pdata	ENDS
;	COMDAT pdata
pdata	SEGMENT
$pdata$??$?0$$V@?$_Compressed_pair@V?$allocator@U?$tvec4@H$0A@@glm@@@std@@V?$_Vector_val@U?$_Simple_types@U?$tvec4@H$0A@@glm@@@std@@@2@$00@std@@QEAA@U_Zero_then_variadic_args_t@1@@Z DD imagerel $LN3
	DD	imagerel $LN3+48
	DD	imagerel $unwind$??$?0$$V@?$_Compressed_pair@V?$allocator@U?$tvec4@H$0A@@glm@@@std@@V?$_Vector_val@U?$_Simple_types@U?$tvec4@H$0A@@glm@@@std@@@2@$00@std@@QEAA@U_Zero_then_variadic_args_t@1@@Z
pdata	ENDS
;	COMDAT pdata
pdata	SEGMENT
$pdata$??$_Alloc_proxy@V?$allocator@U_Container_proxy@std@@@std@@@_Container_base12@std@@QEAAX$$QEAV?$allocator@U_Container_proxy@std@@@1@@Z DD imagerel $LN3
	DD	imagerel $LN3+100
	DD	imagerel $unwind$??$_Alloc_proxy@V?$allocator@U_Container_proxy@std@@@std@@@_Container_base12@std@@QEAAX$$QEAV?$allocator@U_Container_proxy@std@@@1@@Z
pdata	ENDS
;	COMDAT pdata
pdata	SEGMENT
$pdata$??$_Resize@U_Value_init_tag@std@@@?$vector@HV?$allocator@H@std@@@std@@AEAAX_KAEBU_Value_init_tag@1@@Z DD imagerel $LN6
	DD	imagerel $LN6+362
	DD	imagerel $unwind$??$_Resize@U_Value_init_tag@std@@@?$vector@HV?$allocator@H@std@@@std@@AEAAX_KAEBU_Value_init_tag@1@@Z
pdata	ENDS
;	COMDAT pdata
pdata	SEGMENT
$pdata$??$?0H@?$allocator@U_Container_proxy@std@@@std@@QEAA@AEBV?$allocator@H@1@@Z DD imagerel $LN3
	DD	imagerel $LN3+18
	DD	imagerel $unwind$??$?0H@?$allocator@U_Container_proxy@std@@@std@@QEAA@AEBV?$allocator@H@1@@Z
pdata	ENDS
;	COMDAT pdata
pdata	SEGMENT
$pdata$??$?0$$V@?$_Compressed_pair@V?$allocator@H@std@@V?$_Vector_val@U?$_Simple_types@H@std@@@2@$00@std@@QEAA@U_Zero_then_variadic_args_t@1@@Z DD imagerel $LN3
	DD	imagerel $LN3+48
	DD	imagerel $unwind$??$?0$$V@?$_Compressed_pair@V?$allocator@H@std@@V?$_Vector_val@U?$_Simple_types@H@std@@@2@$00@std@@QEAA@U_Zero_then_variadic_args_t@1@@Z
pdata	ENDS
;	COMDAT pdata
pdata	SEGMENT
$pdata$??$_Resize@U_Value_init_tag@std@@@?$vector@_KV?$allocator@_K@std@@@std@@AEAAX_KAEBU_Value_init_tag@1@@Z DD imagerel $LN6
	DD	imagerel $LN6+362
	DD	imagerel $unwind$??$_Resize@U_Value_init_tag@std@@@?$vector@_KV?$allocator@_K@std@@@std@@AEAAX_KAEBU_Value_init_tag@1@@Z
pdata	ENDS
;	COMDAT pdata
pdata	SEGMENT
$pdata$??$?0_K@?$allocator@U_Container_proxy@std@@@std@@QEAA@AEBV?$allocator@_K@1@@Z DD imagerel $LN3
	DD	imagerel $LN3+18
	DD	imagerel $unwind$??$?0_K@?$allocator@U_Container_proxy@std@@@std@@QEAA@AEBV?$allocator@_K@1@@Z
pdata	ENDS
;	COMDAT pdata
pdata	SEGMENT
$pdata$??$?0$$V@?$_Compressed_pair@V?$allocator@_K@std@@V?$_Vector_val@U?$_Simple_types@_K@std@@@2@$00@std@@QEAA@U_Zero_then_variadic_args_t@1@@Z DD imagerel $LN3
	DD	imagerel $LN3+48
	DD	imagerel $unwind$??$?0$$V@?$_Compressed_pair@V?$allocator@_K@std@@V?$_Vector_val@U?$_Simple_types@_K@std@@@2@$00@std@@QEAA@U_Zero_then_variadic_args_t@1@@Z
pdata	ENDS
;	COMDAT pdata
pdata	SEGMENT
$pdata$??$_Resize@U_Value_init_tag@std@@@?$vector@IV?$allocator@I@std@@@std@@AEAAX_KAEBU_Value_init_tag@1@@Z DD imagerel $LN6
	DD	imagerel $LN6+362
	DD	imagerel $unwind$??$_Resize@U_Value_init_tag@std@@@?$vector@IV?$allocator@I@std@@@std@@AEAAX_KAEBU_Value_init_tag@1@@Z
pdata	ENDS
;	COMDAT pdata
pdata	SEGMENT
$pdata$??$?0I@?$allocator@U_Container_proxy@std@@@std@@QEAA@AEBV?$allocator@I@1@@Z DD imagerel $LN3
	DD	imagerel $LN3+18
	DD	imagerel $unwind$??$?0I@?$allocator@U_Container_proxy@std@@@std@@QEAA@AEBV?$allocator@I@1@@Z
pdata	ENDS
;	COMDAT pdata
pdata	SEGMENT
$pdata$??$?0$$V@?$_Compressed_pair@V?$allocator@I@std@@V?$_Vector_val@U?$_Simple_types@I@std@@@2@$00@std@@QEAA@U_Zero_then_variadic_args_t@1@@Z DD imagerel $LN3
	DD	imagerel $LN3+48
	DD	imagerel $unwind$??$?0$$V@?$_Compressed_pair@V?$allocator@I@std@@V?$_Vector_val@U?$_Simple_types@I@std@@@2@$00@std@@QEAA@U_Zero_then_variadic_args_t@1@@Z
pdata	ENDS
;	COMDAT pdata
pdata	SEGMENT
$pdata$??$_Destroy_range@V?$allocator@U?$tvec4@H$0A@@glm@@@std@@@std@@YAXPEAU?$tvec4@H$0A@@glm@@QEAU12@AEAV?$allocator@U?$tvec4@H$0A@@glm@@@0@@Z DD imagerel $LN3
	DD	imagerel $LN3+18
	DD	imagerel $unwind$??$_Destroy_range@V?$allocator@U?$tvec4@H$0A@@glm@@@std@@@std@@YAXPEAU?$tvec4@H$0A@@glm@@QEAU12@AEAV?$allocator@U?$tvec4@H$0A@@glm@@@0@@Z
pdata	ENDS
;	COMDAT pdata
pdata	SEGMENT
$pdata$??$_Destroy_range@V?$allocator@H@std@@@std@@YAXPEAHQEAHAEAV?$allocator@H@0@@Z DD imagerel $LN3
	DD	imagerel $LN3+18
	DD	imagerel $unwind$??$_Destroy_range@V?$allocator@H@std@@@std@@YAXPEAHQEAHAEAV?$allocator@H@0@@Z
pdata	ENDS
;	COMDAT pdata
pdata	SEGMENT
$pdata$??$_Destroy_range@V?$allocator@_K@std@@@std@@YAXPEA_KQEA_KAEAV?$allocator@_K@0@@Z DD imagerel $LN3
	DD	imagerel $LN3+18
	DD	imagerel $unwind$??$_Destroy_range@V?$allocator@_K@std@@@std@@YAXPEA_KQEA_KAEAV?$allocator@_K@0@@Z
pdata	ENDS
;	COMDAT pdata
pdata	SEGMENT
$pdata$??$_Destroy_range@V?$allocator@I@std@@@std@@YAXPEAIQEAIAEAV?$allocator@I@0@@Z DD imagerel $LN3
	DD	imagerel $LN3+18
	DD	imagerel $unwind$??$_Destroy_range@V?$allocator@I@std@@@std@@YAXPEAIQEAIAEAV?$allocator@I@0@@Z
pdata	ENDS
;	COMDAT pdata
pdata	SEGMENT
$pdata$??$_Deallocate@$0BA@$0A@@std@@YAXPEAX_K@Z DD imagerel $LN4
	DD	imagerel $LN4+63
	DD	imagerel $unwind$??$_Deallocate@$0BA@$0A@@std@@YAXPEAX_K@Z
pdata	ENDS
;	COMDAT pdata
pdata	SEGMENT
$pdata$??$bitfieldInsert@I$0A@Utvec1@glm@@@glm@@YA?AU?$tvec1@I$0A@@0@AEBU10@0HH@Z DD imagerel $LN3
	DD	imagerel $LN3+125
	DD	imagerel $unwind$??$bitfieldInsert@I$0A@Utvec1@glm@@@glm@@YA?AU?$tvec1@I$0A@@0@AEBU10@0HH@Z
pdata	ENDS
;	COMDAT pdata
pdata	SEGMENT
$pdata$??$bitfieldExtract@I$0A@Utvec1@glm@@@glm@@YA?AU?$tvec1@I$0A@@0@AEBU10@HH@Z DD imagerel $LN3
	DD	imagerel $LN3+89
	DD	imagerel $unwind$??$bitfieldExtract@I$0A@Utvec1@glm@@@glm@@YA?AU?$tvec1@I$0A@@0@AEBU10@HH@Z
pdata	ENDS
;	COMDAT pdata
pdata	SEGMENT
$pdata$??$bitfieldReverse@I$0A@Utvec1@glm@@@glm@@YA?AU?$tvec1@I$0A@@0@AEBU10@@Z DD imagerel $LN3
	DD	imagerel $LN3+289
	DD	imagerel $unwind$??$bitfieldReverse@I$0A@Utvec1@glm@@@glm@@YA?AU?$tvec1@I$0A@@0@AEBU10@@Z
pdata	ENDS
;	COMDAT pdata
pdata	SEGMENT
$pdata$??$bitfieldReverseLoop@I$0A@Utvec1@glm@@@bitfieldReverse@@YA?AU?$tvec1@I$0A@@glm@@AEBU12@@Z DD imagerel $LN6
	DD	imagerel $LN6+247
	DD	imagerel $unwind$??$bitfieldReverseLoop@I$0A@Utvec1@glm@@@bitfieldReverse@@YA?AU?$tvec1@I$0A@@glm@@AEBU12@@Z
pdata	ENDS
;	COMDAT pdata
pdata	SEGMENT
$pdata$??$bitfieldReverseOps@I$0A@Utvec1@glm@@@bitfieldReverse@@YA?AU?$tvec1@I$0A@@glm@@AEBU12@@Z DD imagerel $LN3
	DD	imagerel $LN3+289
	DD	imagerel $unwind$??$bitfieldReverseOps@I$0A@Utvec1@glm@@@bitfieldReverse@@YA?AU?$tvec1@I$0A@@glm@@AEBU12@@Z
pdata	ENDS
;	COMDAT pdata
pdata	SEGMENT
$pdata$?length@?$tvec1@_K$0A@@glm@@SAHXZ DD imagerel $LN3
	DD	imagerel $LN3+9
	DD	imagerel $unwind$?length@?$tvec1@_K$0A@@glm@@SAHXZ
pdata	ENDS
;	COMDAT pdata
pdata	SEGMENT
$pdata$??A?$tvec1@_K$0A@@glm@@QEBAAEB_KH@Z DD imagerel $LN5
	DD	imagerel $LN5+80
	DD	imagerel $unwind$??A?$tvec1@_K$0A@@glm@@QEBAAEB_KH@Z
pdata	ENDS
;	COMDAT pdata
pdata	SEGMENT
$pdata$??0?$tvec1@_K$0A@@glm@@QEAA@_K@Z DD imagerel $LN3
	DD	imagerel $LN3+31
	DD	imagerel $unwind$??0?$tvec1@_K$0A@@glm@@QEAA@_K@Z
pdata	ENDS
;	COMDAT pdata
pdata	SEGMENT
$pdata$??$bitfieldReverse@_K$0A@Utvec1@glm@@@glm@@YA?AU?$tvec1@_K$0A@@0@AEBU10@@Z DD imagerel $LN3
	DD	imagerel $LN3+337
	DD	imagerel $unwind$??$bitfieldReverse@_K$0A@Utvec1@glm@@@glm@@YA?AU?$tvec1@_K$0A@@0@AEBU10@@Z
pdata	ENDS
;	COMDAT pdata
pdata	SEGMENT
$pdata$??$bitfieldReverseLoop@_K$0A@Utvec1@glm@@@bitfieldReverse@@YA?AU?$tvec1@_K$0A@@glm@@AEBU12@@Z DD imagerel $LN6
	DD	imagerel $LN6+272
	DD	imagerel $unwind$??$bitfieldReverseLoop@_K$0A@Utvec1@glm@@@bitfieldReverse@@YA?AU?$tvec1@_K$0A@@glm@@AEBU12@@Z
pdata	ENDS
;	COMDAT pdata
pdata	SEGMENT
$pdata$??$bitfieldReverseOps@_K$0A@Utvec1@glm@@@bitfieldReverse@@YA?AU?$tvec1@_K$0A@@glm@@AEBU12@@Z DD imagerel $LN3
	DD	imagerel $LN3+337
	DD	imagerel $unwind$??$bitfieldReverseOps@_K$0A@Utvec1@glm@@@bitfieldReverse@@YA?AU?$tvec1@_K$0A@@glm@@AEBU12@@Z
pdata	ENDS
;	COMDAT pdata
pdata	SEGMENT
$pdata$??$bitCount@I$0A@Utvec1@glm@@@glm@@YA?AU?$tvec1@H$0A@@0@AEBU?$tvec1@I$0A@@0@@Z DD imagerel $LN3
	DD	imagerel $LN3+293
	DD	imagerel $unwind$??$bitCount@I$0A@Utvec1@glm@@@glm@@YA?AU?$tvec1@H$0A@@0@AEBU?$tvec1@I$0A@@0@@Z
pdata	ENDS
;	COMDAT pdata
pdata	SEGMENT
$pdata$??$findMSB@H$0A@Utvec1@glm@@@glm@@YA?AU?$tvec1@H$0A@@0@AEBU10@@Z DD imagerel $LN3
	DD	imagerel $LN3+41
	DD	imagerel $unwind$??$findMSB@H$0A@Utvec1@glm@@@glm@@YA?AU?$tvec1@H$0A@@0@AEBU10@@Z
pdata	ENDS
;	COMDAT pdata
pdata	SEGMENT
$pdata$?call@?$compute_findMSB_vec@H$0A@Utvec4@glm@@$0CA@@detail@glm@@SA?AU?$tvec4@H$0A@@3@AEBU43@@Z DD imagerel $LN3
	DD	imagerel $LN3+48
	DD	imagerel $unwind$?call@?$compute_findMSB_vec@H$0A@Utvec4@glm@@$0CA@@detail@glm@@SA?AU?$tvec4@H$0A@@3@AEBU43@@Z
pdata	ENDS
;	COMDAT pdata
pdata	SEGMENT
$pdata$??$findMSB@I$0A@Utvec1@glm@@@glm@@YA?AU?$tvec1@H$0A@@0@AEBU?$tvec1@I$0A@@0@@Z DD imagerel $LN3
	DD	imagerel $LN3+41
	DD	imagerel $unwind$??$findMSB@I$0A@Utvec1@glm@@@glm@@YA?AU?$tvec1@H$0A@@0@AEBU?$tvec1@I$0A@@0@@Z
pdata	ENDS
;	COMDAT pdata
pdata	SEGMENT
$pdata$?call@?$compute_findLSB@H$0CA@@detail@glm@@SAHH@Z DD imagerel $LN5
	DD	imagerel $LN5+112
	DD	imagerel $unwind$?call@?$compute_findLSB@H$0CA@@detail@glm@@SAHH@Z
pdata	ENDS
;	COMDAT pdata
pdata	SEGMENT
$pdata$??$?0I$0A@@?$tvec1@_K$0A@@glm@@QEAA@AEBU?$tvec1@I$0A@@1@@Z DD imagerel $LN3
	DD	imagerel $LN3+33
	DD	imagerel $unwind$??$?0I$0A@@?$tvec1@_K$0A@@glm@@QEAA@AEBU?$tvec1@I$0A@@1@@Z
pdata	ENDS
;	COMDAT pdata
pdata	SEGMENT
$pdata$??$?H_K$0A@@glm@@YA?AU?$tvec1@_K$0A@@0@AEBU10@0@Z DD imagerel $LN3
	DD	imagerel $LN3+60
	DD	imagerel $unwind$??$?H_K$0A@@glm@@YA?AU?$tvec1@_K$0A@@0@AEBU10@0@Z
pdata	ENDS
;	COMDAT pdata
pdata	SEGMENT
$pdata$??$greaterThan@_K$0A@Utvec1@glm@@@glm@@YA?AU?$tvec1@_N$0A@@0@AEBU?$tvec1@_K$0A@@0@0@Z DD imagerel $LN9
	DD	imagerel $LN9+266
	DD	imagerel $unwind$??$greaterThan@_K$0A@Utvec1@glm@@@glm@@YA?AU?$tvec1@_N$0A@@0@AEBU?$tvec1@_K$0A@@0@0@Z
pdata	ENDS
;	COMDAT pdata
pdata	SEGMENT
$pdata$??$mix@I_N$0A@Utvec1@glm@@@glm@@YA?AU?$tvec1@I$0A@@0@AEBU10@0AEBU?$tvec1@_N$0A@@0@@Z DD imagerel $LN3
	DD	imagerel $LN3+61
	DD	imagerel $unwind$??$mix@I_N$0A@Utvec1@glm@@@glm@@YA?AU?$tvec1@I$0A@@0@AEBU10@0AEBU?$tvec1@_N$0A@@0@@Z
pdata	ENDS
;	COMDAT pdata
pdata	SEGMENT
$pdata$??$?H_K$0A@@glm@@YA?AU?$tvec1@_K$0A@@0@AEBU10@_K@Z DD imagerel $LN3
	DD	imagerel $LN3+57
	DD	imagerel $unwind$??$?H_K$0A@@glm@@YA?AU?$tvec1@_K$0A@@0@AEBU10@_K@Z
pdata	ENDS
;	COMDAT pdata
pdata	SEGMENT
$pdata$??$?L_K$0A@@glm@@YA?AU?$tvec1@_K$0A@@0@AEBU10@0@Z DD imagerel $LN3
	DD	imagerel $LN3+65
	DD	imagerel $unwind$??$?L_K$0A@@glm@@YA?AU?$tvec1@_K$0A@@0@AEBU10@0@Z
pdata	ENDS
;	COMDAT pdata
pdata	SEGMENT
$pdata$??$?0_K$0A@@?$tvec1@I$0A@@glm@@QEAA@AEBU?$tvec1@_K$0A@@1@@Z DD imagerel $LN3
	DD	imagerel $LN3+32
	DD	imagerel $unwind$??$?0_K$0A@@?$tvec1@I$0A@@glm@@QEAA@AEBU?$tvec1@_K$0A@@1@@Z
pdata	ENDS
;	COMDAT pdata
pdata	SEGMENT
$pdata$??$greaterThanEqual@I$0A@Utvec1@glm@@@glm@@YA?AU?$tvec1@_N$0A@@0@AEBU?$tvec1@I$0A@@0@0@Z DD imagerel $LN9
	DD	imagerel $LN9+264
	DD	imagerel $unwind$??$greaterThanEqual@I$0A@Utvec1@glm@@@glm@@YA?AU?$tvec1@_N$0A@@0@AEBU?$tvec1@I$0A@@0@0@Z
pdata	ENDS
;	COMDAT pdata
pdata	SEGMENT
$pdata$??$?GI$0A@@glm@@YA?AU?$tvec1@I$0A@@0@AEBU10@0@Z DD imagerel $LN3
	DD	imagerel $LN3+59
	DD	imagerel $unwind$??$?GI$0A@@glm@@YA?AU?$tvec1@I$0A@@0@AEBU10@0@Z
pdata	ENDS
;	COMDAT pdata
pdata	SEGMENT
$pdata$??0?$tvec1@_J$0A@@glm@@QEAA@_J@Z DD imagerel $LN3
	DD	imagerel $LN3+31
	DD	imagerel $unwind$??0?$tvec1@_J$0A@@glm@@QEAA@_J@Z
pdata	ENDS
;	COMDAT pdata
pdata	SEGMENT
$pdata$??$?0I$0A@@?$tvec1@_J$0A@@glm@@QEAA@AEBU?$tvec1@I$0A@@1@@Z DD imagerel $LN3
	DD	imagerel $LN3+33
	DD	imagerel $unwind$??$?0I$0A@@?$tvec1@_J$0A@@glm@@QEAA@AEBU?$tvec1@I$0A@@1@@Z
pdata	ENDS
;	COMDAT pdata
pdata	SEGMENT
$pdata$??$?G_J$0A@@glm@@YA?AU?$tvec1@_J$0A@@0@AEBU10@0@Z DD imagerel $LN3
	DD	imagerel $LN3+63
	DD	imagerel $unwind$??$?G_J$0A@@glm@@YA?AU?$tvec1@_J$0A@@0@AEBU10@0@Z
pdata	ENDS
;	COMDAT pdata
pdata	SEGMENT
$pdata$??$?H_J$0A@@glm@@YA?AU?$tvec1@_J$0A@@0@_JAEBU10@@Z DD imagerel $LN3
	DD	imagerel $LN3+63
	DD	imagerel $unwind$??$?H_J$0A@@glm@@YA?AU?$tvec1@_J$0A@@0@_JAEBU10@@Z
pdata	ENDS
;	COMDAT pdata
pdata	SEGMENT
$pdata$??$?0_J$0A@@?$tvec1@I$0A@@glm@@QEAA@AEBU?$tvec1@_J$0A@@1@@Z DD imagerel $LN3
	DD	imagerel $LN3+32
	DD	imagerel $unwind$??$?0_J$0A@@?$tvec1@I$0A@@glm@@QEAA@AEBU?$tvec1@_J$0A@@1@@Z
pdata	ENDS
;	COMDAT pdata
pdata	SEGMENT
$pdata$??$greaterThanEqual@I$0A@Utvec2@glm@@@glm@@YA?AU?$tvec2@_N$0A@@0@AEBU?$tvec2@I$0A@@0@0@Z DD imagerel $LN9
	DD	imagerel $LN9+265
	DD	imagerel $unwind$??$greaterThanEqual@I$0A@Utvec2@glm@@@glm@@YA?AU?$tvec2@_N$0A@@0@AEBU?$tvec2@I$0A@@0@0@Z
pdata	ENDS
;	COMDAT pdata
pdata	SEGMENT
$pdata$??$mix@I_N$0A@Utvec2@glm@@@glm@@YA?AU?$tvec2@I$0A@@0@AEBU10@0AEBU?$tvec2@_N$0A@@0@@Z DD imagerel $LN3
	DD	imagerel $LN3+61
	DD	imagerel $unwind$??$mix@I_N$0A@Utvec2@glm@@@glm@@YA?AU?$tvec2@I$0A@@0@AEBU10@0AEBU?$tvec2@_N$0A@@0@@Z
pdata	ENDS
;	COMDAT pdata
pdata	SEGMENT
$pdata$??$?GI$0A@@glm@@YA?AU?$tvec2@I$0A@@0@AEBU10@0@Z DD imagerel $LN3
	DD	imagerel $LN3+80
	DD	imagerel $unwind$??$?GI$0A@@glm@@YA?AU?$tvec2@I$0A@@0@AEBU10@0@Z
pdata	ENDS
;	COMDAT pdata
pdata	SEGMENT
$pdata$??0?$tvec2@_J$0A@@glm@@QEAA@_J0@Z DD imagerel $LN3
	DD	imagerel $LN3+50
	DD	imagerel $unwind$??0?$tvec2@_J$0A@@glm@@QEAA@_J0@Z
pdata	ENDS
;	COMDAT pdata
pdata	SEGMENT
$pdata$??$?0I$0A@@?$tvec2@_J$0A@@glm@@QEAA@AEBU?$tvec2@I$0A@@1@@Z DD imagerel $LN3
	DD	imagerel $LN3+50
	DD	imagerel $unwind$??$?0I$0A@@?$tvec2@_J$0A@@glm@@QEAA@AEBU?$tvec2@I$0A@@1@@Z
pdata	ENDS
;	COMDAT pdata
pdata	SEGMENT
$pdata$??$?G_J$0A@@glm@@YA?AU?$tvec2@_J$0A@@0@AEBU10@0@Z DD imagerel $LN3
	DD	imagerel $LN3+87
	DD	imagerel $unwind$??$?G_J$0A@@glm@@YA?AU?$tvec2@_J$0A@@0@AEBU10@0@Z
pdata	ENDS
;	COMDAT pdata
pdata	SEGMENT
$pdata$??$?H_J$0A@@glm@@YA?AU?$tvec2@_J$0A@@0@_JAEBU10@@Z DD imagerel $LN3
	DD	imagerel $LN3+86
	DD	imagerel $unwind$??$?H_J$0A@@glm@@YA?AU?$tvec2@_J$0A@@0@_JAEBU10@@Z
pdata	ENDS
;	COMDAT pdata
pdata	SEGMENT
$pdata$??$?0_J$0A@@?$tvec2@I$0A@@glm@@QEAA@AEBU?$tvec2@_J$0A@@1@@Z DD imagerel $LN3
	DD	imagerel $LN3+48
	DD	imagerel $unwind$??$?0_J$0A@@?$tvec2@I$0A@@glm@@QEAA@AEBU?$tvec2@_J$0A@@1@@Z
pdata	ENDS
;	COMDAT pdata
pdata	SEGMENT
$pdata$??$greaterThanEqual@I$0A@Utvec3@glm@@@glm@@YA?AU?$tvec3@_N$0A@@0@AEBU?$tvec3@I$0A@@0@0@Z DD imagerel $LN9
	DD	imagerel $LN9+277
	DD	imagerel $unwind$??$greaterThanEqual@I$0A@Utvec3@glm@@@glm@@YA?AU?$tvec3@_N$0A@@0@AEBU?$tvec3@I$0A@@0@0@Z
pdata	ENDS
;	COMDAT pdata
pdata	SEGMENT
$pdata$??$mix@I_N$0A@Utvec3@glm@@@glm@@YA?AU?$tvec3@I$0A@@0@AEBU10@0AEBU?$tvec3@_N$0A@@0@@Z DD imagerel $LN3
	DD	imagerel $LN3+61
	DD	imagerel $unwind$??$mix@I_N$0A@Utvec3@glm@@@glm@@YA?AU?$tvec3@I$0A@@0@AEBU10@0AEBU?$tvec3@_N$0A@@0@@Z
pdata	ENDS
;	COMDAT pdata
pdata	SEGMENT
$pdata$??$?GI$0A@@glm@@YA?AU?$tvec3@I$0A@@0@AEBU10@0@Z DD imagerel $LN3
	DD	imagerel $LN3+101
	DD	imagerel $unwind$??$?GI$0A@@glm@@YA?AU?$tvec3@I$0A@@0@AEBU10@0@Z
pdata	ENDS
;	COMDAT pdata
pdata	SEGMENT
$pdata$??0?$tvec3@_J$0A@@glm@@QEAA@_J00@Z DD imagerel $LN3
	DD	imagerel $LN3+69
	DD	imagerel $unwind$??0?$tvec3@_J$0A@@glm@@QEAA@_J00@Z
pdata	ENDS
;	COMDAT pdata
pdata	SEGMENT
$pdata$??$?0I$0A@@?$tvec3@_J$0A@@glm@@QEAA@AEBU?$tvec3@I$0A@@1@@Z DD imagerel $LN3
	DD	imagerel $LN3+67
	DD	imagerel $unwind$??$?0I$0A@@?$tvec3@_J$0A@@glm@@QEAA@AEBU?$tvec3@I$0A@@1@@Z
pdata	ENDS
;	COMDAT pdata
pdata	SEGMENT
$pdata$??$?G_J$0A@@glm@@YA?AU?$tvec3@_J$0A@@0@AEBU10@0@Z DD imagerel $LN3
	DD	imagerel $LN3+108
	DD	imagerel $unwind$??$?G_J$0A@@glm@@YA?AU?$tvec3@_J$0A@@0@AEBU10@0@Z
pdata	ENDS
;	COMDAT pdata
pdata	SEGMENT
$pdata$??$?H_J$0A@@glm@@YA?AU?$tvec3@_J$0A@@0@_JAEBU10@@Z DD imagerel $LN3
	DD	imagerel $LN3+106
	DD	imagerel $unwind$??$?H_J$0A@@glm@@YA?AU?$tvec3@_J$0A@@0@_JAEBU10@@Z
pdata	ENDS
;	COMDAT pdata
pdata	SEGMENT
$pdata$??$?0_J$0A@@?$tvec3@I$0A@@glm@@QEAA@AEBU?$tvec3@_J$0A@@1@@Z DD imagerel $LN3
	DD	imagerel $LN3+64
	DD	imagerel $unwind$??$?0_J$0A@@?$tvec3@I$0A@@glm@@QEAA@AEBU?$tvec3@_J$0A@@1@@Z
pdata	ENDS
;	COMDAT pdata
pdata	SEGMENT
$pdata$??$greaterThanEqual@I$0A@Utvec4@glm@@@glm@@YA?AU?$tvec4@_N$0A@@0@AEBU?$tvec4@I$0A@@0@0@Z DD imagerel $LN9
	DD	imagerel $LN9+263
	DD	imagerel $unwind$??$greaterThanEqual@I$0A@Utvec4@glm@@@glm@@YA?AU?$tvec4@_N$0A@@0@AEBU?$tvec4@I$0A@@0@0@Z
pdata	ENDS
;	COMDAT pdata
pdata	SEGMENT
$pdata$??$mix@I_N$0A@Utvec4@glm@@@glm@@YA?AU?$tvec4@I$0A@@0@AEBU10@0AEBU?$tvec4@_N$0A@@0@@Z DD imagerel $LN3
	DD	imagerel $LN3+61
	DD	imagerel $unwind$??$mix@I_N$0A@Utvec4@glm@@@glm@@YA?AU?$tvec4@I$0A@@0@AEBU10@0AEBU?$tvec4@_N$0A@@0@@Z
pdata	ENDS
;	COMDAT pdata
pdata	SEGMENT
$pdata$??$?GI$0A@@glm@@YA?AU?$tvec4@I$0A@@0@AEBU10@0@Z DD imagerel $LN3
	DD	imagerel $LN3+83
	DD	imagerel $unwind$??$?GI$0A@@glm@@YA?AU?$tvec4@I$0A@@0@AEBU10@0@Z
pdata	ENDS
;	COMDAT pdata
pdata	SEGMENT
$pdata$??0?$tvec4@_J$0A@@glm@@QEAA@_J@Z DD imagerel $LN3
	DD	imagerel $LN3+73
	DD	imagerel $unwind$??0?$tvec4@_J$0A@@glm@@QEAA@_J@Z
pdata	ENDS
;	COMDAT pdata
pdata	SEGMENT
$pdata$??0?$tvec4@_J$0A@@glm@@QEAA@_J000@Z DD imagerel $LN3
	DD	imagerel $LN3+83
	DD	imagerel $unwind$??0?$tvec4@_J$0A@@glm@@QEAA@_J000@Z
pdata	ENDS
;	COMDAT pdata
pdata	SEGMENT
$pdata$??$?0I$0A@@?$tvec4@_J$0A@@glm@@QEAA@AEBU?$tvec4@I$0A@@1@@Z DD imagerel $LN3
	DD	imagerel $LN3+84
	DD	imagerel $unwind$??$?0I$0A@@?$tvec4@_J$0A@@glm@@QEAA@AEBU?$tvec4@I$0A@@1@@Z
pdata	ENDS
;	COMDAT pdata
pdata	SEGMENT
$pdata$??$?G_J$0A@@glm@@YA?AU?$tvec4@_J$0A@@0@AEBU10@0@Z DD imagerel $LN3
	DD	imagerel $LN3+83
	DD	imagerel $unwind$??$?G_J$0A@@glm@@YA?AU?$tvec4@_J$0A@@0@AEBU10@0@Z
pdata	ENDS
;	COMDAT pdata
pdata	SEGMENT
$pdata$??$?H_J$0A@@glm@@YA?AU?$tvec4@_J$0A@@0@_JAEBU10@@Z DD imagerel $LN3
	DD	imagerel $LN3+83
	DD	imagerel $unwind$??$?H_J$0A@@glm@@YA?AU?$tvec4@_J$0A@@0@_JAEBU10@@Z
pdata	ENDS
;	COMDAT pdata
pdata	SEGMENT
$pdata$??$?0_J$0A@@?$tvec4@I$0A@@glm@@QEAA@AEBU?$tvec4@_J$0A@@1@@Z DD imagerel $LN3
	DD	imagerel $LN3+80
	DD	imagerel $unwind$??$?0_J$0A@@?$tvec4@I$0A@@glm@@QEAA@AEBU?$tvec4@_J$0A@@1@@Z
pdata	ENDS
;	COMDAT pdata
pdata	SEGMENT
$pdata$??$?D_K$0A@@glm@@YA?AU?$tvec1@_K$0A@@0@AEBU10@0@Z DD imagerel $LN3
	DD	imagerel $LN3+61
	DD	imagerel $unwind$??$?D_K$0A@@glm@@YA?AU?$tvec1@_K$0A@@0@AEBU10@0@Z
pdata	ENDS
;	COMDAT pdata
pdata	SEGMENT
$pdata$??$?5_K$0A@@glm@@YA?AU?$tvec1@_K$0A@@0@AEBU10@_K@Z DD imagerel $LN3
	DD	imagerel $LN3+73
	DD	imagerel $unwind$??$?5_K$0A@@glm@@YA?AU?$tvec1@_K$0A@@0@AEBU10@_K@Z
pdata	ENDS
;	COMDAT pdata
pdata	SEGMENT
$pdata$??0?$tvec2@_K$0A@@glm@@QEAA@_K0@Z DD imagerel $LN3
	DD	imagerel $LN3+50
	DD	imagerel $unwind$??0?$tvec2@_K$0A@@glm@@QEAA@_K0@Z
pdata	ENDS
;	COMDAT pdata
pdata	SEGMENT
$pdata$??$?0I$0A@@?$tvec2@_K$0A@@glm@@QEAA@AEBU?$tvec2@I$0A@@1@@Z DD imagerel $LN3
	DD	imagerel $LN3+50
	DD	imagerel $unwind$??$?0I$0A@@?$tvec2@_K$0A@@glm@@QEAA@AEBU?$tvec2@I$0A@@1@@Z
pdata	ENDS
;	COMDAT pdata
pdata	SEGMENT
$pdata$??$?D_K$0A@@glm@@YA?AU?$tvec2@_K$0A@@0@AEBU10@0@Z DD imagerel $LN3
	DD	imagerel $LN3+83
	DD	imagerel $unwind$??$?D_K$0A@@glm@@YA?AU?$tvec2@_K$0A@@0@AEBU10@0@Z
pdata	ENDS
;	COMDAT pdata
pdata	SEGMENT
$pdata$??$?5_K$0A@@glm@@YA?AU?$tvec2@_K$0A@@0@AEBU10@_K@Z DD imagerel $LN3
	DD	imagerel $LN3+96
	DD	imagerel $unwind$??$?5_K$0A@@glm@@YA?AU?$tvec2@_K$0A@@0@AEBU10@_K@Z
pdata	ENDS
;	COMDAT pdata
pdata	SEGMENT
$pdata$??$?0_K$0A@@?$tvec2@I$0A@@glm@@QEAA@AEBU?$tvec2@_K$0A@@1@@Z DD imagerel $LN3
	DD	imagerel $LN3+48
	DD	imagerel $unwind$??$?0_K$0A@@?$tvec2@I$0A@@glm@@QEAA@AEBU?$tvec2@_K$0A@@1@@Z
pdata	ENDS
;	COMDAT pdata
pdata	SEGMENT
$pdata$??0?$tvec3@_K$0A@@glm@@QEAA@_K00@Z DD imagerel $LN3
	DD	imagerel $LN3+69
	DD	imagerel $unwind$??0?$tvec3@_K$0A@@glm@@QEAA@_K00@Z
pdata	ENDS
;	COMDAT pdata
pdata	SEGMENT
$pdata$??$?0I$0A@@?$tvec3@_K$0A@@glm@@QEAA@AEBU?$tvec3@I$0A@@1@@Z DD imagerel $LN3
	DD	imagerel $LN3+67
	DD	imagerel $unwind$??$?0I$0A@@?$tvec3@_K$0A@@glm@@QEAA@AEBU?$tvec3@I$0A@@1@@Z
pdata	ENDS
;	COMDAT pdata
pdata	SEGMENT
$pdata$??$?D_K$0A@@glm@@YA?AU?$tvec3@_K$0A@@0@AEBU10@0@Z DD imagerel $LN3
	DD	imagerel $LN3+102
	DD	imagerel $unwind$??$?D_K$0A@@glm@@YA?AU?$tvec3@_K$0A@@0@AEBU10@0@Z
pdata	ENDS
;	COMDAT pdata
pdata	SEGMENT
$pdata$??$?5_K$0A@@glm@@YA?AU?$tvec3@_K$0A@@0@AEBU10@_K@Z DD imagerel $LN3
	DD	imagerel $LN3+132
	DD	imagerel $unwind$??$?5_K$0A@@glm@@YA?AU?$tvec3@_K$0A@@0@AEBU10@_K@Z
pdata	ENDS
;	COMDAT pdata
pdata	SEGMENT
$pdata$??$?0_K$0A@@?$tvec3@I$0A@@glm@@QEAA@AEBU?$tvec3@_K$0A@@1@@Z DD imagerel $LN3
	DD	imagerel $LN3+64
	DD	imagerel $unwind$??$?0_K$0A@@?$tvec3@I$0A@@glm@@QEAA@AEBU?$tvec3@_K$0A@@1@@Z
pdata	ENDS
;	COMDAT pdata
pdata	SEGMENT
$pdata$??0?$tvec4@_K$0A@@glm@@QEAA@_K@Z DD imagerel $LN3
	DD	imagerel $LN3+73
	DD	imagerel $unwind$??0?$tvec4@_K$0A@@glm@@QEAA@_K@Z
pdata	ENDS
;	COMDAT pdata
pdata	SEGMENT
$pdata$??0?$tvec4@_K$0A@@glm@@QEAA@_K000@Z DD imagerel $LN3
	DD	imagerel $LN3+83
	DD	imagerel $unwind$??0?$tvec4@_K$0A@@glm@@QEAA@_K000@Z
pdata	ENDS
;	COMDAT pdata
pdata	SEGMENT
$pdata$??$?0I$0A@@?$tvec4@_K$0A@@glm@@QEAA@AEBU?$tvec4@I$0A@@1@@Z DD imagerel $LN3
	DD	imagerel $LN3+84
	DD	imagerel $unwind$??$?0I$0A@@?$tvec4@_K$0A@@glm@@QEAA@AEBU?$tvec4@I$0A@@1@@Z
pdata	ENDS
;	COMDAT pdata
pdata	SEGMENT
$pdata$??$?D_K$0A@@glm@@YA?AU?$tvec4@_K$0A@@0@AEBU10@0@Z DD imagerel $LN3
	DD	imagerel $LN3+83
	DD	imagerel $unwind$??$?D_K$0A@@glm@@YA?AU?$tvec4@_K$0A@@0@AEBU10@0@Z
pdata	ENDS
;	COMDAT pdata
pdata	SEGMENT
$pdata$??$?5_K$0A@@glm@@YA?AU?$tvec4@_K$0A@@0@AEBU10@_K@Z DD imagerel $LN3
	DD	imagerel $LN3+83
	DD	imagerel $unwind$??$?5_K$0A@@glm@@YA?AU?$tvec4@_K$0A@@0@AEBU10@_K@Z
pdata	ENDS
;	COMDAT pdata
pdata	SEGMENT
$pdata$??$?0_K$0A@@?$tvec4@I$0A@@glm@@QEAA@AEBU?$tvec4@_K$0A@@1@@Z DD imagerel $LN3
	DD	imagerel $LN3+80
	DD	imagerel $unwind$??$?0_K$0A@@?$tvec4@I$0A@@glm@@QEAA@AEBU?$tvec4@_K$0A@@1@@Z
pdata	ENDS
;	COMDAT pdata
pdata	SEGMENT
$pdata$??$?0H$0A@@?$tvec1@_J$0A@@glm@@QEAA@AEBU?$tvec1@H$0A@@1@@Z DD imagerel $LN3
	DD	imagerel $LN3+34
	DD	imagerel $unwind$??$?0H$0A@@?$tvec1@_J$0A@@glm@@QEAA@AEBU?$tvec1@H$0A@@1@@Z
pdata	ENDS
;	COMDAT pdata
pdata	SEGMENT
$pdata$??$?D_J$0A@@glm@@YA?AU?$tvec1@_J$0A@@0@AEBU10@0@Z DD imagerel $LN3
	DD	imagerel $LN3+61
	DD	imagerel $unwind$??$?D_J$0A@@glm@@YA?AU?$tvec1@_J$0A@@0@AEBU10@0@Z
pdata	ENDS
;	COMDAT pdata
pdata	SEGMENT
$pdata$??$?I_J$0A@@glm@@YA?AU?$tvec1@_J$0A@@0@AEBU10@_J@Z DD imagerel $LN3
	DD	imagerel $LN3+60
	DD	imagerel $unwind$??$?I_J$0A@@glm@@YA?AU?$tvec1@_J$0A@@0@AEBU10@_J@Z
pdata	ENDS
;	COMDAT pdata
pdata	SEGMENT
$pdata$??$?0_J$0A@@?$tvec1@H$0A@@glm@@QEAA@AEBU?$tvec1@_J$0A@@1@@Z DD imagerel $LN3
	DD	imagerel $LN3+32
	DD	imagerel $unwind$??$?0_J$0A@@?$tvec1@H$0A@@glm@@QEAA@AEBU?$tvec1@_J$0A@@1@@Z
pdata	ENDS
;	COMDAT pdata
pdata	SEGMENT
$pdata$??$?5_J$0A@@glm@@YA?AU?$tvec1@_J$0A@@0@AEBU10@_J@Z DD imagerel $LN3
	DD	imagerel $LN3+73
	DD	imagerel $unwind$??$?5_J$0A@@glm@@YA?AU?$tvec1@_J$0A@@0@AEBU10@_J@Z
pdata	ENDS
;	COMDAT pdata
pdata	SEGMENT
$pdata$??$?0H$0A@@?$tvec2@_J$0A@@glm@@QEAA@AEBU?$tvec2@H$0A@@1@@Z DD imagerel $LN3
	DD	imagerel $LN3+52
	DD	imagerel $unwind$??$?0H$0A@@?$tvec2@_J$0A@@glm@@QEAA@AEBU?$tvec2@H$0A@@1@@Z
pdata	ENDS
;	COMDAT pdata
pdata	SEGMENT
$pdata$??$?D_J$0A@@glm@@YA?AU?$tvec2@_J$0A@@0@AEBU10@0@Z DD imagerel $LN3
	DD	imagerel $LN3+83
	DD	imagerel $unwind$??$?D_J$0A@@glm@@YA?AU?$tvec2@_J$0A@@0@AEBU10@0@Z
pdata	ENDS
;	COMDAT pdata
pdata	SEGMENT
$pdata$??$?I_J$0A@@glm@@YA?AU?$tvec2@_J$0A@@0@AEBU10@_J@Z DD imagerel $LN3
	DD	imagerel $LN3+80
	DD	imagerel $unwind$??$?I_J$0A@@glm@@YA?AU?$tvec2@_J$0A@@0@AEBU10@_J@Z
pdata	ENDS
;	COMDAT pdata
pdata	SEGMENT
$pdata$??$?0_J$0A@@?$tvec2@H$0A@@glm@@QEAA@AEBU?$tvec2@_J$0A@@1@@Z DD imagerel $LN3
	DD	imagerel $LN3+48
	DD	imagerel $unwind$??$?0_J$0A@@?$tvec2@H$0A@@glm@@QEAA@AEBU?$tvec2@_J$0A@@1@@Z
pdata	ENDS
;	COMDAT pdata
pdata	SEGMENT
$pdata$??$?5_J$0A@@glm@@YA?AU?$tvec2@_J$0A@@0@AEBU10@_J@Z DD imagerel $LN3
	DD	imagerel $LN3+96
	DD	imagerel $unwind$??$?5_J$0A@@glm@@YA?AU?$tvec2@_J$0A@@0@AEBU10@_J@Z
pdata	ENDS
;	COMDAT pdata
pdata	SEGMENT
$pdata$??$?0H$0A@@?$tvec3@_J$0A@@glm@@QEAA@AEBU?$tvec3@H$0A@@1@@Z DD imagerel $LN3
	DD	imagerel $LN3+70
	DD	imagerel $unwind$??$?0H$0A@@?$tvec3@_J$0A@@glm@@QEAA@AEBU?$tvec3@H$0A@@1@@Z
pdata	ENDS
;	COMDAT pdata
pdata	SEGMENT
$pdata$??$?D_J$0A@@glm@@YA?AU?$tvec3@_J$0A@@0@AEBU10@0@Z DD imagerel $LN3
	DD	imagerel $LN3+102
	DD	imagerel $unwind$??$?D_J$0A@@glm@@YA?AU?$tvec3@_J$0A@@0@AEBU10@0@Z
pdata	ENDS
;	COMDAT pdata
pdata	SEGMENT
$pdata$??$?I_J$0A@@glm@@YA?AU?$tvec3@_J$0A@@0@AEBU10@_J@Z DD imagerel $LN3
	DD	imagerel $LN3+97
	DD	imagerel $unwind$??$?I_J$0A@@glm@@YA?AU?$tvec3@_J$0A@@0@AEBU10@_J@Z
pdata	ENDS
;	COMDAT pdata
pdata	SEGMENT
$pdata$??$?0_J$0A@@?$tvec3@H$0A@@glm@@QEAA@AEBU?$tvec3@_J$0A@@1@@Z DD imagerel $LN3
	DD	imagerel $LN3+64
	DD	imagerel $unwind$??$?0_J$0A@@?$tvec3@H$0A@@glm@@QEAA@AEBU?$tvec3@_J$0A@@1@@Z
pdata	ENDS
;	COMDAT pdata
pdata	SEGMENT
$pdata$??$?5_J$0A@@glm@@YA?AU?$tvec3@_J$0A@@0@AEBU10@_J@Z DD imagerel $LN3
	DD	imagerel $LN3+132
	DD	imagerel $unwind$??$?5_J$0A@@glm@@YA?AU?$tvec3@_J$0A@@0@AEBU10@_J@Z
pdata	ENDS
;	COMDAT pdata
pdata	SEGMENT
$pdata$??$?0H$0A@@?$tvec4@_J$0A@@glm@@QEAA@AEBU?$tvec4@H$0A@@1@@Z DD imagerel $LN3
	DD	imagerel $LN3+88
	DD	imagerel $unwind$??$?0H$0A@@?$tvec4@_J$0A@@glm@@QEAA@AEBU?$tvec4@H$0A@@1@@Z
pdata	ENDS
;	COMDAT pdata
pdata	SEGMENT
$pdata$??$?D_J$0A@@glm@@YA?AU?$tvec4@_J$0A@@0@AEBU10@0@Z DD imagerel $LN3
	DD	imagerel $LN3+83
	DD	imagerel $unwind$??$?D_J$0A@@glm@@YA?AU?$tvec4@_J$0A@@0@AEBU10@0@Z
pdata	ENDS
;	COMDAT pdata
pdata	SEGMENT
$pdata$??$?I_J$0A@@glm@@YA?AU?$tvec4@_J$0A@@0@AEBU10@_J@Z DD imagerel $LN3
	DD	imagerel $LN3+83
	DD	imagerel $unwind$??$?I_J$0A@@glm@@YA?AU?$tvec4@_J$0A@@0@AEBU10@_J@Z
pdata	ENDS
;	COMDAT pdata
pdata	SEGMENT
$pdata$??$?0_J$0A@@?$tvec4@H$0A@@glm@@QEAA@AEBU?$tvec4@_J$0A@@1@@Z DD imagerel $LN3
	DD	imagerel $LN3+80
	DD	imagerel $unwind$??$?0_J$0A@@?$tvec4@H$0A@@glm@@QEAA@AEBU?$tvec4@_J$0A@@1@@Z
pdata	ENDS
;	COMDAT pdata
pdata	SEGMENT
$pdata$??$?5_J$0A@@glm@@YA?AU?$tvec4@_J$0A@@0@AEBU10@_J@Z DD imagerel $LN3
	DD	imagerel $LN3+83
	DD	imagerel $unwind$??$?5_J$0A@@glm@@YA?AU?$tvec4@_J$0A@@0@AEBU10@_J@Z
pdata	ENDS
;	COMDAT pdata
pdata	SEGMENT
$pdata$??$bitCount@_K$0A@Utvec1@glm@@@glm@@YA?AU?$tvec1@H$0A@@0@AEBU?$tvec1@_K$0A@@0@@Z DD imagerel $LN3
	DD	imagerel $LN3+339
	DD	imagerel $unwind$??$bitCount@_K$0A@Utvec1@glm@@@glm@@YA?AU?$tvec1@H$0A@@0@AEBU?$tvec1@_K$0A@@0@@Z
pdata	ENDS
;	COMDAT pdata
pdata	SEGMENT
$pdata$?call@?$compute_bitfieldBitCountStep@I$0A@Utvec4@glm@@$0A@$00@detail@glm@@SA?AU?$tvec4@I$0A@@3@AEBU43@II@Z DD imagerel $LN3
	DD	imagerel $LN3+129
	DD	imagerel $unwind$?call@?$compute_bitfieldBitCountStep@I$0A@Utvec4@glm@@$0A@$00@detail@glm@@SA?AU?$tvec4@I$0A@@3@AEBU43@II@Z
pdata	ENDS
;	COMDAT pdata
pdata	SEGMENT
$pdata$?call@?$compute_bitfieldBitCountStep@I$0A@Utvec4@glm@@$0A@$0A@@detail@glm@@SA?AU?$tvec4@I$0A@@3@AEBU43@II@Z DD imagerel $LN3
	DD	imagerel $LN3+47
	DD	imagerel $unwind$?call@?$compute_bitfieldBitCountStep@I$0A@Utvec4@glm@@$0A@$0A@@detail@glm@@SA?AU?$tvec4@I$0A@@3@AEBU43@II@Z
pdata	ENDS
;	COMDAT pdata
pdata	SEGMENT
$pdata$??$?0I$0A@@?$tvec4@H$0A@@glm@@QEAA@AEBU?$tvec4@I$0A@@1@@Z DD imagerel $LN3
	DD	imagerel $LN3+80
	DD	imagerel $unwind$??$?0I$0A@@?$tvec4@H$0A@@glm@@QEAA@AEBU?$tvec4@I$0A@@1@@Z
pdata	ENDS
;	COMDAT pdata
pdata	SEGMENT
$pdata$??$bitCount_bitfield@H$0A@Utvec1@glm@@@bitCount@@YA?AU?$tvec1@H$0A@@glm@@AEBU12@@Z DD imagerel $LN3
	DD	imagerel $LN3+293
	DD	imagerel $unwind$??$bitCount_bitfield@H$0A@Utvec1@glm@@@bitCount@@YA?AU?$tvec1@H$0A@@glm@@AEBU12@@Z
pdata	ENDS
;	COMDAT pdata
pdata	SEGMENT
$pdata$??$bitCount@H$0A@Utvec1@glm@@@glm@@YA?AU?$tvec1@H$0A@@0@AEBU10@@Z DD imagerel $LN3
	DD	imagerel $LN3+293
	DD	imagerel $unwind$??$bitCount@H$0A@Utvec1@glm@@@glm@@YA?AU?$tvec1@H$0A@@0@AEBU10@@Z
pdata	ENDS
;	COMDAT pdata
pdata	SEGMENT
$pdata$??$_Resize_reallocate@U_Value_init_tag@std@@@?$vector@U?$tvec4@H$0A@@glm@@V?$allocator@U?$tvec4@H$0A@@glm@@@std@@@std@@AEAAX_KAEBU_Value_init_tag@1@@Z DD imagerel $LN11
	DD	imagerel $LN11+336
	DD	imagerel $unwind$??$_Resize_reallocate@U_Value_init_tag@std@@@?$vector@U?$tvec4@H$0A@@glm@@V?$allocator@U?$tvec4@H$0A@@glm@@@std@@@std@@AEAAX_KAEBU_Value_init_tag@1@@Z
pdata	ENDS
;	COMDAT pdata
pdata	SEGMENT
$pdata$?catch$0@?0???$_Resize_reallocate@U_Value_init_tag@std@@@?$vector@U?$tvec4@H$0A@@glm@@V?$allocator@U?$tvec4@H$0A@@glm@@@std@@@std@@AEAAX_KAEBU_Value_init_tag@1@@Z@4HA DD imagerel ?catch$0@?0???$_Resize_reallocate@U_Value_init_tag@std@@@?$vector@U?$tvec4@H$0A@@glm@@V?$allocator@U?$tvec4@H$0A@@glm@@@std@@@std@@AEAAX_KAEBU_Value_init_tag@1@@Z@4HA
	DD	imagerel ?catch$0@?0???$_Resize_reallocate@U_Value_init_tag@std@@@?$vector@U?$tvec4@H$0A@@glm@@V?$allocator@U?$tvec4@H$0A@@glm@@@std@@@std@@AEAAX_KAEBU_Value_init_tag@1@@Z@4HA+78
	DD	imagerel $unwind$?catch$0@?0???$_Resize_reallocate@U_Value_init_tag@std@@@?$vector@U?$tvec4@H$0A@@glm@@V?$allocator@U?$tvec4@H$0A@@glm@@@std@@@std@@AEAAX_KAEBU_Value_init_tag@1@@Z@4HA
pdata	ENDS
;	COMDAT pdata
pdata	SEGMENT
$pdata$??$_Uninitialized_value_construct_n@V?$allocator@U?$tvec4@H$0A@@glm@@@std@@@std@@YAPEAU?$tvec4@H$0A@@glm@@PEAU12@_KAEAV?$allocator@U?$tvec4@H$0A@@glm@@@0@@Z DD imagerel $LN7
	DD	imagerel $LN7+155
	DD	imagerel $unwind$??$_Uninitialized_value_construct_n@V?$allocator@U?$tvec4@H$0A@@glm@@@std@@@std@@YAPEAU?$tvec4@H$0A@@glm@@PEAU12@_KAEAV?$allocator@U?$tvec4@H$0A@@glm@@@0@@Z
pdata	ENDS
;	COMDAT pdata
pdata	SEGMENT
$pdata$?dtor$0@?0???$_Uninitialized_value_construct_n@V?$allocator@U?$tvec4@H$0A@@glm@@@std@@@std@@YAPEAU?$tvec4@H$0A@@glm@@PEAU12@_KAEAV?$allocator@U?$tvec4@H$0A@@glm@@@0@@Z@4HA DD imagerel ?dtor$0@?0???$_Uninitialized_value_construct_n@V?$allocator@U?$tvec4@H$0A@@glm@@@std@@@std@@YAPEAU?$tvec4@H$0A@@glm@@PEAU12@_KAEAV?$allocator@U?$tvec4@H$0A@@glm@@@0@@Z@4HA
	DD	imagerel ?dtor$0@?0???$_Uninitialized_value_construct_n@V?$allocator@U?$tvec4@H$0A@@glm@@@std@@@std@@YAPEAU?$tvec4@H$0A@@glm@@PEAU12@_KAEAV?$allocator@U?$tvec4@H$0A@@glm@@@0@@Z@4HA+35
	DD	imagerel $unwind$?dtor$0@?0???$_Uninitialized_value_construct_n@V?$allocator@U?$tvec4@H$0A@@glm@@@std@@@std@@YAPEAU?$tvec4@H$0A@@glm@@PEAU12@_KAEAV?$allocator@U?$tvec4@H$0A@@glm@@@0@@Z@4HA
pdata	ENDS
;	COMDAT pdata
pdata	SEGMENT
$pdata$??$_Deallocate_plain@V?$allocator@U_Container_proxy@std@@@std@@@std@@YAXAEAV?$allocator@U_Container_proxy@std@@@0@QEAU_Container_proxy@0@@Z DD imagerel $LN3
	DD	imagerel $LN3+43
	DD	imagerel $unwind$??$_Deallocate_plain@V?$allocator@U_Container_proxy@std@@@std@@@std@@YAXAEAV?$allocator@U_Container_proxy@std@@@0@QEAU_Container_proxy@0@@Z
pdata	ENDS
;	COMDAT pdata
pdata	SEGMENT
$pdata$??$_Unfancy@U_Container_proxy@std@@@std@@YAPEAU_Container_proxy@0@PEAU10@@Z DD imagerel $LN3
	DD	imagerel $LN3+13
	DD	imagerel $unwind$??$_Unfancy@U_Container_proxy@std@@@std@@YAPEAU_Container_proxy@0@PEAU10@@Z
pdata	ENDS
;	COMDAT pdata
pdata	SEGMENT
$pdata$??$_Construct_in_place@U_Container_proxy@std@@PEAU_Container_base12@2@@std@@YAXAEAU_Container_proxy@0@$$QEAPEAU_Container_base12@0@@Z DD imagerel $LN3
	DD	imagerel $LN3+80
	DD	imagerel $unwind$??$_Construct_in_place@U_Container_proxy@std@@PEAU_Container_base12@2@@std@@YAXAEAU_Container_proxy@0@$$QEAPEAU_Container_base12@0@@Z
pdata	ENDS
;	COMDAT pdata
pdata	SEGMENT
$pdata$??$_Resize_reallocate@U_Value_init_tag@std@@@?$vector@HV?$allocator@H@std@@@std@@AEAAX_KAEBU_Value_init_tag@1@@Z DD imagerel $LN11
	DD	imagerel $LN11+333
	DD	imagerel $unwind$??$_Resize_reallocate@U_Value_init_tag@std@@@?$vector@HV?$allocator@H@std@@@std@@AEAAX_KAEBU_Value_init_tag@1@@Z
pdata	ENDS
;	COMDAT pdata
pdata	SEGMENT
$pdata$?catch$0@?0???$_Resize_reallocate@U_Value_init_tag@std@@@?$vector@HV?$allocator@H@std@@@std@@AEAAX_KAEBU_Value_init_tag@1@@Z@4HA DD imagerel ?catch$0@?0???$_Resize_reallocate@U_Value_init_tag@std@@@?$vector@HV?$allocator@H@std@@@std@@AEAAX_KAEBU_Value_init_tag@1@@Z@4HA
	DD	imagerel ?catch$0@?0???$_Resize_reallocate@U_Value_init_tag@std@@@?$vector@HV?$allocator@H@std@@@std@@AEAAX_KAEBU_Value_init_tag@1@@Z@4HA+78
	DD	imagerel $unwind$?catch$0@?0???$_Resize_reallocate@U_Value_init_tag@std@@@?$vector@HV?$allocator@H@std@@@std@@AEAAX_KAEBU_Value_init_tag@1@@Z@4HA
pdata	ENDS
;	COMDAT pdata
pdata	SEGMENT
$pdata$??$_Uninitialized_value_construct_n@V?$allocator@H@std@@@std@@YAPEAHPEAH_KAEAV?$allocator@H@0@@Z DD imagerel $LN7
	DD	imagerel $LN7+215
	DD	imagerel $unwind$??$_Uninitialized_value_construct_n@V?$allocator@H@std@@@std@@YAPEAHPEAH_KAEAV?$allocator@H@0@@Z
pdata	ENDS
;	COMDAT pdata
pdata	SEGMENT
$pdata$?dtor$0@?0???$_Uninitialized_value_construct_n@V?$allocator@H@std@@@std@@YAPEAHPEAH_KAEAV?$allocator@H@0@@Z@4HA DD imagerel ?dtor$0@?0???$_Uninitialized_value_construct_n@V?$allocator@H@std@@@std@@YAPEAHPEAH_KAEAV?$allocator@H@0@@Z@4HA
	DD	imagerel ?dtor$0@?0???$_Uninitialized_value_construct_n@V?$allocator@H@std@@@std@@YAPEAHPEAH_KAEAV?$allocator@H@0@@Z@4HA+35
	DD	imagerel $unwind$?dtor$0@?0???$_Uninitialized_value_construct_n@V?$allocator@H@std@@@std@@YAPEAHPEAH_KAEAV?$allocator@H@0@@Z@4HA
pdata	ENDS
;	COMDAT pdata
pdata	SEGMENT
$pdata$??$_Resize_reallocate@U_Value_init_tag@std@@@?$vector@_KV?$allocator@_K@std@@@std@@AEAAX_KAEBU_Value_init_tag@1@@Z DD imagerel $LN11
	DD	imagerel $LN11+333
	DD	imagerel $unwind$??$_Resize_reallocate@U_Value_init_tag@std@@@?$vector@_KV?$allocator@_K@std@@@std@@AEAAX_KAEBU_Value_init_tag@1@@Z
pdata	ENDS
;	COMDAT pdata
pdata	SEGMENT
$pdata$?catch$0@?0???$_Resize_reallocate@U_Value_init_tag@std@@@?$vector@_KV?$allocator@_K@std@@@std@@AEAAX_KAEBU_Value_init_tag@1@@Z@4HA DD imagerel ?catch$0@?0???$_Resize_reallocate@U_Value_init_tag@std@@@?$vector@_KV?$allocator@_K@std@@@std@@AEAAX_KAEBU_Value_init_tag@1@@Z@4HA
	DD	imagerel ?catch$0@?0???$_Resize_reallocate@U_Value_init_tag@std@@@?$vector@_KV?$allocator@_K@std@@@std@@AEAAX_KAEBU_Value_init_tag@1@@Z@4HA+78
	DD	imagerel $unwind$?catch$0@?0???$_Resize_reallocate@U_Value_init_tag@std@@@?$vector@_KV?$allocator@_K@std@@@std@@AEAAX_KAEBU_Value_init_tag@1@@Z@4HA
pdata	ENDS
;	COMDAT pdata
pdata	SEGMENT
$pdata$??$_Uninitialized_value_construct_n@V?$allocator@_K@std@@@std@@YAPEA_KPEA_K_KAEAV?$allocator@_K@0@@Z DD imagerel $LN7
	DD	imagerel $LN7+215
	DD	imagerel $unwind$??$_Uninitialized_value_construct_n@V?$allocator@_K@std@@@std@@YAPEA_KPEA_K_KAEAV?$allocator@_K@0@@Z
pdata	ENDS
;	COMDAT pdata
pdata	SEGMENT
$pdata$?dtor$0@?0???$_Uninitialized_value_construct_n@V?$allocator@_K@std@@@std@@YAPEA_KPEA_K_KAEAV?$allocator@_K@0@@Z@4HA DD imagerel ?dtor$0@?0???$_Uninitialized_value_construct_n@V?$allocator@_K@std@@@std@@YAPEA_KPEA_K_KAEAV?$allocator@_K@0@@Z@4HA
	DD	imagerel ?dtor$0@?0???$_Uninitialized_value_construct_n@V?$allocator@_K@std@@@std@@YAPEA_KPEA_K_KAEAV?$allocator@_K@0@@Z@4HA+35
	DD	imagerel $unwind$?dtor$0@?0???$_Uninitialized_value_construct_n@V?$allocator@_K@std@@@std@@YAPEA_KPEA_K_KAEAV?$allocator@_K@0@@Z@4HA
pdata	ENDS
;	COMDAT pdata
pdata	SEGMENT
$pdata$??$_Resize_reallocate@U_Value_init_tag@std@@@?$vector@IV?$allocator@I@std@@@std@@AEAAX_KAEBU_Value_init_tag@1@@Z DD imagerel $LN11
	DD	imagerel $LN11+333
	DD	imagerel $unwind$??$_Resize_reallocate@U_Value_init_tag@std@@@?$vector@IV?$allocator@I@std@@@std@@AEAAX_KAEBU_Value_init_tag@1@@Z
pdata	ENDS
;	COMDAT pdata
pdata	SEGMENT
$pdata$?catch$0@?0???$_Resize_reallocate@U_Value_init_tag@std@@@?$vector@IV?$allocator@I@std@@@std@@AEAAX_KAEBU_Value_init_tag@1@@Z@4HA DD imagerel ?catch$0@?0???$_Resize_reallocate@U_Value_init_tag@std@@@?$vector@IV?$allocator@I@std@@@std@@AEAAX_KAEBU_Value_init_tag@1@@Z@4HA
	DD	imagerel ?catch$0@?0???$_Resize_reallocate@U_Value_init_tag@std@@@?$vector@IV?$allocator@I@std@@@std@@AEAAX_KAEBU_Value_init_tag@1@@Z@4HA+78
	DD	imagerel $unwind$?catch$0@?0???$_Resize_reallocate@U_Value_init_tag@std@@@?$vector@IV?$allocator@I@std@@@std@@AEAAX_KAEBU_Value_init_tag@1@@Z@4HA
pdata	ENDS
;	COMDAT pdata
pdata	SEGMENT
$pdata$??$_Uninitialized_value_construct_n@V?$allocator@I@std@@@std@@YAPEAIPEAI_KAEAV?$allocator@I@0@@Z DD imagerel $LN7
	DD	imagerel $LN7+215
	DD	imagerel $unwind$??$_Uninitialized_value_construct_n@V?$allocator@I@std@@@std@@YAPEAIPEAI_KAEAV?$allocator@I@0@@Z
pdata	ENDS
;	COMDAT pdata
pdata	SEGMENT
$pdata$?dtor$0@?0???$_Uninitialized_value_construct_n@V?$allocator@I@std@@@std@@YAPEAIPEAI_KAEAV?$allocator@I@0@@Z@4HA DD imagerel ?dtor$0@?0???$_Uninitialized_value_construct_n@V?$allocator@I@std@@@std@@YAPEAIPEAI_KAEAV?$allocator@I@0@@Z@4HA
	DD	imagerel ?dtor$0@?0???$_Uninitialized_value_construct_n@V?$allocator@I@std@@@std@@YAPEAIPEAI_KAEAV?$allocator@I@0@@Z@4HA+35
	DD	imagerel $unwind$?dtor$0@?0???$_Uninitialized_value_construct_n@V?$allocator@I@std@@@std@@YAPEAIPEAI_KAEAV?$allocator@I@0@@Z@4HA
pdata	ENDS
;	COMDAT pdata
pdata	SEGMENT
$pdata$??$?II$0A@@glm@@YA?AU?$tvec4@I$0A@@0@AEBU10@I@Z DD imagerel $LN3
	DD	imagerel $LN3+82
	DD	imagerel $unwind$??$?II$0A@@glm@@YA?AU?$tvec4@I$0A@@0@AEBU10@I@Z
pdata	ENDS
;	COMDAT pdata
pdata	SEGMENT
$pdata$??$?5I$0A@@glm@@YA?AU?$tvec4@I$0A@@0@AEBU10@I@Z DD imagerel $LN3
	DD	imagerel $LN3+82
	DD	imagerel $unwind$??$?5I$0A@@glm@@YA?AU?$tvec4@I$0A@@0@AEBU10@I@Z
pdata	ENDS
;	COMDAT pdata
pdata	SEGMENT
$pdata$??$?HI$0A@@glm@@YA?AU?$tvec4@I$0A@@0@AEBU10@0@Z DD imagerel $LN3
	DD	imagerel $LN3+83
	DD	imagerel $unwind$??$?HI$0A@@glm@@YA?AU?$tvec4@I$0A@@0@AEBU10@0@Z
pdata	ENDS
;	COMDAT pdata
pdata	SEGMENT
$pdata$?call@?$functor1@HH$0A@Utvec4@glm@@@detail@glm@@SA?AU?$tvec4@H$0A@@3@P6AHH@ZAEBU43@@Z DD imagerel $LN3
	DD	imagerel $LN3+124
	DD	imagerel $unwind$?call@?$functor1@HH$0A@Utvec4@glm@@@detail@glm@@SA?AU?$tvec4@H$0A@@3@P6AHH@ZAEBU43@@Z
pdata	ENDS
;	COMDAT pdata
pdata	SEGMENT
$pdata$??$compute_findMSB_32@H@detail@glm@@YAHH@Z DD imagerel $LN5
	DD	imagerel $LN5+112
	DD	imagerel $unwind$??$compute_findMSB_32@H@detail@glm@@YAHH@Z
pdata	ENDS
;	COMDAT pdata
pdata	SEGMENT
$pdata$??$_Get_size_of_n@$0BA@@std@@YA_K_K@Z DD imagerel $LN4
	DD	imagerel $LN4+64
	DD	imagerel $unwind$??$_Get_size_of_n@$0BA@@std@@YA_K_K@Z
pdata	ENDS
;	COMDAT pdata
pdata	SEGMENT
$pdata$??$_Allocate@$0BA@U_Default_allocate_traits@std@@$0A@@std@@YAPEAX_K@Z DD imagerel $LN5
	DD	imagerel $LN5+61
	DD	imagerel $unwind$??$_Allocate@$0BA@U_Default_allocate_traits@std@@$0A@@std@@YAPEAX_K@Z
pdata	ENDS
;	COMDAT pdata
pdata	SEGMENT
$pdata$??$mask@H@detail@glm@@YAHH@Z DD imagerel $LN5
	DD	imagerel $LN5+65
	DD	imagerel $unwind$??$mask@H@detail@glm@@YAHH@Z
pdata	ENDS
;	COMDAT pdata
pdata	SEGMENT
$pdata$??$?II$0A@@glm@@YA?AU?$tvec1@I$0A@@0@AEBU10@I@Z DD imagerel $LN3
	DD	imagerel $LN3+56
	DD	imagerel $unwind$??$?II$0A@@glm@@YA?AU?$tvec1@I$0A@@0@AEBU10@I@Z
pdata	ENDS
;	COMDAT pdata
pdata	SEGMENT
$pdata$??$?UI$0A@@glm@@YA?AU?$tvec1@I$0A@@0@AEBU10@0@Z DD imagerel $LN3
	DD	imagerel $LN3+59
	DD	imagerel $unwind$??$?UI$0A@@glm@@YA?AU?$tvec1@I$0A@@0@AEBU10@0@Z
pdata	ENDS
;	COMDAT pdata
pdata	SEGMENT
$pdata$??$?5I$0A@@glm@@YA?AU?$tvec1@I$0A@@0@AEBU10@I@Z DD imagerel $LN3
	DD	imagerel $LN3+69
	DD	imagerel $unwind$??$?5I$0A@@glm@@YA?AU?$tvec1@I$0A@@0@AEBU10@I@Z
pdata	ENDS
;	COMDAT pdata
pdata	SEGMENT
$pdata$?call@?$compute_bitfieldReverseStep@I$0A@Utvec1@glm@@$0A@$00@detail@glm@@SA?AU?$tvec1@I$0A@@3@AEBU43@II@Z DD imagerel $LN3
	DD	imagerel $LN3+142
	DD	imagerel $unwind$?call@?$compute_bitfieldReverseStep@I$0A@Utvec1@glm@@$0A@$00@detail@glm@@SA?AU?$tvec1@I$0A@@3@AEBU43@II@Z
pdata	ENDS
;	COMDAT pdata
pdata	SEGMENT
$pdata$?call@?$compute_bitfieldReverseStep@I$0A@Utvec1@glm@@$0A@$0A@@detail@glm@@SA?AU?$tvec1@I$0A@@3@AEBU43@II@Z DD imagerel $LN3
	DD	imagerel $LN3+42
	DD	imagerel $unwind$?call@?$compute_bitfieldReverseStep@I$0A@Utvec1@glm@@$0A@$0A@@detail@glm@@SA?AU?$tvec1@I$0A@@3@AEBU43@II@Z
pdata	ENDS
;	COMDAT pdata
pdata	SEGMENT
$pdata$??$?6I$0A@@glm@@YA?AU?$tvec1@I$0A@@0@AEBU10@I@Z DD imagerel $LN3
	DD	imagerel $LN3+69
	DD	imagerel $unwind$??$?6I$0A@@glm@@YA?AU?$tvec1@I$0A@@0@AEBU10@I@Z
pdata	ENDS
;	COMDAT pdata
pdata	SEGMENT
$pdata$??$?_5I@?$tvec1@I$0A@@glm@@QEAAAEAU01@AEBU01@@Z DD imagerel $LN3
	DD	imagerel $LN3+41
	DD	imagerel $unwind$??$?_5I@?$tvec1@I$0A@@glm@@QEAAAEAU01@AEBU01@@Z
pdata	ENDS
;	COMDAT pdata
pdata	SEGMENT
$pdata$??$call@I$0A@Utvec1@glm@@@?$compute_bitfieldReverseStep@$00@bitfieldReverse@@SA?AU?$tvec1@I$0A@@glm@@AEBU23@II@Z DD imagerel $LN3
	DD	imagerel $LN3+142
	DD	imagerel $unwind$??$call@I$0A@Utvec1@glm@@@?$compute_bitfieldReverseStep@$00@bitfieldReverse@@SA?AU?$tvec1@I$0A@@glm@@AEBU23@II@Z
pdata	ENDS
;	COMDAT pdata
pdata	SEGMENT
$pdata$??$call@I$0A@Utvec1@glm@@@?$compute_bitfieldReverseStep@$0A@@bitfieldReverse@@SA?AU?$tvec1@I$0A@@glm@@AEBU23@II@Z DD imagerel $LN3
	DD	imagerel $LN3+42
	DD	imagerel $unwind$??$call@I$0A@Utvec1@glm@@@?$compute_bitfieldReverseStep@$0A@@bitfieldReverse@@SA?AU?$tvec1@I$0A@@glm@@AEBU23@II@Z
pdata	ENDS
;	COMDAT pdata
pdata	SEGMENT
$pdata$?call@?$compute_bitfieldReverseStep@_K$0A@Utvec1@glm@@$0A@$00@detail@glm@@SA?AU?$tvec1@_K$0A@@3@AEBU43@_K1@Z DD imagerel $LN3
	DD	imagerel $LN3+144
	DD	imagerel $unwind$?call@?$compute_bitfieldReverseStep@_K$0A@Utvec1@glm@@$0A@$00@detail@glm@@SA?AU?$tvec1@_K$0A@@3@AEBU43@_K1@Z
pdata	ENDS
;	COMDAT pdata
pdata	SEGMENT
$pdata$??$?I_K$0A@@glm@@YA?AU?$tvec1@_K$0A@@0@AEBU10@_K@Z DD imagerel $LN3
	DD	imagerel $LN3+60
	DD	imagerel $unwind$??$?I_K$0A@@glm@@YA?AU?$tvec1@_K$0A@@0@AEBU10@_K@Z
pdata	ENDS
;	COMDAT pdata
pdata	SEGMENT
$pdata$??$?6_K$0A@@glm@@YA?AU?$tvec1@_K$0A@@0@AEBU10@_K@Z DD imagerel $LN3
	DD	imagerel $LN3+73
	DD	imagerel $unwind$??$?6_K$0A@@glm@@YA?AU?$tvec1@_K$0A@@0@AEBU10@_K@Z
pdata	ENDS
;	COMDAT pdata
pdata	SEGMENT
$pdata$??$?_5_K@?$tvec1@_K$0A@@glm@@QEAAAEAU01@AEBU01@@Z DD imagerel $LN3
	DD	imagerel $LN3+45
	DD	imagerel $unwind$??$?_5_K@?$tvec1@_K$0A@@glm@@QEAAAEAU01@AEBU01@@Z
pdata	ENDS
;	COMDAT pdata
pdata	SEGMENT
$pdata$??$call@_K$0A@Utvec1@glm@@@?$compute_bitfieldReverseStep@$00@bitfieldReverse@@SA?AU?$tvec1@_K$0A@@glm@@AEBU23@_K1@Z DD imagerel $LN3
	DD	imagerel $LN3+144
	DD	imagerel $unwind$??$call@_K$0A@Utvec1@glm@@@?$compute_bitfieldReverseStep@$00@bitfieldReverse@@SA?AU?$tvec1@_K$0A@@glm@@AEBU23@_K1@Z
pdata	ENDS
;	COMDAT pdata
pdata	SEGMENT
$pdata$?call@?$compute_bitfieldBitCountStep@I$0A@Utvec1@glm@@$0A@$00@detail@glm@@SA?AU?$tvec1@I$0A@@3@AEBU43@II@Z DD imagerel $LN3
	DD	imagerel $LN3+120
	DD	imagerel $unwind$?call@?$compute_bitfieldBitCountStep@I$0A@Utvec1@glm@@$0A@$00@detail@glm@@SA?AU?$tvec1@I$0A@@3@AEBU43@II@Z
pdata	ENDS
;	COMDAT pdata
pdata	SEGMENT
$pdata$?call@?$compute_bitfieldBitCountStep@I$0A@Utvec1@glm@@$0A@$0A@@detail@glm@@SA?AU?$tvec1@I$0A@@3@AEBU43@II@Z DD imagerel $LN3
	DD	imagerel $LN3+42
	DD	imagerel $unwind$?call@?$compute_bitfieldBitCountStep@I$0A@Utvec1@glm@@$0A@$0A@@detail@glm@@SA?AU?$tvec1@I$0A@@3@AEBU43@II@Z
pdata	ENDS
;	COMDAT pdata
pdata	SEGMENT
$pdata$??$?0I$0A@@?$tvec1@H$0A@@glm@@QEAA@AEBU?$tvec1@I$0A@@1@@Z DD imagerel $LN3
	DD	imagerel $LN3+32
	DD	imagerel $unwind$??$?0I$0A@@?$tvec1@H$0A@@glm@@QEAA@AEBU?$tvec1@I$0A@@1@@Z
pdata	ENDS
;	COMDAT pdata
pdata	SEGMENT
$pdata$?call@?$compute_findMSB_vec@H$0A@Utvec1@glm@@$0CA@@detail@glm@@SA?AU?$tvec1@H$0A@@3@AEBU43@@Z DD imagerel $LN3
	DD	imagerel $LN3+48
	DD	imagerel $unwind$?call@?$compute_findMSB_vec@H$0A@Utvec1@glm@@$0CA@@detail@glm@@SA?AU?$tvec1@H$0A@@3@AEBU43@@Z
pdata	ENDS
;	COMDAT pdata
pdata	SEGMENT
$pdata$?call@?$compute_findMSB_vec@I$0A@Utvec1@glm@@$0CA@@detail@glm@@SA?AU?$tvec1@H$0A@@3@AEBU?$tvec1@I$0A@@3@@Z DD imagerel $LN3
	DD	imagerel $LN3+48
	DD	imagerel $unwind$?call@?$compute_findMSB_vec@I$0A@Utvec1@glm@@$0CA@@detail@glm@@SA?AU?$tvec1@H$0A@@3@AEBU?$tvec1@I$0A@@3@@Z
pdata	ENDS
;	COMDAT pdata
pdata	SEGMENT
$pdata$?call@?$compute_mix_vector@I_N$0A@Utvec1@glm@@$0A@@detail@glm@@SA?AU?$tvec1@I$0A@@3@AEBU43@0AEBU?$tvec1@_N$0A@@3@@Z DD imagerel $LN8
	DD	imagerel $LN8+218
	DD	imagerel $unwind$?call@?$compute_mix_vector@I_N$0A@Utvec1@glm@@$0A@@detail@glm@@SA?AU?$tvec1@I$0A@@3@AEBU43@0AEBU?$tvec1@_N$0A@@3@@Z
pdata	ENDS
;	COMDAT pdata
pdata	SEGMENT
$pdata$?call@?$compute_mix_vector@I_N$0A@Utvec2@glm@@$0A@@detail@glm@@SA?AU?$tvec2@I$0A@@3@AEBU43@0AEBU?$tvec2@_N$0A@@3@@Z DD imagerel $LN8
	DD	imagerel $LN8+220
	DD	imagerel $unwind$?call@?$compute_mix_vector@I_N$0A@Utvec2@glm@@$0A@@detail@glm@@SA?AU?$tvec2@I$0A@@3@AEBU43@0AEBU?$tvec2@_N$0A@@3@@Z
pdata	ENDS
;	COMDAT pdata
pdata	SEGMENT
$pdata$?call@?$compute_mix_vector@I_N$0A@Utvec3@glm@@$0A@@detail@glm@@SA?AU?$tvec3@I$0A@@3@AEBU43@0AEBU?$tvec3@_N$0A@@3@@Z DD imagerel $LN8
	DD	imagerel $LN8+235
	DD	imagerel $unwind$?call@?$compute_mix_vector@I_N$0A@Utvec3@glm@@$0A@@detail@glm@@SA?AU?$tvec3@I$0A@@3@AEBU43@0AEBU?$tvec3@_N$0A@@3@@Z
pdata	ENDS
;	COMDAT pdata
pdata	SEGMENT
$pdata$?call@?$compute_mix_vector@I_N$0A@Utvec4@glm@@$0A@@detail@glm@@SA?AU?$tvec4@I$0A@@3@AEBU43@0AEBU?$tvec4@_N$0A@@3@@Z DD imagerel $LN8
	DD	imagerel $LN8+235
	DD	imagerel $unwind$?call@?$compute_mix_vector@I_N$0A@Utvec4@glm@@$0A@@detail@glm@@SA?AU?$tvec4@I$0A@@3@AEBU43@0AEBU?$tvec4@_N$0A@@3@@Z
pdata	ENDS
;	COMDAT pdata
pdata	SEGMENT
$pdata$??$?ZI@?$tvec4@I$0A@@glm@@QEAAAEAU01@AEBU01@@Z DD imagerel $LN3
	DD	imagerel $LN3+83
	DD	imagerel $unwind$??$?ZI@?$tvec4@I$0A@@glm@@QEAAAEAU01@AEBU01@@Z
pdata	ENDS
;	COMDAT pdata
pdata	SEGMENT
$pdata$??$?Z_J@?$tvec4@_J$0A@@glm@@QEAAAEAU01@AEBU01@@Z DD imagerel $LN3
	DD	imagerel $LN3+95
	DD	imagerel $unwind$??$?Z_J@?$tvec4@_J$0A@@glm@@QEAAAEAU01@AEBU01@@Z
pdata	ENDS
;	COMDAT pdata
pdata	SEGMENT
$pdata$??$?Y_J@?$tvec4@_J$0A@@glm@@QEAAAEAU01@_J@Z DD imagerel $LN3
	DD	imagerel $LN3+88
	DD	imagerel $unwind$??$?Y_J@?$tvec4@_J$0A@@glm@@QEAAAEAU01@_J@Z
pdata	ENDS
;	COMDAT pdata
pdata	SEGMENT
$pdata$??$?X_K@?$tvec4@_K$0A@@glm@@QEAAAEAU01@AEBU01@@Z DD imagerel $LN3
	DD	imagerel $LN3+95
	DD	imagerel $unwind$??$?X_K@?$tvec4@_K$0A@@glm@@QEAAAEAU01@AEBU01@@Z
pdata	ENDS
;	COMDAT pdata
pdata	SEGMENT
$pdata$??$?_2_K@?$tvec4@_K$0A@@glm@@QEAAAEAU01@_K@Z DD imagerel $LN3
	DD	imagerel $LN3+88
	DD	imagerel $unwind$??$?_2_K@?$tvec4@_K$0A@@glm@@QEAAAEAU01@_K@Z
pdata	ENDS
;	COMDAT pdata
pdata	SEGMENT
$pdata$??$?X_J@?$tvec4@_J$0A@@glm@@QEAAAEAU01@AEBU01@@Z DD imagerel $LN3
	DD	imagerel $LN3+95
	DD	imagerel $unwind$??$?X_J@?$tvec4@_J$0A@@glm@@QEAAAEAU01@AEBU01@@Z
pdata	ENDS
;	COMDAT pdata
pdata	SEGMENT
$pdata$??$?_4_J@?$tvec4@_J$0A@@glm@@QEAAAEAU01@_J@Z DD imagerel $LN3
	DD	imagerel $LN3+88
	DD	imagerel $unwind$??$?_4_J@?$tvec4@_J$0A@@glm@@QEAAAEAU01@_J@Z
pdata	ENDS
;	COMDAT pdata
pdata	SEGMENT
$pdata$??$?_2_J@?$tvec4@_J$0A@@glm@@QEAAAEAU01@_J@Z DD imagerel $LN3
	DD	imagerel $LN3+88
	DD	imagerel $unwind$??$?_2_J@?$tvec4@_J$0A@@glm@@QEAAAEAU01@_J@Z
pdata	ENDS
;	COMDAT pdata
pdata	SEGMENT
$pdata$?call@?$compute_bitfieldBitCountStep@_K$0A@Utvec1@glm@@$0A@$00@detail@glm@@SA?AU?$tvec1@_K$0A@@3@AEBU43@_K1@Z DD imagerel $LN3
	DD	imagerel $LN3+120
	DD	imagerel $unwind$?call@?$compute_bitfieldBitCountStep@_K$0A@Utvec1@glm@@$0A@$00@detail@glm@@SA?AU?$tvec1@_K$0A@@3@AEBU43@_K1@Z
pdata	ENDS
;	COMDAT pdata
pdata	SEGMENT
$pdata$??$?0_K$0A@@?$tvec1@H$0A@@glm@@QEAA@AEBU?$tvec1@_K$0A@@1@@Z DD imagerel $LN3
	DD	imagerel $LN3+32
	DD	imagerel $unwind$??$?0_K$0A@@?$tvec1@H$0A@@glm@@QEAA@AEBU?$tvec1@_K$0A@@1@@Z
pdata	ENDS
;	COMDAT pdata
pdata	SEGMENT
$pdata$??$call@I$0A@Utvec1@glm@@@?$compute_bitfieldBitCountStep@$00@bitCount@@SA?AU?$tvec1@I$0A@@glm@@AEBU23@II@Z DD imagerel $LN3
	DD	imagerel $LN3+120
	DD	imagerel $unwind$??$call@I$0A@Utvec1@glm@@@?$compute_bitfieldBitCountStep@$00@bitCount@@SA?AU?$tvec1@I$0A@@glm@@AEBU23@II@Z
pdata	ENDS
;	COMDAT pdata
pdata	SEGMENT
$pdata$??$call@I$0A@Utvec1@glm@@@?$compute_bitfieldBitCountStep@$0A@@bitCount@@SA?AU?$tvec1@I$0A@@glm@@AEBU23@II@Z DD imagerel $LN3
	DD	imagerel $LN3+42
	DD	imagerel $unwind$??$call@I$0A@Utvec1@glm@@@?$compute_bitfieldBitCountStep@$0A@@bitCount@@SA?AU?$tvec1@I$0A@@glm@@AEBU23@II@Z
pdata	ENDS
;	COMDAT pdata
pdata	SEGMENT
$pdata$??$_Uninitialized_move@PEAU?$tvec4@H$0A@@glm@@V?$allocator@U?$tvec4@H$0A@@glm@@@std@@@std@@YAPEAU?$tvec4@H$0A@@glm@@QEAU12@0PEAU12@AEAV?$allocator@U?$tvec4@H$0A@@glm@@@0@@Z DD imagerel $LN7
	DD	imagerel $LN7+284
	DD	imagerel $unwind$??$_Uninitialized_move@PEAU?$tvec4@H$0A@@glm@@V?$allocator@U?$tvec4@H$0A@@glm@@@std@@@std@@YAPEAU?$tvec4@H$0A@@glm@@QEAU12@0PEAU12@AEAV?$allocator@U?$tvec4@H$0A@@glm@@@0@@Z
pdata	ENDS
;	COMDAT pdata
pdata	SEGMENT
$pdata$?dtor$0@?0???$_Uninitialized_move@PEAU?$tvec4@H$0A@@glm@@V?$allocator@U?$tvec4@H$0A@@glm@@@std@@@std@@YAPEAU?$tvec4@H$0A@@glm@@QEAU12@0PEAU12@AEAV?$allocator@U?$tvec4@H$0A@@glm@@@0@@Z@4HA DD imagerel ?dtor$0@?0???$_Uninitialized_move@PEAU?$tvec4@H$0A@@glm@@V?$allocator@U?$tvec4@H$0A@@glm@@@std@@@std@@YAPEAU?$tvec4@H$0A@@glm@@QEAU12@0PEAU12@AEAV?$allocator@U?$tvec4@H$0A@@glm@@@0@@Z@4HA
	DD	imagerel ?dtor$0@?0???$_Uninitialized_move@PEAU?$tvec4@H$0A@@glm@@V?$allocator@U?$tvec4@H$0A@@glm@@@std@@@std@@YAPEAU?$tvec4@H$0A@@glm@@QEAU12@0PEAU12@AEAV?$allocator@U?$tvec4@H$0A@@glm@@@0@@Z@4HA+35
	DD	imagerel $unwind$?dtor$0@?0???$_Uninitialized_move@PEAU?$tvec4@H$0A@@glm@@V?$allocator@U?$tvec4@H$0A@@glm@@@std@@@std@@YAPEAU?$tvec4@H$0A@@glm@@QEAU12@0PEAU12@AEAV?$allocator@U?$tvec4@H$0A@@glm@@@0@@Z@4HA
pdata	ENDS
;	COMDAT pdata
pdata	SEGMENT
$pdata$??0?$_Uninitialized_backout_al@V?$allocator@U?$tvec4@H$0A@@glm@@@std@@@std@@QEAA@PEAU?$tvec4@H$0A@@glm@@AEAV?$allocator@U?$tvec4@H$0A@@glm@@@1@@Z DD imagerel $LN3
	DD	imagerel $LN3+64
	DD	imagerel $unwind$??0?$_Uninitialized_backout_al@V?$allocator@U?$tvec4@H$0A@@glm@@@std@@@std@@QEAA@PEAU?$tvec4@H$0A@@glm@@AEAV?$allocator@U?$tvec4@H$0A@@glm@@@1@@Z
pdata	ENDS
;	COMDAT pdata
pdata	SEGMENT
$pdata$??1?$_Uninitialized_backout_al@V?$allocator@U?$tvec4@H$0A@@glm@@@std@@@std@@QEAA@XZ DD imagerel $LN3
	DD	imagerel $LN3+47
	DD	imagerel $unwind$??1?$_Uninitialized_backout_al@V?$allocator@U?$tvec4@H$0A@@glm@@@std@@@std@@QEAA@XZ
pdata	ENDS
;	COMDAT pdata
pdata	SEGMENT
$pdata$?_Release@?$_Uninitialized_backout_al@V?$allocator@U?$tvec4@H$0A@@glm@@@std@@@std@@QEAAPEAU?$tvec4@H$0A@@glm@@XZ DD imagerel $LN3
	DD	imagerel $LN3+34
	DD	imagerel $unwind$?_Release@?$_Uninitialized_backout_al@V?$allocator@U?$tvec4@H$0A@@glm@@@std@@@std@@QEAAPEAU?$tvec4@H$0A@@glm@@XZ
pdata	ENDS
;	COMDAT pdata
pdata	SEGMENT
$pdata$??$_Emplace_back@$$V@?$_Uninitialized_backout_al@V?$allocator@U?$tvec4@H$0A@@glm@@@std@@@std@@QEAAXXZ DD imagerel $LN3
	DD	imagerel $LN3+69
	DD	imagerel $unwind$??$_Emplace_back@$$V@?$_Uninitialized_backout_al@V?$allocator@U?$tvec4@H$0A@@glm@@@std@@@std@@QEAAXXZ
pdata	ENDS
;	COMDAT pdata
pdata	SEGMENT
$pdata$?deallocate@?$_Default_allocator_traits@V?$allocator@U_Container_proxy@std@@@std@@@std@@SAXAEAV?$allocator@U_Container_proxy@std@@@2@QEAU_Container_proxy@2@_K@Z DD imagerel $LN3
	DD	imagerel $LN3+45
	DD	imagerel $unwind$?deallocate@?$_Default_allocator_traits@V?$allocator@U_Container_proxy@std@@@std@@@std@@SAXAEAV?$allocator@U_Container_proxy@std@@@2@QEAU_Container_proxy@2@_K@Z
pdata	ENDS
;	COMDAT pdata
pdata	SEGMENT
$pdata$??$addressof@U_Container_proxy@std@@@std@@YAPEAU_Container_proxy@0@AEAU10@@Z DD imagerel $LN3
	DD	imagerel $LN3+13
	DD	imagerel $unwind$??$addressof@U_Container_proxy@std@@@std@@YAPEAU_Container_proxy@0@AEAU10@@Z
pdata	ENDS
;	COMDAT pdata
pdata	SEGMENT
$pdata$??$_Voidify_iter@PEAU_Container_proxy@std@@@std@@YAPEAXPEAU_Container_proxy@0@@Z DD imagerel $LN3
	DD	imagerel $LN3+13
	DD	imagerel $unwind$??$_Voidify_iter@PEAU_Container_proxy@std@@@std@@YAPEAXPEAU_Container_proxy@0@@Z
pdata	ENDS
;	COMDAT pdata
pdata	SEGMENT
$pdata$??$forward@PEAU_Container_base12@std@@@std@@YA$$QEAPEAU_Container_base12@0@AEAPEAU10@@Z DD imagerel $LN3
	DD	imagerel $LN3+13
	DD	imagerel $unwind$??$forward@PEAU_Container_base12@std@@@std@@YA$$QEAPEAU_Container_base12@0@AEAPEAU10@@Z
pdata	ENDS
;	COMDAT pdata
pdata	SEGMENT
$pdata$??$_Uninitialized_move@PEAHV?$allocator@H@std@@@std@@YAPEAHQEAH0PEAHAEAV?$allocator@H@0@@Z DD imagerel $LN7
	DD	imagerel $LN7+278
	DD	imagerel $unwind$??$_Uninitialized_move@PEAHV?$allocator@H@std@@@std@@YAPEAHQEAH0PEAHAEAV?$allocator@H@0@@Z
pdata	ENDS
;	COMDAT pdata
pdata	SEGMENT
$pdata$?dtor$0@?0???$_Uninitialized_move@PEAHV?$allocator@H@std@@@std@@YAPEAHQEAH0PEAHAEAV?$allocator@H@0@@Z@4HA DD imagerel ?dtor$0@?0???$_Uninitialized_move@PEAHV?$allocator@H@std@@@std@@YAPEAHQEAH0PEAHAEAV?$allocator@H@0@@Z@4HA
	DD	imagerel ?dtor$0@?0???$_Uninitialized_move@PEAHV?$allocator@H@std@@@std@@YAPEAHQEAH0PEAHAEAV?$allocator@H@0@@Z@4HA+35
	DD	imagerel $unwind$?dtor$0@?0???$_Uninitialized_move@PEAHV?$allocator@H@std@@@std@@YAPEAHQEAH0PEAHAEAV?$allocator@H@0@@Z@4HA
pdata	ENDS
;	COMDAT pdata
pdata	SEGMENT
$pdata$??$_Unfancy@H@std@@YAPEAHPEAH@Z DD imagerel $LN3
	DD	imagerel $LN3+13
	DD	imagerel $unwind$??$_Unfancy@H@std@@YAPEAHPEAH@Z
pdata	ENDS
;	COMDAT pdata
pdata	SEGMENT
$pdata$??$_Zero_range@PEAH@std@@YAPEAHQEAH0@Z DD imagerel $LN3
	DD	imagerel $LN3+87
	DD	imagerel $unwind$??$_Zero_range@PEAH@std@@YAPEAHQEAH0@Z
pdata	ENDS
;	COMDAT pdata
pdata	SEGMENT
$pdata$??0?$_Uninitialized_backout_al@V?$allocator@H@std@@@std@@QEAA@PEAHAEAV?$allocator@H@1@@Z DD imagerel $LN3
	DD	imagerel $LN3+64
	DD	imagerel $unwind$??0?$_Uninitialized_backout_al@V?$allocator@H@std@@@std@@QEAA@PEAHAEAV?$allocator@H@1@@Z
pdata	ENDS
;	COMDAT pdata
pdata	SEGMENT
$pdata$??1?$_Uninitialized_backout_al@V?$allocator@H@std@@@std@@QEAA@XZ DD imagerel $LN3
	DD	imagerel $LN3+47
	DD	imagerel $unwind$??1?$_Uninitialized_backout_al@V?$allocator@H@std@@@std@@QEAA@XZ
pdata	ENDS
;	COMDAT pdata
pdata	SEGMENT
$pdata$?_Release@?$_Uninitialized_backout_al@V?$allocator@H@std@@@std@@QEAAPEAHXZ DD imagerel $LN3
	DD	imagerel $LN3+34
	DD	imagerel $unwind$?_Release@?$_Uninitialized_backout_al@V?$allocator@H@std@@@std@@QEAAPEAHXZ
pdata	ENDS
;	COMDAT pdata
pdata	SEGMENT
$pdata$??$_Emplace_back@$$V@?$_Uninitialized_backout_al@V?$allocator@H@std@@@std@@QEAAXXZ DD imagerel $LN3
	DD	imagerel $LN3+69
	DD	imagerel $unwind$??$_Emplace_back@$$V@?$_Uninitialized_backout_al@V?$allocator@H@std@@@std@@QEAAXXZ
pdata	ENDS
;	COMDAT pdata
pdata	SEGMENT
$pdata$??$_Uninitialized_move@PEA_KV?$allocator@_K@std@@@std@@YAPEA_KQEA_K0PEA_KAEAV?$allocator@_K@0@@Z DD imagerel $LN7
	DD	imagerel $LN7+278
	DD	imagerel $unwind$??$_Uninitialized_move@PEA_KV?$allocator@_K@std@@@std@@YAPEA_KQEA_K0PEA_KAEAV?$allocator@_K@0@@Z
pdata	ENDS
;	COMDAT pdata
pdata	SEGMENT
$pdata$?dtor$0@?0???$_Uninitialized_move@PEA_KV?$allocator@_K@std@@@std@@YAPEA_KQEA_K0PEA_KAEAV?$allocator@_K@0@@Z@4HA DD imagerel ?dtor$0@?0???$_Uninitialized_move@PEA_KV?$allocator@_K@std@@@std@@YAPEA_KQEA_K0PEA_KAEAV?$allocator@_K@0@@Z@4HA
	DD	imagerel ?dtor$0@?0???$_Uninitialized_move@PEA_KV?$allocator@_K@std@@@std@@YAPEA_KQEA_K0PEA_KAEAV?$allocator@_K@0@@Z@4HA+35
	DD	imagerel $unwind$?dtor$0@?0???$_Uninitialized_move@PEA_KV?$allocator@_K@std@@@std@@YAPEA_KQEA_K0PEA_KAEAV?$allocator@_K@0@@Z@4HA
pdata	ENDS
;	COMDAT pdata
pdata	SEGMENT
$pdata$??$_Unfancy@_K@std@@YAPEA_KPEA_K@Z DD imagerel $LN3
	DD	imagerel $LN3+13
	DD	imagerel $unwind$??$_Unfancy@_K@std@@YAPEA_KPEA_K@Z
pdata	ENDS
;	COMDAT pdata
pdata	SEGMENT
$pdata$??$_Zero_range@PEA_K@std@@YAPEA_KQEA_K0@Z DD imagerel $LN3
	DD	imagerel $LN3+87
	DD	imagerel $unwind$??$_Zero_range@PEA_K@std@@YAPEA_KQEA_K0@Z
pdata	ENDS
;	COMDAT pdata
pdata	SEGMENT
$pdata$??0?$_Uninitialized_backout_al@V?$allocator@_K@std@@@std@@QEAA@PEA_KAEAV?$allocator@_K@1@@Z DD imagerel $LN3
	DD	imagerel $LN3+64
	DD	imagerel $unwind$??0?$_Uninitialized_backout_al@V?$allocator@_K@std@@@std@@QEAA@PEA_KAEAV?$allocator@_K@1@@Z
pdata	ENDS
;	COMDAT pdata
pdata	SEGMENT
$pdata$??1?$_Uninitialized_backout_al@V?$allocator@_K@std@@@std@@QEAA@XZ DD imagerel $LN3
	DD	imagerel $LN3+47
	DD	imagerel $unwind$??1?$_Uninitialized_backout_al@V?$allocator@_K@std@@@std@@QEAA@XZ
pdata	ENDS
;	COMDAT pdata
pdata	SEGMENT
$pdata$?_Release@?$_Uninitialized_backout_al@V?$allocator@_K@std@@@std@@QEAAPEA_KXZ DD imagerel $LN3
	DD	imagerel $LN3+34
	DD	imagerel $unwind$?_Release@?$_Uninitialized_backout_al@V?$allocator@_K@std@@@std@@QEAAPEA_KXZ
pdata	ENDS
;	COMDAT pdata
pdata	SEGMENT
$pdata$??$_Emplace_back@$$V@?$_Uninitialized_backout_al@V?$allocator@_K@std@@@std@@QEAAXXZ DD imagerel $LN3
	DD	imagerel $LN3+69
	DD	imagerel $unwind$??$_Emplace_back@$$V@?$_Uninitialized_backout_al@V?$allocator@_K@std@@@std@@QEAAXXZ
pdata	ENDS
;	COMDAT pdata
pdata	SEGMENT
$pdata$??$_Uninitialized_move@PEAIV?$allocator@I@std@@@std@@YAPEAIQEAI0PEAIAEAV?$allocator@I@0@@Z DD imagerel $LN7
	DD	imagerel $LN7+278
	DD	imagerel $unwind$??$_Uninitialized_move@PEAIV?$allocator@I@std@@@std@@YAPEAIQEAI0PEAIAEAV?$allocator@I@0@@Z
pdata	ENDS
;	COMDAT pdata
pdata	SEGMENT
$pdata$?dtor$0@?0???$_Uninitialized_move@PEAIV?$allocator@I@std@@@std@@YAPEAIQEAI0PEAIAEAV?$allocator@I@0@@Z@4HA DD imagerel ?dtor$0@?0???$_Uninitialized_move@PEAIV?$allocator@I@std@@@std@@YAPEAIQEAI0PEAIAEAV?$allocator@I@0@@Z@4HA
	DD	imagerel ?dtor$0@?0???$_Uninitialized_move@PEAIV?$allocator@I@std@@@std@@YAPEAIQEAI0PEAIAEAV?$allocator@I@0@@Z@4HA+35
	DD	imagerel $unwind$?dtor$0@?0???$_Uninitialized_move@PEAIV?$allocator@I@std@@@std@@YAPEAIQEAI0PEAIAEAV?$allocator@I@0@@Z@4HA
pdata	ENDS
;	COMDAT pdata
pdata	SEGMENT
$pdata$??$_Unfancy@I@std@@YAPEAIPEAI@Z DD imagerel $LN3
	DD	imagerel $LN3+13
	DD	imagerel $unwind$??$_Unfancy@I@std@@YAPEAIPEAI@Z
pdata	ENDS
;	COMDAT pdata
pdata	SEGMENT
$pdata$??$_Zero_range@PEAI@std@@YAPEAIQEAI0@Z DD imagerel $LN3
	DD	imagerel $LN3+87
	DD	imagerel $unwind$??$_Zero_range@PEAI@std@@YAPEAIQEAI0@Z
pdata	ENDS
;	COMDAT pdata
pdata	SEGMENT
$pdata$??0?$_Uninitialized_backout_al@V?$allocator@I@std@@@std@@QEAA@PEAIAEAV?$allocator@I@1@@Z DD imagerel $LN3
	DD	imagerel $LN3+64
	DD	imagerel $unwind$??0?$_Uninitialized_backout_al@V?$allocator@I@std@@@std@@QEAA@PEAIAEAV?$allocator@I@1@@Z
pdata	ENDS
;	COMDAT pdata
pdata	SEGMENT
$pdata$??1?$_Uninitialized_backout_al@V?$allocator@I@std@@@std@@QEAA@XZ DD imagerel $LN3
	DD	imagerel $LN3+47
	DD	imagerel $unwind$??1?$_Uninitialized_backout_al@V?$allocator@I@std@@@std@@QEAA@XZ
pdata	ENDS
;	COMDAT pdata
pdata	SEGMENT
$pdata$?_Release@?$_Uninitialized_backout_al@V?$allocator@I@std@@@std@@QEAAPEAIXZ DD imagerel $LN3
	DD	imagerel $LN3+34
	DD	imagerel $unwind$?_Release@?$_Uninitialized_backout_al@V?$allocator@I@std@@@std@@QEAAPEAIXZ
pdata	ENDS
;	COMDAT pdata
pdata	SEGMENT
$pdata$??$_Emplace_back@$$V@?$_Uninitialized_backout_al@V?$allocator@I@std@@@std@@QEAAXXZ DD imagerel $LN3
	DD	imagerel $LN3+69
	DD	imagerel $unwind$??$_Emplace_back@$$V@?$_Uninitialized_backout_al@V?$allocator@I@std@@@std@@QEAAXXZ
pdata	ENDS
;	COMDAT pdata
pdata	SEGMENT
$pdata$??$?_4I@?$tvec4@I$0A@@glm@@QEAAAEAU01@I@Z DD imagerel $LN3
	DD	imagerel $LN3+74
	DD	imagerel $unwind$??$?_4I@?$tvec4@I$0A@@glm@@QEAAAEAU01@I@Z
pdata	ENDS
;	COMDAT pdata
pdata	SEGMENT
$pdata$??$?_2I@?$tvec4@I$0A@@glm@@QEAAAEAU01@I@Z DD imagerel $LN3
	DD	imagerel $LN3+74
	DD	imagerel $unwind$??$?_2I@?$tvec4@I$0A@@glm@@QEAAAEAU01@I@Z
pdata	ENDS
;	COMDAT pdata
pdata	SEGMENT
$pdata$??$?YI@?$tvec4@I$0A@@glm@@QEAAAEAU01@AEBU01@@Z DD imagerel $LN3
	DD	imagerel $LN3+83
	DD	imagerel $unwind$??$?YI@?$tvec4@I$0A@@glm@@QEAAAEAU01@AEBU01@@Z
pdata	ENDS
;	COMDAT pdata
pdata	SEGMENT
$pdata$??$_Allocate_manually_vector_aligned@U_Default_allocate_traits@std@@@std@@YAPEAX_K@Z DD imagerel $LN13
	DD	imagerel $LN13+259
	DD	imagerel $unwind$??$_Allocate_manually_vector_aligned@U_Default_allocate_traits@std@@@std@@YAPEAX_K@Z
pdata	ENDS
;	COMDAT pdata
pdata	SEGMENT
$pdata$?call@?$functor1@HI$0A@Utvec1@glm@@@detail@glm@@SA?AU?$tvec1@H$0A@@3@P6AHI@ZAEBU?$tvec1@I$0A@@3@@Z DD imagerel $LN3
	DD	imagerel $LN3+54
	DD	imagerel $unwind$?call@?$functor1@HI$0A@Utvec1@glm@@@detail@glm@@SA?AU?$tvec1@H$0A@@3@P6AHI@ZAEBU?$tvec1@I$0A@@3@@Z
pdata	ENDS
;	COMDAT pdata
pdata	SEGMENT
$pdata$??$compute_findMSB_32@I@detail@glm@@YAHI@Z DD imagerel $LN5
	DD	imagerel $LN5+112
	DD	imagerel $unwind$??$compute_findMSB_32@I@detail@glm@@YAHI@Z
pdata	ENDS
;	COMDAT pdata
pdata	SEGMENT
$pdata$?call@?$functor1@HH$0A@Utvec1@glm@@@detail@glm@@SA?AU?$tvec1@H$0A@@3@P6AHH@ZAEBU43@@Z DD imagerel $LN3
	DD	imagerel $LN3+54
	DD	imagerel $unwind$?call@?$functor1@HH$0A@Utvec1@glm@@@detail@glm@@SA?AU?$tvec1@H$0A@@3@P6AHH@ZAEBU43@@Z
pdata	ENDS
;	COMDAT pdata
pdata	SEGMENT
$pdata$??$?HI$0A@@glm@@YA?AU?$tvec1@I$0A@@0@AEBU10@0@Z DD imagerel $LN3
	DD	imagerel $LN3+57
	DD	imagerel $unwind$??$?HI$0A@@glm@@YA?AU?$tvec1@I$0A@@0@AEBU10@0@Z
pdata	ENDS
;	COMDAT pdata
pdata	SEGMENT
$pdata$??$?U_K$0A@@glm@@YA?AU?$tvec1@_K$0A@@0@AEBU10@0@Z DD imagerel $LN3
	DD	imagerel $LN3+63
	DD	imagerel $unwind$??$?U_K$0A@@glm@@YA?AU?$tvec1@_K$0A@@0@AEBU10@0@Z
pdata	ENDS
;	COMDAT pdata
pdata	SEGMENT
$pdata$??$min@_K@std@@YAAEB_KAEB_K0@Z DD imagerel $LN5
	DD	imagerel $LN5+74
	DD	imagerel $unwind$??$min@_K@std@@YAAEB_KAEB_K0@Z
pdata	ENDS
;	COMDAT pdata
pdata	SEGMENT
$pdata$??$_Get_size_of_n@$03@std@@YA_K_K@Z DD imagerel $LN4
	DD	imagerel $LN4+67
	DD	imagerel $unwind$??$_Get_size_of_n@$03@std@@YA_K_K@Z
pdata	ENDS
;	COMDAT pdata
pdata	SEGMENT
$pdata$??$_Get_size_of_n@$07@std@@YA_K_K@Z DD imagerel $LN4
	DD	imagerel $LN4+67
	DD	imagerel $unwind$??$_Get_size_of_n@$07@std@@YA_K_K@Z
pdata	ENDS
;	COMDAT pdata
pdata	SEGMENT
$pdata$?call@?$compute_vec4_sub@I$0A@$0A@@detail@glm@@SA?AU?$tvec4@I$0A@@3@AEBU43@0@Z DD imagerel $LN3
	DD	imagerel $LN3+137
	DD	imagerel $unwind$?call@?$compute_vec4_sub@I$0A@$0A@@detail@glm@@SA?AU?$tvec4@I$0A@@3@AEBU43@0@Z
pdata	ENDS
;	COMDAT pdata
pdata	SEGMENT
$pdata$?call@?$compute_vec4_sub@_J$0A@$0A@@detail@glm@@SA?AU?$tvec4@_J$0A@@3@AEBU43@0@Z DD imagerel $LN3
	DD	imagerel $LN3+147
	DD	imagerel $unwind$?call@?$compute_vec4_sub@_J$0A@$0A@@detail@glm@@SA?AU?$tvec4@_J$0A@@3@AEBU43@0@Z
pdata	ENDS
;	COMDAT pdata
pdata	SEGMENT
$pdata$?call@?$compute_vec4_add@_J$0A@$0A@@detail@glm@@SA?AU?$tvec4@_J$0A@@3@AEBU43@0@Z DD imagerel $LN3
	DD	imagerel $LN3+135
	DD	imagerel $unwind$?call@?$compute_vec4_add@_J$0A@$0A@@detail@glm@@SA?AU?$tvec4@_J$0A@@3@AEBU43@0@Z
pdata	ENDS
;	COMDAT pdata
pdata	SEGMENT
$pdata$?call@?$compute_vec4_mul@_K$0A@$0A@@detail@glm@@SA?AU?$tvec4@_K$0A@@3@AEBU43@0@Z DD imagerel $LN3
	DD	imagerel $LN3+139
	DD	imagerel $unwind$?call@?$compute_vec4_mul@_K$0A@$0A@@detail@glm@@SA?AU?$tvec4@_K$0A@@3@AEBU43@0@Z
pdata	ENDS
;	COMDAT pdata
pdata	SEGMENT
$pdata$?call@?$compute_vec4_shift_right@_K$0A@$0?0$0EA@$0A@@detail@glm@@SA?AU?$tvec4@_K$0A@@3@AEBU43@0@Z DD imagerel $LN3
	DD	imagerel $LN3+185
	DD	imagerel $unwind$?call@?$compute_vec4_shift_right@_K$0A@$0?0$0EA@$0A@@detail@glm@@SA?AU?$tvec4@_K$0A@@3@AEBU43@0@Z
pdata	ENDS
;	COMDAT pdata
pdata	SEGMENT
$pdata$?call@?$compute_vec4_mul@_J$0A@$0A@@detail@glm@@SA?AU?$tvec4@_J$0A@@3@AEBU43@0@Z DD imagerel $LN3
	DD	imagerel $LN3+139
	DD	imagerel $unwind$?call@?$compute_vec4_mul@_J$0A@$0A@@detail@glm@@SA?AU?$tvec4@_J$0A@@3@AEBU43@0@Z
pdata	ENDS
;	COMDAT pdata
pdata	SEGMENT
$pdata$?call@?$compute_vec4_and@_J$0A@$0?0$0EA@$0A@@detail@glm@@SA?AU?$tvec4@_J$0A@@3@AEBU43@0@Z DD imagerel $LN3
	DD	imagerel $LN3+147
	DD	imagerel $unwind$?call@?$compute_vec4_and@_J$0A@$0?0$0EA@$0A@@detail@glm@@SA?AU?$tvec4@_J$0A@@3@AEBU43@0@Z
pdata	ENDS
;	COMDAT pdata
pdata	SEGMENT
$pdata$?call@?$compute_vec4_shift_right@_J$0A@$0?0$0EA@$0A@@detail@glm@@SA?AU?$tvec4@_J$0A@@3@AEBU43@0@Z DD imagerel $LN3
	DD	imagerel $LN3+185
	DD	imagerel $unwind$?call@?$compute_vec4_shift_right@_J$0A@$0?0$0EA@$0A@@detail@glm@@SA?AU?$tvec4@_J$0A@@3@AEBU43@0@Z
pdata	ENDS
;	COMDAT pdata
pdata	SEGMENT
$pdata$??$_Get_unwrapped@AEBQEAU?$tvec4@H$0A@@glm@@@std@@YA?A_TAEBQEAU?$tvec4@H$0A@@glm@@@Z DD imagerel $LN3
	DD	imagerel $LN3+16
	DD	imagerel $unwind$??$_Get_unwrapped@AEBQEAU?$tvec4@H$0A@@glm@@@std@@YA?A_TAEBQEAU?$tvec4@H$0A@@glm@@@Z
pdata	ENDS
;	COMDAT pdata
pdata	SEGMENT
$pdata$??$move@AEAU?$tvec4@H$0A@@glm@@@std@@YA$$QEAU?$tvec4@H$0A@@glm@@AEAU12@@Z DD imagerel $LN3
	DD	imagerel $LN3+13
	DD	imagerel $unwind$??$move@AEAU?$tvec4@H$0A@@glm@@@std@@YA$$QEAU?$tvec4@H$0A@@glm@@AEAU12@@Z
pdata	ENDS
;	COMDAT pdata
pdata	SEGMENT
$pdata$??$_Unfancy@U?$tvec4@H$0A@@glm@@@std@@YAPEAU?$tvec4@H$0A@@glm@@PEAU12@@Z DD imagerel $LN3
	DD	imagerel $LN3+13
	DD	imagerel $unwind$??$_Unfancy@U?$tvec4@H$0A@@glm@@@std@@YAPEAU?$tvec4@H$0A@@glm@@PEAU12@@Z
pdata	ENDS
;	COMDAT pdata
pdata	SEGMENT
$pdata$??$_Copy_memmove@PEAU?$tvec4@H$0A@@glm@@PEAU12@@std@@YAPEAU?$tvec4@H$0A@@glm@@PEAU12@00@Z DD imagerel $LN3
	DD	imagerel $LN3+161
	DD	imagerel $unwind$??$_Copy_memmove@PEAU?$tvec4@H$0A@@glm@@PEAU12@@std@@YAPEAU?$tvec4@H$0A@@glm@@PEAU12@00@Z
pdata	ENDS
;	COMDAT pdata
pdata	SEGMENT
$pdata$??$_Emplace_back@U?$tvec4@H$0A@@glm@@@?$_Uninitialized_backout_al@V?$allocator@U?$tvec4@H$0A@@glm@@@std@@@std@@QEAAX$$QEAU?$tvec4@H$0A@@glm@@@Z DD imagerel $LN3
	DD	imagerel $LN3+97
	DD	imagerel $unwind$??$_Emplace_back@U?$tvec4@H$0A@@glm@@@?$_Uninitialized_backout_al@V?$allocator@U?$tvec4@H$0A@@glm@@@std@@@std@@QEAAX$$QEAU?$tvec4@H$0A@@glm@@@Z
pdata	ENDS
;	COMDAT pdata
pdata	SEGMENT
$pdata$??$construct@U?$tvec4@H$0A@@glm@@$$V@?$_Default_allocator_traits@V?$allocator@U?$tvec4@H$0A@@glm@@@std@@@std@@SAXAEAV?$allocator@U?$tvec4@H$0A@@glm@@@1@QEAU?$tvec4@H$0A@@glm@@@Z DD imagerel $LN3
	DD	imagerel $LN3+59
	DD	imagerel $unwind$??$construct@U?$tvec4@H$0A@@glm@@$$V@?$_Default_allocator_traits@V?$allocator@U?$tvec4@H$0A@@glm@@@std@@@std@@SAXAEAV?$allocator@U?$tvec4@H$0A@@glm@@@1@QEAU?$tvec4@H$0A@@glm@@@Z
pdata	ENDS
;	COMDAT pdata
pdata	SEGMENT
$pdata$??$_Get_unwrapped@AEBQEAH@std@@YA?A_TAEBQEAH@Z DD imagerel $LN3
	DD	imagerel $LN3+16
	DD	imagerel $unwind$??$_Get_unwrapped@AEBQEAH@std@@YA?A_TAEBQEAH@Z
pdata	ENDS
;	COMDAT pdata
pdata	SEGMENT
$pdata$??$move@AEAH@std@@YA$$QEAHAEAH@Z DD imagerel $LN3
	DD	imagerel $LN3+13
	DD	imagerel $unwind$??$move@AEAH@std@@YA$$QEAHAEAH@Z
pdata	ENDS
;	COMDAT pdata
pdata	SEGMENT
$pdata$??$_Copy_memmove@PEAHPEAH@std@@YAPEAHPEAH00@Z DD imagerel $LN3
	DD	imagerel $LN3+161
	DD	imagerel $unwind$??$_Copy_memmove@PEAHPEAH@std@@YAPEAHPEAH00@Z
pdata	ENDS
;	COMDAT pdata
pdata	SEGMENT
$pdata$??$_Emplace_back@H@?$_Uninitialized_backout_al@V?$allocator@H@std@@@std@@QEAAX$$QEAH@Z DD imagerel $LN3
	DD	imagerel $LN3+97
	DD	imagerel $unwind$??$_Emplace_back@H@?$_Uninitialized_backout_al@V?$allocator@H@std@@@std@@QEAAX$$QEAH@Z
pdata	ENDS
;	COMDAT pdata
pdata	SEGMENT
$pdata$??$_To_address@PEAH@std@@YA?A_PAEBQEAH@Z DD imagerel $LN3
	DD	imagerel $LN3+16
	DD	imagerel $unwind$??$_To_address@PEAH@std@@YA?A_PAEBQEAH@Z
pdata	ENDS
;	COMDAT pdata
pdata	SEGMENT
$pdata$??$construct@H$$V@?$_Default_allocator_traits@V?$allocator@H@std@@@std@@SAXAEAV?$allocator@H@1@QEAH@Z DD imagerel $LN3
	DD	imagerel $LN3+72
	DD	imagerel $unwind$??$construct@H$$V@?$_Default_allocator_traits@V?$allocator@H@std@@@std@@SAXAEAV?$allocator@H@1@QEAH@Z
pdata	ENDS
;	COMDAT pdata
pdata	SEGMENT
$pdata$??$_Get_unwrapped@AEBQEA_K@std@@YA?A_TAEBQEA_K@Z DD imagerel $LN3
	DD	imagerel $LN3+16
	DD	imagerel $unwind$??$_Get_unwrapped@AEBQEA_K@std@@YA?A_TAEBQEA_K@Z
pdata	ENDS
;	COMDAT pdata
pdata	SEGMENT
$pdata$??$move@AEA_K@std@@YA$$QEA_KAEA_K@Z DD imagerel $LN3
	DD	imagerel $LN3+13
	DD	imagerel $unwind$??$move@AEA_K@std@@YA$$QEA_KAEA_K@Z
pdata	ENDS
;	COMDAT pdata
pdata	SEGMENT
$pdata$??$_Copy_memmove@PEA_KPEA_K@std@@YAPEA_KPEA_K00@Z DD imagerel $LN3
	DD	imagerel $LN3+161
	DD	imagerel $unwind$??$_Copy_memmove@PEA_KPEA_K@std@@YAPEA_KPEA_K00@Z
pdata	ENDS
;	COMDAT pdata
pdata	SEGMENT
$pdata$??$_Emplace_back@_K@?$_Uninitialized_backout_al@V?$allocator@_K@std@@@std@@QEAAX$$QEA_K@Z DD imagerel $LN3
	DD	imagerel $LN3+97
	DD	imagerel $unwind$??$_Emplace_back@_K@?$_Uninitialized_backout_al@V?$allocator@_K@std@@@std@@QEAAX$$QEA_K@Z
pdata	ENDS
;	COMDAT pdata
pdata	SEGMENT
$pdata$??$_To_address@PEA_K@std@@YA?A_PAEBQEA_K@Z DD imagerel $LN3
	DD	imagerel $LN3+16
	DD	imagerel $unwind$??$_To_address@PEA_K@std@@YA?A_PAEBQEA_K@Z
pdata	ENDS
;	COMDAT pdata
pdata	SEGMENT
$pdata$??$construct@_K$$V@?$_Default_allocator_traits@V?$allocator@_K@std@@@std@@SAXAEAV?$allocator@_K@1@QEA_K@Z DD imagerel $LN3
	DD	imagerel $LN3+72
	DD	imagerel $unwind$??$construct@_K$$V@?$_Default_allocator_traits@V?$allocator@_K@std@@@std@@SAXAEAV?$allocator@_K@1@QEA_K@Z
pdata	ENDS
;	COMDAT pdata
pdata	SEGMENT
$pdata$??$_Get_unwrapped@AEBQEAI@std@@YA?A_TAEBQEAI@Z DD imagerel $LN3
	DD	imagerel $LN3+16
	DD	imagerel $unwind$??$_Get_unwrapped@AEBQEAI@std@@YA?A_TAEBQEAI@Z
pdata	ENDS
;	COMDAT pdata
pdata	SEGMENT
$pdata$??$move@AEAI@std@@YA$$QEAIAEAI@Z DD imagerel $LN3
	DD	imagerel $LN3+13
	DD	imagerel $unwind$??$move@AEAI@std@@YA$$QEAIAEAI@Z
pdata	ENDS
;	COMDAT pdata
pdata	SEGMENT
$pdata$??$_Copy_memmove@PEAIPEAI@std@@YAPEAIPEAI00@Z DD imagerel $LN3
	DD	imagerel $LN3+161
	DD	imagerel $unwind$??$_Copy_memmove@PEAIPEAI@std@@YAPEAIPEAI00@Z
pdata	ENDS
;	COMDAT pdata
pdata	SEGMENT
$pdata$??$_Emplace_back@I@?$_Uninitialized_backout_al@V?$allocator@I@std@@@std@@QEAAX$$QEAI@Z DD imagerel $LN3
	DD	imagerel $LN3+97
	DD	imagerel $unwind$??$_Emplace_back@I@?$_Uninitialized_backout_al@V?$allocator@I@std@@@std@@QEAAX$$QEAI@Z
pdata	ENDS
;	COMDAT pdata
pdata	SEGMENT
$pdata$??$_To_address@PEAI@std@@YA?A_PAEBQEAI@Z DD imagerel $LN3
	DD	imagerel $LN3+16
	DD	imagerel $unwind$??$_To_address@PEAI@std@@YA?A_PAEBQEAI@Z
pdata	ENDS
;	COMDAT pdata
pdata	SEGMENT
$pdata$??$construct@I$$V@?$_Default_allocator_traits@V?$allocator@I@std@@@std@@SAXAEAV?$allocator@I@1@QEAI@Z DD imagerel $LN3
	DD	imagerel $LN3+72
	DD	imagerel $unwind$??$construct@I$$V@?$_Default_allocator_traits@V?$allocator@I@std@@@std@@SAXAEAV?$allocator@I@1@QEAI@Z
pdata	ENDS
;	COMDAT pdata
pdata	SEGMENT
$pdata$?call@?$compute_vec4_and@I$0A@$0?0$0CA@$0A@@detail@glm@@SA?AU?$tvec4@I$0A@@3@AEBU43@0@Z DD imagerel $LN3
	DD	imagerel $LN3+137
	DD	imagerel $unwind$?call@?$compute_vec4_and@I$0A@$0?0$0CA@$0A@@detail@glm@@SA?AU?$tvec4@I$0A@@3@AEBU43@0@Z
pdata	ENDS
;	COMDAT pdata
pdata	SEGMENT
$pdata$?call@?$compute_vec4_shift_right@I$0A@$0?0$0CA@$0A@@detail@glm@@SA?AU?$tvec4@I$0A@@3@AEBU43@0@Z DD imagerel $LN3
	DD	imagerel $LN3+166
	DD	imagerel $unwind$?call@?$compute_vec4_shift_right@I$0A@$0?0$0CA@$0A@@detail@glm@@SA?AU?$tvec4@I$0A@@3@AEBU43@0@Z
pdata	ENDS
;	COMDAT pdata
pdata	SEGMENT
$pdata$?call@?$compute_vec4_add@I$0A@$0A@@detail@glm@@SA?AU?$tvec4@I$0A@@3@AEBU43@0@Z DD imagerel $LN3
	DD	imagerel $LN3+127
	DD	imagerel $unwind$?call@?$compute_vec4_add@I$0A@$0A@@detail@glm@@SA?AU?$tvec4@I$0A@@3@AEBU43@0@Z
pdata	ENDS
;	COMDAT pdata
pdata	SEGMENT
$pdata$??$_To_address@PEAU?$tvec4@H$0A@@glm@@@std@@YA?A_PAEBQEAU?$tvec4@H$0A@@glm@@@Z DD imagerel $LN3
	DD	imagerel $LN3+16
	DD	imagerel $unwind$??$_To_address@PEAU?$tvec4@H$0A@@glm@@@std@@YA?A_PAEBQEAU?$tvec4@H$0A@@glm@@@Z
pdata	ENDS
;	COMDAT pdata
pdata	SEGMENT
$pdata$??$forward@U?$tvec4@H$0A@@glm@@@std@@YA$$QEAU?$tvec4@H$0A@@glm@@AEAU12@@Z DD imagerel $LN3
	DD	imagerel $LN3+13
	DD	imagerel $unwind$??$forward@U?$tvec4@H$0A@@glm@@@std@@YA$$QEAU?$tvec4@H$0A@@glm@@AEAU12@@Z
pdata	ENDS
;	COMDAT pdata
pdata	SEGMENT
$pdata$??$construct@U?$tvec4@H$0A@@glm@@U12@@?$_Default_allocator_traits@V?$allocator@U?$tvec4@H$0A@@glm@@@std@@@std@@SAXAEAV?$allocator@U?$tvec4@H$0A@@glm@@@1@QEAU?$tvec4@H$0A@@glm@@$$QEAU34@@Z DD imagerel $LN3
	DD	imagerel $LN3+81
	DD	imagerel $unwind$??$construct@U?$tvec4@H$0A@@glm@@U12@@?$_Default_allocator_traits@V?$allocator@U?$tvec4@H$0A@@glm@@@std@@@std@@SAXAEAV?$allocator@U?$tvec4@H$0A@@glm@@@1@QEAU?$tvec4@H$0A@@glm@@$$QEAU34@@Z
pdata	ENDS
;	COMDAT pdata
pdata	SEGMENT
$pdata$??$_Voidify_iter@PEAU?$tvec4@H$0A@@glm@@@std@@YAPEAXPEAU?$tvec4@H$0A@@glm@@@Z DD imagerel $LN3
	DD	imagerel $LN3+13
	DD	imagerel $unwind$??$_Voidify_iter@PEAU?$tvec4@H$0A@@glm@@@std@@YAPEAXPEAU?$tvec4@H$0A@@glm@@@Z
pdata	ENDS
;	COMDAT pdata
pdata	SEGMENT
$pdata$??$forward@H@std@@YA$$QEAHAEAH@Z DD imagerel $LN3
	DD	imagerel $LN3+13
	DD	imagerel $unwind$??$forward@H@std@@YA$$QEAHAEAH@Z
pdata	ENDS
;	COMDAT pdata
pdata	SEGMENT
$pdata$??$construct@HH@?$_Default_allocator_traits@V?$allocator@H@std@@@std@@SAXAEAV?$allocator@H@1@QEAH$$QEAH@Z DD imagerel $LN3
	DD	imagerel $LN3+73
	DD	imagerel $unwind$??$construct@HH@?$_Default_allocator_traits@V?$allocator@H@std@@@std@@SAXAEAV?$allocator@H@1@QEAH$$QEAH@Z
pdata	ENDS
;	COMDAT pdata
pdata	SEGMENT
$pdata$??$_Voidify_iter@PEAH@std@@YAPEAXPEAH@Z DD imagerel $LN3
	DD	imagerel $LN3+13
	DD	imagerel $unwind$??$_Voidify_iter@PEAH@std@@YAPEAXPEAH@Z
pdata	ENDS
;	COMDAT pdata
pdata	SEGMENT
$pdata$??$forward@_K@std@@YA$$QEA_KAEA_K@Z DD imagerel $LN3
	DD	imagerel $LN3+13
	DD	imagerel $unwind$??$forward@_K@std@@YA$$QEA_KAEA_K@Z
pdata	ENDS
;	COMDAT pdata
pdata	SEGMENT
$pdata$??$construct@_K_K@?$_Default_allocator_traits@V?$allocator@_K@std@@@std@@SAXAEAV?$allocator@_K@1@QEA_K$$QEA_K@Z DD imagerel $LN3
	DD	imagerel $LN3+75
	DD	imagerel $unwind$??$construct@_K_K@?$_Default_allocator_traits@V?$allocator@_K@std@@@std@@SAXAEAV?$allocator@_K@1@QEA_K$$QEA_K@Z
pdata	ENDS
;	COMDAT pdata
pdata	SEGMENT
$pdata$??$_Voidify_iter@PEA_K@std@@YAPEAXPEA_K@Z DD imagerel $LN3
	DD	imagerel $LN3+13
	DD	imagerel $unwind$??$_Voidify_iter@PEA_K@std@@YAPEAXPEA_K@Z
pdata	ENDS
;	COMDAT pdata
pdata	SEGMENT
$pdata$??$forward@I@std@@YA$$QEAIAEAI@Z DD imagerel $LN3
	DD	imagerel $LN3+13
	DD	imagerel $unwind$??$forward@I@std@@YA$$QEAIAEAI@Z
pdata	ENDS
;	COMDAT pdata
pdata	SEGMENT
$pdata$??$construct@II@?$_Default_allocator_traits@V?$allocator@I@std@@@std@@SAXAEAV?$allocator@I@1@QEAI$$QEAI@Z DD imagerel $LN3
	DD	imagerel $LN3+73
	DD	imagerel $unwind$??$construct@II@?$_Default_allocator_traits@V?$allocator@I@std@@@std@@SAXAEAV?$allocator@I@1@QEAI$$QEAI@Z
pdata	ENDS
;	COMDAT pdata
pdata	SEGMENT
$pdata$??$_Voidify_iter@PEAI@std@@YAPEAXPEAI@Z DD imagerel $LN3
	DD	imagerel $LN3+13
	DD	imagerel $unwind$??$_Voidify_iter@PEAI@std@@YAPEAXPEAI@Z
pdata	ENDS
;	COMDAT rtc$TMZ
rtc$TMZ	SEGMENT
_RTC_Shutdown.rtc$TMZ DQ FLAT:_RTC_Shutdown
rtc$TMZ	ENDS
;	COMDAT rtc$IMZ
rtc$IMZ	SEGMENT
_RTC_InitBase.rtc$IMZ DQ FLAT:_RTC_InitBase
rtc$IMZ	ENDS
;	COMDAT ??_R1A@?0A@EA@bad_array_new_length@std@@8
rdata$r	SEGMENT
??_R1A@?0A@EA@bad_array_new_length@std@@8 DD imagerel ??_R0?AVbad_array_new_length@std@@@8 ; std::bad_array_new_length::`RTTI Base Class Descriptor at (0,-1,0,64)'
	DD	02H
	DD	00H
	DD	0ffffffffH
	DD	00H
	DD	040H
	DD	imagerel ??_R3bad_array_new_length@std@@8
rdata$r	ENDS
;	COMDAT ??_R2bad_array_new_length@std@@8
rdata$r	SEGMENT
??_R2bad_array_new_length@std@@8 DD imagerel ??_R1A@?0A@EA@bad_array_new_length@std@@8 ; std::bad_array_new_length::`RTTI Base Class Array'
	DD	imagerel ??_R1A@?0A@EA@bad_alloc@std@@8
	DD	imagerel ??_R1A@?0A@EA@exception@std@@8
	ORG $+3
rdata$r	ENDS
;	COMDAT ??_R3bad_array_new_length@std@@8
rdata$r	SEGMENT
??_R3bad_array_new_length@std@@8 DD 00H			; std::bad_array_new_length::`RTTI Class Hierarchy Descriptor'
	DD	00H
	DD	03H
	DD	imagerel ??_R2bad_array_new_length@std@@8
rdata$r	ENDS
;	COMDAT ??_R4bad_array_new_length@std@@6B@
rdata$r	SEGMENT
??_R4bad_array_new_length@std@@6B@ DD 01H		; std::bad_array_new_length::`RTTI Complete Object Locator'
	DD	00H
	DD	00H
	DD	imagerel ??_R0?AVbad_array_new_length@std@@@8
	DD	imagerel ??_R3bad_array_new_length@std@@8
	DD	imagerel ??_R4bad_array_new_length@std@@6B@
rdata$r	ENDS
;	COMDAT ??_R1A@?0A@EA@bad_alloc@std@@8
rdata$r	SEGMENT
??_R1A@?0A@EA@bad_alloc@std@@8 DD imagerel ??_R0?AVbad_alloc@std@@@8 ; std::bad_alloc::`RTTI Base Class Descriptor at (0,-1,0,64)'
	DD	01H
	DD	00H
	DD	0ffffffffH
	DD	00H
	DD	040H
	DD	imagerel ??_R3bad_alloc@std@@8
rdata$r	ENDS
;	COMDAT ??_R2bad_alloc@std@@8
rdata$r	SEGMENT
??_R2bad_alloc@std@@8 DD imagerel ??_R1A@?0A@EA@bad_alloc@std@@8 ; std::bad_alloc::`RTTI Base Class Array'
	DD	imagerel ??_R1A@?0A@EA@exception@std@@8
	ORG $+3
rdata$r	ENDS
;	COMDAT ??_R3bad_alloc@std@@8
rdata$r	SEGMENT
??_R3bad_alloc@std@@8 DD 00H				; std::bad_alloc::`RTTI Class Hierarchy Descriptor'
	DD	00H
	DD	02H
	DD	imagerel ??_R2bad_alloc@std@@8
rdata$r	ENDS
;	COMDAT ??_R4bad_alloc@std@@6B@
rdata$r	SEGMENT
??_R4bad_alloc@std@@6B@ DD 01H				; std::bad_alloc::`RTTI Complete Object Locator'
	DD	00H
	DD	00H
	DD	imagerel ??_R0?AVbad_alloc@std@@@8
	DD	imagerel ??_R3bad_alloc@std@@8
	DD	imagerel ??_R4bad_alloc@std@@6B@
rdata$r	ENDS
;	COMDAT ??_R1A@?0A@EA@exception@std@@8
rdata$r	SEGMENT
??_R1A@?0A@EA@exception@std@@8 DD imagerel ??_R0?AVexception@std@@@8 ; std::exception::`RTTI Base Class Descriptor at (0,-1,0,64)'
	DD	00H
	DD	00H
	DD	0ffffffffH
	DD	00H
	DD	040H
	DD	imagerel ??_R3exception@std@@8
rdata$r	ENDS
;	COMDAT ??_R2exception@std@@8
rdata$r	SEGMENT
??_R2exception@std@@8 DD imagerel ??_R1A@?0A@EA@exception@std@@8 ; std::exception::`RTTI Base Class Array'
	ORG $+3
rdata$r	ENDS
;	COMDAT ??_R3exception@std@@8
rdata$r	SEGMENT
??_R3exception@std@@8 DD 00H				; std::exception::`RTTI Class Hierarchy Descriptor'
	DD	00H
	DD	01H
	DD	imagerel ??_R2exception@std@@8
rdata$r	ENDS
;	COMDAT ??_R4exception@std@@6B@
rdata$r	SEGMENT
??_R4exception@std@@6B@ DD 01H				; std::exception::`RTTI Complete Object Locator'
	DD	00H
	DD	00H
	DD	imagerel ??_R0?AVexception@std@@@8
	DD	imagerel ??_R3exception@std@@8
	DD	imagerel ??_R4exception@std@@6B@
rdata$r	ENDS
;	COMDAT ??_C@_0BA@FOIKENOD@vector?5too?5long@
CONST	SEGMENT
??_C@_0BA@FOIKENOD@vector?5too?5long@ DB 'vector too long', 00H ; `string'
CONST	ENDS
;	COMDAT ??_C@_1LG@MEJFBKPC@?$AAC?$AA?3?$AA?2?$AAU?$AAs?$AAe?$AAr?$AAs?$AA?2?$AAk?$AAs?$AAa?$AAr?$AAt?$AA?2@
CONST	SEGMENT
??_C@_1LG@MEJFBKPC@?$AAC?$AA?3?$AA?2?$AAU?$AAs?$AAe?$AAr?$AAs?$AA?2?$AAk?$AAs?$AAa?$AAr?$AAt?$AA?2@ DB 'C'
	DB	00H, ':', 00H, '\', 00H, 'U', 00H, 's', 00H, 'e', 00H, 'r', 00H
	DB	's', 00H, '\', 00H, 'k', 00H, 's', 00H, 'a', 00H, 'r', 00H, 't'
	DB	00H, '\', 00H, 'O', 00H, 'n', 00H, 'e', 00H, 'D', 00H, 'r', 00H
	DB	'i', 00H, 'v', 00H, 'e', 00H, '\', 00H, 'D', 00H, 'e', 00H, 's'
	DB	00H, 'k', 00H, 't', 00H, 'o', 00H, 'p', 00H, '\', 00H, 'F', 00H
	DB	'l', 00H, 'a', 00H, 'p', 00H, 'p', 00H, 'y', 00H, 'B', 00H, 'i'
	DB	00H, 'r', 00H, 'd', 00H, '\', 00H, 'l', 00H, 'i', 00H, 'b', 00H
	DB	'r', 00H, 'a', 00H, 'r', 00H, 'i', 00H, 'e', 00H, 's', 00H, '\'
	DB	00H, 'e', 00H, 'x', 00H, 't', 00H, 'e', 00H, 'r', 00H, 'n', 00H
	DB	'a', 00H, 'l', 00H, '\', 00H, 'g', 00H, 'l', 00H, 'm', 00H, '\'
	DB	00H, 'g', 00H, 'l', 00H, 'm', 00H, '\', 00H, 'd', 00H, 'e', 00H
	DB	't', 00H, 'a', 00H, 'i', 00H, 'l', 00H, '\', 00H, 't', 00H, 'y'
	DB	00H, 'p', 00H, 'e', 00H, '_', 00H, 'v', 00H, 'e', 00H, 'c', 00H
	DB	'3', 00H, '.', 00H, 'i', 00H, 'n', 00H, 'l', 00H, 00H, 00H ; `string'
CONST	ENDS
;	COMDAT ??_C@_1LG@CIKOIEGN@?$AAC?$AA?3?$AA?2?$AAU?$AAs?$AAe?$AAr?$AAs?$AA?2?$AAk?$AAs?$AAa?$AAr?$AAt?$AA?2@
CONST	SEGMENT
??_C@_1LG@CIKOIEGN@?$AAC?$AA?3?$AA?2?$AAU?$AAs?$AAe?$AAr?$AAs?$AA?2?$AAk?$AAs?$AAa?$AAr?$AAt?$AA?2@ DB 'C'
	DB	00H, ':', 00H, '\', 00H, 'U', 00H, 's', 00H, 'e', 00H, 'r', 00H
	DB	's', 00H, '\', 00H, 'k', 00H, 's', 00H, 'a', 00H, 'r', 00H, 't'
	DB	00H, '\', 00H, 'O', 00H, 'n', 00H, 'e', 00H, 'D', 00H, 'r', 00H
	DB	'i', 00H, 'v', 00H, 'e', 00H, '\', 00H, 'D', 00H, 'e', 00H, 's'
	DB	00H, 'k', 00H, 't', 00H, 'o', 00H, 'p', 00H, '\', 00H, 'F', 00H
	DB	'l', 00H, 'a', 00H, 'p', 00H, 'p', 00H, 'y', 00H, 'B', 00H, 'i'
	DB	00H, 'r', 00H, 'd', 00H, '\', 00H, 'l', 00H, 'i', 00H, 'b', 00H
	DB	'r', 00H, 'a', 00H, 'r', 00H, 'i', 00H, 'e', 00H, 's', 00H, '\'
	DB	00H, 'e', 00H, 'x', 00H, 't', 00H, 'e', 00H, 'r', 00H, 'n', 00H
	DB	'a', 00H, 'l', 00H, '\', 00H, 'g', 00H, 'l', 00H, 'm', 00H, '\'
	DB	00H, 'g', 00H, 'l', 00H, 'm', 00H, '\', 00H, 'd', 00H, 'e', 00H
	DB	't', 00H, 'a', 00H, 'i', 00H, 'l', 00H, '\', 00H, 't', 00H, 'y'
	DB	00H, 'p', 00H, 'e', 00H, '_', 00H, 'v', 00H, 'e', 00H, 'c', 00H
	DB	'1', 00H, '.', 00H, 'i', 00H, 'n', 00H, 'l', 00H, 00H, 00H ; `string'
CONST	ENDS
;	COMDAT ??_C@_1DC@HHLCGOLC@?$AAx?$AA?4?$AAl?$AAe?$AAn?$AAg?$AAt?$AAh?$AA?$CI?$AA?$CJ?$AA?5?$AA?$DN?$AA?$DN?$AA?5?$AAy@
CONST	SEGMENT
??_C@_1DC@HHLCGOLC@?$AAx?$AA?4?$AAl?$AAe?$AAn?$AAg?$AAt?$AAh?$AA?$CI?$AA?$CJ?$AA?5?$AA?$DN?$AA?$DN?$AA?5?$AAy@ DB 'x'
	DB	00H, '.', 00H, 'l', 00H, 'e', 00H, 'n', 00H, 'g', 00H, 't', 00H
	DB	'h', 00H, '(', 00H, ')', 00H, ' ', 00H, '=', 00H, '=', 00H, ' '
	DB	00H, 'y', 00H, '.', 00H, 'l', 00H, 'e', 00H, 'n', 00H, 'g', 00H
	DB	't', 00H, 'h', 00H, '(', 00H, ')', 00H, 00H, 00H ; `string'
CONST	ENDS
;	COMDAT ??_C@_1NA@OPABFNEN@?$AAC?$AA?3?$AA?2?$AAU?$AAs?$AAe?$AAr?$AAs?$AA?2?$AAk?$AAs?$AAa?$AAr?$AAt?$AA?2@
CONST	SEGMENT
??_C@_1NA@OPABFNEN@?$AAC?$AA?3?$AA?2?$AAU?$AAs?$AAe?$AAr?$AAs?$AA?2?$AAk?$AAs?$AAa?$AAr?$AAt?$AA?2@ DB 'C'
	DB	00H, ':', 00H, '\', 00H, 'U', 00H, 's', 00H, 'e', 00H, 'r', 00H
	DB	's', 00H, '\', 00H, 'k', 00H, 's', 00H, 'a', 00H, 'r', 00H, 't'
	DB	00H, '\', 00H, 'O', 00H, 'n', 00H, 'e', 00H, 'D', 00H, 'r', 00H
	DB	'i', 00H, 'v', 00H, 'e', 00H, '\', 00H, 'D', 00H, 'e', 00H, 's'
	DB	00H, 'k', 00H, 't', 00H, 'o', 00H, 'p', 00H, '\', 00H, 'F', 00H
	DB	'l', 00H, 'a', 00H, 'p', 00H, 'p', 00H, 'y', 00H, 'B', 00H, 'i'
	DB	00H, 'r', 00H, 'd', 00H, '\', 00H, 'l', 00H, 'i', 00H, 'b', 00H
	DB	'r', 00H, 'a', 00H, 'r', 00H, 'i', 00H, 'e', 00H, 's', 00H, '\'
	DB	00H, 'e', 00H, 'x', 00H, 't', 00H, 'e', 00H, 'r', 00H, 'n', 00H
	DB	'a', 00H, 'l', 00H, '\', 00H, 'g', 00H, 'l', 00H, 'm', 00H, '\'
	DB	00H, 'g', 00H, 'l', 00H, 'm', 00H, '\', 00H, 'd', 00H, 'e', 00H
	DB	't', 00H, 'a', 00H, 'i', 00H, 'l', 00H, '\', 00H, 'f', 00H, 'u'
	DB	00H, 'n', 00H, 'c', 00H, '_', 00H, 'v', 00H, 'e', 00H, 'c', 00H
	DB	't', 00H, 'o', 00H, 'r', 00H, '_', 00H, 'r', 00H, 'e', 00H, 'l'
	DB	00H, 'a', 00H, 't', 00H, 'i', 00H, 'o', 00H, 'n', 00H, 'a', 00H
	DB	'l', 00H, '.', 00H, 'i', 00H, 'n', 00H, 'l', 00H, 00H, 00H ; `string'
CONST	ENDS
;	COMDAT ??_C@_1DA@PHCGLBFJ@?$AAM?$AAo?$AAs?$AAt?$AAS?$AAi?$AAg?$AAn?$AAi?$AAf?$AAi?$AAc?$AAa?$AAn?$AAt@
CONST	SEGMENT
??_C@_1DA@PHCGLBFJ@?$AAM?$AAo?$AAs?$AAt?$AAS?$AAi?$AAg?$AAn?$AAi?$AAf?$AAi?$AAc?$AAa?$AAn?$AAt@ DB 'M'
	DB	00H, 'o', 00H, 's', 00H, 't', 00H, 'S', 00H, 'i', 00H, 'g', 00H
	DB	'n', 00H, 'i', 00H, 'f', 00H, 'i', 00H, 'c', 00H, 'a', 00H, 'n'
	DB	00H, 't', 00H, 'B', 00H, 'i', 00H, 't', 00H, ' ', 00H, '>', 00H
	DB	'=', 00H, ' ', 00H, '0', 00H, 00H, 00H	; `string'
CONST	ENDS
;	COMDAT ??_C@_1ME@EGLCKJKB@?$AAC?$AA?3?$AA?2?$AAU?$AAs?$AAe?$AAr?$AAs?$AA?2?$AAk?$AAs?$AAa?$AAr?$AAt?$AA?2@
CONST	SEGMENT
??_C@_1ME@EGLCKJKB@?$AAC?$AA?3?$AA?2?$AAU?$AAs?$AAe?$AAr?$AAs?$AA?2?$AAk?$AAs?$AAa?$AAr?$AAt?$AA?2@ DB 'C'
	DB	00H, ':', 00H, '\', 00H, 'U', 00H, 's', 00H, 'e', 00H, 'r', 00H
	DB	's', 00H, '\', 00H, 'k', 00H, 's', 00H, 'a', 00H, 'r', 00H, 't'
	DB	00H, '\', 00H, 'O', 00H, 'n', 00H, 'e', 00H, 'D', 00H, 'r', 00H
	DB	'i', 00H, 'v', 00H, 'e', 00H, '\', 00H, 'D', 00H, 'e', 00H, 's'
	DB	00H, 'k', 00H, 't', 00H, 'o', 00H, 'p', 00H, '\', 00H, 'F', 00H
	DB	'l', 00H, 'a', 00H, 'p', 00H, 'p', 00H, 'y', 00H, 'B', 00H, 'i'
	DB	00H, 'r', 00H, 'd', 00H, '\', 00H, 'l', 00H, 'i', 00H, 'b', 00H
	DB	'r', 00H, 'a', 00H, 'r', 00H, 'i', 00H, 'e', 00H, 's', 00H, '\'
	DB	00H, 'e', 00H, 'x', 00H, 't', 00H, 'e', 00H, 'r', 00H, 'n', 00H
	DB	'a', 00H, 'l', 00H, '\', 00H, 'g', 00H, 'l', 00H, 'm', 00H, '\'
	DB	00H, 't', 00H, 'e', 00H, 's', 00H, 't', 00H, '\', 00H, 'c', 00H
	DB	'o', 00H, 'r', 00H, 'e', 00H, '\', 00H, 'c', 00H, 'o', 00H, 'r'
	DB	00H, 'e', 00H, '_', 00H, 'f', 00H, 'u', 00H, 'n', 00H, 'c', 00H
	DB	'_', 00H, 'i', 00H, 'n', 00H, 't', 00H, 'e', 00H, 'g', 00H, 'e'
	DB	00H, 'r', 00H, '.', 00H, 'c', 00H, 'p', 00H, 'p', 00H, 00H, 00H ; `string'
CONST	ENDS
;	COMDAT ??_C@_1LG@LAANPDHN@?$AAC?$AA?3?$AA?2?$AAU?$AAs?$AAe?$AAr?$AAs?$AA?2?$AAk?$AAs?$AAa?$AAr?$AAt?$AA?2@
CONST	SEGMENT
??_C@_1LG@LAANPDHN@?$AAC?$AA?3?$AA?2?$AAU?$AAs?$AAe?$AAr?$AAs?$AA?2?$AAk?$AAs?$AAa?$AAr?$AAt?$AA?2@ DB 'C'
	DB	00H, ':', 00H, '\', 00H, 'U', 00H, 's', 00H, 'e', 00H, 'r', 00H
	DB	's', 00H, '\', 00H, 'k', 00H, 's', 00H, 'a', 00H, 'r', 00H, 't'
	DB	00H, '\', 00H, 'O', 00H, 'n', 00H, 'e', 00H, 'D', 00H, 'r', 00H
	DB	'i', 00H, 'v', 00H, 'e', 00H, '\', 00H, 'D', 00H, 'e', 00H, 's'
	DB	00H, 'k', 00H, 't', 00H, 'o', 00H, 'p', 00H, '\', 00H, 'F', 00H
	DB	'l', 00H, 'a', 00H, 'p', 00H, 'p', 00H, 'y', 00H, 'B', 00H, 'i'
	DB	00H, 'r', 00H, 'd', 00H, '\', 00H, 'l', 00H, 'i', 00H, 'b', 00H
	DB	'r', 00H, 'a', 00H, 'r', 00H, 'i', 00H, 'e', 00H, 's', 00H, '\'
	DB	00H, 'e', 00H, 'x', 00H, 't', 00H, 'e', 00H, 'r', 00H, 'n', 00H
	DB	'a', 00H, 'l', 00H, '\', 00H, 'g', 00H, 'l', 00H, 'm', 00H, '\'
	DB	00H, 'g', 00H, 'l', 00H, 'm', 00H, '\', 00H, 'd', 00H, 'e', 00H
	DB	't', 00H, 'a', 00H, 'i', 00H, 'l', 00H, '\', 00H, 't', 00H, 'y'
	DB	00H, 'p', 00H, 'e', 00H, '_', 00H, 'v', 00H, 'e', 00H, 'c', 00H
	DB	'4', 00H, '.', 00H, 'i', 00H, 'n', 00H, 'l', 00H, 00H, 00H ; `string'
CONST	ENDS
;	COMDAT ??_C@_1DK@BGNCJAPL@?$AAi?$AA?5?$AA?$DO?$AA?$DN?$AA?5?$AA0?$AA?5?$AA?$CG?$AA?$CG?$AA?5?$AAi?$AA?5?$AA?$DM?$AA?5?$AAt@
CONST	SEGMENT
??_C@_1DK@BGNCJAPL@?$AAi?$AA?5?$AA?$DO?$AA?$DN?$AA?5?$AA0?$AA?5?$AA?$CG?$AA?$CG?$AA?5?$AAi?$AA?5?$AA?$DM?$AA?5?$AAt@ DB 'i'
	DB	00H, ' ', 00H, '>', 00H, '=', 00H, ' ', 00H, '0', 00H, ' ', 00H
	DB	'&', 00H, '&', 00H, ' ', 00H, 'i', 00H, ' ', 00H, '<', 00H, ' '
	DB	00H, 't', 00H, 'h', 00H, 'i', 00H, 's', 00H, '-', 00H, '>', 00H
	DB	'l', 00H, 'e', 00H, 'n', 00H, 'g', 00H, 't', 00H, 'h', 00H, '('
	DB	00H, ')', 00H, 00H, 00H			; `string'
CONST	ENDS
;	COMDAT ??_C@_1LG@FPDAFGJN@?$AAC?$AA?3?$AA?2?$AAU?$AAs?$AAe?$AAr?$AAs?$AA?2?$AAk?$AAs?$AAa?$AAr?$AAt?$AA?2@
CONST	SEGMENT
??_C@_1LG@FPDAFGJN@?$AAC?$AA?3?$AA?2?$AAU?$AAs?$AAe?$AAr?$AAs?$AA?2?$AAk?$AAs?$AAa?$AAr?$AAt?$AA?2@ DB 'C'
	DB	00H, ':', 00H, '\', 00H, 'U', 00H, 's', 00H, 'e', 00H, 'r', 00H
	DB	's', 00H, '\', 00H, 'k', 00H, 's', 00H, 'a', 00H, 'r', 00H, 't'
	DB	00H, '\', 00H, 'O', 00H, 'n', 00H, 'e', 00H, 'D', 00H, 'r', 00H
	DB	'i', 00H, 'v', 00H, 'e', 00H, '\', 00H, 'D', 00H, 'e', 00H, 's'
	DB	00H, 'k', 00H, 't', 00H, 'o', 00H, 'p', 00H, '\', 00H, 'F', 00H
	DB	'l', 00H, 'a', 00H, 'p', 00H, 'p', 00H, 'y', 00H, 'B', 00H, 'i'
	DB	00H, 'r', 00H, 'd', 00H, '\', 00H, 'l', 00H, 'i', 00H, 'b', 00H
	DB	'r', 00H, 'a', 00H, 'r', 00H, 'i', 00H, 'e', 00H, 's', 00H, '\'
	DB	00H, 'e', 00H, 'x', 00H, 't', 00H, 'e', 00H, 'r', 00H, 'n', 00H
	DB	'a', 00H, 'l', 00H, '\', 00H, 'g', 00H, 'l', 00H, 'm', 00H, '\'
	DB	00H, 'g', 00H, 'l', 00H, 'm', 00H, '\', 00H, 'd', 00H, 'e', 00H
	DB	't', 00H, 'a', 00H, 'i', 00H, 'l', 00H, '\', 00H, 't', 00H, 'y'
	DB	00H, 'p', 00H, 'e', 00H, '_', 00H, 'v', 00H, 'e', 00H, 'c', 00H
	DB	'2', 00H, '.', 00H, 'i', 00H, 'n', 00H, 'l', 00H, 00H, 00H ; `string'
CONST	ENDS
;	COMDAT ??_C@_1HA@FACCKGGH@?$AA?$CC?$AAn?$AAu?$AAl?$AAl?$AA?5?$AAp?$AAo?$AAi?$AAn?$AAt?$AAe?$AAr?$AA?5?$AAc@
CONST	SEGMENT
??_C@_1HA@FACCKGGH@?$AA?$CC?$AAn?$AAu?$AAl?$AAl?$AA?5?$AAp?$AAo?$AAi?$AAn?$AAt?$AAe?$AAr?$AA?5?$AAc@ DB '"'
	DB	00H, 'n', 00H, 'u', 00H, 'l', 00H, 'l', 00H, ' ', 00H, 'p', 00H
	DB	'o', 00H, 'i', 00H, 'n', 00H, 't', 00H, 'e', 00H, 'r', 00H, ' '
	DB	00H, 'c', 00H, 'a', 00H, 'n', 00H, 'n', 00H, 'o', 00H, 't', 00H
	DB	' ', 00H, 'p', 00H, 'o', 00H, 'i', 00H, 'n', 00H, 't', 00H, ' '
	DB	00H, 't', 00H, 'o', 00H, ' ', 00H, 'a', 00H, ' ', 00H, 'b', 00H
	DB	'l', 00H, 'o', 00H, 'c', 00H, 'k', 00H, ' ', 00H, 'o', 00H, 'f'
	DB	00H, ' ', 00H, 'n', 00H, 'o', 00H, 'n', 00H, '-', 00H, 'z', 00H
	DB	'e', 00H, 'r', 00H, 'o', 00H, ' ', 00H, 's', 00H, 'i', 00H, 'z'
	DB	00H, 'e', 00H, '"', 00H, 00H, 00H		; `string'
CONST	ENDS
;	COMDAT ??_C@_0DG@KGHKKGBC@null?5pointer?5cannot?5point?5to?5a?5@
CONST	SEGMENT
??_C@_0DG@KGHKKGBC@null?5pointer?5cannot?5point?5to?5a?5@ DB 'null pointe'
	DB	'r cannot point to a block of non-zero size', 00H ; `string'
CONST	ENDS
;	COMDAT ??_C@_1EA@LEKOKFNB@?$AA?$CC?$AAv?$AAe?$AAc?$AAt?$AAo?$AAr?$AA?5?$AAs?$AAu?$AAb?$AAs?$AAc?$AAr?$AAi@
CONST	SEGMENT
??_C@_1EA@LEKOKFNB@?$AA?$CC?$AAv?$AAe?$AAc?$AAt?$AAo?$AAr?$AA?5?$AAs?$AAu?$AAb?$AAs?$AAc?$AAr?$AAi@ DB '"'
	DB	00H, 'v', 00H, 'e', 00H, 'c', 00H, 't', 00H, 'o', 00H, 'r', 00H
	DB	' ', 00H, 's', 00H, 'u', 00H, 'b', 00H, 's', 00H, 'c', 00H, 'r'
	DB	00H, 'i', 00H, 'p', 00H, 't', 00H, ' ', 00H, 'o', 00H, 'u', 00H
	DB	't', 00H, ' ', 00H, 'o', 00H, 'f', 00H, ' ', 00H, 'r', 00H, 'a'
	DB	00H, 'n', 00H, 'g', 00H, 'e', 00H, '"', 00H, 00H, 00H ; `string'
CONST	ENDS
;	COMDAT ??_C@_1MC@BJDJHFOD@?$AAC?$AA?3?$AA?2?$AAP?$AAr?$AAo?$AAg?$AAr?$AAa?$AAm?$AA?5?$AAF?$AAi?$AAl?$AAe@
CONST	SEGMENT
??_C@_1MC@BJDJHFOD@?$AAC?$AA?3?$AA?2?$AAP?$AAr?$AAo?$AAg?$AAr?$AAa?$AAm?$AA?5?$AAF?$AAi?$AAl?$AAe@ DB 'C'
	DB	00H, ':', 00H, '\', 00H, 'P', 00H, 'r', 00H, 'o', 00H, 'g', 00H
	DB	'r', 00H, 'a', 00H, 'm', 00H, ' ', 00H, 'F', 00H, 'i', 00H, 'l'
	DB	00H, 'e', 00H, 's', 00H, '\', 00H, 'M', 00H, 'i', 00H, 'c', 00H
	DB	'r', 00H, 'o', 00H, 's', 00H, 'o', 00H, 'f', 00H, 't', 00H, ' '
	DB	00H, 'V', 00H, 'i', 00H, 's', 00H, 'u', 00H, 'a', 00H, 'l', 00H
	DB	' ', 00H, 'S', 00H, 't', 00H, 'u', 00H, 'd', 00H, 'i', 00H, 'o'
	DB	00H, '\', 00H, '2', 00H, '0', 00H, '2', 00H, '2', 00H, '\', 00H
	DB	'C', 00H, 'o', 00H, 'm', 00H, 'm', 00H, 'u', 00H, 'n', 00H, 'i'
	DB	00H, 't', 00H, 'y', 00H, '\', 00H, 'V', 00H, 'C', 00H, '\', 00H
	DB	'T', 00H, 'o', 00H, 'o', 00H, 'l', 00H, 's', 00H, '\', 00H, 'M'
	DB	00H, 'S', 00H, 'V', 00H, 'C', 00H, '\', 00H, '1', 00H, '4', 00H
	DB	'.', 00H, '3', 00H, '2', 00H, '.', 00H, '3', 00H, '1', 00H, '3'
	DB	00H, '2', 00H, '6', 00H, '\', 00H, 'i', 00H, 'n', 00H, 'c', 00H
	DB	'l', 00H, 'u', 00H, 'd', 00H, 'e', 00H, '\', 00H, 'v', 00H, 'e'
	DB	00H, 'c', 00H, 't', 00H, 'o', 00H, 'r', 00H, 00H, 00H ; `string'
CONST	ENDS
;	COMDAT ??_C@_0GB@GDCALCPO@C?3?2Program?5Files?2Microsoft?5Visu@
CONST	SEGMENT
??_C@_0GB@GDCALCPO@C?3?2Program?5Files?2Microsoft?5Visu@ DB 'C:\Program F'
	DB	'iles\Microsoft Visual Studio\2022\Community\VC\Tools\MSVC\14.'
	DB	'32.31326\include\vector', 00H		; `string'
CONST	ENDS
;	COMDAT ??_C@_0BO@PFKOHNJC@vector?5subscript?5out?5of?5range@
CONST	SEGMENT
??_C@_0BO@PFKOHNJC@vector?5subscript?5out?5of?5range@ DB 'vector subscrip'
	DB	't out of range', 00H			; `string'
CONST	ENDS
;	COMDAT ??_C@_1CG@JNLFBNGN@?$AA?$CC?$AAi?$AAn?$AAv?$AAa?$AAl?$AAi?$AAd?$AA?5?$AAa?$AAr?$AAg?$AAu?$AAm?$AAe@
CONST	SEGMENT
??_C@_1CG@JNLFBNGN@?$AA?$CC?$AAi?$AAn?$AAv?$AAa?$AAl?$AAi?$AAd?$AA?5?$AAa?$AAr?$AAg?$AAu?$AAm?$AAe@ DB '"'
	DB	00H, 'i', 00H, 'n', 00H, 'v', 00H, 'a', 00H, 'l', 00H, 'i', 00H
	DB	'd', 00H, ' ', 00H, 'a', 00H, 'r', 00H, 'g', 00H, 'u', 00H, 'm'
	DB	00H, 'e', 00H, 'n', 00H, 't', 00H, '"', 00H, 00H, 00H ; `string'
CONST	ENDS
;	COMDAT ??_C@_11LOCGONAA@@
CONST	SEGMENT
??_C@_11LOCGONAA@@ DB 00H, 00H				; `string'
CONST	ENDS
;	COMDAT ??_C@_1ME@GEFGDEOM@?$AAC?$AA?3?$AA?2?$AAP?$AAr?$AAo?$AAg?$AAr?$AAa?$AAm?$AA?5?$AAF?$AAi?$AAl?$AAe@
CONST	SEGMENT
??_C@_1ME@GEFGDEOM@?$AAC?$AA?3?$AA?2?$AAP?$AAr?$AAo?$AAg?$AAr?$AAa?$AAm?$AA?5?$AAF?$AAi?$AAl?$AAe@ DB 'C'
	DB	00H, ':', 00H, '\', 00H, 'P', 00H, 'r', 00H, 'o', 00H, 'g', 00H
	DB	'r', 00H, 'a', 00H, 'm', 00H, ' ', 00H, 'F', 00H, 'i', 00H, 'l'
	DB	00H, 'e', 00H, 's', 00H, '\', 00H, 'M', 00H, 'i', 00H, 'c', 00H
	DB	'r', 00H, 'o', 00H, 's', 00H, 'o', 00H, 'f', 00H, 't', 00H, ' '
	DB	00H, 'V', 00H, 'i', 00H, 's', 00H, 'u', 00H, 'a', 00H, 'l', 00H
	DB	' ', 00H, 'S', 00H, 't', 00H, 'u', 00H, 'd', 00H, 'i', 00H, 'o'
	DB	00H, '\', 00H, '2', 00H, '0', 00H, '2', 00H, '2', 00H, '\', 00H
	DB	'C', 00H, 'o', 00H, 'm', 00H, 'm', 00H, 'u', 00H, 'n', 00H, 'i'
	DB	00H, 't', 00H, 'y', 00H, '\', 00H, 'V', 00H, 'C', 00H, '\', 00H
	DB	'T', 00H, 'o', 00H, 'o', 00H, 'l', 00H, 's', 00H, '\', 00H, 'M'
	DB	00H, 'S', 00H, 'V', 00H, 'C', 00H, '\', 00H, '1', 00H, '4', 00H
	DB	'.', 00H, '3', 00H, '2', 00H, '.', 00H, '3', 00H, '1', 00H, '3'
	DB	00H, '2', 00H, '6', 00H, '\', 00H, 'i', 00H, 'n', 00H, 'c', 00H
	DB	'l', 00H, 'u', 00H, 'd', 00H, 'e', 00H, '\', 00H, 'x', 00H, 'm'
	DB	00H, 'e', 00H, 'm', 00H, 'o', 00H, 'r', 00H, 'y', 00H, 00H, 00H ; `string'
CONST	ENDS
;	COMDAT ??_C@_0GC@DJFHHHKN@C?3?2Program?5Files?2Microsoft?5Visu@
CONST	SEGMENT
??_C@_0GC@DJFHHHKN@C?3?2Program?5Files?2Microsoft?5Visu@ DB 'C:\Program F'
	DB	'iles\Microsoft Visual Studio\2022\Community\VC\Tools\MSVC\14.'
	DB	'32.31326\include\xmemory', 00H		; `string'
CONST	ENDS
;	COMDAT ??_C@_02DKCKIIND@?$CFs@
CONST	SEGMENT
??_C@_02DKCKIIND@?$CFs@ DB '%s', 00H			; `string'
CONST	ENDS
;	COMDAT ??_C@_0BB@FCMFBGOM@invalid?5argument@
CONST	SEGMENT
??_C@_0BB@FCMFBGOM@invalid?5argument@ DB 'invalid argument', 00H ; `string'
CONST	ENDS
;	COMDAT _CT??_R0?AVexception@std@@@8??0exception@std@@QEAA@AEBV01@@Z24
xdata$x	SEGMENT
_CT??_R0?AVexception@std@@@8??0exception@std@@QEAA@AEBV01@@Z24 DD 00H
	DD	imagerel ??_R0?AVexception@std@@@8
	DD	00H
	DD	0ffffffffH
	ORG $+4
	DD	018H
	DD	imagerel ??0exception@std@@QEAA@AEBV01@@Z
xdata$x	ENDS
;	COMDAT ??_R0?AVexception@std@@@8
data$r	SEGMENT
??_R0?AVexception@std@@@8 DQ FLAT:??_7type_info@@6B@	; std::exception `RTTI Type Descriptor'
	DQ	0000000000000000H
	DB	'.?AVexception@std@@', 00H
data$r	ENDS
;	COMDAT _CT??_R0?AVbad_alloc@std@@@8??0bad_alloc@std@@QEAA@AEBV01@@Z24
xdata$x	SEGMENT
_CT??_R0?AVbad_alloc@std@@@8??0bad_alloc@std@@QEAA@AEBV01@@Z24 DD 010H
	DD	imagerel ??_R0?AVbad_alloc@std@@@8
	DD	00H
	DD	0ffffffffH
	ORG $+4
	DD	018H
	DD	imagerel ??0bad_alloc@std@@QEAA@AEBV01@@Z
xdata$x	ENDS
;	COMDAT ??_R0?AVbad_alloc@std@@@8
data$r	SEGMENT
??_R0?AVbad_alloc@std@@@8 DQ FLAT:??_7type_info@@6B@	; std::bad_alloc `RTTI Type Descriptor'
	DQ	0000000000000000H
	DB	'.?AVbad_alloc@std@@', 00H
data$r	ENDS
;	COMDAT _CT??_R0?AVbad_array_new_length@std@@@8??0bad_array_new_length@std@@QEAA@AEBV01@@Z24
xdata$x	SEGMENT
_CT??_R0?AVbad_array_new_length@std@@@8??0bad_array_new_length@std@@QEAA@AEBV01@@Z24 DD 00H
	DD	imagerel ??_R0?AVbad_array_new_length@std@@@8
	DD	00H
	DD	0ffffffffH
	ORG $+4
	DD	018H
	DD	imagerel ??0bad_array_new_length@std@@QEAA@AEBV01@@Z
xdata$x	ENDS
;	COMDAT ??_R0?AVbad_array_new_length@std@@@8
data$r	SEGMENT
??_R0?AVbad_array_new_length@std@@@8 DQ FLAT:??_7type_info@@6B@ ; std::bad_array_new_length `RTTI Type Descriptor'
	DQ	0000000000000000H
	DB	'.?AVbad_array_new_length@std@@', 00H
data$r	ENDS
;	COMDAT _CTA3?AVbad_array_new_length@std@@
xdata$x	SEGMENT
_CTA3?AVbad_array_new_length@std@@ DD 03H
	DD	imagerel _CT??_R0?AVbad_array_new_length@std@@@8??0bad_array_new_length@std@@QEAA@AEBV01@@Z24
	DD	imagerel _CT??_R0?AVbad_alloc@std@@@8??0bad_alloc@std@@QEAA@AEBV01@@Z24
	DD	imagerel _CT??_R0?AVexception@std@@@8??0exception@std@@QEAA@AEBV01@@Z24
xdata$x	ENDS
;	COMDAT _TI3?AVbad_array_new_length@std@@
xdata$x	SEGMENT
_TI3?AVbad_array_new_length@std@@ DD 00H
	DD	imagerel ??1bad_array_new_length@std@@UEAA@XZ
	DD	00H
	DD	imagerel _CTA3?AVbad_array_new_length@std@@
xdata$x	ENDS
;	COMDAT ??_C@_0BF@KINCDENJ@bad?5array?5new?5length@
CONST	SEGMENT
??_C@_0BF@KINCDENJ@bad?5array?5new?5length@ DB 'bad array new length', 00H ; `string'
CONST	ENDS
;	COMDAT ??_7bad_array_new_length@std@@6B@
CONST	SEGMENT
??_7bad_array_new_length@std@@6B@ DQ FLAT:??_R4bad_array_new_length@std@@6B@ ; std::bad_array_new_length::`vftable'
	DQ	FLAT:??_Ebad_array_new_length@std@@UEAAPEAXI@Z
	DQ	FLAT:?what@exception@std@@UEBAPEBDXZ
CONST	ENDS
;	COMDAT ??_7bad_alloc@std@@6B@
CONST	SEGMENT
??_7bad_alloc@std@@6B@ DQ FLAT:??_R4bad_alloc@std@@6B@	; std::bad_alloc::`vftable'
	DQ	FLAT:??_Ebad_alloc@std@@UEAAPEAXI@Z
	DQ	FLAT:?what@exception@std@@UEBAPEBDXZ
CONST	ENDS
;	COMDAT ??_C@_0BC@EOODALEL@Unknown?5exception@
CONST	SEGMENT
??_C@_0BC@EOODALEL@Unknown?5exception@ DB 'Unknown exception', 00H ; `string'
CONST	ENDS
;	COMDAT ??_7exception@std@@6B@
CONST	SEGMENT
??_7exception@std@@6B@ DQ FLAT:??_R4exception@std@@6B@	; std::exception::`vftable'
	DQ	FLAT:??_Eexception@std@@UEAAPEAXI@Z
	DQ	FLAT:?what@exception@std@@UEBAPEBDXZ
CONST	ENDS
;	COMDAT xdata
xdata	SEGMENT
$unwind$??$_Voidify_iter@PEAI@std@@YAPEAXPEAI@Z DD 010601H
	DD	07006H
xdata	ENDS
;	COMDAT xdata
xdata	SEGMENT
$unwind$??$construct@II@?$_Default_allocator_traits@V?$allocator@I@std@@@std@@SAXAEAV?$allocator@I@1@QEAI$$QEAI@Z DD 021401H
	DD	070105214H
xdata	ENDS
;	COMDAT xdata
xdata	SEGMENT
$unwind$??$forward@I@std@@YA$$QEAIAEAI@Z DD 010601H
	DD	07006H
xdata	ENDS
;	COMDAT xdata
xdata	SEGMENT
$unwind$??$_Voidify_iter@PEA_K@std@@YAPEAXPEA_K@Z DD 010601H
	DD	07006H
xdata	ENDS
;	COMDAT xdata
xdata	SEGMENT
$unwind$??$construct@_K_K@?$_Default_allocator_traits@V?$allocator@_K@std@@@std@@SAXAEAV?$allocator@_K@1@QEA_K$$QEA_K@Z DD 021401H
	DD	070105214H
xdata	ENDS
;	COMDAT xdata
xdata	SEGMENT
$unwind$??$forward@_K@std@@YA$$QEA_KAEA_K@Z DD 010601H
	DD	07006H
xdata	ENDS
;	COMDAT xdata
xdata	SEGMENT
$unwind$??$_Voidify_iter@PEAH@std@@YAPEAXPEAH@Z DD 010601H
	DD	07006H
xdata	ENDS
;	COMDAT xdata
xdata	SEGMENT
$unwind$??$construct@HH@?$_Default_allocator_traits@V?$allocator@H@std@@@std@@SAXAEAV?$allocator@H@1@QEAH$$QEAH@Z DD 021401H
	DD	070105214H
xdata	ENDS
;	COMDAT xdata
xdata	SEGMENT
$unwind$??$forward@H@std@@YA$$QEAHAEAH@Z DD 010601H
	DD	07006H
xdata	ENDS
;	COMDAT xdata
xdata	SEGMENT
$unwind$??$_Voidify_iter@PEAU?$tvec4@H$0A@@glm@@@std@@YAPEAXPEAU?$tvec4@H$0A@@glm@@@Z DD 010601H
	DD	07006H
xdata	ENDS
;	COMDAT xdata
xdata	SEGMENT
$unwind$??$construct@U?$tvec4@H$0A@@glm@@U12@@?$_Default_allocator_traits@V?$allocator@U?$tvec4@H$0A@@glm@@@std@@@std@@SAXAEAV?$allocator@U?$tvec4@H$0A@@glm@@@1@QEAU?$tvec4@H$0A@@glm@@$$QEAU34@@Z DD 031501H
	DD	070116215H
	DD	06010H
xdata	ENDS
;	COMDAT xdata
xdata	SEGMENT
$unwind$??$forward@U?$tvec4@H$0A@@glm@@@std@@YA$$QEAU?$tvec4@H$0A@@glm@@AEAU12@@Z DD 010601H
	DD	07006H
xdata	ENDS
;	COMDAT xdata
xdata	SEGMENT
$unwind$??$_To_address@PEAU?$tvec4@H$0A@@glm@@@std@@YA?A_PAEBQEAU?$tvec4@H$0A@@glm@@@Z DD 010601H
	DD	07006H
xdata	ENDS
;	COMDAT xdata
xdata	SEGMENT
$unwind$?call@?$compute_vec4_add@I$0A@$0A@@detail@glm@@SA?AU?$tvec4@I$0A@@3@AEBU43@0@Z DD 021401H
	DD	070107214H
xdata	ENDS
;	COMDAT xdata
xdata	SEGMENT
$unwind$?call@?$compute_vec4_shift_right@I$0A@$0?0$0CA@$0A@@detail@glm@@SA?AU?$tvec4@I$0A@@3@AEBU43@0@Z DD 021401H
	DD	070107214H
xdata	ENDS
;	COMDAT xdata
xdata	SEGMENT
$unwind$?call@?$compute_vec4_and@I$0A@$0?0$0CA@$0A@@detail@glm@@SA?AU?$tvec4@I$0A@@3@AEBU43@0@Z DD 021401H
	DD	070107214H
xdata	ENDS
;	COMDAT xdata
xdata	SEGMENT
$unwind$??$construct@I$$V@?$_Default_allocator_traits@V?$allocator@I@std@@@std@@SAXAEAV?$allocator@I@1@QEAI@Z DD 020f01H
	DD	0700b520fH
xdata	ENDS
;	COMDAT xdata
xdata	SEGMENT
$unwind$??$_To_address@PEAI@std@@YA?A_PAEBQEAI@Z DD 010601H
	DD	07006H
xdata	ENDS
;	COMDAT xdata
xdata	SEGMENT
$unwind$??$_Emplace_back@I@?$_Uninitialized_backout_al@V?$allocator@I@std@@@std@@QEAAX$$QEAI@Z DD 020f01H
	DD	0700b520fH
xdata	ENDS
;	COMDAT xdata
xdata	SEGMENT
$unwind$??$_Copy_memmove@PEAIPEAI@std@@YAPEAIPEAI00@Z DD 021401H
	DD	07010b214H
xdata	ENDS
;	COMDAT xdata
xdata	SEGMENT
$unwind$??$move@AEAI@std@@YA$$QEAIAEAI@Z DD 010601H
	DD	07006H
xdata	ENDS
;	COMDAT xdata
xdata	SEGMENT
$unwind$??$_Get_unwrapped@AEBQEAI@std@@YA?A_TAEBQEAI@Z DD 010601H
	DD	07006H
xdata	ENDS
;	COMDAT xdata
xdata	SEGMENT
$unwind$??$construct@_K$$V@?$_Default_allocator_traits@V?$allocator@_K@std@@@std@@SAXAEAV?$allocator@_K@1@QEA_K@Z DD 020f01H
	DD	0700b520fH
xdata	ENDS
;	COMDAT xdata
xdata	SEGMENT
$unwind$??$_To_address@PEA_K@std@@YA?A_PAEBQEA_K@Z DD 010601H
	DD	07006H
xdata	ENDS
;	COMDAT xdata
xdata	SEGMENT
$unwind$??$_Emplace_back@_K@?$_Uninitialized_backout_al@V?$allocator@_K@std@@@std@@QEAAX$$QEA_K@Z DD 020f01H
	DD	0700b520fH
xdata	ENDS
;	COMDAT xdata
xdata	SEGMENT
$unwind$??$_Copy_memmove@PEA_KPEA_K@std@@YAPEA_KPEA_K00@Z DD 021401H
	DD	07010b214H
xdata	ENDS
;	COMDAT xdata
xdata	SEGMENT
$unwind$??$move@AEA_K@std@@YA$$QEA_KAEA_K@Z DD 010601H
	DD	07006H
xdata	ENDS
;	COMDAT xdata
xdata	SEGMENT
$unwind$??$_Get_unwrapped@AEBQEA_K@std@@YA?A_TAEBQEA_K@Z DD 010601H
	DD	07006H
xdata	ENDS
;	COMDAT xdata
xdata	SEGMENT
$unwind$??$construct@H$$V@?$_Default_allocator_traits@V?$allocator@H@std@@@std@@SAXAEAV?$allocator@H@1@QEAH@Z DD 020f01H
	DD	0700b520fH
xdata	ENDS
;	COMDAT xdata
xdata	SEGMENT
$unwind$??$_To_address@PEAH@std@@YA?A_PAEBQEAH@Z DD 010601H
	DD	07006H
xdata	ENDS
;	COMDAT xdata
xdata	SEGMENT
$unwind$??$_Emplace_back@H@?$_Uninitialized_backout_al@V?$allocator@H@std@@@std@@QEAAX$$QEAH@Z DD 020f01H
	DD	0700b520fH
xdata	ENDS
;	COMDAT xdata
xdata	SEGMENT
$unwind$??$_Copy_memmove@PEAHPEAH@std@@YAPEAHPEAH00@Z DD 021401H
	DD	07010b214H
xdata	ENDS
;	COMDAT xdata
xdata	SEGMENT
$unwind$??$move@AEAH@std@@YA$$QEAHAEAH@Z DD 010601H
	DD	07006H
xdata	ENDS
;	COMDAT xdata
xdata	SEGMENT
$unwind$??$_Get_unwrapped@AEBQEAH@std@@YA?A_TAEBQEAH@Z DD 010601H
	DD	07006H
xdata	ENDS
;	COMDAT xdata
xdata	SEGMENT
$unwind$??$construct@U?$tvec4@H$0A@@glm@@$$V@?$_Default_allocator_traits@V?$allocator@U?$tvec4@H$0A@@glm@@@std@@@std@@SAXAEAV?$allocator@U?$tvec4@H$0A@@glm@@@1@QEAU?$tvec4@H$0A@@glm@@@Z DD 020f01H
	DD	0700b520fH
xdata	ENDS
;	COMDAT xdata
xdata	SEGMENT
$unwind$??$_Emplace_back@U?$tvec4@H$0A@@glm@@@?$_Uninitialized_backout_al@V?$allocator@U?$tvec4@H$0A@@glm@@@std@@@std@@QEAAX$$QEAU?$tvec4@H$0A@@glm@@@Z DD 020f01H
	DD	0700b520fH
xdata	ENDS
;	COMDAT xdata
xdata	SEGMENT
$unwind$??$_Copy_memmove@PEAU?$tvec4@H$0A@@glm@@PEAU12@@std@@YAPEAU?$tvec4@H$0A@@glm@@PEAU12@00@Z DD 021401H
	DD	07010b214H
xdata	ENDS
;	COMDAT xdata
xdata	SEGMENT
$unwind$??$_Unfancy@U?$tvec4@H$0A@@glm@@@std@@YAPEAU?$tvec4@H$0A@@glm@@PEAU12@@Z DD 010601H
	DD	07006H
xdata	ENDS
;	COMDAT xdata
xdata	SEGMENT
$unwind$??$move@AEAU?$tvec4@H$0A@@glm@@@std@@YA$$QEAU?$tvec4@H$0A@@glm@@AEAU12@@Z DD 010601H
	DD	07006H
xdata	ENDS
;	COMDAT xdata
xdata	SEGMENT
$unwind$??$_Get_unwrapped@AEBQEAU?$tvec4@H$0A@@glm@@@std@@YA?A_TAEBQEAU?$tvec4@H$0A@@glm@@@Z DD 010601H
	DD	07006H
xdata	ENDS
;	COMDAT xdata
xdata	SEGMENT
$unwind$?call@?$compute_vec4_shift_right@_J$0A@$0?0$0EA@$0A@@detail@glm@@SA?AU?$tvec4@_J$0A@@3@AEBU43@0@Z DD 021401H
	DD	070109214H
xdata	ENDS
;	COMDAT xdata
xdata	SEGMENT
$unwind$?call@?$compute_vec4_and@_J$0A@$0?0$0EA@$0A@@detail@glm@@SA?AU?$tvec4@_J$0A@@3@AEBU43@0@Z DD 021401H
	DD	070107214H
xdata	ENDS
;	COMDAT xdata
xdata	SEGMENT
$unwind$?call@?$compute_vec4_mul@_J$0A@$0A@@detail@glm@@SA?AU?$tvec4@_J$0A@@3@AEBU43@0@Z DD 021401H
	DD	070107214H
xdata	ENDS
;	COMDAT xdata
xdata	SEGMENT
$unwind$?call@?$compute_vec4_shift_right@_K$0A@$0?0$0EA@$0A@@detail@glm@@SA?AU?$tvec4@_K$0A@@3@AEBU43@0@Z DD 021401H
	DD	070109214H
xdata	ENDS
;	COMDAT xdata
xdata	SEGMENT
$unwind$?call@?$compute_vec4_mul@_K$0A@$0A@@detail@glm@@SA?AU?$tvec4@_K$0A@@3@AEBU43@0@Z DD 021401H
	DD	070107214H
xdata	ENDS
;	COMDAT xdata
xdata	SEGMENT
$unwind$?call@?$compute_vec4_add@_J$0A@$0A@@detail@glm@@SA?AU?$tvec4@_J$0A@@3@AEBU43@0@Z DD 021401H
	DD	070107214H
xdata	ENDS
;	COMDAT xdata
xdata	SEGMENT
$unwind$?call@?$compute_vec4_sub@_J$0A@$0A@@detail@glm@@SA?AU?$tvec4@_J$0A@@3@AEBU43@0@Z DD 021401H
	DD	070107214H
xdata	ENDS
;	COMDAT xdata
xdata	SEGMENT
$unwind$?call@?$compute_vec4_sub@I$0A@$0A@@detail@glm@@SA?AU?$tvec4@I$0A@@3@AEBU43@0@Z DD 021401H
	DD	070107214H
xdata	ENDS
;	COMDAT xdata
xdata	SEGMENT
$unwind$??$_Get_size_of_n@$07@std@@YA_K_K@Z DD 020a01H
	DD	07006520aH
xdata	ENDS
;	COMDAT xdata
xdata	SEGMENT
$unwind$??$_Get_size_of_n@$03@std@@YA_K_K@Z DD 020a01H
	DD	07006520aH
xdata	ENDS
;	COMDAT xdata
xdata	SEGMENT
$unwind$??$min@_K@std@@YAAEB_KAEB_K0@Z DD 020f01H
	DD	0700b120fH
xdata	ENDS
;	COMDAT xdata
xdata	SEGMENT
$unwind$??$?U_K$0A@@glm@@YA?AU?$tvec1@_K$0A@@0@AEBU10@0@Z DD 021401H
	DD	070103214H
xdata	ENDS
;	COMDAT xdata
xdata	SEGMENT
$unwind$??$?HI$0A@@glm@@YA?AU?$tvec1@I$0A@@0@AEBU10@0@Z DD 021401H
	DD	070103214H
xdata	ENDS
;	COMDAT xdata
xdata	SEGMENT
$unwind$?call@?$functor1@HH$0A@Utvec1@glm@@@detail@glm@@SA?AU?$tvec1@H$0A@@3@P6AHH@ZAEBU43@@Z DD 021401H
	DD	070103214H
xdata	ENDS
;	COMDAT xdata
xdata	SEGMENT
$unwind$??$compute_findMSB_32@I@detail@glm@@YAHI@Z DD 021e01H
	DD	070057209H
xdata	ENDS
;	COMDAT CONST
CONST	SEGMENT
??$compute_findMSB_32@I@detail@glm@@YAHI@Z$rtcName$0 DB 052H ; glm::detail::compute_findMSB_32<unsigned int>
	DB	065H
	DB	073H
	DB	075H
	DB	06cH
	DB	074H
	DB	00H
	ORG $+9
??$compute_findMSB_32@I@detail@glm@@YAHI@Z$rtcVarDesc DD 024H ; glm::detail::compute_findMSB_32<unsigned int>
	DD	04H
	DQ	FLAT:??$compute_findMSB_32@I@detail@glm@@YAHI@Z$rtcName$0
	ORG $+48
??$compute_findMSB_32@I@detail@glm@@YAHI@Z$rtcFrameData DD 01H ; glm::detail::compute_findMSB_32<unsigned int>
	DD	00H
	DQ	FLAT:??$compute_findMSB_32@I@detail@glm@@YAHI@Z$rtcVarDesc
CONST	ENDS
;	COMDAT xdata
xdata	SEGMENT
$unwind$?call@?$functor1@HI$0A@Utvec1@glm@@@detail@glm@@SA?AU?$tvec1@H$0A@@3@P6AHI@ZAEBU?$tvec1@I$0A@@3@@Z DD 021401H
	DD	070103214H
xdata	ENDS
;	COMDAT xdata
xdata	SEGMENT
$unwind$??$_Allocate_manually_vector_aligned@U_Default_allocate_traits@std@@@std@@YAPEAX_K@Z DD 020a01H
	DD	07006920aH
xdata	ENDS
;	COMDAT xdata
xdata	SEGMENT
$unwind$??$?YI@?$tvec4@I$0A@@glm@@QEAAAEAU01@AEBU01@@Z DD 031001H
	DD	0700c8210H
	DD	0600bH
xdata	ENDS
;	COMDAT xdata
xdata	SEGMENT
$unwind$??$?_2I@?$tvec4@I$0A@@glm@@QEAAAEAU01@I@Z DD 030f01H
	DD	0700b820fH
	DD	0600aH
xdata	ENDS
;	COMDAT xdata
xdata	SEGMENT
$unwind$??$?_4I@?$tvec4@I$0A@@glm@@QEAAAEAU01@I@Z DD 030f01H
	DD	0700b820fH
	DD	0600aH
xdata	ENDS
;	COMDAT xdata
xdata	SEGMENT
$unwind$??$_Emplace_back@$$V@?$_Uninitialized_backout_al@V?$allocator@I@std@@@std@@QEAAXXZ DD 020a01H
	DD	07006320aH
xdata	ENDS
;	COMDAT xdata
xdata	SEGMENT
$unwind$?_Release@?$_Uninitialized_backout_al@V?$allocator@I@std@@@std@@QEAAPEAIXZ DD 010601H
	DD	07006H
xdata	ENDS
;	COMDAT xdata
xdata	SEGMENT
$unwind$??1?$_Uninitialized_backout_al@V?$allocator@I@std@@@std@@QEAA@XZ DD 020a01H
	DD	07006320aH
xdata	ENDS
;	COMDAT xdata
xdata	SEGMENT
$unwind$??0?$_Uninitialized_backout_al@V?$allocator@I@std@@@std@@QEAA@PEAIAEAV?$allocator@I@1@@Z DD 011001H
	DD	07010H
xdata	ENDS
;	COMDAT xdata
xdata	SEGMENT
$unwind$??$_Zero_range@PEAI@std@@YAPEAIQEAI0@Z DD 020f01H
	DD	0700b520fH
xdata	ENDS
;	COMDAT xdata
xdata	SEGMENT
$unwind$??$_Unfancy@I@std@@YAPEAIPEAI@Z DD 010601H
	DD	07006H
xdata	ENDS
;	COMDAT voltbl
voltbl	SEGMENT
_volmd	DB	00H
	DB	05H
voltbl	ENDS
;	COMDAT xdata
xdata	SEGMENT
$unwind$?dtor$0@?0???$_Uninitialized_move@PEAIV?$allocator@I@std@@@std@@YAPEAIQEAI0PEAIAEAV?$allocator@I@0@@Z@4HA DD 031001H
	DD	0700c4210H
	DD	0500bH
xdata	ENDS
;	COMDAT xdata
xdata	SEGMENT
$ip2state$??$_Uninitialized_move@PEAIV?$allocator@I@std@@@std@@YAPEAIQEAI0PEAIAEAV?$allocator@I@0@@Z DB 02H
	DB	00H
	DB	00H
xdata	ENDS
;	COMDAT xdata
xdata	SEGMENT
$stateUnwindMap$??$_Uninitialized_move@PEAIV?$allocator@I@std@@@std@@YAPEAIQEAI0PEAIAEAV?$allocator@I@0@@Z DB 02H
	DB	0eH
	DD	imagerel ?dtor$0@?0???$_Uninitialized_move@PEAIV?$allocator@I@std@@@std@@YAPEAIQEAI0PEAIAEAV?$allocator@I@0@@Z@4HA
xdata	ENDS
;	COMDAT xdata
xdata	SEGMENT
$cppxdata$??$_Uninitialized_move@PEAIV?$allocator@I@std@@@std@@YAPEAIQEAI0PEAIAEAV?$allocator@I@0@@Z DB 028H
	DD	imagerel $stateUnwindMap$??$_Uninitialized_move@PEAIV?$allocator@I@std@@@std@@YAPEAIQEAI0PEAIAEAV?$allocator@I@0@@Z
	DD	imagerel $ip2state$??$_Uninitialized_move@PEAIV?$allocator@I@std@@@std@@YAPEAIQEAI0PEAIAEAV?$allocator@I@0@@Z
xdata	ENDS
;	COMDAT xdata
xdata	SEGMENT
$unwind$??$_Uninitialized_move@PEAIV?$allocator@I@std@@@std@@YAPEAIQEAI0PEAIAEAV?$allocator@I@0@@Z DD 022f11H
	DD	07015b219H
	DD	imagerel __CxxFrameHandler4
	DD	imagerel $cppxdata$??$_Uninitialized_move@PEAIV?$allocator@I@std@@@std@@YAPEAIQEAI0PEAIAEAV?$allocator@I@0@@Z
xdata	ENDS
;	COMDAT CONST
CONST	SEGMENT
??$_Uninitialized_move@PEAIV?$allocator@I@std@@@std@@YAPEAIQEAI0PEAIAEAV?$allocator@I@0@@Z$rtcName$0 DB 05fH ; std::_Uninitialized_move<unsigned int *,std::allocator<unsigned int> >
	DB	042H
	DB	061H
	DB	063H
	DB	06bH
	DB	06fH
	DB	075H
	DB	074H
	DB	00H
	ORG $+7
??$_Uninitialized_move@PEAIV?$allocator@I@std@@@std@@YAPEAIQEAI0PEAIAEAV?$allocator@I@0@@Z$rtcVarDesc DD 038H ; std::_Uninitialized_move<unsigned int *,std::allocator<unsigned int> >
	DD	018H
	DQ	FLAT:??$_Uninitialized_move@PEAIV?$allocator@I@std@@@std@@YAPEAIQEAI0PEAIAEAV?$allocator@I@0@@Z$rtcName$0
	ORG $+48
??$_Uninitialized_move@PEAIV?$allocator@I@std@@@std@@YAPEAIQEAI0PEAIAEAV?$allocator@I@0@@Z$rtcFrameData DD 01H ; std::_Uninitialized_move<unsigned int *,std::allocator<unsigned int> >
	DD	00H
	DQ	FLAT:??$_Uninitialized_move@PEAIV?$allocator@I@std@@@std@@YAPEAIQEAI0PEAIAEAV?$allocator@I@0@@Z$rtcVarDesc
CONST	ENDS
;	COMDAT xdata
xdata	SEGMENT
$unwind$??$_Emplace_back@$$V@?$_Uninitialized_backout_al@V?$allocator@_K@std@@@std@@QEAAXXZ DD 020a01H
	DD	07006320aH
xdata	ENDS
;	COMDAT xdata
xdata	SEGMENT
$unwind$?_Release@?$_Uninitialized_backout_al@V?$allocator@_K@std@@@std@@QEAAPEA_KXZ DD 010601H
	DD	07006H
xdata	ENDS
;	COMDAT xdata
xdata	SEGMENT
$unwind$??1?$_Uninitialized_backout_al@V?$allocator@_K@std@@@std@@QEAA@XZ DD 020a01H
	DD	07006320aH
xdata	ENDS
;	COMDAT xdata
xdata	SEGMENT
$unwind$??0?$_Uninitialized_backout_al@V?$allocator@_K@std@@@std@@QEAA@PEA_KAEAV?$allocator@_K@1@@Z DD 011001H
	DD	07010H
xdata	ENDS
;	COMDAT xdata
xdata	SEGMENT
$unwind$??$_Zero_range@PEA_K@std@@YAPEA_KQEA_K0@Z DD 020f01H
	DD	0700b520fH
xdata	ENDS
;	COMDAT xdata
xdata	SEGMENT
$unwind$??$_Unfancy@_K@std@@YAPEA_KPEA_K@Z DD 010601H
	DD	07006H
xdata	ENDS
;	COMDAT voltbl
voltbl	SEGMENT
_volmd	DB	00H
	DB	05H
voltbl	ENDS
;	COMDAT xdata
xdata	SEGMENT
$unwind$?dtor$0@?0???$_Uninitialized_move@PEA_KV?$allocator@_K@std@@@std@@YAPEA_KQEA_K0PEA_KAEAV?$allocator@_K@0@@Z@4HA DD 031001H
	DD	0700c4210H
	DD	0500bH
xdata	ENDS
;	COMDAT xdata
xdata	SEGMENT
$ip2state$??$_Uninitialized_move@PEA_KV?$allocator@_K@std@@@std@@YAPEA_KQEA_K0PEA_KAEAV?$allocator@_K@0@@Z DB 02H
	DB	00H
	DB	00H
xdata	ENDS
;	COMDAT xdata
xdata	SEGMENT
$stateUnwindMap$??$_Uninitialized_move@PEA_KV?$allocator@_K@std@@@std@@YAPEA_KQEA_K0PEA_KAEAV?$allocator@_K@0@@Z DB 02H
	DB	0eH
	DD	imagerel ?dtor$0@?0???$_Uninitialized_move@PEA_KV?$allocator@_K@std@@@std@@YAPEA_KQEA_K0PEA_KAEAV?$allocator@_K@0@@Z@4HA
xdata	ENDS
;	COMDAT xdata
xdata	SEGMENT
$cppxdata$??$_Uninitialized_move@PEA_KV?$allocator@_K@std@@@std@@YAPEA_KQEA_K0PEA_KAEAV?$allocator@_K@0@@Z DB 028H
	DD	imagerel $stateUnwindMap$??$_Uninitialized_move@PEA_KV?$allocator@_K@std@@@std@@YAPEA_KQEA_K0PEA_KAEAV?$allocator@_K@0@@Z
	DD	imagerel $ip2state$??$_Uninitialized_move@PEA_KV?$allocator@_K@std@@@std@@YAPEA_KQEA_K0PEA_KAEAV?$allocator@_K@0@@Z
xdata	ENDS
;	COMDAT xdata
xdata	SEGMENT
$unwind$??$_Uninitialized_move@PEA_KV?$allocator@_K@std@@@std@@YAPEA_KQEA_K0PEA_KAEAV?$allocator@_K@0@@Z DD 022f11H
	DD	07015b219H
	DD	imagerel __CxxFrameHandler4
	DD	imagerel $cppxdata$??$_Uninitialized_move@PEA_KV?$allocator@_K@std@@@std@@YAPEA_KQEA_K0PEA_KAEAV?$allocator@_K@0@@Z
xdata	ENDS
;	COMDAT CONST
CONST	SEGMENT
??$_Uninitialized_move@PEA_KV?$allocator@_K@std@@@std@@YAPEA_KQEA_K0PEA_KAEAV?$allocator@_K@0@@Z$rtcName$0 DB 05fH ; std::_Uninitialized_move<unsigned __int64 *,std::allocator<unsigned __int64> >
	DB	042H
	DB	061H
	DB	063H
	DB	06bH
	DB	06fH
	DB	075H
	DB	074H
	DB	00H
	ORG $+7
??$_Uninitialized_move@PEA_KV?$allocator@_K@std@@@std@@YAPEA_KQEA_K0PEA_KAEAV?$allocator@_K@0@@Z$rtcVarDesc DD 038H ; std::_Uninitialized_move<unsigned __int64 *,std::allocator<unsigned __int64> >
	DD	018H
	DQ	FLAT:??$_Uninitialized_move@PEA_KV?$allocator@_K@std@@@std@@YAPEA_KQEA_K0PEA_KAEAV?$allocator@_K@0@@Z$rtcName$0
	ORG $+48
??$_Uninitialized_move@PEA_KV?$allocator@_K@std@@@std@@YAPEA_KQEA_K0PEA_KAEAV?$allocator@_K@0@@Z$rtcFrameData DD 01H ; std::_Uninitialized_move<unsigned __int64 *,std::allocator<unsigned __int64> >
	DD	00H
	DQ	FLAT:??$_Uninitialized_move@PEA_KV?$allocator@_K@std@@@std@@YAPEA_KQEA_K0PEA_KAEAV?$allocator@_K@0@@Z$rtcVarDesc
CONST	ENDS
;	COMDAT xdata
xdata	SEGMENT
$unwind$??$_Emplace_back@$$V@?$_Uninitialized_backout_al@V?$allocator@H@std@@@std@@QEAAXXZ DD 020a01H
	DD	07006320aH
xdata	ENDS
;	COMDAT xdata
xdata	SEGMENT
$unwind$?_Release@?$_Uninitialized_backout_al@V?$allocator@H@std@@@std@@QEAAPEAHXZ DD 010601H
	DD	07006H
xdata	ENDS
;	COMDAT xdata
xdata	SEGMENT
$unwind$??1?$_Uninitialized_backout_al@V?$allocator@H@std@@@std@@QEAA@XZ DD 020a01H
	DD	07006320aH
xdata	ENDS
;	COMDAT xdata
xdata	SEGMENT
$unwind$??0?$_Uninitialized_backout_al@V?$allocator@H@std@@@std@@QEAA@PEAHAEAV?$allocator@H@1@@Z DD 011001H
	DD	07010H
xdata	ENDS
;	COMDAT xdata
xdata	SEGMENT
$unwind$??$_Zero_range@PEAH@std@@YAPEAHQEAH0@Z DD 020f01H
	DD	0700b520fH
xdata	ENDS
;	COMDAT xdata
xdata	SEGMENT
$unwind$??$_Unfancy@H@std@@YAPEAHPEAH@Z DD 010601H
	DD	07006H
xdata	ENDS
;	COMDAT voltbl
voltbl	SEGMENT
_volmd	DB	00H
	DB	05H
voltbl	ENDS
;	COMDAT xdata
xdata	SEGMENT
$unwind$?dtor$0@?0???$_Uninitialized_move@PEAHV?$allocator@H@std@@@std@@YAPEAHQEAH0PEAHAEAV?$allocator@H@0@@Z@4HA DD 031001H
	DD	0700c4210H
	DD	0500bH
xdata	ENDS
;	COMDAT xdata
xdata	SEGMENT
$ip2state$??$_Uninitialized_move@PEAHV?$allocator@H@std@@@std@@YAPEAHQEAH0PEAHAEAV?$allocator@H@0@@Z DB 02H
	DB	00H
	DB	00H
xdata	ENDS
;	COMDAT xdata
xdata	SEGMENT
$stateUnwindMap$??$_Uninitialized_move@PEAHV?$allocator@H@std@@@std@@YAPEAHQEAH0PEAHAEAV?$allocator@H@0@@Z DB 02H
	DB	0eH
	DD	imagerel ?dtor$0@?0???$_Uninitialized_move@PEAHV?$allocator@H@std@@@std@@YAPEAHQEAH0PEAHAEAV?$allocator@H@0@@Z@4HA
xdata	ENDS
;	COMDAT xdata
xdata	SEGMENT
$cppxdata$??$_Uninitialized_move@PEAHV?$allocator@H@std@@@std@@YAPEAHQEAH0PEAHAEAV?$allocator@H@0@@Z DB 028H
	DD	imagerel $stateUnwindMap$??$_Uninitialized_move@PEAHV?$allocator@H@std@@@std@@YAPEAHQEAH0PEAHAEAV?$allocator@H@0@@Z
	DD	imagerel $ip2state$??$_Uninitialized_move@PEAHV?$allocator@H@std@@@std@@YAPEAHQEAH0PEAHAEAV?$allocator@H@0@@Z
xdata	ENDS
;	COMDAT xdata
xdata	SEGMENT
$unwind$??$_Uninitialized_move@PEAHV?$allocator@H@std@@@std@@YAPEAHQEAH0PEAHAEAV?$allocator@H@0@@Z DD 022f11H
	DD	07015b219H
	DD	imagerel __CxxFrameHandler4
	DD	imagerel $cppxdata$??$_Uninitialized_move@PEAHV?$allocator@H@std@@@std@@YAPEAHQEAH0PEAHAEAV?$allocator@H@0@@Z
xdata	ENDS
;	COMDAT CONST
CONST	SEGMENT
??$_Uninitialized_move@PEAHV?$allocator@H@std@@@std@@YAPEAHQEAH0PEAHAEAV?$allocator@H@0@@Z$rtcName$0 DB 05fH ; std::_Uninitialized_move<int *,std::allocator<int> >
	DB	042H
	DB	061H
	DB	063H
	DB	06bH
	DB	06fH
	DB	075H
	DB	074H
	DB	00H
	ORG $+7
??$_Uninitialized_move@PEAHV?$allocator@H@std@@@std@@YAPEAHQEAH0PEAHAEAV?$allocator@H@0@@Z$rtcVarDesc DD 038H ; std::_Uninitialized_move<int *,std::allocator<int> >
	DD	018H
	DQ	FLAT:??$_Uninitialized_move@PEAHV?$allocator@H@std@@@std@@YAPEAHQEAH0PEAHAEAV?$allocator@H@0@@Z$rtcName$0
	ORG $+48
??$_Uninitialized_move@PEAHV?$allocator@H@std@@@std@@YAPEAHQEAH0PEAHAEAV?$allocator@H@0@@Z$rtcFrameData DD 01H ; std::_Uninitialized_move<int *,std::allocator<int> >
	DD	00H
	DQ	FLAT:??$_Uninitialized_move@PEAHV?$allocator@H@std@@@std@@YAPEAHQEAH0PEAHAEAV?$allocator@H@0@@Z$rtcVarDesc
CONST	ENDS
;	COMDAT xdata
xdata	SEGMENT
$unwind$??$forward@PEAU_Container_base12@std@@@std@@YA$$QEAPEAU_Container_base12@0@AEAPEAU10@@Z DD 010601H
	DD	07006H
xdata	ENDS
;	COMDAT xdata
xdata	SEGMENT
