; Listing generated by Microsoft (R) Optimizing Compiler Version 19.32.31329.0 

include listing.inc

INCLUDELIB MSVCRTD

CONST	SEGMENT
$SG32145 DB	'invalid argument', 00H
	ORG $+3
$SG32146 DB	'%s', 00H
	ORG $+1
$SG32150 DB	'"', 00H, 'i', 00H, 'n', 00H, 'v', 00H, 'a', 00H, 'l', 00H
	DB	'i', 00H, 'd', 00H, ' ', 00H, 'a', 00H, 'r', 00H, 'g', 00H, 'u'
	DB	00H, 'm', 00H, 'e', 00H, 'n', 00H, 't', 00H, '"', 00H, 00H, 00H
	ORG $+2
$SG32147 DB	'C:\Program Files\Microsoft Visual Studio\2022\Community\'
	DB	'VC\Tools\MSVC\14.32.31326\include\xmemory', 00H
	ORG $+2
$SG32149 DB	00H, 00H
	ORG $+10
$SG32148 DB	'C', 00H, ':', 00H, '\', 00H, 'P', 00H, 'r', 00H, 'o', 00H
	DB	'g', 00H, 'r', 00H, 'a', 00H, 'm', 00H, ' ', 00H, 'F', 00H, 'i'
	DB	00H, 'l', 00H, 'e', 00H, 's', 00H, '\', 00H, 'M', 00H, 'i', 00H
	DB	'c', 00H, 'r', 00H, 'o', 00H, 's', 00H, 'o', 00H, 'f', 00H, 't'
	DB	00H, ' ', 00H, 'V', 00H, 'i', 00H, 's', 00H, 'u', 00H, 'a', 00H
	DB	'l', 00H, ' ', 00H, 'S', 00H, 't', 00H, 'u', 00H, 'd', 00H, 'i'
	DB	00H, 'o', 00H, '\', 00H, '2', 00H, '0', 00H, '2', 00H, '2', 00H
	DB	'\', 00H, 'C', 00H, 'o', 00H, 'm', 00H, 'm', 00H, 'u', 00H, 'n'
	DB	00H, 'i', 00H, 't', 00H, 'y', 00H, '\', 00H, 'V', 00H, 'C', 00H
	DB	'\', 00H, 'T', 00H, 'o', 00H, 'o', 00H, 'l', 00H, 's', 00H, '\'
	DB	00H, 'M', 00H, 'S', 00H, 'V', 00H, 'C', 00H, '\', 00H, '1', 00H
	DB	'4', 00H, '.', 00H, '3', 00H, '2', 00H, '.', 00H, '3', 00H, '1'
	DB	00H, '3', 00H, '2', 00H, '6', 00H, '\', 00H, 'i', 00H, 'n', 00H
	DB	'c', 00H, 'l', 00H, 'u', 00H, 'd', 00H, 'e', 00H, '\', 00H, 'x'
	DB	00H, 'm', 00H, 'e', 00H, 'm', 00H, 'o', 00H, 'r', 00H, 'y', 00H
	DB	00H, 00H
CONST	ENDS
PUBLIC	??_H@YAXPEAX_K1P6APEAX0@Z@Z			; `vector constructor iterator'
PUBLIC	?max@?$numeric_limits@_J@std@@SA_JXZ		; std::numeric_limits<__int64>::max
PUBLIC	??2@YAPEAX_KPEAX@Z				; operator new
PUBLIC	??$abs@M@glm@@YAMM@Z				; glm::abs<float>
PUBLIC	??0exception@std@@QEAA@QEBDH@Z			; std::exception::exception
PUBLIC	??0exception@std@@QEAA@AEBV01@@Z		; std::exception::exception
PUBLIC	??1exception@std@@UEAA@XZ			; std::exception::~exception
PUBLIC	?what@exception@std@@UEBAPEBDXZ			; std::exception::what
PUBLIC	??_Gexception@std@@UEAAPEAXI@Z			; std::exception::`scalar deleting destructor'
PUBLIC	??0bad_alloc@std@@AEAA@QEBD@Z			; std::bad_alloc::bad_alloc
PUBLIC	??1bad_alloc@std@@UEAA@XZ			; std::bad_alloc::~bad_alloc
PUBLIC	??0bad_alloc@std@@QEAA@AEBV01@@Z		; std::bad_alloc::bad_alloc
PUBLIC	??_Gbad_alloc@std@@UEAAPEAXI@Z			; std::bad_alloc::`scalar deleting destructor'
PUBLIC	??0bad_array_new_length@std@@QEAA@XZ		; std::bad_array_new_length::bad_array_new_length
PUBLIC	??1bad_array_new_length@std@@UEAA@XZ		; std::bad_array_new_length::~bad_array_new_length
PUBLIC	??0bad_array_new_length@std@@QEAA@AEBV01@@Z	; std::bad_array_new_length::bad_array_new_length
PUBLIC	??_Gbad_array_new_length@std@@UEAAPEAXI@Z	; std::bad_array_new_length::`scalar deleting destructor'
PUBLIC	?_Throw_bad_array_new_length@std@@YAXXZ		; std::_Throw_bad_array_new_length
PUBLIC	?_Allocate@_Default_allocate_traits@std@@SAPEAX_K@Z ; std::_Default_allocate_traits::_Allocate
PUBLIC	?_Adjust_manually_vector_aligned@std@@YAXAEAPEAXAEA_K@Z ; std::_Adjust_manually_vector_aligned
PUBLIC	??0_Container_proxy@std@@QEAA@PEAU_Container_base12@1@@Z ; std::_Container_proxy::_Container_proxy
PUBLIC	??0_Container_base12@std@@QEAA@XZ		; std::_Container_base12::_Container_base12
PUBLIC	?_Orphan_all@_Container_base12@std@@QEAAXXZ	; std::_Container_base12::_Orphan_all
PUBLIC	?_Orphan_all_unlocked_v3@_Container_base12@std@@AEAAXXZ ; std::_Container_base12::_Orphan_all_unlocked_v3
PUBLIC	?_Orphan_all_locked_v3@_Container_base12@std@@AEAAXXZ ; std::_Container_base12::_Orphan_all_locked_v3
PUBLIC	?_Release@_Basic_container_proxy_ptr12@std@@QEAAXXZ ; std::_Basic_container_proxy_ptr12::_Release
PUBLIC	??0_Basic_container_proxy_ptr12@std@@IEAA@XZ	; std::_Basic_container_proxy_ptr12::_Basic_container_proxy_ptr12
PUBLIC	?test_operators@@YAHXZ				; test_operators
PUBLIC	?length@?$tvec2@M$0A@@glm@@SAHXZ		; glm::tvec2<float,0>::length
PUBLIC	??A?$tvec2@M$0A@@glm@@QEBAAEBMH@Z		; glm::tvec2<float,0>::operator[]
PUBLIC	??0?$tvec2@M$0A@@glm@@QEAA@XZ			; glm::tvec2<float,0>::tvec2<float,0>
PUBLIC	??0?$tvec2@M$0A@@glm@@QEAA@M@Z			; glm::tvec2<float,0>::tvec2<float,0>
PUBLIC	??0?$tvec2@M$0A@@glm@@QEAA@MM@Z			; glm::tvec2<float,0>::tvec2<float,0>
PUBLIC	??0?$tmat2x2@M$0A@@glm@@QEAA@XZ			; glm::tmat2x2<float,0>::tmat2x2<float,0>
PUBLIC	??0?$tmat2x2@M$0A@@glm@@QEAA@M@Z		; glm::tmat2x2<float,0>::tmat2x2<float,0>
PUBLIC	??0?$tmat2x2@M$0A@@glm@@QEAA@AEBM000@Z		; glm::tmat2x2<float,0>::tmat2x2<float,0>
PUBLIC	??0?$tmat2x2@M$0A@@glm@@QEAA@AEBU?$tvec2@M$0A@@1@0@Z ; glm::tmat2x2<float,0>::tmat2x2<float,0>
PUBLIC	??0?$tmat2x2@M$0A@@glm@@QEAA@AEBU?$tmat3x3@M$0A@@1@@Z ; glm::tmat2x2<float,0>::tmat2x2<float,0>
PUBLIC	??0?$tmat2x2@M$0A@@glm@@QEAA@AEBU?$tmat4x4@M$0A@@1@@Z ; glm::tmat2x2<float,0>::tmat2x2<float,0>
PUBLIC	??0?$tmat2x2@M$0A@@glm@@QEAA@AEBU?$tmat2x3@M$0A@@1@@Z ; glm::tmat2x2<float,0>::tmat2x2<float,0>
PUBLIC	??0?$tmat2x2@M$0A@@glm@@QEAA@AEBU?$tmat3x2@M$0A@@1@@Z ; glm::tmat2x2<float,0>::tmat2x2<float,0>
PUBLIC	??0?$tmat2x2@M$0A@@glm@@QEAA@AEBU?$tmat2x4@M$0A@@1@@Z ; glm::tmat2x2<float,0>::tmat2x2<float,0>
PUBLIC	??0?$tmat2x2@M$0A@@glm@@QEAA@AEBU?$tmat4x2@M$0A@@1@@Z ; glm::tmat2x2<float,0>::tmat2x2<float,0>
PUBLIC	??0?$tmat2x2@M$0A@@glm@@QEAA@AEBU?$tmat3x4@M$0A@@1@@Z ; glm::tmat2x2<float,0>::tmat2x2<float,0>
PUBLIC	??0?$tmat2x2@M$0A@@glm@@QEAA@AEBU?$tmat4x3@M$0A@@1@@Z ; glm::tmat2x2<float,0>::tmat2x2<float,0>
PUBLIC	?length@?$tmat2x2@M$0A@@glm@@SAHXZ		; glm::tmat2x2<float,0>::length
PUBLIC	??A?$tmat2x2@M$0A@@glm@@QEAAAEAU?$tvec2@M$0A@@1@H@Z ; glm::tmat2x2<float,0>::operator[]
PUBLIC	??A?$tmat2x2@M$0A@@glm@@QEBAAEBU?$tvec2@M$0A@@1@H@Z ; glm::tmat2x2<float,0>::operator[]
PUBLIC	??0?$tvec4@M$0A@@glm@@QEAA@XZ			; glm::tvec4<float,0>::tvec4<float,0>
PUBLIC	??0?$tvec4@M$0A@@glm@@QEAA@MMMM@Z		; glm::tvec4<float,0>::tvec4<float,0>
PUBLIC	??0?$tmat3x4@M$0A@@glm@@QEAA@M@Z		; glm::tmat3x4<float,0>::tmat3x4<float,0>
PUBLIC	?length@?$tmat3x4@M$0A@@glm@@SAHXZ		; glm::tmat3x4<float,0>::length
PUBLIC	??A?$tmat3x4@M$0A@@glm@@QEBAAEBU?$tvec4@M$0A@@1@H@Z ; glm::tmat3x4<float,0>::operator[]
PUBLIC	??0?$tmat4x2@M$0A@@glm@@QEAA@M@Z		; glm::tmat4x2<float,0>::tmat4x2<float,0>
PUBLIC	?length@?$tmat4x2@M$0A@@glm@@SAHXZ		; glm::tmat4x2<float,0>::length
PUBLIC	??A?$tmat4x2@M$0A@@glm@@QEBAAEBU?$tvec2@M$0A@@1@H@Z ; glm::tmat4x2<float,0>::operator[]
PUBLIC	??0?$tmat2x4@M$0A@@glm@@QEAA@M@Z		; glm::tmat2x4<float,0>::tmat2x4<float,0>
PUBLIC	?length@?$tmat2x4@M$0A@@glm@@SAHXZ		; glm::tmat2x4<float,0>::length
PUBLIC	??A?$tmat2x4@M$0A@@glm@@QEBAAEBU?$tvec4@M$0A@@1@H@Z ; glm::tmat2x4<float,0>::operator[]
PUBLIC	??0?$tmat3x2@M$0A@@glm@@QEAA@M@Z		; glm::tmat3x2<float,0>::tmat3x2<float,0>
PUBLIC	?length@?$tmat3x2@M$0A@@glm@@SAHXZ		; glm::tmat3x2<float,0>::length
PUBLIC	??A?$tmat3x2@M$0A@@glm@@QEBAAEBU?$tvec2@M$0A@@1@H@Z ; glm::tmat3x2<float,0>::operator[]
PUBLIC	??0?$tvec3@M$0A@@glm@@QEAA@XZ			; glm::tvec3<float,0>::tvec3<float,0>
PUBLIC	??0?$tmat2x3@M$0A@@glm@@QEAA@M@Z		; glm::tmat2x3<float,0>::tmat2x3<float,0>
PUBLIC	?length@?$tmat2x3@M$0A@@glm@@SAHXZ		; glm::tmat2x3<float,0>::length
PUBLIC	??A?$tmat2x3@M$0A@@glm@@QEBAAEBU?$tvec3@M$0A@@1@H@Z ; glm::tmat2x3<float,0>::operator[]
PUBLIC	??0?$tmat4x4@M$0A@@glm@@QEAA@AEBM@Z		; glm::tmat4x4<float,0>::tmat4x4<float,0>
PUBLIC	?length@?$tmat4x4@M$0A@@glm@@SAHXZ		; glm::tmat4x4<float,0>::length
PUBLIC	??A?$tmat4x4@M$0A@@glm@@QEBAAEBU?$tvec4@M$0A@@1@H@Z ; glm::tmat4x4<float,0>::operator[]
PUBLIC	??0?$tmat3x3@M$0A@@glm@@QEAA@M@Z		; glm::tmat3x3<float,0>::tmat3x3<float,0>
PUBLIC	?length@?$tmat3x3@M$0A@@glm@@SAHXZ		; glm::tmat3x3<float,0>::length
PUBLIC	??A?$tmat3x3@M$0A@@glm@@QEBAAEBU?$tvec3@M$0A@@1@H@Z ; glm::tmat3x3<float,0>::operator[]
PUBLIC	??0?$tmat4x3@M$0A@@glm@@QEAA@AEBM@Z		; glm::tmat4x3<float,0>::tmat4x3<float,0>
PUBLIC	?length@?$tmat4x3@M$0A@@glm@@SAHXZ		; glm::tmat4x3<float,0>::length
PUBLIC	??A?$tmat4x3@M$0A@@glm@@QEBAAEBU?$tvec3@M$0A@@1@H@Z ; glm::tmat4x3<float,0>::operator[]
PUBLIC	??$?DM$0A@@glm@@YA?AU?$tvec2@M$0A@@0@AEBU?$tmat2x2@M$0A@@0@AEBU10@@Z ; glm::operator*<float,0>
PUBLIC	??$?DM$0A@@glm@@YA?AU?$tvec2@M$0A@@0@AEBU10@AEBU?$tmat2x2@M$0A@@0@@Z ; glm::operator*<float,0>
PUBLIC	??$?KM$0A@@glm@@YA?AU?$tmat2x2@M$0A@@0@MAEBU10@@Z ; glm::operator/<float,0>
PUBLIC	??$?KM$0A@@glm@@YA?AU?$tmat2x2@M$0A@@0@AEBU10@M@Z ; glm::operator/<float,0>
PUBLIC	??$?DM$0A@@glm@@YA?AU?$tmat2x2@M$0A@@0@MAEBU10@@Z ; glm::operator*<float,0>
PUBLIC	??$?DM$0A@@glm@@YA?AU?$tmat2x2@M$0A@@0@AEBU10@M@Z ; glm::operator*<float,0>
PUBLIC	??$?9M$0A@@glm@@YA_NAEBU?$tmat2x2@M$0A@@0@0@Z	; glm::operator!=<float,0>
PUBLIC	??$?8M$0A@@glm@@YA_NAEBU?$tmat2x2@M$0A@@0@0@Z	; glm::operator==<float,0>
PUBLIC	?test_inverse@@YAHXZ				; test_inverse
PUBLIC	??$?0HHHH@?$tmat2x2@M$0A@@glm@@QEAA@AEBH000@Z	; glm::tmat2x2<float,0>::tmat2x2<float,0><int,int,int,int>
PUBLIC	??$inverse@M$0A@Utmat2x2@glm@@@glm@@YA?AU?$tmat2x2@M$0A@@0@AEBU10@@Z ; glm::inverse<float,0,glm::tmat2x2>
PUBLIC	??$?DM$0A@@glm@@YA?AU?$tmat2x2@M$0A@@0@AEBU10@0@Z ; glm::operator*<float,0>
PUBLIC	??$epsilonEqual@M$0A@Utvec2@glm@@@glm@@YA?AU?$tvec2@_N$0A@@0@AEBU?$tvec2@M$0A@@0@00@Z ; glm::epsilonEqual<float,0,glm::tvec2>
PUBLIC	?length@?$tvec2@_N$0A@@glm@@SAHXZ		; glm::tvec2<bool,0>::length
PUBLIC	??A?$tvec2@_N$0A@@glm@@QEAAAEA_NH@Z		; glm::tvec2<bool,0>::operator[]
PUBLIC	??A?$tvec2@_N$0A@@glm@@QEBAAEB_NH@Z		; glm::tvec2<bool,0>::operator[]
PUBLIC	??0?$tvec2@_N$0A@@glm@@QEAA@W4ctor@1@@Z		; glm::tvec2<bool,0>::tvec2<bool,0>
PUBLIC	??$all@$0A@Utvec2@glm@@@glm@@YA_NAEBU?$tvec2@_N$0A@@0@@Z ; glm::all<0,glm::tvec2>
PUBLIC	??$?KM$0A@@glm@@YA?AU?$tmat2x2@M$0A@@0@AEBU10@0@Z ; glm::operator/<float,0>
PUBLIC	?test_ctr@@YAHXZ				; test_ctr
PUBLIC	??$?0HH@?$tvec2@M$0A@@glm@@QEAA@HH@Z		; glm::tvec2<float,0>::tvec2<float,0><int,int>
PUBLIC	??$equal@M$0A@Utvec2@glm@@@glm@@YA?AU?$tvec2@_N$0A@@0@AEBU?$tvec2@M$0A@@0@0@Z ; glm::equal<float,0,glm::tvec2>
PUBLIC	??0?$allocator@U?$tmat2x2@M$0A@@glm@@@std@@QEAA@XZ ; std::allocator<glm::tmat2x2<float,0> >::allocator<glm::tmat2x2<float,0> >
PUBLIC	?deallocate@?$allocator@U?$tmat2x2@M$0A@@glm@@@std@@QEAAXQEAU?$tmat2x2@M$0A@@glm@@_K@Z ; std::allocator<glm::tmat2x2<float,0> >::deallocate
PUBLIC	?allocate@?$allocator@U?$tmat2x2@M$0A@@glm@@@std@@QEAAPEAU?$tmat2x2@M$0A@@glm@@_K@Z ; std::allocator<glm::tmat2x2<float,0> >::allocate
PUBLIC	?max_size@?$_Default_allocator_traits@V?$allocator@U?$tmat2x2@M$0A@@glm@@@std@@@std@@SA_KAEBV?$allocator@U?$tmat2x2@M$0A@@glm@@@2@@Z ; std::_Default_allocator_traits<std::allocator<glm::tmat2x2<float,0> > >::max_size
PUBLIC	??0?$vector@U?$tmat2x2@M$0A@@glm@@V?$allocator@U?$tmat2x2@M$0A@@glm@@@std@@@std@@QEAA@V?$initializer_list@U?$tmat2x2@M$0A@@glm@@@1@AEBV?$allocator@U?$tmat2x2@M$0A@@glm@@@1@@Z ; std::vector<glm::tmat2x2<float,0>,std::allocator<glm::tmat2x2<float,0> > >::vector<glm::tmat2x2<float,0>,std::allocator<glm::tmat2x2<float,0> > >
PUBLIC	??1?$vector@U?$tmat2x2@M$0A@@glm@@V?$allocator@U?$tmat2x2@M$0A@@glm@@@std@@@std@@QEAA@XZ ; std::vector<glm::tmat2x2<float,0>,std::allocator<glm::tmat2x2<float,0> > >::~vector<glm::tmat2x2<float,0>,std::allocator<glm::tmat2x2<float,0> > >
PUBLIC	?max_size@?$vector@U?$tmat2x2@M$0A@@glm@@V?$allocator@U?$tmat2x2@M$0A@@glm@@@std@@@std@@QEBA_KXZ ; std::vector<glm::tmat2x2<float,0>,std::allocator<glm::tmat2x2<float,0> > >::max_size
PUBLIC	?_Buy_raw@?$vector@U?$tmat2x2@M$0A@@glm@@V?$allocator@U?$tmat2x2@M$0A@@glm@@@std@@@std@@AEAAX_K@Z ; std::vector<glm::tmat2x2<float,0>,std::allocator<glm::tmat2x2<float,0> > >::_Buy_raw
PUBLIC	?_Buy_nonzero@?$vector@U?$tmat2x2@M$0A@@glm@@V?$allocator@U?$tmat2x2@M$0A@@glm@@@std@@@std@@AEAAX_K@Z ; std::vector<glm::tmat2x2<float,0>,std::allocator<glm::tmat2x2<float,0> > >::_Buy_nonzero
PUBLIC	?_Tidy@?$vector@U?$tmat2x2@M$0A@@glm@@V?$allocator@U?$tmat2x2@M$0A@@glm@@@std@@@std@@AEAAXXZ ; std::vector<glm::tmat2x2<float,0>,std::allocator<glm::tmat2x2<float,0> > >::_Tidy
PUBLIC	?_Xlength@?$vector@U?$tmat2x2@M$0A@@glm@@V?$allocator@U?$tmat2x2@M$0A@@glm@@@std@@@std@@CAXXZ ; std::vector<glm::tmat2x2<float,0>,std::allocator<glm::tmat2x2<float,0> > >::_Xlength
PUBLIC	?_Getal@?$vector@U?$tmat2x2@M$0A@@glm@@V?$allocator@U?$tmat2x2@M$0A@@glm@@@std@@@std@@AEAAAEAV?$allocator@U?$tmat2x2@M$0A@@glm@@@2@XZ ; std::vector<glm::tmat2x2<float,0>,std::allocator<glm::tmat2x2<float,0> > >::_Getal
PUBLIC	?_Getal@?$vector@U?$tmat2x2@M$0A@@glm@@V?$allocator@U?$tmat2x2@M$0A@@glm@@@std@@@std@@AEBAAEBV?$allocator@U?$tmat2x2@M$0A@@glm@@@2@XZ ; std::vector<glm::tmat2x2<float,0>,std::allocator<glm::tmat2x2<float,0> > >::_Getal
PUBLIC	??0?$_Vector_val@U?$_Simple_types@U?$tmat2x2@M$0A@@glm@@@std@@@std@@QEAA@XZ ; std::_Vector_val<std::_Simple_types<glm::tmat2x2<float,0> > >::_Vector_val<std::_Simple_types<glm::tmat2x2<float,0> > >
PUBLIC	?_Get_first@?$_Compressed_pair@V?$allocator@U?$tmat2x2@M$0A@@glm@@@std@@V?$_Vector_val@U?$_Simple_types@U?$tmat2x2@M$0A@@glm@@@std@@@2@$00@std@@QEAAAEAV?$allocator@U?$tmat2x2@M$0A@@glm@@@2@XZ ; std::_Compressed_pair<std::allocator<glm::tmat2x2<float,0> >,std::_Vector_val<std::_Simple_types<glm::tmat2x2<float,0> > >,1>::_Get_first
PUBLIC	?_Get_first@?$_Compressed_pair@V?$allocator@U?$tmat2x2@M$0A@@glm@@@std@@V?$_Vector_val@U?$_Simple_types@U?$tmat2x2@M$0A@@glm@@@std@@@2@$00@std@@QEBAAEBV?$allocator@U?$tmat2x2@M$0A@@glm@@@2@XZ ; std::_Compressed_pair<std::allocator<glm::tmat2x2<float,0> >,std::_Vector_val<std::_Simple_types<glm::tmat2x2<float,0> > >,1>::_Get_first
PUBLIC	??0?$initializer_list@U?$tmat2x2@M$0A@@glm@@@std@@QEAA@PEBU?$tmat2x2@M$0A@@glm@@0@Z ; std::initializer_list<glm::tmat2x2<float,0> >::initializer_list<glm::tmat2x2<float,0> >
PUBLIC	?begin@?$initializer_list@U?$tmat2x2@M$0A@@glm@@@std@@QEBAPEBU?$tmat2x2@M$0A@@glm@@XZ ; std::initializer_list<glm::tmat2x2<float,0> >::begin
PUBLIC	?end@?$initializer_list@U?$tmat2x2@M$0A@@glm@@@std@@QEBAPEBU?$tmat2x2@M$0A@@glm@@XZ ; std::initializer_list<glm::tmat2x2<float,0> >::end
PUBLIC	?size@?$initializer_list@U?$tmat2x2@M$0A@@glm@@@std@@QEBA_KXZ ; std::initializer_list<glm::tmat2x2<float,0> >::size
PUBLIC	?test@cast@@YAHXZ				; cast::test
PUBLIC	??$entry@U?$tmat2x2@M$0A@@glm@@@cast@@YAHXZ	; cast::entry<glm::tmat2x2<float,0> >
PUBLIC	??$entry@U?$tmat2x3@M$0A@@glm@@@cast@@YAHXZ	; cast::entry<glm::tmat2x3<float,0> >
PUBLIC	??$entry@U?$tmat2x4@M$0A@@glm@@@cast@@YAHXZ	; cast::entry<glm::tmat2x4<float,0> >
PUBLIC	??$entry@U?$tmat3x2@M$0A@@glm@@@cast@@YAHXZ	; cast::entry<glm::tmat3x2<float,0> >
PUBLIC	??$entry@U?$tmat3x3@M$0A@@glm@@@cast@@YAHXZ	; cast::entry<glm::tmat3x3<float,0> >
PUBLIC	??$entry@U?$tmat3x4@M$0A@@glm@@@cast@@YAHXZ	; cast::entry<glm::tmat3x4<float,0> >
PUBLIC	??$entry@U?$tmat4x2@M$0A@@glm@@@cast@@YAHXZ	; cast::entry<glm::tmat4x2<float,0> >
PUBLIC	??$entry@U?$tmat4x3@M$0A@@glm@@@cast@@YAHXZ	; cast::entry<glm::tmat4x3<float,0> >
PUBLIC	??$entry@U?$tmat4x4@M$0A@@glm@@@cast@@YAHXZ	; cast::entry<glm::tmat4x4<float,0> >
PUBLIC	?test_size@@YAHXZ				; test_size
PUBLIC	??0?$tvec2@N$0A@@glm@@QEAA@XZ			; glm::tvec2<double,0>::tvec2<double,0>
PUBLIC	??0?$tmat2x2@N$0A@@glm@@QEAA@XZ			; glm::tmat2x2<double,0>::tmat2x2<double,0>
PUBLIC	?length@?$tmat2x2@N$0A@@glm@@SAHXZ		; glm::tmat2x2<double,0>::length
PUBLIC	main
PUBLIC	?allocate@?$allocator@U_Container_proxy@std@@@std@@QEAAPEAU_Container_proxy@2@_K@Z ; std::allocator<std::_Container_proxy>::allocate
PUBLIC	??$?0U?$tmat2x2@M$0A@@glm@@@?$allocator@U_Container_proxy@std@@@std@@QEAA@AEBV?$allocator@U?$tmat2x2@M$0A@@glm@@@1@@Z ; std::allocator<std::_Container_proxy>::allocator<std::_Container_proxy><glm::tmat2x2<float,0> >
PUBLIC	??$exchange@PEAU_Container_proxy@std@@$$T@std@@YAPEAU_Container_proxy@0@AEAPEAU10@$$QEA$$T@Z ; std::exchange<std::_Container_proxy *,std::nullptr_t>
PUBLIC	??$_Delete_plain_internal@V?$allocator@U_Container_proxy@std@@@std@@@std@@YAXAEAV?$allocator@U_Container_proxy@std@@@0@QEAU_Container_proxy@0@@Z ; std::_Delete_plain_internal<std::allocator<std::_Container_proxy> >
PUBLIC	??$?0AEBV?$allocator@U?$tmat2x2@M$0A@@glm@@@std@@$$V@?$_Compressed_pair@V?$allocator@U?$tmat2x2@M$0A@@glm@@@std@@V?$_Vector_val@U?$_Simple_types@U?$tmat2x2@M$0A@@glm@@@std@@@2@$00@std@@QEAA@U_One_then_variadic_args_t@1@AEBV?$allocator@U?$tmat2x2@M$0A@@glm@@@1@@Z ; std::_Compressed_pair<std::allocator<glm::tmat2x2<float,0> >,std::_Vector_val<std::_Simple_types<glm::tmat2x2<float,0> > >,1>::_Compressed_pair<std::allocator<glm::tmat2x2<float,0> >,std::_Vector_val<std::_Simple_types<glm::tmat2x2<float,0> > >,1><std::allocator<glm::tmat2x2<float,0> > const &>
PUBLIC	??$_Convert_size@_K@std@@YA_K_K@Z		; std::_Convert_size<unsigned __int64>
PUBLIC	??$_Construct_n@PEBU?$tmat2x2@M$0A@@glm@@PEBU12@@?$vector@U?$tmat2x2@M$0A@@glm@@V?$allocator@U?$tmat2x2@M$0A@@glm@@@std@@@std@@AEAAX_K$$QEAPEBU?$tmat2x2@M$0A@@glm@@1@Z ; std::vector<glm::tmat2x2<float,0>,std::allocator<glm::tmat2x2<float,0> > >::_Construct_n<glm::tmat2x2<float,0> const *,glm::tmat2x2<float,0> const *>
PUBLIC	??$_Destroy_range@V?$allocator@U?$tmat2x2@M$0A@@glm@@@std@@@std@@YAXPEAU?$tmat2x2@M$0A@@glm@@QEAU12@AEAV?$allocator@U?$tmat2x2@M$0A@@glm@@@0@@Z ; std::_Destroy_range<std::allocator<glm::tmat2x2<float,0> > >
PUBLIC	??$_Deallocate@$0BA@$0A@@std@@YAXPEAX_K@Z	; std::_Deallocate<16,0>
PUBLIC	??$?0MH@?$tvec2@M$0A@@glm@@QEAA@MH@Z		; glm::tvec2<float,0>::tvec2<float,0><float,int>
PUBLIC	??$?0HM@?$tvec2@M$0A@@glm@@QEAA@HM@Z		; glm::tvec2<float,0>::tvec2<float,0><int,float>
PUBLIC	??$?0HH@?$tvec2@N$0A@@glm@@QEAA@HH@Z		; glm::tvec2<double,0>::tvec2<double,0><int,int>
PUBLIC	?call@?$compute_abs@M$00@detail@glm@@SAMM@Z	; glm::detail::compute_abs<float,1>::call
PUBLIC	??$?KM$0A@@glm@@YA?AU?$tvec2@M$0A@@0@MAEBU10@@Z	; glm::operator/<float,0>
PUBLIC	??$?KM$0A@@glm@@YA?AU?$tvec2@M$0A@@0@AEBU10@M@Z	; glm::operator/<float,0>
PUBLIC	??$?DM$0A@@glm@@YA?AU?$tvec2@M$0A@@0@AEBU10@M@Z	; glm::operator*<float,0>
PUBLIC	??$?9M$0A@@glm@@YA_NAEBU?$tvec2@M$0A@@0@0@Z	; glm::operator!=<float,0>
PUBLIC	??$?8M$0A@@glm@@YA_NAEBU?$tvec2@M$0A@@0@0@Z	; glm::operator==<float,0>
PUBLIC	?call@?$compute_inverse@Utmat2x2@glm@@M$0A@$0A@@detail@glm@@SA?AU?$tmat2x2@M$0A@@3@AEBU43@@Z ; glm::detail::compute_inverse<glm::tmat2x2,float,0,0>::call
PUBLIC	??$?GM$0A@@glm@@YA?AU?$tvec2@M$0A@@0@AEBU10@0@Z	; glm::operator-<float,0>
PUBLIC	??$abs@M$0A@Utvec2@glm@@@glm@@YA?AU?$tvec2@M$0A@@0@AEBU10@@Z ; glm::abs<float,0,glm::tvec2>
PUBLIC	??$lessThan@M$0A@Utvec2@glm@@@glm@@YA?AU?$tvec2@_N$0A@@0@AEBU?$tvec2@M$0A@@0@0@Z ; glm::lessThan<float,0,glm::tvec2>
PUBLIC	??$?_0M@?$tmat2x2@M$0A@@glm@@QEAAAEAU01@AEBU01@@Z ; glm::tmat2x2<float,0>::operator/=<float>
PUBLIC	??$_Deallocate_plain@V?$allocator@U_Container_proxy@std@@@std@@@std@@YAXAEAV?$allocator@U_Container_proxy@std@@@0@QEAU_Container_proxy@0@@Z ; std::_Deallocate_plain<std::allocator<std::_Container_proxy> >
PUBLIC	??$forward@AEBV?$allocator@U?$tmat2x2@M$0A@@glm@@@std@@@std@@YAAEBV?$allocator@U?$tmat2x2@M$0A@@glm@@@0@AEBV10@@Z ; std::forward<std::allocator<glm::tmat2x2<float,0> > const &>
PUBLIC	??0?$_Container_proxy_ptr12@V?$allocator@U_Container_proxy@std@@@std@@@std@@QEAA@AEAV?$allocator@U_Container_proxy@std@@@1@AEAU_Container_base12@1@@Z ; std::_Container_proxy_ptr12<std::allocator<std::_Container_proxy> >::_Container_proxy_ptr12<std::allocator<std::_Container_proxy> >
PUBLIC	??1?$_Container_proxy_ptr12@V?$allocator@U_Container_proxy@std@@@std@@@std@@QEAA@XZ ; std::_Container_proxy_ptr12<std::allocator<std::_Container_proxy> >::~_Container_proxy_ptr12<std::allocator<std::_Container_proxy> >
PUBLIC	??1?$_Tidy_guard@V?$vector@U?$tmat2x2@M$0A@@glm@@V?$allocator@U?$tmat2x2@M$0A@@glm@@@std@@@std@@@std@@QEAA@XZ ; std::_Tidy_guard<std::vector<glm::tmat2x2<float,0>,std::allocator<glm::tmat2x2<float,0> > > >::~_Tidy_guard<std::vector<glm::tmat2x2<float,0>,std::allocator<glm::tmat2x2<float,0> > > >
PUBLIC	??$forward@PEBU?$tmat2x2@M$0A@@glm@@@std@@YA$$QEAPEBU?$tmat2x2@M$0A@@glm@@AEAPEBU12@@Z ; std::forward<glm::tmat2x2<float,0> const *>
PUBLIC	??$_Uninitialized_copy@PEBU?$tmat2x2@M$0A@@glm@@V?$allocator@U?$tmat2x2@M$0A@@glm@@@std@@@std@@YAPEAU?$tmat2x2@M$0A@@glm@@QEBU12@0PEAU12@AEAV?$allocator@U?$tmat2x2@M$0A@@glm@@@0@@Z ; std::_Uninitialized_copy<glm::tmat2x2<float,0> const *,std::allocator<glm::tmat2x2<float,0> > >
PUBLIC	??$_Unfancy@U_Container_proxy@std@@@std@@YAPEAU_Container_proxy@0@PEAU10@@Z ; std::_Unfancy<std::_Container_proxy>
PUBLIC	??$addressof@U_Container_base12@std@@@std@@YAPEAU_Container_base12@0@AEAU10@@Z ; std::addressof<std::_Container_base12>
PUBLIC	??$_Construct_in_place@U_Container_proxy@std@@PEAU_Container_base12@2@@std@@YAXAEAU_Container_proxy@0@$$QEAPEAU_Container_base12@0@@Z ; std::_Construct_in_place<std::_Container_proxy,std::_Container_base12 *>
PUBLIC	??$_Get_size_of_n@$0BA@@std@@YA_K_K@Z		; std::_Get_size_of_n<16>
PUBLIC	??$_Allocate@$0BA@U_Default_allocate_traits@std@@$0A@@std@@YAPEAX_K@Z ; std::_Allocate<16,std::_Default_allocate_traits,0>
PUBLIC	??$min@_K@std@@YAAEB_KAEB_K0@Z			; std::min<unsigned __int64>
PUBLIC	??$?0M$0A@@?$tvec2@M$0A@@glm@@QEAA@AEBU?$tvec3@M$0A@@1@@Z ; glm::tvec2<float,0>::tvec2<float,0><float,0>
PUBLIC	??$?0M$0A@@?$tvec2@M$0A@@glm@@QEAA@AEBU?$tvec4@M$0A@@1@@Z ; glm::tvec2<float,0>::tvec2<float,0><float,0>
PUBLIC	??$?0MHH@?$tvec3@M$0A@@glm@@QEAA@MHH@Z		; glm::tvec3<float,0>::tvec3<float,0><float,int,int>
PUBLIC	??$?0HMH@?$tvec3@M$0A@@glm@@QEAA@HMH@Z		; glm::tvec3<float,0>::tvec3<float,0><int,float,int>
PUBLIC	??$?0HHM@?$tvec3@M$0A@@glm@@QEAA@HHM@Z		; glm::tvec3<float,0>::tvec3<float,0><int,int,float>
PUBLIC	??$?0MHHH@?$tvec4@M$0A@@glm@@QEAA@MHHH@Z	; glm::tvec4<float,0>::tvec4<float,0><float,int,int,int>
PUBLIC	??$?0HMHH@?$tvec4@M$0A@@glm@@QEAA@HMHH@Z	; glm::tvec4<float,0>::tvec4<float,0><int,float,int,int>
PUBLIC	??$?0HHMH@?$tvec4@M$0A@@glm@@QEAA@HHMH@Z	; glm::tvec4<float,0>::tvec4<float,0><int,int,float,int>
PUBLIC	??$?0HHH@?$tvec3@M$0A@@glm@@QEAA@HHH@Z		; glm::tvec3<float,0>::tvec3<float,0><int,int,int>
PUBLIC	??$?0HHHM@?$tvec4@M$0A@@glm@@QEAA@HHHM@Z	; glm::tvec4<float,0>::tvec4<float,0><int,int,int,float>
PUBLIC	?call@?$compute_abs_vector@M$0A@Utvec2@glm@@$0A@@detail@glm@@SA?AU?$tvec2@M$0A@@3@AEBU43@@Z ; glm::detail::compute_abs_vector<float,0,glm::tvec2,0>::call
PUBLIC	??$?XM@?$tmat2x2@M$0A@@glm@@QEAAAEAU01@AEBU01@@Z ; glm::tmat2x2<float,0>::operator*=<float>
PUBLIC	?deallocate@?$_Default_allocator_traits@V?$allocator@U_Container_proxy@std@@@std@@@std@@SAXAEAV?$allocator@U_Container_proxy@std@@@2@QEAU_Container_proxy@2@_K@Z ; std::_Default_allocator_traits<std::allocator<std::_Container_proxy> >::deallocate
PUBLIC	??$_Get_unwrapped@AEBQEBU?$tmat2x2@M$0A@@glm@@@std@@YA?A_TAEBQEBU?$tmat2x2@M$0A@@glm@@@Z ; std::_Get_unwrapped<glm::tmat2x2<float,0> const * const &>
PUBLIC	??$_Unfancy@U?$tmat2x2@M$0A@@glm@@@std@@YAPEAU?$tmat2x2@M$0A@@glm@@PEAU12@@Z ; std::_Unfancy<glm::tmat2x2<float,0> >
PUBLIC	??$_Copy_memmove@PEBU?$tmat2x2@M$0A@@glm@@PEAU12@@std@@YAPEAU?$tmat2x2@M$0A@@glm@@PEBU12@0PEAU12@@Z ; std::_Copy_memmove<glm::tmat2x2<float,0> const *,glm::tmat2x2<float,0> *>
PUBLIC	??0?$_Uninitialized_backout_al@V?$allocator@U?$tmat2x2@M$0A@@glm@@@std@@@std@@QEAA@PEAU?$tmat2x2@M$0A@@glm@@AEAV?$allocator@U?$tmat2x2@M$0A@@glm@@@1@@Z ; std::_Uninitialized_backout_al<std::allocator<glm::tmat2x2<float,0> > >::_Uninitialized_backout_al<std::allocator<glm::tmat2x2<float,0> > >
PUBLIC	??1?$_Uninitialized_backout_al@V?$allocator@U?$tmat2x2@M$0A@@glm@@@std@@@std@@QEAA@XZ ; std::_Uninitialized_backout_al<std::allocator<glm::tmat2x2<float,0> > >::~_Uninitialized_backout_al<std::allocator<glm::tmat2x2<float,0> > >
PUBLIC	?_Release@?$_Uninitialized_backout_al@V?$allocator@U?$tmat2x2@M$0A@@glm@@@std@@@std@@QEAAPEAU?$tmat2x2@M$0A@@glm@@XZ ; std::_Uninitialized_backout_al<std::allocator<glm::tmat2x2<float,0> > >::_Release
PUBLIC	??$_Emplace_back@AEBU?$tmat2x2@M$0A@@glm@@@?$_Uninitialized_backout_al@V?$allocator@U?$tmat2x2@M$0A@@glm@@@std@@@std@@QEAAXAEBU?$tmat2x2@M$0A@@glm@@@Z ; std::_Uninitialized_backout_al<std::allocator<glm::tmat2x2<float,0> > >::_Emplace_back<glm::tmat2x2<float,0> const &>
PUBLIC	??$addressof@U_Container_proxy@std@@@std@@YAPEAU_Container_proxy@0@AEAU10@@Z ; std::addressof<std::_Container_proxy>
PUBLIC	??$_Voidify_iter@PEAU_Container_proxy@std@@@std@@YAPEAXPEAU_Container_proxy@0@@Z ; std::_Voidify_iter<std::_Container_proxy *>
PUBLIC	??$forward@PEAU_Container_base12@std@@@std@@YA$$QEAPEAU_Container_base12@0@AEAPEAU10@@Z ; std::forward<std::_Container_base12 *>
PUBLIC	??$_Allocate_manually_vector_aligned@U_Default_allocate_traits@std@@@std@@YAPEAX_K@Z ; std::_Allocate_manually_vector_aligned<std::_Default_allocate_traits>
PUBLIC	?call@?$functor1@MM$0A@Utvec2@glm@@@detail@glm@@SA?AU?$tvec2@M$0A@@3@P6AMM@ZAEBU43@@Z ; glm::detail::functor1<float,float,0,glm::tvec2>::call
PUBLIC	??$_To_address@PEBU?$tmat2x2@M$0A@@glm@@@std@@YA?A_PAEBQEBU?$tmat2x2@M$0A@@glm@@@Z ; std::_To_address<glm::tmat2x2<float,0> const *>
PUBLIC	??$_To_address@PEAU?$tmat2x2@M$0A@@glm@@@std@@YA?A_PAEBQEAU?$tmat2x2@M$0A@@glm@@@Z ; std::_To_address<glm::tmat2x2<float,0> *>
PUBLIC	??$forward@AEBU?$tmat2x2@M$0A@@glm@@@std@@YAAEBU?$tmat2x2@M$0A@@glm@@AEBU12@@Z ; std::forward<glm::tmat2x2<float,0> const &>
PUBLIC	??$construct@U?$tmat2x2@M$0A@@glm@@AEBU12@@?$_Default_allocator_traits@V?$allocator@U?$tmat2x2@M$0A@@glm@@@std@@@std@@SAXAEAV?$allocator@U?$tmat2x2@M$0A@@glm@@@1@QEAU?$tmat2x2@M$0A@@glm@@AEBU34@@Z ; std::_Default_allocator_traits<std::allocator<glm::tmat2x2<float,0> > >::construct<glm::tmat2x2<float,0>,glm::tmat2x2<float,0> const &>
PUBLIC	??$_Voidify_iter@PEAU?$tmat2x2@M$0A@@glm@@@std@@YAPEAXPEAU?$tmat2x2@M$0A@@glm@@@Z ; std::_Voidify_iter<glm::tmat2x2<float,0> *>
PUBLIC	??_7exception@std@@6B@				; std::exception::`vftable'
PUBLIC	??_C@_0BC@EOODALEL@Unknown?5exception@		; `string'
PUBLIC	??_7bad_alloc@std@@6B@				; std::bad_alloc::`vftable'
PUBLIC	??_7bad_array_new_length@std@@6B@		; std::bad_array_new_length::`vftable'
PUBLIC	??_C@_0BF@KINCDENJ@bad?5array?5new?5length@	; `string'
PUBLIC	_TI3?AVbad_array_new_length@std@@
PUBLIC	_CTA3?AVbad_array_new_length@std@@
PUBLIC	??_R0?AVbad_array_new_length@std@@@8		; std::bad_array_new_length `RTTI Type Descriptor'
PUBLIC	_CT??_R0?AVbad_array_new_length@std@@@8??0bad_array_new_length@std@@QEAA@AEBV01@@Z24
PUBLIC	??_R0?AVbad_alloc@std@@@8			; std::bad_alloc `RTTI Type Descriptor'
PUBLIC	_CT??_R0?AVbad_alloc@std@@@8??0bad_alloc@std@@QEAA@AEBV01@@Z24
PUBLIC	??_R0?AVexception@std@@@8			; std::exception `RTTI Type Descriptor'
PUBLIC	_CT??_R0?AVexception@std@@@8??0exception@std@@QEAA@AEBV01@@Z24
PUBLIC	??_C@_0BB@FCMFBGOM@invalid?5argument@		; `string'
PUBLIC	??_C@_02DKCKIIND@?$CFs@				; `string'
PUBLIC	??_C@_0GC@DJFHHHKN@C?3?2Program?5Files?2Microsoft?5Visu@ ; `string'
PUBLIC	??_C@_1ME@GEFGDEOM@?$AAC?$AA?3?$AA?2?$AAP?$AAr?$AAo?$AAg?$AAr?$AAa?$AAm?$AA?5?$AAF?$AAi?$AAl?$AAe@ ; `string'
PUBLIC	??_C@_11LOCGONAA@@				; `string'
PUBLIC	??_C@_1CG@JNLFBNGN@?$AA?$CC?$AAi?$AAn?$AAv?$AAa?$AAl?$AAi?$AAd?$AA?5?$AAa?$AAr?$AAg?$AAu?$AAm?$AAe@ ; `string'
PUBLIC	??_C@_0DG@KGHKKGBC@null?5pointer?5cannot?5point?5to?5a?5@ ; `string'
PUBLIC	??_C@_1HA@FACCKGGH@?$AA?$CC?$AAn?$AAu?$AAl?$AAl?$AA?5?$AAp?$AAo?$AAi?$AAn?$AAt?$AAe?$AAr?$AA?5?$AAc@ ; `string'
PUBLIC	??_C@_1LK@KMFBDMLF@?$AAC?$AA?3?$AA?2?$AAU?$AAs?$AAe?$AAr?$AAs?$AA?2?$AAk?$AAs?$AAa?$AAr?$AAt?$AA?2@ ; `string'
PUBLIC	??_C@_1CG@KOFHLCJL@?$AAi?$AA?5?$AA?$DM?$AA?5?$AAt?$AAh?$AAi?$AAs?$AA?9?$AA?$DO?$AAl?$AAe?$AAn?$AAg?$AAt@ ; `string'
PUBLIC	??_C@_1NA@OPABFNEN@?$AAC?$AA?3?$AA?2?$AAU?$AAs?$AAe?$AAr?$AAs?$AA?2?$AAk?$AAs?$AAa?$AAr?$AAt?$AA?2@ ; `string'
PUBLIC	??_C@_1DC@HHLCGOLC@?$AAx?$AA?4?$AAl?$AAe?$AAn?$AAg?$AAt?$AAh?$AA?$CI?$AA?$CJ?$AA?5?$AA?$DN?$AA?$DN?$AA?5?$AAy@ ; `string'
PUBLIC	??_C@_0BA@FOIKENOD@vector?5too?5long@		; `string'
PUBLIC	??_C@_1LG@FPDAFGJN@?$AAC?$AA?3?$AA?2?$AAU?$AAs?$AAe?$AAr?$AAs?$AA?2?$AAk?$AAs?$AAa?$AAr?$AAt?$AA?2@ ; `string'
PUBLIC	??_C@_1DK@BGNCJAPL@?$AAi?$AA?5?$AA?$DO?$AA?$DN?$AA?5?$AA0?$AA?5?$AA?$CG?$AA?$CG?$AA?5?$AAi?$AA?5?$AA?$DM?$AA?5?$AAt@ ; `string'
PUBLIC	??_C@_1LK@DHPEHANK@?$AAC?$AA?3?$AA?2?$AAU?$AAs?$AAe?$AAr?$AAs?$AA?2?$AAk?$AAs?$AAa?$AAr?$AAt?$AA?2@ ; `string'
PUBLIC	??_C@_1LK@EDGMJJFF@?$AAC?$AA?3?$AA?2?$AAU?$AAs?$AAe?$AAr?$AAs?$AA?2?$AAk?$AAs?$AAa?$AAr?$AAt?$AA?2@ ; `string'
PUBLIC	??_C@_1LK@CDJKNCE@?$AAC?$AA?3?$AA?2?$AAU?$AAs?$AAe?$AAr?$AAs?$AA?2?$AAk?$AAs?$AAa?$AAr?$AAt?$AA?2@ ; `string'
PUBLIC	??_C@_1LK@JJJMOBEL@?$AAC?$AA?3?$AA?2?$AAU?$AAs?$AAe?$AAr?$AAs?$AA?2?$AAk?$AAs?$AAa?$AAr?$AAt?$AA?2@ ; `string'
PUBLIC	??_C@_1LK@ONAEAIME@?$AAC?$AA?3?$AA?2?$AAU?$AAs?$AAe?$AAr?$AAs?$AA?2?$AAk?$AAs?$AAa?$AAr?$AAt?$AA?2@ ; `string'
PUBLIC	??_C@_1LK@PPMAFFFB@?$AAC?$AA?3?$AA?2?$AAU?$AAs?$AAe?$AAr?$AAs?$AA?2?$AAk?$AAs?$AAa?$AAr?$AAt?$AA?2@ ; `string'
PUBLIC	??_C@_1LK@GEGFBJDO@?$AAC?$AA?3?$AA?2?$AAU?$AAs?$AAe?$AAr?$AAs?$AA?2?$AAk?$AAs?$AAa?$AAr?$AAt?$AA?2@ ; `string'
PUBLIC	??_C@_1LK@BAPNPALB@?$AAC?$AA?3?$AA?2?$AAU?$AAs?$AAe?$AAr?$AAs?$AA?2?$AAk?$AAs?$AAa?$AAr?$AAt?$AA?2@ ; `string'
PUBLIC	??_R4exception@std@@6B@				; std::exception::`RTTI Complete Object Locator'
PUBLIC	??_R3exception@std@@8				; std::exception::`RTTI Class Hierarchy Descriptor'
PUBLIC	??_R2exception@std@@8				; std::exception::`RTTI Base Class Array'
PUBLIC	??_R1A@?0A@EA@exception@std@@8			; std::exception::`RTTI Base Class Descriptor at (0,-1,0,64)'
PUBLIC	??_R4bad_alloc@std@@6B@				; std::bad_alloc::`RTTI Complete Object Locator'
PUBLIC	??_R3bad_alloc@std@@8				; std::bad_alloc::`RTTI Class Hierarchy Descriptor'
PUBLIC	??_R2bad_alloc@std@@8				; std::bad_alloc::`RTTI Base Class Array'
PUBLIC	??_R1A@?0A@EA@bad_alloc@std@@8			; std::bad_alloc::`RTTI Base Class Descriptor at (0,-1,0,64)'
PUBLIC	??_R4bad_array_new_length@std@@6B@		; std::bad_array_new_length::`RTTI Complete Object Locator'
PUBLIC	??_R3bad_array_new_length@std@@8		; std::bad_array_new_length::`RTTI Class Hierarchy Descriptor'
PUBLIC	??_R2bad_array_new_length@std@@8		; std::bad_array_new_length::`RTTI Base Class Array'
PUBLIC	??_R1A@?0A@EA@bad_array_new_length@std@@8	; std::bad_array_new_length::`RTTI Base Class Descriptor at (0,-1,0,64)'
PUBLIC	__real@00000000
PUBLIC	__real@3c23d70a
PUBLIC	__real@3f800000
PUBLIC	__xmm@80000000800000008000000080000000
EXTRN	??2@YAPEAX_K@Z:PROC				; operator new
EXTRN	??3@YAXPEAX_K@Z:PROC				; operator delete
EXTRN	__imp__invalid_parameter:PROC
EXTRN	__imp__wassert:PROC
EXTRN	memmove:PROC
EXTRN	__imp__CrtDbgReport:PROC
EXTRN	__imp_??0_Lockit@std@@QEAA@H@Z:PROC
EXTRN	__imp_??1_Lockit@std@@QEAA@XZ:PROC
EXTRN	__std_exception_copy:PROC
EXTRN	__std_exception_destroy:PROC
EXTRN	??_Eexception@std@@UEAAPEAXI@Z:PROC		; std::exception::`vector deleting destructor'
EXTRN	??_Ebad_alloc@std@@UEAAPEAXI@Z:PROC		; std::bad_alloc::`vector deleting destructor'
EXTRN	??_Ebad_array_new_length@std@@UEAAPEAXI@Z:PROC	; std::bad_array_new_length::`vector deleting destructor'
EXTRN	?_Xlength_error@std@@YAXPEBD@Z:PROC		; std::_Xlength_error
EXTRN	_CxxThrowException:PROC
EXTRN	_RTC_CheckStackVars:PROC
EXTRN	_RTC_InitBase:PROC
EXTRN	_RTC_Shutdown:PROC
EXTRN	__CxxFrameHandler4:PROC
EXTRN	__GSHandlerCheck:PROC
EXTRN	__GSHandlerCheck_EH4:PROC
EXTRN	__security_check_cookie:PROC
EXTRN	??_7type_info@@6B@:BYTE				; type_info::`vftable'
EXTRN	__security_cookie:QWORD
EXTRN	_fltused:DWORD
;	COMDAT pdata
pdata	SEGMENT
$pdata$??_H@YAXPEAX_K1P6APEAX0@Z@Z DD imagerel $LN7
	DD	imagerel $LN7+119
	DD	imagerel $unwind$??_H@YAXPEAX_K1P6APEAX0@Z@Z
pdata	ENDS
;	COMDAT pdata
pdata	SEGMENT
$pdata$?max@?$numeric_limits@_J@std@@SA_JXZ DD imagerel $LN3
	DD	imagerel $LN3+14
	DD	imagerel $unwind$?max@?$numeric_limits@_J@std@@SA_JXZ
pdata	ENDS
;	COMDAT pdata
pdata	SEGMENT
$pdata$??2@YAPEAX_KPEAX@Z DD imagerel $LN3
	DD	imagerel $LN3+18
	DD	imagerel $unwind$??2@YAPEAX_KPEAX@Z
pdata	ENDS
;	COMDAT pdata
pdata	SEGMENT
$pdata$??$abs@M@glm@@YAMM@Z DD imagerel $LN3
	DD	imagerel $LN3+28
	DD	imagerel $unwind$??$abs@M@glm@@YAMM@Z
pdata	ENDS
;	COMDAT pdata
pdata	SEGMENT
$pdata$??0exception@std@@QEAA@QEBDH@Z DD imagerel $LN3
	DD	imagerel $LN3+73
	DD	imagerel $unwind$??0exception@std@@QEAA@QEBDH@Z
pdata	ENDS
;	COMDAT pdata
pdata	SEGMENT
$pdata$??0exception@std@@QEAA@AEBV01@@Z DD imagerel $LN3
	DD	imagerel $LN3+88
	DD	imagerel $unwind$??0exception@std@@QEAA@AEBV01@@Z
pdata	ENDS
;	COMDAT pdata
pdata	SEGMENT
$pdata$??1exception@std@@UEAA@XZ DD imagerel $LN3
	DD	imagerel $LN3+48
	DD	imagerel $unwind$??1exception@std@@UEAA@XZ
pdata	ENDS
;	COMDAT pdata
pdata	SEGMENT
$pdata$?what@exception@std@@UEBAPEBDXZ DD imagerel $LN5
	DD	imagerel $LN5+58
	DD	imagerel $unwind$?what@exception@std@@UEBAPEBDXZ
pdata	ENDS
;	COMDAT pdata
pdata	SEGMENT
$pdata$??_Gexception@std@@UEAAPEAXI@Z DD imagerel $LN4
	DD	imagerel $LN4+61
	DD	imagerel $unwind$??_Gexception@std@@UEAAPEAXI@Z
pdata	ENDS
;	COMDAT pdata
pdata	SEGMENT
$pdata$??0bad_alloc@std@@AEAA@QEBD@Z DD imagerel $LN3
	DD	imagerel $LN3+62
	DD	imagerel $unwind$??0bad_alloc@std@@AEAA@QEBD@Z
pdata	ENDS
;	COMDAT pdata
pdata	SEGMENT
$pdata$??1bad_alloc@std@@UEAA@XZ DD imagerel $LN3
	DD	imagerel $LN3+26
	DD	imagerel $unwind$??1bad_alloc@std@@UEAA@XZ
pdata	ENDS
;	COMDAT pdata
pdata	SEGMENT
$pdata$??0bad_alloc@std@@QEAA@AEBV01@@Z DD imagerel $LN3
	DD	imagerel $LN3+56
	DD	imagerel $unwind$??0bad_alloc@std@@QEAA@AEBV01@@Z
pdata	ENDS
;	COMDAT pdata
pdata	SEGMENT
$pdata$??_Gbad_alloc@std@@UEAAPEAXI@Z DD imagerel $LN4
	DD	imagerel $LN4+61
	DD	imagerel $unwind$??_Gbad_alloc@std@@UEAAPEAXI@Z
pdata	ENDS
;	COMDAT pdata
pdata	SEGMENT
$pdata$??0bad_array_new_length@std@@QEAA@XZ DD imagerel $LN3
	DD	imagerel $LN3+53
	DD	imagerel $unwind$??0bad_array_new_length@std@@QEAA@XZ
pdata	ENDS
;	COMDAT pdata
pdata	SEGMENT
$pdata$??1bad_array_new_length@std@@UEAA@XZ DD imagerel $LN3
	DD	imagerel $LN3+26
	DD	imagerel $unwind$??1bad_array_new_length@std@@UEAA@XZ
pdata	ENDS
;	COMDAT pdata
pdata	SEGMENT
$pdata$??0bad_array_new_length@std@@QEAA@AEBV01@@Z DD imagerel $LN3
	DD	imagerel $LN3+56
	DD	imagerel $unwind$??0bad_array_new_length@std@@QEAA@AEBV01@@Z
pdata	ENDS
;	COMDAT pdata
pdata	SEGMENT
$pdata$??_Gbad_array_new_length@std@@UEAAPEAXI@Z DD imagerel $LN4
	DD	imagerel $LN4+61
	DD	imagerel $unwind$??_Gbad_array_new_length@std@@UEAAPEAXI@Z
pdata	ENDS
;	COMDAT pdata
pdata	SEGMENT
$pdata$?_Throw_bad_array_new_length@std@@YAXXZ DD imagerel $LN3
	DD	imagerel $LN3+39
	DD	imagerel $unwind$?_Throw_bad_array_new_length@std@@YAXXZ
pdata	ENDS
;	COMDAT pdata
pdata	SEGMENT
$pdata$?_Allocate@_Default_allocate_traits@std@@SAPEAX_K@Z DD imagerel $LN3
	DD	imagerel $LN3+26
	DD	imagerel $unwind$?_Allocate@_Default_allocate_traits@std@@SAPEAX_K@Z
pdata	ENDS
;	COMDAT pdata
pdata	SEGMENT
$pdata$?_Adjust_manually_vector_aligned@std@@YAXAEAPEAXAEA_K@Z DD imagerel $LN21
	DD	imagerel $LN21+404
	DD	imagerel $unwind$?_Adjust_manually_vector_aligned@std@@YAXAEAPEAXAEA_K@Z
pdata	ENDS
;	COMDAT pdata
pdata	SEGMENT
$pdata$??0_Container_proxy@std@@QEAA@PEAU_Container_base12@1@@Z DD imagerel $LN3
	DD	imagerel $LN3+44
	DD	imagerel $unwind$??0_Container_proxy@std@@QEAA@PEAU_Container_base12@1@@Z
pdata	ENDS
;	COMDAT pdata
pdata	SEGMENT
$pdata$??0_Container_base12@std@@QEAA@XZ DD imagerel $LN3
	DD	imagerel $LN3+25
	DD	imagerel $unwind$??0_Container_base12@std@@QEAA@XZ
pdata	ENDS
;	COMDAT pdata
pdata	SEGMENT
$pdata$?_Orphan_all@_Container_base12@std@@QEAAXXZ DD imagerel $LN3
	DD	imagerel $LN3+26
	DD	imagerel $unwind$?_Orphan_all@_Container_base12@std@@QEAAXXZ
pdata	ENDS
;	COMDAT pdata
pdata	SEGMENT
$pdata$?_Orphan_all_unlocked_v3@_Container_base12@std@@AEAAXXZ DD imagerel $LN7
	DD	imagerel $LN7+107
	DD	imagerel $unwind$?_Orphan_all_unlocked_v3@_Container_base12@std@@AEAAXXZ
pdata	ENDS
;	COMDAT pdata
pdata	SEGMENT
$pdata$?_Orphan_all_locked_v3@_Container_base12@std@@AEAAXXZ DD imagerel $LN3
	DD	imagerel $LN3+90
	DD	imagerel $unwind$?_Orphan_all_locked_v3@_Container_base12@std@@AEAAXXZ
pdata	ENDS
;	COMDAT pdata
pdata	SEGMENT
$pdata$?_Release@_Basic_container_proxy_ptr12@std@@QEAAXXZ DD imagerel $LN3
	DD	imagerel $LN3+20
	DD	imagerel $unwind$?_Release@_Basic_container_proxy_ptr12@std@@QEAAXXZ
pdata	ENDS
;	COMDAT pdata
pdata	SEGMENT
$pdata$??0_Basic_container_proxy_ptr12@std@@IEAA@XZ DD imagerel $LN3
	DD	imagerel $LN3+25
	DD	imagerel $unwind$??0_Basic_container_proxy_ptr12@std@@IEAA@XZ
pdata	ENDS
pdata	SEGMENT
$pdata$?test_operators@@YAHXZ DD imagerel $LN5
	DD	imagerel $LN5+445
	DD	imagerel $unwind$?test_operators@@YAHXZ
pdata	ENDS
;	COMDAT pdata
pdata	SEGMENT
$pdata$?length@?$tvec2@M$0A@@glm@@SAHXZ DD imagerel $LN3
	DD	imagerel $LN3+9
	DD	imagerel $unwind$?length@?$tvec2@M$0A@@glm@@SAHXZ
pdata	ENDS
;	COMDAT pdata
pdata	SEGMENT
$pdata$??A?$tvec2@M$0A@@glm@@QEBAAEBMH@Z DD imagerel $LN5
	DD	imagerel $LN5+80
	DD	imagerel $unwind$??A?$tvec2@M$0A@@glm@@QEBAAEBMH@Z
pdata	ENDS
;	COMDAT pdata
pdata	SEGMENT
$pdata$??0?$tvec2@M$0A@@glm@@QEAA@XZ DD imagerel $LN3
	DD	imagerel $LN3+38
	DD	imagerel $unwind$??0?$tvec2@M$0A@@glm@@QEAA@XZ
pdata	ENDS
;	COMDAT pdata
pdata	SEGMENT
$pdata$??0?$tvec2@M$0A@@glm@@QEAA@M@Z DD imagerel $LN3
	DD	imagerel $LN3+50
	DD	imagerel $unwind$??0?$tvec2@M$0A@@glm@@QEAA@M@Z
pdata	ENDS
;	COMDAT pdata
pdata	SEGMENT
$pdata$??0?$tvec2@M$0A@@glm@@QEAA@MM@Z DD imagerel $LN3
	DD	imagerel $LN3+56
	DD	imagerel $unwind$??0?$tvec2@M$0A@@glm@@QEAA@MM@Z
pdata	ENDS
;	COMDAT pdata
pdata	SEGMENT
$pdata$??0?$tmat2x2@M$0A@@glm@@QEAA@XZ DD imagerel $LN3
	DD	imagerel $LN3+130
	DD	imagerel $unwind$??0?$tmat2x2@M$0A@@glm@@QEAA@XZ
pdata	ENDS
;	COMDAT pdata
pdata	SEGMENT
$pdata$??0?$tmat2x2@M$0A@@glm@@QEAA@M@Z DD imagerel $LN3
	DD	imagerel $LN3+137
	DD	imagerel $unwind$??0?$tmat2x2@M$0A@@glm@@QEAA@M@Z
pdata	ENDS
;	COMDAT pdata
pdata	SEGMENT
$pdata$??0?$tmat2x2@M$0A@@glm@@QEAA@AEBM000@Z DD imagerel $LN3
	DD	imagerel $LN3+165
	DD	imagerel $unwind$??0?$tmat2x2@M$0A@@glm@@QEAA@AEBM000@Z
pdata	ENDS
;	COMDAT pdata
pdata	SEGMENT
$pdata$??0?$tmat2x2@M$0A@@glm@@QEAA@AEBU?$tvec2@M$0A@@1@0@Z DD imagerel $LN3
	DD	imagerel $LN3+114
	DD	imagerel $unwind$??0?$tmat2x2@M$0A@@glm@@QEAA@AEBU?$tvec2@M$0A@@1@0@Z
pdata	ENDS
;	COMDAT pdata
pdata	SEGMENT
$pdata$??0?$tmat2x2@M$0A@@glm@@QEAA@AEBU?$tmat3x3@M$0A@@1@@Z DD imagerel $LN3
	DD	imagerel $LN3+152
	DD	imagerel $unwind$??0?$tmat2x2@M$0A@@glm@@QEAA@AEBU?$tmat3x3@M$0A@@1@@Z
pdata	ENDS
;	COMDAT pdata
pdata	SEGMENT
$pdata$??0?$tmat2x2@M$0A@@glm@@QEAA@AEBU?$tmat4x4@M$0A@@1@@Z DD imagerel $LN3
	DD	imagerel $LN3+152
	DD	imagerel $unwind$??0?$tmat2x2@M$0A@@glm@@QEAA@AEBU?$tmat4x4@M$0A@@1@@Z
pdata	ENDS
;	COMDAT pdata
pdata	SEGMENT
$pdata$??0?$tmat2x2@M$0A@@glm@@QEAA@AEBU?$tmat2x3@M$0A@@1@@Z DD imagerel $LN3
	DD	imagerel $LN3+152
	DD	imagerel $unwind$??0?$tmat2x2@M$0A@@glm@@QEAA@AEBU?$tmat2x3@M$0A@@1@@Z
pdata	ENDS
;	COMDAT pdata
pdata	SEGMENT
$pdata$??0?$tmat2x2@M$0A@@glm@@QEAA@AEBU?$tmat3x2@M$0A@@1@@Z DD imagerel $LN3
	DD	imagerel $LN3+126
	DD	imagerel $unwind$??0?$tmat2x2@M$0A@@glm@@QEAA@AEBU?$tmat3x2@M$0A@@1@@Z
pdata	ENDS
;	COMDAT pdata
pdata	SEGMENT
$pdata$??0?$tmat2x2@M$0A@@glm@@QEAA@AEBU?$tmat2x4@M$0A@@1@@Z DD imagerel $LN3
	DD	imagerel $LN3+152
	DD	imagerel $unwind$??0?$tmat2x2@M$0A@@glm@@QEAA@AEBU?$tmat2x4@M$0A@@1@@Z
pdata	ENDS
;	COMDAT pdata
pdata	SEGMENT
$pdata$??0?$tmat2x2@M$0A@@glm@@QEAA@AEBU?$tmat4x2@M$0A@@1@@Z DD imagerel $LN3
	DD	imagerel $LN3+126
	DD	imagerel $unwind$??0?$tmat2x2@M$0A@@glm@@QEAA@AEBU?$tmat4x2@M$0A@@1@@Z
pdata	ENDS
;	COMDAT pdata
pdata	SEGMENT
$pdata$??0?$tmat2x2@M$0A@@glm@@QEAA@AEBU?$tmat3x4@M$0A@@1@@Z DD imagerel $LN3
	DD	imagerel $LN3+152
	DD	imagerel $unwind$??0?$tmat2x2@M$0A@@glm@@QEAA@AEBU?$tmat3x4@M$0A@@1@@Z
pdata	ENDS
;	COMDAT pdata
pdata	SEGMENT
$pdata$??0?$tmat2x2@M$0A@@glm@@QEAA@AEBU?$tmat4x3@M$0A@@1@@Z DD imagerel $LN3
	DD	imagerel $LN3+152
	DD	imagerel $unwind$??0?$tmat2x2@M$0A@@glm@@QEAA@AEBU?$tmat4x3@M$0A@@1@@Z
pdata	ENDS
;	COMDAT pdata
pdata	SEGMENT
$pdata$?length@?$tmat2x2@M$0A@@glm@@SAHXZ DD imagerel $LN3
	DD	imagerel $LN3+9
	DD	imagerel $unwind$?length@?$tmat2x2@M$0A@@glm@@SAHXZ
pdata	ENDS
;	COMDAT pdata
pdata	SEGMENT
$pdata$??A?$tmat2x2@M$0A@@glm@@QEAAAEAU?$tvec2@M$0A@@1@H@Z DD imagerel $LN4
	DD	imagerel $LN4+73
	DD	imagerel $unwind$??A?$tmat2x2@M$0A@@glm@@QEAAAEAU?$tvec2@M$0A@@1@H@Z
pdata	ENDS
;	COMDAT pdata
pdata	SEGMENT
$pdata$??A?$tmat2x2@M$0A@@glm@@QEBAAEBU?$tvec2@M$0A@@1@H@Z DD imagerel $LN4
	DD	imagerel $LN4+73
	DD	imagerel $unwind$??A?$tmat2x2@M$0A@@glm@@QEBAAEBU?$tvec2@M$0A@@1@H@Z
pdata	ENDS
;	COMDAT pdata
pdata	SEGMENT
$pdata$??0?$tvec4@M$0A@@glm@@QEAA@XZ DD imagerel $LN3
	DD	imagerel $LN3+64
	DD	imagerel $unwind$??0?$tvec4@M$0A@@glm@@QEAA@XZ
pdata	ENDS
;	COMDAT pdata
pdata	SEGMENT
$pdata$??0?$tvec4@M$0A@@glm@@QEAA@MMMM@Z DD imagerel $LN3
	DD	imagerel $LN3+94
	DD	imagerel $unwind$??0?$tvec4@M$0A@@glm@@QEAA@MMMM@Z
pdata	ENDS
;	COMDAT pdata
pdata	SEGMENT
$pdata$??0?$tmat3x4@M$0A@@glm@@QEAA@M@Z DD imagerel $LN3
	DD	imagerel $LN3+256
	DD	imagerel $unwind$??0?$tmat3x4@M$0A@@glm@@QEAA@M@Z
pdata	ENDS
;	COMDAT pdata
pdata	SEGMENT
$pdata$?length@?$tmat3x4@M$0A@@glm@@SAHXZ DD imagerel $LN3
	DD	imagerel $LN3+9
	DD	imagerel $unwind$?length@?$tmat3x4@M$0A@@glm@@SAHXZ
pdata	ENDS
;	COMDAT pdata
pdata	SEGMENT
$pdata$??A?$tmat3x4@M$0A@@glm@@QEBAAEBU?$tvec4@M$0A@@1@H@Z DD imagerel $LN4
	DD	imagerel $LN4+79
	DD	imagerel $unwind$??A?$tmat3x4@M$0A@@glm@@QEBAAEBU?$tvec4@M$0A@@1@H@Z
pdata	ENDS
;	COMDAT pdata
pdata	SEGMENT
$pdata$??0?$tmat4x2@M$0A@@glm@@QEAA@M@Z DD imagerel $LN3
	DD	imagerel $LN3+209
	DD	imagerel $unwind$??0?$tmat4x2@M$0A@@glm@@QEAA@M@Z
pdata	ENDS
;	COMDAT pdata
pdata	SEGMENT
$pdata$?length@?$tmat4x2@M$0A@@glm@@SAHXZ DD imagerel $LN3
	DD	imagerel $LN3+9
	DD	imagerel $unwind$?length@?$tmat4x2@M$0A@@glm@@SAHXZ
pdata	ENDS
;	COMDAT pdata
pdata	SEGMENT
$pdata$??A?$tmat4x2@M$0A@@glm@@QEBAAEBU?$tvec2@M$0A@@1@H@Z DD imagerel $LN4
	DD	imagerel $LN4+73
	DD	imagerel $unwind$??A?$tmat4x2@M$0A@@glm@@QEBAAEBU?$tvec2@M$0A@@1@H@Z
pdata	ENDS
;	COMDAT pdata
pdata	SEGMENT
$pdata$??0?$tmat2x4@M$0A@@glm@@QEAA@M@Z DD imagerel $LN3
	DD	imagerel $LN3+205
	DD	imagerel $unwind$??0?$tmat2x4@M$0A@@glm@@QEAA@M@Z
pdata	ENDS
;	COMDAT pdata
pdata	SEGMENT
$pdata$?length@?$tmat2x4@M$0A@@glm@@SAHXZ DD imagerel $LN3
	DD	imagerel $LN3+9
	DD	imagerel $unwind$?length@?$tmat2x4@M$0A@@glm@@SAHXZ
pdata	ENDS
;	COMDAT pdata
pdata	SEGMENT
$pdata$??A?$tmat2x4@M$0A@@glm@@QEBAAEBU?$tvec4@M$0A@@1@H@Z DD imagerel $LN4
	DD	imagerel $LN4+79
	DD	imagerel $unwind$??A?$tmat2x4@M$0A@@glm@@QEBAAEBU?$tvec4@M$0A@@1@H@Z
pdata	ENDS
;	COMDAT pdata
pdata	SEGMENT
$pdata$??0?$tmat3x2@M$0A@@glm@@QEAA@M@Z DD imagerel $LN3
	DD	imagerel $LN3+173
	DD	imagerel $unwind$??0?$tmat3x2@M$0A@@glm@@QEAA@M@Z
pdata	ENDS
;	COMDAT pdata
pdata	SEGMENT
$pdata$?length@?$tmat3x2@M$0A@@glm@@SAHXZ DD imagerel $LN3
	DD	imagerel $LN3+9
	DD	imagerel $unwind$?length@?$tmat3x2@M$0A@@glm@@SAHXZ
pdata	ENDS
;	COMDAT pdata
pdata	SEGMENT
$pdata$??A?$tmat3x2@M$0A@@glm@@QEBAAEBU?$tvec2@M$0A@@1@H@Z DD imagerel $LN4
	DD	imagerel $LN4+73
	DD	imagerel $unwind$??A?$tmat3x2@M$0A@@glm@@QEBAAEBU?$tvec2@M$0A@@1@H@Z
pdata	ENDS
;	COMDAT pdata
pdata	SEGMENT
$pdata$??0?$tvec3@M$0A@@glm@@QEAA@XZ DD imagerel $LN3
	DD	imagerel $LN3+51
	DD	imagerel $unwind$??0?$tvec3@M$0A@@glm@@QEAA@XZ
pdata	ENDS
;	COMDAT pdata
pdata	SEGMENT
$pdata$??0?$tmat2x3@M$0A@@glm@@QEAA@M@Z DD imagerel $LN3
	DD	imagerel $LN3+159
	DD	imagerel $unwind$??0?$tmat2x3@M$0A@@glm@@QEAA@M@Z
pdata	ENDS
;	COMDAT pdata
pdata	SEGMENT
$pdata$?length@?$tmat2x3@M$0A@@glm@@SAHXZ DD imagerel $LN3
	DD	imagerel $LN3+9
	DD	imagerel $unwind$?length@?$tmat2x3@M$0A@@glm@@SAHXZ
pdata	ENDS
;	COMDAT pdata
pdata	SEGMENT
$pdata$??A?$tmat2x3@M$0A@@glm@@QEBAAEBU?$tvec3@M$0A@@1@H@Z DD imagerel $LN4
	DD	imagerel $LN4+79
	DD	imagerel $unwind$??A?$tmat2x3@M$0A@@glm@@QEBAAEBU?$tvec3@M$0A@@1@H@Z
pdata	ENDS
;	COMDAT pdata
pdata	SEGMENT
$pdata$??0?$tmat4x4@M$0A@@glm@@QEAA@AEBM@Z DD imagerel $LN3
	DD	imagerel $LN3+331
	DD	imagerel $unwind$??0?$tmat4x4@M$0A@@glm@@QEAA@AEBM@Z
pdata	ENDS
;	COMDAT pdata
pdata	SEGMENT
$pdata$?length@?$tmat4x4@M$0A@@glm@@SAHXZ DD imagerel $LN3
	DD	imagerel $LN3+9
	DD	imagerel $unwind$?length@?$tmat4x4@M$0A@@glm@@SAHXZ
pdata	ENDS
;	COMDAT pdata
pdata	SEGMENT
$pdata$??A?$tmat4x4@M$0A@@glm@@QEBAAEBU?$tvec4@M$0A@@1@H@Z DD imagerel $LN4
	DD	imagerel $LN4+79
	DD	imagerel $unwind$??A?$tmat4x4@M$0A@@glm@@QEBAAEBU?$tvec4@M$0A@@1@H@Z
pdata	ENDS
;	COMDAT pdata
pdata	SEGMENT
$pdata$??0?$tmat3x3@M$0A@@glm@@QEAA@M@Z DD imagerel $LN3
	DD	imagerel $LN3+208
	DD	imagerel $unwind$??0?$tmat3x3@M$0A@@glm@@QEAA@M@Z
pdata	ENDS
;	COMDAT pdata
pdata	SEGMENT
$pdata$?length@?$tmat3x3@M$0A@@glm@@SAHXZ DD imagerel $LN3
	DD	imagerel $LN3+9
	DD	imagerel $unwind$?length@?$tmat3x3@M$0A@@glm@@SAHXZ
pdata	ENDS
;	COMDAT pdata
pdata	SEGMENT
$pdata$??A?$tmat3x3@M$0A@@glm@@QEBAAEBU?$tvec3@M$0A@@1@H@Z DD imagerel $LN4
	DD	imagerel $LN4+79
	DD	imagerel $unwind$??A?$tmat3x3@M$0A@@glm@@QEBAAEBU?$tvec3@M$0A@@1@H@Z
pdata	ENDS
;	COMDAT pdata
pdata	SEGMENT
$pdata$??0?$tmat4x3@M$0A@@glm@@QEAA@AEBM@Z DD imagerel $LN3
	DD	imagerel $LN3+262
	DD	imagerel $unwind$??0?$tmat4x3@M$0A@@glm@@QEAA@AEBM@Z
pdata	ENDS
;	COMDAT pdata
pdata	SEGMENT
$pdata$?length@?$tmat4x3@M$0A@@glm@@SAHXZ DD imagerel $LN3
	DD	imagerel $LN3+9
	DD	imagerel $unwind$?length@?$tmat4x3@M$0A@@glm@@SAHXZ
pdata	ENDS
;	COMDAT pdata
pdata	SEGMENT
$pdata$??A?$tmat4x3@M$0A@@glm@@QEBAAEBU?$tvec3@M$0A@@1@H@Z DD imagerel $LN4
	DD	imagerel $LN4+79
	DD	imagerel $unwind$??A?$tmat4x3@M$0A@@glm@@QEBAAEBU?$tvec3@M$0A@@1@H@Z
pdata	ENDS
;	COMDAT pdata
pdata	SEGMENT
$pdata$??$?DM$0A@@glm@@YA?AU?$tvec2@M$0A@@0@AEBU?$tmat2x2@M$0A@@0@AEBU10@@Z DD imagerel $LN3
	DD	imagerel $LN3+251
	DD	imagerel $unwind$??$?DM$0A@@glm@@YA?AU?$tvec2@M$0A@@0@AEBU?$tmat2x2@M$0A@@0@AEBU10@@Z
pdata	ENDS
;	COMDAT pdata
pdata	SEGMENT
$pdata$??$?DM$0A@@glm@@YA?AU?$tvec2@M$0A@@0@AEBU10@AEBU?$tmat2x2@M$0A@@0@@Z DD imagerel $LN3
	DD	imagerel $LN3+251
	DD	imagerel $unwind$??$?DM$0A@@glm@@YA?AU?$tvec2@M$0A@@0@AEBU10@AEBU?$tmat2x2@M$0A@@0@@Z
pdata	ENDS
;	COMDAT pdata
pdata	SEGMENT
$pdata$??$?KM$0A@@glm@@YA?AU?$tmat2x2@M$0A@@0@MAEBU10@@Z DD imagerel $LN3
	DD	imagerel $LN3+123
	DD	imagerel $unwind$??$?KM$0A@@glm@@YA?AU?$tmat2x2@M$0A@@0@MAEBU10@@Z
pdata	ENDS
;	COMDAT pdata
pdata	SEGMENT
$pdata$??$?KM$0A@@glm@@YA?AU?$tmat2x2@M$0A@@0@AEBU10@M@Z DD imagerel $LN3
	DD	imagerel $LN3+123
	DD	imagerel $unwind$??$?KM$0A@@glm@@YA?AU?$tmat2x2@M$0A@@0@AEBU10@M@Z
pdata	ENDS
;	COMDAT pdata
pdata	SEGMENT
$pdata$??$?DM$0A@@glm@@YA?AU?$tmat2x2@M$0A@@0@MAEBU10@@Z DD imagerel $LN3
	DD	imagerel $LN3+123
	DD	imagerel $unwind$??$?DM$0A@@glm@@YA?AU?$tmat2x2@M$0A@@0@MAEBU10@@Z
pdata	ENDS
;	COMDAT pdata
pdata	SEGMENT
$pdata$??$?DM$0A@@glm@@YA?AU?$tmat2x2@M$0A@@0@AEBU10@M@Z DD imagerel $LN3
	DD	imagerel $LN3+123
	DD	imagerel $unwind$??$?DM$0A@@glm@@YA?AU?$tmat2x2@M$0A@@0@AEBU10@M@Z
pdata	ENDS
;	COMDAT pdata
pdata	SEGMENT
$pdata$??$?9M$0A@@glm@@YA_NAEBU?$tmat2x2@M$0A@@0@0@Z DD imagerel $LN5
	DD	imagerel $LN5+154
	DD	imagerel $unwind$??$?9M$0A@@glm@@YA_NAEBU?$tmat2x2@M$0A@@0@0@Z
pdata	ENDS
;	COMDAT pdata
pdata	SEGMENT
$pdata$??$?8M$0A@@glm@@YA_NAEBU?$tmat2x2@M$0A@@0@0@Z DD imagerel $LN5
	DD	imagerel $LN5+154
	DD	imagerel $unwind$??$?8M$0A@@glm@@YA_NAEBU?$tmat2x2@M$0A@@0@0@Z
pdata	ENDS
pdata	SEGMENT
$pdata$?test_inverse@@YAHXZ DD imagerel $LN11
	DD	imagerel $LN11+1046
	DD	imagerel $unwind$?test_inverse@@YAHXZ
pdata	ENDS
;	COMDAT pdata
pdata	SEGMENT
$pdata$??$?0HHHH@?$tmat2x2@M$0A@@glm@@QEAA@AEBH000@Z DD imagerel $LN3
	DD	imagerel $LN3+171
	DD	imagerel $unwind$??$?0HHHH@?$tmat2x2@M$0A@@glm@@QEAA@AEBH000@Z
pdata	ENDS
;	COMDAT pdata
pdata	SEGMENT
$pdata$??$inverse@M$0A@Utmat2x2@glm@@@glm@@YA?AU?$tmat2x2@M$0A@@0@AEBU10@@Z DD imagerel $LN3
	DD	imagerel $LN3+41
	DD	imagerel $unwind$??$inverse@M$0A@Utmat2x2@glm@@@glm@@YA?AU?$tmat2x2@M$0A@@0@AEBU10@@Z
pdata	ENDS
;	COMDAT pdata
pdata	SEGMENT
$pdata$??$?DM$0A@@glm@@YA?AU?$tmat2x2@M$0A@@0@AEBU10@0@Z DD imagerel $LN3
	DD	imagerel $LN3+794
	DD	imagerel $unwind$??$?DM$0A@@glm@@YA?AU?$tmat2x2@M$0A@@0@AEBU10@0@Z
pdata	ENDS
;	COMDAT pdata
pdata	SEGMENT
$pdata$??$epsilonEqual@M$0A@Utvec2@glm@@@glm@@YA?AU?$tvec2@_N$0A@@0@AEBU?$tvec2@M$0A@@0@00@Z DD imagerel $LN3
	DD	imagerel $LN3+100
	DD	imagerel $unwind$??$epsilonEqual@M$0A@Utvec2@glm@@@glm@@YA?AU?$tvec2@_N$0A@@0@AEBU?$tvec2@M$0A@@0@00@Z
pdata	ENDS
;	COMDAT pdata
pdata	SEGMENT
$pdata$?length@?$tvec2@_N$0A@@glm@@SAHXZ DD imagerel $LN3
	DD	imagerel $LN3+9
	DD	imagerel $unwind$?length@?$tvec2@_N$0A@@glm@@SAHXZ
pdata	ENDS
;	COMDAT pdata
pdata	SEGMENT
$pdata$??A?$tvec2@_N$0A@@glm@@QEAAAEA_NH@Z DD imagerel $LN5
	DD	imagerel $LN5+82
	DD	imagerel $unwind$??A?$tvec2@_N$0A@@glm@@QEAAAEA_NH@Z
pdata	ENDS
;	COMDAT pdata
pdata	SEGMENT
$pdata$??A?$tvec2@_N$0A@@glm@@QEBAAEB_NH@Z DD imagerel $LN5
	DD	imagerel $LN5+82
	DD	imagerel $unwind$??A?$tvec2@_N$0A@@glm@@QEBAAEB_NH@Z
pdata	ENDS
;	COMDAT pdata
pdata	SEGMENT
$pdata$??0?$tvec2@_N$0A@@glm@@QEAA@W4ctor@1@@Z DD imagerel $LN3
	DD	imagerel $LN3+17
	DD	imagerel $unwind$??0?$tvec2@_N$0A@@glm@@QEAA@W4ctor@1@@Z
pdata	ENDS
;	COMDAT pdata
pdata	SEGMENT
$pdata$??$all@$0A@Utvec2@glm@@@glm@@YA_NAEBU?$tvec2@_N$0A@@0@@Z DD imagerel $LN8
	DD	imagerel $LN8+116
	DD	imagerel $unwind$??$all@$0A@Utvec2@glm@@@glm@@YA_NAEBU?$tvec2@_N$0A@@0@@Z
pdata	ENDS
;	COMDAT pdata
pdata	SEGMENT
$pdata$??$?KM$0A@@glm@@YA?AU?$tmat2x2@M$0A@@0@AEBU10@0@Z DD imagerel $LN3
	DD	imagerel $LN3+169
	DD	imagerel $unwind$??$?KM$0A@@glm@@YA?AU?$tmat2x2@M$0A@@0@AEBU10@0@Z
pdata	ENDS
pdata	SEGMENT
$pdata$?test_ctr@@YAHXZ DD imagerel $LN15
	DD	imagerel $LN15+1298
	DD	imagerel $unwind$?test_ctr@@YAHXZ
pdata	ENDS
pdata	SEGMENT
$pdata$?dtor$0@?0??test_ctr@@YAHXZ@4HA DD imagerel ?dtor$0@?0??test_ctr@@YAHXZ@4HA
	DD	imagerel ?dtor$0@?0??test_ctr@@YAHXZ@4HA+38
	DD	imagerel $unwind$?dtor$0@?0??test_ctr@@YAHXZ@4HA
pdata	ENDS
;	COMDAT pdata
pdata	SEGMENT
$pdata$??$?0HH@?$tvec2@M$0A@@glm@@QEAA@HH@Z DD imagerel $LN3
	DD	imagerel $LN3+53
	DD	imagerel $unwind$??$?0HH@?$tvec2@M$0A@@glm@@QEAA@HH@Z
pdata	ENDS
;	COMDAT pdata
pdata	SEGMENT
$pdata$??$equal@M$0A@Utvec2@glm@@@glm@@YA?AU?$tvec2@_N$0A@@0@AEBU?$tvec2@M$0A@@0@0@Z DD imagerel $LN9
	DD	imagerel $LN9+270
	DD	imagerel $unwind$??$equal@M$0A@Utvec2@glm@@@glm@@YA?AU?$tvec2@_N$0A@@0@AEBU?$tvec2@M$0A@@0@0@Z
pdata	ENDS
;	COMDAT pdata
pdata	SEGMENT
$pdata$??0?$allocator@U?$tmat2x2@M$0A@@glm@@@std@@QEAA@XZ DD imagerel $LN3
	DD	imagerel $LN3+13
	DD	imagerel $unwind$??0?$allocator@U?$tmat2x2@M$0A@@glm@@@std@@QEAA@XZ
pdata	ENDS
;	COMDAT pdata
pdata	SEGMENT
$pdata$?deallocate@?$allocator@U?$tmat2x2@M$0A@@glm@@@std@@QEAAXQEAU?$tmat2x2@M$0A@@glm@@_K@Z DD imagerel $LN13
	DD	imagerel $LN13+180
	DD	imagerel $unwind$?deallocate@?$allocator@U?$tmat2x2@M$0A@@glm@@@std@@QEAAXQEAU?$tmat2x2@M$0A@@glm@@_K@Z
pdata	ENDS
;	COMDAT pdata
pdata	SEGMENT
$pdata$?allocate@?$allocator@U?$tmat2x2@M$0A@@glm@@@std@@QEAAPEAU?$tmat2x2@M$0A@@glm@@_K@Z DD imagerel $LN3
	DD	imagerel $LN3+39
	DD	imagerel $unwind$?allocate@?$allocator@U?$tmat2x2@M$0A@@glm@@@std@@QEAAPEAU?$tmat2x2@M$0A@@glm@@_K@Z
pdata	ENDS
;	COMDAT pdata
pdata	SEGMENT
$pdata$?max_size@?$_Default_allocator_traits@V?$allocator@U?$tmat2x2@M$0A@@glm@@@std@@@std@@SA_KAEBV?$allocator@U?$tmat2x2@M$0A@@glm@@@2@@Z DD imagerel $LN3
	DD	imagerel $LN3+18
	DD	imagerel $unwind$?max_size@?$_Default_allocator_traits@V?$allocator@U?$tmat2x2@M$0A@@glm@@@std@@@std@@SA_KAEBV?$allocator@U?$tmat2x2@M$0A@@glm@@@2@@Z
pdata	ENDS
;	COMDAT pdata
pdata	SEGMENT
$pdata$??0?$vector@U?$tmat2x2@M$0A@@glm@@V?$allocator@U?$tmat2x2@M$0A@@glm@@@std@@@std@@QEAA@V?$initializer_list@U?$tmat2x2@M$0A@@glm@@@1@AEBV?$allocator@U?$tmat2x2@M$0A@@glm@@@1@@Z DD imagerel $LN3
	DD	imagerel $LN3+125
	DD	imagerel $unwind$??0?$vector@U?$tmat2x2@M$0A@@glm@@V?$allocator@U?$tmat2x2@M$0A@@glm@@@std@@@std@@QEAA@V?$initializer_list@U?$tmat2x2@M$0A@@glm@@@1@AEBV?$allocator@U?$tmat2x2@M$0A@@glm@@@1@@Z
pdata	ENDS
;	COMDAT pdata
pdata	SEGMENT
$pdata$??1?$vector@U?$tmat2x2@M$0A@@glm@@V?$allocator@U?$tmat2x2@M$0A@@glm@@@std@@@std@@QEAA@XZ DD imagerel $LN3
	DD	imagerel $LN3+136
	DD	imagerel $unwind$??1?$vector@U?$tmat2x2@M$0A@@glm@@V?$allocator@U?$tmat2x2@M$0A@@glm@@@std@@@std@@QEAA@XZ
pdata	ENDS
;	COMDAT pdata
pdata	SEGMENT
$pdata$?max_size@?$vector@U?$tmat2x2@M$0A@@glm@@V?$allocator@U?$tmat2x2@M$0A@@glm@@@std@@@std@@QEBA_KXZ DD imagerel $LN3
	DD	imagerel $LN3+67
	DD	imagerel $unwind$?max_size@?$vector@U?$tmat2x2@M$0A@@glm@@V?$allocator@U?$tmat2x2@M$0A@@glm@@@std@@@std@@QEBA_KXZ
pdata	ENDS
;	COMDAT pdata
pdata	SEGMENT
$pdata$?_Buy_raw@?$vector@U?$tmat2x2@M$0A@@glm@@V?$allocator@U?$tmat2x2@M$0A@@glm@@@std@@@std@@AEAAX_K@Z DD imagerel $LN3
	DD	imagerel $LN3+152
	DD	imagerel $unwind$?_Buy_raw@?$vector@U?$tmat2x2@M$0A@@glm@@V?$allocator@U?$tmat2x2@M$0A@@glm@@@std@@@std@@AEAAX_K@Z
pdata	ENDS
;	COMDAT pdata
pdata	SEGMENT
$pdata$?_Buy_nonzero@?$vector@U?$tmat2x2@M$0A@@glm@@V?$allocator@U?$tmat2x2@M$0A@@glm@@@std@@@std@@AEAAX_K@Z DD imagerel $LN4
	DD	imagerel $LN4+58
	DD	imagerel $unwind$?_Buy_nonzero@?$vector@U?$tmat2x2@M$0A@@glm@@V?$allocator@U?$tmat2x2@M$0A@@glm@@@std@@@std@@AEAAX_K@Z
pdata	ENDS
;	COMDAT pdata
pdata	SEGMENT
$pdata$?_Tidy@?$vector@U?$tmat2x2@M$0A@@glm@@V?$allocator@U?$tmat2x2@M$0A@@glm@@@std@@@std@@AEAAXXZ DD imagerel $LN4
	DD	imagerel $LN4+210
	DD	imagerel $unwind$?_Tidy@?$vector@U?$tmat2x2@M$0A@@glm@@V?$allocator@U?$tmat2x2@M$0A@@glm@@@std@@@std@@AEAAXXZ
pdata	ENDS
;	COMDAT pdata
pdata	SEGMENT
$pdata$?_Xlength@?$vector@U?$tmat2x2@M$0A@@glm@@V?$allocator@U?$tmat2x2@M$0A@@glm@@@std@@@std@@CAXXZ DD imagerel $LN3
	DD	imagerel $LN3+24
	DD	imagerel $unwind$?_Xlength@?$vector@U?$tmat2x2@M$0A@@glm@@V?$allocator@U?$tmat2x2@M$0A@@glm@@@std@@@std@@CAXXZ
pdata	ENDS
;	COMDAT pdata
pdata	SEGMENT
$pdata$?_Getal@?$vector@U?$tmat2x2@M$0A@@glm@@V?$allocator@U?$tmat2x2@M$0A@@glm@@@std@@@std@@AEAAAEAV?$allocator@U?$tmat2x2@M$0A@@glm@@@2@XZ DD imagerel $LN3
	DD	imagerel $LN3+29
	DD	imagerel $unwind$?_Getal@?$vector@U?$tmat2x2@M$0A@@glm@@V?$allocator@U?$tmat2x2@M$0A@@glm@@@std@@@std@@AEAAAEAV?$allocator@U?$tmat2x2@M$0A@@glm@@@2@XZ
pdata	ENDS
;	COMDAT pdata
pdata	SEGMENT
$pdata$?_Getal@?$vector@U?$tmat2x2@M$0A@@glm@@V?$allocator@U?$tmat2x2@M$0A@@glm@@@std@@@std@@AEBAAEBV?$allocator@U?$tmat2x2@M$0A@@glm@@@2@XZ DD imagerel $LN3
	DD	imagerel $LN3+29
	DD	imagerel $unwind$?_Getal@?$vector@U?$tmat2x2@M$0A@@glm@@V?$allocator@U?$tmat2x2@M$0A@@glm@@@std@@@std@@AEBAAEBV?$allocator@U?$tmat2x2@M$0A@@glm@@@2@XZ
pdata	ENDS
;	COMDAT pdata
pdata	SEGMENT
$pdata$??0?$_Vector_val@U?$_Simple_types@U?$tmat2x2@M$0A@@glm@@@std@@@std@@QEAA@XZ DD imagerel $LN3
	DD	imagerel $LN3+70
	DD	imagerel $unwind$??0?$_Vector_val@U?$_Simple_types@U?$tmat2x2@M$0A@@glm@@@std@@@std@@QEAA@XZ
pdata	ENDS
;	COMDAT pdata
pdata	SEGMENT
$pdata$?_Get_first@?$_Compressed_pair@V?$allocator@U?$tmat2x2@M$0A@@glm@@@std@@V?$_Vector_val@U?$_Simple_types@U?$tmat2x2@M$0A@@glm@@@std@@@2@$00@std@@QEAAAEAV?$allocator@U?$tmat2x2@M$0A@@glm@@@2@XZ DD imagerel $LN3
	DD	imagerel $LN3+13
	DD	imagerel $unwind$?_Get_first@?$_Compressed_pair@V?$allocator@U?$tmat2x2@M$0A@@glm@@@std@@V?$_Vector_val@U?$_Simple_types@U?$tmat2x2@M$0A@@glm@@@std@@@2@$00@std@@QEAAAEAV?$allocator@U?$tmat2x2@M$0A@@glm@@@2@XZ
pdata	ENDS
;	COMDAT pdata
pdata	SEGMENT
$pdata$?_Get_first@?$_Compressed_pair@V?$allocator@U?$tmat2x2@M$0A@@glm@@@std@@V?$_Vector_val@U?$_Simple_types@U?$tmat2x2@M$0A@@glm@@@std@@@2@$00@std@@QEBAAEBV?$allocator@U?$tmat2x2@M$0A@@glm@@@2@XZ DD imagerel $LN3
	DD	imagerel $LN3+13
	DD	imagerel $unwind$?_Get_first@?$_Compressed_pair@V?$allocator@U?$tmat2x2@M$0A@@glm@@@std@@V?$_Vector_val@U?$_Simple_types@U?$tmat2x2@M$0A@@glm@@@std@@@2@$00@std@@QEBAAEBV?$allocator@U?$tmat2x2@M$0A@@glm@@@2@XZ
pdata	ENDS
;	COMDAT pdata
pdata	SEGMENT
$pdata$??0?$initializer_list@U?$tmat2x2@M$0A@@glm@@@std@@QEAA@PEBU?$tmat2x2@M$0A@@glm@@0@Z DD imagerel $LN3
	DD	imagerel $LN3+50
	DD	imagerel $unwind$??0?$initializer_list@U?$tmat2x2@M$0A@@glm@@@std@@QEAA@PEBU?$tmat2x2@M$0A@@glm@@0@Z
pdata	ENDS
;	COMDAT pdata
pdata	SEGMENT
$pdata$?begin@?$initializer_list@U?$tmat2x2@M$0A@@glm@@@std@@QEBAPEBU?$tmat2x2@M$0A@@glm@@XZ DD imagerel $LN3
	DD	imagerel $LN3+16
	DD	imagerel $unwind$?begin@?$initializer_list@U?$tmat2x2@M$0A@@glm@@@std@@QEBAPEBU?$tmat2x2@M$0A@@glm@@XZ
pdata	ENDS
;	COMDAT pdata
pdata	SEGMENT
$pdata$?end@?$initializer_list@U?$tmat2x2@M$0A@@glm@@@std@@QEBAPEBU?$tmat2x2@M$0A@@glm@@XZ DD imagerel $LN3
	DD	imagerel $LN3+17
	DD	imagerel $unwind$?end@?$initializer_list@U?$tmat2x2@M$0A@@glm@@@std@@QEBAPEBU?$tmat2x2@M$0A@@glm@@XZ
pdata	ENDS
;	COMDAT pdata
pdata	SEGMENT
$pdata$?size@?$initializer_list@U?$tmat2x2@M$0A@@glm@@@std@@QEBA_KXZ DD imagerel $LN3
	DD	imagerel $LN3+32
	DD	imagerel $unwind$?size@?$initializer_list@U?$tmat2x2@M$0A@@glm@@@std@@QEBA_KXZ
pdata	ENDS
pdata	SEGMENT
$pdata$?test@cast@@YAHXZ DD imagerel $LN3
	DD	imagerel $LN3+177
	DD	imagerel $unwind$?test@cast@@YAHXZ
pdata	ENDS
;	COMDAT pdata
pdata	SEGMENT
$pdata$??$entry@U?$tmat2x2@M$0A@@glm@@@cast@@YAHXZ DD imagerel $LN8
	DD	imagerel $LN8+360
	DD	imagerel $unwind$??$entry@U?$tmat2x2@M$0A@@glm@@@cast@@YAHXZ
pdata	ENDS
;	COMDAT pdata
pdata	SEGMENT
$pdata$??$entry@U?$tmat2x3@M$0A@@glm@@@cast@@YAHXZ DD imagerel $LN8
	DD	imagerel $LN8+350
	DD	imagerel $unwind$??$entry@U?$tmat2x3@M$0A@@glm@@@cast@@YAHXZ
pdata	ENDS
;	COMDAT pdata
pdata	SEGMENT
$pdata$??$entry@U?$tmat2x4@M$0A@@glm@@@cast@@YAHXZ DD imagerel $LN8
	DD	imagerel $LN8+350
	DD	imagerel $unwind$??$entry@U?$tmat2x4@M$0A@@glm@@@cast@@YAHXZ
pdata	ENDS
;	COMDAT pdata
pdata	SEGMENT
$pdata$??$entry@U?$tmat3x2@M$0A@@glm@@@cast@@YAHXZ DD imagerel $LN8
	DD	imagerel $LN8+350
	DD	imagerel $unwind$??$entry@U?$tmat3x2@M$0A@@glm@@@cast@@YAHXZ
pdata	ENDS
;	COMDAT pdata
pdata	SEGMENT
$pdata$??$entry@U?$tmat3x3@M$0A@@glm@@@cast@@YAHXZ DD imagerel $LN8
	DD	imagerel $LN8+350
	DD	imagerel $unwind$??$entry@U?$tmat3x3@M$0A@@glm@@@cast@@YAHXZ
pdata	ENDS
;	COMDAT pdata
pdata	SEGMENT
$pdata$??$entry@U?$tmat3x4@M$0A@@glm@@@cast@@YAHXZ DD imagerel $LN8
	DD	imagerel $LN8+356
	DD	imagerel $unwind$??$entry@U?$tmat3x4@M$0A@@glm@@@cast@@YAHXZ
pdata	ENDS
;	COMDAT pdata
pdata	SEGMENT
$pdata$??$entry@U?$tmat4x2@M$0A@@glm@@@cast@@YAHXZ DD imagerel $LN8
	DD	imagerel $LN8+350
	DD	imagerel $unwind$??$entry@U?$tmat4x2@M$0A@@glm@@@cast@@YAHXZ
pdata	ENDS
;	COMDAT pdata
pdata	SEGMENT
$pdata$??$entry@U?$tmat4x3@M$0A@@glm@@@cast@@YAHXZ DD imagerel $LN8
	DD	imagerel $LN8+373
	DD	imagerel $unwind$??$entry@U?$tmat4x3@M$0A@@glm@@@cast@@YAHXZ
pdata	ENDS
;	COMDAT pdata
pdata	SEGMENT
$pdata$??$entry@U?$tmat4x4@M$0A@@glm@@@cast@@YAHXZ DD imagerel $LN8
	DD	imagerel $LN8+373
	DD	imagerel $unwind$??$entry@U?$tmat4x4@M$0A@@glm@@@cast@@YAHXZ
pdata	ENDS
pdata	SEGMENT
$pdata$?test_size@@YAHXZ DD imagerel $LN11
	DD	imagerel $LN11+270
	DD	imagerel $unwind$?test_size@@YAHXZ
pdata	ENDS
;	COMDAT pdata
pdata	SEGMENT
$pdata$??0?$tvec2@N$0A@@glm@@QEAA@XZ DD imagerel $LN3
	DD	imagerel $LN3+38
	DD	imagerel $unwind$??0?$tvec2@N$0A@@glm@@QEAA@XZ
pdata	ENDS
;	COMDAT pdata
pdata	SEGMENT
$pdata$??0?$tmat2x2@N$0A@@glm@@QEAA@XZ DD imagerel $LN3
	DD	imagerel $LN3+146
	DD	imagerel $unwind$??0?$tmat2x2@N$0A@@glm@@QEAA@XZ
pdata	ENDS
;	COMDAT pdata
pdata	SEGMENT
$pdata$?length@?$tmat2x2@N$0A@@glm@@SAHXZ DD imagerel $LN3
	DD	imagerel $LN3+9
	DD	imagerel $unwind$?length@?$tmat2x2@N$0A@@glm@@SAHXZ
pdata	ENDS
pdata	SEGMENT
$pdata$main DD	imagerel $LN3
	DD	imagerel $LN3+109
	DD	imagerel $unwind$main
pdata	ENDS
;	COMDAT pdata
pdata	SEGMENT
$pdata$?allocate@?$allocator@U_Container_proxy@std@@@std@@QEAAPEAU_Container_proxy@2@_K@Z DD imagerel $LN3
	DD	imagerel $LN3+39
	DD	imagerel $unwind$?allocate@?$allocator@U_Container_proxy@std@@@std@@QEAAPEAU_Container_proxy@2@_K@Z
pdata	ENDS
;	COMDAT pdata
pdata	SEGMENT
$pdata$??$?0U?$tmat2x2@M$0A@@glm@@@?$allocator@U_Container_proxy@std@@@std@@QEAA@AEBV?$allocator@U?$tmat2x2@M$0A@@glm@@@1@@Z DD imagerel $LN3
	DD	imagerel $LN3+18
	DD	imagerel $unwind$??$?0U?$tmat2x2@M$0A@@glm@@@?$allocator@U_Container_proxy@std@@@std@@QEAA@AEBV?$allocator@U?$tmat2x2@M$0A@@glm@@@1@@Z
pdata	ENDS
;	COMDAT pdata
pdata	SEGMENT
$pdata$??$exchange@PEAU_Container_proxy@std@@$$T@std@@YAPEAU_Container_proxy@0@AEAPEAU10@$$QEA$$T@Z DD imagerel $LN3
	DD	imagerel $LN3+53
	DD	imagerel $unwind$??$exchange@PEAU_Container_proxy@std@@$$T@std@@YAPEAU_Container_proxy@0@AEAPEAU10@$$QEA$$T@Z
pdata	ENDS
;	COMDAT pdata
pdata	SEGMENT
$pdata$??$_Delete_plain_internal@V?$allocator@U_Container_proxy@std@@@std@@@std@@YAXAEAV?$allocator@U_Container_proxy@std@@@0@QEAU_Container_proxy@0@@Z DD imagerel $LN3
	DD	imagerel $LN3+36
	DD	imagerel $unwind$??$_Delete_plain_internal@V?$allocator@U_Container_proxy@std@@@std@@@std@@YAXAEAV?$allocator@U_Container_proxy@std@@@0@QEAU_Container_proxy@0@@Z
pdata	ENDS
;	COMDAT pdata
pdata	SEGMENT
$pdata$??$?0AEBV?$allocator@U?$tmat2x2@M$0A@@glm@@@std@@$$V@?$_Compressed_pair@V?$allocator@U?$tmat2x2@M$0A@@glm@@@std@@V?$_Vector_val@U?$_Simple_types@U?$tmat2x2@M$0A@@glm@@@std@@@2@$00@std@@QEAA@U_One_then_variadic_args_t@1@AEBV?$allocator@U?$tmat2x2@M$0A@@glm@@@1@@Z DD imagerel $LN3
	DD	imagerel $LN3+53
	DD	imagerel $unwind$??$?0AEBV?$allocator@U?$tmat2x2@M$0A@@glm@@@std@@$$V@?$_Compressed_pair@V?$allocator@U?$tmat2x2@M$0A@@glm@@@std@@V?$_Vector_val@U?$_Simple_types@U?$tmat2x2@M$0A@@glm@@@std@@@2@$00@std@@QEAA@U_One_then_variadic_args_t@1@AEBV?$allocator@U?$tmat2x2@M$0A@@glm@@@1@@Z
pdata	ENDS
;	COMDAT pdata
pdata	SEGMENT
$pdata$??$_Convert_size@_K@std@@YA_K_K@Z DD imagerel $LN3
	DD	imagerel $LN3+13
	DD	imagerel $unwind$??$_Convert_size@_K@std@@YA_K_K@Z
pdata	ENDS
;	COMDAT pdata
pdata	SEGMENT
$pdata$??$_Construct_n@PEBU?$tmat2x2@M$0A@@glm@@PEBU12@@?$vector@U?$tmat2x2@M$0A@@glm@@V?$allocator@U?$tmat2x2@M$0A@@glm@@@std@@@std@@AEAAX_K$$QEAPEBU?$tmat2x2@M$0A@@glm@@1@Z DD imagerel $LN6
	DD	imagerel $LN6+328
	DD	imagerel $unwind$??$_Construct_n@PEBU?$tmat2x2@M$0A@@glm@@PEBU12@@?$vector@U?$tmat2x2@M$0A@@glm@@V?$allocator@U?$tmat2x2@M$0A@@glm@@@std@@@std@@AEAAX_K$$QEAPEBU?$tmat2x2@M$0A@@glm@@1@Z
pdata	ENDS
;	COMDAT pdata
pdata	SEGMENT
$pdata$?dtor$0@?0???$_Construct_n@PEBU?$tmat2x2@M$0A@@glm@@PEBU12@@?$vector@U?$tmat2x2@M$0A@@glm@@V?$allocator@U?$tmat2x2@M$0A@@glm@@@std@@@std@@AEAAX_K$$QEAPEBU?$tmat2x2@M$0A@@glm@@1@Z@4HA DD imagerel ?dtor$0@?0???$_Construct_n@PEBU?$tmat2x2@M$0A@@glm@@PEBU12@@?$vector@U?$tmat2x2@M$0A@@glm@@V?$allocator@U?$tmat2x2@M$0A@@glm@@@std@@@std@@AEAAX_K$$QEAPEBU?$tmat2x2@M$0A@@glm@@1@Z@4HA
	DD	imagerel ?dtor$0@?0???$_Construct_n@PEBU?$tmat2x2@M$0A@@glm@@PEBU12@@?$vector@U?$tmat2x2@M$0A@@glm@@V?$allocator@U?$tmat2x2@M$0A@@glm@@@std@@@std@@AEAAX_K$$QEAPEBU?$tmat2x2@M$0A@@glm@@1@Z@4HA+35
	DD	imagerel $unwind$?dtor$0@?0???$_Construct_n@PEBU?$tmat2x2@M$0A@@glm@@PEBU12@@?$vector@U?$tmat2x2@M$0A@@glm@@V?$allocator@U?$tmat2x2@M$0A@@glm@@@std@@@std@@AEAAX_K$$QEAPEBU?$tmat2x2@M$0A@@glm@@1@Z@4HA
pdata	ENDS
;	COMDAT pdata
pdata	SEGMENT
$pdata$?dtor$1@?0???$_Construct_n@PEBU?$tmat2x2@M$0A@@glm@@PEBU12@@?$vector@U?$tmat2x2@M$0A@@glm@@V?$allocator@U?$tmat2x2@M$0A@@glm@@@std@@@std@@AEAAX_K$$QEAPEBU?$tmat2x2@M$0A@@glm@@1@Z@4HA DD imagerel ?dtor$1@?0???$_Construct_n@PEBU?$tmat2x2@M$0A@@glm@@PEBU12@@?$vector@U?$tmat2x2@M$0A@@glm@@V?$allocator@U?$tmat2x2@M$0A@@glm@@@std@@@std@@AEAAX_K$$QEAPEBU?$tmat2x2@M$0A@@glm@@1@Z@4HA
	DD	imagerel ?dtor$1@?0???$_Construct_n@PEBU?$tmat2x2@M$0A@@glm@@PEBU12@@?$vector@U?$tmat2x2@M$0A@@glm@@V?$allocator@U?$tmat2x2@M$0A@@glm@@@std@@@std@@AEAAX_K$$QEAPEBU?$tmat2x2@M$0A@@glm@@1@Z@4HA+38
	DD	imagerel $unwind$?dtor$1@?0???$_Construct_n@PEBU?$tmat2x2@M$0A@@glm@@PEBU12@@?$vector@U?$tmat2x2@M$0A@@glm@@V?$allocator@U?$tmat2x2@M$0A@@glm@@@std@@@std@@AEAAX_K$$QEAPEBU?$tmat2x2@M$0A@@glm@@1@Z@4HA
pdata	ENDS
;	COMDAT pdata
pdata	SEGMENT
$pdata$??$_Destroy_range@V?$allocator@U?$tmat2x2@M$0A@@glm@@@std@@@std@@YAXPEAU?$tmat2x2@M$0A@@glm@@QEAU12@AEAV?$allocator@U?$tmat2x2@M$0A@@glm@@@0@@Z DD imagerel $LN3
	DD	imagerel $LN3+18
	DD	imagerel $unwind$??$_Destroy_range@V?$allocator@U?$tmat2x2@M$0A@@glm@@@std@@@std@@YAXPEAU?$tmat2x2@M$0A@@glm@@QEAU12@AEAV?$allocator@U?$tmat2x2@M$0A@@glm@@@0@@Z
pdata	ENDS
;	COMDAT pdata
pdata	SEGMENT
$pdata$??$_Deallocate@$0BA@$0A@@std@@YAXPEAX_K@Z DD imagerel $LN4
	DD	imagerel $LN4+63
	DD	imagerel $unwind$??$_Deallocate@$0BA@$0A@@std@@YAXPEAX_K@Z
pdata	ENDS
;	COMDAT pdata
pdata	SEGMENT
$pdata$??$?0MH@?$tvec2@M$0A@@glm@@QEAA@MH@Z DD imagerel $LN3
	DD	imagerel $LN3+55
	DD	imagerel $unwind$??$?0MH@?$tvec2@M$0A@@glm@@QEAA@MH@Z
pdata	ENDS
;	COMDAT pdata
pdata	SEGMENT
$pdata$??$?0HM@?$tvec2@M$0A@@glm@@QEAA@HM@Z DD imagerel $LN3
	DD	imagerel $LN3+54
	DD	imagerel $unwind$??$?0HM@?$tvec2@M$0A@@glm@@QEAA@HM@Z
pdata	ENDS
;	COMDAT pdata
pdata	SEGMENT
$pdata$??$?0HH@?$tvec2@N$0A@@glm@@QEAA@HH@Z DD imagerel $LN3
	DD	imagerel $LN3+53
	DD	imagerel $unwind$??$?0HH@?$tvec2@N$0A@@glm@@QEAA@HH@Z
pdata	ENDS
;	COMDAT pdata
pdata	SEGMENT
$pdata$?call@?$compute_abs@M$00@detail@glm@@SAMM@Z DD imagerel $LN5
	DD	imagerel $LN5+71
	DD	imagerel $unwind$?call@?$compute_abs@M$00@detail@glm@@SAMM@Z
pdata	ENDS
;	COMDAT pdata
pdata	SEGMENT
$pdata$??$?KM$0A@@glm@@YA?AU?$tvec2@M$0A@@0@MAEBU10@@Z DD imagerel $LN3
	DD	imagerel $LN3+76
	DD	imagerel $unwind$??$?KM$0A@@glm@@YA?AU?$tvec2@M$0A@@0@MAEBU10@@Z
pdata	ENDS
;	COMDAT pdata
pdata	SEGMENT
$pdata$??$?KM$0A@@glm@@YA?AU?$tvec2@M$0A@@0@AEBU10@M@Z DD imagerel $LN3
	DD	imagerel $LN3+76
	DD	imagerel $unwind$??$?KM$0A@@glm@@YA?AU?$tvec2@M$0A@@0@AEBU10@M@Z
pdata	ENDS
;	COMDAT pdata
pdata	SEGMENT
$pdata$??$?DM$0A@@glm@@YA?AU?$tvec2@M$0A@@0@AEBU10@M@Z DD imagerel $LN3
	DD	imagerel $LN3+76
	DD	imagerel $unwind$??$?DM$0A@@glm@@YA?AU?$tvec2@M$0A@@0@AEBU10@M@Z
pdata	ENDS
;	COMDAT pdata
pdata	SEGMENT
$pdata$??$?9M$0A@@glm@@YA_NAEBU?$tvec2@M$0A@@0@0@Z DD imagerel $LN5
	DD	imagerel $LN5+85
	DD	imagerel $unwind$??$?9M$0A@@glm@@YA_NAEBU?$tvec2@M$0A@@0@0@Z
pdata	ENDS
;	COMDAT pdata
pdata	SEGMENT
$pdata$??$?8M$0A@@glm@@YA_NAEBU?$tvec2@M$0A@@0@0@Z DD imagerel $LN5
	DD	imagerel $LN5+85
	DD	imagerel $unwind$??$?8M$0A@@glm@@YA_NAEBU?$tvec2@M$0A@@0@0@Z
pdata	ENDS
;	COMDAT pdata
pdata	SEGMENT
$pdata$?call@?$compute_inverse@Utmat2x2@glm@@M$0A@$0A@@detail@glm@@SA?AU?$tmat2x2@M$0A@@3@AEBU43@@Z DD imagerel $LN3
	DD	imagerel $LN3+571
	DD	imagerel $unwind$?call@?$compute_inverse@Utmat2x2@glm@@M$0A@$0A@@detail@glm@@SA?AU?$tmat2x2@M$0A@@3@AEBU43@@Z
pdata	ENDS
;	COMDAT pdata
pdata	SEGMENT
$pdata$??$?GM$0A@@glm@@YA?AU?$tvec2@M$0A@@0@AEBU10@0@Z DD imagerel $LN3
	DD	imagerel $LN3+82
	DD	imagerel $unwind$??$?GM$0A@@glm@@YA?AU?$tvec2@M$0A@@0@AEBU10@0@Z
pdata	ENDS
;	COMDAT pdata
pdata	SEGMENT
$pdata$??$abs@M$0A@Utvec2@glm@@@glm@@YA?AU?$tvec2@M$0A@@0@AEBU10@@Z DD imagerel $LN3
	DD	imagerel $LN3+41
	DD	imagerel $unwind$??$abs@M$0A@Utvec2@glm@@@glm@@YA?AU?$tvec2@M$0A@@0@AEBU10@@Z
pdata	ENDS
;	COMDAT pdata
pdata	SEGMENT
$pdata$??$lessThan@M$0A@Utvec2@glm@@@glm@@YA?AU?$tvec2@_N$0A@@0@AEBU?$tvec2@M$0A@@0@0@Z DD imagerel $LN9
	DD	imagerel $LN9+268
	DD	imagerel $unwind$??$lessThan@M$0A@Utvec2@glm@@@glm@@YA?AU?$tvec2@_N$0A@@0@AEBU?$tvec2@M$0A@@0@0@Z
pdata	ENDS
;	COMDAT pdata
pdata	SEGMENT
$pdata$??$?_0M@?$tmat2x2@M$0A@@glm@@QEAAAEAU01@AEBU01@@Z DD imagerel $LN3
	DD	imagerel $LN3+77
	DD	imagerel $unwind$??$?_0M@?$tmat2x2@M$0A@@glm@@QEAAAEAU01@AEBU01@@Z
pdata	ENDS
;	COMDAT pdata
pdata	SEGMENT
$pdata$??$_Deallocate_plain@V?$allocator@U_Container_proxy@std@@@std@@@std@@YAXAEAV?$allocator@U_Container_proxy@std@@@0@QEAU_Container_proxy@0@@Z DD imagerel $LN3
	DD	imagerel $LN3+43
	DD	imagerel $unwind$??$_Deallocate_plain@V?$allocator@U_Container_proxy@std@@@std@@@std@@YAXAEAV?$allocator@U_Container_proxy@std@@@0@QEAU_Container_proxy@0@@Z
pdata	ENDS
;	COMDAT pdata
pdata	SEGMENT
$pdata$??$forward@AEBV?$allocator@U?$tmat2x2@M$0A@@glm@@@std@@@std@@YAAEBV?$allocator@U?$tmat2x2@M$0A@@glm@@@0@AEBV10@@Z DD imagerel $LN3
	DD	imagerel $LN3+13
	DD	imagerel $unwind$??$forward@AEBV?$allocator@U?$tmat2x2@M$0A@@glm@@@std@@@std@@YAAEBV?$allocator@U?$tmat2x2@M$0A@@glm@@@0@AEBV10@@Z
pdata	ENDS
;	COMDAT pdata
pdata	SEGMENT
$pdata$??0?$_Container_proxy_ptr12@V?$allocator@U_Container_proxy@std@@@std@@@std@@QEAA@AEAV?$allocator@U_Container_proxy@std@@@1@AEAU_Container_base12@1@@Z DD imagerel $LN3
	DD	imagerel $LN3+135
	DD	imagerel $unwind$??0?$_Container_proxy_ptr12@V?$allocator@U_Container_proxy@std@@@std@@@std@@QEAA@AEAV?$allocator@U_Container_proxy@std@@@1@AEAU_Container_base12@1@@Z
pdata	ENDS
;	COMDAT pdata
pdata	SEGMENT
$pdata$??1?$_Container_proxy_ptr12@V?$allocator@U_Container_proxy@std@@@std@@@std@@QEAA@XZ DD imagerel $LN4
	DD	imagerel $LN4+49
	DD	imagerel $unwind$??1?$_Container_proxy_ptr12@V?$allocator@U_Container_proxy@std@@@std@@@std@@QEAA@XZ
pdata	ENDS
;	COMDAT pdata
pdata	SEGMENT
$pdata$??1?$_Tidy_guard@V?$vector@U?$tmat2x2@M$0A@@glm@@V?$allocator@U?$tmat2x2@M$0A@@glm@@@std@@@std@@@std@@QEAA@XZ DD imagerel $LN4
	DD	imagerel $LN4+40
	DD	imagerel $unwind$??1?$_Tidy_guard@V?$vector@U?$tmat2x2@M$0A@@glm@@V?$allocator@U?$tmat2x2@M$0A@@glm@@@std@@@std@@@std@@QEAA@XZ
pdata	ENDS
;	COMDAT pdata
pdata	SEGMENT
$pdata$??$forward@PEBU?$tmat2x2@M$0A@@glm@@@std@@YA$$QEAPEBU?$tmat2x2@M$0A@@glm@@AEAPEBU12@@Z DD imagerel $LN3
	DD	imagerel $LN3+13
	DD	imagerel $unwind$??$forward@PEBU?$tmat2x2@M$0A@@glm@@@std@@YA$$QEAPEBU?$tmat2x2@M$0A@@glm@@AEAPEBU12@@Z
pdata	ENDS
;	COMDAT pdata
pdata	SEGMENT
$pdata$??$_Uninitialized_copy@PEBU?$tmat2x2@M$0A@@glm@@V?$allocator@U?$tmat2x2@M$0A@@glm@@@std@@@std@@YAPEAU?$tmat2x2@M$0A@@glm@@QEBU12@0PEAU12@AEAV?$allocator@U?$tmat2x2@M$0A@@glm@@@0@@Z DD imagerel $LN7
	DD	imagerel $LN7+292
	DD	imagerel $unwind$??$_Uninitialized_copy@PEBU?$tmat2x2@M$0A@@glm@@V?$allocator@U?$tmat2x2@M$0A@@glm@@@std@@@std@@YAPEAU?$tmat2x2@M$0A@@glm@@QEBU12@0PEAU12@AEAV?$allocator@U?$tmat2x2@M$0A@@glm@@@0@@Z
pdata	ENDS
;	COMDAT pdata
pdata	SEGMENT
$pdata$?dtor$0@?0???$_Uninitialized_copy@PEBU?$tmat2x2@M$0A@@glm@@V?$allocator@U?$tmat2x2@M$0A@@glm@@@std@@@std@@YAPEAU?$tmat2x2@M$0A@@glm@@QEBU12@0PEAU12@AEAV?$allocator@U?$tmat2x2@M$0A@@glm@@@0@@Z@4HA DD imagerel ?dtor$0@?0???$_Uninitialized_copy@PEBU?$tmat2x2@M$0A@@glm@@V?$allocator@U?$tmat2x2@M$0A@@glm@@@std@@@std@@YAPEAU?$tmat2x2@M$0A@@glm@@QEBU12@0PEAU12@AEAV?$allocator@U?$tmat2x2@M$0A@@glm@@@0@@Z@4HA
	DD	imagerel ?dtor$0@?0???$_Uninitialized_copy@PEBU?$tmat2x2@M$0A@@glm@@V?$allocator@U?$tmat2x2@M$0A@@glm@@@std@@@std@@YAPEAU?$tmat2x2@M$0A@@glm@@QEBU12@0PEAU12@AEAV?$allocator@U?$tmat2x2@M$0A@@glm@@@0@@Z@4HA+35
	DD	imagerel $unwind$?dtor$0@?0???$_Uninitialized_copy@PEBU?$tmat2x2@M$0A@@glm@@V?$allocator@U?$tmat2x2@M$0A@@glm@@@std@@@std@@YAPEAU?$tmat2x2@M$0A@@glm@@QEBU12@0PEAU12@AEAV?$allocator@U?$tmat2x2@M$0A@@glm@@@0@@Z@4HA
pdata	ENDS
;	COMDAT pdata
pdata	SEGMENT
$pdata$??$_Unfancy@U_Container_proxy@std@@@std@@YAPEAU_Container_proxy@0@PEAU10@@Z DD imagerel $LN3
	DD	imagerel $LN3+13
	DD	imagerel $unwind$??$_Unfancy@U_Container_proxy@std@@@std@@YAPEAU_Container_proxy@0@PEAU10@@Z
pdata	ENDS
;	COMDAT pdata
pdata	SEGMENT
$pdata$??$addressof@U_Container_base12@std@@@std@@YAPEAU_Container_base12@0@AEAU10@@Z DD imagerel $LN3
	DD	imagerel $LN3+13
	DD	imagerel $unwind$??$addressof@U_Container_base12@std@@@std@@YAPEAU_Container_base12@0@AEAU10@@Z
pdata	ENDS
;	COMDAT pdata
pdata	SEGMENT
$pdata$??$_Construct_in_place@U_Container_proxy@std@@PEAU_Container_base12@2@@std@@YAXAEAU_Container_proxy@0@$$QEAPEAU_Container_base12@0@@Z DD imagerel $LN3
	DD	imagerel $LN3+80
	DD	imagerel $unwind$??$_Construct_in_place@U_Container_proxy@std@@PEAU_Container_base12@2@@std@@YAXAEAU_Container_proxy@0@$$QEAPEAU_Container_base12@0@@Z
pdata	ENDS
;	COMDAT pdata
pdata	SEGMENT
$pdata$??$_Get_size_of_n@$0BA@@std@@YA_K_K@Z DD imagerel $LN4
	DD	imagerel $LN4+64
	DD	imagerel $unwind$??$_Get_size_of_n@$0BA@@std@@YA_K_K@Z
pdata	ENDS
;	COMDAT pdata
pdata	SEGMENT
$pdata$??$_Allocate@$0BA@U_Default_allocate_traits@std@@$0A@@std@@YAPEAX_K@Z DD imagerel $LN5
	DD	imagerel $LN5+61
	DD	imagerel $unwind$??$_Allocate@$0BA@U_Default_allocate_traits@std@@$0A@@std@@YAPEAX_K@Z
pdata	ENDS
;	COMDAT pdata
pdata	SEGMENT
$pdata$??$min@_K@std@@YAAEB_KAEB_K0@Z DD imagerel $LN5
	DD	imagerel $LN5+74
	DD	imagerel $unwind$??$min@_K@std@@YAAEB_KAEB_K0@Z
pdata	ENDS
;	COMDAT pdata
pdata	SEGMENT
$pdata$??$?0M$0A@@?$tvec2@M$0A@@glm@@QEAA@AEBU?$tvec3@M$0A@@1@@Z DD imagerel $LN3
	DD	imagerel $LN3+56
	DD	imagerel $unwind$??$?0M$0A@@?$tvec2@M$0A@@glm@@QEAA@AEBU?$tvec3@M$0A@@1@@Z
pdata	ENDS
;	COMDAT pdata
pdata	SEGMENT
$pdata$??$?0M$0A@@?$tvec2@M$0A@@glm@@QEAA@AEBU?$tvec4@M$0A@@1@@Z DD imagerel $LN3
	DD	imagerel $LN3+56
	DD	imagerel $unwind$??$?0M$0A@@?$tvec2@M$0A@@glm@@QEAA@AEBU?$tvec4@M$0A@@1@@Z
pdata	ENDS
;	COMDAT pdata
pdata	SEGMENT
$pdata$??$?0MHH@?$tvec3@M$0A@@glm@@QEAA@MHH@Z DD imagerel $LN3
	DD	imagerel $LN3+76
	DD	imagerel $unwind$??$?0MHH@?$tvec3@M$0A@@glm@@QEAA@MHH@Z
pdata	ENDS
;	COMDAT pdata
pdata	SEGMENT
$pdata$??$?0HMH@?$tvec3@M$0A@@glm@@QEAA@HMH@Z DD imagerel $LN3
	DD	imagerel $LN3+75
	DD	imagerel $unwind$??$?0HMH@?$tvec3@M$0A@@glm@@QEAA@HMH@Z
pdata	ENDS
;	COMDAT pdata
pdata	SEGMENT
$pdata$??$?0HHM@?$tvec3@M$0A@@glm@@QEAA@HHM@Z DD imagerel $LN3
	DD	imagerel $LN3+75
	DD	imagerel $unwind$??$?0HHM@?$tvec3@M$0A@@glm@@QEAA@HHM@Z
pdata	ENDS
;	COMDAT pdata
pdata	SEGMENT
$pdata$??$?0MHHH@?$tvec4@M$0A@@glm@@QEAA@MHHH@Z DD imagerel $LN3
	DD	imagerel $LN3+92
	DD	imagerel $unwind$??$?0MHHH@?$tvec4@M$0A@@glm@@QEAA@MHHH@Z
pdata	ENDS
;	COMDAT pdata
pdata	SEGMENT
$pdata$??$?0HMHH@?$tvec4@M$0A@@glm@@QEAA@HMHH@Z DD imagerel $LN3
	DD	imagerel $LN3+91
	DD	imagerel $unwind$??$?0HMHH@?$tvec4@M$0A@@glm@@QEAA@HMHH@Z
pdata	ENDS
;	COMDAT pdata
pdata	SEGMENT
$pdata$??$?0HHMH@?$tvec4@M$0A@@glm@@QEAA@HHMH@Z DD imagerel $LN3
	DD	imagerel $LN3+91
	DD	imagerel $unwind$??$?0HHMH@?$tvec4@M$0A@@glm@@QEAA@HHMH@Z
pdata	ENDS
;	COMDAT pdata
pdata	SEGMENT
$pdata$??$?0HHH@?$tvec3@M$0A@@glm@@QEAA@HHH@Z DD imagerel $LN3
	DD	imagerel $LN3+74
	DD	imagerel $unwind$??$?0HHH@?$tvec3@M$0A@@glm@@QEAA@HHH@Z
pdata	ENDS
;	COMDAT pdata
pdata	SEGMENT
$pdata$??$?0HHHM@?$tvec4@M$0A@@glm@@QEAA@HHHM@Z DD imagerel $LN3
	DD	imagerel $LN3+90
	DD	imagerel $unwind$??$?0HHHM@?$tvec4@M$0A@@glm@@QEAA@HHHM@Z
pdata	ENDS
;	COMDAT pdata
pdata	SEGMENT
$pdata$?call@?$compute_abs_vector@M$0A@Utvec2@glm@@$0A@@detail@glm@@SA?AU?$tvec2@M$0A@@3@AEBU43@@Z DD imagerel $LN3
	DD	imagerel $LN3+48
	DD	imagerel $unwind$?call@?$compute_abs_vector@M$0A@Utvec2@glm@@$0A@@detail@glm@@SA?AU?$tvec2@M$0A@@3@AEBU43@@Z
pdata	ENDS
;	COMDAT pdata
pdata	SEGMENT
$pdata$??$?XM@?$tmat2x2@M$0A@@glm@@QEAAAEAU01@AEBU01@@Z DD imagerel $LN3
	DD	imagerel $LN3+91
	DD	imagerel $unwind$??$?XM@?$tmat2x2@M$0A@@glm@@QEAAAEAU01@AEBU01@@Z
pdata	ENDS
;	COMDAT pdata
pdata	SEGMENT
$pdata$?deallocate@?$_Default_allocator_traits@V?$allocator@U_Container_proxy@std@@@std@@@std@@SAXAEAV?$allocator@U_Container_proxy@std@@@2@QEAU_Container_proxy@2@_K@Z DD imagerel $LN3
	DD	imagerel $LN3+45
	DD	imagerel $unwind$?deallocate@?$_Default_allocator_traits@V?$allocator@U_Container_proxy@std@@@std@@@std@@SAXAEAV?$allocator@U_Container_proxy@std@@@2@QEAU_Container_proxy@2@_K@Z
pdata	ENDS
;	COMDAT pdata
pdata	SEGMENT
$pdata$??$_Get_unwrapped@AEBQEBU?$tmat2x2@M$0A@@glm@@@std@@YA?A_TAEBQEBU?$tmat2x2@M$0A@@glm@@@Z DD imagerel $LN3
	DD	imagerel $LN3+16
	DD	imagerel $unwind$??$_Get_unwrapped@AEBQEBU?$tmat2x2@M$0A@@glm@@@std@@YA?A_TAEBQEBU?$tmat2x2@M$0A@@glm@@@Z
pdata	ENDS
;	COMDAT pdata
pdata	SEGMENT
$pdata$??$_Unfancy@U?$tmat2x2@M$0A@@glm@@@std@@YAPEAU?$tmat2x2@M$0A@@glm@@PEAU12@@Z DD imagerel $LN3
	DD	imagerel $LN3+13
	DD	imagerel $unwind$??$_Unfancy@U?$tmat2x2@M$0A@@glm@@@std@@YAPEAU?$tmat2x2@M$0A@@glm@@PEAU12@@Z
pdata	ENDS
;	COMDAT pdata
pdata	SEGMENT
$pdata$??$_Copy_memmove@PEBU?$tmat2x2@M$0A@@glm@@PEAU12@@std@@YAPEAU?$tmat2x2@M$0A@@glm@@PEBU12@0PEAU12@@Z DD imagerel $LN3
	DD	imagerel $LN3+161
	DD	imagerel $unwind$??$_Copy_memmove@PEBU?$tmat2x2@M$0A@@glm@@PEAU12@@std@@YAPEAU?$tmat2x2@M$0A@@glm@@PEBU12@0PEAU12@@Z
pdata	ENDS
;	COMDAT pdata
pdata	SEGMENT
$pdata$??0?$_Uninitialized_backout_al@V?$allocator@U?$tmat2x2@M$0A@@glm@@@std@@@std@@QEAA@PEAU?$tmat2x2@M$0A@@glm@@AEAV?$allocator@U?$tmat2x2@M$0A@@glm@@@1@@Z DD imagerel $LN3
	DD	imagerel $LN3+64
	DD	imagerel $unwind$??0?$_Uninitialized_backout_al@V?$allocator@U?$tmat2x2@M$0A@@glm@@@std@@@std@@QEAA@PEAU?$tmat2x2@M$0A@@glm@@AEAV?$allocator@U?$tmat2x2@M$0A@@glm@@@1@@Z
pdata	ENDS
;	COMDAT pdata
pdata	SEGMENT
$pdata$??1?$_Uninitialized_backout_al@V?$allocator@U?$tmat2x2@M$0A@@glm@@@std@@@std@@QEAA@XZ DD imagerel $LN3
	DD	imagerel $LN3+47
	DD	imagerel $unwind$??1?$_Uninitialized_backout_al@V?$allocator@U?$tmat2x2@M$0A@@glm@@@std@@@std@@QEAA@XZ
pdata	ENDS
;	COMDAT pdata
pdata	SEGMENT
$pdata$?_Release@?$_Uninitialized_backout_al@V?$allocator@U?$tmat2x2@M$0A@@glm@@@std@@@std@@QEAAPEAU?$tmat2x2@M$0A@@glm@@XZ DD imagerel $LN3
	DD	imagerel $LN3+34
	DD	imagerel $unwind$?_Release@?$_Uninitialized_backout_al@V?$allocator@U?$tmat2x2@M$0A@@glm@@@std@@@std@@QEAAPEAU?$tmat2x2@M$0A@@glm@@XZ
pdata	ENDS
;	COMDAT pdata
pdata	SEGMENT
$pdata$??$_Emplace_back@AEBU?$tmat2x2@M$0A@@glm@@@?$_Uninitialized_backout_al@V?$allocator@U?$tmat2x2@M$0A@@glm@@@std@@@std@@QEAAXAEBU?$tmat2x2@M$0A@@glm@@@Z DD imagerel $LN3
	DD	imagerel $LN3+97
	DD	imagerel $unwind$??$_Emplace_back@AEBU?$tmat2x2@M$0A@@glm@@@?$_Uninitialized_backout_al@V?$allocator@U?$tmat2x2@M$0A@@glm@@@std@@@std@@QEAAXAEBU?$tmat2x2@M$0A@@glm@@@Z
pdata	ENDS
;	COMDAT pdata
pdata	SEGMENT
$pdata$??$addressof@U_Container_proxy@std@@@std@@YAPEAU_Container_proxy@0@AEAU10@@Z DD imagerel $LN3
	DD	imagerel $LN3+13
	DD	imagerel $unwind$??$addressof@U_Container_proxy@std@@@std@@YAPEAU_Container_proxy@0@AEAU10@@Z
pdata	ENDS
;	COMDAT pdata
pdata	SEGMENT
$pdata$??$_Voidify_iter@PEAU_Container_proxy@std@@@std@@YAPEAXPEAU_Container_proxy@0@@Z DD imagerel $LN3
	DD	imagerel $LN3+13
	DD	imagerel $unwind$??$_Voidify_iter@PEAU_Container_proxy@std@@@std@@YAPEAXPEAU_Container_proxy@0@@Z
pdata	ENDS
;	COMDAT pdata
pdata	SEGMENT
$pdata$??$forward@PEAU_Container_base12@std@@@std@@YA$$QEAPEAU_Container_base12@0@AEAPEAU10@@Z DD imagerel $LN3
	DD	imagerel $LN3+13
	DD	imagerel $unwind$??$forward@PEAU_Container_base12@std@@@std@@YA$$QEAPEAU_Container_base12@0@AEAPEAU10@@Z
pdata	ENDS
;	COMDAT pdata
pdata	SEGMENT
$pdata$??$_Allocate_manually_vector_aligned@U_Default_allocate_traits@std@@@std@@YAPEAX_K@Z DD imagerel $LN13
	DD	imagerel $LN13+259
	DD	imagerel $unwind$??$_Allocate_manually_vector_aligned@U_Default_allocate_traits@std@@@std@@YAPEAX_K@Z
pdata	ENDS
;	COMDAT pdata
pdata	SEGMENT
$pdata$?call@?$functor1@MM$0A@Utvec2@glm@@@detail@glm@@SA?AU?$tvec2@M$0A@@3@P6AMM@ZAEBU43@@Z DD imagerel $LN3
	DD	imagerel $LN3+86
	DD	imagerel $unwind$?call@?$functor1@MM$0A@Utvec2@glm@@@detail@glm@@SA?AU?$tvec2@M$0A@@3@P6AMM@ZAEBU43@@Z
pdata	ENDS
;	COMDAT pdata
pdata	SEGMENT
$pdata$??$_To_address@PEBU?$tmat2x2@M$0A@@glm@@@std@@YA?A_PAEBQEBU?$tmat2x2@M$0A@@glm@@@Z DD imagerel $LN3
	DD	imagerel $LN3+16
	DD	imagerel $unwind$??$_To_address@PEBU?$tmat2x2@M$0A@@glm@@@std@@YA?A_PAEBQEBU?$tmat2x2@M$0A@@glm@@@Z
pdata	ENDS
;	COMDAT pdata
pdata	SEGMENT
$pdata$??$_To_address@PEAU?$tmat2x2@M$0A@@glm@@@std@@YA?A_PAEBQEAU?$tmat2x2@M$0A@@glm@@@Z DD imagerel $LN3
	DD	imagerel $LN3+16
	DD	imagerel $unwind$??$_To_address@PEAU?$tmat2x2@M$0A@@glm@@@std@@YA?A_PAEBQEAU?$tmat2x2@M$0A@@glm@@@Z
pdata	ENDS
;	COMDAT pdata
pdata	SEGMENT
$pdata$??$forward@AEBU?$tmat2x2@M$0A@@glm@@@std@@YAAEBU?$tmat2x2@M$0A@@glm@@AEBU12@@Z DD imagerel $LN3
	DD	imagerel $LN3+13
	DD	imagerel $unwind$??$forward@AEBU?$tmat2x2@M$0A@@glm@@@std@@YAAEBU?$tmat2x2@M$0A@@glm@@AEBU12@@Z
pdata	ENDS
;	COMDAT pdata
pdata	SEGMENT
$pdata$??$construct@U?$tmat2x2@M$0A@@glm@@AEBU12@@?$_Default_allocator_traits@V?$allocator@U?$tmat2x2@M$0A@@glm@@@std@@@std@@SAXAEAV?$allocator@U?$tmat2x2@M$0A@@glm@@@1@QEAU?$tmat2x2@M$0A@@glm@@AEBU34@@Z DD imagerel $LN3
	DD	imagerel $LN3+81
	DD	imagerel $unwind$??$construct@U?$tmat2x2@M$0A@@glm@@AEBU12@@?$_Default_allocator_traits@V?$allocator@U?$tmat2x2@M$0A@@glm@@@std@@@std@@SAXAEAV?$allocator@U?$tmat2x2@M$0A@@glm@@@1@QEAU?$tmat2x2@M$0A@@glm@@AEBU34@@Z
pdata	ENDS
;	COMDAT pdata
pdata	SEGMENT
$pdata$??$_Voidify_iter@PEAU?$tmat2x2@M$0A@@glm@@@std@@YAPEAXPEAU?$tmat2x2@M$0A@@glm@@@Z DD imagerel $LN3
	DD	imagerel $LN3+13
	DD	imagerel $unwind$??$_Voidify_iter@PEAU?$tmat2x2@M$0A@@glm@@@std@@YAPEAXPEAU?$tmat2x2@M$0A@@glm@@@Z
pdata	ENDS
;	COMDAT __xmm@80000000800000008000000080000000
CONST	SEGMENT
__xmm@80000000800000008000000080000000 DB 00H, 00H, 00H, 080H, 00H, 00H, 00H
	DB	080H, 00H, 00H, 00H, 080H, 00H, 00H, 00H, 080H
CONST	ENDS
;	COMDAT __real@3f800000
CONST	SEGMENT
__real@3f800000 DD 03f800000r			; 1
CONST	ENDS
;	COMDAT __real@3c23d70a
CONST	SEGMENT
__real@3c23d70a DD 03c23d70ar			; 0.01
CONST	ENDS
;	COMDAT __real@00000000
CONST	SEGMENT
__real@00000000 DD 000000000r			; 0
CONST	ENDS
;	COMDAT rtc$TMZ
rtc$TMZ	SEGMENT
_RTC_Shutdown.rtc$TMZ DQ FLAT:_RTC_Shutdown
rtc$TMZ	ENDS
;	COMDAT rtc$IMZ
rtc$IMZ	SEGMENT
_RTC_InitBase.rtc$IMZ DQ FLAT:_RTC_InitBase
rtc$IMZ	ENDS
;	COMDAT ??_R1A@?0A@EA@bad_array_new_length@std@@8
rdata$r	SEGMENT
??_R1A@?0A@EA@bad_array_new_length@std@@8 DD imagerel ??_R0?AVbad_array_new_length@std@@@8 ; std::bad_array_new_length::`RTTI Base Class Descriptor at (0,-1,0,64)'
	DD	02H
	DD	00H
	DD	0ffffffffH
	DD	00H
	DD	040H
	DD	imagerel ??_R3bad_array_new_length@std@@8
rdata$r	ENDS
;	COMDAT ??_R2bad_array_new_length@std@@8
rdata$r	SEGMENT
??_R2bad_array_new_length@std@@8 DD imagerel ??_R1A@?0A@EA@bad_array_new_length@std@@8 ; std::bad_array_new_length::`RTTI Base Class Array'
	DD	imagerel ??_R1A@?0A@EA@bad_alloc@std@@8
	DD	imagerel ??_R1A@?0A@EA@exception@std@@8
	ORG $+3
rdata$r	ENDS
;	COMDAT ??_R3bad_array_new_length@std@@8
rdata$r	SEGMENT
??_R3bad_array_new_length@std@@8 DD 00H			; std::bad_array_new_length::`RTTI Class Hierarchy Descriptor'
	DD	00H
	DD	03H
	DD	imagerel ??_R2bad_array_new_length@std@@8
rdata$r	ENDS
;	COMDAT ??_R4bad_array_new_length@std@@6B@
rdata$r	SEGMENT
??_R4bad_array_new_length@std@@6B@ DD 01H		; std::bad_array_new_length::`RTTI Complete Object Locator'
	DD	00H
	DD	00H
	DD	imagerel ??_R0?AVbad_array_new_length@std@@@8
	DD	imagerel ??_R3bad_array_new_length@std@@8
	DD	imagerel ??_R4bad_array_new_length@std@@6B@
rdata$r	ENDS
;	COMDAT ??_R1A@?0A@EA@bad_alloc@std@@8
rdata$r	SEGMENT
??_R1A@?0A@EA@bad_alloc@std@@8 DD imagerel ??_R0?AVbad_alloc@std@@@8 ; std::bad_alloc::`RTTI Base Class Descriptor at (0,-1,0,64)'
	DD	01H
	DD	00H
	DD	0ffffffffH
	DD	00H
	DD	040H
	DD	imagerel ??_R3bad_alloc@std@@8
rdata$r	ENDS
;	COMDAT ??_R2bad_alloc@std@@8
rdata$r	SEGMENT
??_R2bad_alloc@std@@8 DD imagerel ??_R1A@?0A@EA@bad_alloc@std@@8 ; std::bad_alloc::`RTTI Base Class Array'
	DD	imagerel ??_R1A@?0A@EA@exception@std@@8
	ORG $+3
rdata$r	ENDS
;	COMDAT ??_R3bad_alloc@std@@8
rdata$r	SEGMENT
??_R3bad_alloc@std@@8 DD 00H				; std::bad_alloc::`RTTI Class Hierarchy Descriptor'
	DD	00H
	DD	02H
	DD	imagerel ??_R2bad_alloc@std@@8
rdata$r	ENDS
;	COMDAT ??_R4bad_alloc@std@@6B@
rdata$r	SEGMENT
??_R4bad_alloc@std@@6B@ DD 01H				; std::bad_alloc::`RTTI Complete Object Locator'
	DD	00H
	DD	00H
	DD	imagerel ??_R0?AVbad_alloc@std@@@8
	DD	imagerel ??_R3bad_alloc@std@@8
	DD	imagerel ??_R4bad_alloc@std@@6B@
rdata$r	ENDS
;	COMDAT ??_R1A@?0A@EA@exception@std@@8
rdata$r	SEGMENT
??_R1A@?0A@EA@exception@std@@8 DD imagerel ??_R0?AVexception@std@@@8 ; std::exception::`RTTI Base Class Descriptor at (0,-1,0,64)'
	DD	00H
	DD	00H
	DD	0ffffffffH
	DD	00H
	DD	040H
	DD	imagerel ??_R3exception@std@@8
rdata$r	ENDS
;	COMDAT ??_R2exception@std@@8
rdata$r	SEGMENT
??_R2exception@std@@8 DD imagerel ??_R1A@?0A@EA@exception@std@@8 ; std::exception::`RTTI Base Class Array'
	ORG $+3
rdata$r	ENDS
;	COMDAT ??_R3exception@std@@8
rdata$r	SEGMENT
??_R3exception@std@@8 DD 00H				; std::exception::`RTTI Class Hierarchy Descriptor'
	DD	00H
	DD	01H
	DD	imagerel ??_R2exception@std@@8
rdata$r	ENDS
;	COMDAT ??_R4exception@std@@6B@
rdata$r	SEGMENT
??_R4exception@std@@6B@ DD 01H				; std::exception::`RTTI Complete Object Locator'
	DD	00H
	DD	00H
	DD	imagerel ??_R0?AVexception@std@@@8
	DD	imagerel ??_R3exception@std@@8
	DD	imagerel ??_R4exception@std@@6B@
rdata$r	ENDS
;	COMDAT ??_C@_1LK@BAPNPALB@?$AAC?$AA?3?$AA?2?$AAU?$AAs?$AAe?$AAr?$AAs?$AA?2?$AAk?$AAs?$AAa?$AAr?$AAt?$AA?2@
CONST	SEGMENT
??_C@_1LK@BAPNPALB@?$AAC?$AA?3?$AA?2?$AAU?$AAs?$AAe?$AAr?$AAs?$AA?2?$AAk?$AAs?$AAa?$AAr?$AAt?$AA?2@ DB 'C'
	DB	00H, ':', 00H, '\', 00H, 'U', 00H, 's', 00H, 'e', 00H, 'r', 00H
	DB	's', 00H, '\', 00H, 'k', 00H, 's', 00H, 'a', 00H, 'r', 00H, 't'
	DB	00H, '\', 00H, 'O', 00H, 'n', 00H, 'e', 00H, 'D', 00H, 'r', 00H
	DB	'i', 00H, 'v', 00H, 'e', 00H, '\', 00H, 'D', 00H, 'e', 00H, 's'
	DB	00H, 'k', 00H, 't', 00H, 'o', 00H, 'p', 00H, '\', 00H, 'F', 00H
	DB	'l', 00H, 'a', 00H, 'p', 00H, 'p', 00H, 'y', 00H, 'B', 00H, 'i'
	DB	00H, 'r', 00H, 'd', 00H, '\', 00H, 'l', 00H, 'i', 00H, 'b', 00H
	DB	'r', 00H, 'a', 00H, 'r', 00H, 'i', 00H, 'e', 00H, 's', 00H, '\'
	DB	00H, 'e', 00H, 'x', 00H, 't', 00H, 'e', 00H, 'r', 00H, 'n', 00H
	DB	'a', 00H, 'l', 00H, '\', 00H, 'g', 00H, 'l', 00H, 'm', 00H, '\'
	DB	00H, 'g', 00H, 'l', 00H, 'm', 00H, '\', 00H, 'd', 00H, 'e', 00H
	DB	't', 00H, 'a', 00H, 'i', 00H, 'l', 00H, '\', 00H, 't', 00H, 'y'
	DB	00H, 'p', 00H, 'e', 00H, '_', 00H, 'm', 00H, 'a', 00H, 't', 00H
	DB	'4', 00H, 'x', 00H, '4', 00H, '.', 00H, 'i', 00H, 'n', 00H, 'l'
	DB	00H, 00H, 00H				; `string'
CONST	ENDS
;	COMDAT ??_C@_1LK@GEGFBJDO@?$AAC?$AA?3?$AA?2?$AAU?$AAs?$AAe?$AAr?$AAs?$AA?2?$AAk?$AAs?$AAa?$AAr?$AAt?$AA?2@
CONST	SEGMENT
??_C@_1LK@GEGFBJDO@?$AAC?$AA?3?$AA?2?$AAU?$AAs?$AAe?$AAr?$AAs?$AA?2?$AAk?$AAs?$AAa?$AAr?$AAt?$AA?2@ DB 'C'
	DB	00H, ':', 00H, '\', 00H, 'U', 00H, 's', 00H, 'e', 00H, 'r', 00H
	DB	's', 00H, '\', 00H, 'k', 00H, 's', 00H, 'a', 00H, 'r', 00H, 't'
	DB	00H, '\', 00H, 'O', 00H, 'n', 00H, 'e', 00H, 'D', 00H, 'r', 00H
	DB	'i', 00H, 'v', 00H, 'e', 00H, '\', 00H, 'D', 00H, 'e', 00H, 's'
	DB	00H, 'k', 00H, 't', 00H, 'o', 00H, 'p', 00H, '\', 00H, 'F', 00H
	DB	'l', 00H, 'a', 00H, 'p', 00H, 'p', 00H, 'y', 00H, 'B', 00H, 'i'
	DB	00H, 'r', 00H, 'd', 00H, '\', 00H, 'l', 00H, 'i', 00H, 'b', 00H
	DB	'r', 00H, 'a', 00H, 'r', 00H, 'i', 00H, 'e', 00H, 's', 00H, '\'
	DB	00H, 'e', 00H, 'x', 00H, 't', 00H, 'e', 00H, 'r', 00H, 'n', 00H
	DB	'a', 00H, 'l', 00H, '\', 00H, 'g', 00H, 'l', 00H, 'm', 00H, '\'
	DB	00H, 'g', 00H, 'l', 00H, 'm', 00H, '\', 00H, 'd', 00H, 'e', 00H
	DB	't', 00H, 'a', 00H, 'i', 00H, 'l', 00H, '\', 00H, 't', 00H, 'y'
	DB	00H, 'p', 00H, 'e', 00H, '_', 00H, 'm', 00H, 'a', 00H, 't', 00H
	DB	'4', 00H, 'x', 00H, '3', 00H, '.', 00H, 'i', 00H, 'n', 00H, 'l'
	DB	00H, 00H, 00H				; `string'
CONST	ENDS
;	COMDAT ??_C@_1LK@PPMAFFFB@?$AAC?$AA?3?$AA?2?$AAU?$AAs?$AAe?$AAr?$AAs?$AA?2?$AAk?$AAs?$AAa?$AAr?$AAt?$AA?2@
CONST	SEGMENT
??_C@_1LK@PPMAFFFB@?$AAC?$AA?3?$AA?2?$AAU?$AAs?$AAe?$AAr?$AAs?$AA?2?$AAk?$AAs?$AAa?$AAr?$AAt?$AA?2@ DB 'C'
	DB	00H, ':', 00H, '\', 00H, 'U', 00H, 's', 00H, 'e', 00H, 'r', 00H
	DB	's', 00H, '\', 00H, 'k', 00H, 's', 00H, 'a', 00H, 'r', 00H, 't'
	DB	00H, '\', 00H, 'O', 00H, 'n', 00H, 'e', 00H, 'D', 00H, 'r', 00H
	DB	'i', 00H, 'v', 00H, 'e', 00H, '\', 00H, 'D', 00H, 'e', 00H, 's'
	DB	00H, 'k', 00H, 't', 00H, 'o', 00H, 'p', 00H, '\', 00H, 'F', 00H
	DB	'l', 00H, 'a', 00H, 'p', 00H, 'p', 00H, 'y', 00H, 'B', 00H, 'i'
	DB	00H, 'r', 00H, 'd', 00H, '\', 00H, 'l', 00H, 'i', 00H, 'b', 00H
	DB	'r', 00H, 'a', 00H, 'r', 00H, 'i', 00H, 'e', 00H, 's', 00H, '\'
	DB	00H, 'e', 00H, 'x', 00H, 't', 00H, 'e', 00H, 'r', 00H, 'n', 00H
	DB	'a', 00H, 'l', 00H, '\', 00H, 'g', 00H, 'l', 00H, 'm', 00H, '\'
	DB	00H, 'g', 00H, 'l', 00H, 'm', 00H, '\', 00H, 'd', 00H, 'e', 00H
	DB	't', 00H, 'a', 00H, 'i', 00H, 'l', 00H, '\', 00H, 't', 00H, 'y'
	DB	00H, 'p', 00H, 'e', 00H, '_', 00H, 'm', 00H, 'a', 00H, 't', 00H
	DB	'4', 00H, 'x', 00H, '2', 00H, '.', 00H, 'i', 00H, 'n', 00H, 'l'
	DB	00H, 00H, 00H				; `string'
CONST	ENDS
;	COMDAT ??_C@_1LK@ONAEAIME@?$AAC?$AA?3?$AA?2?$AAU?$AAs?$AAe?$AAr?$AAs?$AA?2?$AAk?$AAs?$AAa?$AAr?$AAt?$AA?2@
CONST	SEGMENT
??_C@_1LK@ONAEAIME@?$AAC?$AA?3?$AA?2?$AAU?$AAs?$AAe?$AAr?$AAs?$AA?2?$AAk?$AAs?$AAa?$AAr?$AAt?$AA?2@ DB 'C'
	DB	00H, ':', 00H, '\', 00H, 'U', 00H, 's', 00H, 'e', 00H, 'r', 00H
	DB	's', 00H, '\', 00H, 'k', 00H, 's', 00H, 'a', 00H, 'r', 00H, 't'
	DB	00H, '\', 00H, 'O', 00H, 'n', 00H, 'e', 00H, 'D', 00H, 'r', 00H
	DB	'i', 00H, 'v', 00H, 'e', 00H, '\', 00H, 'D', 00H, 'e', 00H, 's'
	DB	00H, 'k', 00H, 't', 00H, 'o', 00H, 'p', 00H, '\', 00H, 'F', 00H
	DB	'l', 00H, 'a', 00H, 'p', 00H, 'p', 00H, 'y', 00H, 'B', 00H, 'i'
	DB	00H, 'r', 00H, 'd', 00H, '\', 00H, 'l', 00H, 'i', 00H, 'b', 00H
	DB	'r', 00H, 'a', 00H, 'r', 00H, 'i', 00H, 'e', 00H, 's', 00H, '\'
	DB	00H, 'e', 00H, 'x', 00H, 't', 00H, 'e', 00H, 'r', 00H, 'n', 00H
	DB	'a', 00H, 'l', 00H, '\', 00H, 'g', 00H, 'l', 00H, 'm', 00H, '\'
	DB	00H, 'g', 00H, 'l', 00H, 'm', 00H, '\', 00H, 'd', 00H, 'e', 00H
	DB	't', 00H, 'a', 00H, 'i', 00H, 'l', 00H, '\', 00H, 't', 00H, 'y'
	DB	00H, 'p', 00H, 'e', 00H, '_', 00H, 'm', 00H, 'a', 00H, 't', 00H
	DB	'3', 00H, 'x', 00H, '4', 00H, '.', 00H, 'i', 00H, 'n', 00H, 'l'
	DB	00H, 00H, 00H				; `string'
CONST	ENDS
;	COMDAT ??_C@_1LK@JJJMOBEL@?$AAC?$AA?3?$AA?2?$AAU?$AAs?$AAe?$AAr?$AAs?$AA?2?$AAk?$AAs?$AAa?$AAr?$AAt?$AA?2@
CONST	SEGMENT
??_C@_1LK@JJJMOBEL@?$AAC?$AA?3?$AA?2?$AAU?$AAs?$AAe?$AAr?$AAs?$AA?2?$AAk?$AAs?$AAa?$AAr?$AAt?$AA?2@ DB 'C'
	DB	00H, ':', 00H, '\', 00H, 'U', 00H, 's', 00H, 'e', 00H, 'r', 00H
	DB	's', 00H, '\', 00H, 'k', 00H, 's', 00H, 'a', 00H, 'r', 00H, 't'
	DB	00H, '\', 00H, 'O', 00H, 'n', 00H, 'e', 00H, 'D', 00H, 'r', 00H
	DB	'i', 00H, 'v', 00H, 'e', 00H, '\', 00H, 'D', 00H, 'e', 00H, 's'
	DB	00H, 'k', 00H, 't', 00H, 'o', 00H, 'p', 00H, '\', 00H, 'F', 00H
	DB	'l', 00H, 'a', 00H, 'p', 00H, 'p', 00H, 'y', 00H, 'B', 00H, 'i'
	DB	00H, 'r', 00H, 'd', 00H, '\', 00H, 'l', 00H, 'i', 00H, 'b', 00H
	DB	'r', 00H, 'a', 00H, 'r', 00H, 'i', 00H, 'e', 00H, 's', 00H, '\'
	DB	00H, 'e', 00H, 'x', 00H, 't', 00H, 'e', 00H, 'r', 00H, 'n', 00H
	DB	'a', 00H, 'l', 00H, '\', 00H, 'g', 00H, 'l', 00H, 'm', 00H, '\'
	DB	00H, 'g', 00H, 'l', 00H, 'm', 00H, '\', 00H, 'd', 00H, 'e', 00H
	DB	't', 00H, 'a', 00H, 'i', 00H, 'l', 00H, '\', 00H, 't', 00H, 'y'
	DB	00H, 'p', 00H, 'e', 00H, '_', 00H, 'm', 00H, 'a', 00H, 't', 00H
	DB	'3', 00H, 'x', 00H, '3', 00H, '.', 00H, 'i', 00H, 'n', 00H, 'l'
	DB	00H, 00H, 00H				; `string'
CONST	ENDS
;	COMDAT ??_C@_1LK@CDJKNCE@?$AAC?$AA?3?$AA?2?$AAU?$AAs?$AAe?$AAr?$AAs?$AA?2?$AAk?$AAs?$AAa?$AAr?$AAt?$AA?2@
CONST	SEGMENT
??_C@_1LK@CDJKNCE@?$AAC?$AA?3?$AA?2?$AAU?$AAs?$AAe?$AAr?$AAs?$AA?2?$AAk?$AAs?$AAa?$AAr?$AAt?$AA?2@ DB 'C'
	DB	00H, ':', 00H, '\', 00H, 'U', 00H, 's', 00H, 'e', 00H, 'r', 00H
	DB	's', 00H, '\', 00H, 'k', 00H, 's', 00H, 'a', 00H, 'r', 00H, 't'
	DB	00H, '\', 00H, 'O', 00H, 'n', 00H, 'e', 00H, 'D', 00H, 'r', 00H
	DB	'i', 00H, 'v', 00H, 'e', 00H, '\', 00H, 'D', 00H, 'e', 00H, 's'
	DB	00H, 'k', 00H, 't', 00H, 'o', 00H, 'p', 00H, '\', 00H, 'F', 00H
	DB	'l', 00H, 'a', 00H, 'p', 00H, 'p', 00H, 'y', 00H, 'B', 00H, 'i'
	DB	00H, 'r', 00H, 'd', 00H, '\', 00H, 'l', 00H, 'i', 00H, 'b', 00H
	DB	'r', 00H, 'a', 00H, 'r', 00H, 'i', 00H, 'e', 00H, 's', 00H, '\'
	DB	00H, 'e', 00H, 'x', 00H, 't', 00H, 'e', 00H, 'r', 00H, 'n', 00H
	DB	'a', 00H, 'l', 00H, '\', 00H, 'g', 00H, 'l', 00H, 'm', 00H, '\'
	DB	00H, 'g', 00H, 'l', 00H, 'm', 00H, '\', 00H, 'd', 00H, 'e', 00H
	DB	't', 00H, 'a', 00H, 'i', 00H, 'l', 00H, '\', 00H, 't', 00H, 'y'
	DB	00H, 'p', 00H, 'e', 00H, '_', 00H, 'm', 00H, 'a', 00H, 't', 00H
	DB	'3', 00H, 'x', 00H, '2', 00H, '.', 00H, 'i', 00H, 'n', 00H, 'l'
	DB	00H, 00H, 00H				; `string'
CONST	ENDS
;	COMDAT ??_C@_1LK@EDGMJJFF@?$AAC?$AA?3?$AA?2?$AAU?$AAs?$AAe?$AAr?$AAs?$AA?2?$AAk?$AAs?$AAa?$AAr?$AAt?$AA?2@
CONST	SEGMENT
??_C@_1LK@EDGMJJFF@?$AAC?$AA?3?$AA?2?$AAU?$AAs?$AAe?$AAr?$AAs?$AA?2?$AAk?$AAs?$AAa?$AAr?$AAt?$AA?2@ DB 'C'
	DB	00H, ':', 00H, '\', 00H, 'U', 00H, 's', 00H, 'e', 00H, 'r', 00H
	DB	's', 00H, '\', 00H, 'k', 00H, 's', 00H, 'a', 00H, 'r', 00H, 't'
	DB	00H, '\', 00H, 'O', 00H, 'n', 00H, 'e', 00H, 'D', 00H, 'r', 00H
	DB	'i', 00H, 'v', 00H, 'e', 00H, '\', 00H, 'D', 00H, 'e', 00H, 's'
	DB	00H, 'k', 00H, 't', 00H, 'o', 00H, 'p', 00H, '\', 00H, 'F', 00H
	DB	'l', 00H, 'a', 00H, 'p', 00H, 'p', 00H, 'y', 00H, 'B', 00H, 'i'
	DB	00H, 'r', 00H, 'd', 00H, '\', 00H, 'l', 00H, 'i', 00H, 'b', 00H
	DB	'r', 00H, 'a', 00H, 'r', 00H, 'i', 00H, 'e', 00H, 's', 00H, '\'
	DB	00H, 'e', 00H, 'x', 00H, 't', 00H, 'e', 00H, 'r', 00H, 'n', 00H
	DB	'a', 00H, 'l', 00H, '\', 00H, 'g', 00H, 'l', 00H, 'm', 00H, '\'
	DB	00H, 'g', 00H, 'l', 00H, 'm', 00H, '\', 00H, 'd', 00H, 'e', 00H
	DB	't', 00H, 'a', 00H, 'i', 00H, 'l', 00H, '\', 00H, 't', 00H, 'y'
	DB	00H, 'p', 00H, 'e', 00H, '_', 00H, 'm', 00H, 'a', 00H, 't', 00H
	DB	'2', 00H, 'x', 00H, '4', 00H, '.', 00H, 'i', 00H, 'n', 00H, 'l'
	DB	00H, 00H, 00H				; `string'
CONST	ENDS
;	COMDAT ??_C@_1LK@DHPEHANK@?$AAC?$AA?3?$AA?2?$AAU?$AAs?$AAe?$AAr?$AAs?$AA?2?$AAk?$AAs?$AAa?$AAr?$AAt?$AA?2@
CONST	SEGMENT
??_C@_1LK@DHPEHANK@?$AAC?$AA?3?$AA?2?$AAU?$AAs?$AAe?$AAr?$AAs?$AA?2?$AAk?$AAs?$AAa?$AAr?$AAt?$AA?2@ DB 'C'
	DB	00H, ':', 00H, '\', 00H, 'U', 00H, 's', 00H, 'e', 00H, 'r', 00H
	DB	's', 00H, '\', 00H, 'k', 00H, 's', 00H, 'a', 00H, 'r', 00H, 't'
	DB	00H, '\', 00H, 'O', 00H, 'n', 00H, 'e', 00H, 'D', 00H, 'r', 00H
	DB	'i', 00H, 'v', 00H, 'e', 00H, '\', 00H, 'D', 00H, 'e', 00H, 's'
	DB	00H, 'k', 00H, 't', 00H, 'o', 00H, 'p', 00H, '\', 00H, 'F', 00H
	DB	'l', 00H, 'a', 00H, 'p', 00H, 'p', 00H, 'y', 00H, 'B', 00H, 'i'
	DB	00H, 'r', 00H, 'd', 00H, '\', 00H, 'l', 00H, 'i', 00H, 'b', 00H
	DB	'r', 00H, 'a', 00H, 'r', 00H, 'i', 00H, 'e', 00H, 's', 00H, '\'
	DB	00H, 'e', 00H, 'x', 00H, 't', 00H, 'e', 00H, 'r', 00H, 'n', 00H
	DB	'a', 00H, 'l', 00H, '\', 00H, 'g', 00H, 'l', 00H, 'm', 00H, '\'
	DB	00H, 'g', 00H, 'l', 00H, 'm', 00H, '\', 00H, 'd', 00H, 'e', 00H
	DB	't', 00H, 'a', 00H, 'i', 00H, 'l', 00H, '\', 00H, 't', 00H, 'y'
	DB	00H, 'p', 00H, 'e', 00H, '_', 00H, 'm', 00H, 'a', 00H, 't', 00H
	DB	'2', 00H, 'x', 00H, '3', 00H, '.', 00H, 'i', 00H, 'n', 00H, 'l'
	DB	00H, 00H, 00H				; `string'
CONST	ENDS
;	COMDAT ??_C@_1DK@BGNCJAPL@?$AAi?$AA?5?$AA?$DO?$AA?$DN?$AA?5?$AA0?$AA?5?$AA?$CG?$AA?$CG?$AA?5?$AAi?$AA?5?$AA?$DM?$AA?5?$AAt@
CONST	SEGMENT
??_C@_1DK@BGNCJAPL@?$AAi?$AA?5?$AA?$DO?$AA?$DN?$AA?5?$AA0?$AA?5?$AA?$CG?$AA?$CG?$AA?5?$AAi?$AA?5?$AA?$DM?$AA?5?$AAt@ DB 'i'
	DB	00H, ' ', 00H, '>', 00H, '=', 00H, ' ', 00H, '0', 00H, ' ', 00H
	DB	'&', 00H, '&', 00H, ' ', 00H, 'i', 00H, ' ', 00H, '<', 00H, ' '
	DB	00H, 't', 00H, 'h', 00H, 'i', 00H, 's', 00H, '-', 00H, '>', 00H
	DB	'l', 00H, 'e', 00H, 'n', 00H, 'g', 00H, 't', 00H, 'h', 00H, '('
	DB	00H, ')', 00H, 00H, 00H			; `string'
CONST	ENDS
;	COMDAT ??_C@_1LG@FPDAFGJN@?$AAC?$AA?3?$AA?2?$AAU?$AAs?$AAe?$AAr?$AAs?$AA?2?$AAk?$AAs?$AAa?$AAr?$AAt?$AA?2@
CONST	SEGMENT
??_C@_1LG@FPDAFGJN@?$AAC?$AA?3?$AA?2?$AAU?$AAs?$AAe?$AAr?$AAs?$AA?2?$AAk?$AAs?$AAa?$AAr?$AAt?$AA?2@ DB 'C'
	DB	00H, ':', 00H, '\', 00H, 'U', 00H, 's', 00H, 'e', 00H, 'r', 00H
	DB	's', 00H, '\', 00H, 'k', 00H, 's', 00H, 'a', 00H, 'r', 00H, 't'
	DB	00H, '\', 00H, 'O', 00H, 'n', 00H, 'e', 00H, 'D', 00H, 'r', 00H
	DB	'i', 00H, 'v', 00H, 'e', 00H, '\', 00H, 'D', 00H, 'e', 00H, 's'
	DB	00H, 'k', 00H, 't', 00H, 'o', 00H, 'p', 00H, '\', 00H, 'F', 00H
	DB	'l', 00H, 'a', 00H, 'p', 00H, 'p', 00H, 'y', 00H, 'B', 00H, 'i'
	DB	00H, 'r', 00H, 'd', 00H, '\', 00H, 'l', 00H, 'i', 00H, 'b', 00H
	DB	'r', 00H, 'a', 00H, 'r', 00H, 'i', 00H, 'e', 00H, 's', 00H, '\'
	DB	00H, 'e', 00H, 'x', 00H, 't', 00H, 'e', 00H, 'r', 00H, 'n', 00H
	DB	'a', 00H, 'l', 00H, '\', 00H, 'g', 00H, 'l', 00H, 'm', 00H, '\'
	DB	00H, 'g', 00H, 'l', 00H, 'm', 00H, '\', 00H, 'd', 00H, 'e', 00H
	DB	't', 00H, 'a', 00H, 'i', 00H, 'l', 00H, '\', 00H, 't', 00H, 'y'
	DB	00H, 'p', 00H, 'e', 00H, '_', 00H, 'v', 00H, 'e', 00H, 'c', 00H
	DB	'2', 00H, '.', 00H, 'i', 00H, 'n', 00H, 'l', 00H, 00H, 00H ; `string'
CONST	ENDS
;	COMDAT ??_C@_0BA@FOIKENOD@vector?5too?5long@
CONST	SEGMENT
??_C@_0BA@FOIKENOD@vector?5too?5long@ DB 'vector too long', 00H ; `string'
CONST	ENDS
;	COMDAT ??_C@_1DC@HHLCGOLC@?$AAx?$AA?4?$AAl?$AAe?$AAn?$AAg?$AAt?$AAh?$AA?$CI?$AA?$CJ?$AA?5?$AA?$DN?$AA?$DN?$AA?5?$AAy@
CONST	SEGMENT
??_C@_1DC@HHLCGOLC@?$AAx?$AA?4?$AAl?$AAe?$AAn?$AAg?$AAt?$AAh?$AA?$CI?$AA?$CJ?$AA?5?$AA?$DN?$AA?$DN?$AA?5?$AAy@ DB 'x'
	DB	00H, '.', 00H, 'l', 00H, 'e', 00H, 'n', 00H, 'g', 00H, 't', 00H
	DB	'h', 00H, '(', 00H, ')', 00H, ' ', 00H, '=', 00H, '=', 00H, ' '
	DB	00H, 'y', 00H, '.', 00H, 'l', 00H, 'e', 00H, 'n', 00H, 'g', 00H
	DB	't', 00H, 'h', 00H, '(', 00H, ')', 00H, 00H, 00H ; `string'
CONST	ENDS
;	COMDAT ??_C@_1NA@OPABFNEN@?$AAC?$AA?3?$AA?2?$AAU?$AAs?$AAe?$AAr?$AAs?$AA?2?$AAk?$AAs?$AAa?$AAr?$AAt?$AA?2@
CONST	SEGMENT
??_C@_1NA@OPABFNEN@?$AAC?$AA?3?$AA?2?$AAU?$AAs?$AAe?$AAr?$AAs?$AA?2?$AAk?$AAs?$AAa?$AAr?$AAt?$AA?2@ DB 'C'
	DB	00H, ':', 00H, '\', 00H, 'U', 00H, 's', 00H, 'e', 00H, 'r', 00H
	DB	's', 00H, '\', 00H, 'k', 00H, 's', 00H, 'a', 00H, 'r', 00H, 't'
	DB	00H, '\', 00H, 'O', 00H, 'n', 00H, 'e', 00H, 'D', 00H, 'r', 00H
	DB	'i', 00H, 'v', 00H, 'e', 00H, '\', 00H, 'D', 00H, 'e', 00H, 's'
	DB	00H, 'k', 00H, 't', 00H, 'o', 00H, 'p', 00H, '\', 00H, 'F', 00H
	DB	'l', 00H, 'a', 00H, 'p', 00H, 'p', 00H, 'y', 00H, 'B', 00H, 'i'
	DB	00H, 'r', 00H, 'd', 00H, '\', 00H, 'l', 00H, 'i', 00H, 'b', 00H
	DB	'r', 00H, 'a', 00H, 'r', 00H, 'i', 00H, 'e', 00H, 's', 00H, '\'
	DB	00H, 'e', 00H, 'x', 00H, 't', 00H, 'e', 00H, 'r', 00H, 'n', 00H
	DB	'a', 00H, 'l', 00H, '\', 00H, 'g', 00H, 'l', 00H, 'm', 00H, '\'
	DB	00H, 'g', 00H, 'l', 00H, 'm', 00H, '\', 00H, 'd', 00H, 'e', 00H
	DB	't', 00H, 'a', 00H, 'i', 00H, 'l', 00H, '\', 00H, 'f', 00H, 'u'
	DB	00H, 'n', 00H, 'c', 00H, '_', 00H, 'v', 00H, 'e', 00H, 'c', 00H
	DB	't', 00H, 'o', 00H, 'r', 00H, '_', 00H, 'r', 00H, 'e', 00H, 'l'
	DB	00H, 'a', 00H, 't', 00H, 'i', 00H, 'o', 00H, 'n', 00H, 'a', 00H
	DB	'l', 00H, '.', 00H, 'i', 00H, 'n', 00H, 'l', 00H, 00H, 00H ; `string'
CONST	ENDS
;	COMDAT ??_C@_1CG@KOFHLCJL@?$AAi?$AA?5?$AA?$DM?$AA?5?$AAt?$AAh?$AAi?$AAs?$AA?9?$AA?$DO?$AAl?$AAe?$AAn?$AAg?$AAt@
CONST	SEGMENT
??_C@_1CG@KOFHLCJL@?$AAi?$AA?5?$AA?$DM?$AA?5?$AAt?$AAh?$AAi?$AAs?$AA?9?$AA?$DO?$AAl?$AAe?$AAn?$AAg?$AAt@ DB 'i'
	DB	00H, ' ', 00H, '<', 00H, ' ', 00H, 't', 00H, 'h', 00H, 'i', 00H
	DB	's', 00H, '-', 00H, '>', 00H, 'l', 00H, 'e', 00H, 'n', 00H, 'g'
	DB	00H, 't', 00H, 'h', 00H, '(', 00H, ')', 00H, 00H, 00H ; `string'
CONST	ENDS
;	COMDAT ??_C@_1LK@KMFBDMLF@?$AAC?$AA?3?$AA?2?$AAU?$AAs?$AAe?$AAr?$AAs?$AA?2?$AAk?$AAs?$AAa?$AAr?$AAt?$AA?2@
CONST	SEGMENT
??_C@_1LK@KMFBDMLF@?$AAC?$AA?3?$AA?2?$AAU?$AAs?$AAe?$AAr?$AAs?$AA?2?$AAk?$AAs?$AAa?$AAr?$AAt?$AA?2@ DB 'C'
	DB	00H, ':', 00H, '\', 00H, 'U', 00H, 's', 00H, 'e', 00H, 'r', 00H
	DB	's', 00H, '\', 00H, 'k', 00H, 's', 00H, 'a', 00H, 'r', 00H, 't'
	DB	00H, '\', 00H, 'O', 00H, 'n', 00H, 'e', 00H, 'D', 00H, 'r', 00H
	DB	'i', 00H, 'v', 00H, 'e', 00H, '\', 00H, 'D', 00H, 'e', 00H, 's'
	DB	00H, 'k', 00H, 't', 00H, 'o', 00H, 'p', 00H, '\', 00H, 'F', 00H
	DB	'l', 00H, 'a', 00H, 'p', 00H, 'p', 00H, 'y', 00H, 'B', 00H, 'i'
	DB	00H, 'r', 00H, 'd', 00H, '\', 00H, 'l', 00H, 'i', 00H, 'b', 00H
	DB	'r', 00H, 'a', 00H, 'r', 00H, 'i', 00H, 'e', 00H, 's', 00H, '\'
	DB	00H, 'e', 00H, 'x', 00H, 't', 00H, 'e', 00H, 'r', 00H, 'n', 00H
	DB	'a', 00H, 'l', 00H, '\', 00H, 'g', 00H, 'l', 00H, 'm', 00H, '\'
	DB	00H, 'g', 00H, 'l', 00H, 'm', 00H, '\', 00H, 'd', 00H, 'e', 00H
	DB	't', 00H, 'a', 00H, 'i', 00H, 'l', 00H, '\', 00H, 't', 00H, 'y'
	DB	00H, 'p', 00H, 'e', 00H, '_', 00H, 'm', 00H, 'a', 00H, 't', 00H
	DB	'2', 00H, 'x', 00H, '2', 00H, '.', 00H, 'i', 00H, 'n', 00H, 'l'
	DB	00H, 00H, 00H				; `string'
CONST	ENDS
;	COMDAT ??_C@_1HA@FACCKGGH@?$AA?$CC?$AAn?$AAu?$AAl?$AAl?$AA?5?$AAp?$AAo?$AAi?$AAn?$AAt?$AAe?$AAr?$AA?5?$AAc@
CONST	SEGMENT
??_C@_1HA@FACCKGGH@?$AA?$CC?$AAn?$AAu?$AAl?$AAl?$AA?5?$AAp?$AAo?$AAi?$AAn?$AAt?$AAe?$AAr?$AA?5?$AAc@ DB '"'
	DB	00H, 'n', 00H, 'u', 00H, 'l', 00H, 'l', 00H, ' ', 00H, 'p', 00H
	DB	'o', 00H, 'i', 00H, 'n', 00H, 't', 00H, 'e', 00H, 'r', 00H, ' '
	DB	00H, 'c', 00H, 'a', 00H, 'n', 00H, 'n', 00H, 'o', 00H, 't', 00H
	DB	' ', 00H, 'p', 00H, 'o', 00H, 'i', 00H, 'n', 00H, 't', 00H, ' '
	DB	00H, 't', 00H, 'o', 00H, ' ', 00H, 'a', 00H, ' ', 00H, 'b', 00H
	DB	'l', 00H, 'o', 00H, 'c', 00H, 'k', 00H, ' ', 00H, 'o', 00H, 'f'
	DB	00H, ' ', 00H, 'n', 00H, 'o', 00H, 'n', 00H, '-', 00H, 'z', 00H
	DB	'e', 00H, 'r', 00H, 'o', 00H, ' ', 00H, 's', 00H, 'i', 00H, 'z'
	DB	00H, 'e', 00H, '"', 00H, 00H, 00H		; `string'
CONST	ENDS
;	COMDAT ??_C@_0DG@KGHKKGBC@null?5pointer?5cannot?5point?5to?5a?5@
CONST	SEGMENT
??_C@_0DG@KGHKKGBC@null?5pointer?5cannot?5point?5to?5a?5@ DB 'null pointe'
	DB	'r cannot point to a block of non-zero size', 00H ; `string'
CONST	ENDS
;	COMDAT ??_C@_1CG@JNLFBNGN@?$AA?$CC?$AAi?$AAn?$AAv?$AAa?$AAl?$AAi?$AAd?$AA?5?$AAa?$AAr?$AAg?$AAu?$AAm?$AAe@
CONST	SEGMENT
??_C@_1CG@JNLFBNGN@?$AA?$CC?$AAi?$AAn?$AAv?$AAa?$AAl?$AAi?$AAd?$AA?5?$AAa?$AAr?$AAg?$AAu?$AAm?$AAe@ DB '"'
	DB	00H, 'i', 00H, 'n', 00H, 'v', 00H, 'a', 00H, 'l', 00H, 'i', 00H
	DB	'd', 00H, ' ', 00H, 'a', 00H, 'r', 00H, 'g', 00H, 'u', 00H, 'm'
	DB	00H, 'e', 00H, 'n', 00H, 't', 00H, '"', 00H, 00H, 00H ; `string'
CONST	ENDS
;	COMDAT ??_C@_11LOCGONAA@@
CONST	SEGMENT
??_C@_11LOCGONAA@@ DB 00H, 00H				; `string'
CONST	ENDS
;	COMDAT ??_C@_1ME@GEFGDEOM@?$AAC?$AA?3?$AA?2?$AAP?$AAr?$AAo?$AAg?$AAr?$AAa?$AAm?$AA?5?$AAF?$AAi?$AAl?$AAe@
CONST	SEGMENT
??_C@_1ME@GEFGDEOM@?$AAC?$AA?3?$AA?2?$AAP?$AAr?$AAo?$AAg?$AAr?$AAa?$AAm?$AA?5?$AAF?$AAi?$AAl?$AAe@ DB 'C'
	DB	00H, ':', 00H, '\', 00H, 'P', 00H, 'r', 00H, 'o', 00H, 'g', 00H
	DB	'r', 00H, 'a', 00H, 'm', 00H, ' ', 00H, 'F', 00H, 'i', 00H, 'l'
	DB	00H, 'e', 00H, 's', 00H, '\', 00H, 'M', 00H, 'i', 00H, 'c', 00H
	DB	'r', 00H, 'o', 00H, 's', 00H, 'o', 00H, 'f', 00H, 't', 00H, ' '
	DB	00H, 'V', 00H, 'i', 00H, 's', 00H, 'u', 00H, 'a', 00H, 'l', 00H
	DB	' ', 00H, 'S', 00H, 't', 00H, 'u', 00H, 'd', 00H, 'i', 00H, 'o'
	DB	00H, '\', 00H, '2', 00H, '0', 00H, '2', 00H, '2', 00H, '\', 00H
	DB	'C', 00H, 'o', 00H, 'm', 00H, 'm', 00H, 'u', 00H, 'n', 00H, 'i'
	DB	00H, 't', 00H, 'y', 00H, '\', 00H, 'V', 00H, 'C', 00H, '\', 00H
	DB	'T', 00H, 'o', 00H, 'o', 00H, 'l', 00H, 's', 00H, '\', 00H, 'M'
	DB	00H, 'S', 00H, 'V', 00H, 'C', 00H, '\', 00H, '1', 00H, '4', 00H
	DB	'.', 00H, '3', 00H, '2', 00H, '.', 00H, '3', 00H, '1', 00H, '3'
	DB	00H, '2', 00H, '6', 00H, '\', 00H, 'i', 00H, 'n', 00H, 'c', 00H
	DB	'l', 00H, 'u', 00H, 'd', 00H, 'e', 00H, '\', 00H, 'x', 00H, 'm'
	DB	00H, 'e', 00H, 'm', 00H, 'o', 00H, 'r', 00H, 'y', 00H, 00H, 00H ; `string'
CONST	ENDS
;	COMDAT ??_C@_0GC@DJFHHHKN@C?3?2Program?5Files?2Microsoft?5Visu@
CONST	SEGMENT
??_C@_0GC@DJFHHHKN@C?3?2Program?5Files?2Microsoft?5Visu@ DB 'C:\Program F'
	DB	'iles\Microsoft Visual Studio\2022\Community\VC\Tools\MSVC\14.'
	DB	'32.31326\include\xmemory', 00H		; `string'
CONST	ENDS
;	COMDAT ??_C@_02DKCKIIND@?$CFs@
CONST	SEGMENT
??_C@_02DKCKIIND@?$CFs@ DB '%s', 00H			; `string'
CONST	ENDS
;	COMDAT ??_C@_0BB@FCMFBGOM@invalid?5argument@
CONST	SEGMENT
??_C@_0BB@FCMFBGOM@invalid?5argument@ DB 'invalid argument', 00H ; `string'
CONST	ENDS
;	COMDAT _CT??_R0?AVexception@std@@@8??0exception@std@@QEAA@AEBV01@@Z24
xdata$x	SEGMENT
_CT??_R0?AVexception@std@@@8??0exception@std@@QEAA@AEBV01@@Z24 DD 00H
	DD	imagerel ??_R0?AVexception@std@@@8
	DD	00H
	DD	0ffffffffH
	ORG $+4
	DD	018H
	DD	imagerel ??0exception@std@@QEAA@AEBV01@@Z
xdata$x	ENDS
;	COMDAT ??_R0?AVexception@std@@@8
data$r	SEGMENT
??_R0?AVexception@std@@@8 DQ FLAT:??_7type_info@@6B@	; std::exception `RTTI Type Descriptor'
	DQ	0000000000000000H
	DB	'.?AVexception@std@@', 00H
data$r	ENDS
;	COMDAT _CT??_R0?AVbad_alloc@std@@@8??0bad_alloc@std@@QEAA@AEBV01@@Z24
xdata$x	SEGMENT
_CT??_R0?AVbad_alloc@std@@@8??0bad_alloc@std@@QEAA@AEBV01@@Z24 DD 010H
	DD	imagerel ??_R0?AVbad_alloc@std@@@8
	DD	00H
	DD	0ffffffffH
	ORG $+4
	DD	018H
	DD	imagerel ??0bad_alloc@std@@QEAA@AEBV01@@Z
xdata$x	ENDS
;	COMDAT ??_R0?AVbad_alloc@std@@@8
data$r	SEGMENT
??_R0?AVbad_alloc@std@@@8 DQ FLAT:??_7type_info@@6B@	; std::bad_alloc `RTTI Type Descriptor'
	DQ	0000000000000000H
	DB	'.?AVbad_alloc@std@@', 00H
data$r	ENDS
;	COMDAT _CT??_R0?AVbad_array_new_length@std@@@8??0bad_array_new_length@std@@QEAA@AEBV01@@Z24
xdata$x	SEGMENT
_CT??_R0?AVbad_array_new_length@std@@@8??0bad_array_new_length@std@@QEAA@AEBV01@@Z24 DD 00H
	DD	imagerel ??_R0?AVbad_array_new_length@std@@@8
	DD	00H
	DD	0ffffffffH
	ORG $+4
	DD	018H
	DD	imagerel ??0bad_array_new_length@std@@QEAA@AEBV01@@Z
xdata$x	ENDS
;	COMDAT ??_R0?AVbad_array_new_length@std@@@8
data$r	SEGMENT
??_R0?AVbad_array_new_length@std@@@8 DQ FLAT:??_7type_info@@6B@ ; std::bad_array_new_length `RTTI Type Descriptor'
	DQ	0000000000000000H
	DB	'.?AVbad_array_new_length@std@@', 00H
data$r	ENDS
;	COMDAT _CTA3?AVbad_array_new_length@std@@
xdata$x	SEGMENT
_CTA3?AVbad_array_new_length@std@@ DD 03H
	DD	imagerel _CT??_R0?AVbad_array_new_length@std@@@8??0bad_array_new_length@std@@QEAA@AEBV01@@Z24
	DD	imagerel _CT??_R0?AVbad_alloc@std@@@8??0bad_alloc@std@@QEAA@AEBV01@@Z24
	DD	imagerel _CT??_R0?AVexception@std@@@8??0exception@std@@QEAA@AEBV01@@Z24
xdata$x	ENDS
;	COMDAT _TI3?AVbad_array_new_length@std@@
xdata$x	SEGMENT
_TI3?AVbad_array_new_length@std@@ DD 00H
	DD	imagerel ??1bad_array_new_length@std@@UEAA@XZ
	DD	00H
	DD	imagerel _CTA3?AVbad_array_new_length@std@@
xdata$x	ENDS
;	COMDAT ??_C@_0BF@KINCDENJ@bad?5array?5new?5length@
CONST	SEGMENT
??_C@_0BF@KINCDENJ@bad?5array?5new?5length@ DB 'bad array new length', 00H ; `string'
CONST	ENDS
;	COMDAT ??_7bad_array_new_length@std@@6B@
CONST	SEGMENT
??_7bad_array_new_length@std@@6B@ DQ FLAT:??_R4bad_array_new_length@std@@6B@ ; std::bad_array_new_length::`vftable'
	DQ	FLAT:??_Ebad_array_new_length@std@@UEAAPEAXI@Z
	DQ	FLAT:?what@exception@std@@UEBAPEBDXZ
CONST	ENDS
;	COMDAT ??_7bad_alloc@std@@6B@
CONST	SEGMENT
??_7bad_alloc@std@@6B@ DQ FLAT:??_R4bad_alloc@std@@6B@	; std::bad_alloc::`vftable'
	DQ	FLAT:??_Ebad_alloc@std@@UEAAPEAXI@Z
	DQ	FLAT:?what@exception@std@@UEBAPEBDXZ
CONST	ENDS
;	COMDAT ??_C@_0BC@EOODALEL@Unknown?5exception@
CONST	SEGMENT
??_C@_0BC@EOODALEL@Unknown?5exception@ DB 'Unknown exception', 00H ; `string'
CONST	ENDS
;	COMDAT ??_7exception@std@@6B@
CONST	SEGMENT
??_7exception@std@@6B@ DQ FLAT:??_R4exception@std@@6B@	; std::exception::`vftable'
	DQ	FLAT:??_Eexception@std@@UEAAPEAXI@Z
	DQ	FLAT:?what@exception@std@@UEBAPEBDXZ
CONST	ENDS
;	COMDAT xdata
xdata	SEGMENT
$unwind$??$_Voidify_iter@PEAU?$tmat2x2@M$0A@@glm@@@std@@YAPEAXPEAU?$tmat2x2@M$0A@@glm@@@Z DD 010601H
	DD	07006H
xdata	ENDS
;	COMDAT xdata
xdata	SEGMENT
$unwind$??$construct@U?$tmat2x2@M$0A@@glm@@AEBU12@@?$_Default_allocator_traits@V?$allocator@U?$tmat2x2@M$0A@@glm@@@std@@@std@@SAXAEAV?$allocator@U?$tmat2x2@M$0A@@glm@@@1@QEAU?$tmat2x2@M$0A@@glm@@AEBU34@@Z DD 031501H
	DD	070116215H
	DD	06010H
xdata	ENDS
;	COMDAT xdata
xdata	SEGMENT
$unwind$??$forward@AEBU?$tmat2x2@M$0A@@glm@@@std@@YAAEBU?$tmat2x2@M$0A@@glm@@AEBU12@@Z DD 010601H
	DD	07006H
xdata	ENDS
;	COMDAT xdata
xdata	SEGMENT
$unwind$??$_To_address@PEAU?$tmat2x2@M$0A@@glm@@@std@@YA?A_PAEBQEAU?$tmat2x2@M$0A@@glm@@@Z DD 010601H
	DD	07006H
xdata	ENDS
;	COMDAT xdata
xdata	SEGMENT
$unwind$??$_To_address@PEBU?$tmat2x2@M$0A@@glm@@@std@@YA?A_PAEBQEBU?$tmat2x2@M$0A@@glm@@@Z DD 010601H
	DD	07006H
xdata	ENDS
;	COMDAT xdata
xdata	SEGMENT
$unwind$?call@?$functor1@MM$0A@Utvec2@glm@@@detail@glm@@SA?AU?$tvec2@M$0A@@3@P6AMM@ZAEBU43@@Z DD 021401H
	DD	070105214H
xdata	ENDS
;	COMDAT xdata
xdata	SEGMENT
$unwind$??$_Allocate_manually_vector_aligned@U_Default_allocate_traits@std@@@std@@YAPEAX_K@Z DD 020a01H
	DD	07006920aH
xdata	ENDS
;	COMDAT xdata
xdata	SEGMENT
$unwind$??$forward@PEAU_Container_base12@std@@@std@@YA$$QEAPEAU_Container_base12@0@AEAPEAU10@@Z DD 010601H
	DD	07006H
xdata	ENDS
;	COMDAT xdata
xdata	SEGMENT
$unwind$??$_Voidify_iter@PEAU_Container_proxy@std@@@std@@YAPEAXPEAU_Container_proxy@0@@Z DD 010601H
	DD	07006H
xdata	ENDS
;	COMDAT xdata
xdata	SEGMENT
$unwind$??$addressof@U_Container_proxy@std@@@std@@YAPEAU_Container_proxy@0@AEAU10@@Z DD 010601H
	DD	07006H
xdata	ENDS
;	COMDAT xdata
xdata	SEGMENT
$unwind$??$_Emplace_back@AEBU?$tmat2x2@M$0A@@glm@@@?$_Uninitialized_backout_al@V?$allocator@U?$tmat2x2@M$0A@@glm@@@std@@@std@@QEAAXAEBU?$tmat2x2@M$0A@@glm@@@Z DD 020f01H
	DD	0700b520fH
xdata	ENDS
;	COMDAT xdata
xdata	SEGMENT
$unwind$?_Release@?$_Uninitialized_backout_al@V?$allocator@U?$tmat2x2@M$0A@@glm@@@std@@@std@@QEAAPEAU?$tmat2x2@M$0A@@glm@@XZ DD 010601H
	DD	07006H
xdata	ENDS
;	COMDAT xdata
xdata	SEGMENT
$unwind$??1?$_Uninitialized_backout_al@V?$allocator@U?$tmat2x2@M$0A@@glm@@@std@@@std@@QEAA@XZ DD 020a01H
	DD	07006320aH
xdata	ENDS
;	COMDAT xdata
xdata	SEGMENT
$unwind$??0?$_Uninitialized_backout_al@V?$allocator@U?$tmat2x2@M$0A@@glm@@@std@@@std@@QEAA@PEAU?$tmat2x2@M$0A@@glm@@AEAV?$allocator@U?$tmat2x2@M$0A@@glm@@@1@@Z DD 011001H
	DD	07010H
xdata	ENDS
;	COMDAT xdata
xdata	SEGMENT
$unwind$??$_Copy_memmove@PEBU?$tmat2x2@M$0A@@glm@@PEAU12@@std@@YAPEAU?$tmat2x2@M$0A@@glm@@PEBU12@0PEAU12@@Z DD 021401H
	DD	07010b214H
xdata	ENDS
;	COMDAT xdata
xdata	SEGMENT
$unwind$??$_Unfancy@U?$tmat2x2@M$0A@@glm@@@std@@YAPEAU?$tmat2x2@M$0A@@glm@@PEAU12@@Z DD 010601H
	DD	07006H
xdata	ENDS
;	COMDAT xdata
xdata	SEGMENT
$unwind$??$_Get_unwrapped@AEBQEBU?$tmat2x2@M$0A@@glm@@@std@@YA?A_TAEBQEBU?$tmat2x2@M$0A@@glm@@@Z DD 010601H
	DD	07006H
xdata	ENDS
;	COMDAT xdata
xdata	SEGMENT
$unwind$?deallocate@?$_Default_allocator_traits@V?$allocator@U_Container_proxy@std@@@std@@@std@@SAXAEAV?$allocator@U_Container_proxy@std@@@2@QEAU_Container_proxy@2@_K@Z DD 021401H
	DD	070103214H
xdata	ENDS
;	COMDAT voltbl
voltbl	SEGMENT
_volmd	DB	01aH
	DB	047H
voltbl	ENDS
;	COMDAT xdata
xdata	SEGMENT
$unwind$??$?XM@?$tmat2x2@M$0A@@glm@@QEAAAEAU01@AEBU01@@Z DD 031f19H
	DD	0700c8210H
	DD	0600bH
	DD	imagerel __GSHandlerCheck
	DD	038H
xdata	ENDS
;	COMDAT xdata
xdata	SEGMENT
$unwind$?call@?$compute_abs_vector@M$0A@Utvec2@glm@@$0A@@detail@glm@@SA?AU?$tvec2@M$0A@@3@AEBU43@@Z DD 020f01H
	DD	0700b320fH
xdata	ENDS
;	COMDAT xdata
xdata	SEGMENT
$unwind$??$?0HHHM@?$tvec4@M$0A@@glm@@QEAA@HHHM@Z DD 011401H
	DD	07014H
xdata	ENDS
;	COMDAT xdata
xdata	SEGMENT
$unwind$??$?0HHH@?$tvec3@M$0A@@glm@@QEAA@HHH@Z DD 011401H
	DD	07014H
xdata	ENDS
;	COMDAT xdata
xdata	SEGMENT
$unwind$??$?0HHMH@?$tvec4@M$0A@@glm@@QEAA@HHMH@Z DD 011501H
	DD	07015H
xdata	ENDS
;	COMDAT xdata
xdata	SEGMENT
$unwind$??$?0HMHH@?$tvec4@M$0A@@glm@@QEAA@HMHH@Z DD 011501H
	DD	07015H
xdata	ENDS
;	COMDAT xdata
xdata	SEGMENT
$unwind$??$?0MHHH@?$tvec4@M$0A@@glm@@QEAA@MHHH@Z DD 011601H
	DD	07016H
xdata	ENDS
;	COMDAT xdata
xdata	SEGMENT
$unwind$??$?0HHM@?$tvec3@M$0A@@glm@@QEAA@HHM@Z DD 011501H
	DD	07015H
xdata	ENDS
;	COMDAT xdata
xdata	SEGMENT
$unwind$??$?0HMH@?$tvec3@M$0A@@glm@@QEAA@HMH@Z DD 011501H
	DD	07015H
xdata	ENDS
;	COMDAT xdata
xdata	SEGMENT
$unwind$??$?0MHH@?$tvec3@M$0A@@glm@@QEAA@MHH@Z DD 011601H
	DD	07016H
xdata	ENDS
;	COMDAT xdata
xdata	SEGMENT
$unwind$??$?0M$0A@@?$tvec2@M$0A@@glm@@QEAA@AEBU?$tvec4@M$0A@@1@@Z DD 010b01H
	DD	0700bH
xdata	ENDS
;	COMDAT xdata
xdata	SEGMENT
$unwind$??$?0M$0A@@?$tvec2@M$0A@@glm@@QEAA@AEBU?$tvec3@M$0A@@1@@Z DD 010b01H
	DD	0700bH
xdata	ENDS
;	COMDAT xdata
xdata	SEGMENT
$unwind$??$min@_K@std@@YAAEB_KAEB_K0@Z DD 020f01H
	DD	0700b120fH
xdata	ENDS
;	COMDAT xdata
xdata	SEGMENT
$unwind$??$_Allocate@$0BA@U_Default_allocate_traits@std@@$0A@@std@@YAPEAX_K@Z DD 020a01H
	DD	07006320aH
xdata	ENDS
;	COMDAT xdata
xdata	SEGMENT
$unwind$??$_Get_size_of_n@$0BA@@std@@YA_K_K@Z DD 020a01H
	DD	07006520aH
xdata	ENDS
;	COMDAT xdata
xdata	SEGMENT
$unwind$??$_Construct_in_place@U_Container_proxy@std@@PEAU_Container_base12@2@@std@@YAXAEAU_Container_proxy@0@$$QEAPEAU_Container_base12@0@@Z DD 020f01H
	DD	0700b520fH
xdata	ENDS
;	COMDAT xdata
xdata	SEGMENT
$unwind$??$addressof@U_Container_base12@std@@@std@@YAPEAU_Container_base12@0@AEAU10@@Z DD 010601H
	DD	07006H
xdata	ENDS
;	COMDAT xdata
xdata	SEGMENT
$unwind$??$_Unfancy@U_Container_proxy@std@@@std@@YAPEAU_Container_proxy@0@PEAU10@@Z DD 010601H
	DD	07006H
xdata	ENDS
;	COMDAT voltbl
voltbl	SEGMENT
_volmd	DB	00H
	DB	05H
voltbl	ENDS
;	COMDAT xdata
xdata	SEGMENT
$unwind$?dtor$0@?0???$_Uninitialized_copy@PEBU?$tmat2x2@M$0A@@glm@@V?$allocator@U?$tmat2x2@M$0A@@glm@@@std@@@std@@YAPEAU?$tmat2x2@M$0A@@glm@@QEBU12@0PEAU12@AEAV?$allocator@U?$tmat2x2@M$0A@@glm@@@0@@Z@4HA DD 031001H
	DD	0700c4210H
	DD	0500bH
xdata	ENDS
;	COMDAT xdata
xdata	SEGMENT
$ip2state$??$_Uninitialized_copy@PEBU?$tmat2x2@M$0A@@glm@@V?$allocator@U?$tmat2x2@M$0A@@glm@@@std@@@std@@YAPEAU?$tmat2x2@M$0A@@glm@@QEBU12@0PEAU12@AEAV?$allocator@U?$tmat2x2@M$0A@@glm@@@0@@Z DB 02H
	DB	00H
	DB	00H
xdata	ENDS
;	COMDAT xdata
xdata	SEGMENT
$stateUnwindMap$??$_Uninitialized_copy@PEBU?$tmat2x2@M$0A@@glm@@V?$allocator@U?$tmat2x2@M$0A@@glm@@@std@@@std@@YAPEAU?$tmat2x2@M$0A@@glm@@QEBU12@0PEAU12@AEAV?$allocator@U?$tmat2x2@M$0A@@glm@@@0@@Z DB 02H
	DB	0eH
	DD	imagerel ?dtor$0@?0???$_Uninitialized_copy@PEBU?$tmat2x2@M$0A@@glm@@V?$allocator@U?$tmat2x2@M$0A@@glm@@@std@@@std@@YAPEAU?$tmat2x2@M$0A@@glm@@QEBU12@0PEAU12@AEAV?$allocator@U?$tmat2x2@M$0A@@glm@@@0@@Z@4HA
xdata	ENDS
;	COMDAT xdata
xdata	SEGMENT
$cppxdata$??$_Uninitialized_copy@PEBU?$tmat2x2@M$0A@@glm@@V?$allocator@U?$tmat2x2@M$0A@@glm@@@std@@@std@@YAPEAU?$tmat2x2@M$0A@@glm@@QEBU12@0PEAU12@AEAV?$allocator@U?$tmat2x2@M$0A@@glm@@@0@@Z DB 028H
	DD	imagerel $stateUnwindMap$??$_Uninitialized_copy@PEBU?$tmat2x2@M$0A@@glm@@V?$allocator@U?$tmat2x2@M$0A@@glm@@@std@@@std@@YAPEAU?$tmat2x2@M$0A@@glm@@QEBU12@0PEAU12@AEAV?$allocator@U?$tmat2x2@M$0A@@glm@@@0@@Z
	DD	imagerel $ip2state$??$_Uninitialized_copy@PEBU?$tmat2x2@M$0A@@glm@@V?$allocator@U?$tmat2x2@M$0A@@glm@@@std@@@std@@YAPEAU?$tmat2x2@M$0A@@glm@@QEBU12@0PEAU12@AEAV?$allocator@U?$tmat2x2@M$0A@@glm@@@0@@Z
xdata	ENDS
;	COMDAT xdata
xdata	SEGMENT
$unwind$??$_Uninitialized_copy@PEBU?$tmat2x2@M$0A@@glm@@V?$allocator@U?$tmat2x2@M$0A@@glm@@@std@@@std@@YAPEAU?$tmat2x2@M$0A@@glm@@QEBU12@0PEAU12@AEAV?$allocator@U?$tmat2x2@M$0A@@glm@@@0@@Z DD 022f11H
	DD	07015b219H
	DD	imagerel __CxxFrameHandler4
	DD	imagerel $cppxdata$??$_Uninitialized_copy@PEBU?$tmat2x2@M$0A@@glm@@V?$allocator@U?$tmat2x2@M$0A@@glm@@@std@@@std@@YAPEAU?$tmat2x2@M$0A@@glm@@QEBU12@0PEAU12@AEAV?$allocator@U?$tmat2x2@M$0A@@glm@@@0@@Z
xdata	ENDS
;	COMDAT CONST
CONST	SEGMENT
??$_Uninitialized_copy@PEBU?$tmat2x2@M$0A@@glm@@V?$allocator@U?$tmat2x2@M$0A@@glm@@@std@@@std@@YAPEAU?$tmat2x2@M$0A@@glm@@QEBU12@0PEAU12@AEAV?$allocator@U?$tmat2x2@M$0A@@glm@@@0@@Z$rtcName$0 DB 05fH ; std::_Uninitialized_copy<glm::tmat2x2<float,0> const *,std::allocator<glm::tmat2x2<float,0> > >
	DB	042H
	DB	061H
	DB	063H
	DB	06bH
	DB	06fH
	DB	075H
	DB	074H
	DB	00H
	ORG $+7
??$_Uninitialized_copy@PEBU?$tmat2x2@M$0A@@glm@@V?$allocator@U?$tmat2x2@M$0A@@glm@@@std@@@std@@YAPEAU?$tmat2x2@M$0A@@glm@@QEBU12@0PEAU12@AEAV?$allocator@U?$tmat2x2@M$0A@@glm@@@0@@Z$rtcVarDesc DD 038H ; std::_Uninitialized_copy<glm::tmat2x2<float,0> const *,std::allocator<glm::tmat2x2<float,0> > >
	DD	018H
	DQ	FLAT:??$_Uninitialized_copy@PEBU?$tmat2x2@M$0A@@glm@@V?$allocator@U?$tmat2x2@M$0A@@glm@@@std@@@std@@YAPEAU?$tmat2x2@M$0A@@glm@@QEBU12@0PEAU12@AEAV?$allocator@U?$tmat2x2@M$0A@@glm@@@0@@Z$rtcName$0
	ORG $+48
??$_Uninitialized_copy@PEBU?$tmat2x2@M$0A@@glm@@V?$allocator@U?$tmat2x2@M$0A@@glm@@@std@@@std@@YAPEAU?$tmat2x2@M$0A@@glm@@QEBU12@0PEAU12@AEAV?$allocator@U?$tmat2x2@M$0A@@glm@@@0@@Z$rtcFrameData DD 01H ; std::_Uninitialized_copy<glm::tmat2x2<float,0> const *,std::allocator<glm::tmat2x2<float,0> > >
	DD	00H
	DQ	FLAT:??$_Uninitialized_copy@PEBU?$tmat2x2@M$0A@@glm@@V?$allocator@U?$tmat2x2@M$0A@@glm@@@std@@@std@@YAPEAU?$tmat2x2@M$0A@@glm@@QEBU12@0PEAU12@AEAV?$allocator@U?$tmat2x2@M$0A@@glm@@@0@@Z$rtcVarDesc
CONST	ENDS
;	COMDAT xdata
xdata	SEGMENT
$unwind$??$forward@PEBU?$tmat2x2@M$0A@@glm@@@std@@YA$$QEAPEBU?$tmat2x2@M$0A@@glm@@AEAPEBU12@@Z DD 010601H
	DD	07006H
xdata	ENDS
;	COMDAT xdata
xdata	SEGMENT
$unwind$??1?$_Tidy_guard@V?$vector@U?$tmat2x2@M$0A@@glm@@V?$allocator@U?$tmat2x2@M$0A@@glm@@@std@@@std@@@std@@QEAA@XZ DD 020a01H
	DD	07006320aH
xdata	ENDS
;	COMDAT xdata
xdata	SEGMENT
$unwind$??1?$_Container_proxy_ptr12@V?$allocator@U_Container_proxy@std@@@std@@@std@@QEAA@XZ DD 020a01H
	DD	07006320aH
xdata	ENDS
;	COMDAT xdata
xdata	SEGMENT
$unwind$??0?$_Container_proxy_ptr12@V?$allocator@U_Container_proxy@std@@@std@@@std@@QEAA@AEAV?$allocator@U_Container_proxy@std@@@1@AEAU_Container_base12@1@@Z DD 021401H
	DD	070105214H
xdata	ENDS
;	COMDAT xdata
xdata	SEGMENT
$unwind$??$forward@AEBV?$allocator@U?$tmat2x2@M$0A@@glm@@@std@@@std@@YAAEBV?$allocator@U?$tmat2x2@M$0A@@glm@@@0@AEBV10@@Z DD 010601H
	DD	07006H
xdata	ENDS
;	COMDAT xdata
xdata	SEGMENT
$ip2state$??$_Deallocate_plain@V?$allocator@U_Container_proxy@std@@@std@@@std@@YAXAEAV?$allocator@U_Container_proxy@std@@@0@QEAU_Container_proxy@0@@Z DB 02H
	DB	00H
	DB	00H
xdata	ENDS
;	COMDAT xdata
xdata	SEGMENT
$cppxdata$??$_Deallocate_plain@V?$allocator@U_Container_proxy@std@@@std@@@std@@YAXAEAV?$allocator@U_Container_proxy@std@@@0@QEAU_Container_proxy@0@@Z DB 060H
	DD	imagerel $ip2state$??$_Deallocate_plain@V?$allocator@U_Container_proxy@std@@@std@@@std@@YAXAEAV?$allocator@U_Container_proxy@std@@@0@QEAU_Container_proxy@0@@Z
xdata	ENDS
;	COMDAT xdata
xdata	SEGMENT
$unwind$??$_Deallocate_plain@V?$allocator@U_Container_proxy@std@@@std@@@std@@YAXAEAV?$allocator@U_Container_proxy@std@@@0@QEAU_Container_proxy@0@@Z DD 020f19H
	DD	0700b320fH
	DD	imagerel __CxxFrameHandler4
	DD	imagerel $cppxdata$??$_Deallocate_plain@V?$allocator@U_Container_proxy@std@@@std@@@std@@YAXAEAV?$allocator@U_Container_proxy@std@@@0@QEAU_Container_proxy@0@@Z
xdata	ENDS
;	COMDAT voltbl
voltbl	SEGMENT
_volmd	DB	019H
	DB	03aH
voltbl	ENDS
;	COMDAT xdata
xdata	SEGMENT
$unwind$??$?_0M@?$tmat2x2@M$0A@@glm@@QEAAAEAU01@AEBU01@@Z DD 021e19H
	DD	0700b720fH
	DD	imagerel __GSHandlerCheck
	DD	038H
xdata	ENDS
;	COMDAT xdata
xdata	SEGMENT
$unwind$??$lessThan@M$0A@Utvec2@glm@@@glm@@YA?AU?$tvec2@_N$0A@@0@AEBU?$tvec2@M$0A@@0@0@Z DD 022a01H
	DD	070109214H
xdata	ENDS
;	COMDAT CONST
CONST	SEGMENT
??$lessThan@M$0A@Utvec2@glm@@@glm@@YA?AU?$tvec2@_N$0A@@0@AEBU?$tvec2@M$0A@@0@0@Z$rtcName$0 DB 052H ; glm::lessThan<float,0,glm::tvec2>
	DB	065H
	DB	073H
	DB	075H
	DB	06cH
	DB	074H
	DB	00H
	ORG $+9
??$lessThan@M$0A@Utvec2@glm@@@glm@@YA?AU?$tvec2@_N$0A@@0@AEBU?$tvec2@M$0A@@0@0@Z$rtcVarDesc DD 024H ; glm::lessThan<float,0,glm::tvec2>
	DD	02H
	DQ	FLAT:??$lessThan@M$0A@Utvec2@glm@@@glm@@YA?AU?$tvec2@_N$0A@@0@AEBU?$tvec2@M$0A@@0@0@Z$rtcName$0
	ORG $+48
??$lessThan@M$0A@Utvec2@glm@@@glm@@YA?AU?$tvec2@_N$0A@@0@AEBU?$tvec2@M$0A@@0@0@Z$rtcFrameData DD 01H ; glm::lessThan<float,0,glm::tvec2>
	DD	00H
	DQ	FLAT:??$lessThan@M$0A@Utvec2@glm@@@glm@@YA?AU?$tvec2@_N$0A@@0@AEBU?$tvec2@M$0A@@0@0@Z$rtcVarDesc
CONST	ENDS
;	COMDAT xdata
xdata	SEGMENT
$unwind$??$abs@M$0A@Utvec2@glm@@@glm@@YA?AU?$tvec2@M$0A@@0@AEBU10@@Z DD 020f01H
	DD	0700b320fH
xdata	ENDS
;	COMDAT xdata
xdata	SEGMENT
$unwind$??$?GM$0A@@glm@@YA?AU?$tvec2@M$0A@@0@AEBU10@0@Z DD 021401H
	DD	070103214H
xdata	ENDS
;	COMDAT voltbl
voltbl	SEGMENT
_volmd	DW	036H
	DW	0221H
voltbl	ENDS
;	COMDAT xdata
xdata	SEGMENT
$unwind$?call@?$compute_inverse@Utmat2x2@glm@@M$0A@$0A@@detail@glm@@SA?AU?$tmat2x2@M$0A@@3@AEBU43@@Z DD 043e19H
	DD	0150113H
	DD	0600b700cH
	DD	imagerel __GSHandlerCheck
	DD	098H
xdata	ENDS
;	COMDAT CONST
CONST	SEGMENT
?call@?$compute_inverse@Utmat2x2@glm@@M$0A@$0A@@detail@glm@@SA?AU?$tmat2x2@M$0A@@3@AEBU43@@Z$rtcName$0 DB 049H ; glm::detail::compute_inverse<glm::tmat2x2,float,0,0>::call
	DB	06eH
	DB	076H
	DB	065H
	DB	072H
	DB	073H
	DB	065H
	DB	00H
	ORG $+8
?call@?$compute_inverse@Utmat2x2@glm@@M$0A@$0A@@detail@glm@@SA?AU?$tmat2x2@M$0A@@3@AEBU43@@Z$rtcVarDesc DD 048H ; glm::detail::compute_inverse<glm::tmat2x2,float,0,0>::call
	DD	010H
	DQ	FLAT:?call@?$compute_inverse@Utmat2x2@glm@@M$0A@$0A@@detail@glm@@SA?AU?$tmat2x2@M$0A@@3@AEBU43@@Z$rtcName$0
	ORG $+48
?call@?$compute_inverse@Utmat2x2@glm@@M$0A@$0A@@detail@glm@@SA?AU?$tmat2x2@M$0A@@3@AEBU43@@Z$rtcFrameData DD 01H ; glm::detail::compute_inverse<glm::tmat2x2,float,0,0>::call
	DD	00H
	DQ	FLAT:?call@?$compute_inverse@Utmat2x2@glm@@M$0A@$0A@@detail@glm@@SA?AU?$tmat2x2@M$0A@@3@AEBU43@@Z$rtcVarDesc
CONST	ENDS
;	COMDAT xdata
xdata	SEGMENT
$unwind$??$?8M$0A@@glm@@YA_NAEBU?$tvec2@M$0A@@0@0@Z DD 020f01H
	DD	0700b120fH
xdata	ENDS
;	COMDAT xdata
xdata	SEGMENT
$unwind$??$?9M$0A@@glm@@YA_NAEBU?$tvec2@M$0A@@0@0@Z DD 020f01H
	DD	0700b120fH
xdata	ENDS
;	COMDAT xdata
xdata	SEGMENT
$unwind$??$?DM$0A@@glm@@YA?AU?$tvec2@M$0A@@0@AEBU10@M@Z DD 021501H
	DD	070113215H
xdata	ENDS
;	COMDAT xdata
xdata	SEGMENT
$unwind$??$?KM$0A@@glm@@YA?AU?$tvec2@M$0A@@0@AEBU10@M@Z DD 021501H
	DD	070113215H
xdata	ENDS
;	COMDAT xdata
xdata	SEGMENT
$unwind$??$?KM$0A@@glm@@YA?AU?$tvec2@M$0A@@0@MAEBU10@@Z DD 021501H
	DD	070113215H
xdata	ENDS
;	COMDAT xdata
xdata	SEGMENT
$unwind$?call@?$compute_abs@M$00@detail@glm@@SAMM@Z DD 020b01H
	DD	07007320bH
xdata	ENDS
;	COMDAT xdata
xdata	SEGMENT
$unwind$??$?0HH@?$tvec2@N$0A@@glm@@QEAA@HH@Z DD 010f01H
	DD	0700fH
xdata	ENDS
;	COMDAT xdata
xdata	SEGMENT
$unwind$??$?0HM@?$tvec2@M$0A@@glm@@QEAA@HM@Z DD 011001H
	DD	07010H
xdata	ENDS
;	COMDAT xdata
xdata	SEGMENT
$unwind$??$?0MH@?$tvec2@M$0A@@glm@@QEAA@MH@Z DD 011101H
	DD	07011H
xdata	ENDS
;	COMDAT xdata
xdata	SEGMENT
$ip2state$??$_Deallocate@$0BA@$0A@@std@@YAXPEAX_K@Z DB 02H
	DB	00H
	DB	00H
xdata	ENDS
;	COMDAT xdata
xdata	SEGMENT
$cppxdata$??$_Deallocate@$0BA@$0A@@std@@YAXPEAX_K@Z DB 060H
	DD	imagerel $ip2state$??$_Deallocate@$0BA@$0A@@std@@YAXPEAX_K@Z
xdata	ENDS
;	COMDAT xdata
xdata	SEGMENT
$unwind$??$_Deallocate@$0BA@$0A@@std@@YAXPEAX_K@Z DD 020f19H
	DD	0700b320fH
	DD	imagerel __CxxFrameHandler4
	DD	imagerel $cppxdata$??$_Deallocate@$0BA@$0A@@std@@YAXPEAX_K@Z
xdata	ENDS
;	COMDAT xdata
xdata	SEGMENT
$unwind$??$_Destroy_range@V?$allocator@U?$tmat2x2@M$0A@@glm@@@std@@@std@@YAXPEAU?$tmat2x2@M$0A@@glm@@QEAU12@AEAV?$allocator@U?$tmat2x2@M$0A@@glm@@@0@@Z DD 011001H
	DD	07010H
xdata	ENDS
;	COMDAT voltbl
voltbl	SEGMENT
_volmd	DB	00H
	DB	05H
voltbl	ENDS
;	COMDAT voltbl
voltbl	SEGMENT
_volmd	DB	00H
	DB	05H
voltbl	ENDS
;	COMDAT xdata
xdata	SEGMENT
$unwind$?dtor$1@?0???$_Construct_n@PEBU?$tmat2x2@M$0A@@glm@@PEBU12@@?$vector@U?$tmat2x2@M$0A@@glm@@V?$allocator@U?$tmat2x2@M$0A@@glm@@@std@@@std@@AEAAX_K$$QEAPEBU?$tmat2x2@M$0A@@glm@@1@Z@4HA DD 031001H
	DD	0700c4210H
	DD	0500bH
xdata	ENDS
;	COMDAT xdata
xdata	SEGMENT
$unwind$?dtor$0@?0???$_Construct_n@PEBU?$tmat2x2@M$0A@@glm@@PEBU12@@?$vector@U?$tmat2x2@M$0A@@glm@@V?$allocator@U?$tmat2x2@M$0A@@glm@@@std@@@std@@AEAAX_K$$QEAPEBU?$tmat2x2@M$0A@@glm@@1@Z@4HA DD 031001H
	DD	0700c4210H
	DD	0500bH
xdata	ENDS
;	COMDAT xdata
xdata	SEGMENT
$ip2state$??$_Construct_n@PEBU?$tmat2x2@M$0A@@glm@@PEBU12@@?$vector@U?$tmat2x2@M$0A@@glm@@V?$allocator@U?$tmat2x2@M$0A@@glm@@@std@@@std@@AEAAX_K$$QEAPEBU?$tmat2x2@M$0A@@glm@@1@Z DB 0aH
	DB	00H
	DB	00H
	DB	09H, 02H
	DB	02H
	DB	'h'
	DB	04H
	DB	0b0H
	DB	02H
	DB	'0'
	DB	00H
xdata	ENDS
;	COMDAT xdata
xdata	SEGMENT
$stateUnwindMap$??$_Construct_n@PEBU?$tmat2x2@M$0A@@glm@@PEBU12@@?$vector@U?$tmat2x2@M$0A@@glm@@V?$allocator@U?$tmat2x2@M$0A@@glm@@@std@@@std@@AEAAX_K$$QEAPEBU?$tmat2x2@M$0A@@glm@@1@Z DB 04H
	DB	0eH
	DD	imagerel ?dtor$0@?0???$_Construct_n@PEBU?$tmat2x2@M$0A@@glm@@PEBU12@@?$vector@U?$tmat2x2@M$0A@@glm@@V?$allocator@U?$tmat2x2@M$0A@@glm@@@std@@@std@@AEAAX_K$$QEAPEBU?$tmat2x2@M$0A@@glm@@1@Z@4HA
	DB	02eH
	DD	imagerel ?dtor$1@?0???$_Construct_n@PEBU?$tmat2x2@M$0A@@glm@@PEBU12@@?$vector@U?$tmat2x2@M$0A@@glm@@V?$allocator@U?$tmat2x2@M$0A@@glm@@@std@@@std@@AEAAX_K$$QEAPEBU?$tmat2x2@M$0A@@glm@@1@Z@4HA
xdata	ENDS
;	COMDAT xdata
xdata	SEGMENT
$cppxdata$??$_Construct_n@PEBU?$tmat2x2@M$0A@@glm@@PEBU12@@?$vector@U?$tmat2x2@M$0A@@glm@@V?$allocator@U?$tmat2x2@M$0A@@glm@@@std@@@std@@AEAAX_K$$QEAPEBU?$tmat2x2@M$0A@@glm@@1@Z DB 028H
	DD	imagerel $stateUnwindMap$??$_Construct_n@PEBU?$tmat2x2@M$0A@@glm@@PEBU12@@?$vector@U?$tmat2x2@M$0A@@glm@@V?$allocator@U?$tmat2x2@M$0A@@glm@@@std@@@std@@AEAAX_K$$QEAPEBU?$tmat2x2@M$0A@@glm@@1@Z
	DD	imagerel $ip2state$??$_Construct_n@PEBU?$tmat2x2@M$0A@@glm@@PEBU12@@?$vector@U?$tmat2x2@M$0A@@glm@@V?$allocator@U?$tmat2x2@M$0A@@glm@@@std@@@std@@AEAAX_K$$QEAPEBU?$tmat2x2@M$0A@@glm@@1@Z
xdata	ENDS
;	COMDAT xdata
xdata	SEGMENT
$unwind$??$_Construct_n@PEBU?$tmat2x2@M$0A@@glm@@PEBU12@@?$vector@U?$tmat2x2@M$0A@@glm@@V?$allocator@U?$tmat2x2@M$0A@@glm@@@std@@@std@@AEAAX_K$$QEAPEBU?$tmat2x2@M$0A@@glm@@1@Z DD 033511H
	DD	014011cH
	DD	07015H
	DD	imagerel __CxxFrameHandler4
	DD	imagerel $cppxdata$??$_Construct_n@PEBU?$tmat2x2@M$0A@@glm@@PEBU12@@?$vector@U?$tmat2x2@M$0A@@glm@@V?$allocator@U?$tmat2x2@M$0A@@glm@@@std@@@std@@AEAAX_K$$QEAPEBU?$tmat2x2@M$0A@@glm@@1@Z
xdata	ENDS
;	COMDAT CONST
CONST	SEGMENT
??$_Construct_n@PEBU?$tmat2x2@M$0A@@glm@@PEBU12@@?$vector@U?$tmat2x2@M$0A@@glm@@V?$allocator@U?$tmat2x2@M$0A@@glm@@@std@@@std@@AEAAX_K$$QEAPEBU?$tmat2x2@M$0A@@glm@@1@Z$rtcName$0 DB 024H ; std::vector<glm::tmat2x2<float,0>,std::allocator<glm::tmat2x2<float,0> > >::_Construct_n<glm::tmat2x2<float,0> const *,glm::tmat2x2<float,0> const *>
	DB	053H
	DB	032H
	DB	00H
??$_Construct_n@PEBU?$tmat2x2@M$0A@@glm@@PEBU12@@?$vector@U?$tmat2x2@M$0A@@glm@@V?$allocator@U?$tmat2x2@M$0A@@glm@@@std@@@std@@AEAAX_K$$QEAPEBU?$tmat2x2@M$0A@@glm@@1@Z$rtcName$1 DB 05fH ; std::vector<glm::tmat2x2<float,0>,std::allocator<glm::tmat2x2<float,0> > >::_Construct_n<glm::tmat2x2<float,0> const *,glm::tmat2x2<float,0> const *>
	DB	050H
	DB	072H
	DB	06fH
	DB	078H
	DB	079H
	DB	00H
	ORG $+1
??$_Construct_n@PEBU?$tmat2x2@M$0A@@glm@@PEBU12@@?$vector@U?$tmat2x2@M$0A@@glm@@V?$allocator@U?$tmat2x2@M$0A@@glm@@@std@@@std@@AEAAX_K$$QEAPEBU?$tmat2x2@M$0A@@glm@@1@Z$rtcName$2 DB 05fH ; std::vector<glm::tmat2x2<float,0>,std::allocator<glm::tmat2x2<float,0> > >::_Construct_n<glm::tmat2x2<float,0> const *,glm::tmat2x2<float,0> const *>
	DB	047H
	DB	075H
	DB	061H
	DB	072H
	DB	064H
	DB	00H
	ORG $+13
??$_Construct_n@PEBU?$tmat2x2@M$0A@@glm@@PEBU12@@?$vector@U?$tmat2x2@M$0A@@glm@@V?$allocator@U?$tmat2x2@M$0A@@glm@@@std@@@std@@AEAAX_K$$QEAPEBU?$tmat2x2@M$0A@@glm@@1@Z$rtcVarDesc DD 088H ; std::vector<glm::tmat2x2<float,0>,std::allocator<glm::tmat2x2<float,0> > >::_Construct_n<glm::tmat2x2<float,0> const *,glm::tmat2x2<float,0> const *>
	DD	08H
	DQ	FLAT:??$_Construct_n@PEBU?$tmat2x2@M$0A@@glm@@PEBU12@@?$vector@U?$tmat2x2@M$0A@@glm@@V?$allocator@U?$tmat2x2@M$0A@@glm@@@std@@@std@@AEAAX_K$$QEAPEBU?$tmat2x2@M$0A@@glm@@1@Z$rtcName$2
	DD	058H
	DD	010H
	DQ	FLAT:??$_Construct_n@PEBU?$tmat2x2@M$0A@@glm@@PEBU12@@?$vector@U?$tmat2x2@M$0A@@glm@@V?$allocator@U?$tmat2x2@M$0A@@glm@@@std@@@std@@AEAAX_K$$QEAPEBU?$tmat2x2@M$0A@@glm@@1@Z$rtcName$1
	DD	034H
	DD	01H
	DQ	FLAT:??$_Construct_n@PEBU?$tmat2x2@M$0A@@glm@@PEBU12@@?$vector@U?$tmat2x2@M$0A@@glm@@V?$allocator@U?$tmat2x2@M$0A@@glm@@@std@@@std@@AEAAX_K$$QEAPEBU?$tmat2x2@M$0A@@glm@@1@Z$rtcName$0
	ORG $+144
??$_Construct_n@PEBU?$tmat2x2@M$0A@@glm@@PEBU12@@?$vector@U?$tmat2x2@M$0A@@glm@@V?$allocator@U?$tmat2x2@M$0A@@glm@@@std@@@std@@AEAAX_K$$QEAPEBU?$tmat2x2@M$0A@@glm@@1@Z$rtcFrameData DD 03H ; std::vector<glm::tmat2x2<float,0>,std::allocator<glm::tmat2x2<float,0> > >::_Construct_n<glm::tmat2x2<float,0> const *,glm::tmat2x2<float,0> const *>
	DD	00H
	DQ	FLAT:??$_Construct_n@PEBU?$tmat2x2@M$0A@@glm@@PEBU12@@?$vector@U?$tmat2x2@M$0A@@glm@@V?$allocator@U?$tmat2x2@M$0A@@glm@@@std@@@std@@AEAAX_K$$QEAPEBU?$tmat2x2@M$0A@@glm@@1@Z$rtcVarDesc
CONST	ENDS
;	COMDAT xdata
xdata	SEGMENT
$unwind$??$_Convert_size@_K@std@@YA_K_K@Z DD 010601H
	DD	07006H
xdata	ENDS
;	COMDAT xdata
xdata	SEGMENT
$unwind$??$?0AEBV?$allocator@U?$tmat2x2@M$0A@@glm@@@std@@$$V@?$_Compressed_pair@V?$allocator@U?$tmat2x2@M$0A@@glm@@@std@@V?$_Vector_val@U?$_Simple_types@U?$tmat2x2@M$0A@@glm@@@std@@@2@$00@std@@QEAA@U_One_then_variadic_args_t@1@AEBV?$allocator@U?$tmat2x2@M$0A@@glm@@@1@@Z DD 021301H
	DD	0700f3213H
xdata	ENDS
;	COMDAT xdata
xdata	SEGMENT
$unwind$??$_Delete_plain_internal@V?$allocator@U_Container_proxy@std@@@std@@@std@@YAXAEAV?$allocator@U_Container_proxy@std@@@0@QEAU_Container_proxy@0@@Z DD 020f01H
	DD	0700b320fH
xdata	ENDS
;	COMDAT xdata
xdata	SEGMENT
$unwind$??$exchange@PEAU_Container_proxy@std@@$$T@std@@YAPEAU_Container_proxy@0@AEAPEAU10@$$QEA$$T@Z DD 020f01H
	DD	0700b120fH
xdata	ENDS
;	COMDAT xdata
xdata	SEGMENT
$unwind$??$?0U?$tmat2x2@M$0A@@glm@@@?$allocator@U_Container_proxy@std@@@std@@QEAA@AEBV?$allocator@U?$tmat2x2@M$0A@@glm@@@1@@Z DD 010b01H
	DD	0700bH
xdata	ENDS
;	COMDAT xdata
xdata	SEGMENT
$unwind$?allocate@?$allocator@U_Container_proxy@std@@@std@@QEAAPEAU_Container_proxy@2@_K@Z DD 020f01H
	DD	0700b320fH
xdata	ENDS
;	COMDAT xdata
xdata	SEGMENT
$unwind$?length@?$tmat2x2@N$0A@@glm@@SAHXZ DD 010201H
	DD	07002H
xdata	ENDS
;	COMDAT xdata
xdata	SEGMENT
$unwind$??0?$tmat2x2@N$0A@@glm@@QEAA@XZ DD 030b01H
	DD	07007820bH
	DD	06006H
xdata	ENDS
;	COMDAT xdata
xdata	SEGMENT
$unwind$??0?$tvec2@N$0A@@glm@@QEAA@XZ DD 010601H
	DD	07006H
xdata	ENDS
;	COMDAT voltbl
voltbl	SEGMENT
_volmd	DW	024H
	DW	015cH
voltbl	ENDS
;	COMDAT xdata
xdata	SEGMENT
$unwind$??$entry@U?$tmat4x4@M$0A@@glm@@@cast@@YAHXZ DD 032c19H
	DD	0240109H
	DD	07002H
	DD	imagerel __GSHandlerCheck
	DD	0110H
xdata	ENDS
;	COMDAT CONST
CONST	SEGMENT
??$entry@U?$tmat4x4@M$0A@@glm@@@cast@@YAHXZ$rtcName$0 DB 041H ; cast::entry<glm::tmat4x4<float,0> >
	DB	00H
	ORG $+2
??$entry@U?$tmat4x4@M$0A@@glm@@@cast@@YAHXZ$rtcName$1 DB 042H ; cast::entry<glm::tmat4x4<float,0> >
	DB	00H
	ORG $+2
??$entry@U?$tmat4x4@M$0A@@glm@@@cast@@YAHXZ$rtcName$2 DB 049H ; cast::entry<glm::tmat4x4<float,0> >
	DB	064H
	DB	065H
	DB	06eH
	DB	074H
	DB	069H
	DB	074H
	DB	079H
	DB	00H
	ORG $+15
??$entry@U?$tmat4x4@M$0A@@glm@@@cast@@YAHXZ$rtcVarDesc DD 0c8H ; cast::entry<glm::tmat4x4<float,0> >
	DD	010H
	DQ	FLAT:??$entry@U?$tmat4x4@M$0A@@glm@@@cast@@YAHXZ$rtcName$2
	DD	098H
	DD	010H
	DQ	FLAT:??$entry@U?$tmat4x4@M$0A@@glm@@@cast@@YAHXZ$rtcName$1
	DD	040H
	DD	040H
	DQ	FLAT:??$entry@U?$tmat4x4@M$0A@@glm@@@cast@@YAHXZ$rtcName$0
	ORG $+144
??$entry@U?$tmat4x4@M$0A@@glm@@@cast@@YAHXZ$rtcFrameData DD 03H ; cast::entry<glm::tmat4x4<float,0> >
	DD	00H
	DQ	FLAT:??$entry@U?$tmat4x4@M$0A@@glm@@@cast@@YAHXZ$rtcVarDesc
CONST	ENDS
;	COMDAT voltbl
voltbl	SEGMENT
_volmd	DW	024H
	DW	015cH
voltbl	ENDS
;	COMDAT xdata
xdata	SEGMENT
$unwind$??$entry@U?$tmat4x3@M$0A@@glm@@@cast@@YAHXZ DD 032c19H
	DD	0220109H
	DD	07002H
	DD	imagerel __GSHandlerCheck
	DD	0100H
xdata	ENDS
;	COMDAT CONST
CONST	SEGMENT
??$entry@U?$tmat4x3@M$0A@@glm@@@cast@@YAHXZ$rtcName$0 DB 041H ; cast::entry<glm::tmat4x3<float,0> >
	DB	00H
	ORG $+2
??$entry@U?$tmat4x3@M$0A@@glm@@@cast@@YAHXZ$rtcName$1 DB 042H ; cast::entry<glm::tmat4x3<float,0> >
	DB	00H
	ORG $+2
??$entry@U?$tmat4x3@M$0A@@glm@@@cast@@YAHXZ$rtcName$2 DB 049H ; cast::entry<glm::tmat4x3<float,0> >
	DB	064H
	DB	065H
	DB	06eH
	DB	074H
	DB	069H
	DB	074H
	DB	079H
	DB	00H
	ORG $+15
??$entry@U?$tmat4x3@M$0A@@glm@@@cast@@YAHXZ$rtcVarDesc DD 0b8H ; cast::entry<glm::tmat4x3<float,0> >
	DD	010H
	DQ	FLAT:??$entry@U?$tmat4x3@M$0A@@glm@@@cast@@YAHXZ$rtcName$2
	DD	088H
	DD	010H
	DQ	FLAT:??$entry@U?$tmat4x3@M$0A@@glm@@@cast@@YAHXZ$rtcName$1
	DD	038H
	DD	030H
	DQ	FLAT:??$entry@U?$tmat4x3@M$0A@@glm@@@cast@@YAHXZ$rtcName$0
	ORG $+144
??$entry@U?$tmat4x3@M$0A@@glm@@@cast@@YAHXZ$rtcFrameData DD 03H ; cast::entry<glm::tmat4x3<float,0> >
	DD	00H
	DQ	FLAT:??$entry@U?$tmat4x3@M$0A@@glm@@@cast@@YAHXZ$rtcVarDesc
CONST	ENDS
;	COMDAT voltbl
voltbl	SEGMENT
_volmd	DW	024H
	DW	0145H
voltbl	ENDS
;	COMDAT xdata
xdata	SEGMENT
$unwind$??$entry@U?$tmat4x2@M$0A@@glm@@@cast@@YAHXZ DD 032c19H
	DD	0200109H
	DD	07002H
	DD	imagerel __GSHandlerCheck
	DD	0f0H
xdata	ENDS
;	COMDAT CONST
CONST	SEGMENT
??$entry@U?$tmat4x2@M$0A@@glm@@@cast@@YAHXZ$rtcName$0 DB 041H ; cast::entry<glm::tmat4x2<float,0> >
	DB	00H
	ORG $+2
??$entry@U?$tmat4x2@M$0A@@glm@@@cast@@YAHXZ$rtcName$1 DB 042H ; cast::entry<glm::tmat4x2<float,0> >
	DB	00H
	ORG $+2
??$entry@U?$tmat4x2@M$0A@@glm@@@cast@@YAHXZ$rtcName$2 DB 049H ; cast::entry<glm::tmat4x2<float,0> >
	DB	064H
	DB	065H
	DB	06eH
	DB	074H
	DB	069H
	DB	074H
	DB	079H
	DB	00H
	ORG $+15
??$entry@U?$tmat4x2@M$0A@@glm@@@cast@@YAHXZ$rtcVarDesc DD 0a8H ; cast::entry<glm::tmat4x2<float,0> >
	DD	010H
	DQ	FLAT:??$entry@U?$tmat4x2@M$0A@@glm@@@cast@@YAHXZ$rtcName$2
	DD	078H
	DD	010H
	DQ	FLAT:??$entry@U?$tmat4x2@M$0A@@glm@@@cast@@YAHXZ$rtcName$1
	DD	038H
	DD	020H
	DQ	FLAT:??$entry@U?$tmat4x2@M$0A@@glm@@@cast@@YAHXZ$rtcName$0
	ORG $+144
??$entry@U?$tmat4x2@M$0A@@glm@@@cast@@YAHXZ$rtcFrameData DD 03H ; cast::entry<glm::tmat4x2<float,0> >
	DD	00H
	DQ	FLAT:??$entry@U?$tmat4x2@M$0A@@glm@@@cast@@YAHXZ$rtcVarDesc
CONST	ENDS
;	COMDAT voltbl
voltbl	SEGMENT
_volmd	DW	024H
	DW	014bH
voltbl	ENDS
;	COMDAT xdata
xdata	SEGMENT
$unwind$??$entry@U?$tmat3x4@M$0A@@glm@@@cast@@YAHXZ DD 032c19H
	DD	0220109H
	DD	07002H
	DD	imagerel __GSHandlerCheck
	DD	0100H
xdata	ENDS
;	COMDAT CONST
CONST	SEGMENT
??$entry@U?$tmat3x4@M$0A@@glm@@@cast@@YAHXZ$rtcName$0 DB 041H ; cast::entry<glm::tmat3x4<float,0> >
	DB	00H
	ORG $+2
??$entry@U?$tmat3x4@M$0A@@glm@@@cast@@YAHXZ$rtcName$1 DB 042H ; cast::entry<glm::tmat3x4<float,0> >
	DB	00H
	ORG $+2
??$entry@U?$tmat3x4@M$0A@@glm@@@cast@@YAHXZ$rtcName$2 DB 049H ; cast::entry<glm::tmat3x4<float,0> >
	DB	064H
	DB	065H
	DB	06eH
	DB	074H
	DB	069H
	DB	074H
	DB	079H
	DB	00H
	ORG $+15
??$entry@U?$tmat3x4@M$0A@@glm@@@cast@@YAHXZ$rtcVarDesc DD 0b8H ; cast::entry<glm::tmat3x4<float,0> >
	DD	010H
	DQ	FLAT:??$entry@U?$tmat3x4@M$0A@@glm@@@cast@@YAHXZ$rtcName$2
	DD	088H
	DD	010H
	DQ	FLAT:??$entry@U?$tmat3x4@M$0A@@glm@@@cast@@YAHXZ$rtcName$1
	DD	038H
	DD	030H
	DQ	FLAT:??$entry@U?$tmat3x4@M$0A@@glm@@@cast@@YAHXZ$rtcName$0
	ORG $+144
??$entry@U?$tmat3x4@M$0A@@glm@@@cast@@YAHXZ$rtcFrameData DD 03H ; cast::entry<glm::tmat3x4<float,0> >
	DD	00H
	DQ	FLAT:??$entry@U?$tmat3x4@M$0A@@glm@@@cast@@YAHXZ$rtcVarDesc
CONST	ENDS
;	COMDAT voltbl
voltbl	SEGMENT
_volmd	DW	024H
	DW	0145H
voltbl	ENDS
;	COMDAT xdata
xdata	SEGMENT
$unwind$??$entry@U?$tmat3x3@M$0A@@glm@@@cast@@YAHXZ DD 032c19H
	DD	0200109H
	DD	07002H
	DD	imagerel __GSHandlerCheck
	DD	0f0H
xdata	ENDS
;	COMDAT CONST
CONST	SEGMENT
??$entry@U?$tmat3x3@M$0A@@glm@@@cast@@YAHXZ$rtcName$0 DB 041H ; cast::entry<glm::tmat3x3<float,0> >
	DB	00H
	ORG $+2
??$entry@U?$tmat3x3@M$0A@@glm@@@cast@@YAHXZ$rtcName$1 DB 042H ; cast::entry<glm::tmat3x3<float,0> >
	DB	00H
	ORG $+2
??$entry@U?$tmat3x3@M$0A@@glm@@@cast@@YAHXZ$rtcName$2 DB 049H ; cast::entry<glm::tmat3x3<float,0> >
	DB	064H
	DB	065H
	DB	06eH
	DB	074H
	DB	069H
	DB	074H
	DB	079H
	DB	00H
	ORG $+15
??$entry@U?$tmat3x3@M$0A@@glm@@@cast@@YAHXZ$rtcVarDesc DD 0a8H ; cast::entry<glm::tmat3x3<float,0> >
	DD	010H
	DQ	FLAT:??$entry@U?$tmat3x3@M$0A@@glm@@@cast@@YAHXZ$rtcName$2
	DD	078H
	DD	010H
	DQ	FLAT:??$entry@U?$tmat3x3@M$0A@@glm@@@cast@@YAHXZ$rtcName$1
	DD	038H
	DD	024H
	DQ	FLAT:??$entry@U?$tmat3x3@M$0A@@glm@@@cast@@YAHXZ$rtcName$0
	ORG $+144
??$entry@U?$tmat3x3@M$0A@@glm@@@cast@@YAHXZ$rtcFrameData DD 03H ; cast::entry<glm::tmat3x3<float,0> >
	DD	00H
	DQ	FLAT:??$entry@U?$tmat3x3@M$0A@@glm@@@cast@@YAHXZ$rtcVarDesc
CONST	ENDS
;	COMDAT voltbl
voltbl	SEGMENT
_volmd	DW	024H
	DW	0145H
voltbl	ENDS
;	COMDAT xdata
xdata	SEGMENT
$unwind$??$entry@U?$tmat3x2@M$0A@@glm@@@cast@@YAHXZ DD 032c19H
	DD	01e0109H
	DD	07002H
	DD	imagerel __GSHandlerCheck
	DD	0e0H
xdata	ENDS
;	COMDAT CONST
CONST	SEGMENT
??$entry@U?$tmat3x2@M$0A@@glm@@@cast@@YAHXZ$rtcName$0 DB 041H ; cast::entry<glm::tmat3x2<float,0> >
	DB	00H
	ORG $+2
??$entry@U?$tmat3x2@M$0A@@glm@@@cast@@YAHXZ$rtcName$1 DB 042H ; cast::entry<glm::tmat3x2<float,0> >
	DB	00H
	ORG $+2
??$entry@U?$tmat3x2@M$0A@@glm@@@cast@@YAHXZ$rtcName$2 DB 049H ; cast::entry<glm::tmat3x2<float,0> >
	DB	064H
	DB	065H
	DB	06eH
	DB	074H
	DB	069H
	DB	074H
	DB	079H
	DB	00H
	ORG $+15
??$entry@U?$tmat3x2@M$0A@@glm@@@cast@@YAHXZ$rtcVarDesc DD 098H ; cast::entry<glm::tmat3x2<float,0> >
	DD	010H
	DQ	FLAT:??$entry@U?$tmat3x2@M$0A@@glm@@@cast@@YAHXZ$rtcName$2
	DD	068H
	DD	010H
	DQ	FLAT:??$entry@U?$tmat3x2@M$0A@@glm@@@cast@@YAHXZ$rtcName$1
	DD	038H
	DD	018H
	DQ	FLAT:??$entry@U?$tmat3x2@M$0A@@glm@@@cast@@YAHXZ$rtcName$0
	ORG $+144
??$entry@U?$tmat3x2@M$0A@@glm@@@cast@@YAHXZ$rtcFrameData DD 03H ; cast::entry<glm::tmat3x2<float,0> >
	DD	00H
	DQ	FLAT:??$entry@U?$tmat3x2@M$0A@@glm@@@cast@@YAHXZ$rtcVarDesc
CONST	ENDS
;	COMDAT voltbl
voltbl	SEGMENT
_volmd	DW	024H
	DW	0145H
voltbl	ENDS
;	COMDAT xdata
xdata	SEGMENT
$unwind$??$entry@U?$tmat2x4@M$0A@@glm@@@cast@@YAHXZ DD 032c19H
	DD	0200109H
	DD	07002H
	DD	imagerel __GSHandlerCheck
	DD	0f0H
xdata	ENDS
;	COMDAT CONST
CONST	SEGMENT
??$entry@U?$tmat2x4@M$0A@@glm@@@cast@@YAHXZ$rtcName$0 DB 041H ; cast::entry<glm::tmat2x4<float,0> >
	DB	00H
	ORG $+2
??$entry@U?$tmat2x4@M$0A@@glm@@@cast@@YAHXZ$rtcName$1 DB 042H ; cast::entry<glm::tmat2x4<float,0> >
	DB	00H
	ORG $+2
??$entry@U?$tmat2x4@M$0A@@glm@@@cast@@YAHXZ$rtcName$2 DB 049H ; cast::entry<glm::tmat2x4<float,0> >
	DB	064H
	DB	065H
	DB	06eH
	DB	074H
	DB	069H
	DB	074H
	DB	079H
	DB	00H
	ORG $+15
??$entry@U?$tmat2x4@M$0A@@glm@@@cast@@YAHXZ$rtcVarDesc DD 0a8H ; cast::entry<glm::tmat2x4<float,0> >
	DD	010H
	DQ	FLAT:??$entry@U?$tmat2x4@M$0A@@glm@@@cast@@YAHXZ$rtcName$2
	DD	078H
	DD	010H
	DQ	FLAT:??$entry@U?$tmat2x4@M$0A@@glm@@@cast@@YAHXZ$rtcName$1
	DD	038H
	DD	020H
	DQ	FLAT:??$entry@U?$tmat2x4@M$0A@@glm@@@cast@@YAHXZ$rtcName$0
	ORG $+144
??$entry@U?$tmat2x4@M$0A@@glm@@@cast@@YAHXZ$rtcFrameData DD 03H ; cast::entry<glm::tmat2x4<float,0> >
	DD	00H
	DQ	FLAT:??$entry@U?$tmat2x4@M$0A@@glm@@@cast@@YAHXZ$rtcVarDesc
CONST	ENDS
;	COMDAT voltbl
voltbl	SEGMENT
_volmd	DW	024H
	DW	0145H
voltbl	ENDS
;	COMDAT xdata
xdata	SEGMENT
$unwind$??$entry@U?$tmat2x3@M$0A@@glm@@@cast@@YAHXZ DD 032c19H
	DD	01e0109H
	DD	07002H
	DD	imagerel __GSHandlerCheck
	DD	0e0H
xdata	ENDS
;	COMDAT CONST
CONST	SEGMENT
??$entry@U?$tmat2x3@M$0A@@glm@@@cast@@YAHXZ$rtcName$0 DB 041H ; cast::entry<glm::tmat2x3<float,0> >
	DB	00H
	ORG $+2
??$entry@U?$tmat2x3@M$0A@@glm@@@cast@@YAHXZ$rtcName$1 DB 042H ; cast::entry<glm::tmat2x3<float,0> >
	DB	00H
	ORG $+2
??$entry@U?$tmat2x3@M$0A@@glm@@@cast@@YAHXZ$rtcName$2 DB 049H ; cast::entry<glm::tmat2x3<float,0> >
	DB	064H
	DB	065H
	DB	06eH
	DB	074H
	DB	069H
	DB	074H
	DB	079H
	DB	00H
	ORG $+15
??$entry@U?$tmat2x3@M$0A@@glm@@@cast@@YAHXZ$rtcVarDesc DD 098H ; cast::entry<glm::tmat2x3<float,0> >
	DD	010H
	DQ	FLAT:??$entry@U?$tmat2x3@M$0A@@glm@@@cast@@YAHXZ$rtcName$2
	DD	068H
	DD	010H
	DQ	FLAT:??$entry@U?$tmat2x3@M$0A@@glm@@@cast@@YAHXZ$rtcName$1
	DD	038H
	DD	018H
	DQ	FLAT:??$entry@U?$tmat2x3@M$0A@@glm@@@cast@@YAHXZ$rtcName$0
	ORG $+144
??$entry@U?$tmat2x3@M$0A@@glm@@@cast@@YAHXZ$rtcFrameData DD 03H ; cast::entry<glm::tmat2x3<float,0> >
	DD	00H
	DQ	FLAT:??$entry@U?$tmat2x3@M$0A@@glm@@@cast@@YAHXZ$rtcVarDesc
CONST	ENDS
;	COMDAT voltbl
voltbl	SEGMENT
_volmd	DW	025H
	DW	014eH
voltbl	ENDS
;	COMDAT xdata
xdata	SEGMENT
$unwind$??$entry@U?$tmat2x2@M$0A@@glm@@@cast@@YAHXZ DD 042d19H
	DD	01f010aH
	DD	060027003H
	DD	imagerel __GSHandlerCheck
	DD	0e0H
xdata	ENDS
;	COMDAT CONST
CONST	SEGMENT
??$entry@U?$tmat2x2@M$0A@@glm@@@cast@@YAHXZ$rtcName$0 DB 041H ; cast::entry<glm::tmat2x2<float,0> >
	DB	00H
	ORG $+2
??$entry@U?$tmat2x2@M$0A@@glm@@@cast@@YAHXZ$rtcName$1 DB 042H ; cast::entry<glm::tmat2x2<float,0> >
	DB	00H
	ORG $+2
??$entry@U?$tmat2x2@M$0A@@glm@@@cast@@YAHXZ$rtcName$2 DB 049H ; cast::entry<glm::tmat2x2<float,0> >
	DB	064H
	DB	065H
	DB	06eH
	DB	074H
	DB	069H
	DB	074H
	DB	079H
	DB	00H
	ORG $+15
??$entry@U?$tmat2x2@M$0A@@glm@@@cast@@YAHXZ$rtcVarDesc DD 098H ; cast::entry<glm::tmat2x2<float,0> >
	DD	010H
	DQ	FLAT:??$entry@U?$tmat2x2@M$0A@@glm@@@cast@@YAHXZ$rtcName$2
	DD	068H
	DD	010H
	DQ	FLAT:??$entry@U?$tmat2x2@M$0A@@glm@@@cast@@YAHXZ$rtcName$1
	DD	038H
	DD	010H
	DQ	FLAT:??$entry@U?$tmat2x2@M$0A@@glm@@@cast@@YAHXZ$rtcName$0
	ORG $+144
??$entry@U?$tmat2x2@M$0A@@glm@@@cast@@YAHXZ$rtcFrameData DD 03H ; cast::entry<glm::tmat2x2<float,0> >
	DD	00H
	DQ	FLAT:??$entry@U?$tmat2x2@M$0A@@glm@@@cast@@YAHXZ$rtcVarDesc
CONST	ENDS
;	COMDAT xdata
xdata	SEGMENT
$unwind$?size@?$initializer_list@U?$tmat2x2@M$0A@@glm@@@std@@QEBA_KXZ DD 010601H
	DD	07006H
xdata	ENDS
;	COMDAT xdata
xdata	SEGMENT
$unwind$?end@?$initializer_list@U?$tmat2x2@M$0A@@glm@@@std@@QEBAPEBU?$tmat2x2@M$0A@@glm@@XZ DD 010601H
	DD	07006H
xdata	ENDS
;	COMDAT xdata
xdata	SEGMENT
$unwind$?begin@?$initializer_list@U?$tmat2x2@M$0A@@glm@@@std@@QEBAPEBU?$tmat2x2@M$0A@@glm@@XZ DD 010601H
	DD	07006H
xdata	ENDS
;	COMDAT xdata
xdata	SEGMENT
$unwind$??0?$initializer_list@U?$tmat2x2@M$0A@@glm@@@std@@QEAA@PEBU?$tmat2x2@M$0A@@glm@@0@Z DD 011001H
	DD	07010H
xdata	ENDS
;	COMDAT xdata
xdata	SEGMENT
$unwind$?_Get_first@?$_Compressed_pair@V?$allocator@U?$tmat2x2@M$0A@@glm@@@std@@V?$_Vector_val@U?$_Simple_types@U?$tmat2x2@M$0A@@glm@@@std@@@2@$00@std@@QEBAAEBV?$allocator@U?$tmat2x2@M$0A@@glm@@@2@XZ DD 010601H
	DD	07006H
xdata	ENDS
;	COMDAT xdata
xdata	SEGMENT
$unwind$?_Get_first@?$_Compressed_pair@V?$allocator@U?$tmat2x2@M$0A@@glm@@@std@@V?$_Vector_val@U?$_Simple_types@U?$tmat2x2@M$0A@@glm@@@std@@@2@$00@std@@QEAAAEAV?$allocator@U?$tmat2x2@M$0A@@glm@@@2@XZ DD 010601H
	DD	07006H
xdata	ENDS
;	COMDAT xdata
xdata	SEGMENT
$unwind$??0?$_Vector_val@U?$_Simple_types@U?$tmat2x2@M$0A@@glm@@@std@@@std@@QEAA@XZ DD 020a01H
	DD	07006320aH
xdata	ENDS
;	COMDAT xdata
xdata	SEGMENT
$unwind$?_Getal@?$vector@U?$tmat2x2@M$0A@@glm@@V?$allocator@U?$tmat2x2@M$0A@@glm@@@std@@@std@@AEBAAEBV?$allocator@U?$tmat2x2@M$0A@@glm@@@2@XZ DD 020a01H
	DD	07006320aH
xdata	ENDS
;	COMDAT xdata
xdata	SEGMENT
$unwind$?_Getal@?$vector@U?$tmat2x2@M$0A@@glm@@V?$allocator@U?$tmat2x2@M$0A@@glm@@@std@@@std@@AEAAAEAV?$allocator@U?$tmat2x2@M$0A@@glm@@@2@XZ DD 020a01H
	DD	07006320aH
xdata	ENDS
;	COMDAT xdata
xdata	SEGMENT
$unwind$?_Xlength@?$vector@U?$tmat2x2@M$0A@@glm@@V?$allocator@U?$tmat2x2@M$0A@@glm@@@std@@@std@@CAXXZ DD 020601H
	DD	070023206H
xdata	ENDS
;	COMDAT xdata
xdata	SEGMENT
$ip2state$?_Tidy@?$vector@U?$tmat2x2@M$0A@@glm@@V?$allocator@U?$tmat2x2@M$0A@@glm@@@std@@@std@@AEAAXXZ DB 02H
	DB	00H
	DB	00H
xdata	ENDS
;	COMDAT xdata
xdata	SEGMENT
$cppxdata$?_Tidy@?$vector@U?$tmat2x2@M$0A@@glm@@V?$allocator@U?$tmat2x2@M$0A@@glm@@@std@@@std@@AEAAXXZ DB 060H
	DD	imagerel $ip2state$?_Tidy@?$vector@U?$tmat2x2@M$0A@@glm@@V?$allocator@U?$tmat2x2@M$0A@@glm@@@std@@@std@@AEAAXXZ
xdata	ENDS
;	COMDAT xdata
xdata	SEGMENT
$unwind$?_Tidy@?$vector@U?$tmat2x2@M$0A@@glm@@V?$allocator@U?$tmat2x2@M$0A@@glm@@@std@@@std@@AEAAXXZ DD 020a19H
	DD	07006920aH
	DD	imagerel __CxxFrameHandler4
	DD	imagerel $cppxdata$?_Tidy@?$vector@U?$tmat2x2@M$0A@@glm@@V?$allocator@U?$tmat2x2@M$0A@@glm@@@std@@@std@@AEAAXXZ
xdata	ENDS
;	COMDAT xdata
xdata	SEGMENT
$unwind$?_Buy_nonzero@?$vector@U?$tmat2x2@M$0A@@glm@@V?$allocator@U?$tmat2x2@M$0A@@glm@@@std@@@std@@AEAAX_K@Z DD 020f01H
	DD	0700b320fH
xdata	ENDS
;	COMDAT xdata
xdata	SEGMENT
$unwind$?_Buy_raw@?$vector@U?$tmat2x2@M$0A@@glm@@V?$allocator@U?$tmat2x2@M$0A@@glm@@@std@@@std@@AEAAX_K@Z DD 020f01H
	DD	0700b920fH
xdata	ENDS
;	COMDAT xdata
xdata	SEGMENT
$unwind$?max_size@?$vector@U?$tmat2x2@M$0A@@glm@@V?$allocator@U?$tmat2x2@M$0A@@glm@@@std@@@std@@QEBA_KXZ DD 020a01H
	DD	07006520aH
xdata	ENDS
;	COMDAT xdata
xdata	SEGMENT
$unwind$??1?$vector@U?$tmat2x2@M$0A@@glm@@V?$allocator@U?$tmat2x2@M$0A@@glm@@@std@@@std@@QEAA@XZ DD 022001H
	DD	07006920aH
xdata	ENDS
;	COMDAT CONST
CONST	SEGMENT
??1?$vector@U?$tmat2x2@M$0A@@glm@@V?$allocator@U?$tmat2x2@M$0A@@glm@@@std@@@std@@QEAA@XZ$rtcName$0 DB 024H ; std::vector<glm::tmat2x2<float,0>,std::allocator<glm::tmat2x2<float,0> > >::~vector<glm::tmat2x2<float,0>,std::allocator<glm::tmat2x2<float,0> > >
	DB	053H
	DB	031H
	DB	00H
	ORG $+12
??1?$vector@U?$tmat2x2@M$0A@@glm@@V?$allocator@U?$tmat2x2@M$0A@@glm@@@std@@@std@@QEAA@XZ$rtcVarDesc DD 034H ; std::vector<glm::tmat2x2<float,0>,std::allocator<glm::tmat2x2<float,0> > >::~vector<glm::tmat2x2<float,0>,std::allocator<glm::tmat2x2<float,0> > >
	DD	01H
	DQ	FLAT:??1?$vector@U?$tmat2x2@M$0A@@glm@@V?$allocator@U?$tmat2x2@M$0A@@glm@@@std@@@std@@QEAA@XZ$rtcName$0
	ORG $+48
??1?$vector@U?$tmat2x2@M$0A@@glm@@V?$allocator@U?$tmat2x2@M$0A@@glm@@@std@@@std@@QEAA@XZ$rtcFrameData DD 01H ; std::vector<glm::tmat2x2<float,0>,std::allocator<glm::tmat2x2<float,0> > >::~vector<glm::tmat2x2<float,0>,std::allocator<glm::tmat2x2<float,0> > >
	DD	00H
	DQ	FLAT:??1?$vector@U?$tmat2x2@M$0A@@glm@@V?$allocator@U?$tmat2x2@M$0A@@glm@@@std@@@std@@QEAA@XZ$rtcVarDesc
CONST	ENDS
;	COMDAT xdata
xdata	SEGMENT
$unwind$??0?$vector@U?$tmat2x2@M$0A@@glm@@V?$allocator@U?$tmat2x2@M$0A@@glm@@@std@@@std@@QEAA@V?$initializer_list@U?$tmat2x2@M$0A@@glm@@@1@AEBV?$allocator@U?$tmat2x2@M$0A@@glm@@@1@@Z DD 021401H
	DD	070107214H
xdata	ENDS
;	COMDAT xdata
xdata	SEGMENT
$unwind$?max_size@?$_Default_allocator_traits@V?$allocator@U?$tmat2x2@M$0A@@glm@@@std@@@std@@SA_KAEBV?$allocator@U?$tmat2x2@M$0A@@glm@@@2@@Z DD 010601H
	DD	07006H
xdata	ENDS
;	COMDAT xdata
xdata	SEGMENT
$unwind$?allocate@?$allocator@U?$tmat2x2@M$0A@@glm@@@std@@QEAAPEAU?$tmat2x2@M$0A@@glm@@_K@Z DD 020f01H
	DD	0700b320fH
xdata	ENDS
;	COMDAT xdata
xdata	SEGMENT
$unwind$?deallocate@?$allocator@U?$tmat2x2@M$0A@@glm@@@std@@QEAAXQEAU?$tmat2x2@M$0A@@glm@@_K@Z DD 021401H
	DD	070105214H
xdata	ENDS
;	COMDAT xdata
xdata	SEGMENT
$unwind$??0?$allocator@U?$tmat2x2@M$0A@@glm@@@std@@QEAA@XZ DD 010601H
	DD	07006H
xdata	ENDS
;	COMDAT xdata
xdata	SEGMENT
$unwind$??$equal@M$0A@Utvec2@glm@@@glm@@YA?AU?$tvec2@_N$0A@@0@AEBU?$tvec2@M$0A@@0@0@Z DD 022a01H
	DD	070109214H
xdata	ENDS
;	COMDAT CONST
CONST	SEGMENT
??$equal@M$0A@Utvec2@glm@@@glm@@YA?AU?$tvec2@_N$0A@@0@AEBU?$tvec2@M$0A@@0@0@Z$rtcName$0 DB 052H ; glm::equal<float,0,glm::tvec2>
	DB	065H
	DB	073H
	DB	075H
	DB	06cH
	DB	074H
	DB	00H
	ORG $+9
??$equal@M$0A@Utvec2@glm@@@glm@@YA?AU?$tvec2@_N$0A@@0@AEBU?$tvec2@M$0A@@0@0@Z$rtcVarDesc DD 024H ; glm::equal<float,0,glm::tvec2>
	DD	02H
	DQ	FLAT:??$equal@M$0A@Utvec2@glm@@@glm@@YA?AU?$tvec2@_N$0A@@0@AEBU?$tvec2@M$0A@@0@0@Z$rtcName$0
	ORG $+48
??$equal@M$0A@Utvec2@glm@@@glm@@YA?AU?$tvec2@_N$0A@@0@AEBU?$tvec2@M$0A@@0@0@Z$rtcFrameData DD 01H ; glm::equal<float,0,glm::tvec2>
	DD	00H
	DQ	FLAT:??$equal@M$0A@Utvec2@glm@@@glm@@YA?AU?$tvec2@_N$0A@@0@AEBU?$tvec2@M$0A@@0@0@Z$rtcVarDesc
CONST	ENDS
;	COMDAT xdata
xdata	SEGMENT
$unwind$??$?0HH@?$tvec2@M$0A@@glm@@QEAA@HH@Z DD 010f01H
	DD	0700fH
xdata	ENDS
voltbl	SEGMENT
_volmd	DD	0ffffffffH
	DDSymXIndex: 	FLAT:?dtor$0@?0??test_ctr@@YAHXZ@4HA
	DD	00H
	DD	05H
voltbl	ENDS
;	COMDAT voltbl
voltbl	SEGMENT
_volmd	DB	038H
	DB	095H
voltbl	ENDS
;	COMDAT xdata
xdata	SEGMENT
$unwind$??$?KM$0A@@glm@@YA?AU?$tmat2x2@M$0A@@0@AEBU10@0@Z DD 033d19H
	DD	07011c215H
	DD	06010H
	DD	imagerel __GSHandlerCheck
	DD	050H
xdata	ENDS
;	COMDAT CONST
CONST	SEGMENT
??$?KM$0A@@glm@@YA?AU?$tmat2x2@M$0A@@0@AEBU10@0@Z$rtcName$0 DB 06dH ; glm::operator/<float,0>
	DB	031H
	DB	05fH
	DB	063H
	DB	06fH
	DB	070H
	DB	079H
	DB	00H
	ORG $+8
??$?KM$0A@@glm@@YA?AU?$tmat2x2@M$0A@@0@AEBU10@0@Z$rtcVarDesc DD 028H ; glm::operator/<float,0>
	DD	010H
	DQ	FLAT:??$?KM$0A@@glm@@YA?AU?$tmat2x2@M$0A@@0@AEBU10@0@Z$rtcName$0
	ORG $+48
??$?KM$0A@@glm@@YA?AU?$tmat2x2@M$0A@@0@AEBU10@0@Z$rtcFrameData DD 01H ; glm::operator/<float,0>
	DD	00H
	DQ	FLAT:??$?KM$0A@@glm@@YA?AU?$tmat2x2@M$0A@@0@AEBU10@0@Z$rtcVarDesc
CONST	ENDS
;	COMDAT xdata
xdata	SEGMENT
$unwind$??$all@$0A@Utvec2@glm@@@glm@@YA_NAEBU?$tvec2@_N$0A@@0@@Z DD 020a01H
	DD	07006520aH
xdata	ENDS
;	COMDAT xdata
xdata	SEGMENT
$unwind$??0?$tvec2@_N$0A@@glm@@QEAA@W4ctor@1@@Z DD 010a01H
	DD	0700aH
xdata	ENDS
;	COMDAT xdata
xdata	SEGMENT
$unwind$??A?$tvec2@_N$0A@@glm@@QEBAAEB_NH@Z DD 020e01H
	DD	0700a320eH
xdata	ENDS
;	COMDAT xdata
xdata	SEGMENT
$unwind$??A?$tvec2@_N$0A@@glm@@QEAAAEA_NH@Z DD 020e01H
	DD	0700a320eH
xdata	ENDS
;	COMDAT xdata
xdata	SEGMENT
$unwind$?length@?$tvec2@_N$0A@@glm@@SAHXZ DD 010201H
	DD	07002H
xdata	ENDS
;	COMDAT xdata
xdata	SEGMENT
$unwind$??$epsilonEqual@M$0A@Utvec2@glm@@@glm@@YA?AU?$tvec2@_N$0A@@0@AEBU?$tvec2@M$0A@@0@00@Z DD 021901H
	DD	070157219H
xdata	ENDS
;	COMDAT xdata
xdata	SEGMENT
$unwind$??$?DM$0A@@glm@@YA?AU?$tmat2x2@M$0A@@0@AEBU10@0@Z DD 031701H
	DD	0140117H
	DD	07010H
xdata	ENDS
;	COMDAT xdata
xdata	SEGMENT
$unwind$??$inverse@M$0A@Utmat2x2@glm@@@glm@@YA?AU?$tmat2x2@M$0A@@0@AEBU10@@Z DD 020f01H
	DD	0700b320fH
xdata	ENDS
;	COMDAT xdata
xdata	SEGMENT
$unwind$??$?0HHHH@?$tmat2x2@M$0A@@glm@@QEAA@AEBH000@Z DD 021901H
	DD	070155219H
xdata	ENDS
;	COMDAT xdata
xdata	SEGMENT
$unwind$??$?8M$0A@@glm@@YA_NAEBU?$tmat2x2@M$0A@@0@0@Z DD 020f01H
	DD	0700b720fH
xdata	ENDS
;	COMDAT xdata
xdata	SEGMENT
$unwind$??$?9M$0A@@glm@@YA_NAEBU?$tmat2x2@M$0A@@0@0@Z DD 020f01H
	DD	0700b720fH
xdata	ENDS
;	COMDAT xdata
xdata	SEGMENT
$unwind$??$?DM$0A@@glm@@YA?AU?$tmat2x2@M$0A@@0@AEBU10@M@Z DD 021501H
	DD	070117215H
xdata	ENDS
;	COMDAT xdata
xdata	SEGMENT
$unwind$??$?DM$0A@@glm@@YA?AU?$tmat2x2@M$0A@@0@MAEBU10@@Z DD 021501H
	DD	070117215H
xdata	ENDS
;	COMDAT xdata
xdata	SEGMENT
$unwind$??$?KM$0A@@glm@@YA?AU?$tmat2x2@M$0A@@0@AEBU10@M@Z DD 021501H
	DD	070117215H
xdata	ENDS
;	COMDAT xdata
xdata	SEGMENT
$unwind$??$?KM$0A@@glm@@YA?AU?$tmat2x2@M$0A@@0@MAEBU10@@Z DD 021501H
	DD	070117215H
xdata	ENDS
;	COMDAT xdata
xdata	SEGMENT
$unwind$??$?DM$0A@@glm@@YA?AU?$tvec2@M$0A@@0@AEBU10@AEBU?$tmat2x2@M$0A@@0@@Z DD 021401H
	DD	070105214H
xdata	ENDS
;	COMDAT xdata
xdata	SEGMENT
$unwind$??$?DM$0A@@glm@@YA?AU?$tvec2@M$0A@@0@AEBU?$tmat2x2@M$0A@@0@AEBU10@@Z DD 021401H
	DD	070105214H
xdata	ENDS
;	COMDAT xdata
xdata	SEGMENT
$unwind$??A?$tmat4x3@M$0A@@glm@@QEBAAEBU?$tvec3@M$0A@@1@H@Z DD 020e01H
	DD	0700a320eH
xdata	ENDS
;	COMDAT xdata
xdata	SEGMENT
$unwind$?length@?$tmat4x3@M$0A@@glm@@SAHXZ DD 010201H
	DD	07002H
xdata	ENDS
;	COMDAT xdata
xdata	SEGMENT
$unwind$??0?$tmat4x3@M$0A@@glm@@QEAA@AEBM@Z DD 031001H
	DD	0700ca210H
	DD	0600bH
xdata	ENDS
;	COMDAT xdata
xdata	SEGMENT
$unwind$??A?$tmat3x3@M$0A@@glm@@QEBAAEBU?$tvec3@M$0A@@1@H@Z DD 020e01H
	DD	0700a320eH
xdata	ENDS
;	COMDAT xdata
xdata	SEGMENT
$unwind$?length@?$tmat3x3@M$0A@@glm@@SAHXZ DD 010201H
	DD	07002H
xdata	ENDS
;	COMDAT xdata
xdata	SEGMENT
$unwind$??0?$tmat3x3@M$0A@@glm@@QEAA@M@Z DD 031101H
	DD	0700da211H
	DD	0600cH
xdata	ENDS
;	COMDAT xdata
xdata	SEGMENT
$unwind$??A?$tmat4x4@M$0A@@glm@@QEBAAEBU?$tvec4@M$0A@@1@H@Z DD 020e01H
	DD	0700a320eH
xdata	ENDS
;	COMDAT xdata
xdata	SEGMENT
$unwind$?length@?$tmat4x4@M$0A@@glm@@SAHXZ DD 010201H
	DD	07002H
xdata	ENDS
;	COMDAT xdata
xdata	SEGMENT
$unwind$??0?$tmat4x4@M$0A@@glm@@QEAA@AEBM@Z DD 031001H
	DD	0700ce210H
	DD	0600bH
xdata	ENDS
;	COMDAT xdata
xdata	SEGMENT
$unwind$??A?$tmat2x3@M$0A@@glm@@QEBAAEBU?$tvec3@M$0A@@1@H@Z DD 020e01H
	DD	0700a320eH
xdata	ENDS
;	COMDAT xdata
xdata	SEGMENT
$unwind$?length@?$tmat2x3@M$0A@@glm@@SAHXZ DD 010201H
	DD	07002H
xdata	ENDS
;	COMDAT xdata
xdata	SEGMENT
$unwind$??0?$tmat2x3@M$0A@@glm@@QEAA@M@Z DD 031101H
	DD	0700d8211H
	DD	0600cH
xdata	ENDS
;	COMDAT xdata
xdata	SEGMENT
$unwind$??0?$tvec3@M$0A@@glm@@QEAA@XZ DD 010601H
	DD	07006H
xdata	ENDS
;	COMDAT xdata
xdata	SEGMENT
$unwind$??A?$tmat3x2@M$0A@@glm@@QEBAAEBU?$tvec2@M$0A@@1@H@Z DD 020e01H
	DD	0700a320eH
xdata	ENDS
;	COMDAT xdata
xdata	SEGMENT
$unwind$?length@?$tmat3x2@M$0A@@glm@@SAHXZ DD 010201H
	DD	07002H
xdata	ENDS
;	COMDAT xdata
xdata	SEGMENT
$unwind$??0?$tmat3x2@M$0A@@glm@@QEAA@M@Z DD 021001H
	DD	0700c7210H
xdata	ENDS
;	COMDAT xdata
xdata	SEGMENT
$unwind$??A?$tmat2x4@M$0A@@glm@@QEBAAEBU?$tvec4@M$0A@@1@H@Z DD 020e01H
	DD	0700a320eH
xdata	ENDS
;	COMDAT xdata
xdata	SEGMENT
$unwind$?length@?$tmat2x4@M$0A@@glm@@SAHXZ DD 010201H
	DD	07002H
xdata	ENDS
;	COMDAT xdata
xdata	SEGMENT
$unwind$??0?$tmat2x4@M$0A@@glm@@QEAA@M@Z DD 031101H
	DD	0700dc211H
	DD	0600cH
xdata	ENDS
;	COMDAT xdata
xdata	SEGMENT
$unwind$??A?$tmat4x2@M$0A@@glm@@QEBAAEBU?$tvec2@M$0A@@1@H@Z DD 020e01H
	DD	0700a320eH
xdata	ENDS
;	COMDAT xdata
xdata	SEGMENT
$unwind$?length@?$tmat4x2@M$0A@@glm@@SAHXZ DD 010201H
	DD	07002H
xdata	ENDS
;	COMDAT xdata
xdata	SEGMENT
$unwind$??0?$tmat4x2@M$0A@@glm@@QEAA@M@Z DD 021001H
	DD	0700c7210H
xdata	ENDS
;	COMDAT xdata
xdata	SEGMENT
$unwind$??A?$tmat3x4@M$0A@@glm@@QEBAAEBU?$tvec4@M$0A@@1@H@Z DD 020e01H
	DD	0700a320eH
xdata	ENDS
;	COMDAT xdata
xdata	SEGMENT
$unwind$?length@?$tmat3x4@M$0A@@glm@@SAHXZ DD 010201H
	DD	07002H
xdata	ENDS
;	COMDAT xdata
xdata	SEGMENT
$unwind$??0?$tmat3x4@M$0A@@glm@@QEAA@M@Z DD 031101H
	DD	0700dc211H
	DD	0600cH
xdata	ENDS
;	COMDAT xdata
xdata	SEGMENT
$unwind$??0?$tvec4@M$0A@@glm@@QEAA@MMMM@Z DD 011801H
	DD	07018H
xdata	ENDS
;	COMDAT xdata
xdata	SEGMENT
$unwind$??0?$tvec4@M$0A@@glm@@QEAA@XZ DD 010601H
	DD	07006H
xdata	ENDS
;	COMDAT xdata
xdata	SEGMENT
$unwind$??A?$tmat2x2@M$0A@@glm@@QEBAAEBU?$tvec2@M$0A@@1@H@Z DD 020e01H
	DD	0700a320eH
xdata	ENDS
;	COMDAT xdata
xdata	SEGMENT
$unwind$??A?$tmat2x2@M$0A@@glm@@QEAAAEAU?$tvec2@M$0A@@1@H@Z DD 020e01H
	DD	0700a320eH
xdata	ENDS
;	COMDAT xdata
xdata	SEGMENT
$unwind$?length@?$tmat2x2@M$0A@@glm@@SAHXZ DD 010201H
	DD	07002H
xdata	ENDS
;	COMDAT xdata
xdata	SEGMENT
$unwind$??0?$tmat2x2@M$0A@@glm@@QEAA@AEBU?$tmat4x3@M$0A@@1@@Z DD 020f01H
	DD	0700b520fH
xdata	ENDS
;	COMDAT xdata
xdata	SEGMENT
$unwind$??0?$tmat2x2@M$0A@@glm@@QEAA@AEBU?$tmat3x4@M$0A@@1@@Z DD 020f01H
	DD	0700b520fH
xdata	ENDS
;	COMDAT xdata
xdata	SEGMENT
$unwind$??0?$tmat2x2@M$0A@@glm@@QEAA@AEBU?$tmat4x2@M$0A@@1@@Z DD 020f01H
	DD	0700b320fH
xdata	ENDS
;	COMDAT xdata
xdata	SEGMENT
$unwind$??0?$tmat2x2@M$0A@@glm@@QEAA@AEBU?$tmat2x4@M$0A@@1@@Z DD 020f01H
	DD	0700b520fH
xdata	ENDS
;	COMDAT xdata
xdata	SEGMENT
$unwind$??0?$tmat2x2@M$0A@@glm@@QEAA@AEBU?$tmat3x2@M$0A@@1@@Z DD 020f01H
	DD	0700b320fH
xdata	ENDS
;	COMDAT xdata
xdata	SEGMENT
$unwind$??0?$tmat2x2@M$0A@@glm@@QEAA@AEBU?$tmat2x3@M$0A@@1@@Z DD 020f01H
	DD	0700b520fH
xdata	ENDS
;	COMDAT xdata
xdata	SEGMENT
$unwind$??0?$tmat2x2@M$0A@@glm@@QEAA@AEBU?$tmat4x4@M$0A@@1@@Z DD 020f01H
	DD	0700b520fH
xdata	ENDS
;	COMDAT xdata
xdata	SEGMENT
$unwind$??0?$tmat2x2@M$0A@@glm@@QEAA@AEBU?$tmat3x3@M$0A@@1@@Z DD 020f01H
	DD	0700b520fH
xdata	ENDS
;	COMDAT xdata
xdata	SEGMENT
$unwind$??0?$tmat2x2@M$0A@@glm@@QEAA@AEBU?$tvec2@M$0A@@1@0@Z DD 021401H
	DD	070103214H
xdata	ENDS
;	COMDAT xdata
xdata	SEGMENT
$unwind$??0?$tmat2x2@M$0A@@glm@@QEAA@AEBM000@Z DD 021901H
	DD	070155219H
xdata	ENDS
;	COMDAT xdata
xdata	SEGMENT
$unwind$??0?$tmat2x2@M$0A@@glm@@QEAA@M@Z DD 021001H
	DD	0700c5210H
xdata	ENDS
;	COMDAT xdata
xdata	SEGMENT
$unwind$??0?$tmat2x2@M$0A@@glm@@QEAA@XZ DD 020a01H
	DD	07006520aH
xdata	ENDS
;	COMDAT xdata
xdata	SEGMENT
$unwind$??0?$tvec2@M$0A@@glm@@QEAA@MM@Z DD 011201H
	DD	07012H
xdata	ENDS
;	COMDAT xdata
xdata	SEGMENT
$unwind$??0?$tvec2@M$0A@@glm@@QEAA@M@Z DD 010c01H
	DD	0700cH
xdata	ENDS
;	COMDAT xdata
xdata	SEGMENT
$unwind$??0?$tvec2@M$0A@@glm@@QEAA@XZ DD 010601H
	DD	07006H
xdata	ENDS
;	COMDAT xdata
xdata	SEGMENT
$unwind$??A?$tvec2@M$0A@@glm@@QEBAAEBMH@Z DD 020e01H
	DD	0700a320eH
xdata	ENDS
;	COMDAT xdata
xdata	SEGMENT
$unwind$?length@?$tvec2@M$0A@@glm@@SAHXZ DD 010201H
	DD	07002H
xdata	ENDS
voltbl	SEGMENT
_volmd	DD	0ffffffffH
	DDSymXIndex: 	FLAT:?test_size@@YAHXZ
	DD	013H
	DD	0f8H
_volmd	DD	0ffffffffH
	DDSymXIndex: 	FLAT:?test_ctr@@YAHXZ
	DD	025H
	DD	04f8H
_volmd	DD	0ffffffffH
	DDSymXIndex: 	FLAT:?test_inverse@@YAHXZ
	DD	024H
	DD	03fdH
_volmd	DD	0ffffffffH
	DDSymXIndex: 	FLAT:?test_operators@@YAHXZ
	DD	024H
	DD	01a4H
voltbl	ENDS
xdata	SEGMENT
$unwind$?test_operators@@YAHXZ DD 032c19H
	DD	03a0109H
	DD	07002H
	DD	imagerel __GSHandlerCheck
	DD	01c8H
$unwind$?test_inverse@@YAHXZ DD 032c19H
	DD	0420109H
	DD	07002H
	DD	imagerel __GSHandlerCheck
	DD	0200H
$unwind$?test_ctr@@YAHXZ DD 042d19H
	DD	055010aH
	DD	060027003H
	DD	imagerel __GSHandlerCheck_EH4
	DD	imagerel $cppxdata$?test_ctr@@YAHXZ
	DD	029aH
$cppxdata$?test_ctr@@YAHXZ DB 028H
	DD	imagerel $stateUnwindMap$?test_ctr@@YAHXZ
	DD	imagerel $ip2state$?test_ctr@@YAHXZ
$stateUnwindMap$?test_ctr@@YAHXZ DB 02H
	DB	0eH
	DD	imagerel ?dtor$0@?0??test_ctr@@YAHXZ@4HA
$ip2state$?test_ctr@@YAHXZ DB 06H
	DB	00H
	DB	00H
	DB	0e9H, 0eH
	DB	02H
	DB	']', 04H
	DB	00H
$unwind$?dtor$0@?0??test_ctr@@YAHXZ@4HA DD 031001H
	DD	0700c4210H
	DD	0500bH
$unwind$?test@cast@@YAHXZ DD 020601H
	DD	070025206H
$unwind$?test_size@@YAHXZ DD 021819H
	DD	07002f209H
	DD	imagerel __GSHandlerCheck
	DD	070H
$unwind$main DD	020601H
	DD	070025206H
xdata	ENDS
CONST	SEGMENT
?test_operators@@YAHXZ$rtcName$0 DB 06cH		; test_operators
	DB	00H
	ORG $+2
?test_operators@@YAHXZ$rtcName$1 DB 06dH		; test_operators
	DB	00H
	ORG $+2
?test_operators@@YAHXZ$rtcName$2 DB 075H		; test_operators
	DB	00H
	ORG $+2
?test_operators@@YAHXZ$rtcName$3 DB 076H		; test_operators
	DB	00H
	ORG $+2
?test_operators@@YAHXZ$rtcName$4 DB 061H		; test_operators
	DB	00H
	ORG $+2
?test_operators@@YAHXZ$rtcName$5 DB 062H		; test_operators
	DB	00H
	ORG $+2
?test_operators@@YAHXZ$rtcName$6 DB 06eH		; test_operators
	DB	00H
	ORG $+2
?test_operators@@YAHXZ$rtcName$7 DB 06fH		; test_operators
	DB	00H
	ORG $+2
?test_operators@@YAHXZ$rtcName$8 DB 070H		; test_operators
	DB	00H
	ORG $+2
?test_operators@@YAHXZ$rtcName$9 DB 071H		; test_operators
	DB	00H
	ORG $+6
?test_operators@@YAHXZ$rtcVarDesc DD 0198H		; test_operators
	DD	010H
	DQ	FLAT:?test_operators@@YAHXZ$rtcName$9
	DD	0168H
	DD	010H
	DQ	FLAT:?test_operators@@YAHXZ$rtcName$8
	DD	0138H
	DD	010H
	DQ	FLAT:?test_operators@@YAHXZ$rtcName$7
	DD	0108H
	DD	010H
	DQ	FLAT:?test_operators@@YAHXZ$rtcName$6
	DD	0e8H
	DD	08H
	DQ	FLAT:?test_operators@@YAHXZ$rtcName$5
	DD	0c8H
	DD	08H
	DQ	FLAT:?test_operators@@YAHXZ$rtcName$4
	DD	0a8H
	DD	08H
	DQ	FLAT:?test_operators@@YAHXZ$rtcName$3
	DD	088H
	DD	08H
	DQ	FLAT:?test_operators@@YAHXZ$rtcName$2
	DD	058H
	DD	010H
	DQ	FLAT:?test_operators@@YAHXZ$rtcName$1
	DD	028H
	DD	010H
	DQ	FLAT:?test_operators@@YAHXZ$rtcName$0
	ORG $+480
?test_operators@@YAHXZ$rtcFrameData DD 0aH		; test_operators
	DD	00H
	DQ	FLAT:?test_operators@@YAHXZ$rtcVarDesc
?test_inverse@@YAHXZ$rtcName$0 DB 04dH			; test_inverse
	DB	061H
	DB	074H
	DB	072H
	DB	069H
	DB	078H
	DB	00H
	ORG $+1
?test_inverse@@YAHXZ$rtcName$1 DB 049H			; test_inverse
	DB	06eH
	DB	076H
	DB	065H
	DB	072H
	DB	073H
	DB	065H
	DB	00H
?test_inverse@@YAHXZ$rtcName$2 DB 049H			; test_inverse
	DB	064H
	DB	065H
	DB	06eH
	DB	074H
	DB	069H
	DB	074H
	DB	079H
	DB	00H
	ORG $+3
?test_inverse@@YAHXZ$rtcName$3 DB 04dH			; test_inverse
	DB	061H
	DB	074H
	DB	072H
	DB	069H
	DB	078H
	DB	00H
	ORG $+1
?test_ctr@@YAHXZ$rtcName$0 DB 06dH			; test_ctr
	DB	030H
	DB	00H
	ORG $+1
?test_inverse@@YAHXZ$rtcName$4 DB 049H			; test_inverse
	DB	064H
	DB	065H
	DB	06eH
	DB	074H
	DB	069H
	DB	074H
	DB	079H
	DB	00H
	ORG $+7
?test_inverse@@YAHXZ$rtcFrameData DD 05H		; test_inverse
	DD	00H
	DQ	FLAT:?test_inverse@@YAHXZ$rtcVarDesc
?test_ctr@@YAHXZ$rtcName$1 DB 06dH			; test_ctr
	DB	031H
	DB	00H
	ORG $+5
?test_inverse@@YAHXZ$rtcVarDesc DD 0108H		; test_inverse
	DD	010H
	DQ	FLAT:?test_inverse@@YAHXZ$rtcName$4
	DD	0d8H
	DD	010H
	DQ	FLAT:?test_inverse@@YAHXZ$rtcName$3
	DD	0a8H
	DD	010H
	DQ	FLAT:?test_inverse@@YAHXZ$rtcName$2
	DD	078H
	DD	010H
	DQ	FLAT:?test_inverse@@YAHXZ$rtcName$1
	DD	048H
	DD	010H
	DQ	FLAT:?test_inverse@@YAHXZ$rtcName$0
	ORG $+240
?test_ctr@@YAHXZ$rtcName$2 DB 06dH			; test_ctr
	DB	032H
	DB	00H
	ORG $+1
?test_ctr@@YAHXZ$rtcName$3 DB 076H			; test_ctr
	DB	031H
	DB	00H
	ORG $+1
?test_ctr@@YAHXZ$rtcName$4 DB 076H			; test_ctr
	DB	032H
	DB	00H
	ORG $+5
?test_ctr@@YAHXZ$rtcVarDesc DD 0138H			; test_ctr
	DD	020H
	DQ	FLAT:?test_ctr@@YAHXZ$rtcName$4
	DD	0d8H
	DD	020H
	DQ	FLAT:?test_ctr@@YAHXZ$rtcName$3
	DD	0a8H
	DD	010H
	DQ	FLAT:?test_ctr@@YAHXZ$rtcName$2
	DD	078H
	DD	010H
	DQ	FLAT:?test_ctr@@YAHXZ$rtcName$1
	DD	048H
	DD	010H
	DQ	FLAT:?test_ctr@@YAHXZ$rtcName$0
	ORG $+240
?test_ctr@@YAHXZ$rtcFrameData DD 05H			; test_ctr
	DD	00H
	DQ	FLAT:?test_ctr@@YAHXZ$rtcVarDesc
CONST	ENDS
;	COMDAT xdata
xdata	SEGMENT
$unwind$??0_Basic_container_proxy_ptr12@std@@IEAA@XZ DD 010601H
	DD	07006H
xdata	ENDS
;	COMDAT xdata
xdata	SEGMENT
$unwind$?_Release@_Basic_container_proxy_ptr12@std@@QEAAXXZ DD 010601H
	DD	07006H
xdata	ENDS
;	COMDAT xdata
xdata	SEGMENT
$unwind$?_Orphan_all_locked_v3@_Container_base12@std@@AEAAXXZ DD 022001H
	DD	07006720aH
xdata	ENDS
;	COMDAT CONST
CONST	SEGMENT
?_Orphan_all_locked_v3@_Container_base12@std@@AEAAXXZ$rtcName$0 DB 05fH ; std::_Container_base12::_Orphan_all_locked_v3
	DB	04cH
	DB	06fH
	DB	063H
	DB	06bH
	DB	00H
	ORG $+10
?_Orphan_all_locked_v3@_Container_base12@std@@AEAAXXZ$rtcVarDesc DD 024H ; std::_Container_base12::_Orphan_all_locked_v3
	DD	04H
	DQ	FLAT:?_Orphan_all_locked_v3@_Container_base12@std@@AEAAXXZ$rtcName$0
	ORG $+48
?_Orphan_all_locked_v3@_Container_base12@std@@AEAAXXZ$rtcFrameData DD 01H ; std::_Container_base12::_Orphan_all_locked_v3
	DD	00H
	DQ	FLAT:?_Orphan_all_locked_v3@_Container_base12@std@@AEAAXXZ$rtcVarDesc
CONST	ENDS
;	COMDAT xdata
xdata	SEGMENT
$unwind$?_Orphan_all_unlocked_v3@_Container_base12@std@@AEAAXXZ DD 020a01H
	DD	07006120aH
xdata	ENDS
;	COMDAT xdata
xdata	SEGMENT
$unwind$?_Orphan_all@_Container_base12@std@@QEAAXXZ DD 020a01H
	DD	07006320aH
xdata	ENDS
;	COMDAT xdata
xdata	SEGMENT
$unwind$??0_Container_base12@std@@QEAA@XZ DD 010601H
	DD	07006H
xdata	ENDS
;	COMDAT xdata
xdata	SEGMENT
$unwind$??0_Container_proxy@std@@QEAA@PEAU_Container_base12@1@@Z DD 010b01H
	DD	0700bH
xdata	ENDS
;	COMDAT xdata
xdata	SEGMENT
$unwind$?_Adjust_manually_vector_aligned@std@@YAXAEAPEAXAEA_K@Z DD 020f01H
	DD	0700b920fH
xdata	ENDS
;	COMDAT xdata
xdata	SEGMENT
$unwind$?_Allocate@_Default_allocate_traits@std@@SAPEAX_K@Z DD 020a01H
	DD	07006320aH
xdata	ENDS
;	COMDAT xdata
xdata	SEGMENT
$unwind$?_Throw_bad_array_new_length@std@@YAXXZ DD 020601H
	DD	070027206H
xdata	ENDS
;	COMDAT xdata
xdata	SEGMENT
$unwind$??_Gbad_array_new_length@std@@UEAAPEAXI@Z DD 020e01H
	DD	0700a320eH
xdata	ENDS
;	COMDAT xdata
xdata	SEGMENT
$unwind$??0bad_array_new_length@std@@QEAA@AEBV01@@Z DD 020f01H
	DD	0700b320fH
xdata	ENDS
;	COMDAT xdata
xdata	SEGMENT
$unwind$??1bad_array_new_length@std@@UEAA@XZ DD 020a01H
	DD	07006320aH
xdata	ENDS
;	COMDAT xdata
xdata	SEGMENT
$unwind$??0bad_array_new_length@std@@QEAA@XZ DD 020a01H
	DD	07006320aH
xdata	ENDS
;	COMDAT xdata
xdata	SEGMENT
$unwind$??_Gbad_alloc@std@@UEAAPEAXI@Z DD 020e01H
	DD	0700a320eH
xdata	ENDS
;	COMDAT xdata
xdata	SEGMENT
$unwind$??0bad_alloc@std@@QEAA@AEBV01@@Z DD 020f01H
	DD	0700b320fH
xdata	ENDS
;	COMDAT xdata
xdata	SEGMENT
$unwind$??1bad_alloc@std@@UEAA@XZ DD 020a01H
	DD	07006320aH
xdata	ENDS
;	COMDAT xdata
xdata	SEGMENT
$unwind$??0bad_alloc@std@@AEAA@QEBD@Z DD 020f01H
	DD	0700b320fH
xdata	ENDS
;	COMDAT xdata
xdata	SEGMENT
$unwind$??_Gexception@std@@UEAAPEAXI@Z DD 020e01H
	DD	0700a320eH
xdata	ENDS
;	COMDAT xdata
xdata	SEGMENT
$unwind$?what@exception@std@@UEBAPEBDXZ DD 020a01H
	DD	07006120aH
xdata	ENDS
;	COMDAT xdata
xdata	SEGMENT
$unwind$??1exception@std@@UEAA@XZ DD 020a01H
	DD	07006320aH
xdata	ENDS
;	COMDAT xdata
xdata	SEGMENT
$unwind$??0exception@std@@QEAA@AEBV01@@Z DD 020f01H
	DD	0700b320fH
xdata	ENDS
;	COMDAT xdata
xdata	SEGMENT
$unwind$??0exception@std@@QEAA@QEBDH@Z DD 011001H
	DD	07010H
xdata	ENDS
;	COMDAT xdata
xdata	SEGMENT
$unwind$??$abs@M@glm@@YAMM@Z DD 020b01H
	DD	07007520bH
xdata	ENDS
;	COMDAT xdata
xdata	SEGMENT
$unwind$??2@YAPEAX_KPEAX@Z DD 010b01H
	DD	0700bH
xdata	ENDS
;	COMDAT xdata
xdata	SEGMENT
$unwind$?max@?$numeric_limits@_J@std@@SA_JXZ DD 010201H
	DD	07002H
xdata	ENDS
;	COMDAT xdata
xdata	SEGMENT
$unwind$??_H@YAXPEAX_K1P6APEAX0@Z@Z DD 021901H
	DD	070155219H
xdata	ENDS
; Function compile flags: /Odtp /RTCsu
; File C:\Program Files\Microsoft Visual Studio\2022\Community\VC\Tools\MSVC\14.32.31326\include\xutility
;	COMDAT ??$_Voidify_iter@PEAU?$tmat2x2@M$0A@@glm@@@std@@YAPEAXPEAU?$tmat2x2@M$0A@@glm@@@Z
_TEXT	SEGMENT
_It$ = 16
??$_Voidify_iter@PEAU?$tmat2x2@M$0A@@glm@@@std@@YAPEAXPEAU?$tmat2x2@M$0A@@glm@@@Z PROC ; std::_Voidify_iter<glm::tmat2x2<float,0> *>, COMDAT

; 123  : _NODISCARD constexpr void* _Voidify_iter(_Iter _It) noexcept {

$LN3:
	mov	QWORD PTR [rsp+8], rcx
	push	rdi

; 124  :     if constexpr (is_pointer_v<_Iter>) {
; 125  :         return const_cast<void*>(static_cast<const volatile void*>(_It));

	mov	rax, QWORD PTR _It$[rsp]

; 126  :     } else {
; 127  :         return const_cast<void*>(static_cast<const volatile void*>(_STD addressof(*_It)));
; 128  :     }
; 129  : }

	pop	rdi
	ret	0
??$_Voidify_iter@PEAU?$tmat2x2@M$0A@@glm@@@std@@YAPEAXPEAU?$tmat2x2@M$0A@@glm@@@Z ENDP ; std::_Voidify_iter<glm::tmat2x2<float,0> *>
_TEXT	ENDS
; Function compile flags: /Odtp /RTCsu
; File C:\Program Files\Microsoft Visual Studio\2022\Community\VC\Tools\MSVC\14.32.31326\include\xmemory
;	COMDAT ??$construct@U?$tmat2x2@M$0A@@glm@@AEBU12@@?$_Default_allocator_traits@V?$allocator@U?$tmat2x2@M$0A@@glm@@@std@@@std@@SAXAEAV?$allocator@U?$tmat2x2@M$0A@@glm@@@1@QEAU?$tmat2x2@M$0A@@glm@@AEBU34@@Z
_TEXT	SEGMENT
$T1 = 32
__formal$ = 80
_Ptr$ = 88
<_Args_0>$ = 96
??$construct@U?$tmat2x2@M$0A@@glm@@AEBU12@@?$_Default_allocator_traits@V?$allocator@U?$tmat2x2@M$0A@@glm@@@std@@@std@@SAXAEAV?$allocator@U?$tmat2x2@M$0A@@glm@@@1@QEAU?$tmat2x2@M$0A@@glm@@AEBU34@@Z PROC ; std::_Default_allocator_traits<std::allocator<glm::tmat2x2<float,0> > >::construct<glm::tmat2x2<float,0>,glm::tmat2x2<float,0> const &>, COMDAT

; 673  :     static _CONSTEXPR20 void construct(_Alloc&, _Objty* const _Ptr, _Types&&... _Args) {

$LN3:
	mov	QWORD PTR [rsp+24], r8
	mov	QWORD PTR [rsp+16], rdx
	mov	QWORD PTR [rsp+8], rcx
	push	rsi
	push	rdi
	sub	rsp, 56					; 00000038H

; 674  : #if _HAS_CXX20
; 675  :         if (_STD is_constant_evaluated()) {
; 676  :             _STD construct_at(_Ptr, _STD forward<_Types>(_Args)...);
; 677  :         } else
; 678  : #endif // _HAS_CXX20
; 679  :         {
; 680  :             ::new (_Voidify_iter(_Ptr)) _Objty(_STD forward<_Types>(_Args)...);

	mov	rcx, QWORD PTR _Ptr$[rsp]
	call	??$_Voidify_iter@PEAU?$tmat2x2@M$0A@@glm@@@std@@YAPEAXPEAU?$tmat2x2@M$0A@@glm@@@Z ; std::_Voidify_iter<glm::tmat2x2<float,0> *>
	mov	rdx, rax
	mov	ecx, 16
	call	??2@YAPEAX_KPEAX@Z			; operator new
	mov	QWORD PTR $T1[rsp], rax
	mov	rcx, QWORD PTR <_Args_0>$[rsp]
	call	??$forward@AEBU?$tmat2x2@M$0A@@glm@@@std@@YAAEBU?$tmat2x2@M$0A@@glm@@AEBU12@@Z ; std::forward<glm::tmat2x2<float,0> const &>
	mov	rdi, QWORD PTR $T1[rsp]
	mov	rsi, rax
	mov	ecx, 16
	rep movsb

; 681  :         }
; 682  :     }

	add	rsp, 56					; 00000038H
	pop	rdi
	pop	rsi
	ret	0
??$construct@U?$tmat2x2@M$0A@@glm@@AEBU12@@?$_Default_allocator_traits@V?$allocator@U?$tmat2x2@M$0A@@glm@@@std@@@std@@SAXAEAV?$allocator@U?$tmat2x2@M$0A@@glm@@@1@QEAU?$tmat2x2@M$0A@@glm@@AEBU34@@Z ENDP ; std::_Default_allocator_traits<std::allocator<glm::tmat2x2<float,0> > >::construct<glm::tmat2x2<float,0>,glm::tmat2x2<float,0> const &>
_TEXT	ENDS
; Function compile flags: /Odtp /RTCsu
; File C:\Program Files\Microsoft Visual Studio\2022\Community\VC\Tools\MSVC\14.32.31326\include\type_traits
;	COMDAT ??$forward@AEBU?$tmat2x2@M$0A@@glm@@@std@@YAAEBU?$tmat2x2@M$0A@@glm@@AEBU12@@Z
_TEXT	SEGMENT
_Arg$ = 16
??$forward@AEBU?$tmat2x2@M$0A@@glm@@@std@@YAAEBU?$tmat2x2@M$0A@@glm@@AEBU12@@Z PROC ; std::forward<glm::tmat2x2<float,0> const &>, COMDAT

; 1341 :     remove_reference_t<_Ty>& _Arg) noexcept { // forward an lvalue as either an lvalue or an rvalue

$LN3:
	mov	QWORD PTR [rsp+8], rcx
	push	rdi

; 1342 :     return static_cast<_Ty&&>(_Arg);

	mov	rax, QWORD PTR _Arg$[rsp]

; 1343 : }

	pop	rdi
	ret	0
??$forward@AEBU?$tmat2x2@M$0A@@glm@@@std@@YAAEBU?$tmat2x2@M$0A@@glm@@AEBU12@@Z ENDP ; std::forward<glm::tmat2x2<float,0> const &>
_TEXT	ENDS
; Function compile flags: /Odtp /RTCsu
; File C:\Program Files\Microsoft Visual Studio\2022\Community\VC\Tools\MSVC\14.32.31326\include\xutility
;	COMDAT ??$_To_address@PEAU?$tmat2x2@M$0A@@glm@@@std@@YA?A_PAEBQEAU?$tmat2x2@M$0A@@glm@@@Z
_TEXT	SEGMENT
_Val$ = 16
??$_To_address@PEAU?$tmat2x2@M$0A@@glm@@@std@@YA?A_PAEBQEAU?$tmat2x2@M$0A@@glm@@@Z PROC ; std::_To_address<glm::tmat2x2<float,0> *>, COMDAT

; 3946 : _NODISCARD constexpr auto _To_address(const _Iter& _Val) noexcept {

$LN3:
	mov	QWORD PTR [rsp+8], rcx
	push	rdi

; 3947 :     _STL_INTERNAL_STATIC_ASSERT(is_pointer_v<_Iter>);
; 3948 :     return _Val;

	mov	rax, QWORD PTR _Val$[rsp]
	mov	rax, QWORD PTR [rax]

; 3949 : }

	pop	rdi
	ret	0
??$_To_address@PEAU?$tmat2x2@M$0A@@glm@@@std@@YA?A_PAEBQEAU?$tmat2x2@M$0A@@glm@@@Z ENDP ; std::_To_address<glm::tmat2x2<float,0> *>
_TEXT	ENDS
; Function compile flags: /Odtp /RTCsu
; File C:\Program Files\Microsoft Visual Studio\2022\Community\VC\Tools\MSVC\14.32.31326\include\xutility
;	COMDAT ??$_To_address@PEBU?$tmat2x2@M$0A@@glm@@@std@@YA?A_PAEBQEBU?$tmat2x2@M$0A@@glm@@@Z
_TEXT	SEGMENT
_Val$ = 16
??$_To_address@PEBU?$tmat2x2@M$0A@@glm@@@std@@YA?A_PAEBQEBU?$tmat2x2@M$0A@@glm@@@Z PROC ; std::_To_address<glm::tmat2x2<float,0> const *>, COMDAT

; 3946 : _NODISCARD constexpr auto _To_address(const _Iter& _Val) noexcept {

$LN3:
	mov	QWORD PTR [rsp+8], rcx
	push	rdi

; 3947 :     _STL_INTERNAL_STATIC_ASSERT(is_pointer_v<_Iter>);
; 3948 :     return _Val;

	mov	rax, QWORD PTR _Val$[rsp]
	mov	rax, QWORD PTR [rax]

; 3949 : }

	pop	rdi
	ret	0
??$_To_address@PEBU?$tmat2x2@M$0A@@glm@@@std@@YA?A_PAEBQEBU?$tmat2x2@M$0A@@glm@@@Z ENDP ; std::_To_address<glm::tmat2x2<float,0> const *>
_TEXT	ENDS
; Function compile flags: /Odtp /RTCsu
; File C:\Users\ksart\OneDrive\Desktop\FlappyBird\libraries\external\glm\glm\detail\_vectorize.hpp
;	COMDAT ?call@?$functor1@MM$0A@Utvec2@glm@@@detail@glm@@SA?AU?$tvec2@M$0A@@3@P6AMM@ZAEBU43@@Z
_TEXT	SEGMENT
tv66 = 32
__$ReturnUdt$ = 64
Func$ = 72
v$ = 80
?call@?$functor1@MM$0A@Utvec2@glm@@@detail@glm@@SA?AU?$tvec2@M$0A@@3@P6AMM@ZAEBU43@@Z PROC ; glm::detail::functor1<float,float,0,glm::tvec2>::call, COMDAT

; 30   : 		{

$LN3:
	mov	QWORD PTR [rsp+24], r8
	mov	QWORD PTR [rsp+16], rdx
	mov	QWORD PTR [rsp+8], rcx
	push	rdi
	sub	rsp, 48					; 00000030H

; 31   : 			return tvec2<R, P>(Func(v.x), Func(v.y));

	mov	rax, QWORD PTR v$[rsp]
	movss	xmm0, DWORD PTR [rax+4]
	call	QWORD PTR Func$[rsp]
	movss	DWORD PTR tv66[rsp], xmm0
	mov	rax, QWORD PTR v$[rsp]
	movss	xmm0, DWORD PTR [rax]
	call	QWORD PTR Func$[rsp]
	movss	xmm1, DWORD PTR tv66[rsp]
	movaps	xmm2, xmm1
	movaps	xmm1, xmm0
	mov	rcx, QWORD PTR __$ReturnUdt$[rsp]
	call	??0?$tvec2@M$0A@@glm@@QEAA@MM@Z		; glm::tvec2<float,0>::tvec2<float,0>
	mov	rax, QWORD PTR __$ReturnUdt$[rsp]

; 32   : 		}

	add	rsp, 48					; 00000030H
	pop	rdi
	ret	0
?call@?$functor1@MM$0A@Utvec2@glm@@@detail@glm@@SA?AU?$tvec2@M$0A@@3@P6AMM@ZAEBU43@@Z ENDP ; glm::detail::functor1<float,float,0,glm::tvec2>::call
_TEXT	ENDS
; Function compile flags: /Odtp /RTCsu
; File C:\Program Files\Microsoft Visual Studio\2022\Community\VC\Tools\MSVC\14.32.31326\include\xmemory
;	COMDAT ??$_Allocate_manually_vector_aligned@U_Default_allocate_traits@std@@@std@@YAPEAX_K@Z
_TEXT	SEGMENT
_Block_size$ = 48
_Ptr_container$ = 56
_Ptr$ = 64
_Bytes$ = 96
??$_Allocate_manually_vector_aligned@U_Default_allocate_traits@std@@@std@@YAPEAX_K@Z PROC ; std::_Allocate_manually_vector_aligned<std::_Default_allocate_traits>, COMDAT

; 127  : __declspec(allocator) void* _Allocate_manually_vector_aligned(const size_t _Bytes) {

$LN13:
	mov	QWORD PTR [rsp+8], rcx
	push	rdi
	sub	rsp, 80					; 00000050H

; 128  :     // allocate _Bytes manually aligned to at least _Big_allocation_alignment
; 129  :     const size_t _Block_size = _Non_user_size + _Bytes;

	mov	rax, QWORD PTR _Bytes$[rsp]
	add	rax, 47					; 0000002fH
	mov	QWORD PTR _Block_size$[rsp], rax

; 130  :     if (_Block_size <= _Bytes) {

	mov	rax, QWORD PTR _Bytes$[rsp]
	cmp	QWORD PTR _Block_size$[rsp], rax
	ja	SHORT $LN8@Allocate_m

; 131  :         _Throw_bad_array_new_length(); // add overflow

	call	?_Throw_bad_array_new_length@std@@YAXXZ	; std::_Throw_bad_array_new_length
$LN8@Allocate_m:

; 132  :     }
; 133  : 
; 134  :     const uintptr_t _Ptr_container = reinterpret_cast<uintptr_t>(_Traits::_Allocate(_Block_size));

	mov	rcx, QWORD PTR _Block_size$[rsp]
	call	?_Allocate@_Default_allocate_traits@std@@SAPEAX_K@Z ; std::_Default_allocate_traits::_Allocate
	mov	QWORD PTR _Ptr_container$[rsp], rax
$LN4@Allocate_m:

; 135  :     _STL_VERIFY(_Ptr_container != 0, "invalid argument"); // validate even in release since we're doing p[-1]

	cmp	QWORD PTR _Ptr_container$[rsp], 0
	je	SHORT $LN9@Allocate_m
	jmp	SHORT $LN10@Allocate_m
$LN9@Allocate_m:
$LN7@Allocate_m:
	lea	rax, OFFSET FLAT:$SG32145
	mov	QWORD PTR [rsp+40], rax
	lea	rax, OFFSET FLAT:$SG32146
	mov	QWORD PTR [rsp+32], rax
	xor	r9d, r9d
	mov	r8d, 135				; 00000087H
	lea	rdx, OFFSET FLAT:$SG32147
	mov	ecx, 2
	call	QWORD PTR __imp__CrtDbgReport
	cmp	eax, 1
	jne	SHORT $LN12@Allocate_m
	int	3
	xor	eax, eax
$LN12@Allocate_m:
	mov	QWORD PTR [rsp+32], 0
	mov	r9d, 135				; 00000087H
	lea	r8, OFFSET FLAT:$SG32148
	lea	rdx, OFFSET FLAT:$SG32149
	lea	rcx, OFFSET FLAT:$SG32150
	call	QWORD PTR __imp__invalid_parameter
	xor	eax, eax
	test	eax, eax
	jne	SHORT $LN7@Allocate_m
$LN10@Allocate_m:
	xor	eax, eax
	test	eax, eax
	jne	SHORT $LN4@Allocate_m

; 136  :     void* const _Ptr = reinterpret_cast<void*>((_Ptr_container + _Non_user_size) & ~(_Big_allocation_alignment - 1));

	mov	rax, QWORD PTR _Ptr_container$[rsp]
	add	rax, 47					; 0000002fH
	and	rax, -32				; ffffffffffffffe0H
	mov	QWORD PTR _Ptr$[rsp], rax

; 137  :     static_cast<uintptr_t*>(_Ptr)[-1] = _Ptr_container;

	mov	eax, 8
	imul	rax, rax, -1
	mov	rcx, QWORD PTR _Ptr$[rsp]
	mov	rdx, QWORD PTR _Ptr_container$[rsp]
	mov	QWORD PTR [rcx+rax], rdx

; 138  : 
; 139  : #ifdef _DEBUG
; 140  :     static_cast<uintptr_t*>(_Ptr)[-2] = _Big_allocation_sentinel;

	mov	eax, 8
	imul	rax, rax, -2
	mov	rcx, QWORD PTR _Ptr$[rsp]
	mov	rdx, -361700864190383366		; fafafafafafafafaH
	mov	QWORD PTR [rcx+rax], rdx

; 141  : #endif // _DEBUG
; 142  :     return _Ptr;

	mov	rax, QWORD PTR _Ptr$[rsp]
$LN11@Allocate_m:

; 143  : }

	add	rsp, 80					; 00000050H
	pop	rdi
	ret	0
??$_Allocate_manually_vector_aligned@U_Default_allocate_traits@std@@@std@@YAPEAX_K@Z ENDP ; std::_Allocate_manually_vector_aligned<std::_Default_allocate_traits>
_TEXT	ENDS
; Function compile flags: /Odtp /RTCsu
; File C:\Program Files\Microsoft Visual Studio\2022\Community\VC\Tools\MSVC\14.32.31326\include\type_traits
;	COMDAT ??$forward@PEAU_Container_base12@std@@@std@@YA$$QEAPEAU_Container_base12@0@AEAPEAU10@@Z
_TEXT	SEGMENT
_Arg$ = 16
??$forward@PEAU_Container_base12@std@@@std@@YA$$QEAPEAU_Container_base12@0@AEAPEAU10@@Z PROC ; std::forward<std::_Container_base12 *>, COMDAT

; 1341 :     remove_reference_t<_Ty>& _Arg) noexcept { // forward an lvalue as either an lvalue or an rvalue

$LN3:
	mov	QWORD PTR [rsp+8], rcx
	push	rdi

; 1342 :     return static_cast<_Ty&&>(_Arg);

	mov	rax, QWORD PTR _Arg$[rsp]

; 1343 : }

	pop	rdi
	ret	0
??$forward@PEAU_Container_base12@std@@@std@@YA$$QEAPEAU_Container_base12@0@AEAPEAU10@@Z ENDP ; std::forward<std::_Container_base12 *>
_TEXT	ENDS
; Function compile flags: /Odtp /RTCsu
; File C:\Program Files\Microsoft Visual Studio\2022\Community\VC\Tools\MSVC\14.32.31326\include\xutility
;	COMDAT ??$_Voidify_iter@PEAU_Container_proxy@std@@@std@@YAPEAXPEAU_Container_proxy@0@@Z
_TEXT	SEGMENT
_It$ = 16
??$_Voidify_iter@PEAU_Container_proxy@std@@@std@@YAPEAXPEAU_Container_proxy@0@@Z PROC ; std::_Voidify_iter<std::_Container_proxy *>, COMDAT

; 123  : _NODISCARD constexpr void* _Voidify_iter(_Iter _It) noexcept {

$LN3:
	mov	QWORD PTR [rsp+8], rcx
	push	rdi

; 124  :     if constexpr (is_pointer_v<_Iter>) {
; 125  :         return const_cast<void*>(static_cast<const volatile void*>(_It));

	mov	rax, QWORD PTR _It$[rsp]

; 126  :     } else {
; 127  :         return const_cast<void*>(static_cast<const volatile void*>(_STD addressof(*_It)));
; 128  :     }
; 129  : }

	pop	rdi
	ret	0
??$_Voidify_iter@PEAU_Container_proxy@std@@@std@@YAPEAXPEAU_Container_proxy@0@@Z ENDP ; std::_Voidify_iter<std::_Container_proxy *>
_TEXT	ENDS
; Function compile flags: /Odtp /RTCsu
; File C:\Program Files\Microsoft Visual Studio\2022\Community\VC\Tools\MSVC\14.32.31326\include\xstddef
;	COMDAT ??$addressof@U_Container_proxy@std@@@std@@YAPEAU_Container_proxy@0@AEAU10@@Z
_TEXT	SEGMENT
_Val$ = 16
??$addressof@U_Container_proxy@std@@@std@@YAPEAU_Container_proxy@0@AEAU10@@Z PROC ; std::addressof<std::_Container_proxy>, COMDAT

; 252  : _NODISCARD constexpr _Ty* addressof(_Ty& _Val) noexcept {

$LN3:
	mov	QWORD PTR [rsp+8], rcx
	push	rdi

; 253  :     return __builtin_addressof(_Val);

	mov	rax, QWORD PTR _Val$[rsp]

; 254  : }

	pop	rdi
	ret	0
??$addressof@U_Container_proxy@std@@@std@@YAPEAU_Container_proxy@0@AEAU10@@Z ENDP ; std::addressof<std::_Container_proxy>
_TEXT	ENDS
; Function compile flags: /Odtp /RTCsu
; File C:\Program Files\Microsoft Visual Studio\2022\Community\VC\Tools\MSVC\14.32.31326\include\xmemory
;	COMDAT ??$_Emplace_back@AEBU?$tmat2x2@M$0A@@glm@@@?$_Uninitialized_backout_al@V?$allocator@U?$tmat2x2@M$0A@@glm@@@std@@@std@@QEAAXAEBU?$tmat2x2@M$0A@@glm@@@Z
_TEXT	SEGMENT
tv64 = 32
this$ = 64
<_Vals_0>$ = 72
??$_Emplace_back@AEBU?$tmat2x2@M$0A@@glm@@@?$_Uninitialized_backout_al@V?$allocator@U?$tmat2x2@M$0A@@glm@@@std@@@std@@QEAAXAEBU?$tmat2x2@M$0A@@glm@@@Z PROC ; std::_Uninitialized_backout_al<std::allocator<glm::tmat2x2<float,0> > >::_Emplace_back<glm::tmat2x2<float,0> const &>, COMDAT

; 1655 :     _CONSTEXPR20 void _Emplace_back(_Types&&... _Vals) { // construct a new element at *_Last and increment

$LN3:
	mov	QWORD PTR [rsp+16], rdx
	mov	QWORD PTR [rsp+8], rcx
	push	rdi
	sub	rsp, 48					; 00000030H

; 1656 :         allocator_traits<_Alloc>::construct(_Al, _Unfancy(_Last), _STD forward<_Types>(_Vals)...);

	mov	rcx, QWORD PTR <_Vals_0>$[rsp]
	call	??$forward@AEBU?$tmat2x2@M$0A@@glm@@@std@@YAAEBU?$tmat2x2@M$0A@@glm@@AEBU12@@Z ; std::forward<glm::tmat2x2<float,0> const &>
	mov	QWORD PTR tv64[rsp], rax
	mov	rcx, QWORD PTR this$[rsp]
	mov	rcx, QWORD PTR [rcx+8]
	call	??$_Unfancy@U?$tmat2x2@M$0A@@glm@@@std@@YAPEAU?$tmat2x2@M$0A@@glm@@PEAU12@@Z ; std::_Unfancy<glm::tmat2x2<float,0> >
	mov	rcx, QWORD PTR tv64[rsp]
	mov	r8, rcx
	mov	rdx, rax
	mov	rax, QWORD PTR this$[rsp]
	mov	rcx, QWORD PTR [rax+16]
	call	??$construct@U?$tmat2x2@M$0A@@glm@@AEBU12@@?$_Default_allocator_traits@V?$allocator@U?$tmat2x2@M$0A@@glm@@@std@@@std@@SAXAEAV?$allocator@U?$tmat2x2@M$0A@@glm@@@1@QEAU?$tmat2x2@M$0A@@glm@@AEBU34@@Z ; std::_Default_allocator_traits<std::allocator<glm::tmat2x2<float,0> > >::construct<glm::tmat2x2<float,0>,glm::tmat2x2<float,0> const &>

; 1657 :         ++_Last;

	mov	rax, QWORD PTR this$[rsp]
	mov	rax, QWORD PTR [rax+8]
	add	rax, 16
	mov	rcx, QWORD PTR this$[rsp]
	mov	QWORD PTR [rcx+8], rax

; 1658 :     }

	add	rsp, 48					; 00000030H
	pop	rdi
	ret	0
??$_Emplace_back@AEBU?$tmat2x2@M$0A@@glm@@@?$_Uninitialized_backout_al@V?$allocator@U?$tmat2x2@M$0A@@glm@@@std@@@std@@QEAAXAEBU?$tmat2x2@M$0A@@glm@@@Z ENDP ; std::_Uninitialized_backout_al<std::allocator<glm::tmat2x2<float,0> > >::_Emplace_back<glm::tmat2x2<float,0> const &>
_TEXT	ENDS
; Function compile flags: /Odtp /RTCsu
; File C:\Program Files\Microsoft Visual Studio\2022\Community\VC\Tools\MSVC\14.32.31326\include\xmemory
;	COMDAT ?_Release@?$_Uninitialized_backout_al@V?$allocator@U?$tmat2x2@M$0A@@glm@@@std@@@std@@QEAAPEAU?$tmat2x2@M$0A@@glm@@XZ
_TEXT	SEGMENT
this$ = 16
?_Release@?$_Uninitialized_backout_al@V?$allocator@U?$tmat2x2@M$0A@@glm@@@std@@@std@@QEAAPEAU?$tmat2x2@M$0A@@glm@@XZ PROC ; std::_Uninitialized_backout_al<std::allocator<glm::tmat2x2<float,0> > >::_Release, COMDAT

; 1660 :     constexpr pointer _Release() { // suppress any exception handling backout and return _Last

$LN3:
	mov	QWORD PTR [rsp+8], rcx
	push	rdi

; 1661 :         _First = _Last;

	mov	rax, QWORD PTR this$[rsp]
	mov	rcx, QWORD PTR this$[rsp]
	mov	rcx, QWORD PTR [rcx+8]
	mov	QWORD PTR [rax], rcx

; 1662 :         return _Last;

	mov	rax, QWORD PTR this$[rsp]
	mov	rax, QWORD PTR [rax+8]

; 1663 :     }

	pop	rdi
	ret	0
?_Release@?$_Uninitialized_backout_al@V?$allocator@U?$tmat2x2@M$0A@@glm@@@std@@@std@@QEAAPEAU?$tmat2x2@M$0A@@glm@@XZ ENDP ; std::_Uninitialized_backout_al<std::allocator<glm::tmat2x2<float,0> > >::_Release
_TEXT	ENDS
; Function compile flags: /Odtp /RTCsu
; File C:\Program Files\Microsoft Visual Studio\2022\Community\VC\Tools\MSVC\14.32.31326\include\xmemory
;	COMDAT ??1?$_Uninitialized_backout_al@V?$allocator@U?$tmat2x2@M$0A@@glm@@@std@@@std@@QEAA@XZ
_TEXT	SEGMENT
this$ = 48
??1?$_Uninitialized_backout_al@V?$allocator@U?$tmat2x2@M$0A@@glm@@@std@@@std@@QEAA@XZ PROC ; std::_Uninitialized_backout_al<std::allocator<glm::tmat2x2<float,0> > >::~_Uninitialized_backout_al<std::allocator<glm::tmat2x2<float,0> > >, COMDAT

; 1650 :     _CONSTEXPR20 ~_Uninitialized_backout_al() {

$LN3:
	mov	QWORD PTR [rsp+8], rcx
	push	rdi
	sub	rsp, 32					; 00000020H

; 1651 :         _Destroy_range(_First, _Last, _Al);

	mov	rax, QWORD PTR this$[rsp]
	mov	r8, QWORD PTR [rax+16]
	mov	rax, QWORD PTR this$[rsp]
	mov	rdx, QWORD PTR [rax+8]
	mov	rax, QWORD PTR this$[rsp]
	mov	rcx, QWORD PTR [rax]
	call	??$_Destroy_range@V?$allocator@U?$tmat2x2@M$0A@@glm@@@std@@@std@@YAXPEAU?$tmat2x2@M$0A@@glm@@QEAU12@AEAV?$allocator@U?$tmat2x2@M$0A@@glm@@@0@@Z ; std::_Destroy_range<std::allocator<glm::tmat2x2<float,0> > >

; 1652 :     }

	add	rsp, 32					; 00000020H
	pop	rdi
	ret	0
??1?$_Uninitialized_backout_al@V?$allocator@U?$tmat2x2@M$0A@@glm@@@std@@@std@@QEAA@XZ ENDP ; std::_Uninitialized_backout_al<std::allocator<glm::tmat2x2<float,0> > >::~_Uninitialized_backout_al<std::allocator<glm::tmat2x2<float,0> > >
_TEXT	ENDS
; Function compile flags: /Odtp /RTCsu
; File C:\Program Files\Microsoft Visual Studio\2022\Community\VC\Tools\MSVC\14.32.31326\include\xmemory
;	COMDAT ??0?$_Uninitialized_backout_al@V?$allocator@U?$tmat2x2@M$0A@@glm@@@std@@@std@@QEAA@PEAU?$tmat2x2@M$0A@@glm@@AEAV?$allocator@U?$tmat2x2@M$0A@@glm@@@1@@Z
_TEXT	SEGMENT
this$ = 16
_Dest$ = 24
_Al_$ = 32
??0?$_Uninitialized_backout_al@V?$allocator@U?$tmat2x2@M$0A@@glm@@@std@@@std@@QEAA@PEAU?$tmat2x2@M$0A@@glm@@AEAV?$allocator@U?$tmat2x2@M$0A@@glm@@@1@@Z PROC ; std::_Uninitialized_backout_al<std::allocator<glm::tmat2x2<float,0> > >::_Uninitialized_backout_al<std::allocator<glm::tmat2x2<float,0> > >, COMDAT

; 1645 :     _CONSTEXPR20 _Uninitialized_backout_al(pointer _Dest, _Alloc& _Al_) : _First(_Dest), _Last(_Dest), _Al(_Al_) {}

$LN3:
	mov	QWORD PTR [rsp+24], r8
	mov	QWORD PTR [rsp+16], rdx
	mov	QWORD PTR [rsp+8], rcx
	push	rdi
	mov	rax, QWORD PTR this$[rsp]
	mov	rcx, QWORD PTR _Dest$[rsp]
	mov	QWORD PTR [rax], rcx
	mov	rax, QWORD PTR this$[rsp]
	mov	rcx, QWORD PTR _Dest$[rsp]
	mov	QWORD PTR [rax+8], rcx
	mov	rax, QWORD PTR this$[rsp]
	mov	rcx, QWORD PTR _Al_$[rsp]
	mov	QWORD PTR [rax+16], rcx
	mov	rax, QWORD PTR this$[rsp]
	pop	rdi
	ret	0
??0?$_Uninitialized_backout_al@V?$allocator@U?$tmat2x2@M$0A@@glm@@@std@@@std@@QEAA@PEAU?$tmat2x2@M$0A@@glm@@AEAV?$allocator@U?$tmat2x2@M$0A@@glm@@@1@@Z ENDP ; std::_Uninitialized_backout_al<std::allocator<glm::tmat2x2<float,0> > >::_Uninitialized_backout_al<std::allocator<glm::tmat2x2<float,0> > >
_TEXT	ENDS
; Function compile flags: /Odtp /RTCsu
; File C:\Program Files\Microsoft Visual Studio\2022\Community\VC\Tools\MSVC\14.32.31326\include\xutility
;	COMDAT ??$_Copy_memmove@PEBU?$tmat2x2@M$0A@@glm@@PEAU12@@std@@YAPEAU?$tmat2x2@M$0A@@glm@@PEBU12@0PEAU12@@Z
_TEXT	SEGMENT
_FirstPtr$ = 32
_LastPtr$ = 40
_DestPtr$ = 48
_First_ch$ = 56
_Last_ch$ = 64
_Dest_ch$ = 72
_Count$ = 80
_First$ = 112
_Last$ = 120
_Dest$ = 128
??$_Copy_memmove@PEBU?$tmat2x2@M$0A@@glm@@PEAU12@@std@@YAPEAU?$tmat2x2@M$0A@@glm@@PEBU12@0PEAU12@@Z PROC ; std::_Copy_memmove<glm::tmat2x2<float,0> const *,glm::tmat2x2<float,0> *>, COMDAT

; 4035 : _OutCtgIt _Copy_memmove(_CtgIt _First, _CtgIt _Last, _OutCtgIt _Dest) {

$LN3:
	mov	QWORD PTR [rsp+24], r8
	mov	QWORD PTR [rsp+16], rdx
	mov	QWORD PTR [rsp+8], rcx
	push	rdi
	sub	rsp, 96					; 00000060H

; 4036 :     auto _FirstPtr              = _To_address(_First);

	lea	rcx, QWORD PTR _First$[rsp]
	call	??$_To_address@PEBU?$tmat2x2@M$0A@@glm@@@std@@YA?A_PAEBQEBU?$tmat2x2@M$0A@@glm@@@Z ; std::_To_address<glm::tmat2x2<float,0> const *>
	mov	QWORD PTR _FirstPtr$[rsp], rax

; 4037 :     auto _LastPtr               = _To_address(_Last);

	lea	rcx, QWORD PTR _Last$[rsp]
	call	??$_To_address@PEBU?$tmat2x2@M$0A@@glm@@@std@@YA?A_PAEBQEBU?$tmat2x2@M$0A@@glm@@@Z ; std::_To_address<glm::tmat2x2<float,0> const *>
	mov	QWORD PTR _LastPtr$[rsp], rax

; 4038 :     auto _DestPtr               = _To_address(_Dest);

	lea	rcx, QWORD PTR _Dest$[rsp]
	call	??$_To_address@PEAU?$tmat2x2@M$0A@@glm@@@std@@YA?A_PAEBQEAU?$tmat2x2@M$0A@@glm@@@Z ; std::_To_address<glm::tmat2x2<float,0> *>
	mov	QWORD PTR _DestPtr$[rsp], rax

; 4039 :     const char* const _First_ch = const_cast<const char*>(reinterpret_cast<const volatile char*>(_FirstPtr));

	mov	rax, QWORD PTR _FirstPtr$[rsp]
	mov	QWORD PTR _First_ch$[rsp], rax

; 4040 :     const char* const _Last_ch  = const_cast<const char*>(reinterpret_cast<const volatile char*>(_LastPtr));

	mov	rax, QWORD PTR _LastPtr$[rsp]
	mov	QWORD PTR _Last_ch$[rsp], rax

; 4041 :     char* const _Dest_ch        = const_cast<char*>(reinterpret_cast<const volatile char*>(_DestPtr));

	mov	rax, QWORD PTR _DestPtr$[rsp]
	mov	QWORD PTR _Dest_ch$[rsp], rax

; 4042 :     const auto _Count           = static_cast<size_t>(_Last_ch - _First_ch);

	mov	rax, QWORD PTR _First_ch$[rsp]
	mov	rcx, QWORD PTR _Last_ch$[rsp]
	sub	rcx, rax
	mov	rax, rcx
	mov	QWORD PTR _Count$[rsp], rax

; 4043 :     _CSTD memmove(_Dest_ch, _First_ch, _Count);

	mov	r8, QWORD PTR _Count$[rsp]
	mov	rdx, QWORD PTR _First_ch$[rsp]
	mov	rcx, QWORD PTR _Dest_ch$[rsp]
	call	memmove

; 4044 :     if constexpr (is_pointer_v<_OutCtgIt>) {
; 4045 :         return reinterpret_cast<_OutCtgIt>(_Dest_ch + _Count);

	mov	rax, QWORD PTR _Count$[rsp]
	mov	rcx, QWORD PTR _Dest_ch$[rsp]
	add	rcx, rax
	mov	rax, rcx

; 4046 :     } else {
; 4047 :         return _Dest + (_LastPtr - _FirstPtr);
; 4048 :     }
; 4049 : }

	add	rsp, 96					; 00000060H
	pop	rdi
	ret	0
??$_Copy_memmove@PEBU?$tmat2x2@M$0A@@glm@@PEAU12@@std@@YAPEAU?$tmat2x2@M$0A@@glm@@PEBU12@0PEAU12@@Z ENDP ; std::_Copy_memmove<glm::tmat2x2<float,0> const *,glm::tmat2x2<float,0> *>
_TEXT	ENDS
; Function compile flags: /Odtp /RTCsu
; File C:\Program Files\Microsoft Visual Studio\2022\Community\VC\Tools\MSVC\14.32.31326\include\xstddef
;	COMDAT ??$_Unfancy@U?$tmat2x2@M$0A@@glm@@@std@@YAPEAU?$tmat2x2@M$0A@@glm@@PEAU12@@Z
_TEXT	SEGMENT
_Ptr$ = 16
??$_Unfancy@U?$tmat2x2@M$0A@@glm@@@std@@YAPEAU?$tmat2x2@M$0A@@glm@@PEAU12@@Z PROC ; std::_Unfancy<glm::tmat2x2<float,0> >, COMDAT

; 265  : _NODISCARD constexpr _Ty* _Unfancy(_Ty* _Ptr) noexcept { // do nothing for plain pointers

$LN3:
	mov	QWORD PTR [rsp+8], rcx
	push	rdi

; 266  :     return _Ptr;

	mov	rax, QWORD PTR _Ptr$[rsp]

; 267  : }

	pop	rdi
	ret	0
??$_Unfancy@U?$tmat2x2@M$0A@@glm@@@std@@YAPEAU?$tmat2x2@M$0A@@glm@@PEAU12@@Z ENDP ; std::_Unfancy<glm::tmat2x2<float,0> >
_TEXT	ENDS
; Function compile flags: /Odtp /RTCsu
; File C:\Program Files\Microsoft Visual Studio\2022\Community\VC\Tools\MSVC\14.32.31326\include\xutility
;	COMDAT ??$_Get_unwrapped@AEBQEBU?$tmat2x2@M$0A@@glm@@@std@@YA?A_TAEBQEBU?$tmat2x2@M$0A@@glm@@@Z
_TEXT	SEGMENT
_It$ = 16
??$_Get_unwrapped@AEBQEBU?$tmat2x2@M$0A@@glm@@@std@@YA?A_TAEBQEBU?$tmat2x2@M$0A@@glm@@@Z PROC ; std::_Get_unwrapped<glm::tmat2x2<float,0> const * const &>, COMDAT

; 1270 : _NODISCARD constexpr decltype(auto) _Get_unwrapped(_Iter&& _It) {

$LN3:
	mov	QWORD PTR [rsp+8], rcx
	push	rdi

; 1271 :     // unwrap an iterator previously subjected to _Adl_verify_range or otherwise validated
; 1272 :     if constexpr (is_pointer_v<decay_t<_Iter>>) { // special-case pointers and arrays
; 1273 :         return _It + 0;

	mov	rax, QWORD PTR _It$[rsp]
	mov	rax, QWORD PTR [rax]

; 1274 :     } else if constexpr (_Unwrappable_v<_Iter>) {
; 1275 :         return static_cast<_Iter&&>(_It)._Unwrapped();
; 1276 :     } else {
; 1277 :         return static_cast<_Iter&&>(_It);
; 1278 :     }
; 1279 : }

	pop	rdi
	ret	0
??$_Get_unwrapped@AEBQEBU?$tmat2x2@M$0A@@glm@@@std@@YA?A_TAEBQEBU?$tmat2x2@M$0A@@glm@@@Z ENDP ; std::_Get_unwrapped<glm::tmat2x2<float,0> const * const &>
_TEXT	ENDS
; Function compile flags: /Odtp /RTCsu
; File C:\Program Files\Microsoft Visual Studio\2022\Community\VC\Tools\MSVC\14.32.31326\include\xmemory
;	COMDAT ?deallocate@?$_Default_allocator_traits@V?$allocator@U_Container_proxy@std@@@std@@@std@@SAXAEAV?$allocator@U_Container_proxy@std@@@2@QEAU_Container_proxy@2@_K@Z
_TEXT	SEGMENT
_Al$ = 48
_Ptr$ = 56
_Count$ = 64
?deallocate@?$_Default_allocator_traits@V?$allocator@U_Container_proxy@std@@@std@@@std@@SAXAEAV?$allocator@U_Container_proxy@std@@@2@QEAU_Container_proxy@2@_K@Z PROC ; std::_Default_allocator_traits<std::allocator<std::_Container_proxy> >::deallocate, COMDAT

; 659  :     static _CONSTEXPR20 void deallocate(_Alloc& _Al, const pointer _Ptr, const size_type _Count) {

$LN3:
	mov	QWORD PTR [rsp+24], r8
	mov	QWORD PTR [rsp+16], rdx
	mov	QWORD PTR [rsp+8], rcx
	push	rdi
	sub	rsp, 32					; 00000020H

; 660  :         // no overflow check on the following multiply; we assume _Allocate did that check
; 661  : #if _HAS_CXX20 // TRANSITION, GH-1532
; 662  :         if (_STD is_constant_evaluated()) {
; 663  :             _Al.deallocate(_Ptr, _Count);
; 664  :         } else
; 665  : #endif // _HAS_CXX20
; 666  :         {
; 667  :             (void) _Al;
; 668  :             _Deallocate<_New_alignof<value_type>>(_Ptr, sizeof(value_type) * _Count);

	imul	rax, QWORD PTR _Count$[rsp], 16
	mov	rdx, rax
	mov	rcx, QWORD PTR _Ptr$[rsp]
	call	??$_Deallocate@$0BA@$0A@@std@@YAXPEAX_K@Z ; std::_Deallocate<16,0>

; 669  :         }
; 670  :     }

	add	rsp, 32					; 00000020H
	pop	rdi
	ret	0
?deallocate@?$_Default_allocator_traits@V?$allocator@U_Container_proxy@std@@@std@@@std@@SAXAEAV?$allocator@U_Container_proxy@std@@@2@QEAU_Container_proxy@2@_K@Z ENDP ; std::_Default_allocator_traits<std::allocator<std::_Container_proxy> >::deallocate
_TEXT	ENDS
; Function compile flags: /Odtp /RTCsu
; File C:\Users\ksart\OneDrive\Desktop\FlappyBird\libraries\external\glm\glm\detail\type_mat2x2.inl
;	COMDAT ??$?XM@?$tmat2x2@M$0A@@glm@@QEAAAEAU01@AEBU01@@Z
_TEXT	SEGMENT
$T1 = 32
__$ArrayPad$ = 56
this$ = 96
m$ = 104
??$?XM@?$tmat2x2@M$0A@@glm@@QEAAAEAU01@AEBU01@@Z PROC	; glm::tmat2x2<float,0>::operator*=<float>, COMDAT

; 240  : 	{

$LN3:
	mov	QWORD PTR [rsp+16], rdx
	mov	QWORD PTR [rsp+8], rcx
	push	rsi
	push	rdi
	sub	rsp, 72					; 00000048H
	mov	rax, QWORD PTR __security_cookie
	xor	rax, rsp
	mov	QWORD PTR __$ArrayPad$[rsp], rax

; 241  : 		return (*this = *this * m);

	mov	r8, QWORD PTR m$[rsp]
	mov	rdx, QWORD PTR this$[rsp]
	lea	rcx, QWORD PTR $T1[rsp]
	call	??$?DM$0A@@glm@@YA?AU?$tmat2x2@M$0A@@0@AEBU10@0@Z ; glm::operator*<float,0>
	mov	rdi, QWORD PTR this$[rsp]
	mov	rsi, rax
	mov	ecx, 16
	rep movsb
	mov	rax, QWORD PTR this$[rsp]

; 242  : 	}

	mov	rcx, QWORD PTR __$ArrayPad$[rsp]
	xor	rcx, rsp
	call	__security_check_cookie
	add	rsp, 72					; 00000048H
	pop	rdi
	pop	rsi
	ret	0
??$?XM@?$tmat2x2@M$0A@@glm@@QEAAAEAU01@AEBU01@@Z ENDP	; glm::tmat2x2<float,0>::operator*=<float>
_TEXT	ENDS
; Function compile flags: /Odtp /RTCsu
; File C:\Users\ksart\OneDrive\Desktop\FlappyBird\libraries\external\glm\glm\detail\func_common.inl
;	COMDAT ?call@?$compute_abs_vector@M$0A@Utvec2@glm@@$0A@@detail@glm@@SA?AU?$tvec2@M$0A@@3@AEBU43@@Z
_TEXT	SEGMENT
__$ReturnUdt$ = 48
x$ = 56
?call@?$compute_abs_vector@M$0A@Utvec2@glm@@$0A@@detail@glm@@SA?AU?$tvec2@M$0A@@3@AEBU43@@Z PROC ; glm::detail::compute_abs_vector<float,0,glm::tvec2,0>::call, COMDAT

; 114  : 		{

$LN3:
	mov	QWORD PTR [rsp+16], rdx
	mov	QWORD PTR [rsp+8], rcx
	push	rdi
	sub	rsp, 32					; 00000020H

; 115  : 			return detail::functor1<T, T, P, vecType>::call(abs, x);

	mov	r8, QWORD PTR x$[rsp]
	lea	rdx, OFFSET FLAT:??$abs@M@glm@@YAMM@Z	; glm::abs<float>
	mov	rcx, QWORD PTR __$ReturnUdt$[rsp]
	call	?call@?$functor1@MM$0A@Utvec2@glm@@@detail@glm@@SA?AU?$tvec2@M$0A@@3@P6AMM@ZAEBU43@@Z ; glm::detail::functor1<float,float,0,glm::tvec2>::call
	mov	rax, QWORD PTR __$ReturnUdt$[rsp]

; 116  : 		}

	add	rsp, 32					; 00000020H
	pop	rdi
	ret	0
?call@?$compute_abs_vector@M$0A@Utvec2@glm@@$0A@@detail@glm@@SA?AU?$tvec2@M$0A@@3@AEBU43@@Z ENDP ; glm::detail::compute_abs_vector<float,0,glm::tvec2,0>::call
_TEXT	ENDS
; Function compile flags: /Odtp /RTCsu
; File C:\Users\ksart\OneDrive\Desktop\FlappyBird\libraries\external\glm\glm\detail\type_vec4.inl
;	COMDAT ??$?0HHHM@?$tvec4@M$0A@@glm@@QEAA@HHHM@Z
_TEXT	SEGMENT
this$ = 16
a$ = 24
b$ = 32
c$ = 40
d$ = 48
??$?0HHHM@?$tvec4@M$0A@@glm@@QEAA@HHHM@Z PROC		; glm::tvec4<float,0>::tvec4<float,0><int,int,int,float>, COMDAT

; 204  : 	{}

$LN3:
	mov	DWORD PTR [rsp+32], r9d
	mov	DWORD PTR [rsp+24], r8d
	mov	DWORD PTR [rsp+16], edx
	mov	QWORD PTR [rsp+8], rcx
	push	rdi

; 200  : 		x(static_cast<T>(a)),

	cvtsi2ss xmm0, DWORD PTR a$[rsp]
	mov	rax, QWORD PTR this$[rsp]
	movss	DWORD PTR [rax], xmm0

; 201  : 		y(static_cast<T>(b)),

	cvtsi2ss xmm0, DWORD PTR b$[rsp]
	mov	rax, QWORD PTR this$[rsp]
	movss	DWORD PTR [rax+4], xmm0

; 202  : 		z(static_cast<T>(c)),

	cvtsi2ss xmm0, DWORD PTR c$[rsp]
	mov	rax, QWORD PTR this$[rsp]
	movss	DWORD PTR [rax+8], xmm0

; 203  : 		w(static_cast<T>(d))

	mov	rax, QWORD PTR this$[rsp]
	movss	xmm0, DWORD PTR d$[rsp]
	movss	DWORD PTR [rax+12], xmm0

; 204  : 	{}

	mov	rax, QWORD PTR this$[rsp]
	pop	rdi
	ret	0
??$?0HHHM@?$tvec4@M$0A@@glm@@QEAA@HHHM@Z ENDP		; glm::tvec4<float,0>::tvec4<float,0><int,int,int,float>
_TEXT	ENDS
; Function compile flags: /Odtp /RTCsu
; File C:\Users\ksart\OneDrive\Desktop\FlappyBird\libraries\external\glm\glm\detail\type_vec3.inl
;	COMDAT ??$?0HHH@?$tvec3@M$0A@@glm@@QEAA@HHH@Z
_TEXT	SEGMENT
this$ = 16
a$ = 24
b$ = 32
c$ = 40
??$?0HHH@?$tvec3@M$0A@@glm@@QEAA@HHH@Z PROC		; glm::tvec3<float,0>::tvec3<float,0><int,int,int>, COMDAT

; 80   : 	{}

$LN3:
	mov	DWORD PTR [rsp+32], r9d
	mov	DWORD PTR [rsp+24], r8d
	mov	DWORD PTR [rsp+16], edx
	mov	QWORD PTR [rsp+8], rcx
	push	rdi

; 77   : 		x(static_cast<T>(a)),

	cvtsi2ss xmm0, DWORD PTR a$[rsp]
	mov	rax, QWORD PTR this$[rsp]
	movss	DWORD PTR [rax], xmm0

; 78   : 		y(static_cast<T>(b)),

	cvtsi2ss xmm0, DWORD PTR b$[rsp]
	mov	rax, QWORD PTR this$[rsp]
	movss	DWORD PTR [rax+4], xmm0

; 79   : 		z(static_cast<T>(c))

	cvtsi2ss xmm0, DWORD PTR c$[rsp]
	mov	rax, QWORD PTR this$[rsp]
	movss	DWORD PTR [rax+8], xmm0

; 80   : 	{}

	mov	rax, QWORD PTR this$[rsp]
	pop	rdi
	ret	0
??$?0HHH@?$tvec3@M$0A@@glm@@QEAA@HHH@Z ENDP		; glm::tvec3<float,0>::tvec3<float,0><int,int,int>
_TEXT	ENDS
; Function compile flags: /Odtp /RTCsu
; File C:\Users\ksart\OneDrive\Desktop\FlappyBird\libraries\external\glm\glm\detail\type_vec4.inl
;	COMDAT ??$?0HHMH@?$tvec4@M$0A@@glm@@QEAA@HHMH@Z
_TEXT	SEGMENT
this$ = 16
a$ = 24
b$ = 32
c$ = 40
d$ = 48
??$?0HHMH@?$tvec4@M$0A@@glm@@QEAA@HHMH@Z PROC		; glm::tvec4<float,0>::tvec4<float,0><int,int,float,int>, COMDAT

; 204  : 	{}

$LN3:
	movss	DWORD PTR [rsp+32], xmm3
	mov	DWORD PTR [rsp+24], r8d
	mov	DWORD PTR [rsp+16], edx
	mov	QWORD PTR [rsp+8], rcx
	push	rdi

; 200  : 		x(static_cast<T>(a)),

	cvtsi2ss xmm0, DWORD PTR a$[rsp]
	mov	rax, QWORD PTR this$[rsp]
	movss	DWORD PTR [rax], xmm0

; 201  : 		y(static_cast<T>(b)),

	cvtsi2ss xmm0, DWORD PTR b$[rsp]
	mov	rax, QWORD PTR this$[rsp]
	movss	DWORD PTR [rax+4], xmm0

; 202  : 		z(static_cast<T>(c)),

	mov	rax, QWORD PTR this$[rsp]
	movss	xmm0, DWORD PTR c$[rsp]
	movss	DWORD PTR [rax+8], xmm0

; 203  : 		w(static_cast<T>(d))

	cvtsi2ss xmm0, DWORD PTR d$[rsp]
	mov	rax, QWORD PTR this$[rsp]
	movss	DWORD PTR [rax+12], xmm0

; 204  : 	{}

	mov	rax, QWORD PTR this$[rsp]
	pop	rdi
	ret	0
??$?0HHMH@?$tvec4@M$0A@@glm@@QEAA@HHMH@Z ENDP		; glm::tvec4<float,0>::tvec4<float,0><int,int,float,int>
_TEXT	ENDS
; Function compile flags: /Odtp /RTCsu
; File C:\Users\ksart\OneDrive\Desktop\FlappyBird\libraries\external\glm\glm\detail\type_vec4.inl
;	COMDAT ??$?0HMHH@?$tvec4@M$0A@@glm@@QEAA@HMHH@Z
_TEXT	SEGMENT
this$ = 16
a$ = 24
b$ = 32
c$ = 40
d$ = 48
??$?0HMHH@?$tvec4@M$0A@@glm@@QEAA@HMHH@Z PROC		; glm::tvec4<float,0>::tvec4<float,0><int,float,int,int>, COMDAT

; 204  : 	{}

$LN3:
	mov	DWORD PTR [rsp+32], r9d
	movss	DWORD PTR [rsp+24], xmm2
	mov	DWORD PTR [rsp+16], edx
	mov	QWORD PTR [rsp+8], rcx
	push	rdi

; 200  : 		x(static_cast<T>(a)),

	cvtsi2ss xmm0, DWORD PTR a$[rsp]
	mov	rax, QWORD PTR this$[rsp]
	movss	DWORD PTR [rax], xmm0

; 201  : 		y(static_cast<T>(b)),

	mov	rax, QWORD PTR this$[rsp]
	movss	xmm0, DWORD PTR b$[rsp]
	movss	DWORD PTR [rax+4], xmm0

; 202  : 		z(static_cast<T>(c)),

	cvtsi2ss xmm0, DWORD PTR c$[rsp]
	mov	rax, QWORD PTR this$[rsp]
	movss	DWORD PTR [rax+8], xmm0

; 203  : 		w(static_cast<T>(d))

	cvtsi2ss xmm0, DWORD PTR d$[rsp]
	mov	rax, QWORD PTR this$[rsp]
	movss	DWORD PTR [rax+12], xmm0

; 204  : 	{}

	mov	rax, QWORD PTR this$[rsp]
	pop	rdi
	ret	0
??$?0HMHH@?$tvec4@M$0A@@glm@@QEAA@HMHH@Z ENDP		; glm::tvec4<float,0>::tvec4<float,0><int,float,int,int>
_TEXT	ENDS
; Function compile flags: /Odtp /RTCsu
; File C:\Users\ksart\OneDrive\Desktop\FlappyBird\libraries\external\glm\glm\detail\type_vec4.inl
;	COMDAT ??$?0MHHH@?$tvec4@M$0A@@glm@@QEAA@MHHH@Z
_TEXT	SEGMENT
this$ = 16
a$ = 24
b$ = 32
c$ = 40
d$ = 48
??$?0MHHH@?$tvec4@M$0A@@glm@@QEAA@MHHH@Z PROC		; glm::tvec4<float,0>::tvec4<float,0><float,int,int,int>, COMDAT

; 204  : 	{}

$LN3:
	mov	DWORD PTR [rsp+32], r9d
	mov	DWORD PTR [rsp+24], r8d
	movss	DWORD PTR [rsp+16], xmm1
	mov	QWORD PTR [rsp+8], rcx
	push	rdi

; 200  : 		x(static_cast<T>(a)),

	mov	rax, QWORD PTR this$[rsp]
	movss	xmm0, DWORD PTR a$[rsp]
	movss	DWORD PTR [rax], xmm0

; 201  : 		y(static_cast<T>(b)),

	cvtsi2ss xmm0, DWORD PTR b$[rsp]
	mov	rax, QWORD PTR this$[rsp]
	movss	DWORD PTR [rax+4], xmm0

; 202  : 		z(static_cast<T>(c)),

	cvtsi2ss xmm0, DWORD PTR c$[rsp]
	mov	rax, QWORD PTR this$[rsp]
	movss	DWORD PTR [rax+8], xmm0

; 203  : 		w(static_cast<T>(d))

	cvtsi2ss xmm0, DWORD PTR d$[rsp]
	mov	rax, QWORD PTR this$[rsp]
	movss	DWORD PTR [rax+12], xmm0

; 204  : 	{}

	mov	rax, QWORD PTR this$[rsp]
	pop	rdi
	ret	0
??$?0MHHH@?$tvec4@M$0A@@glm@@QEAA@MHHH@Z ENDP		; glm::tvec4<float,0>::tvec4<float,0><float,int,int,int>
_TEXT	ENDS
; Function compile flags: /Odtp /RTCsu
; File C:\Users\ksart\OneDrive\Desktop\FlappyBird\libraries\external\glm\glm\detail\type_vec3.inl
;	COMDAT ??$?0HHM@?$tvec3@M$0A@@glm@@QEAA@HHM@Z
_TEXT	SEGMENT
this$ = 16
a$ = 24
b$ = 32
c$ = 40
??$?0HHM@?$tvec3@M$0A@@glm@@QEAA@HHM@Z PROC		; glm::tvec3<float,0>::tvec3<float,0><int,int,float>, COMDAT

; 80   : 	{}

$LN3:
	movss	DWORD PTR [rsp+32], xmm3
	mov	DWORD PTR [rsp+24], r8d
	mov	DWORD PTR [rsp+16], edx
	mov	QWORD PTR [rsp+8], rcx
	push	rdi

; 77   : 		x(static_cast<T>(a)),

	cvtsi2ss xmm0, DWORD PTR a$[rsp]
	mov	rax, QWORD PTR this$[rsp]
	movss	DWORD PTR [rax], xmm0

; 78   : 		y(static_cast<T>(b)),

	cvtsi2ss xmm0, DWORD PTR b$[rsp]
	mov	rax, QWORD PTR this$[rsp]
	movss	DWORD PTR [rax+4], xmm0

; 79   : 		z(static_cast<T>(c))

	mov	rax, QWORD PTR this$[rsp]
	movss	xmm0, DWORD PTR c$[rsp]
	movss	DWORD PTR [rax+8], xmm0

; 80   : 	{}

	mov	rax, QWORD PTR this$[rsp]
	pop	rdi
	ret	0
??$?0HHM@?$tvec3@M$0A@@glm@@QEAA@HHM@Z ENDP		; glm::tvec3<float,0>::tvec3<float,0><int,int,float>
_TEXT	ENDS
; Function compile flags: /Odtp /RTCsu
; File C:\Users\ksart\OneDrive\Desktop\FlappyBird\libraries\external\glm\glm\detail\type_vec3.inl
;	COMDAT ??$?0HMH@?$tvec3@M$0A@@glm@@QEAA@HMH@Z
_TEXT	SEGMENT
this$ = 16
a$ = 24
b$ = 32
c$ = 40
??$?0HMH@?$tvec3@M$0A@@glm@@QEAA@HMH@Z PROC		; glm::tvec3<float,0>::tvec3<float,0><int,float,int>, COMDAT

; 80   : 	{}

$LN3:
	mov	DWORD PTR [rsp+32], r9d
	movss	DWORD PTR [rsp+24], xmm2
	mov	DWORD PTR [rsp+16], edx
	mov	QWORD PTR [rsp+8], rcx
	push	rdi

; 77   : 		x(static_cast<T>(a)),

	cvtsi2ss xmm0, DWORD PTR a$[rsp]
	mov	rax, QWORD PTR this$[rsp]
	movss	DWORD PTR [rax], xmm0

; 78   : 		y(static_cast<T>(b)),

	mov	rax, QWORD PTR this$[rsp]
	movss	xmm0, DWORD PTR b$[rsp]
	movss	DWORD PTR [rax+4], xmm0

; 79   : 		z(static_cast<T>(c))

	cvtsi2ss xmm0, DWORD PTR c$[rsp]
	mov	rax, QWORD PTR this$[rsp]
	movss	DWORD PTR [rax+8], xmm0

; 80   : 	{}

	mov	rax, QWORD PTR this$[rsp]
	pop	rdi
	ret	0
??$?0HMH@?$tvec3@M$0A@@glm@@QEAA@HMH@Z ENDP		; glm::tvec3<float,0>::tvec3<float,0><int,float,int>
_TEXT	ENDS
; Function compile flags: /Odtp /RTCsu
; File C:\Users\ksart\OneDrive\Desktop\FlappyBird\libraries\external\glm\glm\detail\type_vec3.inl
;	COMDAT ??$?0MHH@?$tvec3@M$0A@@glm@@QEAA@MHH@Z
_TEXT	SEGMENT
this$ = 16
a$ = 24
b$ = 32
c$ = 40
??$?0MHH@?$tvec3@M$0A@@glm@@QEAA@MHH@Z PROC		; glm::tvec3<float,0>::tvec3<float,0><float,int,int>, COMDAT

; 80   : 	{}

$LN3:
	mov	DWORD PTR [rsp+32], r9d
	mov	DWORD PTR [rsp+24], r8d
	movss	DWORD PTR [rsp+16], xmm1
	mov	QWORD PTR [rsp+8], rcx
	push	rdi

; 77   : 		x(static_cast<T>(a)),

	mov	rax, QWORD PTR this$[rsp]
	movss	xmm0, DWORD PTR a$[rsp]
	movss	DWORD PTR [rax], xmm0

; 78   : 		y(static_cast<T>(b)),

	cvtsi2ss xmm0, DWORD PTR b$[rsp]
	mov	rax, QWORD PTR this$[rsp]
	movss	DWORD PTR [rax+4], xmm0

; 79   : 		z(static_cast<T>(c))

	cvtsi2ss xmm0, DWORD PTR c$[rsp]
	mov	rax, QWORD PTR this$[rsp]
	movss	DWORD PTR [rax+8], xmm0

; 80   : 	{}

	mov	rax, QWORD PTR this$[rsp]
	pop	rdi
	ret	0
??$?0MHH@?$tvec3@M$0A@@glm@@QEAA@MHH@Z ENDP		; glm::tvec3<float,0>::tvec3<float,0><float,int,int>
_TEXT	ENDS
; Function compile flags: /Odtp /RTCsu
; File C:\Users\ksart\OneDrive\Desktop\FlappyBird\libraries\external\glm\glm\detail\type_vec2.inl
;	COMDAT ??$?0M$0A@@?$tvec2@M$0A@@glm@@QEAA@AEBU?$tvec4@M$0A@@1@@Z
_TEXT	SEGMENT
this$ = 16
v$ = 24
??$?0M$0A@@?$tvec2@M$0A@@glm@@QEAA@AEBU?$tvec4@M$0A@@1@@Z PROC ; glm::tvec2<float,0>::tvec2<float,0><float,0>, COMDAT

; 96   : 	{}

$LN3:
	mov	QWORD PTR [rsp+16], rdx
	mov	QWORD PTR [rsp+8], rcx
	push	rdi

; 94   : 		: x(static_cast<T>(v.x))

	mov	rax, QWORD PTR this$[rsp]
	mov	rcx, QWORD PTR v$[rsp]
	movss	xmm0, DWORD PTR [rcx]
	movss	DWORD PTR [rax], xmm0

; 95   : 		, y(static_cast<T>(v.y))

	mov	rax, QWORD PTR this$[rsp]
	mov	rcx, QWORD PTR v$[rsp]
	movss	xmm0, DWORD PTR [rcx+4]
	movss	DWORD PTR [rax+4], xmm0

; 96   : 	{}

	mov	rax, QWORD PTR this$[rsp]
	pop	rdi
	ret	0
??$?0M$0A@@?$tvec2@M$0A@@glm@@QEAA@AEBU?$tvec4@M$0A@@1@@Z ENDP ; glm::tvec2<float,0>::tvec2<float,0><float,0>
_TEXT	ENDS
; Function compile flags: /Odtp /RTCsu
; File C:\Users\ksart\OneDrive\Desktop\FlappyBird\libraries\external\glm\glm\detail\type_vec2.inl
;	COMDAT ??$?0M$0A@@?$tvec2@M$0A@@glm@@QEAA@AEBU?$tvec3@M$0A@@1@@Z
_TEXT	SEGMENT
this$ = 16
v$ = 24
??$?0M$0A@@?$tvec2@M$0A@@glm@@QEAA@AEBU?$tvec3@M$0A@@1@@Z PROC ; glm::tvec2<float,0>::tvec2<float,0><float,0>, COMDAT

; 89   : 	{}

$LN3:
	mov	QWORD PTR [rsp+16], rdx
	mov	QWORD PTR [rsp+8], rcx
	push	rdi

; 87   : 		: x(static_cast<T>(v.x))

	mov	rax, QWORD PTR this$[rsp]
	mov	rcx, QWORD PTR v$[rsp]
	movss	xmm0, DWORD PTR [rcx]
	movss	DWORD PTR [rax], xmm0

; 88   : 		, y(static_cast<T>(v.y))

	mov	rax, QWORD PTR this$[rsp]
	mov	rcx, QWORD PTR v$[rsp]
	movss	xmm0, DWORD PTR [rcx+4]
	movss	DWORD PTR [rax+4], xmm0

; 89   : 	{}

	mov	rax, QWORD PTR this$[rsp]
	pop	rdi
	ret	0
??$?0M$0A@@?$tvec2@M$0A@@glm@@QEAA@AEBU?$tvec3@M$0A@@1@@Z ENDP ; glm::tvec2<float,0>::tvec2<float,0><float,0>
_TEXT	ENDS
; Function compile flags: /Odtp /RTCsu
; File C:\Program Files\Microsoft Visual Studio\2022\Community\VC\Tools\MSVC\14.32.31326\include\utility
;	COMDAT ??$min@_K@std@@YAAEB_KAEB_K0@Z
_TEXT	SEGMENT
$T1 = 0
tv65 = 8
_Left$ = 32
_Right$ = 40
??$min@_K@std@@YAAEB_KAEB_K0@Z PROC			; std::min<unsigned __int64>, COMDAT

; 64   :     (min) (const _Ty& _Left, const _Ty& _Right) noexcept(noexcept(_Right < _Left)) /* strengthened */ {

$LN5:
	mov	QWORD PTR [rsp+16], rdx
	mov	QWORD PTR [rsp+8], rcx
	push	rdi
	sub	rsp, 16

; 65   :     // return smaller of _Left and _Right
; 66   :     return _Right < _Left ? _Right : _Left;

	mov	rax, QWORD PTR _Right$[rsp]
	mov	rcx, QWORD PTR _Left$[rsp]
	mov	rcx, QWORD PTR [rcx]
	cmp	QWORD PTR [rax], rcx
	jae	SHORT $LN3@min
	mov	rax, QWORD PTR _Right$[rsp]
	mov	QWORD PTR tv65[rsp], rax
	jmp	SHORT $LN4@min
$LN3@min:
	mov	rax, QWORD PTR _Left$[rsp]
	mov	QWORD PTR tv65[rsp], rax
$LN4@min:
	mov	rax, QWORD PTR tv65[rsp]
	mov	QWORD PTR $T1[rsp], rax
	mov	rax, QWORD PTR $T1[rsp]

; 67   : }

	add	rsp, 16
	pop	rdi
	ret	0
??$min@_K@std@@YAAEB_KAEB_K0@Z ENDP			; std::min<unsigned __int64>
_TEXT	ENDS
; Function compile flags: /Odtp /RTCsu
; File C:\Program Files\Microsoft Visual Studio\2022\Community\VC\Tools\MSVC\14.32.31326\include\xmemory
;	COMDAT ??$_Allocate@$0BA@U_Default_allocate_traits@std@@$0A@@std@@YAPEAX_K@Z
_TEXT	SEGMENT
_Bytes$ = 48
??$_Allocate@$0BA@U_Default_allocate_traits@std@@$0A@@std@@YAPEAX_K@Z PROC ; std::_Allocate<16,std::_Default_allocate_traits,0>, COMDAT

; 221  : __declspec(allocator) _CONSTEXPR20 void* _Allocate(const size_t _Bytes) {

$LN5:
	mov	QWORD PTR [rsp+8], rcx
	push	rdi
	sub	rsp, 32					; 00000020H

; 222  :     // allocate _Bytes when !_HAS_ALIGNED_NEW || _Align <= __STDCPP_DEFAULT_NEW_ALIGNMENT__
; 223  : #if defined(_M_IX86) || defined(_M_X64)
; 224  : #if _HAS_CXX20 // TRANSITION, GH-1532
; 225  :     if (!_STD is_constant_evaluated())
; 226  : #endif // _HAS_CXX20
; 227  :     {
; 228  :         if (_Bytes >= _Big_allocation_threshold) { // boost the alignment of big allocations to help autovectorization

	cmp	QWORD PTR _Bytes$[rsp], 4096		; 00001000H
	jb	SHORT $LN2@Allocate

; 229  :             return _Allocate_manually_vector_aligned<_Traits>(_Bytes);

	mov	rcx, QWORD PTR _Bytes$[rsp]
	call	??$_Allocate_manually_vector_aligned@U_Default_allocate_traits@std@@@std@@YAPEAX_K@Z ; std::_Allocate_manually_vector_aligned<std::_Default_allocate_traits>
	jmp	SHORT $LN1@Allocate
$LN2@Allocate:

; 230  :         }
; 231  :     }
; 232  : #endif // defined(_M_IX86) || defined(_M_X64)
; 233  : 
; 234  :     if (_Bytes != 0) {

	cmp	QWORD PTR _Bytes$[rsp], 0
	je	SHORT $LN3@Allocate

; 235  :         return _Traits::_Allocate(_Bytes);

	mov	rcx, QWORD PTR _Bytes$[rsp]
	call	?_Allocate@_Default_allocate_traits@std@@SAPEAX_K@Z ; std::_Default_allocate_traits::_Allocate
	jmp	SHORT $LN1@Allocate
$LN3@Allocate:

; 236  :     }
; 237  : 
; 238  :     return nullptr;

	xor	eax, eax
$LN1@Allocate:

; 239  : }

	add	rsp, 32					; 00000020H
	pop	rdi
	ret	0
??$_Allocate@$0BA@U_Default_allocate_traits@std@@$0A@@std@@YAPEAX_K@Z ENDP ; std::_Allocate<16,std::_Default_allocate_traits,0>
_TEXT	ENDS
; Function compile flags: /Odtp /RTCsu
; File C:\Program Files\Microsoft Visual Studio\2022\Community\VC\Tools\MSVC\14.32.31326\include\xmemory
;	COMDAT ??$_Get_size_of_n@$0BA@@std@@YA_K_K@Z
_TEXT	SEGMENT
_Overflow_is_possible$ = 32
_Max_possible$1 = 40
_Count$ = 64
??$_Get_size_of_n@$0BA@@std@@YA_K_K@Z PROC		; std::_Get_size_of_n<16>, COMDAT

; 55   : _NODISCARD constexpr size_t _Get_size_of_n(const size_t _Count) {

$LN4:
	mov	QWORD PTR [rsp+8], rcx
	push	rdi
	sub	rsp, 48					; 00000030H

; 56   :     constexpr bool _Overflow_is_possible = _Ty_size > 1;

	mov	BYTE PTR _Overflow_is_possible$[rsp], 1

; 57   : 
; 58   :     if constexpr (_Overflow_is_possible) {
; 59   :         constexpr size_t _Max_possible = static_cast<size_t>(-1) / _Ty_size;

	mov	rax, 1152921504606846975		; 0fffffffffffffffH
	mov	QWORD PTR _Max_possible$1[rsp], rax

; 60   :         if (_Count > _Max_possible) {

	mov	rax, 1152921504606846975		; 0fffffffffffffffH
	cmp	QWORD PTR _Count$[rsp], rax
	jbe	SHORT $LN2@Get_size_o

; 61   :             _Throw_bad_array_new_length(); // multiply overflow

	call	?_Throw_bad_array_new_length@std@@YAXXZ	; std::_Throw_bad_array_new_length
$LN2@Get_size_o:

; 62   :         }
; 63   :     }
; 64   : 
; 65   :     return _Count * _Ty_size;

	imul	rax, QWORD PTR _Count$[rsp], 16
$LN3@Get_size_o:

; 66   : }

	add	rsp, 48					; 00000030H
	pop	rdi
	ret	0
??$_Get_size_of_n@$0BA@@std@@YA_K_K@Z ENDP		; std::_Get_size_of_n<16>
_TEXT	ENDS
; Function compile flags: /Odtp /RTCsu
; File C:\Program Files\Microsoft Visual Studio\2022\Community\VC\Tools\MSVC\14.32.31326\include\xutility
;	COMDAT ??$_Construct_in_place@U_Container_proxy@std@@PEAU_Container_base12@2@@std@@YAXAEAU_Container_proxy@0@$$QEAPEAU_Container_base12@0@@Z
_TEXT	SEGMENT
$T1 = 32
_Obj$ = 64
<_Args_0>$ = 72
??$_Construct_in_place@U_Container_proxy@std@@PEAU_Container_base12@2@@std@@YAXAEAU_Container_proxy@0@$$QEAPEAU_Container_base12@0@@Z PROC ; std::_Construct_in_place<std::_Container_proxy,std::_Container_base12 *>, COMDAT

; 142  :     is_nothrow_constructible_v<_Ty, _Types...>) {

$LN3:
	mov	QWORD PTR [rsp+16], rdx
	mov	QWORD PTR [rsp+8], rcx
	push	rdi
	sub	rsp, 48					; 00000030H

; 143  : #if _HAS_CXX20
; 144  :     if (_STD is_constant_evaluated()) {
; 145  :         _STD construct_at(_STD addressof(_Obj), _STD forward<_Types>(_Args)...);
; 146  :     } else
; 147  : #endif // _HAS_CXX20
; 148  :     {
; 149  :         ::new (_Voidify_iter(_STD addressof(_Obj))) _Ty(_STD forward<_Types>(_Args)...);

	mov	rcx, QWORD PTR _Obj$[rsp]
	call	??$addressof@U_Container_proxy@std@@@std@@YAPEAU_Container_proxy@0@AEAU10@@Z ; std::addressof<std::_Container_proxy>
	mov	rcx, rax
	call	??$_Voidify_iter@PEAU_Container_proxy@std@@@std@@YAPEAXPEAU_Container_proxy@0@@Z ; std::_Voidify_iter<std::_Container_proxy *>
	mov	rdx, rax
	mov	ecx, 16
	call	??2@YAPEAX_KPEAX@Z			; operator new
	mov	QWORD PTR $T1[rsp], rax
	mov	rcx, QWORD PTR <_Args_0>$[rsp]
	call	??$forward@PEAU_Container_base12@std@@@std@@YA$$QEAPEAU_Container_base12@0@AEAPEAU10@@Z ; std::forward<std::_Container_base12 *>
	mov	rdx, QWORD PTR [rax]
	mov	rcx, QWORD PTR $T1[rsp]
	call	??0_Container_proxy@std@@QEAA@PEAU_Container_base12@1@@Z ; std::_Container_proxy::_Container_proxy

; 150  :     }
; 151  : }

	add	rsp, 48					; 00000030H
	pop	rdi
	ret	0
??$_Construct_in_place@U_Container_proxy@std@@PEAU_Container_base12@2@@std@@YAXAEAU_Container_proxy@0@$$QEAPEAU_Container_base12@0@@Z ENDP ; std::_Construct_in_place<std::_Container_proxy,std::_Container_base12 *>
_TEXT	ENDS
; Function compile flags: /Odtp /RTCsu
; File C:\Program Files\Microsoft Visual Studio\2022\Community\VC\Tools\MSVC\14.32.31326\include\xstddef
;	COMDAT ??$addressof@U_Container_base12@std@@@std@@YAPEAU_Container_base12@0@AEAU10@@Z
_TEXT	SEGMENT
_Val$ = 16
??$addressof@U_Container_base12@std@@@std@@YAPEAU_Container_base12@0@AEAU10@@Z PROC ; std::addressof<std::_Container_base12>, COMDAT

; 252  : _NODISCARD constexpr _Ty* addressof(_Ty& _Val) noexcept {

$LN3:
	mov	QWORD PTR [rsp+8], rcx
	push	rdi

; 253  :     return __builtin_addressof(_Val);

	mov	rax, QWORD PTR _Val$[rsp]

; 254  : }

	pop	rdi
	ret	0
??$addressof@U_Container_base12@std@@@std@@YAPEAU_Container_base12@0@AEAU10@@Z ENDP ; std::addressof<std::_Container_base12>
_TEXT	ENDS
; Function compile flags: /Odtp /RTCsu
; File C:\Program Files\Microsoft Visual Studio\2022\Community\VC\Tools\MSVC\14.32.31326\include\xstddef
;	COMDAT ??$_Unfancy@U_Container_proxy@std@@@std@@YAPEAU_Container_proxy@0@PEAU10@@Z
_TEXT	SEGMENT
_Ptr$ = 16
??$_Unfancy@U_Container_proxy@std@@@std@@YAPEAU_Container_proxy@0@PEAU10@@Z PROC ; std::_Unfancy<std::_Container_proxy>, COMDAT

; 265  : _NODISCARD constexpr _Ty* _Unfancy(_Ty* _Ptr) noexcept { // do nothing for plain pointers

$LN3:
	mov	QWORD PTR [rsp+8], rcx
	push	rdi

; 266  :     return _Ptr;

	mov	rax, QWORD PTR _Ptr$[rsp]

; 267  : }

	pop	rdi
	ret	0
??$_Unfancy@U_Container_proxy@std@@@std@@YAPEAU_Container_proxy@0@PEAU10@@Z ENDP ; std::_Unfancy<std::_Container_proxy>
_TEXT	ENDS
; Function compile flags: /Odtp /RTCsu
; File C:\Program Files\Microsoft Visual Studio\2022\Community\VC\Tools\MSVC\14.32.31326\include\xmemory
;	COMDAT ??$_Uninitialized_copy@PEBU?$tmat2x2@M$0A@@glm@@V?$allocator@U?$tmat2x2@M$0A@@glm@@@std@@@std@@YAPEAU?$tmat2x2@M$0A@@glm@@QEBU12@0PEAU12@AEAV?$allocator@U?$tmat2x2@M$0A@@glm@@@0@@Z
_TEXT	SEGMENT
_UFirst$ = 32
_ULast$ = 40
_Backout$ = 56
$T4 = 88
_First$ = 112
_Last$ = 120
_Dest$ = 128
_Al$ = 136
??$_Uninitialized_copy@PEBU?$tmat2x2@M$0A@@glm@@V?$allocator@U?$tmat2x2@M$0A@@glm@@@std@@@std@@YAPEAU?$tmat2x2@M$0A@@glm@@QEBU12@0PEAU12@AEAV?$allocator@U?$tmat2x2@M$0A@@glm@@@0@@Z PROC ; std::_Uninitialized_copy<glm::tmat2x2<float,0> const *,std::allocator<glm::tmat2x2<float,0> > >, COMDAT

; 1673 :     const _InIt _First, const _InIt _Last, _Alloc_ptr_t<_Alloc> _Dest, _Alloc& _Al) {

$LN7:
	mov	QWORD PTR [rsp+32], r9
	mov	QWORD PTR [rsp+24], r8
	mov	QWORD PTR [rsp+16], rdx
	mov	QWORD PTR [rsp+8], rcx
	push	rdi
	sub	rsp, 96					; 00000060H
	lea	rdi, QWORD PTR [rsp+32]
	mov	ecx, 16
	mov	eax, -858993460				; ccccccccH
	rep stosd
	mov	rcx, QWORD PTR [rsp+112]

; 1674 :     // copy [_First, _Last) to raw _Dest, using _Al
; 1675 :     // note: only called internally from elsewhere in the STL
; 1676 :     using _Ptrval = typename _Alloc::value_type*;
; 1677 : 
; 1678 :     auto _UFirst      = _Get_unwrapped(_First);

	lea	rcx, QWORD PTR _First$[rsp]
	call	??$_Get_unwrapped@AEBQEBU?$tmat2x2@M$0A@@glm@@@std@@YA?A_TAEBQEBU?$tmat2x2@M$0A@@glm@@@Z ; std::_Get_unwrapped<glm::tmat2x2<float,0> const * const &>
	mov	QWORD PTR _UFirst$[rsp], rax

; 1679 :     const auto _ULast = _Get_unwrapped(_Last);

	lea	rcx, QWORD PTR _Last$[rsp]
	call	??$_Get_unwrapped@AEBQEBU?$tmat2x2@M$0A@@glm@@@std@@YA?A_TAEBQEBU?$tmat2x2@M$0A@@glm@@@Z ; std::_Get_unwrapped<glm::tmat2x2<float,0> const * const &>
	mov	QWORD PTR _ULast$[rsp], rax

; 1680 : 
; 1681 :     if constexpr (conjunction_v<bool_constant<_Iter_copy_cat<decltype(_UFirst), _Ptrval>::_Bitcopy_constructible>,
; 1682 :                       _Uses_default_construct<_Alloc, _Ptrval, decltype(*_UFirst)>>) {
; 1683 : #if _HAS_CXX20
; 1684 :         if (!_STD is_constant_evaluated())
; 1685 : #endif // _HAS_CXX20
; 1686 :         {
; 1687 :             _Copy_memmove(_UFirst, _ULast, _Unfancy(_Dest));

	mov	rcx, QWORD PTR _Dest$[rsp]
	call	??$_Unfancy@U?$tmat2x2@M$0A@@glm@@@std@@YAPEAU?$tmat2x2@M$0A@@glm@@PEAU12@@Z ; std::_Unfancy<glm::tmat2x2<float,0> >
	mov	r8, rax
	mov	rdx, QWORD PTR _ULast$[rsp]
	mov	rcx, QWORD PTR _UFirst$[rsp]
	call	??$_Copy_memmove@PEBU?$tmat2x2@M$0A@@glm@@PEAU12@@std@@YAPEAU?$tmat2x2@M$0A@@glm@@PEBU12@0PEAU12@@Z ; std::_Copy_memmove<glm::tmat2x2<float,0> const *,glm::tmat2x2<float,0> *>

; 1688 :             _Dest += _ULast - _UFirst;

	mov	rax, QWORD PTR _UFirst$[rsp]
	mov	rcx, QWORD PTR _ULast$[rsp]
	sub	rcx, rax
	mov	rax, rcx
	sar	rax, 4
	imul	rax, rax, 16
	mov	rcx, QWORD PTR _Dest$[rsp]
	add	rcx, rax
	mov	rax, rcx
	mov	QWORD PTR _Dest$[rsp], rax

; 1689 :             return _Dest;

	mov	rax, QWORD PTR _Dest$[rsp]
	jmp	SHORT $LN1@Uninitiali

; 1690 :         }
; 1691 :     }
; 1692 : 
; 1693 :     _Uninitialized_backout_al<_Alloc> _Backout{_Dest, _Al};

	mov	r8, QWORD PTR _Al$[rsp]
	mov	rdx, QWORD PTR _Dest$[rsp]
	lea	rcx, QWORD PTR _Backout$[rsp]
	call	??0?$_Uninitialized_backout_al@V?$allocator@U?$tmat2x2@M$0A@@glm@@@std@@@std@@QEAA@PEAU?$tmat2x2@M$0A@@glm@@AEAV?$allocator@U?$tmat2x2@M$0A@@glm@@@1@@Z ; std::_Uninitialized_backout_al<std::allocator<glm::tmat2x2<float,0> > >::_Uninitialized_backout_al<std::allocator<glm::tmat2x2<float,0> > >

; 1694 :     for (; _UFirst != _ULast; ++_UFirst) {

	jmp	SHORT $LN4@Uninitiali
$LN2@Uninitiali:
	mov	rax, QWORD PTR _UFirst$[rsp]
	add	rax, 16
	mov	QWORD PTR _UFirst$[rsp], rax
$LN4@Uninitiali:
	mov	rax, QWORD PTR _ULast$[rsp]
	cmp	QWORD PTR _UFirst$[rsp], rax
	je	SHORT $LN3@Uninitiali

; 1695 :         _Backout._Emplace_back(*_UFirst);

	mov	rdx, QWORD PTR _UFirst$[rsp]
	lea	rcx, QWORD PTR _Backout$[rsp]
	call	??$_Emplace_back@AEBU?$tmat2x2@M$0A@@glm@@@?$_Uninitialized_backout_al@V?$allocator@U?$tmat2x2@M$0A@@glm@@@std@@@std@@QEAAXAEBU?$tmat2x2@M$0A@@glm@@@Z ; std::_Uninitialized_backout_al<std::allocator<glm::tmat2x2<float,0> > >::_Emplace_back<glm::tmat2x2<float,0> const &>

; 1696 :     }

	jmp	SHORT $LN2@Uninitiali
$LN3@Uninitiali:

; 1697 : 
; 1698 :     return _Backout._Release();

	lea	rcx, QWORD PTR _Backout$[rsp]
	call	?_Release@?$_Uninitialized_backout_al@V?$allocator@U?$tmat2x2@M$0A@@glm@@@std@@@std@@QEAAPEAU?$tmat2x2@M$0A@@glm@@XZ ; std::_Uninitialized_backout_al<std::allocator<glm::tmat2x2<float,0> > >::_Release
	mov	QWORD PTR $T4[rsp], rax
	lea	rcx, QWORD PTR _Backout$[rsp]
	call	??1?$_Uninitialized_backout_al@V?$allocator@U?$tmat2x2@M$0A@@glm@@@std@@@std@@QEAA@XZ ; std::_Uninitialized_backout_al<std::allocator<glm::tmat2x2<float,0> > >::~_Uninitialized_backout_al<std::allocator<glm::tmat2x2<float,0> > >
	mov	rax, QWORD PTR $T4[rsp]
$LN1@Uninitiali:

; 1699 : }

	mov	rdi, rax
	mov	rcx, rsp
	lea	rdx, OFFSET FLAT:??$_Uninitialized_copy@PEBU?$tmat2x2@M$0A@@glm@@V?$allocator@U?$tmat2x2@M$0A@@glm@@@std@@@std@@YAPEAU?$tmat2x2@M$0A@@glm@@QEBU12@0PEAU12@AEAV?$allocator@U?$tmat2x2@M$0A@@glm@@@0@@Z$rtcFrameData
	call	_RTC_CheckStackVars
	mov	rax, rdi
	add	rsp, 96					; 00000060H
	pop	rdi
	ret	0
??$_Uninitialized_copy@PEBU?$tmat2x2@M$0A@@glm@@V?$allocator@U?$tmat2x2@M$0A@@glm@@@std@@@std@@YAPEAU?$tmat2x2@M$0A@@glm@@QEBU12@0PEAU12@AEAV?$allocator@U?$tmat2x2@M$0A@@glm@@@0@@Z ENDP ; std::_Uninitialized_copy<glm::tmat2x2<float,0> const *,std::allocator<glm::tmat2x2<float,0> > >
_TEXT	ENDS
; Function compile flags: /Odtp /RTCsu
;	COMDAT text$x
text$x	SEGMENT
_UFirst$ = 32
_ULast$ = 40
_Backout$ = 56
$T4 = 88
_First$ = 112
_Last$ = 120
_Dest$ = 128
_Al$ = 136
?dtor$0@?0???$_Uninitialized_copy@PEBU?$tmat2x2@M$0A@@glm@@V?$allocator@U?$tmat2x2@M$0A@@glm@@@std@@@std@@YAPEAU?$tmat2x2@M$0A@@glm@@QEBU12@0PEAU12@AEAV?$allocator@U?$tmat2x2@M$0A@@glm@@@0@@Z@4HA PROC ; `std::_Uninitialized_copy<glm::tmat2x2<float,0> const *,std::allocator<glm::tmat2x2<float,0> > >'::`1'::dtor$0
	mov	QWORD PTR [rsp+8], rcx
	mov	QWORD PTR [rsp+16], rdx
	push	rbp
	push	rdi
	sub	rsp, 40					; 00000028H
	mov	rbp, rdx
	lea	rcx, QWORD PTR _Backout$[rbp]
	call	??1?$_Uninitialized_backout_al@V?$allocator@U?$tmat2x2@M$0A@@glm@@@std@@@std@@QEAA@XZ ; std::_Uninitialized_backout_al<std::allocator<glm::tmat2x2<float,0> > >::~_Uninitialized_backout_al<std::allocator<glm::tmat2x2<float,0> > >
	add	rsp, 40					; 00000028H
	pop	rdi
	pop	rbp
	ret	0
?dtor$0@?0???$_Uninitialized_copy@PEBU?$tmat2x2@M$0A@@glm@@V?$allocator@U?$tmat2x2@M$0A@@glm@@@std@@@std@@YAPEAU?$tmat2x2@M$0A@@glm@@QEBU12@0PEAU12@AEAV?$allocator@U?$tmat2x2@M$0A@@glm@@@0@@Z@4HA ENDP ; `std::_Uninitialized_copy<glm::tmat2x2<float,0> const *,std::allocator<glm::tmat2x2<float,0> > >'::`1'::dtor$0
text$x	ENDS
; Function compile flags: /Odtp /RTCsu
; File C:\Program Files\Microsoft Visual Studio\2022\Community\VC\Tools\MSVC\14.32.31326\include\type_traits
;	COMDAT ??$forward@PEBU?$tmat2x2@M$0A@@glm@@@std@@YA$$QEAPEBU?$tmat2x2@M$0A@@glm@@AEAPEBU12@@Z
_TEXT	SEGMENT
_Arg$ = 16
??$forward@PEBU?$tmat2x2@M$0A@@glm@@@std@@YA$$QEAPEBU?$tmat2x2@M$0A@@glm@@AEAPEBU12@@Z PROC ; std::forward<glm::tmat2x2<float,0> const *>, COMDAT

; 1341 :     remove_reference_t<_Ty>& _Arg) noexcept { // forward an lvalue as either an lvalue or an rvalue

$LN3:
	mov	QWORD PTR [rsp+8], rcx
	push	rdi

; 1342 :     return static_cast<_Ty&&>(_Arg);

	mov	rax, QWORD PTR _Arg$[rsp]

; 1343 : }

	pop	rdi
	ret	0
??$forward@PEBU?$tmat2x2@M$0A@@glm@@@std@@YA$$QEAPEBU?$tmat2x2@M$0A@@glm@@AEAPEBU12@@Z ENDP ; std::forward<glm::tmat2x2<float,0> const *>
_TEXT	ENDS
; Function compile flags: /Odtp /RTCsu
; File C:\Program Files\Microsoft Visual Studio\2022\Community\VC\Tools\MSVC\14.32.31326\include\xmemory
;	COMDAT ??1?$_Tidy_guard@V?$vector@U?$tmat2x2@M$0A@@glm@@V?$allocator@U?$tmat2x2@M$0A@@glm@@@std@@@std@@@std@@QEAA@XZ
_TEXT	SEGMENT
this$ = 48
??1?$_Tidy_guard@V?$vector@U?$tmat2x2@M$0A@@glm@@V?$allocator@U?$tmat2x2@M$0A@@glm@@@std@@@std@@@std@@QEAA@XZ PROC ; std::_Tidy_guard<std::vector<glm::tmat2x2<float,0>,std::allocator<glm::tmat2x2<float,0> > > >::~_Tidy_guard<std::vector<glm::tmat2x2<float,0>,std::allocator<glm::tmat2x2<float,0> > > >, COMDAT

; 33   :     _CONSTEXPR20 ~_Tidy_guard() {

$LN4:
	mov	QWORD PTR [rsp+8], rcx
	push	rdi
	sub	rsp, 32					; 00000020H

; 34   :         if (_Target) {

	mov	rax, QWORD PTR this$[rsp]
	cmp	QWORD PTR [rax], 0
	je	SHORT $LN2@Tidy_guard

; 35   :             _Target->_Tidy();

	mov	rax, QWORD PTR this$[rsp]
	mov	rcx, QWORD PTR [rax]
	call	?_Tidy@?$vector@U?$tmat2x2@M$0A@@glm@@V?$allocator@U?$tmat2x2@M$0A@@glm@@@std@@@std@@AEAAXXZ ; std::vector<glm::tmat2x2<float,0>,std::allocator<glm::tmat2x2<float,0> > >::_Tidy
$LN2@Tidy_guard:

; 36   :         }
; 37   :     }

	add	rsp, 32					; 00000020H
	pop	rdi
	ret	0
??1?$_Tidy_guard@V?$vector@U?$tmat2x2@M$0A@@glm@@V?$allocator@U?$tmat2x2@M$0A@@glm@@@std@@@std@@@std@@QEAA@XZ ENDP ; std::_Tidy_guard<std::vector<glm::tmat2x2<float,0>,std::allocator<glm::tmat2x2<float,0> > > >::~_Tidy_guard<std::vector<glm::tmat2x2<float,0>,std::allocator<glm::tmat2x2<float,0> > > >
_TEXT	ENDS
; Function compile flags: /Odtp /RTCsu
; File C:\Program Files\Microsoft Visual Studio\2022\Community\VC\Tools\MSVC\14.32.31326\include\xmemory
;	COMDAT ??1?$_Container_proxy_ptr12@V?$allocator@U_Container_proxy@std@@@std@@@std@@QEAA@XZ
_TEXT	SEGMENT
this$ = 48
??1?$_Container_proxy_ptr12@V?$allocator@U_Container_proxy@std@@@std@@@std@@QEAA@XZ PROC ; std::_Container_proxy_ptr12<std::allocator<std::_Container_proxy> >::~_Container_proxy_ptr12<std::allocator<std::_Container_proxy> >, COMDAT

; 1334 :     _CONSTEXPR20 ~_Container_proxy_ptr12() {

$LN4:
	mov	QWORD PTR [rsp+8], rcx
	push	rdi
	sub	rsp, 32					; 00000020H

; 1335 :         if (_Ptr) {

	mov	rax, QWORD PTR this$[rsp]
	cmp	QWORD PTR [rax], 0
	je	SHORT $LN2@Container_

; 1336 :             _Delete_plain_internal(_Al, _Ptr);

	mov	rax, QWORD PTR this$[rsp]
	mov	rdx, QWORD PTR [rax]
	mov	rax, QWORD PTR this$[rsp]
	mov	rcx, QWORD PTR [rax+8]
	call	??$_Delete_plain_internal@V?$allocator@U_Container_proxy@std@@@std@@@std@@YAXAEAV?$allocator@U_Container_proxy@std@@@0@QEAU_Container_proxy@0@@Z ; std::_Delete_plain_internal<std::allocator<std::_Container_proxy> >
$LN2@Container_:

; 1337 :         }
; 1338 :     }

	add	rsp, 32					; 00000020H
	pop	rdi
	ret	0
??1?$_Container_proxy_ptr12@V?$allocator@U_Container_proxy@std@@@std@@@std@@QEAA@XZ ENDP ; std::_Container_proxy_ptr12<std::allocator<std::_Container_proxy> >::~_Container_proxy_ptr12<std::allocator<std::_Container_proxy> >
_TEXT	ENDS
; Function compile flags: /Odtp /RTCsu
; File C:\Program Files\Microsoft Visual Studio\2022\Community\VC\Tools\MSVC\14.32.31326\include\xmemory
;	COMDAT ??0?$_Container_proxy_ptr12@V?$allocator@U_Container_proxy@std@@@std@@@std@@QEAA@AEAV?$allocator@U_Container_proxy@std@@@1@AEAU_Container_base12@1@@Z
_TEXT	SEGMENT
$T1 = 32
this$ = 64
_Al_$ = 72
_Mycont$ = 80
??0?$_Container_proxy_ptr12@V?$allocator@U_Container_proxy@std@@@std@@@std@@QEAA@AEAV?$allocator@U_Container_proxy@std@@@1@AEAU_Container_base12@1@@Z PROC ; std::_Container_proxy_ptr12<std::allocator<std::_Container_proxy> >::_Container_proxy_ptr12<std::allocator<std::_Container_proxy> >, COMDAT

; 1320 :     _CONSTEXPR20 _Container_proxy_ptr12(_Alloc& _Al_, _Container_base12& _Mycont) : _Al(_Al_) {

$LN3:
	mov	QWORD PTR [rsp+24], r8
	mov	QWORD PTR [rsp+16], rdx
	mov	QWORD PTR [rsp+8], rcx
	push	rdi
	sub	rsp, 48					; 00000030H
	mov	rcx, QWORD PTR this$[rsp]
	call	??0_Basic_container_proxy_ptr12@std@@IEAA@XZ ; std::_Basic_container_proxy_ptr12::_Basic_container_proxy_ptr12
	mov	rax, QWORD PTR this$[rsp]
	mov	rcx, QWORD PTR _Al_$[rsp]
	mov	QWORD PTR [rax+8], rcx

; 1321 :         // create a new _Container_proxy pointing at _Mycont
; 1322 :         _Ptr = _Unfancy(_Al_.allocate(1));

	mov	edx, 1
	mov	rcx, QWORD PTR _Al_$[rsp]
	call	?allocate@?$allocator@U_Container_proxy@std@@@std@@QEAAPEAU_Container_proxy@2@_K@Z ; std::allocator<std::_Container_proxy>::allocate
	mov	rcx, rax
	call	??$_Unfancy@U_Container_proxy@std@@@std@@YAPEAU_Container_proxy@0@PEAU10@@Z ; std::_Unfancy<std::_Container_proxy>
	mov	rcx, QWORD PTR this$[rsp]
	mov	QWORD PTR [rcx], rax

; 1323 :         _Construct_in_place(*_Ptr, _STD addressof(_Mycont));

	mov	rcx, QWORD PTR _Mycont$[rsp]
	call	??$addressof@U_Container_base12@std@@@std@@YAPEAU_Container_base12@0@AEAU10@@Z ; std::addressof<std::_Container_base12>
	mov	QWORD PTR $T1[rsp], rax
	lea	rdx, QWORD PTR $T1[rsp]
	mov	rax, QWORD PTR this$[rsp]
	mov	rcx, QWORD PTR [rax]
	call	??$_Construct_in_place@U_Container_proxy@std@@PEAU_Container_base12@2@@std@@YAXAEAU_Container_proxy@0@$$QEAPEAU_Container_base12@0@@Z ; std::_Construct_in_place<std::_Container_proxy,std::_Container_base12 *>

; 1324 :         _Mycont._Myproxy = _Ptr;

	mov	rax, QWORD PTR _Mycont$[rsp]
	mov	rcx, QWORD PTR this$[rsp]
	mov	rcx, QWORD PTR [rcx]
	mov	QWORD PTR [rax], rcx

; 1325 :     }

	mov	rax, QWORD PTR this$[rsp]
	add	rsp, 48					; 00000030H
	pop	rdi
	ret	0
??0?$_Container_proxy_ptr12@V?$allocator@U_Container_proxy@std@@@std@@@std@@QEAA@AEAV?$allocator@U_Container_proxy@std@@@1@AEAU_Container_base12@1@@Z ENDP ; std::_Container_proxy_ptr12<std::allocator<std::_Container_proxy> >::_Container_proxy_ptr12<std::allocator<std::_Container_proxy> >
_TEXT	ENDS
; Function compile flags: /Odtp /RTCsu
; File C:\Program Files\Microsoft Visual Studio\2022\Community\VC\Tools\MSVC\14.32.31326\include\type_traits
;	COMDAT ??$forward@AEBV?$allocator@U?$tmat2x2@M$0A@@glm@@@std@@@std@@YAAEBV?$allocator@U?$tmat2x2@M$0A@@glm@@@0@AEBV10@@Z
_TEXT	SEGMENT
_Arg$ = 16
??$forward@AEBV?$allocator@U?$tmat2x2@M$0A@@glm@@@std@@@std@@YAAEBV?$allocator@U?$tmat2x2@M$0A@@glm@@@0@AEBV10@@Z PROC ; std::forward<std::allocator<glm::tmat2x2<float,0> > const &>, COMDAT

; 1341 :     remove_reference_t<_Ty>& _Arg) noexcept { // forward an lvalue as either an lvalue or an rvalue

$LN3:
	mov	QWORD PTR [rsp+8], rcx
	push	rdi

; 1342 :     return static_cast<_Ty&&>(_Arg);

	mov	rax, QWORD PTR _Arg$[rsp]

; 1343 : }

	pop	rdi
	ret	0
??$forward@AEBV?$allocator@U?$tmat2x2@M$0A@@glm@@@std@@@std@@YAAEBV?$allocator@U?$tmat2x2@M$0A@@glm@@@0@AEBV10@@Z ENDP ; std::forward<std::allocator<glm::tmat2x2<float,0> > const &>
_TEXT	ENDS
; Function compile flags: /Odtp /RTCsu
; File C:\Program Files\Microsoft Visual Studio\2022\Community\VC\Tools\MSVC\14.32.31326\include\xmemory
;	COMDAT ??$_Deallocate_plain@V?$allocator@U_Container_proxy@std@@@std@@@std@@YAXAEAV?$allocator@U_Container_proxy@std@@@0@QEAU_Container_proxy@0@@Z
_TEXT	SEGMENT
_Al$ = 48
_Ptr$ = 56
??$_Deallocate_plain@V?$allocator@U_Container_proxy@std@@@std@@@std@@YAXAEAV?$allocator@U_Container_proxy@std@@@0@QEAU_Container_proxy@0@@Z PROC ; std::_Deallocate_plain<std::allocator<std::_Container_proxy> >, COMDAT

; 972  : _CONSTEXPR20 void _Deallocate_plain(_Alloc& _Al, typename _Alloc::value_type* const _Ptr) noexcept {

$LN3:
	mov	QWORD PTR [rsp+16], rdx
	mov	QWORD PTR [rsp+8], rcx
	push	rdi
	sub	rsp, 32					; 00000020H

; 973  :     // deallocate a plain pointer using an allocator
; 974  :     using _Alloc_traits = allocator_traits<_Alloc>;
; 975  :     if constexpr (is_same_v<_Alloc_ptr_t<_Alloc>, typename _Alloc::value_type*>) {
; 976  :         _Alloc_traits::deallocate(_Al, _Ptr, 1);

	mov	r8d, 1
	mov	rdx, QWORD PTR _Ptr$[rsp]
	mov	rcx, QWORD PTR _Al$[rsp]
	call	?deallocate@?$_Default_allocator_traits@V?$allocator@U_Container_proxy@std@@@std@@@std@@SAXAEAV?$allocator@U_Container_proxy@std@@@2@QEAU_Container_proxy@2@_K@Z ; std::_Default_allocator_traits<std::allocator<std::_Container_proxy> >::deallocate
	npad	1

; 977  :     } else {
; 978  :         using _Ptr_traits = pointer_traits<_Alloc_ptr_t<_Alloc>>;
; 979  :         _Alloc_traits::deallocate(_Al, _Ptr_traits::pointer_to(*_Ptr), 1);
; 980  :     }
; 981  : }

	add	rsp, 32					; 00000020H
	pop	rdi
	ret	0
??$_Deallocate_plain@V?$allocator@U_Container_proxy@std@@@std@@@std@@YAXAEAV?$allocator@U_Container_proxy@std@@@0@QEAU_Container_proxy@0@@Z ENDP ; std::_Deallocate_plain<std::allocator<std::_Container_proxy> >
_TEXT	ENDS
; Function compile flags: /Odtp /RTCsu
; File C:\Users\ksart\OneDrive\Desktop\FlappyBird\libraries\external\glm\glm\detail\type_mat2x2.inl
;	COMDAT ??$?_0M@?$tmat2x2@M$0A@@glm@@QEAAAEAU01@AEBU01@@Z
_TEXT	SEGMENT
$T1 = 32
__$ArrayPad$ = 56
this$ = 80
m$ = 88
??$?_0M@?$tmat2x2@M$0A@@glm@@QEAAAEAU01@AEBU01@@Z PROC	; glm::tmat2x2<float,0>::operator/=<float>, COMDAT

; 256  : 	{

$LN3:
	mov	QWORD PTR [rsp+16], rdx
	mov	QWORD PTR [rsp+8], rcx
	push	rdi
	sub	rsp, 64					; 00000040H
	mov	rax, QWORD PTR __security_cookie
	xor	rax, rsp
	mov	QWORD PTR __$ArrayPad$[rsp], rax

; 257  : 		return *this *= inverse(m);

	mov	rdx, QWORD PTR m$[rsp]
	lea	rcx, QWORD PTR $T1[rsp]
	call	??$inverse@M$0A@Utmat2x2@glm@@@glm@@YA?AU?$tmat2x2@M$0A@@0@AEBU10@@Z ; glm::inverse<float,0,glm::tmat2x2>
	mov	rdx, rax
	mov	rcx, QWORD PTR this$[rsp]
	call	??$?XM@?$tmat2x2@M$0A@@glm@@QEAAAEAU01@AEBU01@@Z ; glm::tmat2x2<float,0>::operator*=<float>

; 258  : 	}

	mov	rcx, QWORD PTR __$ArrayPad$[rsp]
	xor	rcx, rsp
	call	__security_check_cookie
	add	rsp, 64					; 00000040H
	pop	rdi
	ret	0
??$?_0M@?$tmat2x2@M$0A@@glm@@QEAAAEAU01@AEBU01@@Z ENDP	; glm::tmat2x2<float,0>::operator/=<float>
_TEXT	ENDS
; Function compile flags: /Odtp /RTCsu
; File C:\Users\ksart\OneDrive\Desktop\FlappyBird\libraries\external\glm\glm\detail\func_vector_relational.inl
;	COMDAT ??$lessThan@M$0A@Utvec2@glm@@@glm@@YA?AU?$tvec2@_N$0A@@0@AEBU?$tvec2@M$0A@@0@0@Z
_TEXT	SEGMENT
Result$ = 36
i$4 = 52
tv64 = 56
tv80 = 64
tv86 = 72
__$ReturnUdt$ = 96
x$ = 104
y$ = 112
??$lessThan@M$0A@Utvec2@glm@@@glm@@YA?AU?$tvec2@_N$0A@@0@AEBU?$tvec2@M$0A@@0@0@Z PROC ; glm::lessThan<float,0,glm::tvec2>, COMDAT

; 10   : 	{

$LN9:
	mov	QWORD PTR [rsp+24], r8
	mov	QWORD PTR [rsp+16], rdx
	mov	QWORD PTR [rsp+8], rcx
	push	rdi
	sub	rsp, 80					; 00000050H
	lea	rdi, QWORD PTR [rsp+32]
	mov	ecx, 12
	mov	eax, -858993460				; ccccccccH
	rep stosd
	mov	rcx, QWORD PTR [rsp+96]

; 11   : 		assert(x.length() == y.length());

	call	?length@?$tvec2@M$0A@@glm@@SAHXZ	; glm::tvec2<float,0>::length
	mov	DWORD PTR tv64[rsp], eax
	call	?length@?$tvec2@M$0A@@glm@@SAHXZ	; glm::tvec2<float,0>::length
	mov	ecx, DWORD PTR tv64[rsp]
	cmp	ecx, eax
	je	SHORT $LN6@lessThan
	mov	r8d, 11
	lea	rdx, OFFSET FLAT:??_C@_1NA@OPABFNEN@?$AAC?$AA?3?$AA?2?$AAU?$AAs?$AAe?$AAr?$AAs?$AA?2?$AAk?$AAs?$AAa?$AAr?$AAt?$AA?2@
	lea	rcx, OFFSET FLAT:??_C@_1DC@HHLCGOLC@?$AAx?$AA?4?$AAl?$AAe?$AAn?$AAg?$AAt?$AAh?$AA?$CI?$AA?$CJ?$AA?5?$AA?$DN?$AA?$DN?$AA?5?$AAy@
	call	QWORD PTR __imp__wassert
	xor	eax, eax
$LN6@lessThan:

; 12   : 
; 13   : 		vecType<bool, P> Result(uninitialize);

	xor	edx, edx
	lea	rcx, QWORD PTR Result$[rsp]
	call	??0?$tvec2@_N$0A@@glm@@QEAA@W4ctor@1@@Z	; glm::tvec2<bool,0>::tvec2<bool,0>

; 14   : 		for(length_t i = 0; i < x.length(); ++i)

	mov	DWORD PTR i$4[rsp], 0
	jmp	SHORT $LN4@lessThan
$LN2@lessThan:
	mov	eax, DWORD PTR i$4[rsp]
	inc	eax
	mov	DWORD PTR i$4[rsp], eax
$LN4@lessThan:
	call	?length@?$tvec2@M$0A@@glm@@SAHXZ	; glm::tvec2<float,0>::length
	cmp	DWORD PTR i$4[rsp], eax
	jge	SHORT $LN3@lessThan

; 15   : 			Result[i] = x[i] < y[i];

	mov	edx, DWORD PTR i$4[rsp]
	mov	rcx, QWORD PTR x$[rsp]
	call	??A?$tvec2@M$0A@@glm@@QEBAAEBMH@Z	; glm::tvec2<float,0>::operator[]
	mov	QWORD PTR tv80[rsp], rax
	mov	edx, DWORD PTR i$4[rsp]
	mov	rcx, QWORD PTR y$[rsp]
	call	??A?$tvec2@M$0A@@glm@@QEBAAEBMH@Z	; glm::tvec2<float,0>::operator[]
	movss	xmm0, DWORD PTR [rax]
	mov	rax, QWORD PTR tv80[rsp]
	comiss	xmm0, DWORD PTR [rax]
	jbe	SHORT $LN7@lessThan
	mov	DWORD PTR tv86[rsp], 1
	jmp	SHORT $LN8@lessThan
$LN7@lessThan:
	mov	DWORD PTR tv86[rsp], 0
$LN8@lessThan:
	mov	edx, DWORD PTR i$4[rsp]
	lea	rcx, QWORD PTR Result$[rsp]
	call	??A?$tvec2@_N$0A@@glm@@QEAAAEA_NH@Z	; glm::tvec2<bool,0>::operator[]
	movzx	ecx, BYTE PTR tv86[rsp]
	mov	BYTE PTR [rax], cl
	jmp	SHORT $LN2@lessThan
$LN3@lessThan:

; 16   : 
; 17   : 		return Result;

	mov	rax, QWORD PTR __$ReturnUdt$[rsp]
	movzx	ecx, WORD PTR Result$[rsp]
	mov	WORD PTR [rax], cx
	mov	rax, QWORD PTR __$ReturnUdt$[rsp]

; 18   : 	}

	mov	rdi, rax
	mov	rcx, rsp
	lea	rdx, OFFSET FLAT:??$lessThan@M$0A@Utvec2@glm@@@glm@@YA?AU?$tvec2@_N$0A@@0@AEBU?$tvec2@M$0A@@0@0@Z$rtcFrameData
	call	_RTC_CheckStackVars
	mov	rax, rdi
	add	rsp, 80					; 00000050H
	pop	rdi
	ret	0
??$lessThan@M$0A@Utvec2@glm@@@glm@@YA?AU?$tvec2@_N$0A@@0@AEBU?$tvec2@M$0A@@0@0@Z ENDP ; glm::lessThan<float,0,glm::tvec2>
_TEXT	ENDS
; Function compile flags: /Odtp /RTCsu
; File C:\Users\ksart\OneDrive\Desktop\FlappyBird\libraries\external\glm\glm\detail\func_common.inl
;	COMDAT ??$abs@M$0A@Utvec2@glm@@@glm@@YA?AU?$tvec2@M$0A@@0@AEBU10@@Z
_TEXT	SEGMENT
__$ReturnUdt$ = 48
x$ = 56
??$abs@M$0A@Utvec2@glm@@@glm@@YA?AU?$tvec2@M$0A@@0@AEBU10@@Z PROC ; glm::abs<float,0,glm::tvec2>, COMDAT

; 316  : 	{

$LN3:
	mov	QWORD PTR [rsp+16], rdx
	mov	QWORD PTR [rsp+8], rcx
	push	rdi
	sub	rsp, 32					; 00000020H

; 317  : 		return detail::compute_abs_vector<T, P, vecType, detail::is_aligned<P>::value>::call(x);

	mov	rdx, QWORD PTR x$[rsp]
	mov	rcx, QWORD PTR __$ReturnUdt$[rsp]
	call	?call@?$compute_abs_vector@M$0A@Utvec2@glm@@$0A@@detail@glm@@SA?AU?$tvec2@M$0A@@3@AEBU43@@Z ; glm::detail::compute_abs_vector<float,0,glm::tvec2,0>::call
	mov	rax, QWORD PTR __$ReturnUdt$[rsp]

; 318  : 	}

	add	rsp, 32					; 00000020H
	pop	rdi
	ret	0
??$abs@M$0A@Utvec2@glm@@@glm@@YA?AU?$tvec2@M$0A@@0@AEBU10@@Z ENDP ; glm::abs<float,0,glm::tvec2>
_TEXT	ENDS
; Function compile flags: /Odtp /RTCsu
; File C:\Users\ksart\OneDrive\Desktop\FlappyBird\libraries\external\glm\glm\detail\type_vec2.inl
;	COMDAT ??$?GM$0A@@glm@@YA?AU?$tvec2@M$0A@@0@AEBU10@0@Z
_TEXT	SEGMENT
__$ReturnUdt$ = 48
v1$ = 56
v2$ = 64
??$?GM$0A@@glm@@YA?AU?$tvec2@M$0A@@0@AEBU10@0@Z PROC	; glm::operator-<float,0>, COMDAT

; 533  : 	{

$LN3:
	mov	QWORD PTR [rsp+24], r8
	mov	QWORD PTR [rsp+16], rdx
	mov	QWORD PTR [rsp+8], rcx
	push	rdi
	sub	rsp, 32					; 00000020H

; 534  : 		return tvec2<T, P>(

	mov	rax, QWORD PTR v1$[rsp]
	mov	rcx, QWORD PTR v2$[rsp]
	movss	xmm0, DWORD PTR [rax+4]
	subss	xmm0, DWORD PTR [rcx+4]
	mov	rax, QWORD PTR v1$[rsp]
	mov	rcx, QWORD PTR v2$[rsp]
	movss	xmm1, DWORD PTR [rax]
	subss	xmm1, DWORD PTR [rcx]
	movaps	xmm2, xmm0
	mov	rcx, QWORD PTR __$ReturnUdt$[rsp]
	call	??0?$tvec2@M$0A@@glm@@QEAA@MM@Z		; glm::tvec2<float,0>::tvec2<float,0>
	mov	rax, QWORD PTR __$ReturnUdt$[rsp]

; 535  : 			v1.x - v2.x,
; 536  : 			v1.y - v2.y);
; 537  : 	}

	add	rsp, 32					; 00000020H
	pop	rdi
	ret	0
??$?GM$0A@@glm@@YA?AU?$tvec2@M$0A@@0@AEBU10@0@Z ENDP	; glm::operator-<float,0>
_TEXT	ENDS
; Function compile flags: /Odtp /RTCsu
; File C:\Users\ksart\OneDrive\Desktop\FlappyBird\libraries\external\glm\glm\detail\func_matrix.inl
;	COMDAT ?call@?$compute_inverse@Utmat2x2@glm@@M$0A@$0A@@detail@glm@@SA?AU?$tmat2x2@M$0A@@3@AEBU43@@Z
_TEXT	SEGMENT
OneOverDeterminant$ = 48
Inverse$ = 72
$T4 = 112
$T5 = 116
$T6 = 120
$T7 = 124
tv68 = 128
tv76 = 136
tv81 = 144
__$ArrayPad$ = 152
__$ReturnUdt$ = 192
m$ = 200
?call@?$compute_inverse@Utmat2x2@glm@@M$0A@$0A@@detail@glm@@SA?AU?$tmat2x2@M$0A@@3@AEBU43@@Z PROC ; glm::detail::compute_inverse<glm::tmat2x2,float,0,0>::call, COMDAT

; 256  : 		{

$LN3:
	mov	QWORD PTR [rsp+16], rdx
	mov	QWORD PTR [rsp+8], rcx
	push	rsi
	push	rdi
	sub	rsp, 168				; 000000a8H
	lea	rdi, QWORD PTR [rsp+48]
	mov	ecx, 30
	mov	eax, -858993460				; ccccccccH
	rep stosd
	mov	rcx, QWORD PTR [rsp+192]
	mov	rax, QWORD PTR __security_cookie
	xor	rax, rsp
	mov	QWORD PTR __$ArrayPad$[rsp], rax

; 257  : 			T OneOverDeterminant = static_cast<T>(1) / (

	xor	edx, edx
	mov	rcx, QWORD PTR m$[rsp]
	call	??A?$tmat2x2@M$0A@@glm@@QEBAAEBU?$tvec2@M$0A@@1@H@Z ; glm::tmat2x2<float,0>::operator[]
	xor	edx, edx
	mov	rcx, rax
	call	??A?$tvec2@M$0A@@glm@@QEBAAEBMH@Z	; glm::tvec2<float,0>::operator[]
	mov	QWORD PTR tv68[rsp], rax
	mov	edx, 1
	mov	rcx, QWORD PTR m$[rsp]
	call	??A?$tmat2x2@M$0A@@glm@@QEBAAEBU?$tvec2@M$0A@@1@H@Z ; glm::tmat2x2<float,0>::operator[]
	mov	edx, 1
	mov	rcx, rax
	call	??A?$tvec2@M$0A@@glm@@QEBAAEBMH@Z	; glm::tvec2<float,0>::operator[]
	mov	rcx, QWORD PTR tv68[rsp]
	movss	xmm0, DWORD PTR [rcx]
	mulss	xmm0, DWORD PTR [rax]
	movss	DWORD PTR tv76[rsp], xmm0
	mov	edx, 1
	mov	rcx, QWORD PTR m$[rsp]
	call	??A?$tmat2x2@M$0A@@glm@@QEBAAEBU?$tvec2@M$0A@@1@H@Z ; glm::tmat2x2<float,0>::operator[]
	xor	edx, edx
	mov	rcx, rax
	call	??A?$tvec2@M$0A@@glm@@QEBAAEBMH@Z	; glm::tvec2<float,0>::operator[]
	mov	QWORD PTR tv81[rsp], rax
	xor	edx, edx
	mov	rcx, QWORD PTR m$[rsp]
	call	??A?$tmat2x2@M$0A@@glm@@QEBAAEBU?$tvec2@M$0A@@1@H@Z ; glm::tmat2x2<float,0>::operator[]
	mov	edx, 1
	mov	rcx, rax
	call	??A?$tvec2@M$0A@@glm@@QEBAAEBMH@Z	; glm::tvec2<float,0>::operator[]
	mov	rcx, QWORD PTR tv81[rsp]
	movss	xmm0, DWORD PTR [rcx]
	mulss	xmm0, DWORD PTR [rax]
	movss	xmm1, DWORD PTR tv76[rsp]
	subss	xmm1, xmm0
	movaps	xmm0, xmm1
	movss	xmm1, DWORD PTR __real@3f800000
	divss	xmm1, xmm0
	movaps	xmm0, xmm1
	movss	DWORD PTR OneOverDeterminant$[rsp], xmm0

; 258  : 				+ m[0][0] * m[1][1]
; 259  : 				- m[1][0] * m[0][1]);
; 260  : 
; 261  : 			tmat2x2<T, P> Inverse(

	xor	edx, edx
	mov	rcx, QWORD PTR m$[rsp]
	call	??A?$tmat2x2@M$0A@@glm@@QEBAAEBU?$tvec2@M$0A@@1@H@Z ; glm::tmat2x2<float,0>::operator[]
	xor	edx, edx
	mov	rcx, rax
	call	??A?$tvec2@M$0A@@glm@@QEBAAEBMH@Z	; glm::tvec2<float,0>::operator[]
	movss	xmm0, DWORD PTR [rax]
	mulss	xmm0, DWORD PTR OneOverDeterminant$[rsp]
	movss	DWORD PTR $T4[rsp], xmm0
	mov	edx, 1
	mov	rcx, QWORD PTR m$[rsp]
	call	??A?$tmat2x2@M$0A@@glm@@QEBAAEBU?$tvec2@M$0A@@1@H@Z ; glm::tmat2x2<float,0>::operator[]
	xor	edx, edx
	mov	rcx, rax
	call	??A?$tvec2@M$0A@@glm@@QEBAAEBMH@Z	; glm::tvec2<float,0>::operator[]
	movss	xmm0, DWORD PTR [rax]
	xorps	xmm0, DWORD PTR __xmm@80000000800000008000000080000000
	mulss	xmm0, DWORD PTR OneOverDeterminant$[rsp]
	movss	DWORD PTR $T5[rsp], xmm0
	xor	edx, edx
	mov	rcx, QWORD PTR m$[rsp]
	call	??A?$tmat2x2@M$0A@@glm@@QEBAAEBU?$tvec2@M$0A@@1@H@Z ; glm::tmat2x2<float,0>::operator[]
	mov	edx, 1
	mov	rcx, rax
	call	??A?$tvec2@M$0A@@glm@@QEBAAEBMH@Z	; glm::tvec2<float,0>::operator[]
	movss	xmm0, DWORD PTR [rax]
	xorps	xmm0, DWORD PTR __xmm@80000000800000008000000080000000
	mulss	xmm0, DWORD PTR OneOverDeterminant$[rsp]
	movss	DWORD PTR $T6[rsp], xmm0
	mov	edx, 1
	mov	rcx, QWORD PTR m$[rsp]
	call	??A?$tmat2x2@M$0A@@glm@@QEBAAEBU?$tvec2@M$0A@@1@H@Z ; glm::tmat2x2<float,0>::operator[]
	mov	edx, 1
	mov	rcx, rax
	call	??A?$tvec2@M$0A@@glm@@QEBAAEBMH@Z	; glm::tvec2<float,0>::operator[]
	movss	xmm0, DWORD PTR [rax]
	mulss	xmm0, DWORD PTR OneOverDeterminant$[rsp]
	movss	DWORD PTR $T7[rsp], xmm0
	lea	rax, QWORD PTR $T4[rsp]
	mov	QWORD PTR [rsp+32], rax
	lea	r9, QWORD PTR $T5[rsp]
	lea	r8, QWORD PTR $T6[rsp]
	lea	rdx, QWORD PTR $T7[rsp]
	lea	rcx, QWORD PTR Inverse$[rsp]
	call	??0?$tmat2x2@M$0A@@glm@@QEAA@AEBM000@Z	; glm::tmat2x2<float,0>::tmat2x2<float,0>

; 262  : 				+ m[1][1] * OneOverDeterminant,
; 263  : 				- m[0][1] * OneOverDeterminant,
; 264  : 				- m[1][0] * OneOverDeterminant,
; 265  : 				+ m[0][0] * OneOverDeterminant);
; 266  : 
; 267  : 			return Inverse;

	lea	rax, QWORD PTR Inverse$[rsp]
	mov	rdi, QWORD PTR __$ReturnUdt$[rsp]
	mov	rsi, rax
	mov	ecx, 16
	rep movsb
	mov	rax, QWORD PTR __$ReturnUdt$[rsp]

; 268  : 		}

	mov	rdi, rax
	mov	rcx, rsp
	lea	rdx, OFFSET FLAT:?call@?$compute_inverse@Utmat2x2@glm@@M$0A@$0A@@detail@glm@@SA?AU?$tmat2x2@M$0A@@3@AEBU43@@Z$rtcFrameData
	call	_RTC_CheckStackVars
	mov	rax, rdi
	mov	rcx, QWORD PTR __$ArrayPad$[rsp]
	xor	rcx, rsp
	call	__security_check_cookie
	add	rsp, 168				; 000000a8H
	pop	rdi
	pop	rsi
	ret	0
?call@?$compute_inverse@Utmat2x2@glm@@M$0A@$0A@@detail@glm@@SA?AU?$tmat2x2@M$0A@@3@AEBU43@@Z ENDP ; glm::detail::compute_inverse<glm::tmat2x2,float,0,0>::call
_TEXT	ENDS
; Function compile flags: /Odtp /RTCsu
; File C:\Users\ksart\OneDrive\Desktop\FlappyBird\libraries\external\glm\glm\detail\type_vec2.inl
;	COMDAT ??$?8M$0A@@glm@@YA_NAEBU?$tvec2@M$0A@@0@0@Z
_TEXT	SEGMENT
tv70 = 0
v1$ = 32
v2$ = 40
??$?8M$0A@@glm@@YA_NAEBU?$tvec2@M$0A@@0@0@Z PROC	; glm::operator==<float,0>, COMDAT

; 873  : 	{

$LN5:
	mov	QWORD PTR [rsp+16], rdx
	mov	QWORD PTR [rsp+8], rcx
	push	rdi
	sub	rsp, 16

; 874  : 		return (v1.x == v2.x) && (v1.y == v2.y);

	mov	rax, QWORD PTR v1$[rsp]
	mov	rcx, QWORD PTR v2$[rsp]
	movss	xmm0, DWORD PTR [rax]
	ucomiss	xmm0, DWORD PTR [rcx]
	jp	SHORT $LN3@operator
	jne	SHORT $LN3@operator
	mov	rax, QWORD PTR v1$[rsp]
	mov	rcx, QWORD PTR v2$[rsp]
	movss	xmm0, DWORD PTR [rax+4]
	ucomiss	xmm0, DWORD PTR [rcx+4]
	jp	SHORT $LN3@operator
	jne	SHORT $LN3@operator
	mov	DWORD PTR tv70[rsp], 1
	jmp	SHORT $LN4@operator
$LN3@operator:
	mov	DWORD PTR tv70[rsp], 0
$LN4@operator:
	movzx	eax, BYTE PTR tv70[rsp]

; 875  : 	}

	add	rsp, 16
	pop	rdi
	ret	0
??$?8M$0A@@glm@@YA_NAEBU?$tvec2@M$0A@@0@0@Z ENDP	; glm::operator==<float,0>
_TEXT	ENDS
; Function compile flags: /Odtp /RTCsu
; File C:\Users\ksart\OneDrive\Desktop\FlappyBird\libraries\external\glm\glm\detail\type_vec2.inl
;	COMDAT ??$?9M$0A@@glm@@YA_NAEBU?$tvec2@M$0A@@0@0@Z
_TEXT	SEGMENT
tv70 = 0
v1$ = 32
v2$ = 40
??$?9M$0A@@glm@@YA_NAEBU?$tvec2@M$0A@@0@0@Z PROC	; glm::operator!=<float,0>, COMDAT

; 879  : 	{

$LN5:
	mov	QWORD PTR [rsp+16], rdx
	mov	QWORD PTR [rsp+8], rcx
	push	rdi
	sub	rsp, 16

; 880  : 		return (v1.x != v2.x) || (v1.y != v2.y);

	mov	rax, QWORD PTR v1$[rsp]
	mov	rcx, QWORD PTR v2$[rsp]
	movss	xmm0, DWORD PTR [rax]
	ucomiss	xmm0, DWORD PTR [rcx]
	jp	SHORT $LN3@operator
	jne	SHORT $LN3@operator
	mov	rax, QWORD PTR v1$[rsp]
	mov	rcx, QWORD PTR v2$[rsp]
	movss	xmm0, DWORD PTR [rax+4]
	ucomiss	xmm0, DWORD PTR [rcx+4]
	jp	SHORT $LN3@operator
	jne	SHORT $LN3@operator
	mov	DWORD PTR tv70[rsp], 0
	jmp	SHORT $LN4@operator
$LN3@operator:
	mov	DWORD PTR tv70[rsp], 1
$LN4@operator:
	movzx	eax, BYTE PTR tv70[rsp]

; 881  : 	}

	add	rsp, 16
	pop	rdi
	ret	0
??$?9M$0A@@glm@@YA_NAEBU?$tvec2@M$0A@@0@0@Z ENDP	; glm::operator!=<float,0>
_TEXT	ENDS
; Function compile flags: /Odtp /RTCsu
; File C:\Users\ksart\OneDrive\Desktop\FlappyBird\libraries\external\glm\glm\detail\type_vec2.inl
;	COMDAT ??$?DM$0A@@glm@@YA?AU?$tvec2@M$0A@@0@AEBU10@M@Z
_TEXT	SEGMENT
__$ReturnUdt$ = 48
v$ = 56
scalar$ = 64
??$?DM$0A@@glm@@YA?AU?$tvec2@M$0A@@0@AEBU10@M@Z PROC	; glm::operator*<float,0>, COMDAT

; 541  : 	{

$LN3:
	movss	DWORD PTR [rsp+24], xmm2
	mov	QWORD PTR [rsp+16], rdx
	mov	QWORD PTR [rsp+8], rcx
	push	rdi
	sub	rsp, 32					; 00000020H

; 542  : 		return tvec2<T, P>(

	mov	rax, QWORD PTR v$[rsp]
	movss	xmm0, DWORD PTR [rax+4]
	mulss	xmm0, DWORD PTR scalar$[rsp]
	mov	rax, QWORD PTR v$[rsp]
	movss	xmm1, DWORD PTR [rax]
	mulss	xmm1, DWORD PTR scalar$[rsp]
	movaps	xmm2, xmm0
	mov	rcx, QWORD PTR __$ReturnUdt$[rsp]
	call	??0?$tvec2@M$0A@@glm@@QEAA@MM@Z		; glm::tvec2<float,0>::tvec2<float,0>
	mov	rax, QWORD PTR __$ReturnUdt$[rsp]

; 543  : 			v.x * scalar,
; 544  : 			v.y * scalar);
; 545  : 	}

	add	rsp, 32					; 00000020H
	pop	rdi
	ret	0
??$?DM$0A@@glm@@YA?AU?$tvec2@M$0A@@0@AEBU10@M@Z ENDP	; glm::operator*<float,0>
_TEXT	ENDS
; Function compile flags: /Odtp /RTCsu
; File C:\Users\ksart\OneDrive\Desktop\FlappyBird\libraries\external\glm\glm\detail\type_vec2.inl
;	COMDAT ??$?KM$0A@@glm@@YA?AU?$tvec2@M$0A@@0@AEBU10@M@Z
_TEXT	SEGMENT
__$ReturnUdt$ = 48
v$ = 56
scalar$ = 64
??$?KM$0A@@glm@@YA?AU?$tvec2@M$0A@@0@AEBU10@M@Z PROC	; glm::operator/<float,0>, COMDAT

; 581  : 	{

$LN3:
	movss	DWORD PTR [rsp+24], xmm2
	mov	QWORD PTR [rsp+16], rdx
	mov	QWORD PTR [rsp+8], rcx
	push	rdi
	sub	rsp, 32					; 00000020H

; 582  : 		return tvec2<T, P>(

	mov	rax, QWORD PTR v$[rsp]
	movss	xmm0, DWORD PTR [rax+4]
	divss	xmm0, DWORD PTR scalar$[rsp]
	mov	rax, QWORD PTR v$[rsp]
	movss	xmm1, DWORD PTR [rax]
	divss	xmm1, DWORD PTR scalar$[rsp]
	movaps	xmm2, xmm0
	mov	rcx, QWORD PTR __$ReturnUdt$[rsp]
	call	??0?$tvec2@M$0A@@glm@@QEAA@MM@Z		; glm::tvec2<float,0>::tvec2<float,0>
	mov	rax, QWORD PTR __$ReturnUdt$[rsp]

; 583  : 			v.x / scalar,
; 584  : 			v.y / scalar);
; 585  : 	}

	add	rsp, 32					; 00000020H
	pop	rdi
	ret	0
??$?KM$0A@@glm@@YA?AU?$tvec2@M$0A@@0@AEBU10@M@Z ENDP	; glm::operator/<float,0>
_TEXT	ENDS
; Function compile flags: /Odtp /RTCsu
; File C:\Users\ksart\OneDrive\Desktop\FlappyBird\libraries\external\glm\glm\detail\type_vec2.inl
;	COMDAT ??$?KM$0A@@glm@@YA?AU?$tvec2@M$0A@@0@MAEBU10@@Z
_TEXT	SEGMENT
__$ReturnUdt$ = 48
scalar$ = 56
v$ = 64
??$?KM$0A@@glm@@YA?AU?$tvec2@M$0A@@0@MAEBU10@@Z PROC	; glm::operator/<float,0>, COMDAT

; 597  : 	{

$LN3:
	mov	QWORD PTR [rsp+24], r8
	movss	DWORD PTR [rsp+16], xmm1
	mov	QWORD PTR [rsp+8], rcx
	push	rdi
	sub	rsp, 32					; 00000020H

; 598  : 		return tvec2<T, P>(

	mov	rax, QWORD PTR v$[rsp]
	movss	xmm0, DWORD PTR scalar$[rsp]
	divss	xmm0, DWORD PTR [rax+4]
	mov	rax, QWORD PTR v$[rsp]
	movss	xmm1, DWORD PTR scalar$[rsp]
	divss	xmm1, DWORD PTR [rax]
	movaps	xmm2, xmm0
	mov	rcx, QWORD PTR __$ReturnUdt$[rsp]
	call	??0?$tvec2@M$0A@@glm@@QEAA@MM@Z		; glm::tvec2<float,0>::tvec2<float,0>
	mov	rax, QWORD PTR __$ReturnUdt$[rsp]

; 599  : 			scalar / v.x,
; 600  : 			scalar / v.y);
; 601  : 	}

	add	rsp, 32					; 00000020H
	pop	rdi
	ret	0
??$?KM$0A@@glm@@YA?AU?$tvec2@M$0A@@0@MAEBU10@@Z ENDP	; glm::operator/<float,0>
_TEXT	ENDS
; Function compile flags: /Odtp /RTCsu
; File C:\Users\ksart\OneDrive\Desktop\FlappyBird\libraries\external\glm\glm\detail\func_common.inl
;	COMDAT ?call@?$compute_abs@M$00@detail@glm@@SAMM@Z
_TEXT	SEGMENT
tv66 = 16
x$ = 48
?call@?$compute_abs@M$00@detail@glm@@SAMM@Z PROC	; glm::detail::compute_abs<float,1>::call, COMDAT

; 77   : 		{

$LN5:
	movss	DWORD PTR [rsp+8], xmm0
	push	rdi
	sub	rsp, 32					; 00000020H

; 78   : 			GLM_STATIC_ASSERT(
; 79   : 				std::numeric_limits<genFIType>::is_iec559 || std::numeric_limits<genFIType>::is_signed || GLM_UNRESTRICTED_GENTYPE,
; 80   : 				"'abs' only accept floating-point and integer scalar or vector inputs");
; 81   : 
; 82   : 			return x >= genFIType(0) ? x : -x;

	movss	xmm0, DWORD PTR x$[rsp]
	comiss	xmm0, DWORD PTR __real@00000000
	jb	SHORT $LN3@call
	movss	xmm0, DWORD PTR x$[rsp]
	movss	DWORD PTR tv66[rsp], xmm0
	jmp	SHORT $LN4@call
$LN3@call:
	movss	xmm0, DWORD PTR x$[rsp]
	xorps	xmm0, DWORD PTR __xmm@80000000800000008000000080000000
	movss	DWORD PTR tv66[rsp], xmm0
$LN4@call:
	movss	xmm0, DWORD PTR tv66[rsp]

; 83   : 			// TODO, perf comp with: *(((int *) &x) + 1) &= 0x7fffffff;
; 84   : 		}

	add	rsp, 32					; 00000020H
	pop	rdi
	ret	0
?call@?$compute_abs@M$00@detail@glm@@SAMM@Z ENDP	; glm::detail::compute_abs<float,1>::call
_TEXT	ENDS
; Function compile flags: /Odtp /RTCsu
; File C:\Users\ksart\OneDrive\Desktop\FlappyBird\libraries\external\glm\glm\detail\type_vec2.inl
;	COMDAT ??$?0HH@?$tvec2@N$0A@@glm@@QEAA@HH@Z
_TEXT	SEGMENT
this$ = 16
a$ = 24
b$ = 32
??$?0HH@?$tvec2@N$0A@@glm@@QEAA@HH@Z PROC		; glm::tvec2<double,0>::tvec2<double,0><int,int>, COMDAT

; 66   : 	{}

$LN3:
	mov	DWORD PTR [rsp+24], r8d
	mov	DWORD PTR [rsp+16], edx
	mov	QWORD PTR [rsp+8], rcx
	push	rdi

; 64   : 		: x(static_cast<T>(a))

	cvtsi2sd xmm0, DWORD PTR a$[rsp]
	mov	rax, QWORD PTR this$[rsp]
	movsd	QWORD PTR [rax], xmm0

; 65   : 		, y(static_cast<T>(b))

	cvtsi2sd xmm0, DWORD PTR b$[rsp]
	mov	rax, QWORD PTR this$[rsp]
	movsd	QWORD PTR [rax+8], xmm0

; 66   : 	{}

	mov	rax, QWORD PTR this$[rsp]
	pop	rdi
	ret	0
??$?0HH@?$tvec2@N$0A@@glm@@QEAA@HH@Z ENDP		; glm::tvec2<double,0>::tvec2<double,0><int,int>
_TEXT	ENDS
; Function compile flags: /Odtp /RTCsu
; File C:\Users\ksart\OneDrive\Desktop\FlappyBird\libraries\external\glm\glm\detail\type_vec2.inl
;	COMDAT ??$?0HM@?$tvec2@M$0A@@glm@@QEAA@HM@Z
_TEXT	SEGMENT
this$ = 16
a$ = 24
b$ = 32
??$?0HM@?$tvec2@M$0A@@glm@@QEAA@HM@Z PROC		; glm::tvec2<float,0>::tvec2<float,0><int,float>, COMDAT

; 66   : 	{}

$LN3:
	movss	DWORD PTR [rsp+24], xmm2
	mov	DWORD PTR [rsp+16], edx
	mov	QWORD PTR [rsp+8], rcx
	push	rdi

; 64   : 		: x(static_cast<T>(a))

	cvtsi2ss xmm0, DWORD PTR a$[rsp]
	mov	rax, QWORD PTR this$[rsp]
	movss	DWORD PTR [rax], xmm0

; 65   : 		, y(static_cast<T>(b))

	mov	rax, QWORD PTR this$[rsp]
	movss	xmm0, DWORD PTR b$[rsp]
	movss	DWORD PTR [rax+4], xmm0

; 66   : 	{}

	mov	rax, QWORD PTR this$[rsp]
	pop	rdi
	ret	0
??$?0HM@?$tvec2@M$0A@@glm@@QEAA@HM@Z ENDP		; glm::tvec2<float,0>::tvec2<float,0><int,float>
_TEXT	ENDS
; Function compile flags: /Odtp /RTCsu
; File C:\Users\ksart\OneDrive\Desktop\FlappyBird\libraries\external\glm\glm\detail\type_vec2.inl
;	COMDAT ??$?0MH@?$tvec2@M$0A@@glm@@QEAA@MH@Z
_TEXT	SEGMENT
this$ = 16
a$ = 24
b$ = 32
??$?0MH@?$tvec2@M$0A@@glm@@QEAA@MH@Z PROC		; glm::tvec2<float,0>::tvec2<float,0><float,int>, COMDAT

; 66   : 	{}

$LN3:
	mov	DWORD PTR [rsp+24], r8d
	movss	DWORD PTR [rsp+16], xmm1
	mov	QWORD PTR [rsp+8], rcx
	push	rdi

; 64   : 		: x(static_cast<T>(a))

	mov	rax, QWORD PTR this$[rsp]
	movss	xmm0, DWORD PTR a$[rsp]
	movss	DWORD PTR [rax], xmm0

; 65   : 		, y(static_cast<T>(b))

	cvtsi2ss xmm0, DWORD PTR b$[rsp]
	mov	rax, QWORD PTR this$[rsp]
	movss	DWORD PTR [rax+4], xmm0

; 66   : 	{}

	mov	rax, QWORD PTR this$[rsp]
	pop	rdi
	ret	0
??$?0MH@?$tvec2@M$0A@@glm@@QEAA@MH@Z ENDP		; glm::tvec2<float,0>::tvec2<float,0><float,int>
_TEXT	ENDS
; Function compile flags: /Odtp /RTCsu
; File C:\Program Files\Microsoft Visual Studio\2022\Community\VC\Tools\MSVC\14.32.31326\include\xmemory
;	COMDAT ??$_Deallocate@$0BA@$0A@@std@@YAXPEAX_K@Z
_TEXT	SEGMENT
_Ptr$ = 48
_Bytes$ = 56
??$_Deallocate@$0BA@$0A@@std@@YAXPEAX_K@Z PROC		; std::_Deallocate<16,0>, COMDAT

; 242  : _CONSTEXPR20 void _Deallocate(void* _Ptr, size_t _Bytes) noexcept {

$LN4:
	mov	QWORD PTR [rsp+16], rdx
	mov	QWORD PTR [rsp+8], rcx
	push	rdi
	sub	rsp, 32					; 00000020H

; 243  :     // deallocate storage allocated by _Allocate when !_HAS_ALIGNED_NEW || _Align <= __STDCPP_DEFAULT_NEW_ALIGNMENT__
; 244  : #if _HAS_CXX20 // TRANSITION, GH-1532
; 245  :     if (_STD is_constant_evaluated()) {
; 246  :         ::operator delete(_Ptr);
; 247  :     } else
; 248  : #endif // _HAS_CXX20
; 249  :     {
; 250  : #if defined(_M_IX86) || defined(_M_X64)
; 251  :         if (_Bytes >= _Big_allocation_threshold) { // boost the alignment of big allocations to help autovectorization

	cmp	QWORD PTR _Bytes$[rsp], 4096		; 00001000H
	jb	SHORT $LN2@Deallocate

; 252  :             _Adjust_manually_vector_aligned(_Ptr, _Bytes);

	lea	rdx, QWORD PTR _Bytes$[rsp]
	lea	rcx, QWORD PTR _Ptr$[rsp]
	call	?_Adjust_manually_vector_aligned@std@@YAXAEAPEAXAEA_K@Z ; std::_Adjust_manually_vector_aligned
$LN2@Deallocate:

; 253  :         }
; 254  : #endif // defined(_M_IX86) || defined(_M_X64)
; 255  :         ::operator delete(_Ptr, _Bytes);

	mov	rdx, QWORD PTR _Bytes$[rsp]
	mov	rcx, QWORD PTR _Ptr$[rsp]
	call	??3@YAXPEAX_K@Z				; operator delete
	npad	1

; 256  :     }
; 257  : }

	add	rsp, 32					; 00000020H
	pop	rdi
	ret	0
??$_Deallocate@$0BA@$0A@@std@@YAXPEAX_K@Z ENDP		; std::_Deallocate<16,0>
_TEXT	ENDS
; Function compile flags: /Odtp /RTCsu
; File C:\Program Files\Microsoft Visual Studio\2022\Community\VC\Tools\MSVC\14.32.31326\include\xmemory
;	COMDAT ??$_Destroy_range@V?$allocator@U?$tmat2x2@M$0A@@glm@@@std@@@std@@YAXPEAU?$tmat2x2@M$0A@@glm@@QEAU12@AEAV?$allocator@U?$tmat2x2@M$0A@@glm@@@0@@Z
_TEXT	SEGMENT
_First$ = 16
_Last$ = 24
_Al$ = 32
??$_Destroy_range@V?$allocator@U?$tmat2x2@M$0A@@glm@@@std@@@std@@YAXPEAU?$tmat2x2@M$0A@@glm@@QEAU12@AEAV?$allocator@U?$tmat2x2@M$0A@@glm@@@0@@Z PROC ; std::_Destroy_range<std::allocator<glm::tmat2x2<float,0> > >, COMDAT

; 939  : _CONSTEXPR20 void _Destroy_range(_Alloc_ptr_t<_Alloc> _First, const _Alloc_ptr_t<_Alloc> _Last, _Alloc& _Al) noexcept {

$LN3:
	mov	QWORD PTR [rsp+24], r8
	mov	QWORD PTR [rsp+16], rdx
	mov	QWORD PTR [rsp+8], rcx
	push	rdi

; 940  :     // note that this is an optimization for debug mode codegen; in release mode the BE removes all of this
; 941  :     using _Ty = typename _Alloc::value_type;
; 942  :     if constexpr (!conjunction_v<is_trivially_destructible<_Ty>, _Uses_default_destroy<_Alloc, _Ty*>>) {
; 943  :         for (; _First != _Last; ++_First) {
; 944  :             allocator_traits<_Alloc>::destroy(_Al, _Unfancy(_First));
; 945  :         }
; 946  :     }
; 947  : }

	pop	rdi
	ret	0
??$_Destroy_range@V?$allocator@U?$tmat2x2@M$0A@@glm@@@std@@@std@@YAXPEAU?$tmat2x2@M$0A@@glm@@QEAU12@AEAV?$allocator@U?$tmat2x2@M$0A@@glm@@@0@@Z ENDP ; std::_Destroy_range<std::allocator<glm::tmat2x2<float,0> > >
_TEXT	ENDS
; Function compile flags: /Odtp /RTCsu
; File C:\Program Files\Microsoft Visual Studio\2022\Community\VC\Tools\MSVC\14.32.31326\include\vector
