; Listing generated by Microsoft (R) Optimizing Compiler Version 19.32.31329.0 

include listing.inc

INCLUDELIB MSVCRTD

PUBLIC	?TestBool@mix_@@3PAU?$entry@M_N@1@A		; mix_::TestBool
PUBLIC	?TestFloat@mix_@@3PAU?$entry@MM@1@A		; mix_::TestFloat
_DATA	SEGMENT
?TestBool@mix_@@3PAU?$entry@M_N@1@A DD 000000000r ; 0	; mix_::TestBool
	DD	03f800000r			; 1
	DB	00H
	ORG $+3
	DD	000000000r			; 0
	DD	000000000r			; 0
	DD	03f800000r			; 1
	DB	01H
	ORG $+3
	DD	03f800000r			; 1
	DD	0bf800000r			; -1
	DD	03f800000r			; 1
	DB	00H
	ORG $+3
	DD	0bf800000r			; -1
	DD	0bf800000r			; -1
	DD	03f800000r			; 1
	DB	01H
	ORG $+3
	DD	03f800000r			; 1
?TestFloat@mix_@@3PAU?$entry@MM@1@A DD 000000000r ; 0	; mix_::TestFloat
	DD	03f800000r			; 1
	DD	000000000r			; 0
	DD	000000000r			; 0
	DD	000000000r			; 0
	DD	03f800000r			; 1
	DD	03f800000r			; 1
	DD	03f800000r			; 1
	DD	0bf800000r			; -1
	DD	03f800000r			; 1
	DD	000000000r			; 0
	DD	0bf800000r			; -1
	DD	0bf800000r			; -1
	DD	03f800000r			; 1
	DD	03f800000r			; 1
	DD	03f800000r			; 1
_DATA	ENDS
CONST	SEGMENT
$SG66689 DB	'invalid argument', 00H
	ORG $+3
$SG66690 DB	'%s', 00H
	ORG $+1
$SG66694 DB	'"', 00H, 'i', 00H, 'n', 00H, 'v', 00H, 'a', 00H, 'l', 00H
	DB	'i', 00H, 'd', 00H, ' ', 00H, 'a', 00H, 'r', 00H, 'g', 00H, 'u'
	DB	00H, 'm', 00H, 'e', 00H, 'n', 00H, 't', 00H, '"', 00H, 00H, 00H
	ORG $+2
$SG66691 DB	'C:\Program Files\Microsoft Visual Studio\2022\Community\'
	DB	'VC\Tools\MSVC\14.32.31326\include\xmemory', 00H
	ORG $+2
$SG66693 DB	00H, 00H
	ORG $+2
$SG61529 DB	'sign_cmp(rand) Time %d clocks', 0aH, 00H
	ORG $+1
$SG61531 DB	'sign_alu1(rand) Time %d clocks', 0aH, 00H
$SG61579 DB	'sign_cmp(linear) Time %d clocks', 0aH, 00H
	ORG $+7
$SG66692 DB	'C', 00H, ':', 00H, '\', 00H, 'P', 00H, 'r', 00H, 'o', 00H
	DB	'g', 00H, 'r', 00H, 'a', 00H, 'm', 00H, ' ', 00H, 'F', 00H, 'i'
	DB	00H, 'l', 00H, 'e', 00H, 's', 00H, '\', 00H, 'M', 00H, 'i', 00H
	DB	'c', 00H, 'r', 00H, 'o', 00H, 's', 00H, 'o', 00H, 'f', 00H, 't'
	DB	00H, ' ', 00H, 'V', 00H, 'i', 00H, 's', 00H, 'u', 00H, 'a', 00H
	DB	'l', 00H, ' ', 00H, 'S', 00H, 't', 00H, 'u', 00H, 'd', 00H, 'i'
	DB	00H, 'o', 00H, '\', 00H, '2', 00H, '0', 00H, '2', 00H, '2', 00H
	DB	'\', 00H, 'C', 00H, 'o', 00H, 'm', 00H, 'm', 00H, 'u', 00H, 'n'
	DB	00H, 'i', 00H, 't', 00H, 'y', 00H, '\', 00H, 'V', 00H, 'C', 00H
	DB	'\', 00H, 'T', 00H, 'o', 00H, 'o', 00H, 'l', 00H, 's', 00H, '\'
	DB	00H, 'M', 00H, 'S', 00H, 'V', 00H, 'C', 00H, '\', 00H, '1', 00H
	DB	'4', 00H, '.', 00H, '3', 00H, '2', 00H, '.', 00H, '3', 00H, '1'
	DB	00H, '3', 00H, '2', 00H, '6', 00H, '\', 00H, 'i', 00H, 'n', 00H
	DB	'c', 00H, 'l', 00H, 'u', 00H, 'd', 00H, 'e', 00H, '\', 00H, 'x'
	DB	00H, 'm', 00H, 'e', 00H, 'm', 00H, 'o', 00H, 'r', 00H, 'y', 00H
	DB	00H, 00H
	ORG $+4
$SG61530 DB	'sign_if(rand) Time %d clocks', 0aH, 00H
	ORG $+2
$SG61532 DB	'sign_alu2(rand) Time %d clocks', 0aH, 00H
$SG61533 DB	'sign_sub(rand) Time %d clocks', 0aH, 00H
	ORG $+1
$SG61534 DB	'glm::sign(rand) Time %d clocks', 0aH, 00H
$SG61580 DB	'sign_if(linear) Time %d clocks', 0aH, 00H
$SG61581 DB	'sign_alu1(linear) Time %d clocks', 0aH, 00H
	ORG $+6
$SG61582 DB	'sign_alu2(linear) Time %d clocks', 0aH, 00H
	ORG $+6
$SG61583 DB	'sign_sub(linear) Time %d clocks', 0aH, 00H
	ORG $+7
$SG61624 DB	'Sum %d', 0aH, 00H
$SG61625 DB	'sign_cmp(linear_cal) Time %d clocks', 0aH, 00H
	ORG $+3
$SG61626 DB	'sign_if(linear_cal) Time %d clocks', 0aH, 00H
	ORG $+4
$SG61627 DB	'sign_alu1(linear_cal) Time %d clocks', 0aH, 00H
	ORG $+2
$SG61628 DB	'sign_alu2(linear_cal) Time %d clocks', 0aH, 00H
	ORG $+2
$SG61629 DB	'sign_sub(linear_cal) Time %d clocks', 0aH, 00H
CONST	ENDS
PUBLIC	?fpclassify@@YAHM@Z				; fpclassify
PUBLIC	?fpclassify@@YAHN@Z				; fpclassify
PUBLIC	frexpf
PUBLIC	ldexpf
PUBLIC	??2@YAPEAX_KPEAX@Z				; operator new
PUBLIC	?floor@@YAMM@Z					; floor
PUBLIC	?frexp@@YAMMPEAH@Z				; frexp
PUBLIC	?ldexp@@YAMMH@Z					; ldexp
PUBLIC	?modf@@YAMMPEAM@Z				; modf
PUBLIC	?round@@YAMM@Z					; round
PUBLIC	?floatBitsToInt@glm@@YAHAEBM@Z			; glm::floatBitsToInt
PUBLIC	?floatBitsToUint@glm@@YAIAEBM@Z			; glm::floatBitsToUint
PUBLIC	?intBitsToFloat@glm@@YAMAEBH@Z			; glm::intBitsToFloat
PUBLIC	__local_stdio_printf_options
PUBLIC	_vfprintf_l
PUBLIC	printf
PUBLIC	?max@?$numeric_limits@E@std@@SAEXZ		; std::numeric_limits<unsigned char>::max
PUBLIC	?min@?$numeric_limits@H@std@@SAHXZ		; std::numeric_limits<int>::min
PUBLIC	?max@?$numeric_limits@H@std@@SAHXZ		; std::numeric_limits<int>::max
PUBLIC	?max@?$numeric_limits@_J@std@@SA_JXZ		; std::numeric_limits<__int64>::max
PUBLIC	?max@?$numeric_limits@I@std@@SAIXZ		; std::numeric_limits<unsigned int>::max
PUBLIC	?epsilon@?$numeric_limits@M@std@@SAMXZ		; std::numeric_limits<float>::epsilon
PUBLIC	??$epsilonEqual@M@glm@@YA_NAEBM00@Z		; glm::epsilonEqual<float>
PUBLIC	??$abs@M@glm@@YAMM@Z				; glm::abs<float>
PUBLIC	??$abs@N@glm@@YANN@Z				; glm::abs<double>
PUBLIC	?length@?$tvec2@M$0A@@glm@@SAHXZ		; glm::tvec2<float,0>::length
PUBLIC	??A?$tvec2@M$0A@@glm@@QEAAAEAMH@Z		; glm::tvec2<float,0>::operator[]
PUBLIC	??A?$tvec2@M$0A@@glm@@QEBAAEBMH@Z		; glm::tvec2<float,0>::operator[]
PUBLIC	??0?$tvec2@M$0A@@glm@@QEAA@W4ctor@1@@Z		; glm::tvec2<float,0>::tvec2<float,0>
PUBLIC	??0?$tvec2@M$0A@@glm@@QEAA@M@Z			; glm::tvec2<float,0>::tvec2<float,0>
PUBLIC	??0?$tvec2@M$0A@@glm@@QEAA@MM@Z			; glm::tvec2<float,0>::tvec2<float,0>
PUBLIC	?length@?$tvec4@M$0A@@glm@@SAHXZ		; glm::tvec4<float,0>::length
PUBLIC	??A?$tvec4@M$0A@@glm@@QEAAAEAMH@Z		; glm::tvec4<float,0>::operator[]
PUBLIC	??A?$tvec4@M$0A@@glm@@QEBAAEBMH@Z		; glm::tvec4<float,0>::operator[]
PUBLIC	??0?$tvec4@M$0A@@glm@@QEAA@W4ctor@1@@Z		; glm::tvec4<float,0>::tvec4<float,0>
PUBLIC	??0?$tvec4@M$0A@@glm@@QEAA@M@Z			; glm::tvec4<float,0>::tvec4<float,0>
PUBLIC	??0?$tvec4@M$0A@@glm@@QEAA@MMMM@Z		; glm::tvec4<float,0>::tvec4<float,0>
PUBLIC	??0exception@std@@QEAA@QEBDH@Z			; std::exception::exception
PUBLIC	??0exception@std@@QEAA@AEBV01@@Z		; std::exception::exception
PUBLIC	??1exception@std@@UEAA@XZ			; std::exception::~exception
PUBLIC	?what@exception@std@@UEBAPEBDXZ			; std::exception::what
PUBLIC	??_Gexception@std@@UEAAPEAXI@Z			; std::exception::`scalar deleting destructor'
PUBLIC	??0bad_alloc@std@@AEAA@QEBD@Z			; std::bad_alloc::bad_alloc
PUBLIC	??1bad_alloc@std@@UEAA@XZ			; std::bad_alloc::~bad_alloc
PUBLIC	??0bad_alloc@std@@QEAA@AEBV01@@Z		; std::bad_alloc::bad_alloc
PUBLIC	??_Gbad_alloc@std@@UEAAPEAXI@Z			; std::bad_alloc::`scalar deleting destructor'
PUBLIC	??0bad_array_new_length@std@@QEAA@XZ		; std::bad_array_new_length::bad_array_new_length
PUBLIC	??1bad_array_new_length@std@@UEAA@XZ		; std::bad_array_new_length::~bad_array_new_length
PUBLIC	??0bad_array_new_length@std@@QEAA@AEBV01@@Z	; std::bad_array_new_length::bad_array_new_length
PUBLIC	??_Gbad_array_new_length@std@@UEAAPEAXI@Z	; std::bad_array_new_length::`scalar deleting destructor'
PUBLIC	?_Throw_bad_array_new_length@std@@YAXXZ		; std::_Throw_bad_array_new_length
PUBLIC	?_Allocate@_Default_allocate_traits@std@@SAPEAX_K@Z ; std::_Default_allocate_traits::_Allocate
PUBLIC	?_Adjust_manually_vector_aligned@std@@YAXAEAPEAXAEA_K@Z ; std::_Adjust_manually_vector_aligned
PUBLIC	??0_Container_proxy@std@@QEAA@PEAU_Container_base12@1@@Z ; std::_Container_proxy::_Container_proxy
PUBLIC	??0_Container_base12@std@@QEAA@XZ		; std::_Container_base12::_Container_base12
PUBLIC	?_Orphan_all@_Container_base12@std@@QEAAXXZ	; std::_Container_base12::_Orphan_all
PUBLIC	?_Orphan_all_unlocked_v3@_Container_base12@std@@AEAAXXZ ; std::_Container_base12::_Orphan_all_unlocked_v3
PUBLIC	?_Orphan_all_locked_v3@_Container_base12@std@@AEAAXXZ ; std::_Container_base12::_Orphan_all_locked_v3
PUBLIC	?test@floor_@@YAHXZ				; floor_::test
PUBLIC	?length@?$tvec1@M$0A@@glm@@SAHXZ		; glm::tvec1<float,0>::length
PUBLIC	??A?$tvec1@M$0A@@glm@@QEBAAEBMH@Z		; glm::tvec1<float,0>::operator[]
PUBLIC	??0?$tvec1@M$0A@@glm@@QEAA@M@Z			; glm::tvec1<float,0>::tvec1<float,0>
PUBLIC	??$floor@M$0A@Utvec1@glm@@@glm@@YA?AU?$tvec1@M$0A@@0@AEBU10@@Z ; glm::floor<float,0,glm::tvec1>
PUBLIC	??$epsilonEqual@M$0A@Utvec1@glm@@@glm@@YA?AU?$tvec1@_N$0A@@0@AEBU?$tvec1@M$0A@@0@0AEBM@Z ; glm::epsilonEqual<float,0,glm::tvec1>
PUBLIC	?length@?$tvec1@_N$0A@@glm@@SAHXZ		; glm::tvec1<bool,0>::length
PUBLIC	??A?$tvec1@_N$0A@@glm@@QEAAAEA_NH@Z		; glm::tvec1<bool,0>::operator[]
PUBLIC	??A?$tvec1@_N$0A@@glm@@QEBAAEB_NH@Z		; glm::tvec1<bool,0>::operator[]
PUBLIC	??0?$tvec1@_N$0A@@glm@@QEAA@W4ctor@1@@Z		; glm::tvec1<bool,0>::tvec1<bool,0>
PUBLIC	??$all@$0A@Utvec1@glm@@@glm@@YA_NAEBU?$tvec1@_N$0A@@0@@Z ; glm::all<0,glm::tvec1>
PUBLIC	?length@?$tvec1@N$0A@@glm@@SAHXZ		; glm::tvec1<double,0>::length
PUBLIC	??A?$tvec1@N$0A@@glm@@QEBAAEBNH@Z		; glm::tvec1<double,0>::operator[]
PUBLIC	??0?$tvec1@N$0A@@glm@@QEAA@N@Z			; glm::tvec1<double,0>::tvec1<double,0>
PUBLIC	??$floor@N$0A@Utvec1@glm@@@glm@@YA?AU?$tvec1@N$0A@@0@AEBU10@@Z ; glm::floor<double,0,glm::tvec1>
PUBLIC	??$epsilonEqual@N$0A@Utvec1@glm@@@glm@@YA?AU?$tvec1@_N$0A@@0@AEBU?$tvec1@N$0A@@0@0AEBN@Z ; glm::epsilonEqual<double,0,glm::tvec1>
PUBLIC	??$floor@M$0A@Utvec2@glm@@@glm@@YA?AU?$tvec2@M$0A@@0@AEBU10@@Z ; glm::floor<float,0,glm::tvec2>
PUBLIC	??$epsilonEqual@M$0A@Utvec2@glm@@@glm@@YA?AU?$tvec2@_N$0A@@0@AEBU?$tvec2@M$0A@@0@0AEBM@Z ; glm::epsilonEqual<float,0,glm::tvec2>
PUBLIC	?length@?$tvec2@_N$0A@@glm@@SAHXZ		; glm::tvec2<bool,0>::length
PUBLIC	??A?$tvec2@_N$0A@@glm@@QEAAAEA_NH@Z		; glm::tvec2<bool,0>::operator[]
PUBLIC	??A?$tvec2@_N$0A@@glm@@QEBAAEB_NH@Z		; glm::tvec2<bool,0>::operator[]
PUBLIC	??0?$tvec2@_N$0A@@glm@@QEAA@W4ctor@1@@Z		; glm::tvec2<bool,0>::tvec2<bool,0>
PUBLIC	??0?$tvec2@_N$0A@@glm@@QEAA@_N@Z		; glm::tvec2<bool,0>::tvec2<bool,0>
PUBLIC	??0?$tvec2@_N$0A@@glm@@QEAA@_N0@Z		; glm::tvec2<bool,0>::tvec2<bool,0>
PUBLIC	??$all@$0A@Utvec2@glm@@@glm@@YA_NAEBU?$tvec2@_N$0A@@0@@Z ; glm::all<0,glm::tvec2>
PUBLIC	?length@?$tvec2@N$0A@@glm@@SAHXZ		; glm::tvec2<double,0>::length
PUBLIC	??A?$tvec2@N$0A@@glm@@QEBAAEBNH@Z		; glm::tvec2<double,0>::operator[]
PUBLIC	??0?$tvec2@N$0A@@glm@@QEAA@N@Z			; glm::tvec2<double,0>::tvec2<double,0>
PUBLIC	??0?$tvec2@N$0A@@glm@@QEAA@NN@Z			; glm::tvec2<double,0>::tvec2<double,0>
PUBLIC	??$floor@N$0A@Utvec2@glm@@@glm@@YA?AU?$tvec2@N$0A@@0@AEBU10@@Z ; glm::floor<double,0,glm::tvec2>
PUBLIC	??$epsilonEqual@N$0A@Utvec2@glm@@@glm@@YA?AU?$tvec2@_N$0A@@0@AEBU?$tvec2@N$0A@@0@0AEBN@Z ; glm::epsilonEqual<double,0,glm::tvec2>
PUBLIC	?length@?$tvec3@M$0A@@glm@@SAHXZ		; glm::tvec3<float,0>::length
PUBLIC	??A?$tvec3@M$0A@@glm@@QEAAAEAMH@Z		; glm::tvec3<float,0>::operator[]
PUBLIC	??A?$tvec3@M$0A@@glm@@QEBAAEBMH@Z		; glm::tvec3<float,0>::operator[]
PUBLIC	??0?$tvec3@M$0A@@glm@@QEAA@W4ctor@1@@Z		; glm::tvec3<float,0>::tvec3<float,0>
PUBLIC	??0?$tvec3@M$0A@@glm@@QEAA@M@Z			; glm::tvec3<float,0>::tvec3<float,0>
PUBLIC	??0?$tvec3@M$0A@@glm@@QEAA@MMM@Z		; glm::tvec3<float,0>::tvec3<float,0>
PUBLIC	??$floor@M$0A@Utvec3@glm@@@glm@@YA?AU?$tvec3@M$0A@@0@AEBU10@@Z ; glm::floor<float,0,glm::tvec3>
PUBLIC	??$epsilonEqual@M$0A@Utvec3@glm@@@glm@@YA?AU?$tvec3@_N$0A@@0@AEBU?$tvec3@M$0A@@0@0AEBM@Z ; glm::epsilonEqual<float,0,glm::tvec3>
PUBLIC	?length@?$tvec3@_N$0A@@glm@@SAHXZ		; glm::tvec3<bool,0>::length
PUBLIC	??A?$tvec3@_N$0A@@glm@@QEAAAEA_NH@Z		; glm::tvec3<bool,0>::operator[]
PUBLIC	??A?$tvec3@_N$0A@@glm@@QEBAAEB_NH@Z		; glm::tvec3<bool,0>::operator[]
PUBLIC	??0?$tvec3@_N$0A@@glm@@QEAA@W4ctor@1@@Z		; glm::tvec3<bool,0>::tvec3<bool,0>
PUBLIC	??0?$tvec3@_N$0A@@glm@@QEAA@_N@Z		; glm::tvec3<bool,0>::tvec3<bool,0>
PUBLIC	??0?$tvec3@_N$0A@@glm@@QEAA@_N00@Z		; glm::tvec3<bool,0>::tvec3<bool,0>
PUBLIC	??$all@$0A@Utvec3@glm@@@glm@@YA_NAEBU?$tvec3@_N$0A@@0@@Z ; glm::all<0,glm::tvec3>
PUBLIC	?length@?$tvec3@N$0A@@glm@@SAHXZ		; glm::tvec3<double,0>::length
PUBLIC	??A?$tvec3@N$0A@@glm@@QEBAAEBNH@Z		; glm::tvec3<double,0>::operator[]
PUBLIC	??0?$tvec3@N$0A@@glm@@QEAA@N@Z			; glm::tvec3<double,0>::tvec3<double,0>
PUBLIC	??0?$tvec3@N$0A@@glm@@QEAA@NNN@Z		; glm::tvec3<double,0>::tvec3<double,0>
PUBLIC	??$floor@N$0A@Utvec3@glm@@@glm@@YA?AU?$tvec3@N$0A@@0@AEBU10@@Z ; glm::floor<double,0,glm::tvec3>
PUBLIC	??$epsilonEqual@N$0A@Utvec3@glm@@@glm@@YA?AU?$tvec3@_N$0A@@0@AEBU?$tvec3@N$0A@@0@0AEBN@Z ; glm::epsilonEqual<double,0,glm::tvec3>
PUBLIC	??$floor@M$0A@Utvec4@glm@@@glm@@YA?AU?$tvec4@M$0A@@0@AEBU10@@Z ; glm::floor<float,0,glm::tvec4>
PUBLIC	??$epsilonEqual@M$0A@Utvec4@glm@@@glm@@YA?AU?$tvec4@_N$0A@@0@AEBU?$tvec4@M$0A@@0@0AEBM@Z ; glm::epsilonEqual<float,0,glm::tvec4>
PUBLIC	?length@?$tvec4@_N$0A@@glm@@SAHXZ		; glm::tvec4<bool,0>::length
PUBLIC	??A?$tvec4@_N$0A@@glm@@QEAAAEA_NH@Z		; glm::tvec4<bool,0>::operator[]
PUBLIC	??A?$tvec4@_N$0A@@glm@@QEBAAEB_NH@Z		; glm::tvec4<bool,0>::operator[]
PUBLIC	??0?$tvec4@_N$0A@@glm@@QEAA@W4ctor@1@@Z		; glm::tvec4<bool,0>::tvec4<bool,0>
PUBLIC	??0?$tvec4@_N$0A@@glm@@QEAA@_N@Z		; glm::tvec4<bool,0>::tvec4<bool,0>
PUBLIC	??0?$tvec4@_N$0A@@glm@@QEAA@_N000@Z		; glm::tvec4<bool,0>::tvec4<bool,0>
PUBLIC	??$all@$0A@Utvec4@glm@@@glm@@YA_NAEBU?$tvec4@_N$0A@@0@@Z ; glm::all<0,glm::tvec4>
PUBLIC	?length@?$tvec4@N$0A@@glm@@SAHXZ		; glm::tvec4<double,0>::length
PUBLIC	??A?$tvec4@N$0A@@glm@@QEBAAEBNH@Z		; glm::tvec4<double,0>::operator[]
PUBLIC	??0?$tvec4@N$0A@@glm@@QEAA@N@Z			; glm::tvec4<double,0>::tvec4<double,0>
PUBLIC	??0?$tvec4@N$0A@@glm@@QEAA@NNNN@Z		; glm::tvec4<double,0>::tvec4<double,0>
PUBLIC	??$floor@N$0A@Utvec4@glm@@@glm@@YA?AU?$tvec4@N$0A@@0@AEBU10@@Z ; glm::floor<double,0,glm::tvec4>
PUBLIC	??$epsilonEqual@N$0A@Utvec4@glm@@@glm@@YA?AU?$tvec4@_N$0A@@0@AEBU?$tvec4@N$0A@@0@0AEBN@Z ; glm::epsilonEqual<double,0,glm::tvec4>
PUBLIC	?test@modf_@@YAHXZ				; modf_::test
PUBLIC	??$modf@M@glm@@YAMMAEAM@Z			; glm::modf<float>
PUBLIC	??$modf@M$0A@@glm@@YA?AU?$tvec4@M$0A@@0@AEBU10@AEAU10@@Z ; glm::modf<float,0>
PUBLIC	??$?8M$0A@@glm@@YA_NAEBU?$tvec4@M$0A@@0@0@Z	; glm::operator==<float,0>
PUBLIC	??$modf@N$0A@@glm@@YA?AU?$tvec4@N$0A@@0@AEBU10@AEAU10@@Z ; glm::modf<double,0>
PUBLIC	??$?8N$0A@@glm@@YA_NAEBU?$tvec4@N$0A@@0@0@Z	; glm::operator==<double,0>
PUBLIC	??$modf@N@glm@@YANNAEAN@Z			; glm::modf<double>
PUBLIC	?test@mod_@@YAHXZ				; mod_::test
PUBLIC	??$mod@M@glm@@YAMMM@Z				; glm::mod<float>
PUBLIC	??$mod@M$0A@Utvec4@glm@@@glm@@YA?AU?$tvec4@M$0A@@0@AEBU10@M@Z ; glm::mod<float,0,glm::tvec4>
PUBLIC	??$mod@M$0A@Utvec4@glm@@@glm@@YA?AU?$tvec4@M$0A@@0@AEBU10@0@Z ; glm::mod<float,0,glm::tvec4>
PUBLIC	?test@floatBitsToInt@@YAHXZ			; floatBitsToInt::test
PUBLIC	?length@?$tvec2@H$0A@@glm@@SAHXZ		; glm::tvec2<int,0>::length
PUBLIC	??A?$tvec2@H$0A@@glm@@QEBAAEBHH@Z		; glm::tvec2<int,0>::operator[]
PUBLIC	??0?$tvec2@H$0A@@glm@@QEAA@XZ			; glm::tvec2<int,0>::tvec2<int,0>
PUBLIC	??0?$tvec2@H$0A@@glm@@QEAA@HH@Z			; glm::tvec2<int,0>::tvec2<int,0>
PUBLIC	??$floatBitsToInt@Utvec2@glm@@$0A@@glm@@YA?AU?$tvec2@H$0A@@0@AEBU?$tvec2@M$0A@@0@@Z ; glm::floatBitsToInt<glm::tvec2,0>
PUBLIC	??$intBitsToFloat@Utvec2@glm@@$0A@@glm@@YA?AU?$tvec2@M$0A@@0@AEBU?$tvec2@H$0A@@0@@Z ; glm::intBitsToFloat<glm::tvec2,0>
PUBLIC	??$?8M$0A@@glm@@YA_NAEBU?$tvec2@M$0A@@0@0@Z	; glm::operator==<float,0>
PUBLIC	?length@?$tvec3@H$0A@@glm@@SAHXZ		; glm::tvec3<int,0>::length
PUBLIC	??A?$tvec3@H$0A@@glm@@QEBAAEBHH@Z		; glm::tvec3<int,0>::operator[]
PUBLIC	??0?$tvec3@H$0A@@glm@@QEAA@XZ			; glm::tvec3<int,0>::tvec3<int,0>
PUBLIC	??0?$tvec3@H$0A@@glm@@QEAA@HHH@Z		; glm::tvec3<int,0>::tvec3<int,0>
PUBLIC	??$floatBitsToInt@Utvec3@glm@@$0A@@glm@@YA?AU?$tvec3@H$0A@@0@AEBU?$tvec3@M$0A@@0@@Z ; glm::floatBitsToInt<glm::tvec3,0>
PUBLIC	??$intBitsToFloat@Utvec3@glm@@$0A@@glm@@YA?AU?$tvec3@M$0A@@0@AEBU?$tvec3@H$0A@@0@@Z ; glm::intBitsToFloat<glm::tvec3,0>
PUBLIC	??$?8M$0A@@glm@@YA_NAEBU?$tvec3@M$0A@@0@0@Z	; glm::operator==<float,0>
PUBLIC	?length@?$tvec4@H$0A@@glm@@SAHXZ		; glm::tvec4<int,0>::length
PUBLIC	??A?$tvec4@H$0A@@glm@@QEBAAEBHH@Z		; glm::tvec4<int,0>::operator[]
PUBLIC	??0?$tvec4@H$0A@@glm@@QEAA@XZ			; glm::tvec4<int,0>::tvec4<int,0>
PUBLIC	??0?$tvec4@H$0A@@glm@@QEAA@H@Z			; glm::tvec4<int,0>::tvec4<int,0>
PUBLIC	??0?$tvec4@H$0A@@glm@@QEAA@HHHH@Z		; glm::tvec4<int,0>::tvec4<int,0>
PUBLIC	??$floatBitsToInt@Utvec4@glm@@$0A@@glm@@YA?AU?$tvec4@H$0A@@0@AEBU?$tvec4@M$0A@@0@@Z ; glm::floatBitsToInt<glm::tvec4,0>
PUBLIC	??$intBitsToFloat@Utvec4@glm@@$0A@@glm@@YA?AU?$tvec4@M$0A@@0@AEBU?$tvec4@H$0A@@0@@Z ; glm::intBitsToFloat<glm::tvec4,0>
PUBLIC	?test@floatBitsToUint@@YAHXZ			; floatBitsToUint::test
PUBLIC	??$floatBitsToUint@Utvec2@glm@@$0A@@glm@@YA?AU?$tvec2@I$0A@@0@AEBU?$tvec2@M$0A@@0@@Z ; glm::floatBitsToUint<glm::tvec2,0>
PUBLIC	??$uintBitsToFloat@Utvec2@glm@@$0A@@glm@@YA?AU?$tvec2@M$0A@@0@AEBU?$tvec2@I$0A@@0@@Z ; glm::uintBitsToFloat<glm::tvec2,0>
PUBLIC	??$floatBitsToUint@Utvec3@glm@@$0A@@glm@@YA?AU?$tvec3@I$0A@@0@AEBU?$tvec3@M$0A@@0@@Z ; glm::floatBitsToUint<glm::tvec3,0>
PUBLIC	??$uintBitsToFloat@Utvec3@glm@@$0A@@glm@@YA?AU?$tvec3@M$0A@@0@AEBU?$tvec3@I$0A@@0@@Z ; glm::uintBitsToFloat<glm::tvec3,0>
PUBLIC	??$floatBitsToUint@Utvec4@glm@@$0A@@glm@@YA?AU?$tvec4@I$0A@@0@AEBU?$tvec4@M$0A@@0@@Z ; glm::floatBitsToUint<glm::tvec4,0>
PUBLIC	??$uintBitsToFloat@Utvec4@glm@@$0A@@glm@@YA?AU?$tvec4@M$0A@@0@AEBU?$tvec4@I$0A@@0@@Z ; glm::uintBitsToFloat<glm::tvec4,0>
PUBLIC	?test@min_@@YAHXZ				; min_::test
PUBLIC	??$min@M$0A@Utvec1@glm@@@glm@@YA?AU?$tvec1@M$0A@@0@AEBU10@0@Z ; glm::min<float,0,glm::tvec1>
PUBLIC	??$min@M$0A@Utvec2@glm@@@glm@@YA?AU?$tvec2@M$0A@@0@AEBU10@0@Z ; glm::min<float,0,glm::tvec2>
PUBLIC	??$min@M$0A@Utvec2@glm@@@glm@@YA?AU?$tvec2@M$0A@@0@AEBU10@M@Z ; glm::min<float,0,glm::tvec2>
PUBLIC	??$equal@M$0A@Utvec2@glm@@@glm@@YA?AU?$tvec2@_N$0A@@0@AEBU?$tvec2@M$0A@@0@0@Z ; glm::equal<float,0,glm::tvec2>
PUBLIC	??$min@M$0A@Utvec3@glm@@@glm@@YA?AU?$tvec3@M$0A@@0@AEBU10@0@Z ; glm::min<float,0,glm::tvec3>
PUBLIC	??$min@M$0A@Utvec3@glm@@@glm@@YA?AU?$tvec3@M$0A@@0@AEBU10@M@Z ; glm::min<float,0,glm::tvec3>
PUBLIC	??$equal@M$0A@Utvec3@glm@@@glm@@YA?AU?$tvec3@_N$0A@@0@AEBU?$tvec3@M$0A@@0@0@Z ; glm::equal<float,0,glm::tvec3>
PUBLIC	??$min@M$0A@Utvec4@glm@@@glm@@YA?AU?$tvec4@M$0A@@0@AEBU10@0@Z ; glm::min<float,0,glm::tvec4>
PUBLIC	??$min@M$0A@Utvec4@glm@@@glm@@YA?AU?$tvec4@M$0A@@0@AEBU10@M@Z ; glm::min<float,0,glm::tvec4>
PUBLIC	??$equal@M$0A@Utvec4@glm@@@glm@@YA?AU?$tvec4@_N$0A@@0@AEBU?$tvec4@M$0A@@0@0@Z ; glm::equal<float,0,glm::tvec4>
PUBLIC	?test@max_@@YAHXZ				; max_::test
PUBLIC	??$max@M$0A@Utvec1@glm@@@glm@@YA?AU?$tvec1@M$0A@@0@AEBU10@0@Z ; glm::max<float,0,glm::tvec1>
PUBLIC	??$max@M$0A@Utvec2@glm@@@glm@@YA?AU?$tvec2@M$0A@@0@AEBU10@0@Z ; glm::max<float,0,glm::tvec2>
PUBLIC	??$max@M$0A@Utvec2@glm@@@glm@@YA?AU?$tvec2@M$0A@@0@AEBU10@M@Z ; glm::max<float,0,glm::tvec2>
PUBLIC	??$max@M$0A@Utvec3@glm@@@glm@@YA?AU?$tvec3@M$0A@@0@AEBU10@0@Z ; glm::max<float,0,glm::tvec3>
PUBLIC	??$max@M$0A@Utvec3@glm@@@glm@@YA?AU?$tvec3@M$0A@@0@AEBU10@M@Z ; glm::max<float,0,glm::tvec3>
PUBLIC	??$max@M$0A@Utvec4@glm@@@glm@@YA?AU?$tvec4@M$0A@@0@AEBU10@0@Z ; glm::max<float,0,glm::tvec4>
PUBLIC	??$max@M$0A@Utvec4@glm@@@glm@@YA?AU?$tvec4@M$0A@@0@AEBU10@M@Z ; glm::max<float,0,glm::tvec4>
PUBLIC	?test@clamp_@@YAHXZ				; clamp_::test
PUBLIC	?test@mix_@@YAHXZ				; mix_::test
PUBLIC	??$mix@M_N@glm@@YAMMM_N@Z			; glm::mix<float,bool>
PUBLIC	??$epsilon@M@glm@@YAMXZ				; glm::epsilon<float>
PUBLIC	??$mix@MM@glm@@YAMMMM@Z				; glm::mix<float,float>
PUBLIC	??$mix@M_N$0A@Utvec2@glm@@@glm@@YA?AU?$tvec2@M$0A@@0@AEBU10@0_N@Z ; glm::mix<float,bool,0,glm::tvec2>
PUBLIC	??$mix@M_N$0A@Utvec2@glm@@@glm@@YA?AU?$tvec2@M$0A@@0@AEBU10@0AEBU?$tvec2@_N$0A@@0@@Z ; glm::mix<float,bool,0,glm::tvec2>
PUBLIC	??$mix@M_N$0A@Utvec3@glm@@@glm@@YA?AU?$tvec3@M$0A@@0@AEBU10@0_N@Z ; glm::mix<float,bool,0,glm::tvec3>
PUBLIC	??$mix@M_N$0A@Utvec3@glm@@@glm@@YA?AU?$tvec3@M$0A@@0@AEBU10@0AEBU?$tvec3@_N$0A@@0@@Z ; glm::mix<float,bool,0,glm::tvec3>
PUBLIC	??$mix@M_N$0A@Utvec4@glm@@@glm@@YA?AU?$tvec4@M$0A@@0@AEBU10@0_N@Z ; glm::mix<float,bool,0,glm::tvec4>
PUBLIC	??$mix@M_N$0A@Utvec4@glm@@@glm@@YA?AU?$tvec4@M$0A@@0@AEBU10@0AEBU?$tvec4@_N$0A@@0@@Z ; glm::mix<float,bool,0,glm::tvec4>
PUBLIC	?test@step_@@YAHXZ				; step_::test
PUBLIC	??$step@Utvec4@glm@@M$0A@@glm@@YA?AU?$tvec4@M$0A@@0@MAEBU10@@Z ; glm::step<glm::tvec4,float,0>
PUBLIC	??$step@Utvec4@glm@@M$0A@@glm@@YA?AU?$tvec4@M$0A@@0@AEBU10@0@Z ; glm::step<glm::tvec4,float,0>
PUBLIC	?test@round_@@YAHXZ				; round_::test
PUBLIC	?test@roundEven@@YAHXZ				; roundEven::test
PUBLIC	??$roundEven@M@glm@@YAMM@Z			; glm::roundEven<float>
PUBLIC	?test@isnan_@@YAHXZ				; isnan_::test
PUBLIC	??$isnan@N@@YA_NN@Z				; isnan<double>
PUBLIC	??$isnan@N$0A@Utvec2@glm@@@glm@@YA?AU?$tvec2@_N$0A@@0@AEBU?$tvec2@N$0A@@0@@Z ; glm::isnan<double,0,glm::tvec2>
PUBLIC	??$any@$0A@Utvec2@glm@@@glm@@YA_NAEBU?$tvec2@_N$0A@@0@@Z ; glm::any<0,glm::tvec2>
PUBLIC	??$isnan@N$0A@Utvec3@glm@@@glm@@YA?AU?$tvec3@_N$0A@@0@AEBU?$tvec3@N$0A@@0@@Z ; glm::isnan<double,0,glm::tvec3>
PUBLIC	??$any@$0A@Utvec3@glm@@@glm@@YA_NAEBU?$tvec3@_N$0A@@0@@Z ; glm::any<0,glm::tvec3>
PUBLIC	??$isnan@N$0A@Utvec4@glm@@@glm@@YA?AU?$tvec4@_N$0A@@0@AEBU?$tvec4@N$0A@@0@@Z ; glm::isnan<double,0,glm::tvec4>
PUBLIC	??$any@$0A@Utvec4@glm@@@glm@@YA_NAEBU?$tvec4@_N$0A@@0@@Z ; glm::any<0,glm::tvec4>
PUBLIC	??$isnan@M@@YA_NM@Z				; isnan<float>
PUBLIC	??$isnan@M$0A@Utvec2@glm@@@glm@@YA?AU?$tvec2@_N$0A@@0@AEBU?$tvec2@M$0A@@0@@Z ; glm::isnan<float,0,glm::tvec2>
PUBLIC	??$isnan@M$0A@Utvec3@glm@@@glm@@YA?AU?$tvec3@_N$0A@@0@AEBU?$tvec3@M$0A@@0@@Z ; glm::isnan<float,0,glm::tvec3>
PUBLIC	??$isnan@M$0A@Utvec4@glm@@@glm@@YA?AU?$tvec4@_N$0A@@0@AEBU?$tvec4@M$0A@@0@@Z ; glm::isnan<float,0,glm::tvec4>
PUBLIC	?test@isinf_@@YAHXZ				; isinf_::test
PUBLIC	??$isinf@N@@YA_NN@Z				; isinf<double>
PUBLIC	??$isinf@N$0A@Utvec2@glm@@@glm@@YA?AU?$tvec2@_N$0A@@0@AEBU?$tvec2@N$0A@@0@@Z ; glm::isinf<double,0,glm::tvec2>
PUBLIC	??$isinf@N$0A@Utvec3@glm@@@glm@@YA?AU?$tvec3@_N$0A@@0@AEBU?$tvec3@N$0A@@0@@Z ; glm::isinf<double,0,glm::tvec3>
PUBLIC	??$isinf@N$0A@Utvec4@glm@@@glm@@YA?AU?$tvec4@_N$0A@@0@AEBU?$tvec4@N$0A@@0@@Z ; glm::isinf<double,0,glm::tvec4>
PUBLIC	??$isinf@M@@YA_NM@Z				; isinf<float>
PUBLIC	??$isinf@M$0A@Utvec2@glm@@@glm@@YA?AU?$tvec2@_N$0A@@0@AEBU?$tvec2@M$0A@@0@@Z ; glm::isinf<float,0,glm::tvec2>
PUBLIC	??$isinf@M$0A@Utvec3@glm@@@glm@@YA?AU?$tvec3@_N$0A@@0@AEBU?$tvec3@M$0A@@0@@Z ; glm::isinf<float,0,glm::tvec3>
PUBLIC	??$isinf@M$0A@Utvec4@glm@@@glm@@YA?AU?$tvec4@_N$0A@@0@AEBU?$tvec4@M$0A@@0@@Z ; glm::isinf<float,0,glm::tvec4>
PUBLIC	?test_int32@sign@@YAHXZ				; sign::test_int32
PUBLIC	??$sign@H@glm@@YAHH@Z				; glm::sign<int>
PUBLIC	??$sign_cmp@H@sign@@YAHH@Z			; sign::sign_cmp<int>
PUBLIC	??$sign_if@H@sign@@YAHH@Z			; sign::sign_if<int>
PUBLIC	??$sign_alu1@H@sign@@YAHH@Z			; sign::sign_alu1<int>
PUBLIC	??$sign_alu2@H@sign@@YAHH@Z			; sign::sign_alu2<int>
PUBLIC	?test_i32vec4@sign@@YAHXZ			; sign::test_i32vec4
PUBLIC	??$sign@H$0A@Utvec4@glm@@@glm@@YA?AU?$tvec4@H$0A@@0@AEBU10@@Z ; glm::sign<int,0,glm::tvec4>
PUBLIC	??$equal@H$0A@Utvec4@glm@@@glm@@YA?AU?$tvec4@_N$0A@@0@AEBU?$tvec4@H$0A@@0@0@Z ; glm::equal<int,0,glm::tvec4>
PUBLIC	?test_f32vec4@sign@@YAHXZ			; sign::test_f32vec4
PUBLIC	??$sign@M$0A@Utvec4@glm@@@glm@@YA?AU?$tvec4@M$0A@@0@AEBU10@@Z ; glm::sign<float,0,glm::tvec4>
PUBLIC	?test@sign@@YAHXZ				; sign::test
PUBLIC	?perf_rand@sign@@YAH_K@Z			; sign::perf_rand
PUBLIC	??0?$allocator@H@std@@QEAA@XZ			; std::allocator<int>::allocator<int>
PUBLIC	?deallocate@?$allocator@H@std@@QEAAXQEAH_K@Z	; std::allocator<int>::deallocate
PUBLIC	?allocate@?$allocator@H@std@@QEAAPEAH_K@Z	; std::allocator<int>::allocate
PUBLIC	?max_size@?$_Default_allocator_traits@V?$allocator@H@std@@@std@@SA_KAEBV?$allocator@H@2@@Z ; std::_Default_allocator_traits<std::allocator<int> >::max_size
PUBLIC	??0?$vector@HV?$allocator@H@std@@@std@@QEAA@XZ	; std::vector<int,std::allocator<int> >::vector<int,std::allocator<int> >
PUBLIC	??1?$vector@HV?$allocator@H@std@@@std@@QEAA@XZ	; std::vector<int,std::allocator<int> >::~vector<int,std::allocator<int> >
PUBLIC	?resize@?$vector@HV?$allocator@H@std@@@std@@QEAAX_K@Z ; std::vector<int,std::allocator<int> >::resize
PUBLIC	?max_size@?$vector@HV?$allocator@H@std@@@std@@QEBA_KXZ ; std::vector<int,std::allocator<int> >::max_size
PUBLIC	?capacity@?$vector@HV?$allocator@H@std@@@std@@QEBA_KXZ ; std::vector<int,std::allocator<int> >::capacity
PUBLIC	??A?$vector@HV?$allocator@H@std@@@std@@QEAAAEAH_K@Z ; std::vector<int,std::allocator<int> >::operator[]
PUBLIC	?_Calculate_growth@?$vector@HV?$allocator@H@std@@@std@@AEBA_K_K@Z ; std::vector<int,std::allocator<int> >::_Calculate_growth
PUBLIC	?_Change_array@?$vector@HV?$allocator@H@std@@@std@@AEAAXQEAH_K1@Z ; std::vector<int,std::allocator<int> >::_Change_array
PUBLIC	?_Tidy@?$vector@HV?$allocator@H@std@@@std@@AEAAXXZ ; std::vector<int,std::allocator<int> >::_Tidy
PUBLIC	?_Xlength@?$vector@HV?$allocator@H@std@@@std@@CAXXZ ; std::vector<int,std::allocator<int> >::_Xlength
PUBLIC	?_Orphan_range_unlocked@?$vector@HV?$allocator@H@std@@@std@@AEBAXPEAH0@Z ; std::vector<int,std::allocator<int> >::_Orphan_range_unlocked
PUBLIC	?_Orphan_range_locked@?$vector@HV?$allocator@H@std@@@std@@AEBAXPEAH0@Z ; std::vector<int,std::allocator<int> >::_Orphan_range_locked
PUBLIC	?_Orphan_range@?$vector@HV?$allocator@H@std@@@std@@AEBAXPEAH0@Z ; std::vector<int,std::allocator<int> >::_Orphan_range
PUBLIC	?_Getal@?$vector@HV?$allocator@H@std@@@std@@AEAAAEAV?$allocator@H@2@XZ ; std::vector<int,std::allocator<int> >::_Getal
PUBLIC	?_Getal@?$vector@HV?$allocator@H@std@@@std@@AEBAAEBV?$allocator@H@2@XZ ; std::vector<int,std::allocator<int> >::_Getal
PUBLIC	??0?$_Vector_val@U?$_Simple_types@H@std@@@std@@QEAA@XZ ; std::_Vector_val<std::_Simple_types<int> >::_Vector_val<std::_Simple_types<int> >
PUBLIC	?_Get_first@?$_Compressed_pair@V?$allocator@H@std@@V?$_Vector_val@U?$_Simple_types@H@std@@@2@$00@std@@QEAAAEAV?$allocator@H@2@XZ ; std::_Compressed_pair<std::allocator<int>,std::_Vector_val<std::_Simple_types<int> >,1>::_Get_first
PUBLIC	?_Get_first@?$_Compressed_pair@V?$allocator@H@std@@V?$_Vector_val@U?$_Simple_types@H@std@@@2@$00@std@@QEBAAEBV?$allocator@H@2@XZ ; std::_Compressed_pair<std::allocator<int>,std::_Vector_val<std::_Simple_types<int> >,1>::_Get_first
PUBLIC	??$linearRand@M@glm@@YAMMM@Z			; glm::linearRand<float>
PUBLIC	??$sign_sub@H@sign@@YAHH@Z			; sign::sign_sub<int>
PUBLIC	?perf_linear@sign@@YAH_K@Z			; sign::perf_linear
PUBLIC	?perf_linear_cal@sign@@YAH_K@Z			; sign::perf_linear_cal
PUBLIC	?perf@sign@@YAH_K@Z				; sign::perf
PUBLIC	?test@frexp_@@YAHXZ				; frexp_::test
PUBLIC	?length@?$tvec1@H$0A@@glm@@SAHXZ		; glm::tvec1<int,0>::length
PUBLIC	??A?$tvec1@H$0A@@glm@@QEBAAEBHH@Z		; glm::tvec1<int,0>::operator[]
PUBLIC	??0?$tvec1@H$0A@@glm@@QEAA@XZ			; glm::tvec1<int,0>::tvec1<int,0>
PUBLIC	??0?$tvec1@H$0A@@glm@@QEAA@H@Z			; glm::tvec1<int,0>::tvec1<int,0>
PUBLIC	??$frexp@M$0A@@glm@@YA?AU?$tvec1@M$0A@@0@AEBU10@AEAU?$tvec1@H$0A@@0@@Z ; glm::frexp<float,0>
PUBLIC	??$equal@H$0A@Utvec1@glm@@@glm@@YA?AU?$tvec1@_N$0A@@0@AEBU?$tvec1@H$0A@@0@0@Z ; glm::equal<int,0,glm::tvec1>
PUBLIC	??$?0HN@?$tvec2@M$0A@@glm@@QEAA@HN@Z		; glm::tvec2<float,0>::tvec2<float,0><int,double>
PUBLIC	??$frexp@M$0A@@glm@@YA?AU?$tvec2@M$0A@@0@AEBU10@AEAU?$tvec2@H$0A@@0@@Z ; glm::frexp<float,0>
PUBLIC	??$?0NN@?$tvec2@M$0A@@glm@@QEAA@NN@Z		; glm::tvec2<float,0>::tvec2<float,0><double,double>
PUBLIC	??$equal@H$0A@Utvec2@glm@@@glm@@YA?AU?$tvec2@_N$0A@@0@AEBU?$tvec2@H$0A@@0@0@Z ; glm::equal<int,0,glm::tvec2>
PUBLIC	??$?0HNH@?$tvec3@M$0A@@glm@@QEAA@HNH@Z		; glm::tvec3<float,0>::tvec3<float,0><int,double,int>
PUBLIC	??$frexp@M$0A@@glm@@YA?AU?$tvec3@M$0A@@0@AEBU10@AEAU?$tvec3@H$0A@@0@@Z ; glm::frexp<float,0>
PUBLIC	??$?0NNN@?$tvec3@M$0A@@glm@@QEAA@NNN@Z		; glm::tvec3<float,0>::tvec3<float,0><double,double,double>
PUBLIC	??$equal@H$0A@Utvec3@glm@@@glm@@YA?AU?$tvec3@_N$0A@@0@AEBU?$tvec3@H$0A@@0@0@Z ; glm::equal<int,0,glm::tvec3>
PUBLIC	??$?0HNHN@?$tvec4@M$0A@@glm@@QEAA@HNHN@Z	; glm::tvec4<float,0>::tvec4<float,0><int,double,int,double>
PUBLIC	??$frexp@M$0A@@glm@@YA?AU?$tvec4@M$0A@@0@AEBU10@AEAU?$tvec4@H$0A@@0@@Z ; glm::frexp<float,0>
PUBLIC	??$?0NNNN@?$tvec4@M$0A@@glm@@QEAA@NNNN@Z	; glm::tvec4<float,0>::tvec4<float,0><double,double,double,double>
PUBLIC	?test@ldexp_@@YAHXZ				; ldexp_::test
PUBLIC	??$ldexp@M$0A@@glm@@YA?AU?$tvec1@M$0A@@0@AEBU10@AEBU?$tvec1@H$0A@@0@@Z ; glm::ldexp<float,0>
PUBLIC	??$ldexp@M$0A@@glm@@YA?AU?$tvec2@M$0A@@0@AEBU10@AEBU?$tvec2@H$0A@@0@@Z ; glm::ldexp<float,0>
PUBLIC	??$ldexp@M$0A@@glm@@YA?AU?$tvec3@M$0A@@0@AEBU10@AEBU?$tvec3@H$0A@@0@@Z ; glm::ldexp<float,0>
PUBLIC	??$ldexp@M$0A@@glm@@YA?AU?$tvec4@M$0A@@0@AEBU10@AEBU?$tvec4@H$0A@@0@@Z ; glm::ldexp<float,0>
PUBLIC	main
PUBLIC	??$?SH$0A@@glm@@YA?AU?$tvec4@H$0A@@0@AEBU10@@Z	; glm::operator~<int,0>
PUBLIC	??$_Resize@U_Value_init_tag@std@@@?$vector@HV?$allocator@H@std@@@std@@AEAAX_KAEBU_Value_init_tag@1@@Z ; std::vector<int,std::allocator<int> >::_Resize<std::_Value_init_tag>
PUBLIC	?allocate@?$allocator@U_Container_proxy@std@@@std@@QEAAPEAU_Container_proxy@2@_K@Z ; std::allocator<std::_Container_proxy>::allocate
PUBLIC	??$?0H@?$allocator@U_Container_proxy@std@@@std@@QEAA@AEBV?$allocator@H@1@@Z ; std::allocator<std::_Container_proxy>::allocator<std::_Container_proxy><int>
PUBLIC	??$exchange@PEAU_Container_proxy@std@@$$T@std@@YAPEAU_Container_proxy@0@AEAPEAU10@$$QEA$$T@Z ; std::exchange<std::_Container_proxy *,std::nullptr_t>
PUBLIC	??$_Delete_plain_internal@V?$allocator@U_Container_proxy@std@@@std@@@std@@YAXAEAV?$allocator@U_Container_proxy@std@@@0@QEAU_Container_proxy@0@@Z ; std::_Delete_plain_internal<std::allocator<std::_Container_proxy> >
PUBLIC	??$?0$$V@?$_Compressed_pair@V?$allocator@H@std@@V?$_Vector_val@U?$_Simple_types@H@std@@@2@$00@std@@QEAA@U_Zero_then_variadic_args_t@1@@Z ; std::_Compressed_pair<std::allocator<int>,std::_Vector_val<std::_Simple_types<int> >,1>::_Compressed_pair<std::allocator<int>,std::_Vector_val<std::_Simple_types<int> >,1><>
PUBLIC	??$_Alloc_proxy@V?$allocator@U_Container_proxy@std@@@std@@@_Container_base12@std@@QEAAX$$QEAV?$allocator@U_Container_proxy@std@@@1@@Z ; std::_Container_base12::_Alloc_proxy<std::allocator<std::_Container_proxy> >
PUBLIC	??$_Destroy_range@V?$allocator@H@std@@@std@@YAXPEAHQEAHAEAV?$allocator@H@0@@Z ; std::_Destroy_range<std::allocator<int> >
PUBLIC	??$_Deallocate@$0BA@$0A@@std@@YAXPEAX_K@Z	; std::_Deallocate<16,0>
PUBLIC	?call@?$compute_abs@M$00@detail@glm@@SAMM@Z	; glm::detail::compute_abs<float,1>::call
PUBLIC	?call@?$compute_abs@N$00@detail@glm@@SANN@Z	; glm::detail::compute_abs<double,1>::call
PUBLIC	?call@?$compute_floor@M$0A@Utvec1@glm@@$0A@@detail@glm@@SA?AU?$tvec1@M$0A@@3@AEBU43@@Z ; glm::detail::compute_floor<float,0,glm::tvec1,0>::call
PUBLIC	??$?GM$0A@@glm@@YA?AU?$tvec1@M$0A@@0@AEBU10@0@Z	; glm::operator-<float,0>
PUBLIC	??$abs@M$0A@Utvec1@glm@@@glm@@YA?AU?$tvec1@M$0A@@0@AEBU10@@Z ; glm::abs<float,0,glm::tvec1>
PUBLIC	??$lessThan@M$0A@Utvec1@glm@@@glm@@YA?AU?$tvec1@_N$0A@@0@AEBU?$tvec1@M$0A@@0@0@Z ; glm::lessThan<float,0,glm::tvec1>
PUBLIC	?call@?$compute_floor@N$0A@Utvec1@glm@@$0A@@detail@glm@@SA?AU?$tvec1@N$0A@@3@AEBU43@@Z ; glm::detail::compute_floor<double,0,glm::tvec1,0>::call
PUBLIC	??$?GN$0A@@glm@@YA?AU?$tvec1@N$0A@@0@AEBU10@0@Z	; glm::operator-<double,0>
PUBLIC	??$abs@N$0A@Utvec1@glm@@@glm@@YA?AU?$tvec1@N$0A@@0@AEBU10@@Z ; glm::abs<double,0,glm::tvec1>
PUBLIC	??$lessThan@N$0A@Utvec1@glm@@@glm@@YA?AU?$tvec1@_N$0A@@0@AEBU?$tvec1@N$0A@@0@0@Z ; glm::lessThan<double,0,glm::tvec1>
PUBLIC	?call@?$compute_floor@M$0A@Utvec2@glm@@$0A@@detail@glm@@SA?AU?$tvec2@M$0A@@3@AEBU43@@Z ; glm::detail::compute_floor<float,0,glm::tvec2,0>::call
PUBLIC	??$?GM$0A@@glm@@YA?AU?$tvec2@M$0A@@0@AEBU10@0@Z	; glm::operator-<float,0>
PUBLIC	??$abs@M$0A@Utvec2@glm@@@glm@@YA?AU?$tvec2@M$0A@@0@AEBU10@@Z ; glm::abs<float,0,glm::tvec2>
PUBLIC	??$lessThan@M$0A@Utvec2@glm@@@glm@@YA?AU?$tvec2@_N$0A@@0@AEBU?$tvec2@M$0A@@0@0@Z ; glm::lessThan<float,0,glm::tvec2>
PUBLIC	?call@?$compute_floor@N$0A@Utvec2@glm@@$0A@@detail@glm@@SA?AU?$tvec2@N$0A@@3@AEBU43@@Z ; glm::detail::compute_floor<double,0,glm::tvec2,0>::call
PUBLIC	??$?GN$0A@@glm@@YA?AU?$tvec2@N$0A@@0@AEBU10@0@Z	; glm::operator-<double,0>
PUBLIC	??$abs@N$0A@Utvec2@glm@@@glm@@YA?AU?$tvec2@N$0A@@0@AEBU10@@Z ; glm::abs<double,0,glm::tvec2>
PUBLIC	??$lessThan@N$0A@Utvec2@glm@@@glm@@YA?AU?$tvec2@_N$0A@@0@AEBU?$tvec2@N$0A@@0@0@Z ; glm::lessThan<double,0,glm::tvec2>
PUBLIC	?call@?$compute_floor@M$0A@Utvec3@glm@@$0A@@detail@glm@@SA?AU?$tvec3@M$0A@@3@AEBU43@@Z ; glm::detail::compute_floor<float,0,glm::tvec3,0>::call
PUBLIC	??$?GM$0A@@glm@@YA?AU?$tvec3@M$0A@@0@AEBU10@0@Z	; glm::operator-<float,0>
PUBLIC	??$abs@M$0A@Utvec3@glm@@@glm@@YA?AU?$tvec3@M$0A@@0@AEBU10@@Z ; glm::abs<float,0,glm::tvec3>
PUBLIC	??$lessThan@M$0A@Utvec3@glm@@@glm@@YA?AU?$tvec3@_N$0A@@0@AEBU?$tvec3@M$0A@@0@0@Z ; glm::lessThan<float,0,glm::tvec3>
PUBLIC	?call@?$compute_floor@N$0A@Utvec3@glm@@$0A@@detail@glm@@SA?AU?$tvec3@N$0A@@3@AEBU43@@Z ; glm::detail::compute_floor<double,0,glm::tvec3,0>::call
PUBLIC	??$?GN$0A@@glm@@YA?AU?$tvec3@N$0A@@0@AEBU10@0@Z	; glm::operator-<double,0>
PUBLIC	??$abs@N$0A@Utvec3@glm@@@glm@@YA?AU?$tvec3@N$0A@@0@AEBU10@@Z ; glm::abs<double,0,glm::tvec3>
PUBLIC	??$lessThan@N$0A@Utvec3@glm@@@glm@@YA?AU?$tvec3@_N$0A@@0@AEBU?$tvec3@N$0A@@0@0@Z ; glm::lessThan<double,0,glm::tvec3>
PUBLIC	?call@?$compute_floor@M$0A@Utvec4@glm@@$0A@@detail@glm@@SA?AU?$tvec4@M$0A@@3@AEBU43@@Z ; glm::detail::compute_floor<float,0,glm::tvec4,0>::call
PUBLIC	??$?GM$0A@@glm@@YA?AU?$tvec4@M$0A@@0@AEBU10@0@Z	; glm::operator-<float,0>
PUBLIC	??$abs@M$0A@Utvec4@glm@@@glm@@YA?AU?$tvec4@M$0A@@0@AEBU10@@Z ; glm::abs<float,0,glm::tvec4>
PUBLIC	??$lessThan@M$0A@Utvec4@glm@@@glm@@YA?AU?$tvec4@_N$0A@@0@AEBU?$tvec4@M$0A@@0@0@Z ; glm::lessThan<float,0,glm::tvec4>
PUBLIC	?call@?$compute_floor@N$0A@Utvec4@glm@@$0A@@detail@glm@@SA?AU?$tvec4@N$0A@@3@AEBU43@@Z ; glm::detail::compute_floor<double,0,glm::tvec4,0>::call
PUBLIC	??$?GN$0A@@glm@@YA?AU?$tvec4@N$0A@@0@AEBU10@0@Z	; glm::operator-<double,0>
PUBLIC	??$abs@N$0A@Utvec4@glm@@@glm@@YA?AU?$tvec4@N$0A@@0@AEBU10@@Z ; glm::abs<double,0,glm::tvec4>
PUBLIC	??$lessThan@N$0A@Utvec4@glm@@@glm@@YA?AU?$tvec4@_N$0A@@0@AEBU?$tvec4@N$0A@@0@0@Z ; glm::lessThan<double,0,glm::tvec4>
PUBLIC	?call@?$compute_vec4_equal@M$0A@$0A@$0CA@$0A@@detail@glm@@SA_NAEBU?$tvec4@M$0A@@3@0@Z ; glm::detail::compute_vec4_equal<float,0,0,32,0>::call
PUBLIC	?call@?$compute_vec4_equal@N$0A@$0A@$0EA@$0A@@detail@glm@@SA_NAEBU?$tvec4@N$0A@@3@0@Z ; glm::detail::compute_vec4_equal<double,0,0,64,0>::call
PUBLIC	??$mod@M$0A@Utvec1@glm@@@glm@@YA?AU?$tvec1@M$0A@@0@AEBU10@M@Z ; glm::mod<float,0,glm::tvec1>
PUBLIC	?call@?$compute_mod@M$0A@Utvec4@glm@@$0A@@detail@glm@@SA?AU?$tvec4@M$0A@@3@AEBU43@0@Z ; glm::detail::compute_mod<float,0,glm::tvec4,0>::call
PUBLIC	?call@?$compute_min_vector@M$0A@Utvec1@glm@@$0A@@detail@glm@@SA?AU?$tvec1@M$0A@@3@AEBU43@0@Z ; glm::detail::compute_min_vector<float,0,glm::tvec1,0>::call
PUBLIC	?call@?$compute_min_vector@M$0A@Utvec2@glm@@$0A@@detail@glm@@SA?AU?$tvec2@M$0A@@3@AEBU43@0@Z ; glm::detail::compute_min_vector<float,0,glm::tvec2,0>::call
PUBLIC	?call@?$compute_min_vector@M$0A@Utvec3@glm@@$0A@@detail@glm@@SA?AU?$tvec3@M$0A@@3@AEBU43@0@Z ; glm::detail::compute_min_vector<float,0,glm::tvec3,0>::call
PUBLIC	?call@?$compute_min_vector@M$0A@Utvec4@glm@@$0A@@detail@glm@@SA?AU?$tvec4@M$0A@@3@AEBU43@0@Z ; glm::detail::compute_min_vector<float,0,glm::tvec4,0>::call
PUBLIC	?call@?$compute_max_vector@M$0A@Utvec1@glm@@$0A@@detail@glm@@SA?AU?$tvec1@M$0A@@3@AEBU43@0@Z ; glm::detail::compute_max_vector<float,0,glm::tvec1,0>::call
PUBLIC	?call@?$compute_max_vector@M$0A@Utvec2@glm@@$0A@@detail@glm@@SA?AU?$tvec2@M$0A@@3@AEBU43@0@Z ; glm::detail::compute_max_vector<float,0,glm::tvec2,0>::call
PUBLIC	?call@?$compute_max_vector@M$0A@Utvec3@glm@@$0A@@detail@glm@@SA?AU?$tvec3@M$0A@@3@AEBU43@0@Z ; glm::detail::compute_max_vector<float,0,glm::tvec3,0>::call
PUBLIC	?call@?$compute_max_vector@M$0A@Utvec4@glm@@$0A@@detail@glm@@SA?AU?$tvec4@M$0A@@3@AEBU43@0@Z ; glm::detail::compute_max_vector<float,0,glm::tvec4,0>::call
PUBLIC	?call@?$compute_mix@M_N@detail@glm@@SAMAEBM0AEB_N@Z ; glm::detail::compute_mix<float,bool>::call
PUBLIC	?call@?$compute_mix@MM@detail@glm@@SAMAEBM00@Z	; glm::detail::compute_mix<float,float>::call
PUBLIC	?call@?$compute_mix_scalar@M_N$0A@Utvec2@glm@@$0A@@detail@glm@@SA?AU?$tvec2@M$0A@@3@AEBU43@0AEB_N@Z ; glm::detail::compute_mix_scalar<float,bool,0,glm::tvec2,0>::call
PUBLIC	?call@?$compute_mix_vector@M_N$0A@Utvec2@glm@@$0A@@detail@glm@@SA?AU?$tvec2@M$0A@@3@AEBU43@0AEBU?$tvec2@_N$0A@@3@@Z ; glm::detail::compute_mix_vector<float,bool,0,glm::tvec2,0>::call
PUBLIC	?call@?$compute_mix_scalar@M_N$0A@Utvec3@glm@@$0A@@detail@glm@@SA?AU?$tvec3@M$0A@@3@AEBU43@0AEB_N@Z ; glm::detail::compute_mix_scalar<float,bool,0,glm::tvec3,0>::call
PUBLIC	?call@?$compute_mix_vector@M_N$0A@Utvec3@glm@@$0A@@detail@glm@@SA?AU?$tvec3@M$0A@@3@AEBU43@0AEBU?$tvec3@_N$0A@@3@@Z ; glm::detail::compute_mix_vector<float,bool,0,glm::tvec3,0>::call
PUBLIC	?call@?$compute_mix_scalar@M_N$0A@Utvec4@glm@@$0A@@detail@glm@@SA?AU?$tvec4@M$0A@@3@AEBU43@0AEB_N@Z ; glm::detail::compute_mix_scalar<float,bool,0,glm::tvec4,0>::call
PUBLIC	?call@?$compute_mix_vector@M_N$0A@Utvec4@glm@@$0A@@detail@glm@@SA?AU?$tvec4@M$0A@@3@AEBU43@0AEBU?$tvec4@_N$0A@@3@@Z ; glm::detail::compute_mix_vector<float,bool,0,glm::tvec4,0>::call
PUBLIC	?call@?$compute_step_vector@M$0A@Utvec4@glm@@$0A@@detail@glm@@SA?AU?$tvec4@M$0A@@3@AEBU43@0@Z ; glm::detail::compute_step_vector<float,0,glm::tvec4,0>::call
PUBLIC	??$fract@M@glm@@YAMM@Z				; glm::fract<float>
PUBLIC	?call@?$functor1@_NN$0A@Utvec2@glm@@@detail@glm@@SA?AU?$tvec2@_N$0A@@3@P6A_NN@ZAEBU?$tvec2@N$0A@@3@@Z ; glm::detail::functor1<bool,double,0,glm::tvec2>::call
PUBLIC	?call@?$functor1@_NN$0A@Utvec3@glm@@@detail@glm@@SA?AU?$tvec3@_N$0A@@3@P6A_NN@ZAEBU?$tvec3@N$0A@@3@@Z ; glm::detail::functor1<bool,double,0,glm::tvec3>::call
PUBLIC	?call@?$functor1@_NN$0A@Utvec4@glm@@@detail@glm@@SA?AU?$tvec4@_N$0A@@3@P6A_NN@ZAEBU?$tvec4@N$0A@@3@@Z ; glm::detail::functor1<bool,double,0,glm::tvec4>::call
PUBLIC	?call@?$functor1@_NM$0A@Utvec2@glm@@@detail@glm@@SA?AU?$tvec2@_N$0A@@3@P6A_NM@ZAEBU?$tvec2@M$0A@@3@@Z ; glm::detail::functor1<bool,float,0,glm::tvec2>::call
PUBLIC	?call@?$functor1@_NM$0A@Utvec3@glm@@@detail@glm@@SA?AU?$tvec3@_N$0A@@3@P6A_NM@ZAEBU?$tvec3@M$0A@@3@@Z ; glm::detail::functor1<bool,float,0,glm::tvec3>::call
PUBLIC	?call@?$functor1@_NM$0A@Utvec4@glm@@@detail@glm@@SA?AU?$tvec4@_N$0A@@3@P6A_NM@ZAEBU?$tvec4@M$0A@@3@@Z ; glm::detail::functor1<bool,float,0,glm::tvec4>::call
PUBLIC	?call@?$compute_sign@H$0A@Utvec1@glm@@$0A@$0A@@detail@glm@@SA?AU?$tvec1@H$0A@@3@AEBU43@@Z ; glm::detail::compute_sign<int,0,glm::tvec1,0,0>::call
PUBLIC	?call@?$compute_sign@H$0A@Utvec4@glm@@$0A@$0A@@detail@glm@@SA?AU?$tvec4@H$0A@@3@AEBU43@@Z ; glm::detail::compute_sign<int,0,glm::tvec4,0,0>::call
PUBLIC	?call@?$compute_sign@M$0A@Utvec4@glm@@$00$0A@@detail@glm@@SA?AU?$tvec4@M$0A@@3@AEBU43@@Z ; glm::detail::compute_sign<float,0,glm::tvec4,1,0>::call
PUBLIC	?call@?$compute_linearRand@M$0A@Utvec1@glm@@@detail@glm@@SA?AU?$tvec1@M$0A@@3@AEBU43@0@Z ; glm::detail::compute_linearRand<float,0,glm::tvec1>::call
PUBLIC	??$frexp@M@glm@@YAMMAEAH@Z			; glm::frexp<float>
PUBLIC	??$ldexp@M@glm@@YAMAEBMAEBH@Z			; glm::ldexp<float>
PUBLIC	?call@?$compute_vec4_bitwise_not@H$0A@$0?0$0CA@$0A@@detail@glm@@SA?AU?$tvec4@H$0A@@3@AEBU43@@Z ; glm::detail::compute_vec4_bitwise_not<int,0,-1,32,0>::call
PUBLIC	??$_Resize_reallocate@U_Value_init_tag@std@@@?$vector@HV?$allocator@H@std@@@std@@AEAAX_KAEBU_Value_init_tag@1@@Z ; std::vector<int,std::allocator<int> >::_Resize_reallocate<std::_Value_init_tag>
PUBLIC	??$_Uninitialized_value_construct_n@V?$allocator@H@std@@@std@@YAPEAHPEAH_KAEAV?$allocator@H@0@@Z ; std::_Uninitialized_value_construct_n<std::allocator<int> >
PUBLIC	??$_Deallocate_plain@V?$allocator@U_Container_proxy@std@@@std@@@std@@YAXAEAV?$allocator@U_Container_proxy@std@@@0@QEAU_Container_proxy@0@@Z ; std::_Deallocate_plain<std::allocator<std::_Container_proxy> >
PUBLIC	??$_Unfancy@U_Container_proxy@std@@@std@@YAPEAU_Container_proxy@0@PEAU10@@Z ; std::_Unfancy<std::_Container_proxy>
PUBLIC	??$_Construct_in_place@U_Container_proxy@std@@PEAU_Container_base12@2@@std@@YAXAEAU_Container_proxy@0@$$QEAPEAU_Container_base12@0@@Z ; std::_Construct_in_place<std::_Container_proxy,std::_Container_base12 *>
PUBLIC	?call@?$compute_rand@I$0A@Utvec1@glm@@@detail@glm@@SA?AU?$tvec1@I$0A@@3@XZ ; glm::detail::compute_rand<unsigned int,0,glm::tvec1>::call
PUBLIC	??0?$tvec1@I$0A@@glm@@QEAA@I@Z			; glm::tvec1<unsigned int,0>::tvec1<unsigned int,0>
PUBLIC	??$?0I$0A@@?$tvec1@M$0A@@glm@@QEAA@AEBU?$tvec1@I$0A@@1@@Z ; glm::tvec1<float,0>::tvec1<float,0><unsigned int,0>
PUBLIC	??$?KM$0A@@glm@@YA?AU?$tvec1@M$0A@@0@AEBU10@M@Z	; glm::operator/<float,0>
PUBLIC	??$?DM$0A@@glm@@YA?AU?$tvec1@M$0A@@0@AEBU10@0@Z	; glm::operator*<float,0>
PUBLIC	??$?HM$0A@@glm@@YA?AU?$tvec1@M$0A@@0@AEBU10@0@Z	; glm::operator+<float,0>
PUBLIC	??$?0_N$0A@@?$tvec4@M$0A@@glm@@QEAA@AEBU?$tvec4@_N$0A@@1@@Z ; glm::tvec4<float,0>::tvec4<float,0><bool,0>
PUBLIC	??$lessThan@H$0A@Utvec4@glm@@@glm@@YA?AU?$tvec4@_N$0A@@0@AEBU?$tvec4@H$0A@@0@0@Z ; glm::lessThan<int,0,glm::tvec4>
PUBLIC	??$?0_N$0A@@?$tvec4@H$0A@@glm@@QEAA@AEBU?$tvec4@_N$0A@@1@@Z ; glm::tvec4<int,0>::tvec4<int,0><bool,0>
PUBLIC	??$?GH$0A@@glm@@YA?AU?$tvec4@H$0A@@0@AEBU10@0@Z	; glm::operator-<int,0>
PUBLIC	??$lessThan@H$0A@Utvec1@glm@@@glm@@YA?AU?$tvec1@_N$0A@@0@AEBU?$tvec1@H$0A@@0@0@Z ; glm::lessThan<int,0,glm::tvec1>
PUBLIC	??$?0_N$0A@@?$tvec1@H$0A@@glm@@QEAA@AEBU?$tvec1@_N$0A@@1@@Z ; glm::tvec1<int,0>::tvec1<int,0><bool,0>
PUBLIC	??$?GH$0A@@glm@@YA?AU?$tvec1@H$0A@@0@AEBU10@0@Z	; glm::operator-<int,0>
PUBLIC	?call@?$functor2@M$0A@Utvec4@glm@@@detail@glm@@SA?AU?$tvec4@M$0A@@3@P6AMMM@ZAEBU43@1@Z ; glm::detail::functor2<float,0,glm::tvec4>::call
PUBLIC	??$max@M@glm@@YAMMM@Z				; glm::max<float>
PUBLIC	?call@?$functor2@M$0A@Utvec3@glm@@@detail@glm@@SA?AU?$tvec3@M$0A@@3@P6AMMM@ZAEBU43@1@Z ; glm::detail::functor2<float,0,glm::tvec3>::call
PUBLIC	?call@?$functor2@M$0A@Utvec2@glm@@@detail@glm@@SA?AU?$tvec2@M$0A@@3@P6AMMM@ZAEBU43@1@Z ; glm::detail::functor2<float,0,glm::tvec2>::call
PUBLIC	?call@?$functor2@M$0A@Utvec1@glm@@@detail@glm@@SA?AU?$tvec1@M$0A@@3@P6AMMM@ZAEBU43@1@Z ; glm::detail::functor2<float,0,glm::tvec1>::call
PUBLIC	??$min@M@glm@@YAMMM@Z				; glm::min<float>
PUBLIC	??$?KM$0A@@glm@@YA?AU?$tvec4@M$0A@@0@AEBU10@0@Z	; glm::operator/<float,0>
PUBLIC	??$?DM$0A@@glm@@YA?AU?$tvec4@M$0A@@0@AEBU10@0@Z	; glm::operator*<float,0>
PUBLIC	?call@?$functor1@NN$0A@Utvec4@glm@@@detail@glm@@SA?AU?$tvec4@N$0A@@3@P6ANN@ZAEBU43@@Z ; glm::detail::functor1<double,double,0,glm::tvec4>::call
PUBLIC	?call@?$functor1@MM$0A@Utvec4@glm@@@detail@glm@@SA?AU?$tvec4@M$0A@@3@P6AMM@ZAEBU43@@Z ; glm::detail::functor1<float,float,0,glm::tvec4>::call
PUBLIC	?call@?$functor1@NN$0A@Utvec3@glm@@@detail@glm@@SA?AU?$tvec3@N$0A@@3@P6ANN@ZAEBU43@@Z ; glm::detail::functor1<double,double,0,glm::tvec3>::call
PUBLIC	?call@?$functor1@MM$0A@Utvec3@glm@@@detail@glm@@SA?AU?$tvec3@M$0A@@3@P6AMM@ZAEBU43@@Z ; glm::detail::functor1<float,float,0,glm::tvec3>::call
PUBLIC	?call@?$functor1@NN$0A@Utvec2@glm@@@detail@glm@@SA?AU?$tvec2@N$0A@@3@P6ANN@ZAEBU43@@Z ; glm::detail::functor1<double,double,0,glm::tvec2>::call
PUBLIC	?call@?$functor1@MM$0A@Utvec2@glm@@@detail@glm@@SA?AU?$tvec2@M$0A@@3@P6AMM@ZAEBU43@@Z ; glm::detail::functor1<float,float,0,glm::tvec2>::call
PUBLIC	?call@?$functor1@NN$0A@Utvec1@glm@@@detail@glm@@SA?AU?$tvec1@N$0A@@3@P6ANN@ZAEBU43@@Z ; glm::detail::functor1<double,double,0,glm::tvec1>::call
PUBLIC	?call@?$functor1@MM$0A@Utvec1@glm@@@detail@glm@@SA?AU?$tvec1@M$0A@@3@P6AMM@ZAEBU43@@Z ; glm::detail::functor1<float,float,0,glm::tvec1>::call
PUBLIC	??$_Get_size_of_n@$0BA@@std@@YA_K_K@Z		; std::_Get_size_of_n<16>
PUBLIC	??$_Allocate@$0BA@U_Default_allocate_traits@std@@$0A@@std@@YAPEAX_K@Z ; std::_Allocate<16,std::_Default_allocate_traits,0>
PUBLIC	?call@?$compute_rand@G$0A@Utvec1@glm@@@detail@glm@@SA?AU?$tvec1@G$0A@@3@XZ ; glm::detail::compute_rand<unsigned short,0,glm::tvec1>::call
PUBLIC	??0?$tvec1@G$0A@@glm@@QEAA@G@Z			; glm::tvec1<unsigned short,0>::tvec1<unsigned short,0>
PUBLIC	??$?0G$0A@@?$tvec1@I$0A@@glm@@QEAA@AEBU?$tvec1@G$0A@@1@@Z ; glm::tvec1<unsigned int,0>::tvec1<unsigned int,0><unsigned short,0>
PUBLIC	??$?6I$0A@@glm@@YA?AU?$tvec1@I$0A@@0@AEBU10@I@Z	; glm::operator<<<unsigned int,0>
PUBLIC	??$?UI$0A@@glm@@YA?AU?$tvec1@I$0A@@0@AEBU10@0@Z	; glm::operator|<unsigned int,0>
PUBLIC	?call@?$compute_rand@E$0A@Utvec1@glm@@@detail@glm@@SA?AU?$tvec1@E$0A@@3@XZ ; glm::detail::compute_rand<unsigned char,0,glm::tvec1>::call
PUBLIC	??0?$tvec1@E$0A@@glm@@QEAA@E@Z			; glm::tvec1<unsigned char,0>::tvec1<unsigned char,0>
PUBLIC	??$?0E$0A@@?$tvec1@G$0A@@glm@@QEAA@AEBU?$tvec1@E$0A@@1@@Z ; glm::tvec1<unsigned short,0>::tvec1<unsigned short,0><unsigned char,0>
PUBLIC	??$?6G$0A@@glm@@YA?AU?$tvec1@G$0A@@0@AEBU10@G@Z	; glm::operator<<<unsigned short,0>
PUBLIC	??$?UG$0A@@glm@@YA?AU?$tvec1@G$0A@@0@AEBU10@0@Z	; glm::operator|<unsigned short,0>
PUBLIC	?call@?$compute_vec4_mul@M$0A@$0A@@detail@glm@@SA?AU?$tvec4@M$0A@@3@AEBU43@0@Z ; glm::detail::compute_vec4_mul<float,0,0>::call
PUBLIC	?call@?$compute_abs_vector@M$0A@Utvec1@glm@@$0A@@detail@glm@@SA?AU?$tvec1@M$0A@@3@AEBU43@@Z ; glm::detail::compute_abs_vector<float,0,glm::tvec1,0>::call
PUBLIC	?call@?$compute_abs_vector@N$0A@Utvec1@glm@@$0A@@detail@glm@@SA?AU?$tvec1@N$0A@@3@AEBU43@@Z ; glm::detail::compute_abs_vector<double,0,glm::tvec1,0>::call
PUBLIC	?call@?$compute_abs_vector@M$0A@Utvec2@glm@@$0A@@detail@glm@@SA?AU?$tvec2@M$0A@@3@AEBU43@@Z ; glm::detail::compute_abs_vector<float,0,glm::tvec2,0>::call
PUBLIC	?call@?$compute_abs_vector@N$0A@Utvec2@glm@@$0A@@detail@glm@@SA?AU?$tvec2@N$0A@@3@AEBU43@@Z ; glm::detail::compute_abs_vector<double,0,glm::tvec2,0>::call
PUBLIC	?call@?$compute_abs_vector@M$0A@Utvec3@glm@@$0A@@detail@glm@@SA?AU?$tvec3@M$0A@@3@AEBU43@@Z ; glm::detail::compute_abs_vector<float,0,glm::tvec3,0>::call
PUBLIC	?call@?$compute_abs_vector@N$0A@Utvec3@glm@@$0A@@detail@glm@@SA?AU?$tvec3@N$0A@@3@AEBU43@@Z ; glm::detail::compute_abs_vector<double,0,glm::tvec3,0>::call
PUBLIC	??$?ZM@?$tvec4@M$0A@@glm@@QEAAAEAU01@AEBU01@@Z	; glm::tvec4<float,0>::operator-=<float>
PUBLIC	?call@?$compute_abs_vector@M$0A@Utvec4@glm@@$0A@@detail@glm@@SA?AU?$tvec4@M$0A@@3@AEBU43@@Z ; glm::detail::compute_abs_vector<float,0,glm::tvec4,0>::call
PUBLIC	??$?ZN@?$tvec4@N$0A@@glm@@QEAAAEAU01@AEBU01@@Z	; glm::tvec4<double,0>::operator-=<double>
PUBLIC	?call@?$compute_abs_vector@N$0A@Utvec4@glm@@$0A@@detail@glm@@SA?AU?$tvec4@N$0A@@3@AEBU43@@Z ; glm::detail::compute_abs_vector<double,0,glm::tvec4,0>::call
PUBLIC	?call@?$compute_mod@M$0A@Utvec1@glm@@$0A@@detail@glm@@SA?AU?$tvec1@M$0A@@3@AEBU43@0@Z ; glm::detail::compute_mod<float,0,glm::tvec1,0>::call
PUBLIC	??$fract@M$0A@Utvec1@glm@@@glm@@YA?AU?$tvec1@M$0A@@0@AEBU10@@Z ; glm::fract<float,0,glm::tvec1>
PUBLIC	??$_Uninitialized_move@PEAHV?$allocator@H@std@@@std@@YAPEAHQEAH0PEAHAEAV?$allocator@H@0@@Z ; std::_Uninitialized_move<int *,std::allocator<int> >
PUBLIC	??$_Unfancy@H@std@@YAPEAHPEAH@Z			; std::_Unfancy<int>
PUBLIC	??$_Zero_range@PEAH@std@@YAPEAHQEAH0@Z		; std::_Zero_range<int *>
PUBLIC	??0?$_Uninitialized_backout_al@V?$allocator@H@std@@@std@@QEAA@PEAHAEAV?$allocator@H@1@@Z ; std::_Uninitialized_backout_al<std::allocator<int> >::_Uninitialized_backout_al<std::allocator<int> >
PUBLIC	??1?$_Uninitialized_backout_al@V?$allocator@H@std@@@std@@QEAA@XZ ; std::_Uninitialized_backout_al<std::allocator<int> >::~_Uninitialized_backout_al<std::allocator<int> >
PUBLIC	?_Release@?$_Uninitialized_backout_al@V?$allocator@H@std@@@std@@QEAAPEAHXZ ; std::_Uninitialized_backout_al<std::allocator<int> >::_Release
PUBLIC	??$_Emplace_back@$$V@?$_Uninitialized_backout_al@V?$allocator@H@std@@@std@@QEAAXXZ ; std::_Uninitialized_backout_al<std::allocator<int> >::_Emplace_back<>
PUBLIC	?deallocate@?$_Default_allocator_traits@V?$allocator@U_Container_proxy@std@@@std@@@std@@SAXAEAV?$allocator@U_Container_proxy@std@@@2@QEAU_Container_proxy@2@_K@Z ; std::_Default_allocator_traits<std::allocator<std::_Container_proxy> >::deallocate
PUBLIC	??$addressof@U_Container_proxy@std@@@std@@YAPEAU_Container_proxy@0@AEAU10@@Z ; std::addressof<std::_Container_proxy>
PUBLIC	??$_Voidify_iter@PEAU_Container_proxy@std@@@std@@YAPEAXPEAU_Container_proxy@0@@Z ; std::_Voidify_iter<std::_Container_proxy *>
PUBLIC	??$forward@PEAU_Container_base12@std@@@std@@YA$$QEAPEAU_Container_base12@0@AEAPEAU10@@Z ; std::forward<std::_Container_base12 *>
PUBLIC	??$?ZH@?$tvec4@H$0A@@glm@@QEAAAEAU01@AEBU01@@Z	; glm::tvec4<int,0>::operator-=<int>
PUBLIC	??$?_0M@?$tvec4@M$0A@@glm@@QEAAAEAU01@AEBU01@@Z	; glm::tvec4<float,0>::operator/=<float>
PUBLIC	??$?XM@?$tvec4@M$0A@@glm@@QEAAAEAU01@AEBU01@@Z	; glm::tvec4<float,0>::operator*=<float>
PUBLIC	??$_Allocate_manually_vector_aligned@U_Default_allocate_traits@std@@@std@@YAPEAX_K@Z ; std::_Allocate_manually_vector_aligned<std::_Default_allocate_traits>
PUBLIC	??$?KM$0A@@glm@@YA?AU?$tvec1@M$0A@@0@AEBU10@0@Z	; glm::operator/<float,0>
PUBLIC	??$min@_K@std@@YAAEB_KAEB_K0@Z			; std::min<unsigned __int64>
PUBLIC	??$_Get_size_of_n@$03@std@@YA_K_K@Z		; std::_Get_size_of_n<4>
PUBLIC	?call@?$compute_vec4_sub@M$0A@$0A@@detail@glm@@SA?AU?$tvec4@M$0A@@3@AEBU43@0@Z ; glm::detail::compute_vec4_sub<float,0,0>::call
PUBLIC	?call@?$compute_vec4_sub@N$0A@$0A@@detail@glm@@SA?AU?$tvec4@N$0A@@3@AEBU43@0@Z ; glm::detail::compute_vec4_sub<double,0,0>::call
PUBLIC	?call@?$compute_fract@M$0A@Utvec1@glm@@$0A@@detail@glm@@SA?AU?$tvec1@M$0A@@3@AEBU43@@Z ; glm::detail::compute_fract<float,0,glm::tvec1,0>::call
PUBLIC	??$_Get_unwrapped@AEBQEAH@std@@YA?A_TAEBQEAH@Z	; std::_Get_unwrapped<int * const &>
PUBLIC	??$move@AEAH@std@@YA$$QEAHAEAH@Z		; std::move<int &>
PUBLIC	??$_Copy_memmove@PEAHPEAH@std@@YAPEAHPEAH00@Z	; std::_Copy_memmove<int *,int *>
PUBLIC	??$_Emplace_back@H@?$_Uninitialized_backout_al@V?$allocator@H@std@@@std@@QEAAX$$QEAH@Z ; std::_Uninitialized_backout_al<std::allocator<int> >::_Emplace_back<int>
PUBLIC	??$_To_address@PEAH@std@@YA?A_PAEBQEAH@Z	; std::_To_address<int *>
PUBLIC	??$construct@H$$V@?$_Default_allocator_traits@V?$allocator@H@std@@@std@@SAXAEAV?$allocator@H@1@QEAH@Z ; std::_Default_allocator_traits<std::allocator<int> >::construct<int>
PUBLIC	?call@?$compute_vec4_sub@H$0A@$0A@@detail@glm@@SA?AU?$tvec4@H$0A@@3@AEBU43@0@Z ; glm::detail::compute_vec4_sub<int,0,0>::call
PUBLIC	?call@?$compute_vec4_div@M$0A@$0A@@detail@glm@@SA?AU?$tvec4@M$0A@@3@AEBU43@0@Z ; glm::detail::compute_vec4_div<float,0,0>::call
PUBLIC	??$forward@H@std@@YA$$QEAHAEAH@Z		; std::forward<int>
PUBLIC	??$construct@HH@?$_Default_allocator_traits@V?$allocator@H@std@@@std@@SAXAEAV?$allocator@H@1@QEAH$$QEAH@Z ; std::_Default_allocator_traits<std::allocator<int> >::construct<int,int>
PUBLIC	??$_Voidify_iter@PEAH@std@@YAPEAXPEAH@Z		; std::_Voidify_iter<int *>
PUBLIC	?_OptionsStorage@?1??__local_stdio_printf_options@@9@4_KA ; `__local_stdio_printf_options'::`2'::_OptionsStorage
PUBLIC	??_7exception@std@@6B@				; std::exception::`vftable'
PUBLIC	??_C@_0BC@EOODALEL@Unknown?5exception@		; `string'
PUBLIC	??_7bad_alloc@std@@6B@				; std::bad_alloc::`vftable'
PUBLIC	??_7bad_array_new_length@std@@6B@		; std::bad_array_new_length::`vftable'
PUBLIC	??_C@_0BF@KINCDENJ@bad?5array?5new?5length@	; `string'
PUBLIC	_TI3?AVbad_array_new_length@std@@
PUBLIC	_CTA3?AVbad_array_new_length@std@@
PUBLIC	??_R0?AVbad_array_new_length@std@@@8		; std::bad_array_new_length `RTTI Type Descriptor'
PUBLIC	_CT??_R0?AVbad_array_new_length@std@@@8??0bad_array_new_length@std@@QEAA@AEBV01@@Z24
PUBLIC	??_R0?AVbad_alloc@std@@@8			; std::bad_alloc `RTTI Type Descriptor'
PUBLIC	_CT??_R0?AVbad_alloc@std@@@8??0bad_alloc@std@@QEAA@AEBV01@@Z24
PUBLIC	??_R0?AVexception@std@@@8			; std::exception `RTTI Type Descriptor'
PUBLIC	_CT??_R0?AVexception@std@@@8??0exception@std@@QEAA@AEBV01@@Z24
PUBLIC	??_C@_0BB@FCMFBGOM@invalid?5argument@		; `string'
PUBLIC	??_C@_02DKCKIIND@?$CFs@				; `string'
PUBLIC	??_C@_0GC@DJFHHHKN@C?3?2Program?5Files?2Microsoft?5Visu@ ; `string'
PUBLIC	??_C@_1ME@GEFGDEOM@?$AAC?$AA?3?$AA?2?$AAP?$AAr?$AAo?$AAg?$AAr?$AAa?$AAm?$AA?5?$AAF?$AAi?$AAl?$AAe@ ; `string'
PUBLIC	??_C@_11LOCGONAA@@				; `string'
PUBLIC	??_C@_1CG@JNLFBNGN@?$AA?$CC?$AAi?$AAn?$AAv?$AAa?$AAl?$AAi?$AAd?$AA?5?$AAa?$AAr?$AAg?$AAu?$AAm?$AAe@ ; `string'
PUBLIC	?TestVec2Bool@mix_@@3PAU?$entry@U?$tvec2@M$0A@@glm@@_N@1@A ; mix_::TestVec2Bool
PUBLIC	?TestBVec2@mix_@@3PAU?$entry@U?$tvec2@M$0A@@glm@@U?$tvec2@_N$0A@@2@@1@A ; mix_::TestBVec2
PUBLIC	?TestVec3Bool@mix_@@3PAU?$entry@U?$tvec3@M$0A@@glm@@_N@1@A ; mix_::TestVec3Bool
PUBLIC	?TestBVec3@mix_@@3PAU?$entry@U?$tvec3@M$0A@@glm@@U?$tvec3@_N$0A@@2@@1@A ; mix_::TestBVec3
PUBLIC	?TestVec4Bool@mix_@@3PAU?$entry@U?$tvec4@M$0A@@glm@@_N@1@A ; mix_::TestVec4Bool
PUBLIC	?TestBVec4@mix_@@3PAU?$entry@U?$tvec4@M$0A@@glm@@U?$tvec4@_N$0A@@2@@1@A ; mix_::TestBVec4
PUBLIC	?TestVec4Scalar@step_@@3PAU?$entry@MU?$tvec4@M$0A@@glm@@@1@A ; step_::TestVec4Scalar
PUBLIC	?TestVec4Vector@step_@@3PAU?$entry@U?$tvec4@M$0A@@glm@@U12@@1@A ; step_::TestVec4Vector
PUBLIC	??_C@_0BO@PFKOHNJC@vector?5subscript?5out?5of?5range@ ; `string'
PUBLIC	??_C@_0GB@GDCALCPO@C?3?2Program?5Files?2Microsoft?5Visu@ ; `string'
PUBLIC	??_C@_1MC@BJDJHFOD@?$AAC?$AA?3?$AA?2?$AAP?$AAr?$AAo?$AAg?$AAr?$AAa?$AAm?$AA?5?$AAF?$AAi?$AAl?$AAe@ ; `string'
PUBLIC	??_C@_1EA@LEKOKFNB@?$AA?$CC?$AAv?$AAe?$AAc?$AAt?$AAo?$AAr?$AA?5?$AAs?$AAu?$AAb?$AAs?$AAc?$AAr?$AAi@ ; `string'
PUBLIC	??_C@_0DG@KGHKKGBC@null?5pointer?5cannot?5point?5to?5a?5@ ; `string'
PUBLIC	??_C@_1HA@FACCKGGH@?$AA?$CC?$AAn?$AAu?$AAl?$AAl?$AA?5?$AAp?$AAo?$AAi?$AAn?$AAt?$AAe?$AAr?$AA?5?$AAc@ ; `string'
PUBLIC	??_C@_1LG@FPDAFGJN@?$AAC?$AA?3?$AA?2?$AAU?$AAs?$AAe?$AAr?$AAs?$AA?2?$AAk?$AAs?$AAa?$AAr?$AAt?$AA?2@ ; `string'
PUBLIC	??_C@_1DK@BGNCJAPL@?$AAi?$AA?5?$AA?$DO?$AA?$DN?$AA?5?$AA0?$AA?5?$AA?$CG?$AA?$CG?$AA?5?$AAi?$AA?5?$AA?$DM?$AA?5?$AAt@ ; `string'
PUBLIC	??_C@_1LG@LAANPDHN@?$AAC?$AA?3?$AA?2?$AAU?$AAs?$AAe?$AAr?$AAs?$AA?2?$AAk?$AAs?$AAa?$AAr?$AAt?$AA?2@ ; `string'
PUBLIC	??_C@_1NA@OPABFNEN@?$AAC?$AA?3?$AA?2?$AAU?$AAs?$AAe?$AAr?$AAs?$AA?2?$AAk?$AAs?$AAa?$AAr?$AAt?$AA?2@ ; `string'
PUBLIC	??_C@_1DC@HHLCGOLC@?$AAx?$AA?4?$AAl?$AAe?$AAn?$AAg?$AAt?$AAh?$AA?$CI?$AA?$CJ?$AA?5?$AA?$DN?$AA?$DN?$AA?5?$AAy@ ; `string'
PUBLIC	??_C@_1LG@CIKOIEGN@?$AAC?$AA?3?$AA?2?$AAU?$AAs?$AAe?$AAr?$AAs?$AA?2?$AAk?$AAs?$AAa?$AAr?$AAt?$AA?2@ ; `string'
PUBLIC	??_C@_1LG@MEJFBKPC@?$AAC?$AA?3?$AA?2?$AAU?$AAs?$AAe?$AAr?$AAs?$AA?2?$AAk?$AAs?$AAa?$AAr?$AAt?$AA?2@ ; `string'
PUBLIC	??_C@_0BA@FOIKENOD@vector?5too?5long@		; `string'
PUBLIC	??_R4exception@std@@6B@				; std::exception::`RTTI Complete Object Locator'
PUBLIC	??_R3exception@std@@8				; std::exception::`RTTI Class Hierarchy Descriptor'
PUBLIC	??_R2exception@std@@8				; std::exception::`RTTI Base Class Array'
PUBLIC	??_R1A@?0A@EA@exception@std@@8			; std::exception::`RTTI Base Class Descriptor at (0,-1,0,64)'
PUBLIC	??_R4bad_alloc@std@@6B@				; std::bad_alloc::`RTTI Complete Object Locator'
PUBLIC	??_R3bad_alloc@std@@8				; std::bad_alloc::`RTTI Class Hierarchy Descriptor'
PUBLIC	??_R2bad_alloc@std@@8				; std::bad_alloc::`RTTI Base Class Array'
PUBLIC	??_R1A@?0A@EA@bad_alloc@std@@8			; std::bad_alloc::`RTTI Base Class Descriptor at (0,-1,0,64)'
PUBLIC	??_R4bad_array_new_length@std@@6B@		; std::bad_array_new_length::`RTTI Complete Object Locator'
PUBLIC	??_R3bad_array_new_length@std@@8		; std::bad_array_new_length::`RTTI Class Hierarchy Descriptor'
PUBLIC	??_R2bad_array_new_length@std@@8		; std::bad_array_new_length::`RTTI Base Class Array'
PUBLIC	??_R1A@?0A@EA@bad_array_new_length@std@@8	; std::bad_array_new_length::`RTTI Base Class Descriptor at (0,-1,0,64)'
PUBLIC	__real@00000000
PUBLIC	__real@0000000000000000
PUBLIC	__real@34000000
PUBLIC	__real@3727c5ac
PUBLIC	__real@38d1b717
PUBLIC	__real@3dcccccd
PUBLIC	__real@3e112e0be826d695
PUBLIC	__real@3e4ccccd
PUBLIC	__real@3f000000
PUBLIC	__real@3f1a36e2eb1c432d
PUBLIC	__real@3f333333
PUBLIC	__real@3f4ccccd
PUBLIC	__real@3f666666
PUBLIC	__real@3f800000
PUBLIC	__real@3f8ccccd
PUBLIC	__real@3f99999a
PUBLIC	__real@3fb999999999999a
PUBLIC	__real@3fc00000
PUBLIC	__real@3fc999999999999a
PUBLIC	__real@3fceb851eb851eb8
PUBLIC	__real@3fd9999a
PUBLIC	__real@3fe0000000000000
PUBLIC	__real@3fe6666666666666
PUBLIC	__real@3feeb851eb851eb8
PUBLIC	__real@3ff0000000000000
PUBLIC	__real@3ff199999999999a
PUBLIC	__real@3ff19999a0000000
PUBLIC	__real@3ff33333
PUBLIC	__real@3ff3333333333333
PUBLIC	__real@3ff8000000000000
PUBLIC	__real@3ffb333333333333
PUBLIC	__real@40000000
PUBLIC	__real@4019999a
PUBLIC	__real@40200000
PUBLIC	__real@40266666
PUBLIC	__real@40400000
PUBLIC	__real@40600000
PUBLIC	__real@40800000
PUBLIC	__real@40900000
PUBLIC	__real@40a00000
PUBLIC	__real@40b00000
PUBLIC	__real@40c00000
PUBLIC	__real@40d00000
PUBLIC	__real@40e00000
PUBLIC	__real@40f00000
PUBLIC	__real@41000000
PUBLIC	__real@44800000
PUBLIC	__real@47800000
PUBLIC	__real@80000000
PUBLIC	__real@bdcccccd
PUBLIC	__real@be4ccccd
PUBLIC	__real@bf000000
PUBLIC	__real@bf666666
PUBLIC	__real@bf800000
PUBLIC	__real@bfc00000
PUBLIC	__real@bfe547ae147ae148
PUBLIC	__real@bff0000000000000
PUBLIC	__real@bff33333
PUBLIC	__real@bff547ae147ae148
PUBLIC	__real@c0000000
PUBLIC	__real@c019999a
PUBLIC	__real@c0200000
PUBLIC	__real@c0266666
PUBLIC	__real@c0400000
PUBLIC	__real@c0600000
PUBLIC	__real@c0800000
PUBLIC	__real@c0900000
PUBLIC	__real@c0a00000
PUBLIC	__real@c0b00000
PUBLIC	__real@c0c00000
PUBLIC	__real@c0d00000
PUBLIC	__real@c0f00000
PUBLIC	__real@c1000000
PUBLIC	__real@c7800000
PUBLIC	__xmm@80000000000000008000000000000000
PUBLIC	__xmm@80000000800000008000000080000000
EXTRN	??2@YAPEAX_K@Z:PROC				; operator new
EXTRN	??3@YAXPEAX_K@Z:PROC				; operator delete
EXTRN	__imp__invalid_parameter:PROC
EXTRN	__imp__wassert:PROC
EXTRN	__imp__dtest:PROC
EXTRN	__imp__fdtest:PROC
EXTRN	__imp_floor:PROC
EXTRN	__imp_frexp:PROC
EXTRN	__imp_ldexp:PROC
EXTRN	__imp_modf:PROC
EXTRN	__imp_modff:PROC
EXTRN	__imp_rand:PROC
EXTRN	__imp__CrtDbgReport:PROC
EXTRN	__imp_??0_Lockit@std@@QEAA@H@Z:PROC
EXTRN	__imp_??1_Lockit@std@@QEAA@XZ:PROC
EXTRN	__imp___acrt_iob_func:PROC
EXTRN	__imp___stdio_common_vfprintf:PROC
EXTRN	memmove:PROC
EXTRN	memset:PROC
EXTRN	__imp_clock:PROC
EXTRN	__std_exception_copy:PROC
EXTRN	__std_exception_destroy:PROC
EXTRN	??_Eexception@std@@UEAAPEAXI@Z:PROC		; std::exception::`vector deleting destructor'
EXTRN	??_Ebad_alloc@std@@UEAAPEAXI@Z:PROC		; std::bad_alloc::`vector deleting destructor'
EXTRN	??_Ebad_array_new_length@std@@UEAAPEAXI@Z:PROC	; std::bad_array_new_length::`vector deleting destructor'
EXTRN	?_Xlength_error@std@@YAXPEBD@Z:PROC		; std::_Xlength_error
EXTRN	_CxxThrowException:PROC
EXTRN	_RTC_CheckStackVars:PROC
EXTRN	_RTC_InitBase:PROC
EXTRN	_RTC_Shutdown:PROC
EXTRN	__CxxFrameHandler4:PROC
EXTRN	__GSHandlerCheck:PROC
EXTRN	__security_check_cookie:PROC
EXTRN	floorf:PROC
EXTRN	roundf:PROC
EXTRN	??_7type_info@@6B@:BYTE				; type_info::`vftable'
EXTRN	__security_cookie:QWORD
EXTRN	_fltused:DWORD
;	COMDAT ?_OptionsStorage@?1??__local_stdio_printf_options@@9@4_KA
_BSS	SEGMENT
?_OptionsStorage@?1??__local_stdio_printf_options@@9@4_KA DQ 01H DUP (?) ; `__local_stdio_printf_options'::`2'::_OptionsStorage
_BSS	ENDS
_BSS	SEGMENT
?TestVec2Bool@mix_@@3PAU?$entry@U?$tvec2@M$0A@@glm@@_N@1@A DB 070H DUP (?) ; mix_::TestVec2Bool
?TestBVec2@mix_@@3PAU?$entry@U?$tvec2@M$0A@@glm@@U?$tvec2@_N$0A@@2@@1@A DB 08cH DUP (?) ; mix_::TestBVec2
?TestVec3Bool@mix_@@3PAU?$entry@U?$tvec3@M$0A@@glm@@_N@1@A DB 0a0H DUP (?) ; mix_::TestVec3Bool
?TestBVec3@mix_@@3PAU?$entry@U?$tvec3@M$0A@@glm@@U?$tvec3@_N$0A@@2@@1@A DB 0c8H DUP (?) ; mix_::TestBVec3
?TestVec4Bool@mix_@@3PAU?$entry@U?$tvec4@M$0A@@glm@@_N@1@A DB 0d0H DUP (?) ; mix_::TestVec4Bool
?TestBVec4@mix_@@3PAU?$entry@U?$tvec4@M$0A@@glm@@U?$tvec4@_N$0A@@2@@1@A DB 0104H DUP (?) ; mix_::TestBVec4
?TestVec4Scalar@step_@@3PAU?$entry@MU?$tvec4@M$0A@@glm@@@1@A DB 06cH DUP (?) ; step_::TestVec4Scalar
?TestVec4Vector@step_@@3PAU?$entry@U?$tvec4@M$0A@@glm@@U12@@1@A DB 0c0H DUP (?) ; step_::TestVec4Vector
_BSS	ENDS
;	COMDAT pdata
pdata	SEGMENT
$pdata$?fpclassify@@YAHM@Z DD imagerel $LN3
	DD	imagerel $LN3+29
	DD	imagerel $unwind$?fpclassify@@YAHM@Z
pdata	ENDS
;	COMDAT pdata
pdata	SEGMENT
$pdata$?fpclassify@@YAHN@Z DD imagerel $LN3
	DD	imagerel $LN3+29
	DD	imagerel $unwind$?fpclassify@@YAHN@Z
pdata	ENDS
;	COMDAT pdata
pdata	SEGMENT
$pdata$frexpf DD imagerel $LN3
	DD	imagerel $LN3+43
	DD	imagerel $unwind$frexpf
pdata	ENDS
;	COMDAT pdata
pdata	SEGMENT
$pdata$ldexpf DD imagerel $LN3
	DD	imagerel $LN3+41
	DD	imagerel $unwind$ldexpf
pdata	ENDS
;	COMDAT pdata
pdata	SEGMENT
$pdata$??2@YAPEAX_KPEAX@Z DD imagerel $LN3
	DD	imagerel $LN3+18
	DD	imagerel $unwind$??2@YAPEAX_KPEAX@Z
pdata	ENDS
;	COMDAT pdata
pdata	SEGMENT
$pdata$?floor@@YAMM@Z DD imagerel $LN3
	DD	imagerel $LN3+28
	DD	imagerel $unwind$?floor@@YAMM@Z
pdata	ENDS
;	COMDAT pdata
pdata	SEGMENT
$pdata$?frexp@@YAMMPEAH@Z DD imagerel $LN3
	DD	imagerel $LN3+38
	DD	imagerel $unwind$?frexp@@YAMMPEAH@Z
pdata	ENDS
;	COMDAT pdata
pdata	SEGMENT
$pdata$?ldexp@@YAMMH@Z DD imagerel $LN3
	DD	imagerel $LN3+36
	DD	imagerel $unwind$?ldexp@@YAMMH@Z
pdata	ENDS
;	COMDAT pdata
pdata	SEGMENT
$pdata$?modf@@YAMMPEAM@Z DD imagerel $LN3
	DD	imagerel $LN3+39
	DD	imagerel $unwind$?modf@@YAMMPEAM@Z
pdata	ENDS
;	COMDAT pdata
pdata	SEGMENT
$pdata$?round@@YAMM@Z DD imagerel $LN3
	DD	imagerel $LN3+28
	DD	imagerel $unwind$?round@@YAMM@Z
pdata	ENDS
;	COMDAT pdata
pdata	SEGMENT
$pdata$?floatBitsToInt@glm@@YAHAEBM@Z DD imagerel $LN3
	DD	imagerel $LN3+15
	DD	imagerel $unwind$?floatBitsToInt@glm@@YAHAEBM@Z
pdata	ENDS
;	COMDAT pdata
pdata	SEGMENT
$pdata$?floatBitsToUint@glm@@YAIAEBM@Z DD imagerel $LN3
	DD	imagerel $LN3+15
	DD	imagerel $unwind$?floatBitsToUint@glm@@YAIAEBM@Z
pdata	ENDS
;	COMDAT pdata
pdata	SEGMENT
$pdata$?intBitsToFloat@glm@@YAMAEBH@Z DD imagerel $LN3
	DD	imagerel $LN3+25
	DD	imagerel $unwind$?intBitsToFloat@glm@@YAMAEBH@Z
pdata	ENDS
;	COMDAT pdata
pdata	SEGMENT
$pdata$__local_stdio_printf_options DD imagerel $LN3
	DD	imagerel $LN3+11
	DD	imagerel $unwind$__local_stdio_printf_options
pdata	ENDS
;	COMDAT pdata
pdata	SEGMENT
$pdata$_vfprintf_l DD imagerel $LN3
	DD	imagerel $LN3+70
	DD	imagerel $unwind$_vfprintf_l
pdata	ENDS
;	COMDAT pdata
pdata	SEGMENT
$pdata$printf DD imagerel $LN3
	DD	imagerel $LN3+131
	DD	imagerel $unwind$printf
pdata	ENDS
;	COMDAT pdata
pdata	SEGMENT
$pdata$?max@?$numeric_limits@E@std@@SAEXZ DD imagerel $LN3
	DD	imagerel $LN3+6
	DD	imagerel $unwind$?max@?$numeric_limits@E@std@@SAEXZ
pdata	ENDS
;	COMDAT pdata
pdata	SEGMENT
$pdata$?min@?$numeric_limits@H@std@@SAHXZ DD imagerel $LN3
	DD	imagerel $LN3+9
	DD	imagerel $unwind$?min@?$numeric_limits@H@std@@SAHXZ
pdata	ENDS
;	COMDAT pdata
pdata	SEGMENT
$pdata$?max@?$numeric_limits@H@std@@SAHXZ DD imagerel $LN3
	DD	imagerel $LN3+9
	DD	imagerel $unwind$?max@?$numeric_limits@H@std@@SAHXZ
pdata	ENDS
;	COMDAT pdata
pdata	SEGMENT
$pdata$?max@?$numeric_limits@_J@std@@SA_JXZ DD imagerel $LN3
	DD	imagerel $LN3+14
	DD	imagerel $unwind$?max@?$numeric_limits@_J@std@@SA_JXZ
pdata	ENDS
;	COMDAT pdata
pdata	SEGMENT
$pdata$?max@?$numeric_limits@I@std@@SAIXZ DD imagerel $LN3
	DD	imagerel $LN3+9
	DD	imagerel $unwind$?max@?$numeric_limits@I@std@@SAIXZ
pdata	ENDS
;	COMDAT pdata
pdata	SEGMENT
$pdata$?epsilon@?$numeric_limits@M@std@@SAMXZ DD imagerel $LN3
	DD	imagerel $LN3+20
	DD	imagerel $unwind$?epsilon@?$numeric_limits@M@std@@SAMXZ
pdata	ENDS
;	COMDAT pdata
pdata	SEGMENT
$pdata$??$epsilonEqual@M@glm@@YA_NAEBM00@Z DD imagerel $LN5
	DD	imagerel $LN5+86
	DD	imagerel $unwind$??$epsilonEqual@M@glm@@YA_NAEBM00@Z
pdata	ENDS
;	COMDAT pdata
pdata	SEGMENT
$pdata$??$abs@M@glm@@YAMM@Z DD imagerel $LN3
	DD	imagerel $LN3+28
	DD	imagerel $unwind$??$abs@M@glm@@YAMM@Z
pdata	ENDS
;	COMDAT pdata
pdata	SEGMENT
$pdata$??$abs@N@glm@@YANN@Z DD imagerel $LN3
	DD	imagerel $LN3+28
	DD	imagerel $unwind$??$abs@N@glm@@YANN@Z
pdata	ENDS
;	COMDAT pdata
pdata	SEGMENT
$pdata$?length@?$tvec2@M$0A@@glm@@SAHXZ DD imagerel $LN3
	DD	imagerel $LN3+9
	DD	imagerel $unwind$?length@?$tvec2@M$0A@@glm@@SAHXZ
pdata	ENDS
;	COMDAT pdata
pdata	SEGMENT
$pdata$??A?$tvec2@M$0A@@glm@@QEAAAEAMH@Z DD imagerel $LN5
	DD	imagerel $LN5+80
	DD	imagerel $unwind$??A?$tvec2@M$0A@@glm@@QEAAAEAMH@Z
pdata	ENDS
;	COMDAT pdata
pdata	SEGMENT
$pdata$??A?$tvec2@M$0A@@glm@@QEBAAEBMH@Z DD imagerel $LN5
	DD	imagerel $LN5+80
	DD	imagerel $unwind$??A?$tvec2@M$0A@@glm@@QEBAAEBMH@Z
pdata	ENDS
;	COMDAT pdata
pdata	SEGMENT
$pdata$??0?$tvec2@M$0A@@glm@@QEAA@W4ctor@1@@Z DD imagerel $LN3
	DD	imagerel $LN3+17
	DD	imagerel $unwind$??0?$tvec2@M$0A@@glm@@QEAA@W4ctor@1@@Z
pdata	ENDS
;	COMDAT pdata
pdata	SEGMENT
$pdata$??0?$tvec2@M$0A@@glm@@QEAA@M@Z DD imagerel $LN3
	DD	imagerel $LN3+50
	DD	imagerel $unwind$??0?$tvec2@M$0A@@glm@@QEAA@M@Z
pdata	ENDS
;	COMDAT pdata
pdata	SEGMENT
$pdata$??0?$tvec2@M$0A@@glm@@QEAA@MM@Z DD imagerel $LN3
	DD	imagerel $LN3+56
	DD	imagerel $unwind$??0?$tvec2@M$0A@@glm@@QEAA@MM@Z
pdata	ENDS
;	COMDAT pdata
pdata	SEGMENT
$pdata$?length@?$tvec4@M$0A@@glm@@SAHXZ DD imagerel $LN3
	DD	imagerel $LN3+9
	DD	imagerel $unwind$?length@?$tvec4@M$0A@@glm@@SAHXZ
pdata	ENDS
;	COMDAT pdata
pdata	SEGMENT
$pdata$??A?$tvec4@M$0A@@glm@@QEAAAEAMH@Z DD imagerel $LN5
	DD	imagerel $LN5+80
	DD	imagerel $unwind$??A?$tvec4@M$0A@@glm@@QEAAAEAMH@Z
pdata	ENDS
;	COMDAT pdata
pdata	SEGMENT
$pdata$??A?$tvec4@M$0A@@glm@@QEBAAEBMH@Z DD imagerel $LN5
	DD	imagerel $LN5+80
	DD	imagerel $unwind$??A?$tvec4@M$0A@@glm@@QEBAAEBMH@Z
pdata	ENDS
;	COMDAT pdata
pdata	SEGMENT
$pdata$??0?$tvec4@M$0A@@glm@@QEAA@W4ctor@1@@Z DD imagerel $LN3
	DD	imagerel $LN3+17
	DD	imagerel $unwind$??0?$tvec4@M$0A@@glm@@QEAA@W4ctor@1@@Z
pdata	ENDS
;	COMDAT pdata
pdata	SEGMENT
$pdata$??0?$tvec4@M$0A@@glm@@QEAA@M@Z DD imagerel $LN3
	DD	imagerel $LN3+82
	DD	imagerel $unwind$??0?$tvec4@M$0A@@glm@@QEAA@M@Z
pdata	ENDS
;	COMDAT pdata
pdata	SEGMENT
$pdata$??0?$tvec4@M$0A@@glm@@QEAA@MMMM@Z DD imagerel $LN3
	DD	imagerel $LN3+94
	DD	imagerel $unwind$??0?$tvec4@M$0A@@glm@@QEAA@MMMM@Z
pdata	ENDS
;	COMDAT pdata
pdata	SEGMENT
$pdata$??0exception@std@@QEAA@QEBDH@Z DD imagerel $LN3
	DD	imagerel $LN3+73
	DD	imagerel $unwind$??0exception@std@@QEAA@QEBDH@Z
pdata	ENDS
;	COMDAT pdata
pdata	SEGMENT
$pdata$??0exception@std@@QEAA@AEBV01@@Z DD imagerel $LN3
	DD	imagerel $LN3+88
	DD	imagerel $unwind$??0exception@std@@QEAA@AEBV01@@Z
pdata	ENDS
;	COMDAT pdata
pdata	SEGMENT
$pdata$??1exception@std@@UEAA@XZ DD imagerel $LN3
	DD	imagerel $LN3+48
	DD	imagerel $unwind$??1exception@std@@UEAA@XZ
pdata	ENDS
;	COMDAT pdata
pdata	SEGMENT
$pdata$?what@exception@std@@UEBAPEBDXZ DD imagerel $LN5
	DD	imagerel $LN5+58
	DD	imagerel $unwind$?what@exception@std@@UEBAPEBDXZ
pdata	ENDS
;	COMDAT pdata
pdata	SEGMENT
$pdata$??_Gexception@std@@UEAAPEAXI@Z DD imagerel $LN4
	DD	imagerel $LN4+61
	DD	imagerel $unwind$??_Gexception@std@@UEAAPEAXI@Z
pdata	ENDS
;	COMDAT pdata
pdata	SEGMENT
$pdata$??0bad_alloc@std@@AEAA@QEBD@Z DD imagerel $LN3
	DD	imagerel $LN3+62
	DD	imagerel $unwind$??0bad_alloc@std@@AEAA@QEBD@Z
pdata	ENDS
;	COMDAT pdata
pdata	SEGMENT
$pdata$??1bad_alloc@std@@UEAA@XZ DD imagerel $LN3
	DD	imagerel $LN3+26
	DD	imagerel $unwind$??1bad_alloc@std@@UEAA@XZ
pdata	ENDS
;	COMDAT pdata
pdata	SEGMENT
$pdata$??0bad_alloc@std@@QEAA@AEBV01@@Z DD imagerel $LN3
	DD	imagerel $LN3+56
	DD	imagerel $unwind$??0bad_alloc@std@@QEAA@AEBV01@@Z
pdata	ENDS
;	COMDAT pdata
pdata	SEGMENT
$pdata$??_Gbad_alloc@std@@UEAAPEAXI@Z DD imagerel $LN4
	DD	imagerel $LN4+61
	DD	imagerel $unwind$??_Gbad_alloc@std@@UEAAPEAXI@Z
pdata	ENDS
;	COMDAT pdata
pdata	SEGMENT
$pdata$??0bad_array_new_length@std@@QEAA@XZ DD imagerel $LN3
	DD	imagerel $LN3+53
	DD	imagerel $unwind$??0bad_array_new_length@std@@QEAA@XZ
pdata	ENDS
;	COMDAT pdata
pdata	SEGMENT
$pdata$??1bad_array_new_length@std@@UEAA@XZ DD imagerel $LN3
	DD	imagerel $LN3+26
	DD	imagerel $unwind$??1bad_array_new_length@std@@UEAA@XZ
pdata	ENDS
;	COMDAT pdata
pdata	SEGMENT
$pdata$??0bad_array_new_length@std@@QEAA@AEBV01@@Z DD imagerel $LN3
	DD	imagerel $LN3+56
	DD	imagerel $unwind$??0bad_array_new_length@std@@QEAA@AEBV01@@Z
pdata	ENDS
;	COMDAT pdata
pdata	SEGMENT
$pdata$??_Gbad_array_new_length@std@@UEAAPEAXI@Z DD imagerel $LN4
	DD	imagerel $LN4+61
	DD	imagerel $unwind$??_Gbad_array_new_length@std@@UEAAPEAXI@Z
pdata	ENDS
;	COMDAT pdata
pdata	SEGMENT
$pdata$?_Throw_bad_array_new_length@std@@YAXXZ DD imagerel $LN3
	DD	imagerel $LN3+39
	DD	imagerel $unwind$?_Throw_bad_array_new_length@std@@YAXXZ
pdata	ENDS
;	COMDAT pdata
pdata	SEGMENT
$pdata$?_Allocate@_Default_allocate_traits@std@@SAPEAX_K@Z DD imagerel $LN3
	DD	imagerel $LN3+26
	DD	imagerel $unwind$?_Allocate@_Default_allocate_traits@std@@SAPEAX_K@Z
pdata	ENDS
;	COMDAT pdata
pdata	SEGMENT
$pdata$?_Adjust_manually_vector_aligned@std@@YAXAEAPEAXAEA_K@Z DD imagerel $LN21
	DD	imagerel $LN21+404
	DD	imagerel $unwind$?_Adjust_manually_vector_aligned@std@@YAXAEAPEAXAEA_K@Z
pdata	ENDS
;	COMDAT pdata
pdata	SEGMENT
$pdata$??0_Container_proxy@std@@QEAA@PEAU_Container_base12@1@@Z DD imagerel $LN3
	DD	imagerel $LN3+44
	DD	imagerel $unwind$??0_Container_proxy@std@@QEAA@PEAU_Container_base12@1@@Z
pdata	ENDS
;	COMDAT pdata
pdata	SEGMENT
$pdata$??0_Container_base12@std@@QEAA@XZ DD imagerel $LN3
	DD	imagerel $LN3+25
	DD	imagerel $unwind$??0_Container_base12@std@@QEAA@XZ
pdata	ENDS
;	COMDAT pdata
pdata	SEGMENT
$pdata$?_Orphan_all@_Container_base12@std@@QEAAXXZ DD imagerel $LN3
	DD	imagerel $LN3+26
	DD	imagerel $unwind$?_Orphan_all@_Container_base12@std@@QEAAXXZ
pdata	ENDS
;	COMDAT pdata
pdata	SEGMENT
$pdata$?_Orphan_all_unlocked_v3@_Container_base12@std@@AEAAXXZ DD imagerel $LN7
	DD	imagerel $LN7+107
	DD	imagerel $unwind$?_Orphan_all_unlocked_v3@_Container_base12@std@@AEAAXXZ
pdata	ENDS
;	COMDAT pdata
pdata	SEGMENT
$pdata$?_Orphan_all_locked_v3@_Container_base12@std@@AEAAXXZ DD imagerel $LN3
	DD	imagerel $LN3+90
	DD	imagerel $unwind$?_Orphan_all_locked_v3@_Container_base12@std@@AEAAXXZ
pdata	ENDS
pdata	SEGMENT
$pdata$?test@floor_@@YAHXZ DD imagerel $LN19
	DD	imagerel $LN19+1477
	DD	imagerel $unwind$?test@floor_@@YAHXZ
pdata	ENDS
;	COMDAT pdata
pdata	SEGMENT
$pdata$?length@?$tvec1@M$0A@@glm@@SAHXZ DD imagerel $LN3
	DD	imagerel $LN3+9
	DD	imagerel $unwind$?length@?$tvec1@M$0A@@glm@@SAHXZ
pdata	ENDS
;	COMDAT pdata
pdata	SEGMENT
$pdata$??A?$tvec1@M$0A@@glm@@QEBAAEBMH@Z DD imagerel $LN5
	DD	imagerel $LN5+80
	DD	imagerel $unwind$??A?$tvec1@M$0A@@glm@@QEBAAEBMH@Z
pdata	ENDS
;	COMDAT pdata
pdata	SEGMENT
$pdata$??0?$tvec1@M$0A@@glm@@QEAA@M@Z DD imagerel $LN3
	DD	imagerel $LN3+34
	DD	imagerel $unwind$??0?$tvec1@M$0A@@glm@@QEAA@M@Z
pdata	ENDS
;	COMDAT pdata
pdata	SEGMENT
$pdata$??$floor@M$0A@Utvec1@glm@@@glm@@YA?AU?$tvec1@M$0A@@0@AEBU10@@Z DD imagerel $LN3
	DD	imagerel $LN3+41
	DD	imagerel $unwind$??$floor@M$0A@Utvec1@glm@@@glm@@YA?AU?$tvec1@M$0A@@0@AEBU10@@Z
pdata	ENDS
;	COMDAT pdata
pdata	SEGMENT
$pdata$??$epsilonEqual@M$0A@Utvec1@glm@@@glm@@YA?AU?$tvec1@_N$0A@@0@AEBU?$tvec1@M$0A@@0@0AEBM@Z DD imagerel $LN3
	DD	imagerel $LN3+114
	DD	imagerel $unwind$??$epsilonEqual@M$0A@Utvec1@glm@@@glm@@YA?AU?$tvec1@_N$0A@@0@AEBU?$tvec1@M$0A@@0@0AEBM@Z
pdata	ENDS
;	COMDAT pdata
pdata	SEGMENT
$pdata$?length@?$tvec1@_N$0A@@glm@@SAHXZ DD imagerel $LN3
	DD	imagerel $LN3+9
	DD	imagerel $unwind$?length@?$tvec1@_N$0A@@glm@@SAHXZ
pdata	ENDS
;	COMDAT pdata
pdata	SEGMENT
$pdata$??A?$tvec1@_N$0A@@glm@@QEAAAEA_NH@Z DD imagerel $LN5
	DD	imagerel $LN5+82
	DD	imagerel $unwind$??A?$tvec1@_N$0A@@glm@@QEAAAEA_NH@Z
pdata	ENDS
;	COMDAT pdata
pdata	SEGMENT
$pdata$??A?$tvec1@_N$0A@@glm@@QEBAAEB_NH@Z DD imagerel $LN5
	DD	imagerel $LN5+82
	DD	imagerel $unwind$??A?$tvec1@_N$0A@@glm@@QEBAAEB_NH@Z
pdata	ENDS
;	COMDAT pdata
pdata	SEGMENT
$pdata$??0?$tvec1@_N$0A@@glm@@QEAA@W4ctor@1@@Z DD imagerel $LN3
	DD	imagerel $LN3+17
	DD	imagerel $unwind$??0?$tvec1@_N$0A@@glm@@QEAA@W4ctor@1@@Z
pdata	ENDS
;	COMDAT pdata
pdata	SEGMENT
$pdata$??$all@$0A@Utvec1@glm@@@glm@@YA_NAEBU?$tvec1@_N$0A@@0@@Z DD imagerel $LN8
	DD	imagerel $LN8+116
	DD	imagerel $unwind$??$all@$0A@Utvec1@glm@@@glm@@YA_NAEBU?$tvec1@_N$0A@@0@@Z
pdata	ENDS
;	COMDAT pdata
pdata	SEGMENT
$pdata$?length@?$tvec1@N$0A@@glm@@SAHXZ DD imagerel $LN3
	DD	imagerel $LN3+9
	DD	imagerel $unwind$?length@?$tvec1@N$0A@@glm@@SAHXZ
pdata	ENDS
;	COMDAT pdata
pdata	SEGMENT
$pdata$??A?$tvec1@N$0A@@glm@@QEBAAEBNH@Z DD imagerel $LN5
	DD	imagerel $LN5+80
	DD	imagerel $unwind$??A?$tvec1@N$0A@@glm@@QEBAAEBNH@Z
pdata	ENDS
;	COMDAT pdata
pdata	SEGMENT
$pdata$??0?$tvec1@N$0A@@glm@@QEAA@N@Z DD imagerel $LN3
	DD	imagerel $LN3+34
	DD	imagerel $unwind$??0?$tvec1@N$0A@@glm@@QEAA@N@Z
pdata	ENDS
;	COMDAT pdata
pdata	SEGMENT
$pdata$??$floor@N$0A@Utvec1@glm@@@glm@@YA?AU?$tvec1@N$0A@@0@AEBU10@@Z DD imagerel $LN3
	DD	imagerel $LN3+41
	DD	imagerel $unwind$??$floor@N$0A@Utvec1@glm@@@glm@@YA?AU?$tvec1@N$0A@@0@AEBU10@@Z
pdata	ENDS
;	COMDAT pdata
pdata	SEGMENT
$pdata$??$epsilonEqual@N$0A@Utvec1@glm@@@glm@@YA?AU?$tvec1@_N$0A@@0@AEBU?$tvec1@N$0A@@0@0AEBN@Z DD imagerel $LN3
	DD	imagerel $LN3+114
	DD	imagerel $unwind$??$epsilonEqual@N$0A@Utvec1@glm@@@glm@@YA?AU?$tvec1@_N$0A@@0@AEBU?$tvec1@N$0A@@0@0AEBN@Z
pdata	ENDS
;	COMDAT pdata
pdata	SEGMENT
$pdata$??$floor@M$0A@Utvec2@glm@@@glm@@YA?AU?$tvec2@M$0A@@0@AEBU10@@Z DD imagerel $LN3
	DD	imagerel $LN3+41
	DD	imagerel $unwind$??$floor@M$0A@Utvec2@glm@@@glm@@YA?AU?$tvec2@M$0A@@0@AEBU10@@Z
pdata	ENDS
;	COMDAT pdata
pdata	SEGMENT
$pdata$??$epsilonEqual@M$0A@Utvec2@glm@@@glm@@YA?AU?$tvec2@_N$0A@@0@AEBU?$tvec2@M$0A@@0@0AEBM@Z DD imagerel $LN3
	DD	imagerel $LN3+114
	DD	imagerel $unwind$??$epsilonEqual@M$0A@Utvec2@glm@@@glm@@YA?AU?$tvec2@_N$0A@@0@AEBU?$tvec2@M$0A@@0@0AEBM@Z
pdata	ENDS
;	COMDAT pdata
pdata	SEGMENT
$pdata$?length@?$tvec2@_N$0A@@glm@@SAHXZ DD imagerel $LN3
	DD	imagerel $LN3+9
	DD	imagerel $unwind$?length@?$tvec2@_N$0A@@glm@@SAHXZ
pdata	ENDS
;	COMDAT pdata
pdata	SEGMENT
$pdata$??A?$tvec2@_N$0A@@glm@@QEAAAEA_NH@Z DD imagerel $LN5
	DD	imagerel $LN5+82
	DD	imagerel $unwind$??A?$tvec2@_N$0A@@glm@@QEAAAEA_NH@Z
pdata	ENDS
;	COMDAT pdata
pdata	SEGMENT
$pdata$??A?$tvec2@_N$0A@@glm@@QEBAAEB_NH@Z DD imagerel $LN5
	DD	imagerel $LN5+82
	DD	imagerel $unwind$??A?$tvec2@_N$0A@@glm@@QEBAAEB_NH@Z
pdata	ENDS
;	COMDAT pdata
pdata	SEGMENT
$pdata$??0?$tvec2@_N$0A@@glm@@QEAA@W4ctor@1@@Z DD imagerel $LN3
	DD	imagerel $LN3+17
	DD	imagerel $unwind$??0?$tvec2@_N$0A@@glm@@QEAA@W4ctor@1@@Z
pdata	ENDS
;	COMDAT pdata
pdata	SEGMENT
$pdata$??0?$tvec2@_N$0A@@glm@@QEAA@_N@Z DD imagerel $LN3
	DD	imagerel $LN3+42
	DD	imagerel $unwind$??0?$tvec2@_N$0A@@glm@@QEAA@_N@Z
pdata	ENDS
;	COMDAT pdata
pdata	SEGMENT
$pdata$??0?$tvec2@_N$0A@@glm@@QEAA@_N0@Z DD imagerel $LN3
	DD	imagerel $LN3+47
	DD	imagerel $unwind$??0?$tvec2@_N$0A@@glm@@QEAA@_N0@Z
pdata	ENDS
;	COMDAT pdata
pdata	SEGMENT
$pdata$??$all@$0A@Utvec2@glm@@@glm@@YA_NAEBU?$tvec2@_N$0A@@0@@Z DD imagerel $LN8
	DD	imagerel $LN8+116
	DD	imagerel $unwind$??$all@$0A@Utvec2@glm@@@glm@@YA_NAEBU?$tvec2@_N$0A@@0@@Z
pdata	ENDS
;	COMDAT pdata
pdata	SEGMENT
$pdata$?length@?$tvec2@N$0A@@glm@@SAHXZ DD imagerel $LN3
	DD	imagerel $LN3+9
	DD	imagerel $unwind$?length@?$tvec2@N$0A@@glm@@SAHXZ
pdata	ENDS
;	COMDAT pdata
pdata	SEGMENT
$pdata$??A?$tvec2@N$0A@@glm@@QEBAAEBNH@Z DD imagerel $LN5
	DD	imagerel $LN5+80
	DD	imagerel $unwind$??A?$tvec2@N$0A@@glm@@QEBAAEBNH@Z
pdata	ENDS
;	COMDAT pdata
pdata	SEGMENT
$pdata$??0?$tvec2@N$0A@@glm@@QEAA@N@Z DD imagerel $LN3
	DD	imagerel $LN3+50
	DD	imagerel $unwind$??0?$tvec2@N$0A@@glm@@QEAA@N@Z
pdata	ENDS
;	COMDAT pdata
pdata	SEGMENT
$pdata$??0?$tvec2@N$0A@@glm@@QEAA@NN@Z DD imagerel $LN3
	DD	imagerel $LN3+56
	DD	imagerel $unwind$??0?$tvec2@N$0A@@glm@@QEAA@NN@Z
pdata	ENDS
;	COMDAT pdata
pdata	SEGMENT
$pdata$??$floor@N$0A@Utvec2@glm@@@glm@@YA?AU?$tvec2@N$0A@@0@AEBU10@@Z DD imagerel $LN3
	DD	imagerel $LN3+41
	DD	imagerel $unwind$??$floor@N$0A@Utvec2@glm@@@glm@@YA?AU?$tvec2@N$0A@@0@AEBU10@@Z
pdata	ENDS
;	COMDAT pdata
pdata	SEGMENT
$pdata$??$epsilonEqual@N$0A@Utvec2@glm@@@glm@@YA?AU?$tvec2@_N$0A@@0@AEBU?$tvec2@N$0A@@0@0AEBN@Z DD imagerel $LN3
	DD	imagerel $LN3+120
	DD	imagerel $unwind$??$epsilonEqual@N$0A@Utvec2@glm@@@glm@@YA?AU?$tvec2@_N$0A@@0@AEBU?$tvec2@N$0A@@0@0AEBN@Z
pdata	ENDS
;	COMDAT pdata
pdata	SEGMENT
$pdata$?length@?$tvec3@M$0A@@glm@@SAHXZ DD imagerel $LN3
	DD	imagerel $LN3+9
	DD	imagerel $unwind$?length@?$tvec3@M$0A@@glm@@SAHXZ
pdata	ENDS
;	COMDAT pdata
pdata	SEGMENT
$pdata$??A?$tvec3@M$0A@@glm@@QEAAAEAMH@Z DD imagerel $LN5
	DD	imagerel $LN5+80
	DD	imagerel $unwind$??A?$tvec3@M$0A@@glm@@QEAAAEAMH@Z
pdata	ENDS
;	COMDAT pdata
pdata	SEGMENT
$pdata$??A?$tvec3@M$0A@@glm@@QEBAAEBMH@Z DD imagerel $LN5
	DD	imagerel $LN5+80
	DD	imagerel $unwind$??A?$tvec3@M$0A@@glm@@QEBAAEBMH@Z
pdata	ENDS
;	COMDAT pdata
pdata	SEGMENT
$pdata$??0?$tvec3@M$0A@@glm@@QEAA@W4ctor@1@@Z DD imagerel $LN3
	DD	imagerel $LN3+17
	DD	imagerel $unwind$??0?$tvec3@M$0A@@glm@@QEAA@W4ctor@1@@Z
pdata	ENDS
;	COMDAT pdata
pdata	SEGMENT
$pdata$??0?$tvec3@M$0A@@glm@@QEAA@M@Z DD imagerel $LN3
	DD	imagerel $LN3+66
	DD	imagerel $unwind$??0?$tvec3@M$0A@@glm@@QEAA@M@Z
pdata	ENDS
;	COMDAT pdata
pdata	SEGMENT
$pdata$??0?$tvec3@M$0A@@glm@@QEAA@MMM@Z DD imagerel $LN3
	DD	imagerel $LN3+78
	DD	imagerel $unwind$??0?$tvec3@M$0A@@glm@@QEAA@MMM@Z
pdata	ENDS
;	COMDAT pdata
pdata	SEGMENT
$pdata$??$floor@M$0A@Utvec3@glm@@@glm@@YA?AU?$tvec3@M$0A@@0@AEBU10@@Z DD imagerel $LN3
	DD	imagerel $LN3+41
	DD	imagerel $unwind$??$floor@M$0A@Utvec3@glm@@@glm@@YA?AU?$tvec3@M$0A@@0@AEBU10@@Z
pdata	ENDS
;	COMDAT pdata
pdata	SEGMENT
$pdata$??$epsilonEqual@M$0A@Utvec3@glm@@@glm@@YA?AU?$tvec3@_N$0A@@0@AEBU?$tvec3@M$0A@@0@0AEBM@Z DD imagerel $LN3
	DD	imagerel $LN3+114
	DD	imagerel $unwind$??$epsilonEqual@M$0A@Utvec3@glm@@@glm@@YA?AU?$tvec3@_N$0A@@0@AEBU?$tvec3@M$0A@@0@0AEBM@Z
pdata	ENDS
;	COMDAT pdata
pdata	SEGMENT
$pdata$?length@?$tvec3@_N$0A@@glm@@SAHXZ DD imagerel $LN3
	DD	imagerel $LN3+9
	DD	imagerel $unwind$?length@?$tvec3@_N$0A@@glm@@SAHXZ
pdata	ENDS
;	COMDAT pdata
pdata	SEGMENT
$pdata$??A?$tvec3@_N$0A@@glm@@QEAAAEA_NH@Z DD imagerel $LN5
	DD	imagerel $LN5+82
	DD	imagerel $unwind$??A?$tvec3@_N$0A@@glm@@QEAAAEA_NH@Z
pdata	ENDS
;	COMDAT pdata
pdata	SEGMENT
$pdata$??A?$tvec3@_N$0A@@glm@@QEBAAEB_NH@Z DD imagerel $LN5
	DD	imagerel $LN5+82
	DD	imagerel $unwind$??A?$tvec3@_N$0A@@glm@@QEBAAEB_NH@Z
pdata	ENDS
;	COMDAT pdata
pdata	SEGMENT
$pdata$??0?$tvec3@_N$0A@@glm@@QEAA@W4ctor@1@@Z DD imagerel $LN3
	DD	imagerel $LN3+17
	DD	imagerel $unwind$??0?$tvec3@_N$0A@@glm@@QEAA@W4ctor@1@@Z
pdata	ENDS
;	COMDAT pdata
pdata	SEGMENT
$pdata$??0?$tvec3@_N$0A@@glm@@QEAA@_N@Z DD imagerel $LN3
	DD	imagerel $LN3+55
	DD	imagerel $unwind$??0?$tvec3@_N$0A@@glm@@QEAA@_N@Z
pdata	ENDS
;	COMDAT pdata
pdata	SEGMENT
$pdata$??0?$tvec3@_N$0A@@glm@@QEAA@_N00@Z DD imagerel $LN3
	DD	imagerel $LN3+65
	DD	imagerel $unwind$??0?$tvec3@_N$0A@@glm@@QEAA@_N00@Z
pdata	ENDS
;	COMDAT pdata
pdata	SEGMENT
$pdata$??$all@$0A@Utvec3@glm@@@glm@@YA_NAEBU?$tvec3@_N$0A@@0@@Z DD imagerel $LN8
	DD	imagerel $LN8+116
	DD	imagerel $unwind$??$all@$0A@Utvec3@glm@@@glm@@YA_NAEBU?$tvec3@_N$0A@@0@@Z
pdata	ENDS
;	COMDAT pdata
pdata	SEGMENT
$pdata$?length@?$tvec3@N$0A@@glm@@SAHXZ DD imagerel $LN3
	DD	imagerel $LN3+9
	DD	imagerel $unwind$?length@?$tvec3@N$0A@@glm@@SAHXZ
pdata	ENDS
;	COMDAT pdata
pdata	SEGMENT
$pdata$??A?$tvec3@N$0A@@glm@@QEBAAEBNH@Z DD imagerel $LN5
	DD	imagerel $LN5+80
	DD	imagerel $unwind$??A?$tvec3@N$0A@@glm@@QEBAAEBNH@Z
pdata	ENDS
;	COMDAT pdata
pdata	SEGMENT
$pdata$??0?$tvec3@N$0A@@glm@@QEAA@N@Z DD imagerel $LN3
	DD	imagerel $LN3+66
	DD	imagerel $unwind$??0?$tvec3@N$0A@@glm@@QEAA@N@Z
pdata	ENDS
;	COMDAT pdata
pdata	SEGMENT
$pdata$??0?$tvec3@N$0A@@glm@@QEAA@NNN@Z DD imagerel $LN3
	DD	imagerel $LN3+78
	DD	imagerel $unwind$??0?$tvec3@N$0A@@glm@@QEAA@NNN@Z
pdata	ENDS
;	COMDAT pdata
pdata	SEGMENT
$pdata$??$floor@N$0A@Utvec3@glm@@@glm@@YA?AU?$tvec3@N$0A@@0@AEBU10@@Z DD imagerel $LN3
	DD	imagerel $LN3+41
	DD	imagerel $unwind$??$floor@N$0A@Utvec3@glm@@@glm@@YA?AU?$tvec3@N$0A@@0@AEBU10@@Z
pdata	ENDS
;	COMDAT pdata
pdata	SEGMENT
$pdata$??$epsilonEqual@N$0A@Utvec3@glm@@@glm@@YA?AU?$tvec3@_N$0A@@0@AEBU?$tvec3@N$0A@@0@0AEBN@Z DD imagerel $LN3
	DD	imagerel $LN3+129
	DD	imagerel $unwind$??$epsilonEqual@N$0A@Utvec3@glm@@@glm@@YA?AU?$tvec3@_N$0A@@0@AEBU?$tvec3@N$0A@@0@0AEBN@Z
pdata	ENDS
;	COMDAT pdata
pdata	SEGMENT
$pdata$??$floor@M$0A@Utvec4@glm@@@glm@@YA?AU?$tvec4@M$0A@@0@AEBU10@@Z DD imagerel $LN3
	DD	imagerel $LN3+41
	DD	imagerel $unwind$??$floor@M$0A@Utvec4@glm@@@glm@@YA?AU?$tvec4@M$0A@@0@AEBU10@@Z
pdata	ENDS
;	COMDAT pdata
pdata	SEGMENT
$pdata$??$epsilonEqual@M$0A@Utvec4@glm@@@glm@@YA?AU?$tvec4@_N$0A@@0@AEBU?$tvec4@M$0A@@0@0AEBM@Z DD imagerel $LN3
	DD	imagerel $LN3+120
	DD	imagerel $unwind$??$epsilonEqual@M$0A@Utvec4@glm@@@glm@@YA?AU?$tvec4@_N$0A@@0@AEBU?$tvec4@M$0A@@0@0AEBM@Z
pdata	ENDS
;	COMDAT pdata
pdata	SEGMENT
$pdata$?length@?$tvec4@_N$0A@@glm@@SAHXZ DD imagerel $LN3
	DD	imagerel $LN3+9
	DD	imagerel $unwind$?length@?$tvec4@_N$0A@@glm@@SAHXZ
pdata	ENDS
;	COMDAT pdata
pdata	SEGMENT
$pdata$??A?$tvec4@_N$0A@@glm@@QEAAAEA_NH@Z DD imagerel $LN5
	DD	imagerel $LN5+82
	DD	imagerel $unwind$??A?$tvec4@_N$0A@@glm@@QEAAAEA_NH@Z
pdata	ENDS
;	COMDAT pdata
pdata	SEGMENT
$pdata$??A?$tvec4@_N$0A@@glm@@QEBAAEB_NH@Z DD imagerel $LN5
	DD	imagerel $LN5+82
	DD	imagerel $unwind$??A?$tvec4@_N$0A@@glm@@QEBAAEB_NH@Z
pdata	ENDS
;	COMDAT pdata
pdata	SEGMENT
$pdata$??0?$tvec4@_N$0A@@glm@@QEAA@W4ctor@1@@Z DD imagerel $LN3
	DD	imagerel $LN3+17
	DD	imagerel $unwind$??0?$tvec4@_N$0A@@glm@@QEAA@W4ctor@1@@Z
pdata	ENDS
;	COMDAT pdata
pdata	SEGMENT
$pdata$??0?$tvec4@_N$0A@@glm@@QEAA@_N@Z DD imagerel $LN3
	DD	imagerel $LN3+68
	DD	imagerel $unwind$??0?$tvec4@_N$0A@@glm@@QEAA@_N@Z
pdata	ENDS
;	COMDAT pdata
pdata	SEGMENT
$pdata$??0?$tvec4@_N$0A@@glm@@QEAA@_N000@Z DD imagerel $LN3
	DD	imagerel $LN3+78
	DD	imagerel $unwind$??0?$tvec4@_N$0A@@glm@@QEAA@_N000@Z
pdata	ENDS
;	COMDAT pdata
pdata	SEGMENT
$pdata$??$all@$0A@Utvec4@glm@@@glm@@YA_NAEBU?$tvec4@_N$0A@@0@@Z DD imagerel $LN8
	DD	imagerel $LN8+116
	DD	imagerel $unwind$??$all@$0A@Utvec4@glm@@@glm@@YA_NAEBU?$tvec4@_N$0A@@0@@Z
pdata	ENDS
;	COMDAT pdata
pdata	SEGMENT
$pdata$?length@?$tvec4@N$0A@@glm@@SAHXZ DD imagerel $LN3
	DD	imagerel $LN3+9
	DD	imagerel $unwind$?length@?$tvec4@N$0A@@glm@@SAHXZ
pdata	ENDS
;	COMDAT pdata
pdata	SEGMENT
$pdata$??A?$tvec4@N$0A@@glm@@QEBAAEBNH@Z DD imagerel $LN5
	DD	imagerel $LN5+80
	DD	imagerel $unwind$??A?$tvec4@N$0A@@glm@@QEBAAEBNH@Z
pdata	ENDS
;	COMDAT pdata
pdata	SEGMENT
$pdata$??0?$tvec4@N$0A@@glm@@QEAA@N@Z DD imagerel $LN3
	DD	imagerel $LN3+82
	DD	imagerel $unwind$??0?$tvec4@N$0A@@glm@@QEAA@N@Z
pdata	ENDS
;	COMDAT pdata
pdata	SEGMENT
$pdata$??0?$tvec4@N$0A@@glm@@QEAA@NNNN@Z DD imagerel $LN3
	DD	imagerel $LN3+94
	DD	imagerel $unwind$??0?$tvec4@N$0A@@glm@@QEAA@NNNN@Z
pdata	ENDS
;	COMDAT pdata
pdata	SEGMENT
$pdata$??$floor@N$0A@Utvec4@glm@@@glm@@YA?AU?$tvec4@N$0A@@0@AEBU10@@Z DD imagerel $LN3
	DD	imagerel $LN3+41
	DD	imagerel $unwind$??$floor@N$0A@Utvec4@glm@@@glm@@YA?AU?$tvec4@N$0A@@0@AEBU10@@Z
pdata	ENDS
;	COMDAT pdata
pdata	SEGMENT
$pdata$??$epsilonEqual@N$0A@Utvec4@glm@@@glm@@YA?AU?$tvec4@_N$0A@@0@AEBU?$tvec4@N$0A@@0@0AEBN@Z DD imagerel $LN3
	DD	imagerel $LN3+141
	DD	imagerel $unwind$??$epsilonEqual@N$0A@Utvec4@glm@@@glm@@YA?AU?$tvec4@_N$0A@@0@AEBU?$tvec4@N$0A@@0@0AEBN@Z
pdata	ENDS
pdata	SEGMENT
$pdata$?test@modf_@@YAHXZ DD imagerel $LN19
	DD	imagerel $LN19+1095
	DD	imagerel $unwind$?test@modf_@@YAHXZ
pdata	ENDS
;	COMDAT pdata
pdata	SEGMENT
$pdata$??$modf@M@glm@@YAMMAEAM@Z DD imagerel $LN3
	DD	imagerel $LN3+38
	DD	imagerel $unwind$??$modf@M@glm@@YAMMAEAM@Z
pdata	ENDS
;	COMDAT pdata
pdata	SEGMENT
$pdata$??$modf@M$0A@@glm@@YA?AU?$tvec4@M$0A@@0@AEBU10@AEAU10@@Z DD imagerel $LN3
	DD	imagerel $LN3+195
	DD	imagerel $unwind$??$modf@M$0A@@glm@@YA?AU?$tvec4@M$0A@@0@AEBU10@AEAU10@@Z
pdata	ENDS
;	COMDAT pdata
pdata	SEGMENT
$pdata$??$?8M$0A@@glm@@YA_NAEBU?$tvec4@M$0A@@0@0@Z DD imagerel $LN3
	DD	imagerel $LN3+36
	DD	imagerel $unwind$??$?8M$0A@@glm@@YA_NAEBU?$tvec4@M$0A@@0@0@Z
pdata	ENDS
;	COMDAT pdata
pdata	SEGMENT
$pdata$??$modf@N$0A@@glm@@YA?AU?$tvec4@N$0A@@0@AEBU10@AEAU10@@Z DD imagerel $LN3
	DD	imagerel $LN3+195
	DD	imagerel $unwind$??$modf@N$0A@@glm@@YA?AU?$tvec4@N$0A@@0@AEBU10@AEAU10@@Z
pdata	ENDS
;	COMDAT pdata
pdata	SEGMENT
$pdata$??$?8N$0A@@glm@@YA_NAEBU?$tvec4@N$0A@@0@0@Z DD imagerel $LN3
	DD	imagerel $LN3+36
	DD	imagerel $unwind$??$?8N$0A@@glm@@YA_NAEBU?$tvec4@N$0A@@0@0@Z
pdata	ENDS
;	COMDAT pdata
pdata	SEGMENT
$pdata$??$modf@N@glm@@YANNAEAN@Z DD imagerel $LN3
	DD	imagerel $LN3+39
	DD	imagerel $unwind$??$modf@N@glm@@YANNAEAN@Z
pdata	ENDS
pdata	SEGMENT
$pdata$?test@mod_@@YAHXZ DD imagerel $LN13
	DD	imagerel $LN13+827
	DD	imagerel $unwind$?test@mod_@@YAHXZ
pdata	ENDS
;	COMDAT pdata
pdata	SEGMENT
$pdata$??$mod@M@glm@@YAMMM@Z DD imagerel $LN3
	DD	imagerel $LN3+62
	DD	imagerel $unwind$??$mod@M@glm@@YAMMM@Z
pdata	ENDS
;	COMDAT pdata
pdata	SEGMENT
$pdata$??$mod@M$0A@Utvec4@glm@@@glm@@YA?AU?$tvec4@M$0A@@0@AEBU10@M@Z DD imagerel $LN3
	DD	imagerel $LN3+66
	DD	imagerel $unwind$??$mod@M$0A@Utvec4@glm@@@glm@@YA?AU?$tvec4@M$0A@@0@AEBU10@M@Z
pdata	ENDS
;	COMDAT pdata
pdata	SEGMENT
$pdata$??$mod@M$0A@Utvec4@glm@@@glm@@YA?AU?$tvec4@M$0A@@0@AEBU10@0@Z DD imagerel $LN3
	DD	imagerel $LN3+51
	DD	imagerel $unwind$??$mod@M$0A@Utvec4@glm@@@glm@@YA?AU?$tvec4@M$0A@@0@AEBU10@0@Z
pdata	ENDS
pdata	SEGMENT
$pdata$?test@floatBitsToInt@@YAHXZ DD imagerel $LN31
	DD	imagerel $LN31+1216
	DD	imagerel $unwind$?test@floatBitsToInt@@YAHXZ
pdata	ENDS
;	COMDAT pdata
pdata	SEGMENT
$pdata$?length@?$tvec2@H$0A@@glm@@SAHXZ DD imagerel $LN3
	DD	imagerel $LN3+9
	DD	imagerel $unwind$?length@?$tvec2@H$0A@@glm@@SAHXZ
pdata	ENDS
;	COMDAT pdata
pdata	SEGMENT
$pdata$??A?$tvec2@H$0A@@glm@@QEBAAEBHH@Z DD imagerel $LN5
	DD	imagerel $LN5+80
	DD	imagerel $unwind$??A?$tvec2@H$0A@@glm@@QEBAAEBHH@Z
pdata	ENDS
;	COMDAT pdata
pdata	SEGMENT
$pdata$??0?$tvec2@H$0A@@glm@@QEAA@XZ DD imagerel $LN3
	DD	imagerel $LN3+36
	DD	imagerel $unwind$??0?$tvec2@H$0A@@glm@@QEAA@XZ
pdata	ENDS
;	COMDAT pdata
pdata	SEGMENT
$pdata$??0?$tvec2@H$0A@@glm@@QEAA@HH@Z DD imagerel $LN3
	DD	imagerel $LN3+45
	DD	imagerel $unwind$??0?$tvec2@H$0A@@glm@@QEAA@HH@Z
pdata	ENDS
;	COMDAT pdata
pdata	SEGMENT
$pdata$??$floatBitsToInt@Utvec2@glm@@$0A@@glm@@YA?AU?$tvec2@H$0A@@0@AEBU?$tvec2@M$0A@@0@@Z DD imagerel $LN3
	DD	imagerel $LN3+34
	DD	imagerel $unwind$??$floatBitsToInt@Utvec2@glm@@$0A@@glm@@YA?AU?$tvec2@H$0A@@0@AEBU?$tvec2@M$0A@@0@@Z
pdata	ENDS
;	COMDAT pdata
pdata	SEGMENT
$pdata$??$intBitsToFloat@Utvec2@glm@@$0A@@glm@@YA?AU?$tvec2@M$0A@@0@AEBU?$tvec2@H$0A@@0@@Z DD imagerel $LN3
	DD	imagerel $LN3+34
	DD	imagerel $unwind$??$intBitsToFloat@Utvec2@glm@@$0A@@glm@@YA?AU?$tvec2@M$0A@@0@AEBU?$tvec2@H$0A@@0@@Z
pdata	ENDS
;	COMDAT pdata
pdata	SEGMENT
$pdata$??$?8M$0A@@glm@@YA_NAEBU?$tvec2@M$0A@@0@0@Z DD imagerel $LN5
	DD	imagerel $LN5+85
	DD	imagerel $unwind$??$?8M$0A@@glm@@YA_NAEBU?$tvec2@M$0A@@0@0@Z
pdata	ENDS
;	COMDAT pdata
pdata	SEGMENT
$pdata$?length@?$tvec3@H$0A@@glm@@SAHXZ DD imagerel $LN3
	DD	imagerel $LN3+9
	DD	imagerel $unwind$?length@?$tvec3@H$0A@@glm@@SAHXZ
pdata	ENDS
;	COMDAT pdata
pdata	SEGMENT
$pdata$??A?$tvec3@H$0A@@glm@@QEBAAEBHH@Z DD imagerel $LN5
	DD	imagerel $LN5+80
	DD	imagerel $unwind$??A?$tvec3@H$0A@@glm@@QEBAAEBHH@Z
pdata	ENDS
;	COMDAT pdata
pdata	SEGMENT
$pdata$??0?$tvec3@H$0A@@glm@@QEAA@XZ DD imagerel $LN3
	DD	imagerel $LN3+48
	DD	imagerel $unwind$??0?$tvec3@H$0A@@glm@@QEAA@XZ
pdata	ENDS
;	COMDAT pdata
pdata	SEGMENT
$pdata$??0?$tvec3@H$0A@@glm@@QEAA@HHH@Z DD imagerel $LN3
	DD	imagerel $LN3+62
	DD	imagerel $unwind$??0?$tvec3@H$0A@@glm@@QEAA@HHH@Z
pdata	ENDS
;	COMDAT pdata
pdata	SEGMENT
$pdata$??$floatBitsToInt@Utvec3@glm@@$0A@@glm@@YA?AU?$tvec3@H$0A@@0@AEBU?$tvec3@M$0A@@0@@Z DD imagerel $LN3
	DD	imagerel $LN3+37
	DD	imagerel $unwind$??$floatBitsToInt@Utvec3@glm@@$0A@@glm@@YA?AU?$tvec3@H$0A@@0@AEBU?$tvec3@M$0A@@0@@Z
pdata	ENDS
;	COMDAT pdata
pdata	SEGMENT
$pdata$??$intBitsToFloat@Utvec3@glm@@$0A@@glm@@YA?AU?$tvec3@M$0A@@0@AEBU?$tvec3@H$0A@@0@@Z DD imagerel $LN3
	DD	imagerel $LN3+37
	DD	imagerel $unwind$??$intBitsToFloat@Utvec3@glm@@$0A@@glm@@YA?AU?$tvec3@M$0A@@0@AEBU?$tvec3@H$0A@@0@@Z
pdata	ENDS
;	COMDAT pdata
pdata	SEGMENT
$pdata$??$?8M$0A@@glm@@YA_NAEBU?$tvec3@M$0A@@0@0@Z DD imagerel $LN5
	DD	imagerel $LN5+108
	DD	imagerel $unwind$??$?8M$0A@@glm@@YA_NAEBU?$tvec3@M$0A@@0@0@Z
pdata	ENDS
;	COMDAT pdata
pdata	SEGMENT
$pdata$?length@?$tvec4@H$0A@@glm@@SAHXZ DD imagerel $LN3
	DD	imagerel $LN3+9
	DD	imagerel $unwind$?length@?$tvec4@H$0A@@glm@@SAHXZ
pdata	ENDS
;	COMDAT pdata
pdata	SEGMENT
$pdata$??A?$tvec4@H$0A@@glm@@QEBAAEBHH@Z DD imagerel $LN5
	DD	imagerel $LN5+80
	DD	imagerel $unwind$??A?$tvec4@H$0A@@glm@@QEBAAEBHH@Z
pdata	ENDS
;	COMDAT pdata
pdata	SEGMENT
$pdata$??0?$tvec4@H$0A@@glm@@QEAA@XZ DD imagerel $LN3
	DD	imagerel $LN3+60
	DD	imagerel $unwind$??0?$tvec4@H$0A@@glm@@QEAA@XZ
pdata	ENDS
;	COMDAT pdata
pdata	SEGMENT
$pdata$??0?$tvec4@H$0A@@glm@@QEAA@H@Z DD imagerel $LN3
	DD	imagerel $LN3+64
	DD	imagerel $unwind$??0?$tvec4@H$0A@@glm@@QEAA@H@Z
pdata	ENDS
;	COMDAT pdata
pdata	SEGMENT
$pdata$??0?$tvec4@H$0A@@glm@@QEAA@HHHH@Z DD imagerel $LN3
	DD	imagerel $LN3+74
	DD	imagerel $unwind$??0?$tvec4@H$0A@@glm@@QEAA@HHHH@Z
pdata	ENDS
;	COMDAT pdata
pdata	SEGMENT
$pdata$??$floatBitsToInt@Utvec4@glm@@$0A@@glm@@YA?AU?$tvec4@H$0A@@0@AEBU?$tvec4@M$0A@@0@@Z DD imagerel $LN3
	DD	imagerel $LN3+37
	DD	imagerel $unwind$??$floatBitsToInt@Utvec4@glm@@$0A@@glm@@YA?AU?$tvec4@H$0A@@0@AEBU?$tvec4@M$0A@@0@@Z
pdata	ENDS
;	COMDAT pdata
pdata	SEGMENT
$pdata$??$intBitsToFloat@Utvec4@glm@@$0A@@glm@@YA?AU?$tvec4@M$0A@@0@AEBU?$tvec4@H$0A@@0@@Z DD imagerel $LN3
	DD	imagerel $LN3+37
	DD	imagerel $unwind$??$intBitsToFloat@Utvec4@glm@@$0A@@glm@@YA?AU?$tvec4@M$0A@@0@AEBU?$tvec4@H$0A@@0@@Z
pdata	ENDS
pdata	SEGMENT
$pdata$?test@floatBitsToUint@@YAHXZ DD imagerel $LN31
	DD	imagerel $LN31+1207
	DD	imagerel $unwind$?test@floatBitsToUint@@YAHXZ
pdata	ENDS
;	COMDAT pdata
pdata	SEGMENT
$pdata$??$floatBitsToUint@Utvec2@glm@@$0A@@glm@@YA?AU?$tvec2@I$0A@@0@AEBU?$tvec2@M$0A@@0@@Z DD imagerel $LN3
	DD	imagerel $LN3+34
	DD	imagerel $unwind$??$floatBitsToUint@Utvec2@glm@@$0A@@glm@@YA?AU?$tvec2@I$0A@@0@AEBU?$tvec2@M$0A@@0@@Z
pdata	ENDS
;	COMDAT pdata
pdata	SEGMENT
$pdata$??$uintBitsToFloat@Utvec2@glm@@$0A@@glm@@YA?AU?$tvec2@M$0A@@0@AEBU?$tvec2@I$0A@@0@@Z DD imagerel $LN3
	DD	imagerel $LN3+34
	DD	imagerel $unwind$??$uintBitsToFloat@Utvec2@glm@@$0A@@glm@@YA?AU?$tvec2@M$0A@@0@AEBU?$tvec2@I$0A@@0@@Z
pdata	ENDS
;	COMDAT pdata
pdata	SEGMENT
$pdata$??$floatBitsToUint@Utvec3@glm@@$0A@@glm@@YA?AU?$tvec3@I$0A@@0@AEBU?$tvec3@M$0A@@0@@Z DD imagerel $LN3
	DD	imagerel $LN3+37
	DD	imagerel $unwind$??$floatBitsToUint@Utvec3@glm@@$0A@@glm@@YA?AU?$tvec3@I$0A@@0@AEBU?$tvec3@M$0A@@0@@Z
pdata	ENDS
;	COMDAT pdata
pdata	SEGMENT
$pdata$??$uintBitsToFloat@Utvec3@glm@@$0A@@glm@@YA?AU?$tvec3@M$0A@@0@AEBU?$tvec3@I$0A@@0@@Z DD imagerel $LN3
	DD	imagerel $LN3+37
	DD	imagerel $unwind$??$uintBitsToFloat@Utvec3@glm@@$0A@@glm@@YA?AU?$tvec3@M$0A@@0@AEBU?$tvec3@I$0A@@0@@Z
pdata	ENDS
;	COMDAT pdata
pdata	SEGMENT
$pdata$??$floatBitsToUint@Utvec4@glm@@$0A@@glm@@YA?AU?$tvec4@I$0A@@0@AEBU?$tvec4@M$0A@@0@@Z DD imagerel $LN3
	DD	imagerel $LN3+37
	DD	imagerel $unwind$??$floatBitsToUint@Utvec4@glm@@$0A@@glm@@YA?AU?$tvec4@I$0A@@0@AEBU?$tvec4@M$0A@@0@@Z
pdata	ENDS
;	COMDAT pdata
pdata	SEGMENT
$pdata$??$uintBitsToFloat@Utvec4@glm@@$0A@@glm@@YA?AU?$tvec4@M$0A@@0@AEBU?$tvec4@I$0A@@0@@Z DD imagerel $LN3
	DD	imagerel $LN3+37
	DD	imagerel $unwind$??$uintBitsToFloat@Utvec4@glm@@$0A@@glm@@YA?AU?$tvec4@M$0A@@0@AEBU?$tvec4@I$0A@@0@@Z
pdata	ENDS
pdata	SEGMENT
$pdata$?test@min_@@YAHXZ DD imagerel $LN9
	DD	imagerel $LN9+791
	DD	imagerel $unwind$?test@min_@@YAHXZ
pdata	ENDS
;	COMDAT pdata
pdata	SEGMENT
$pdata$??$min@M$0A@Utvec1@glm@@@glm@@YA?AU?$tvec1@M$0A@@0@AEBU10@0@Z DD imagerel $LN3
	DD	imagerel $LN3+51
	DD	imagerel $unwind$??$min@M$0A@Utvec1@glm@@@glm@@YA?AU?$tvec1@M$0A@@0@AEBU10@0@Z
pdata	ENDS
;	COMDAT pdata
pdata	SEGMENT
$pdata$??$min@M$0A@Utvec2@glm@@@glm@@YA?AU?$tvec2@M$0A@@0@AEBU10@0@Z DD imagerel $LN3
	DD	imagerel $LN3+51
	DD	imagerel $unwind$??$min@M$0A@Utvec2@glm@@@glm@@YA?AU?$tvec2@M$0A@@0@AEBU10@0@Z
pdata	ENDS
;	COMDAT pdata
pdata	SEGMENT
$pdata$??$min@M$0A@Utvec2@glm@@@glm@@YA?AU?$tvec2@M$0A@@0@AEBU10@M@Z DD imagerel $LN3
	DD	imagerel $LN3+66
	DD	imagerel $unwind$??$min@M$0A@Utvec2@glm@@@glm@@YA?AU?$tvec2@M$0A@@0@AEBU10@M@Z
pdata	ENDS
;	COMDAT pdata
pdata	SEGMENT
$pdata$??$equal@M$0A@Utvec2@glm@@@glm@@YA?AU?$tvec2@_N$0A@@0@AEBU?$tvec2@M$0A@@0@0@Z DD imagerel $LN9
	DD	imagerel $LN9+270
	DD	imagerel $unwind$??$equal@M$0A@Utvec2@glm@@@glm@@YA?AU?$tvec2@_N$0A@@0@AEBU?$tvec2@M$0A@@0@0@Z
pdata	ENDS
;	COMDAT pdata
pdata	SEGMENT
$pdata$??$min@M$0A@Utvec3@glm@@@glm@@YA?AU?$tvec3@M$0A@@0@AEBU10@0@Z DD imagerel $LN3
	DD	imagerel $LN3+51
	DD	imagerel $unwind$??$min@M$0A@Utvec3@glm@@@glm@@YA?AU?$tvec3@M$0A@@0@AEBU10@0@Z
pdata	ENDS
;	COMDAT pdata
pdata	SEGMENT
$pdata$??$min@M$0A@Utvec3@glm@@@glm@@YA?AU?$tvec3@M$0A@@0@AEBU10@M@Z DD imagerel $LN3
	DD	imagerel $LN3+66
	DD	imagerel $unwind$??$min@M$0A@Utvec3@glm@@@glm@@YA?AU?$tvec3@M$0A@@0@AEBU10@M@Z
pdata	ENDS
;	COMDAT pdata
pdata	SEGMENT
$pdata$??$equal@M$0A@Utvec3@glm@@@glm@@YA?AU?$tvec3@_N$0A@@0@AEBU?$tvec3@M$0A@@0@0@Z DD imagerel $LN9
	DD	imagerel $LN9+282
	DD	imagerel $unwind$??$equal@M$0A@Utvec3@glm@@@glm@@YA?AU?$tvec3@_N$0A@@0@AEBU?$tvec3@M$0A@@0@0@Z
pdata	ENDS
;	COMDAT pdata
pdata	SEGMENT
$pdata$??$min@M$0A@Utvec4@glm@@@glm@@YA?AU?$tvec4@M$0A@@0@AEBU10@0@Z DD imagerel $LN3
	DD	imagerel $LN3+51
	DD	imagerel $unwind$??$min@M$0A@Utvec4@glm@@@glm@@YA?AU?$tvec4@M$0A@@0@AEBU10@0@Z
pdata	ENDS
;	COMDAT pdata
pdata	SEGMENT
$pdata$??$min@M$0A@Utvec4@glm@@@glm@@YA?AU?$tvec4@M$0A@@0@AEBU10@M@Z DD imagerel $LN3
	DD	imagerel $LN3+66
	DD	imagerel $unwind$??$min@M$0A@Utvec4@glm@@@glm@@YA?AU?$tvec4@M$0A@@0@AEBU10@M@Z
pdata	ENDS
;	COMDAT pdata
pdata	SEGMENT
$pdata$??$equal@M$0A@Utvec4@glm@@@glm@@YA?AU?$tvec4@_N$0A@@0@AEBU?$tvec4@M$0A@@0@0@Z DD imagerel $LN9
	DD	imagerel $LN9+268
	DD	imagerel $unwind$??$equal@M$0A@Utvec4@glm@@@glm@@YA?AU?$tvec4@_N$0A@@0@AEBU?$tvec4@M$0A@@0@0@Z
pdata	ENDS
pdata	SEGMENT
$pdata$?test@max_@@YAHXZ DD imagerel $LN9
	DD	imagerel $LN9+791
	DD	imagerel $unwind$?test@max_@@YAHXZ
pdata	ENDS
;	COMDAT pdata
pdata	SEGMENT
$pdata$??$max@M$0A@Utvec1@glm@@@glm@@YA?AU?$tvec1@M$0A@@0@AEBU10@0@Z DD imagerel $LN3
	DD	imagerel $LN3+51
	DD	imagerel $unwind$??$max@M$0A@Utvec1@glm@@@glm@@YA?AU?$tvec1@M$0A@@0@AEBU10@0@Z
pdata	ENDS
;	COMDAT pdata
pdata	SEGMENT
$pdata$??$max@M$0A@Utvec2@glm@@@glm@@YA?AU?$tvec2@M$0A@@0@AEBU10@0@Z DD imagerel $LN3
	DD	imagerel $LN3+51
	DD	imagerel $unwind$??$max@M$0A@Utvec2@glm@@@glm@@YA?AU?$tvec2@M$0A@@0@AEBU10@0@Z
pdata	ENDS
;	COMDAT pdata
pdata	SEGMENT
$pdata$??$max@M$0A@Utvec2@glm@@@glm@@YA?AU?$tvec2@M$0A@@0@AEBU10@M@Z DD imagerel $LN3
	DD	imagerel $LN3+66
	DD	imagerel $unwind$??$max@M$0A@Utvec2@glm@@@glm@@YA?AU?$tvec2@M$0A@@0@AEBU10@M@Z
pdata	ENDS
;	COMDAT pdata
pdata	SEGMENT
$pdata$??$max@M$0A@Utvec3@glm@@@glm@@YA?AU?$tvec3@M$0A@@0@AEBU10@0@Z DD imagerel $LN3
	DD	imagerel $LN3+51
	DD	imagerel $unwind$??$max@M$0A@Utvec3@glm@@@glm@@YA?AU?$tvec3@M$0A@@0@AEBU10@0@Z
pdata	ENDS
;	COMDAT pdata
pdata	SEGMENT
$pdata$??$max@M$0A@Utvec3@glm@@@glm@@YA?AU?$tvec3@M$0A@@0@AEBU10@M@Z DD imagerel $LN3
	DD	imagerel $LN3+66
	DD	imagerel $unwind$??$max@M$0A@Utvec3@glm@@@glm@@YA?AU?$tvec3@M$0A@@0@AEBU10@M@Z
pdata	ENDS
;	COMDAT pdata
pdata	SEGMENT
$pdata$??$max@M$0A@Utvec4@glm@@@glm@@YA?AU?$tvec4@M$0A@@0@AEBU10@0@Z DD imagerel $LN3
	DD	imagerel $LN3+51
	DD	imagerel $unwind$??$max@M$0A@Utvec4@glm@@@glm@@YA?AU?$tvec4@M$0A@@0@AEBU10@0@Z
pdata	ENDS
;	COMDAT pdata
pdata	SEGMENT
$pdata$??$max@M$0A@Utvec4@glm@@@glm@@YA?AU?$tvec4@M$0A@@0@AEBU10@M@Z DD imagerel $LN3
	DD	imagerel $LN3+66
	DD	imagerel $unwind$??$max@M$0A@Utvec4@glm@@@glm@@YA?AU?$tvec4@M$0A@@0@AEBU10@M@Z
pdata	ENDS
pdata	SEGMENT
$pdata$?test@clamp_@@YAHXZ DD imagerel $LN3
	DD	imagerel $LN3+22
	DD	imagerel $unwind$?test@clamp_@@YAHXZ
pdata	ENDS
;	COMDAT pdata
pdata	SEGMENT
$pdata$??__ETestVec2Bool@mix_@@YAXXZ DD imagerel ??__ETestVec2Bool@mix_@@YAXXZ
	DD	imagerel ??__ETestVec2Bool@mix_@@YAXXZ+265
	DD	imagerel $unwind$??__ETestVec2Bool@mix_@@YAXXZ
pdata	ENDS
;	COMDAT pdata
pdata	SEGMENT
$pdata$??__ETestBVec2@mix_@@YAXXZ DD imagerel ??__ETestBVec2@mix_@@YAXXZ
	DD	imagerel ??__ETestBVec2@mix_@@YAXXZ+378
	DD	imagerel $unwind$??__ETestBVec2@mix_@@YAXXZ
pdata	ENDS
;	COMDAT pdata
pdata	SEGMENT
$pdata$??__ETestVec3Bool@mix_@@YAXXZ DD imagerel ??__ETestVec3Bool@mix_@@YAXXZ
	DD	imagerel ??__ETestVec3Bool@mix_@@YAXXZ+265
	DD	imagerel $unwind$??__ETestVec3Bool@mix_@@YAXXZ
pdata	ENDS
;	COMDAT pdata
pdata	SEGMENT
$pdata$??__ETestBVec3@mix_@@YAXXZ DD imagerel ??__ETestBVec3@mix_@@YAXXZ
	DD	imagerel ??__ETestBVec3@mix_@@YAXXZ+421
	DD	imagerel $unwind$??__ETestBVec3@mix_@@YAXXZ
pdata	ENDS
;	COMDAT pdata
pdata	SEGMENT
$pdata$??__ETestVec4Bool@mix_@@YAXXZ DD imagerel ??__ETestVec4Bool@mix_@@YAXXZ
	DD	imagerel ??__ETestVec4Bool@mix_@@YAXXZ+265
	DD	imagerel $unwind$??__ETestVec4Bool@mix_@@YAXXZ
pdata	ENDS
;	COMDAT pdata
pdata	SEGMENT
$pdata$??__ETestBVec4@mix_@@YAXXZ DD imagerel ??__ETestBVec4@mix_@@YAXXZ
	DD	imagerel ??__ETestBVec4@mix_@@YAXXZ+564
	DD	imagerel $unwind$??__ETestBVec4@mix_@@YAXXZ
pdata	ENDS
pdata	SEGMENT
$pdata$?test@mix_@@YAHXZ DD imagerel $LN67
	DD	imagerel $LN67+3300
	DD	imagerel $unwind$?test@mix_@@YAHXZ
pdata	ENDS
;	COMDAT pdata
pdata	SEGMENT
$pdata$??$mix@M_N@glm@@YAMMM_N@Z DD imagerel $LN3
	DD	imagerel $LN3+48
	DD	imagerel $unwind$??$mix@M_N@glm@@YAMMM_N@Z
pdata	ENDS
;	COMDAT pdata
pdata	SEGMENT
$pdata$??$epsilon@M@glm@@YAMXZ DD imagerel $LN3
	DD	imagerel $LN3+17
	DD	imagerel $unwind$??$epsilon@M@glm@@YAMXZ
pdata	ENDS
;	COMDAT pdata
pdata	SEGMENT
$pdata$??$mix@MM@glm@@YAMMMM@Z DD imagerel $LN3
	DD	imagerel $LN3+49
	DD	imagerel $unwind$??$mix@MM@glm@@YAMMMM@Z
pdata	ENDS
;	COMDAT pdata
pdata	SEGMENT
$pdata$??$mix@M_N$0A@Utvec2@glm@@@glm@@YA?AU?$tvec2@M$0A@@0@AEBU10@0_N@Z DD imagerel $LN3
	DD	imagerel $LN3+61
	DD	imagerel $unwind$??$mix@M_N$0A@Utvec2@glm@@@glm@@YA?AU?$tvec2@M$0A@@0@AEBU10@0_N@Z
pdata	ENDS
;	COMDAT pdata
pdata	SEGMENT
$pdata$??$mix@M_N$0A@Utvec2@glm@@@glm@@YA?AU?$tvec2@M$0A@@0@AEBU10@0AEBU?$tvec2@_N$0A@@0@@Z DD imagerel $LN3
	DD	imagerel $LN3+61
	DD	imagerel $unwind$??$mix@M_N$0A@Utvec2@glm@@@glm@@YA?AU?$tvec2@M$0A@@0@AEBU10@0AEBU?$tvec2@_N$0A@@0@@Z
pdata	ENDS
;	COMDAT pdata
pdata	SEGMENT
$pdata$??$mix@M_N$0A@Utvec3@glm@@@glm@@YA?AU?$tvec3@M$0A@@0@AEBU10@0_N@Z DD imagerel $LN3
	DD	imagerel $LN3+61
	DD	imagerel $unwind$??$mix@M_N$0A@Utvec3@glm@@@glm@@YA?AU?$tvec3@M$0A@@0@AEBU10@0_N@Z
pdata	ENDS
;	COMDAT pdata
pdata	SEGMENT
$pdata$??$mix@M_N$0A@Utvec3@glm@@@glm@@YA?AU?$tvec3@M$0A@@0@AEBU10@0AEBU?$tvec3@_N$0A@@0@@Z DD imagerel $LN3
	DD	imagerel $LN3+61
	DD	imagerel $unwind$??$mix@M_N$0A@Utvec3@glm@@@glm@@YA?AU?$tvec3@M$0A@@0@AEBU10@0AEBU?$tvec3@_N$0A@@0@@Z
pdata	ENDS
;	COMDAT pdata
pdata	SEGMENT
$pdata$??$mix@M_N$0A@Utvec4@glm@@@glm@@YA?AU?$tvec4@M$0A@@0@AEBU10@0_N@Z DD imagerel $LN3
	DD	imagerel $LN3+61
	DD	imagerel $unwind$??$mix@M_N$0A@Utvec4@glm@@@glm@@YA?AU?$tvec4@M$0A@@0@AEBU10@0_N@Z
pdata	ENDS
;	COMDAT pdata
pdata	SEGMENT
$pdata$??$mix@M_N$0A@Utvec4@glm@@@glm@@YA?AU?$tvec4@M$0A@@0@AEBU10@0AEBU?$tvec4@_N$0A@@0@@Z DD imagerel $LN3
	DD	imagerel $LN3+61
	DD	imagerel $unwind$??$mix@M_N$0A@Utvec4@glm@@@glm@@YA?AU?$tvec4@M$0A@@0@AEBU10@0AEBU?$tvec4@_N$0A@@0@@Z
pdata	ENDS
;	COMDAT pdata
pdata	SEGMENT
$pdata$??__ETestVec4Scalar@step_@@YAXXZ DD imagerel ??__ETestVec4Scalar@step_@@YAXXZ
	DD	imagerel ??__ETestVec4Scalar@step_@@YAXXZ+255
	DD	imagerel $unwind$??__ETestVec4Scalar@step_@@YAXXZ
pdata	ENDS
;	COMDAT pdata
pdata	SEGMENT
$pdata$??__ETestVec4Vector@step_@@YAXXZ DD imagerel ??__ETestVec4Vector@step_@@YAXXZ
	DD	imagerel ??__ETestVec4Vector@step_@@YAXXZ+467
	DD	imagerel $unwind$??__ETestVec4Vector@step_@@YAXXZ
pdata	ENDS
pdata	SEGMENT
$pdata$?test@step_@@YAHXZ DD imagerel $LN13
	DD	imagerel $LN13+488
	DD	imagerel $unwind$?test@step_@@YAHXZ
pdata	ENDS
;	COMDAT pdata
pdata	SEGMENT
$pdata$??$step@Utvec4@glm@@M$0A@@glm@@YA?AU?$tvec4@M$0A@@0@MAEBU10@@Z DD imagerel $LN3
	DD	imagerel $LN3+66
	DD	imagerel $unwind$??$step@Utvec4@glm@@M$0A@@glm@@YA?AU?$tvec4@M$0A@@0@MAEBU10@@Z
pdata	ENDS
;	COMDAT pdata
pdata	SEGMENT
$pdata$??$step@Utvec4@glm@@M$0A@@glm@@YA?AU?$tvec4@M$0A@@0@AEBU10@0@Z DD imagerel $LN3
	DD	imagerel $LN3+51
	DD	imagerel $unwind$??$step@Utvec4@glm@@M$0A@@glm@@YA?AU?$tvec4@M$0A@@0@AEBU10@0@Z
pdata	ENDS
pdata	SEGMENT
$pdata$?test@round_@@YAHXZ DD imagerel $LN31
	DD	imagerel $LN31+1050
	DD	imagerel $unwind$?test@round_@@YAHXZ
$pdata$?test@roundEven@@YAHXZ DD imagerel $LN99
	DD	imagerel $LN99+5139
	DD	imagerel $unwind$?test@roundEven@@YAHXZ
pdata	ENDS
;	COMDAT pdata
pdata	SEGMENT
$pdata$??$roundEven@M@glm@@YAMM@Z DD imagerel $LN10
	DD	imagerel $LN10+169
	DD	imagerel $unwind$??$roundEven@M@glm@@YAMM@Z
pdata	ENDS
pdata	SEGMENT
$pdata$?test@isnan_@@YAHXZ DD imagerel $LN19
	DD	imagerel $LN19+763
	DD	imagerel $unwind$?test@isnan_@@YAHXZ
pdata	ENDS
;	COMDAT pdata
pdata	SEGMENT
$pdata$??$isnan@N@@YA_NN@Z DD imagerel $LN5
	DD	imagerel $LN5+56
	DD	imagerel $unwind$??$isnan@N@@YA_NN@Z
pdata	ENDS
;	COMDAT pdata
pdata	SEGMENT
$pdata$??$isnan@N$0A@Utvec2@glm@@@glm@@YA?AU?$tvec2@_N$0A@@0@AEBU?$tvec2@N$0A@@0@@Z DD imagerel $LN3
	DD	imagerel $LN3+48
	DD	imagerel $unwind$??$isnan@N$0A@Utvec2@glm@@@glm@@YA?AU?$tvec2@_N$0A@@0@AEBU?$tvec2@N$0A@@0@@Z
pdata	ENDS
;	COMDAT pdata
pdata	SEGMENT
$pdata$??$any@$0A@Utvec2@glm@@@glm@@YA_NAEBU?$tvec2@_N$0A@@0@@Z DD imagerel $LN8
	DD	imagerel $LN8+116
	DD	imagerel $unwind$??$any@$0A@Utvec2@glm@@@glm@@YA_NAEBU?$tvec2@_N$0A@@0@@Z
pdata	ENDS
;	COMDAT pdata
pdata	SEGMENT
$pdata$??$isnan@N$0A@Utvec3@glm@@@glm@@YA?AU?$tvec3@_N$0A@@0@AEBU?$tvec3@N$0A@@0@@Z DD imagerel $LN3
	DD	imagerel $LN3+48
	DD	imagerel $unwind$??$isnan@N$0A@Utvec3@glm@@@glm@@YA?AU?$tvec3@_N$0A@@0@AEBU?$tvec3@N$0A@@0@@Z
pdata	ENDS
;	COMDAT pdata
pdata	SEGMENT
$pdata$??$any@$0A@Utvec3@glm@@@glm@@YA_NAEBU?$tvec3@_N$0A@@0@@Z DD imagerel $LN8
	DD	imagerel $LN8+116
	DD	imagerel $unwind$??$any@$0A@Utvec3@glm@@@glm@@YA_NAEBU?$tvec3@_N$0A@@0@@Z
pdata	ENDS
;	COMDAT pdata
pdata	SEGMENT
$pdata$??$isnan@N$0A@Utvec4@glm@@@glm@@YA?AU?$tvec4@_N$0A@@0@AEBU?$tvec4@N$0A@@0@@Z DD imagerel $LN3
	DD	imagerel $LN3+48
	DD	imagerel $unwind$??$isnan@N$0A@Utvec4@glm@@@glm@@YA?AU?$tvec4@_N$0A@@0@AEBU?$tvec4@N$0A@@0@@Z
pdata	ENDS
;	COMDAT pdata
pdata	SEGMENT
$pdata$??$any@$0A@Utvec4@glm@@@glm@@YA_NAEBU?$tvec4@_N$0A@@0@@Z DD imagerel $LN8
	DD	imagerel $LN8+116
	DD	imagerel $unwind$??$any@$0A@Utvec4@glm@@@glm@@YA_NAEBU?$tvec4@_N$0A@@0@@Z
pdata	ENDS
;	COMDAT pdata
pdata	SEGMENT
$pdata$??$isnan@M@@YA_NM@Z DD imagerel $LN5
	DD	imagerel $LN5+56
	DD	imagerel $unwind$??$isnan@M@@YA_NM@Z
pdata	ENDS
;	COMDAT pdata
pdata	SEGMENT
$pdata$??$isnan@M$0A@Utvec2@glm@@@glm@@YA?AU?$tvec2@_N$0A@@0@AEBU?$tvec2@M$0A@@0@@Z DD imagerel $LN3
	DD	imagerel $LN3+48
	DD	imagerel $unwind$??$isnan@M$0A@Utvec2@glm@@@glm@@YA?AU?$tvec2@_N$0A@@0@AEBU?$tvec2@M$0A@@0@@Z
pdata	ENDS
;	COMDAT pdata
pdata	SEGMENT
$pdata$??$isnan@M$0A@Utvec3@glm@@@glm@@YA?AU?$tvec3@_N$0A@@0@AEBU?$tvec3@M$0A@@0@@Z DD imagerel $LN3
	DD	imagerel $LN3+48
	DD	imagerel $unwind$??$isnan@M$0A@Utvec3@glm@@@glm@@YA?AU?$tvec3@_N$0A@@0@AEBU?$tvec3@M$0A@@0@@Z
pdata	ENDS
;	COMDAT pdata
pdata	SEGMENT
$pdata$??$isnan@M$0A@Utvec4@glm@@@glm@@YA?AU?$tvec4@_N$0A@@0@AEBU?$tvec4@M$0A@@0@@Z DD imagerel $LN3
	DD	imagerel $LN3+48
	DD	imagerel $unwind$??$isnan@M$0A@Utvec4@glm@@@glm@@YA?AU?$tvec4@_N$0A@@0@AEBU?$tvec4@M$0A@@0@@Z
pdata	ENDS
pdata	SEGMENT
$pdata$?test@isinf_@@YAHXZ DD imagerel $LN35
	DD	imagerel $LN35+1570
	DD	imagerel $unwind$?test@isinf_@@YAHXZ
pdata	ENDS
;	COMDAT pdata
pdata	SEGMENT
$pdata$??$isinf@N@@YA_NN@Z DD imagerel $LN5
	DD	imagerel $LN5+56
	DD	imagerel $unwind$??$isinf@N@@YA_NN@Z
pdata	ENDS
;	COMDAT pdata
pdata	SEGMENT
$pdata$??$isinf@N$0A@Utvec2@glm@@@glm@@YA?AU?$tvec2@_N$0A@@0@AEBU?$tvec2@N$0A@@0@@Z DD imagerel $LN3
	DD	imagerel $LN3+48
	DD	imagerel $unwind$??$isinf@N$0A@Utvec2@glm@@@glm@@YA?AU?$tvec2@_N$0A@@0@AEBU?$tvec2@N$0A@@0@@Z
pdata	ENDS
;	COMDAT pdata
pdata	SEGMENT
$pdata$??$isinf@N$0A@Utvec3@glm@@@glm@@YA?AU?$tvec3@_N$0A@@0@AEBU?$tvec3@N$0A@@0@@Z DD imagerel $LN3
	DD	imagerel $LN3+48
	DD	imagerel $unwind$??$isinf@N$0A@Utvec3@glm@@@glm@@YA?AU?$tvec3@_N$0A@@0@AEBU?$tvec3@N$0A@@0@@Z
pdata	ENDS
;	COMDAT pdata
pdata	SEGMENT
$pdata$??$isinf@N$0A@Utvec4@glm@@@glm@@YA?AU?$tvec4@_N$0A@@0@AEBU?$tvec4@N$0A@@0@@Z DD imagerel $LN3
	DD	imagerel $LN3+48
	DD	imagerel $unwind$??$isinf@N$0A@Utvec4@glm@@@glm@@YA?AU?$tvec4@_N$0A@@0@AEBU?$tvec4@N$0A@@0@@Z
pdata	ENDS
;	COMDAT pdata
pdata	SEGMENT
$pdata$??$isinf@M@@YA_NM@Z DD imagerel $LN5
	DD	imagerel $LN5+56
	DD	imagerel $unwind$??$isinf@M@@YA_NM@Z
pdata	ENDS
;	COMDAT pdata
pdata	SEGMENT
$pdata$??$isinf@M$0A@Utvec2@glm@@@glm@@YA?AU?$tvec2@_N$0A@@0@AEBU?$tvec2@M$0A@@0@@Z DD imagerel $LN3
	DD	imagerel $LN3+48
	DD	imagerel $unwind$??$isinf@M$0A@Utvec2@glm@@@glm@@YA?AU?$tvec2@_N$0A@@0@AEBU?$tvec2@M$0A@@0@@Z
pdata	ENDS
;	COMDAT pdata
pdata	SEGMENT
$pdata$??$isinf@M$0A@Utvec3@glm@@@glm@@YA?AU?$tvec3@_N$0A@@0@AEBU?$tvec3@M$0A@@0@@Z DD imagerel $LN3
	DD	imagerel $LN3+48
	DD	imagerel $unwind$??$isinf@M$0A@Utvec3@glm@@@glm@@YA?AU?$tvec3@_N$0A@@0@AEBU?$tvec3@M$0A@@0@@Z
pdata	ENDS
;	COMDAT pdata
pdata	SEGMENT
$pdata$??$isinf@M$0A@Utvec4@glm@@@glm@@YA?AU?$tvec4@_N$0A@@0@AEBU?$tvec4@M$0A@@0@@Z DD imagerel $LN3
	DD	imagerel $LN3+48
	DD	imagerel $unwind$??$isinf@M$0A@Utvec4@glm@@@glm@@YA?AU?$tvec4@_N$0A@@0@AEBU?$tvec4@M$0A@@0@@Z
pdata	ENDS
pdata	SEGMENT
$pdata$?test_int32@sign@@YAHXZ DD imagerel $LN28
	DD	imagerel $LN28+952
	DD	imagerel $unwind$?test_int32@sign@@YAHXZ
pdata	ENDS
;	COMDAT pdata
pdata	SEGMENT
$pdata$??$sign@H@glm@@YAHH@Z DD imagerel $LN3
	DD	imagerel $LN3+44
	DD	imagerel $unwind$??$sign@H@glm@@YAHH@Z
pdata	ENDS
;	COMDAT pdata
pdata	SEGMENT
$pdata$??$sign_cmp@H@sign@@YAHH@Z DD imagerel $LN7
	DD	imagerel $LN7+74
	DD	imagerel $unwind$??$sign_cmp@H@sign@@YAHH@Z
pdata	ENDS
;	COMDAT pdata
pdata	SEGMENT
$pdata$??$sign_if@H@sign@@YAHH@Z DD imagerel $LN7
	DD	imagerel $LN7+57
	DD	imagerel $unwind$??$sign_if@H@sign@@YAHH@Z
pdata	ENDS
;	COMDAT pdata
pdata	SEGMENT
$pdata$??$sign_alu1@H@sign@@YAHH@Z DD imagerel $LN3
	DD	imagerel $LN3+25
	DD	imagerel $unwind$??$sign_alu1@H@sign@@YAHH@Z
pdata	ENDS
;	COMDAT pdata
pdata	SEGMENT
$pdata$??$sign_alu2@H@sign@@YAHH@Z DD imagerel $LN3
	DD	imagerel $LN3+27
	DD	imagerel $unwind$??$sign_alu2@H@sign@@YAHH@Z
pdata	ENDS
pdata	SEGMENT
$pdata$?test_i32vec4@sign@@YAHXZ DD imagerel $LN8
	DD	imagerel $LN8+522
	DD	imagerel $unwind$?test_i32vec4@sign@@YAHXZ
pdata	ENDS
;	COMDAT pdata
pdata	SEGMENT
$pdata$??$sign@H$0A@Utvec4@glm@@@glm@@YA?AU?$tvec4@H$0A@@0@AEBU10@@Z DD imagerel $LN3
	DD	imagerel $LN3+41
	DD	imagerel $unwind$??$sign@H$0A@Utvec4@glm@@@glm@@YA?AU?$tvec4@H$0A@@0@AEBU10@@Z
pdata	ENDS
;	COMDAT pdata
pdata	SEGMENT
$pdata$??$equal@H$0A@Utvec4@glm@@@glm@@YA?AU?$tvec4@_N$0A@@0@AEBU?$tvec4@H$0A@@0@0@Z DD imagerel $LN9
	DD	imagerel $LN9+263
	DD	imagerel $unwind$??$equal@H$0A@Utvec4@glm@@@glm@@YA?AU?$tvec4@_N$0A@@0@AEBU?$tvec4@H$0A@@0@0@Z
pdata	ENDS
pdata	SEGMENT
$pdata$?test_f32vec4@sign@@YAHXZ DD imagerel $LN8
	DD	imagerel $LN8+560
	DD	imagerel $unwind$?test_f32vec4@sign@@YAHXZ
pdata	ENDS
;	COMDAT pdata
pdata	SEGMENT
$pdata$??$sign@M$0A@Utvec4@glm@@@glm@@YA?AU?$tvec4@M$0A@@0@AEBU10@@Z DD imagerel $LN3
	DD	imagerel $LN3+41
	DD	imagerel $unwind$??$sign@M$0A@Utvec4@glm@@@glm@@YA?AU?$tvec4@M$0A@@0@AEBU10@@Z
pdata	ENDS
pdata	SEGMENT
$pdata$?test@sign@@YAHXZ DD imagerel $LN3
	DD	imagerel $LN3+75
	DD	imagerel $unwind$?test@sign@@YAHXZ
$pdata$?perf_rand@sign@@YAH_K@Z DD imagerel $LN26
	DD	imagerel $LN26+1224
	DD	imagerel $unwind$?perf_rand@sign@@YAH_K@Z
pdata	ENDS
pdata	SEGMENT
$pdata$?dtor$0@?0??perf_rand@sign@@YAH_K@Z@4HA DD imagerel ?dtor$0@?0??perf_rand@sign@@YAH_K@Z@4HA
	DD	imagerel ?dtor$0@?0??perf_rand@sign@@YAH_K@Z@4HA+35
	DD	imagerel $unwind$?dtor$0@?0??perf_rand@sign@@YAH_K@Z@4HA
$pdata$?dtor$1@?0??perf_rand@sign@@YAH_K@Z@4HA DD imagerel ?dtor$1@?0??perf_rand@sign@@YAH_K@Z@4HA
	DD	imagerel ?dtor$1@?0??perf_rand@sign@@YAH_K@Z@4HA+35
	DD	imagerel $unwind$?dtor$1@?0??perf_rand@sign@@YAH_K@Z@4HA
pdata	ENDS
;	COMDAT pdata
pdata	SEGMENT
$pdata$??0?$allocator@H@std@@QEAA@XZ DD imagerel $LN3
	DD	imagerel $LN3+13
	DD	imagerel $unwind$??0?$allocator@H@std@@QEAA@XZ
pdata	ENDS
;	COMDAT pdata
pdata	SEGMENT
$pdata$?deallocate@?$allocator@H@std@@QEAAXQEAH_K@Z DD imagerel $LN13
	DD	imagerel $LN13+183
	DD	imagerel $unwind$?deallocate@?$allocator@H@std@@QEAAXQEAH_K@Z
pdata	ENDS
;	COMDAT pdata
pdata	SEGMENT
$pdata$?allocate@?$allocator@H@std@@QEAAPEAH_K@Z DD imagerel $LN3
	DD	imagerel $LN3+39
	DD	imagerel $unwind$?allocate@?$allocator@H@std@@QEAAPEAH_K@Z
pdata	ENDS
;	COMDAT pdata
pdata	SEGMENT
$pdata$?max_size@?$_Default_allocator_traits@V?$allocator@H@std@@@std@@SA_KAEBV?$allocator@H@2@@Z DD imagerel $LN3
	DD	imagerel $LN3+18
	DD	imagerel $unwind$?max_size@?$_Default_allocator_traits@V?$allocator@H@std@@@std@@SA_KAEBV?$allocator@H@2@@Z
pdata	ENDS
;	COMDAT pdata
pdata	SEGMENT
$pdata$??0?$vector@HV?$allocator@H@std@@@std@@QEAA@XZ DD imagerel $LN3
	DD	imagerel $LN3+75
	DD	imagerel $unwind$??0?$vector@HV?$allocator@H@std@@@std@@QEAA@XZ
pdata	ENDS
;	COMDAT pdata
pdata	SEGMENT
$pdata$??1?$vector@HV?$allocator@H@std@@@std@@QEAA@XZ DD imagerel $LN3
	DD	imagerel $LN3+136
	DD	imagerel $unwind$??1?$vector@HV?$allocator@H@std@@@std@@QEAA@XZ
pdata	ENDS
;	COMDAT pdata
pdata	SEGMENT
$pdata$?resize@?$vector@HV?$allocator@H@std@@@std@@QEAAX_K@Z DD imagerel $LN3
	DD	imagerel $LN3+41
	DD	imagerel $unwind$?resize@?$vector@HV?$allocator@H@std@@@std@@QEAAX_K@Z
pdata	ENDS
;	COMDAT pdata
pdata	SEGMENT
$pdata$?max_size@?$vector@HV?$allocator@H@std@@@std@@QEBA_KXZ DD imagerel $LN3
	DD	imagerel $LN3+67
	DD	imagerel $unwind$?max_size@?$vector@HV?$allocator@H@std@@@std@@QEBA_KXZ
pdata	ENDS
;	COMDAT pdata
pdata	SEGMENT
$pdata$?capacity@?$vector@HV?$allocator@H@std@@@std@@QEBA_KXZ DD imagerel $LN3
	DD	imagerel $LN3+48
	DD	imagerel $unwind$?capacity@?$vector@HV?$allocator@H@std@@@std@@QEBA_KXZ
pdata	ENDS
;	COMDAT pdata
pdata	SEGMENT
$pdata$??A?$vector@HV?$allocator@H@std@@@std@@QEAAAEAH_K@Z DD imagerel $LN12
	DD	imagerel $LN12+200
	DD	imagerel $unwind$??A?$vector@HV?$allocator@H@std@@@std@@QEAAAEAH_K@Z
pdata	ENDS
;	COMDAT pdata
pdata	SEGMENT
$pdata$?_Calculate_growth@?$vector@HV?$allocator@H@std@@@std@@AEBA_K_K@Z DD imagerel $LN5
	DD	imagerel $LN5+146
	DD	imagerel $unwind$?_Calculate_growth@?$vector@HV?$allocator@H@std@@@std@@AEBA_K_K@Z
pdata	ENDS
;	COMDAT pdata
pdata	SEGMENT
$pdata$?_Change_array@?$vector@HV?$allocator@H@std@@@std@@AEAAXQEAH_K1@Z DD imagerel $LN4
	DD	imagerel $LN4+246
	DD	imagerel $unwind$?_Change_array@?$vector@HV?$allocator@H@std@@@std@@AEAAXQEAH_K1@Z
pdata	ENDS
;	COMDAT pdata
pdata	SEGMENT
$pdata$?_Tidy@?$vector@HV?$allocator@H@std@@@std@@AEAAXXZ DD imagerel $LN4
	DD	imagerel $LN4+210
	DD	imagerel $unwind$?_Tidy@?$vector@HV?$allocator@H@std@@@std@@AEAAXXZ
pdata	ENDS
;	COMDAT pdata
pdata	SEGMENT
$pdata$?_Xlength@?$vector@HV?$allocator@H@std@@@std@@CAXXZ DD imagerel $LN3
	DD	imagerel $LN3+24
	DD	imagerel $unwind$?_Xlength@?$vector@HV?$allocator@H@std@@@std@@CAXXZ
pdata	ENDS
;	COMDAT pdata
pdata	SEGMENT
$pdata$?_Orphan_range_unlocked@?$vector@HV?$allocator@H@std@@@std@@AEBAXPEAH0@Z DD imagerel $LN8
	DD	imagerel $LN8+161
	DD	imagerel $unwind$?_Orphan_range_unlocked@?$vector@HV?$allocator@H@std@@@std@@AEBAXPEAH0@Z
pdata	ENDS
;	COMDAT pdata
pdata	SEGMENT
$pdata$?_Orphan_range_locked@?$vector@HV?$allocator@H@std@@@std@@AEBAXPEAH0@Z DD imagerel $LN4
	DD	imagerel $LN4+112
	DD	imagerel $unwind$?_Orphan_range_locked@?$vector@HV?$allocator@H@std@@@std@@AEBAXPEAH0@Z
pdata	ENDS
;	COMDAT pdata
pdata	SEGMENT
$pdata$?dtor$0@?0??_Orphan_range_locked@?$vector@HV?$allocator@H@std@@@std@@AEBAXPEAH0@Z@4HA DD imagerel ?dtor$0@?0??_Orphan_range_locked@?$vector@HV?$allocator@H@std@@@std@@AEBAXPEAH0@Z@4HA
	DD	imagerel ?dtor$0@?0??_Orphan_range_locked@?$vector@HV?$allocator@H@std@@@std@@AEBAXPEAH0@Z@4HA+36
	DD	imagerel $unwind$?dtor$0@?0??_Orphan_range_locked@?$vector@HV?$allocator@H@std@@@std@@AEBAXPEAH0@Z@4HA
pdata	ENDS
;	COMDAT pdata
pdata	SEGMENT
$pdata$?_Orphan_range@?$vector@HV?$allocator@H@std@@@std@@AEBAXPEAH0@Z DD imagerel $LN3
	DD	imagerel $LN3+46
	DD	imagerel $unwind$?_Orphan_range@?$vector@HV?$allocator@H@std@@@std@@AEBAXPEAH0@Z
pdata	ENDS
;	COMDAT pdata
pdata	SEGMENT
$pdata$?_Getal@?$vector@HV?$allocator@H@std@@@std@@AEAAAEAV?$allocator@H@2@XZ DD imagerel $LN3
	DD	imagerel $LN3+29
	DD	imagerel $unwind$?_Getal@?$vector@HV?$allocator@H@std@@@std@@AEAAAEAV?$allocator@H@2@XZ
pdata	ENDS
;	COMDAT pdata
pdata	SEGMENT
$pdata$?_Getal@?$vector@HV?$allocator@H@std@@@std@@AEBAAEBV?$allocator@H@2@XZ DD imagerel $LN3
	DD	imagerel $LN3+29
	DD	imagerel $unwind$?_Getal@?$vector@HV?$allocator@H@std@@@std@@AEBAAEBV?$allocator@H@2@XZ
pdata	ENDS
;	COMDAT pdata
pdata	SEGMENT
$pdata$??0?$_Vector_val@U?$_Simple_types@H@std@@@std@@QEAA@XZ DD imagerel $LN3
	DD	imagerel $LN3+70
	DD	imagerel $unwind$??0?$_Vector_val@U?$_Simple_types@H@std@@@std@@QEAA@XZ
pdata	ENDS
;	COMDAT pdata
pdata	SEGMENT
$pdata$?_Get_first@?$_Compressed_pair@V?$allocator@H@std@@V?$_Vector_val@U?$_Simple_types@H@std@@@2@$00@std@@QEAAAEAV?$allocator@H@2@XZ DD imagerel $LN3
	DD	imagerel $LN3+13
	DD	imagerel $unwind$?_Get_first@?$_Compressed_pair@V?$allocator@H@std@@V?$_Vector_val@U?$_Simple_types@H@std@@@2@$00@std@@QEAAAEAV?$allocator@H@2@XZ
pdata	ENDS
;	COMDAT pdata
pdata	SEGMENT
$pdata$?_Get_first@?$_Compressed_pair@V?$allocator@H@std@@V?$_Vector_val@U?$_Simple_types@H@std@@@2@$00@std@@QEBAAEBV?$allocator@H@2@XZ DD imagerel $LN3
	DD	imagerel $LN3+13
	DD	imagerel $unwind$?_Get_first@?$_Compressed_pair@V?$allocator@H@std@@V?$_Vector_val@U?$_Simple_types@H@std@@@2@$00@std@@QEBAAEBV?$allocator@H@2@XZ
pdata	ENDS
;	COMDAT pdata
pdata	SEGMENT
$pdata$??$linearRand@M@glm@@YAMMM@Z DD imagerel $LN3
	DD	imagerel $LN3+85
	DD	imagerel $unwind$??$linearRand@M@glm@@YAMMM@Z
pdata	ENDS
;	COMDAT pdata
pdata	SEGMENT
$pdata$??$sign_sub@H@sign@@YAHH@Z DD imagerel $LN3
	DD	imagerel $LN3+25
	DD	imagerel $unwind$??$sign_sub@H@sign@@YAHH@Z
pdata	ENDS
pdata	SEGMENT
$pdata$?perf_linear@sign@@YAH_K@Z DD imagerel $LN23
	DD	imagerel $LN23+1038
	DD	imagerel $unwind$?perf_linear@sign@@YAH_K@Z
pdata	ENDS
pdata	SEGMENT
$pdata$?dtor$0@?0??perf_linear@sign@@YAH_K@Z@4HA DD imagerel ?dtor$0@?0??perf_linear@sign@@YAH_K@Z@4HA
	DD	imagerel ?dtor$0@?0??perf_linear@sign@@YAH_K@Z@4HA+35
	DD	imagerel $unwind$?dtor$0@?0??perf_linear@sign@@YAH_K@Z@4HA
$pdata$?dtor$1@?0??perf_linear@sign@@YAH_K@Z@4HA DD imagerel ?dtor$1@?0??perf_linear@sign@@YAH_K@Z@4HA
	DD	imagerel ?dtor$1@?0??perf_linear@sign@@YAH_K@Z@4HA+35
	DD	imagerel $unwind$?dtor$1@?0??perf_linear@sign@@YAH_K@Z@4HA
pdata	ENDS
pdata	SEGMENT
$pdata$?perf_linear_cal@sign@@YAH_K@Z DD imagerel $LN18
	DD	imagerel $LN18+515
	DD	imagerel $unwind$?perf_linear_cal@sign@@YAH_K@Z
$pdata$?perf@sign@@YAH_K@Z DD imagerel $LN3
	DD	imagerel $LN3+94
	DD	imagerel $unwind$?perf@sign@@YAH_K@Z
$pdata$?test@frexp_@@YAHXZ DD imagerel $LN19
	DD	imagerel $LN19+1326
	DD	imagerel $unwind$?test@frexp_@@YAHXZ
pdata	ENDS
;	COMDAT pdata
pdata	SEGMENT
$pdata$?length@?$tvec1@H$0A@@glm@@SAHXZ DD imagerel $LN3
	DD	imagerel $LN3+9
	DD	imagerel $unwind$?length@?$tvec1@H$0A@@glm@@SAHXZ
pdata	ENDS
;	COMDAT pdata
pdata	SEGMENT
$pdata$??A?$tvec1@H$0A@@glm@@QEBAAEBHH@Z DD imagerel $LN5
	DD	imagerel $LN5+80
	DD	imagerel $unwind$??A?$tvec1@H$0A@@glm@@QEBAAEBHH@Z
pdata	ENDS
;	COMDAT pdata
pdata	SEGMENT
$pdata$??0?$tvec1@H$0A@@glm@@QEAA@XZ DD imagerel $LN3
	DD	imagerel $LN3+24
	DD	imagerel $unwind$??0?$tvec1@H$0A@@glm@@QEAA@XZ
pdata	ENDS
;	COMDAT pdata
pdata	SEGMENT
$pdata$??0?$tvec1@H$0A@@glm@@QEAA@H@Z DD imagerel $LN3
	DD	imagerel $LN3+28
	DD	imagerel $unwind$??0?$tvec1@H$0A@@glm@@QEAA@H@Z
pdata	ENDS
;	COMDAT pdata
pdata	SEGMENT
$pdata$??$frexp@M$0A@@glm@@YA?AU?$tvec1@M$0A@@0@AEBU10@AEAU?$tvec1@H$0A@@0@@Z DD imagerel $LN3
	DD	imagerel $LN3+66
	DD	imagerel $unwind$??$frexp@M$0A@@glm@@YA?AU?$tvec1@M$0A@@0@AEBU10@AEAU?$tvec1@H$0A@@0@@Z
pdata	ENDS
;	COMDAT pdata
pdata	SEGMENT
$pdata$??$equal@H$0A@Utvec1@glm@@@glm@@YA?AU?$tvec1@_N$0A@@0@AEBU?$tvec1@H$0A@@0@0@Z DD imagerel $LN9
	DD	imagerel $LN9+264
	DD	imagerel $unwind$??$equal@H$0A@Utvec1@glm@@@glm@@YA?AU?$tvec1@_N$0A@@0@AEBU?$tvec1@H$0A@@0@0@Z
pdata	ENDS
;	COMDAT pdata
pdata	SEGMENT
$pdata$??$?0HN@?$tvec2@M$0A@@glm@@QEAA@HN@Z DD imagerel $LN3
	DD	imagerel $LN3+54
	DD	imagerel $unwind$??$?0HN@?$tvec2@M$0A@@glm@@QEAA@HN@Z
pdata	ENDS
;	COMDAT pdata
pdata	SEGMENT
$pdata$??$frexp@M$0A@@glm@@YA?AU?$tvec2@M$0A@@0@AEBU10@AEAU?$tvec2@H$0A@@0@@Z DD imagerel $LN3
	DD	imagerel $LN3+108
	DD	imagerel $unwind$??$frexp@M$0A@@glm@@YA?AU?$tvec2@M$0A@@0@AEBU10@AEAU?$tvec2@H$0A@@0@@Z
pdata	ENDS
;	COMDAT pdata
pdata	SEGMENT
$pdata$??$?0NN@?$tvec2@M$0A@@glm@@QEAA@NN@Z DD imagerel $LN3
	DD	imagerel $LN3+56
	DD	imagerel $unwind$??$?0NN@?$tvec2@M$0A@@glm@@QEAA@NN@Z
pdata	ENDS
;	COMDAT pdata
pdata	SEGMENT
$pdata$??$equal@H$0A@Utvec2@glm@@@glm@@YA?AU?$tvec2@_N$0A@@0@AEBU?$tvec2@H$0A@@0@0@Z DD imagerel $LN9
	DD	imagerel $LN9+265
	DD	imagerel $unwind$??$equal@H$0A@Utvec2@glm@@@glm@@YA?AU?$tvec2@_N$0A@@0@AEBU?$tvec2@H$0A@@0@0@Z
pdata	ENDS
;	COMDAT pdata
pdata	SEGMENT
$pdata$??$?0HNH@?$tvec3@M$0A@@glm@@QEAA@HNH@Z DD imagerel $LN3
	DD	imagerel $LN3+75
	DD	imagerel $unwind$??$?0HNH@?$tvec3@M$0A@@glm@@QEAA@HNH@Z
pdata	ENDS
;	COMDAT pdata
pdata	SEGMENT
$pdata$??$frexp@M$0A@@glm@@YA?AU?$tvec3@M$0A@@0@AEBU10@AEAU?$tvec3@H$0A@@0@@Z DD imagerel $LN3
	DD	imagerel $LN3+150
	DD	imagerel $unwind$??$frexp@M$0A@@glm@@YA?AU?$tvec3@M$0A@@0@AEBU10@AEAU?$tvec3@H$0A@@0@@Z
pdata	ENDS
;	COMDAT pdata
pdata	SEGMENT
$pdata$??$?0NNN@?$tvec3@M$0A@@glm@@QEAA@NNN@Z DD imagerel $LN3
	DD	imagerel $LN3+78
	DD	imagerel $unwind$??$?0NNN@?$tvec3@M$0A@@glm@@QEAA@NNN@Z
pdata	ENDS
;	COMDAT pdata
pdata	SEGMENT
$pdata$??$equal@H$0A@Utvec3@glm@@@glm@@YA?AU?$tvec3@_N$0A@@0@AEBU?$tvec3@H$0A@@0@0@Z DD imagerel $LN9
	DD	imagerel $LN9+277
	DD	imagerel $unwind$??$equal@H$0A@Utvec3@glm@@@glm@@YA?AU?$tvec3@_N$0A@@0@AEBU?$tvec3@H$0A@@0@0@Z
pdata	ENDS
;	COMDAT pdata
pdata	SEGMENT
$pdata$??$?0HNHN@?$tvec4@M$0A@@glm@@QEAA@HNHN@Z DD imagerel $LN3
	DD	imagerel $LN3+91
	DD	imagerel $unwind$??$?0HNHN@?$tvec4@M$0A@@glm@@QEAA@HNHN@Z
pdata	ENDS
;	COMDAT pdata
pdata	SEGMENT
$pdata$??$frexp@M$0A@@glm@@YA?AU?$tvec4@M$0A@@0@AEBU10@AEAU?$tvec4@H$0A@@0@@Z DD imagerel $LN3
	DD	imagerel $LN3+195
	DD	imagerel $unwind$??$frexp@M$0A@@glm@@YA?AU?$tvec4@M$0A@@0@AEBU10@AEAU?$tvec4@H$0A@@0@@Z
pdata	ENDS
;	COMDAT pdata
pdata	SEGMENT
$pdata$??$?0NNNN@?$tvec4@M$0A@@glm@@QEAA@NNNN@Z DD imagerel $LN3
	DD	imagerel $LN3+94
	DD	imagerel $unwind$??$?0NNNN@?$tvec4@M$0A@@glm@@QEAA@NNNN@Z
pdata	ENDS
pdata	SEGMENT
$pdata$?test@ldexp_@@YAHXZ DD imagerel $LN11
	DD	imagerel $LN11+949
	DD	imagerel $unwind$?test@ldexp_@@YAHXZ
pdata	ENDS
;	COMDAT pdata
pdata	SEGMENT
$pdata$??$ldexp@M$0A@@glm@@YA?AU?$tvec1@M$0A@@0@AEBU10@AEBU?$tvec1@H$0A@@0@@Z DD imagerel $LN3
	DD	imagerel $LN3+62
	DD	imagerel $unwind$??$ldexp@M$0A@@glm@@YA?AU?$tvec1@M$0A@@0@AEBU10@AEBU?$tvec1@H$0A@@0@@Z
pdata	ENDS
;	COMDAT pdata
pdata	SEGMENT
$pdata$??$ldexp@M$0A@@glm@@YA?AU?$tvec2@M$0A@@0@AEBU10@AEBU?$tvec2@H$0A@@0@@Z DD imagerel $LN3
	DD	imagerel $LN3+103
	DD	imagerel $unwind$??$ldexp@M$0A@@glm@@YA?AU?$tvec2@M$0A@@0@AEBU10@AEBU?$tvec2@H$0A@@0@@Z
pdata	ENDS
;	COMDAT pdata
pdata	SEGMENT
$pdata$??$ldexp@M$0A@@glm@@YA?AU?$tvec3@M$0A@@0@AEBU10@AEBU?$tvec3@H$0A@@0@@Z DD imagerel $LN3
	DD	imagerel $LN3+144
	DD	imagerel $unwind$??$ldexp@M$0A@@glm@@YA?AU?$tvec3@M$0A@@0@AEBU10@AEBU?$tvec3@H$0A@@0@@Z
pdata	ENDS
;	COMDAT pdata
pdata	SEGMENT
$pdata$??$ldexp@M$0A@@glm@@YA?AU?$tvec4@M$0A@@0@AEBU10@AEBU?$tvec4@H$0A@@0@@Z DD imagerel $LN3
	DD	imagerel $LN3+188
	DD	imagerel $unwind$??$ldexp@M$0A@@glm@@YA?AU?$tvec4@M$0A@@0@AEBU10@AEBU?$tvec4@H$0A@@0@@Z
pdata	ENDS
pdata	SEGMENT
$pdata$main DD	imagerel $LN3
	DD	imagerel $LN3+390
	DD	imagerel $unwind$main
pdata	ENDS
;	COMDAT pdata
pdata	SEGMENT
$pdata$??$?SH$0A@@glm@@YA?AU?$tvec4@H$0A@@0@AEBU10@@Z DD imagerel $LN3
	DD	imagerel $LN3+41
	DD	imagerel $unwind$??$?SH$0A@@glm@@YA?AU?$tvec4@H$0A@@0@AEBU10@@Z
pdata	ENDS
;	COMDAT pdata
pdata	SEGMENT
$pdata$??$_Resize@U_Value_init_tag@std@@@?$vector@HV?$allocator@H@std@@@std@@AEAAX_KAEBU_Value_init_tag@1@@Z DD imagerel $LN6
	DD	imagerel $LN6+362
	DD	imagerel $unwind$??$_Resize@U_Value_init_tag@std@@@?$vector@HV?$allocator@H@std@@@std@@AEAAX_KAEBU_Value_init_tag@1@@Z
pdata	ENDS
;	COMDAT pdata
pdata	SEGMENT
$pdata$?allocate@?$allocator@U_Container_proxy@std@@@std@@QEAAPEAU_Container_proxy@2@_K@Z DD imagerel $LN3
	DD	imagerel $LN3+39
	DD	imagerel $unwind$?allocate@?$allocator@U_Container_proxy@std@@@std@@QEAAPEAU_Container_proxy@2@_K@Z
pdata	ENDS
;	COMDAT pdata
pdata	SEGMENT
$pdata$??$?0H@?$allocator@U_Container_proxy@std@@@std@@QEAA@AEBV?$allocator@H@1@@Z DD imagerel $LN3
	DD	imagerel $LN3+18
	DD	imagerel $unwind$??$?0H@?$allocator@U_Container_proxy@std@@@std@@QEAA@AEBV?$allocator@H@1@@Z
pdata	ENDS
;	COMDAT pdata
pdata	SEGMENT
$pdata$??$exchange@PEAU_Container_proxy@std@@$$T@std@@YAPEAU_Container_proxy@0@AEAPEAU10@$$QEA$$T@Z DD imagerel $LN3
	DD	imagerel $LN3+53
	DD	imagerel $unwind$??$exchange@PEAU_Container_proxy@std@@$$T@std@@YAPEAU_Container_proxy@0@AEAPEAU10@$$QEA$$T@Z
pdata	ENDS
;	COMDAT pdata
pdata	SEGMENT
$pdata$??$_Delete_plain_internal@V?$allocator@U_Container_proxy@std@@@std@@@std@@YAXAEAV?$allocator@U_Container_proxy@std@@@0@QEAU_Container_proxy@0@@Z DD imagerel $LN3
	DD	imagerel $LN3+36
	DD	imagerel $unwind$??$_Delete_plain_internal@V?$allocator@U_Container_proxy@std@@@std@@@std@@YAXAEAV?$allocator@U_Container_proxy@std@@@0@QEAU_Container_proxy@0@@Z
pdata	ENDS
;	COMDAT pdata
pdata	SEGMENT
$pdata$??$?0$$V@?$_Compressed_pair@V?$allocator@H@std@@V?$_Vector_val@U?$_Simple_types@H@std@@@2@$00@std@@QEAA@U_Zero_then_variadic_args_t@1@@Z DD imagerel $LN3
	DD	imagerel $LN3+48
	DD	imagerel $unwind$??$?0$$V@?$_Compressed_pair@V?$allocator@H@std@@V?$_Vector_val@U?$_Simple_types@H@std@@@2@$00@std@@QEAA@U_Zero_then_variadic_args_t@1@@Z
pdata	ENDS
;	COMDAT pdata
pdata	SEGMENT
$pdata$??$_Alloc_proxy@V?$allocator@U_Container_proxy@std@@@std@@@_Container_base12@std@@QEAAX$$QEAV?$allocator@U_Container_proxy@std@@@1@@Z DD imagerel $LN3
	DD	imagerel $LN3+100
	DD	imagerel $unwind$??$_Alloc_proxy@V?$allocator@U_Container_proxy@std@@@std@@@_Container_base12@std@@QEAAX$$QEAV?$allocator@U_Container_proxy@std@@@1@@Z
pdata	ENDS
;	COMDAT pdata
pdata	SEGMENT
$pdata$??$_Destroy_range@V?$allocator@H@std@@@std@@YAXPEAHQEAHAEAV?$allocator@H@0@@Z DD imagerel $LN3
	DD	imagerel $LN3+18
	DD	imagerel $unwind$??$_Destroy_range@V?$allocator@H@std@@@std@@YAXPEAHQEAHAEAV?$allocator@H@0@@Z
pdata	ENDS
;	COMDAT pdata
pdata	SEGMENT
$pdata$??$_Deallocate@$0BA@$0A@@std@@YAXPEAX_K@Z DD imagerel $LN4
	DD	imagerel $LN4+63
	DD	imagerel $unwind$??$_Deallocate@$0BA@$0A@@std@@YAXPEAX_K@Z
pdata	ENDS
;	COMDAT pdata
pdata	SEGMENT
$pdata$?call@?$compute_abs@M$00@detail@glm@@SAMM@Z DD imagerel $LN5
	DD	imagerel $LN5+71
	DD	imagerel $unwind$?call@?$compute_abs@M$00@detail@glm@@SAMM@Z
pdata	ENDS
;	COMDAT pdata
pdata	SEGMENT
$pdata$?call@?$compute_abs@N$00@detail@glm@@SANN@Z DD imagerel $LN5
	DD	imagerel $LN5+72
	DD	imagerel $unwind$?call@?$compute_abs@N$00@detail@glm@@SANN@Z
pdata	ENDS
;	COMDAT pdata
pdata	SEGMENT
$pdata$?call@?$compute_floor@M$0A@Utvec1@glm@@$0A@@detail@glm@@SA?AU?$tvec1@M$0A@@3@AEBU43@@Z DD imagerel $LN3
	DD	imagerel $LN3+48
	DD	imagerel $unwind$?call@?$compute_floor@M$0A@Utvec1@glm@@$0A@@detail@glm@@SA?AU?$tvec1@M$0A@@3@AEBU43@@Z
pdata	ENDS
;	COMDAT pdata
pdata	SEGMENT
$pdata$??$?GM$0A@@glm@@YA?AU?$tvec1@M$0A@@0@AEBU10@0@Z DD imagerel $LN3
	DD	imagerel $LN3+62
	DD	imagerel $unwind$??$?GM$0A@@glm@@YA?AU?$tvec1@M$0A@@0@AEBU10@0@Z
pdata	ENDS
;	COMDAT pdata
pdata	SEGMENT
$pdata$??$abs@M$0A@Utvec1@glm@@@glm@@YA?AU?$tvec1@M$0A@@0@AEBU10@@Z DD imagerel $LN3
	DD	imagerel $LN3+41
	DD	imagerel $unwind$??$abs@M$0A@Utvec1@glm@@@glm@@YA?AU?$tvec1@M$0A@@0@AEBU10@@Z
pdata	ENDS
;	COMDAT pdata
pdata	SEGMENT
$pdata$??$lessThan@M$0A@Utvec1@glm@@@glm@@YA?AU?$tvec1@_N$0A@@0@AEBU?$tvec1@M$0A@@0@0@Z DD imagerel $LN9
	DD	imagerel $LN9+267
	DD	imagerel $unwind$??$lessThan@M$0A@Utvec1@glm@@@glm@@YA?AU?$tvec1@_N$0A@@0@AEBU?$tvec1@M$0A@@0@0@Z
pdata	ENDS
;	COMDAT pdata
pdata	SEGMENT
$pdata$?call@?$compute_floor@N$0A@Utvec1@glm@@$0A@@detail@glm@@SA?AU?$tvec1@N$0A@@3@AEBU43@@Z DD imagerel $LN3
	DD	imagerel $LN3+48
	DD	imagerel $unwind$?call@?$compute_floor@N$0A@Utvec1@glm@@$0A@@detail@glm@@SA?AU?$tvec1@N$0A@@3@AEBU43@@Z
pdata	ENDS
;	COMDAT pdata
pdata	SEGMENT
$pdata$??$?GN$0A@@glm@@YA?AU?$tvec1@N$0A@@0@AEBU10@0@Z DD imagerel $LN3
	DD	imagerel $LN3+62
	DD	imagerel $unwind$??$?GN$0A@@glm@@YA?AU?$tvec1@N$0A@@0@AEBU10@0@Z
pdata	ENDS
;	COMDAT pdata
pdata	SEGMENT
$pdata$??$abs@N$0A@Utvec1@glm@@@glm@@YA?AU?$tvec1@N$0A@@0@AEBU10@@Z DD imagerel $LN3
	DD	imagerel $LN3+41
	DD	imagerel $unwind$??$abs@N$0A@Utvec1@glm@@@glm@@YA?AU?$tvec1@N$0A@@0@AEBU10@@Z
pdata	ENDS
;	COMDAT pdata
pdata	SEGMENT
$pdata$??$lessThan@N$0A@Utvec1@glm@@@glm@@YA?AU?$tvec1@_N$0A@@0@AEBU?$tvec1@N$0A@@0@0@Z DD imagerel $LN9
	DD	imagerel $LN9+268
	DD	imagerel $unwind$??$lessThan@N$0A@Utvec1@glm@@@glm@@YA?AU?$tvec1@_N$0A@@0@AEBU?$tvec1@N$0A@@0@0@Z
pdata	ENDS
;	COMDAT pdata
pdata	SEGMENT
$pdata$?call@?$compute_floor@M$0A@Utvec2@glm@@$0A@@detail@glm@@SA?AU?$tvec2@M$0A@@3@AEBU43@@Z DD imagerel $LN3
	DD	imagerel $LN3+48
	DD	imagerel $unwind$?call@?$compute_floor@M$0A@Utvec2@glm@@$0A@@detail@glm@@SA?AU?$tvec2@M$0A@@3@AEBU43@@Z
pdata	ENDS
;	COMDAT pdata
pdata	SEGMENT
$pdata$??$?GM$0A@@glm@@YA?AU?$tvec2@M$0A@@0@AEBU10@0@Z DD imagerel $LN3
	DD	imagerel $LN3+82
	DD	imagerel $unwind$??$?GM$0A@@glm@@YA?AU?$tvec2@M$0A@@0@AEBU10@0@Z
pdata	ENDS
;	COMDAT pdata
pdata	SEGMENT
$pdata$??$abs@M$0A@Utvec2@glm@@@glm@@YA?AU?$tvec2@M$0A@@0@AEBU10@@Z DD imagerel $LN3
	DD	imagerel $LN3+41
	DD	imagerel $unwind$??$abs@M$0A@Utvec2@glm@@@glm@@YA?AU?$tvec2@M$0A@@0@AEBU10@@Z
pdata	ENDS
;	COMDAT pdata
pdata	SEGMENT
$pdata$??$lessThan@M$0A@Utvec2@glm@@@glm@@YA?AU?$tvec2@_N$0A@@0@AEBU?$tvec2@M$0A@@0@0@Z DD imagerel $LN9
	DD	imagerel $LN9+268
	DD	imagerel $unwind$??$lessThan@M$0A@Utvec2@glm@@@glm@@YA?AU?$tvec2@_N$0A@@0@AEBU?$tvec2@M$0A@@0@0@Z
pdata	ENDS
;	COMDAT pdata
pdata	SEGMENT
$pdata$?call@?$compute_floor@N$0A@Utvec2@glm@@$0A@@detail@glm@@SA?AU?$tvec2@N$0A@@3@AEBU43@@Z DD imagerel $LN3
	DD	imagerel $LN3+48
	DD	imagerel $unwind$?call@?$compute_floor@N$0A@Utvec2@glm@@$0A@@detail@glm@@SA?AU?$tvec2@N$0A@@3@AEBU43@@Z
pdata	ENDS
;	COMDAT pdata
pdata	SEGMENT
$pdata$??$?GN$0A@@glm@@YA?AU?$tvec2@N$0A@@0@AEBU10@0@Z DD imagerel $LN3
	DD	imagerel $LN3+82
	DD	imagerel $unwind$??$?GN$0A@@glm@@YA?AU?$tvec2@N$0A@@0@AEBU10@0@Z
pdata	ENDS
;	COMDAT pdata
pdata	SEGMENT
$pdata$??$abs@N$0A@Utvec2@glm@@@glm@@YA?AU?$tvec2@N$0A@@0@AEBU10@@Z DD imagerel $LN3
	DD	imagerel $LN3+41
	DD	imagerel $unwind$??$abs@N$0A@Utvec2@glm@@@glm@@YA?AU?$tvec2@N$0A@@0@AEBU10@@Z
pdata	ENDS
;	COMDAT pdata
pdata	SEGMENT
$pdata$??$lessThan@N$0A@Utvec2@glm@@@glm@@YA?AU?$tvec2@_N$0A@@0@AEBU?$tvec2@N$0A@@0@0@Z DD imagerel $LN9
	DD	imagerel $LN9+269
	DD	imagerel $unwind$??$lessThan@N$0A@Utvec2@glm@@@glm@@YA?AU?$tvec2@_N$0A@@0@AEBU?$tvec2@N$0A@@0@0@Z
pdata	ENDS
;	COMDAT pdata
pdata	SEGMENT
$pdata$?call@?$compute_floor@M$0A@Utvec3@glm@@$0A@@detail@glm@@SA?AU?$tvec3@M$0A@@3@AEBU43@@Z DD imagerel $LN3
	DD	imagerel $LN3+48
	DD	imagerel $unwind$?call@?$compute_floor@M$0A@Utvec3@glm@@$0A@@detail@glm@@SA?AU?$tvec3@M$0A@@3@AEBU43@@Z
pdata	ENDS
;	COMDAT pdata
pdata	SEGMENT
$pdata$??$?GM$0A@@glm@@YA?AU?$tvec3@M$0A@@0@AEBU10@0@Z DD imagerel $LN3
	DD	imagerel $LN3+120
	DD	imagerel $unwind$??$?GM$0A@@glm@@YA?AU?$tvec3@M$0A@@0@AEBU10@0@Z
pdata	ENDS
;	COMDAT pdata
pdata	SEGMENT
$pdata$??$abs@M$0A@Utvec3@glm@@@glm@@YA?AU?$tvec3@M$0A@@0@AEBU10@@Z DD imagerel $LN3
	DD	imagerel $LN3+41
	DD	imagerel $unwind$??$abs@M$0A@Utvec3@glm@@@glm@@YA?AU?$tvec3@M$0A@@0@AEBU10@@Z
pdata	ENDS
;	COMDAT pdata
pdata	SEGMENT
$pdata$??$lessThan@M$0A@Utvec3@glm@@@glm@@YA?AU?$tvec3@_N$0A@@0@AEBU?$tvec3@M$0A@@0@0@Z DD imagerel $LN9
	DD	imagerel $LN9+280
	DD	imagerel $unwind$??$lessThan@M$0A@Utvec3@glm@@@glm@@YA?AU?$tvec3@_N$0A@@0@AEBU?$tvec3@M$0A@@0@0@Z
pdata	ENDS
;	COMDAT pdata
pdata	SEGMENT
$pdata$?call@?$compute_floor@N$0A@Utvec3@glm@@$0A@@detail@glm@@SA?AU?$tvec3@N$0A@@3@AEBU43@@Z DD imagerel $LN3
	DD	imagerel $LN3+48
	DD	imagerel $unwind$?call@?$compute_floor@N$0A@Utvec3@glm@@$0A@@detail@glm@@SA?AU?$tvec3@N$0A@@3@AEBU43@@Z
pdata	ENDS
;	COMDAT pdata
pdata	SEGMENT
$pdata$??$?GN$0A@@glm@@YA?AU?$tvec3@N$0A@@0@AEBU10@0@Z DD imagerel $LN3
	DD	imagerel $LN3+120
	DD	imagerel $unwind$??$?GN$0A@@glm@@YA?AU?$tvec3@N$0A@@0@AEBU10@0@Z
pdata	ENDS
;	COMDAT pdata
pdata	SEGMENT
$pdata$??$abs@N$0A@Utvec3@glm@@@glm@@YA?AU?$tvec3@N$0A@@0@AEBU10@@Z DD imagerel $LN3
	DD	imagerel $LN3+41
	DD	imagerel $unwind$??$abs@N$0A@Utvec3@glm@@@glm@@YA?AU?$tvec3@N$0A@@0@AEBU10@@Z
pdata	ENDS
;	COMDAT pdata
pdata	SEGMENT
$pdata$??$lessThan@N$0A@Utvec3@glm@@@glm@@YA?AU?$tvec3@_N$0A@@0@AEBU?$tvec3@N$0A@@0@0@Z DD imagerel $LN9
	DD	imagerel $LN9+281
	DD	imagerel $unwind$??$lessThan@N$0A@Utvec3@glm@@@glm@@YA?AU?$tvec3@_N$0A@@0@AEBU?$tvec3@N$0A@@0@0@Z
pdata	ENDS
;	COMDAT pdata
pdata	SEGMENT
$pdata$?call@?$compute_floor@M$0A@Utvec4@glm@@$0A@@detail@glm@@SA?AU?$tvec4@M$0A@@3@AEBU43@@Z DD imagerel $LN3
	DD	imagerel $LN3+48
	DD	imagerel $unwind$?call@?$compute_floor@M$0A@Utvec4@glm@@$0A@@detail@glm@@SA?AU?$tvec4@M$0A@@3@AEBU43@@Z
pdata	ENDS
;	COMDAT pdata
pdata	SEGMENT
$pdata$??$?GM$0A@@glm@@YA?AU?$tvec4@M$0A@@0@AEBU10@0@Z DD imagerel $LN3
	DD	imagerel $LN3+83
	DD	imagerel $unwind$??$?GM$0A@@glm@@YA?AU?$tvec4@M$0A@@0@AEBU10@0@Z
pdata	ENDS
;	COMDAT pdata
pdata	SEGMENT
$pdata$??$abs@M$0A@Utvec4@glm@@@glm@@YA?AU?$tvec4@M$0A@@0@AEBU10@@Z DD imagerel $LN3
	DD	imagerel $LN3+41
	DD	imagerel $unwind$??$abs@M$0A@Utvec4@glm@@@glm@@YA?AU?$tvec4@M$0A@@0@AEBU10@@Z
pdata	ENDS
;	COMDAT pdata
pdata	SEGMENT
$pdata$??$lessThan@M$0A@Utvec4@glm@@@glm@@YA?AU?$tvec4@_N$0A@@0@AEBU?$tvec4@M$0A@@0@0@Z DD imagerel $LN9
	DD	imagerel $LN9+266
	DD	imagerel $unwind$??$lessThan@M$0A@Utvec4@glm@@@glm@@YA?AU?$tvec4@_N$0A@@0@AEBU?$tvec4@M$0A@@0@0@Z
pdata	ENDS
;	COMDAT pdata
pdata	SEGMENT
$pdata$?call@?$compute_floor@N$0A@Utvec4@glm@@$0A@@detail@glm@@SA?AU?$tvec4@N$0A@@3@AEBU43@@Z DD imagerel $LN3
	DD	imagerel $LN3+48
	DD	imagerel $unwind$?call@?$compute_floor@N$0A@Utvec4@glm@@$0A@@detail@glm@@SA?AU?$tvec4@N$0A@@3@AEBU43@@Z
pdata	ENDS
;	COMDAT pdata
pdata	SEGMENT
$pdata$??$?GN$0A@@glm@@YA?AU?$tvec4@N$0A@@0@AEBU10@0@Z DD imagerel $LN3
	DD	imagerel $LN3+83
	DD	imagerel $unwind$??$?GN$0A@@glm@@YA?AU?$tvec4@N$0A@@0@AEBU10@0@Z
pdata	ENDS
;	COMDAT pdata
pdata	SEGMENT
$pdata$??$abs@N$0A@Utvec4@glm@@@glm@@YA?AU?$tvec4@N$0A@@0@AEBU10@@Z DD imagerel $LN3
	DD	imagerel $LN3+41
	DD	imagerel $unwind$??$abs@N$0A@Utvec4@glm@@@glm@@YA?AU?$tvec4@N$0A@@0@AEBU10@@Z
pdata	ENDS
;	COMDAT pdata
pdata	SEGMENT
$pdata$??$lessThan@N$0A@Utvec4@glm@@@glm@@YA?AU?$tvec4@_N$0A@@0@AEBU?$tvec4@N$0A@@0@0@Z DD imagerel $LN9
	DD	imagerel $LN9+267
	DD	imagerel $unwind$??$lessThan@N$0A@Utvec4@glm@@@glm@@YA?AU?$tvec4@_N$0A@@0@AEBU?$tvec4@N$0A@@0@0@Z
pdata	ENDS
;	COMDAT pdata
pdata	SEGMENT
$pdata$?call@?$compute_vec4_equal@M$0A@$0A@$0CA@$0A@@detail@glm@@SA_NAEBU?$tvec4@M$0A@@3@0@Z DD imagerel $LN5
	DD	imagerel $LN5+131
	DD	imagerel $unwind$?call@?$compute_vec4_equal@M$0A@$0A@$0CA@$0A@@detail@glm@@SA_NAEBU?$tvec4@M$0A@@3@0@Z
pdata	ENDS
;	COMDAT pdata
pdata	SEGMENT
$pdata$?call@?$compute_vec4_equal@N$0A@$0A@$0EA@$0A@@detail@glm@@SA_NAEBU?$tvec4@N$0A@@3@0@Z DD imagerel $LN5
	DD	imagerel $LN5+135
	DD	imagerel $unwind$?call@?$compute_vec4_equal@N$0A@$0A@$0EA@$0A@@detail@glm@@SA_NAEBU?$tvec4@N$0A@@3@0@Z
pdata	ENDS
;	COMDAT pdata
pdata	SEGMENT
$pdata$??$mod@M$0A@Utvec1@glm@@@glm@@YA?AU?$tvec1@M$0A@@0@AEBU10@M@Z DD imagerel $LN3
	DD	imagerel $LN3+66
	DD	imagerel $unwind$??$mod@M$0A@Utvec1@glm@@@glm@@YA?AU?$tvec1@M$0A@@0@AEBU10@M@Z
pdata	ENDS
;	COMDAT pdata
pdata	SEGMENT
$pdata$?call@?$compute_mod@M$0A@Utvec4@glm@@$0A@@detail@glm@@SA?AU?$tvec4@M$0A@@3@AEBU43@0@Z DD imagerel $LN3
	DD	imagerel $LN3+100
	DD	imagerel $unwind$?call@?$compute_mod@M$0A@Utvec4@glm@@$0A@@detail@glm@@SA?AU?$tvec4@M$0A@@3@AEBU43@0@Z
pdata	ENDS
;	COMDAT pdata
pdata	SEGMENT
$pdata$?call@?$compute_min_vector@M$0A@Utvec1@glm@@$0A@@detail@glm@@SA?AU?$tvec1@M$0A@@3@AEBU43@0@Z DD imagerel $LN3
	DD	imagerel $LN3+58
	DD	imagerel $unwind$?call@?$compute_min_vector@M$0A@Utvec1@glm@@$0A@@detail@glm@@SA?AU?$tvec1@M$0A@@3@AEBU43@0@Z
pdata	ENDS
;	COMDAT pdata
pdata	SEGMENT
$pdata$?call@?$compute_min_vector@M$0A@Utvec2@glm@@$0A@@detail@glm@@SA?AU?$tvec2@M$0A@@3@AEBU43@0@Z DD imagerel $LN3
	DD	imagerel $LN3+58
	DD	imagerel $unwind$?call@?$compute_min_vector@M$0A@Utvec2@glm@@$0A@@detail@glm@@SA?AU?$tvec2@M$0A@@3@AEBU43@0@Z
pdata	ENDS
;	COMDAT pdata
pdata	SEGMENT
$pdata$?call@?$compute_min_vector@M$0A@Utvec3@glm@@$0A@@detail@glm@@SA?AU?$tvec3@M$0A@@3@AEBU43@0@Z DD imagerel $LN3
	DD	imagerel $LN3+58
	DD	imagerel $unwind$?call@?$compute_min_vector@M$0A@Utvec3@glm@@$0A@@detail@glm@@SA?AU?$tvec3@M$0A@@3@AEBU43@0@Z
pdata	ENDS
;	COMDAT pdata
pdata	SEGMENT
$pdata$?call@?$compute_min_vector@M$0A@Utvec4@glm@@$0A@@detail@glm@@SA?AU?$tvec4@M$0A@@3@AEBU43@0@Z DD imagerel $LN3
	DD	imagerel $LN3+58
	DD	imagerel $unwind$?call@?$compute_min_vector@M$0A@Utvec4@glm@@$0A@@detail@glm@@SA?AU?$tvec4@M$0A@@3@AEBU43@0@Z
pdata	ENDS
;	COMDAT pdata
pdata	SEGMENT
$pdata$?call@?$compute_max_vector@M$0A@Utvec1@glm@@$0A@@detail@glm@@SA?AU?$tvec1@M$0A@@3@AEBU43@0@Z DD imagerel $LN3
	DD	imagerel $LN3+58
	DD	imagerel $unwind$?call@?$compute_max_vector@M$0A@Utvec1@glm@@$0A@@detail@glm@@SA?AU?$tvec1@M$0A@@3@AEBU43@0@Z
pdata	ENDS
;	COMDAT pdata
pdata	SEGMENT
$pdata$?call@?$compute_max_vector@M$0A@Utvec2@glm@@$0A@@detail@glm@@SA?AU?$tvec2@M$0A@@3@AEBU43@0@Z DD imagerel $LN3
	DD	imagerel $LN3+58
	DD	imagerel $unwind$?call@?$compute_max_vector@M$0A@Utvec2@glm@@$0A@@detail@glm@@SA?AU?$tvec2@M$0A@@3@AEBU43@0@Z
pdata	ENDS
;	COMDAT pdata
pdata	SEGMENT
$pdata$?call@?$compute_max_vector@M$0A@Utvec3@glm@@$0A@@detail@glm@@SA?AU?$tvec3@M$0A@@3@AEBU43@0@Z DD imagerel $LN3
	DD	imagerel $LN3+58
	DD	imagerel $unwind$?call@?$compute_max_vector@M$0A@Utvec3@glm@@$0A@@detail@glm@@SA?AU?$tvec3@M$0A@@3@AEBU43@0@Z
pdata	ENDS
;	COMDAT pdata
pdata	SEGMENT
$pdata$?call@?$compute_max_vector@M$0A@Utvec4@glm@@$0A@@detail@glm@@SA?AU?$tvec4@M$0A@@3@AEBU43@0@Z DD imagerel $LN3
	DD	imagerel $LN3+58
	DD	imagerel $unwind$?call@?$compute_max_vector@M$0A@Utvec4@glm@@$0A@@detail@glm@@SA?AU?$tvec4@M$0A@@3@AEBU43@0@Z
pdata	ENDS
;	COMDAT pdata
pdata	SEGMENT
$pdata$?call@?$compute_mix@M_N@detail@glm@@SAMAEBM0AEB_N@Z DD imagerel $LN5
	DD	imagerel $LN5+76
	DD	imagerel $unwind$?call@?$compute_mix@M_N@detail@glm@@SAMAEBM0AEB_N@Z
pdata	ENDS
;	COMDAT pdata
pdata	SEGMENT
$pdata$?call@?$compute_mix@MM@detail@glm@@SAMAEBM00@Z DD imagerel $LN3
	DD	imagerel $LN3+76
	DD	imagerel $unwind$?call@?$compute_mix@MM@detail@glm@@SAMAEBM00@Z
pdata	ENDS
;	COMDAT pdata
pdata	SEGMENT
$pdata$?call@?$compute_mix_scalar@M_N$0A@Utvec2@glm@@$0A@@detail@glm@@SA?AU?$tvec2@M$0A@@3@AEBU43@0AEB_N@Z DD imagerel $LN5
	DD	imagerel $LN5+94
	DD	imagerel $unwind$?call@?$compute_mix_scalar@M_N$0A@Utvec2@glm@@$0A@@detail@glm@@SA?AU?$tvec2@M$0A@@3@AEBU43@0AEB_N@Z
pdata	ENDS
;	COMDAT pdata
pdata	SEGMENT
$pdata$?call@?$compute_mix_vector@M_N$0A@Utvec2@glm@@$0A@@detail@glm@@SA?AU?$tvec2@M$0A@@3@AEBU43@0AEBU?$tvec2@_N$0A@@3@@Z DD imagerel $LN8
	DD	imagerel $LN8+232
	DD	imagerel $unwind$?call@?$compute_mix_vector@M_N$0A@Utvec2@glm@@$0A@@detail@glm@@SA?AU?$tvec2@M$0A@@3@AEBU43@0AEBU?$tvec2@_N$0A@@3@@Z
pdata	ENDS
;	COMDAT pdata
pdata	SEGMENT
$pdata$?call@?$compute_mix_scalar@M_N$0A@Utvec3@glm@@$0A@@detail@glm@@SA?AU?$tvec3@M$0A@@3@AEBU43@0AEB_N@Z DD imagerel $LN5
	DD	imagerel $LN5+97
	DD	imagerel $unwind$?call@?$compute_mix_scalar@M_N$0A@Utvec3@glm@@$0A@@detail@glm@@SA?AU?$tvec3@M$0A@@3@AEBU43@0AEB_N@Z
pdata	ENDS
;	COMDAT pdata
pdata	SEGMENT
$pdata$?call@?$compute_mix_vector@M_N$0A@Utvec3@glm@@$0A@@detail@glm@@SA?AU?$tvec3@M$0A@@3@AEBU43@0AEBU?$tvec3@_N$0A@@3@@Z DD imagerel $LN8
	DD	imagerel $LN8+247
	DD	imagerel $unwind$?call@?$compute_mix_vector@M_N$0A@Utvec3@glm@@$0A@@detail@glm@@SA?AU?$tvec3@M$0A@@3@AEBU43@0AEBU?$tvec3@_N$0A@@3@@Z
pdata	ENDS
;	COMDAT pdata
pdata	SEGMENT
$pdata$?call@?$compute_mix_scalar@M_N$0A@Utvec4@glm@@$0A@@detail@glm@@SA?AU?$tvec4@M$0A@@3@AEBU43@0AEB_N@Z DD imagerel $LN5
	DD	imagerel $LN5+97
	DD	imagerel $unwind$?call@?$compute_mix_scalar@M_N$0A@Utvec4@glm@@$0A@@detail@glm@@SA?AU?$tvec4@M$0A@@3@AEBU43@0AEB_N@Z
pdata	ENDS
;	COMDAT pdata
pdata	SEGMENT
$pdata$?call@?$compute_mix_vector@M_N$0A@Utvec4@glm@@$0A@@detail@glm@@SA?AU?$tvec4@M$0A@@3@AEBU43@0AEBU?$tvec4@_N$0A@@3@@Z DD imagerel $LN8
	DD	imagerel $LN8+247
	DD	imagerel $unwind$?call@?$compute_mix_vector@M_N$0A@Utvec4@glm@@$0A@@detail@glm@@SA?AU?$tvec4@M$0A@@3@AEBU43@0AEBU?$tvec4@_N$0A@@3@@Z
pdata	ENDS
;	COMDAT pdata
pdata	SEGMENT
$pdata$?call@?$compute_step_vector@M$0A@Utvec4@glm@@$0A@@detail@glm@@SA?AU?$tvec4@M$0A@@3@AEBU43@0@Z DD imagerel $LN3
	DD	imagerel $LN3+124
	DD	imagerel $unwind$?call@?$compute_step_vector@M$0A@Utvec4@glm@@$0A@@detail@glm@@SA?AU?$tvec4@M$0A@@3@AEBU43@0@Z
pdata	ENDS
;	COMDAT pdata
pdata	SEGMENT
$pdata$??$fract@M@glm@@YAMM@Z DD imagerel $LN3
	DD	imagerel $LN3+50
	DD	imagerel $unwind$??$fract@M@glm@@YAMM@Z
pdata	ENDS
;	COMDAT pdata
pdata	SEGMENT
$pdata$?call@?$functor1@_NN$0A@Utvec2@glm@@@detail@glm@@SA?AU?$tvec2@_N$0A@@3@P6A_NN@ZAEBU?$tvec2@N$0A@@3@@Z DD imagerel $LN3
	DD	imagerel $LN3+84
	DD	imagerel $unwind$?call@?$functor1@_NN$0A@Utvec2@glm@@@detail@glm@@SA?AU?$tvec2@_N$0A@@3@P6A_NN@ZAEBU?$tvec2@N$0A@@3@@Z
pdata	ENDS
;	COMDAT pdata
pdata	SEGMENT
$pdata$?call@?$functor1@_NN$0A@Utvec3@glm@@@detail@glm@@SA?AU?$tvec3@_N$0A@@3@P6A_NN@ZAEBU?$tvec3@N$0A@@3@@Z DD imagerel $LN3
	DD	imagerel $LN3+111
	DD	imagerel $unwind$?call@?$functor1@_NN$0A@Utvec3@glm@@@detail@glm@@SA?AU?$tvec3@_N$0A@@3@P6A_NN@ZAEBU?$tvec3@N$0A@@3@@Z
pdata	ENDS
;	COMDAT pdata
pdata	SEGMENT
$pdata$?call@?$functor1@_NN$0A@Utvec4@glm@@@detail@glm@@SA?AU?$tvec4@_N$0A@@3@P6A_NN@ZAEBU?$tvec4@N$0A@@3@@Z DD imagerel $LN3
	DD	imagerel $LN3+138
	DD	imagerel $unwind$?call@?$functor1@_NN$0A@Utvec4@glm@@@detail@glm@@SA?AU?$tvec4@_N$0A@@3@P6A_NN@ZAEBU?$tvec4@N$0A@@3@@Z
pdata	ENDS
;	COMDAT pdata
pdata	SEGMENT
$pdata$?call@?$functor1@_NM$0A@Utvec2@glm@@@detail@glm@@SA?AU?$tvec2@_N$0A@@3@P6A_NM@ZAEBU?$tvec2@M$0A@@3@@Z DD imagerel $LN3
	DD	imagerel $LN3+84
	DD	imagerel $unwind$?call@?$functor1@_NM$0A@Utvec2@glm@@@detail@glm@@SA?AU?$tvec2@_N$0A@@3@P6A_NM@ZAEBU?$tvec2@M$0A@@3@@Z
pdata	ENDS
;	COMDAT pdata
pdata	SEGMENT
$pdata$?call@?$functor1@_NM$0A@Utvec3@glm@@@detail@glm@@SA?AU?$tvec3@_N$0A@@3@P6A_NM@ZAEBU?$tvec3@M$0A@@3@@Z DD imagerel $LN3
	DD	imagerel $LN3+111
	DD	imagerel $unwind$?call@?$functor1@_NM$0A@Utvec3@glm@@@detail@glm@@SA?AU?$tvec3@_N$0A@@3@P6A_NM@ZAEBU?$tvec3@M$0A@@3@@Z
pdata	ENDS
;	COMDAT pdata
pdata	SEGMENT
$pdata$?call@?$functor1@_NM$0A@Utvec4@glm@@@detail@glm@@SA?AU?$tvec4@_N$0A@@3@P6A_NM@ZAEBU?$tvec4@M$0A@@3@@Z DD imagerel $LN3
	DD	imagerel $LN3+138
	DD	imagerel $unwind$?call@?$functor1@_NM$0A@Utvec4@glm@@@detail@glm@@SA?AU?$tvec4@_N$0A@@3@P6A_NM@ZAEBU?$tvec4@M$0A@@3@@Z
pdata	ENDS
;	COMDAT pdata
pdata	SEGMENT
$pdata$?call@?$compute_sign@H$0A@Utvec1@glm@@$0A@$0A@@detail@glm@@SA?AU?$tvec1@H$0A@@3@AEBU43@@Z DD imagerel $LN3
	DD	imagerel $LN3+138
	DD	imagerel $unwind$?call@?$compute_sign@H$0A@Utvec1@glm@@$0A@$0A@@detail@glm@@SA?AU?$tvec1@H$0A@@3@AEBU43@@Z
pdata	ENDS
;	COMDAT pdata
pdata	SEGMENT
$pdata$?call@?$compute_sign@H$0A@Utvec4@glm@@$0A@$0A@@detail@glm@@SA?AU?$tvec4@H$0A@@3@AEBU43@@Z DD imagerel $LN3
	DD	imagerel $LN3+150
	DD	imagerel $unwind$?call@?$compute_sign@H$0A@Utvec4@glm@@$0A@$0A@@detail@glm@@SA?AU?$tvec4@H$0A@@3@AEBU43@@Z
pdata	ENDS
;	COMDAT pdata
pdata	SEGMENT
$pdata$?call@?$compute_sign@M$0A@Utvec4@glm@@$00$0A@@detail@glm@@SA?AU?$tvec4@M$0A@@3@AEBU43@@Z DD imagerel $LN3
	DD	imagerel $LN3+152
	DD	imagerel $unwind$?call@?$compute_sign@M$0A@Utvec4@glm@@$00$0A@@detail@glm@@SA?AU?$tvec4@M$0A@@3@AEBU43@@Z
pdata	ENDS
;	COMDAT pdata
pdata	SEGMENT
$pdata$?call@?$compute_linearRand@M$0A@Utvec1@glm@@@detail@glm@@SA?AU?$tvec1@M$0A@@3@AEBU43@0@Z DD imagerel $LN3
	DD	imagerel $LN3+158
	DD	imagerel $unwind$?call@?$compute_linearRand@M$0A@Utvec1@glm@@@detail@glm@@SA?AU?$tvec1@M$0A@@3@AEBU43@0@Z
pdata	ENDS
;	COMDAT pdata
pdata	SEGMENT
$pdata$??$frexp@M@glm@@YAMMAEAH@Z DD imagerel $LN3
	DD	imagerel $LN3+38
	DD	imagerel $unwind$??$frexp@M@glm@@YAMMAEAH@Z
pdata	ENDS
;	COMDAT pdata
pdata	SEGMENT
$pdata$??$ldexp@M@glm@@YAMAEBMAEBH@Z DD imagerel $LN3
	DD	imagerel $LN3+42
	DD	imagerel $unwind$??$ldexp@M@glm@@YAMAEBMAEBH@Z
pdata	ENDS
;	COMDAT pdata
pdata	SEGMENT
$pdata$?call@?$compute_vec4_bitwise_not@H$0A@$0?0$0CA@$0A@@detail@glm@@SA?AU?$tvec4@H$0A@@3@AEBU43@@Z DD imagerel $LN3
	DD	imagerel $LN3+98
	DD	imagerel $unwind$?call@?$compute_vec4_bitwise_not@H$0A@$0?0$0CA@$0A@@detail@glm@@SA?AU?$tvec4@H$0A@@3@AEBU43@@Z
pdata	ENDS
;	COMDAT pdata
pdata	SEGMENT
$pdata$??$_Resize_reallocate@U_Value_init_tag@std@@@?$vector@HV?$allocator@H@std@@@std@@AEAAX_KAEBU_Value_init_tag@1@@Z DD imagerel $LN11
	DD	imagerel $LN11+333
	DD	imagerel $unwind$??$_Resize_reallocate@U_Value_init_tag@std@@@?$vector@HV?$allocator@H@std@@@std@@AEAAX_KAEBU_Value_init_tag@1@@Z
pdata	ENDS
;	COMDAT pdata
pdata	SEGMENT
$pdata$?catch$0@?0???$_Resize_reallocate@U_Value_init_tag@std@@@?$vector@HV?$allocator@H@std@@@std@@AEAAX_KAEBU_Value_init_tag@1@@Z@4HA DD imagerel ?catch$0@?0???$_Resize_reallocate@U_Value_init_tag@std@@@?$vector@HV?$allocator@H@std@@@std@@AEAAX_KAEBU_Value_init_tag@1@@Z@4HA
	DD	imagerel ?catch$0@?0???$_Resize_reallocate@U_Value_init_tag@std@@@?$vector@HV?$allocator@H@std@@@std@@AEAAX_KAEBU_Value_init_tag@1@@Z@4HA+78
	DD	imagerel $unwind$?catch$0@?0???$_Resize_reallocate@U_Value_init_tag@std@@@?$vector@HV?$allocator@H@std@@@std@@AEAAX_KAEBU_Value_init_tag@1@@Z@4HA
pdata	ENDS
;	COMDAT pdata
pdata	SEGMENT
$pdata$??$_Uninitialized_value_construct_n@V?$allocator@H@std@@@std@@YAPEAHPEAH_KAEAV?$allocator@H@0@@Z DD imagerel $LN7
	DD	imagerel $LN7+215
	DD	imagerel $unwind$??$_Uninitialized_value_construct_n@V?$allocator@H@std@@@std@@YAPEAHPEAH_KAEAV?$allocator@H@0@@Z
pdata	ENDS
;	COMDAT pdata
pdata	SEGMENT
$pdata$?dtor$0@?0???$_Uninitialized_value_construct_n@V?$allocator@H@std@@@std@@YAPEAHPEAH_KAEAV?$allocator@H@0@@Z@4HA DD imagerel ?dtor$0@?0???$_Uninitialized_value_construct_n@V?$allocator@H@std@@@std@@YAPEAHPEAH_KAEAV?$allocator@H@0@@Z@4HA
	DD	imagerel ?dtor$0@?0???$_Uninitialized_value_construct_n@V?$allocator@H@std@@@std@@YAPEAHPEAH_KAEAV?$allocator@H@0@@Z@4HA+35
	DD	imagerel $unwind$?dtor$0@?0???$_Uninitialized_value_construct_n@V?$allocator@H@std@@@std@@YAPEAHPEAH_KAEAV?$allocator@H@0@@Z@4HA
pdata	ENDS
;	COMDAT pdata
pdata	SEGMENT
$pdata$??$_Deallocate_plain@V?$allocator@U_Container_proxy@std@@@std@@@std@@YAXAEAV?$allocator@U_Container_proxy@std@@@0@QEAU_Container_proxy@0@@Z DD imagerel $LN3
	DD	imagerel $LN3+43
	DD	imagerel $unwind$??$_Deallocate_plain@V?$allocator@U_Container_proxy@std@@@std@@@std@@YAXAEAV?$allocator@U_Container_proxy@std@@@0@QEAU_Container_proxy@0@@Z
pdata	ENDS
;	COMDAT pdata
pdata	SEGMENT
$pdata$??$_Unfancy@U_Container_proxy@std@@@std@@YAPEAU_Container_proxy@0@PEAU10@@Z DD imagerel $LN3
	DD	imagerel $LN3+13
	DD	imagerel $unwind$??$_Unfancy@U_Container_proxy@std@@@std@@YAPEAU_Container_proxy@0@PEAU10@@Z
pdata	ENDS
;	COMDAT pdata
pdata	SEGMENT
$pdata$??$_Construct_in_place@U_Container_proxy@std@@PEAU_Container_base12@2@@std@@YAXAEAU_Container_proxy@0@$$QEAPEAU_Container_base12@0@@Z DD imagerel $LN3
	DD	imagerel $LN3+80
	DD	imagerel $unwind$??$_Construct_in_place@U_Container_proxy@std@@PEAU_Container_base12@2@@std@@YAXAEAU_Container_proxy@0@$$QEAPEAU_Container_base12@0@@Z
pdata	ENDS
;	COMDAT pdata
pdata	SEGMENT
$pdata$?call@?$compute_rand@I$0A@Utvec1@glm@@@detail@glm@@SA?AU?$tvec1@I$0A@@3@XZ DD imagerel $LN3
	DD	imagerel $LN3+128
	DD	imagerel $unwind$?call@?$compute_rand@I$0A@Utvec1@glm@@@detail@glm@@SA?AU?$tvec1@I$0A@@3@XZ
pdata	ENDS
;	COMDAT pdata
pdata	SEGMENT
$pdata$??0?$tvec1@I$0A@@glm@@QEAA@I@Z DD imagerel $LN3
	DD	imagerel $LN3+28
	DD	imagerel $unwind$??0?$tvec1@I$0A@@glm@@QEAA@I@Z
pdata	ENDS
;	COMDAT pdata
pdata	SEGMENT
$pdata$??$?0I$0A@@?$tvec1@M$0A@@glm@@QEAA@AEBU?$tvec1@I$0A@@1@@Z DD imagerel $LN3
	DD	imagerel $LN3+39
	DD	imagerel $unwind$??$?0I$0A@@?$tvec1@M$0A@@glm@@QEAA@AEBU?$tvec1@I$0A@@1@@Z
pdata	ENDS
;	COMDAT pdata
pdata	SEGMENT
$pdata$??$?KM$0A@@glm@@YA?AU?$tvec1@M$0A@@0@AEBU10@M@Z DD imagerel $LN3
	DD	imagerel $LN3+60
	DD	imagerel $unwind$??$?KM$0A@@glm@@YA?AU?$tvec1@M$0A@@0@AEBU10@M@Z
pdata	ENDS
;	COMDAT pdata
pdata	SEGMENT
$pdata$??$?DM$0A@@glm@@YA?AU?$tvec1@M$0A@@0@AEBU10@0@Z DD imagerel $LN3
	DD	imagerel $LN3+62
	DD	imagerel $unwind$??$?DM$0A@@glm@@YA?AU?$tvec1@M$0A@@0@AEBU10@0@Z
pdata	ENDS
;	COMDAT pdata
pdata	SEGMENT
$pdata$??$?HM$0A@@glm@@YA?AU?$tvec1@M$0A@@0@AEBU10@0@Z DD imagerel $LN3
	DD	imagerel $LN3+62
	DD	imagerel $unwind$??$?HM$0A@@glm@@YA?AU?$tvec1@M$0A@@0@AEBU10@0@Z
pdata	ENDS
;	COMDAT pdata
pdata	SEGMENT
$pdata$??$?0_N$0A@@?$tvec4@M$0A@@glm@@QEAA@AEBU?$tvec4@_N$0A@@1@@Z DD imagerel $LN3
	DD	imagerel $LN3+108
	DD	imagerel $unwind$??$?0_N$0A@@?$tvec4@M$0A@@glm@@QEAA@AEBU?$tvec4@_N$0A@@1@@Z
pdata	ENDS
;	COMDAT pdata
pdata	SEGMENT
$pdata$??$lessThan@H$0A@Utvec4@glm@@@glm@@YA?AU?$tvec4@_N$0A@@0@AEBU?$tvec4@H$0A@@0@0@Z DD imagerel $LN9
	DD	imagerel $LN9+263
	DD	imagerel $unwind$??$lessThan@H$0A@Utvec4@glm@@@glm@@YA?AU?$tvec4@_N$0A@@0@AEBU?$tvec4@H$0A@@0@0@Z
pdata	ENDS
;	COMDAT pdata
pdata	SEGMENT
$pdata$??$?0_N$0A@@?$tvec4@H$0A@@glm@@QEAA@AEBU?$tvec4@_N$0A@@1@@Z DD imagerel $LN3
	DD	imagerel $LN3+84
	DD	imagerel $unwind$??$?0_N$0A@@?$tvec4@H$0A@@glm@@QEAA@AEBU?$tvec4@_N$0A@@1@@Z
pdata	ENDS
;	COMDAT pdata
pdata	SEGMENT
$pdata$??$?GH$0A@@glm@@YA?AU?$tvec4@H$0A@@0@AEBU10@0@Z DD imagerel $LN3
	DD	imagerel $LN3+83
	DD	imagerel $unwind$??$?GH$0A@@glm@@YA?AU?$tvec4@H$0A@@0@AEBU10@0@Z
pdata	ENDS
;	COMDAT pdata
pdata	SEGMENT
$pdata$??$lessThan@H$0A@Utvec1@glm@@@glm@@YA?AU?$tvec1@_N$0A@@0@AEBU?$tvec1@H$0A@@0@0@Z DD imagerel $LN9
	DD	imagerel $LN9+264
	DD	imagerel $unwind$??$lessThan@H$0A@Utvec1@glm@@@glm@@YA?AU?$tvec1@_N$0A@@0@AEBU?$tvec1@H$0A@@0@0@Z
pdata	ENDS
;	COMDAT pdata
pdata	SEGMENT
$pdata$??$?0_N$0A@@?$tvec1@H$0A@@glm@@QEAA@AEBU?$tvec1@_N$0A@@1@@Z DD imagerel $LN3
	DD	imagerel $LN3+33
	DD	imagerel $unwind$??$?0_N$0A@@?$tvec1@H$0A@@glm@@QEAA@AEBU?$tvec1@_N$0A@@1@@Z
pdata	ENDS
;	COMDAT pdata
pdata	SEGMENT
$pdata$??$?GH$0A@@glm@@YA?AU?$tvec1@H$0A@@0@AEBU10@0@Z DD imagerel $LN3
	DD	imagerel $LN3+59
	DD	imagerel $unwind$??$?GH$0A@@glm@@YA?AU?$tvec1@H$0A@@0@AEBU10@0@Z
pdata	ENDS
;	COMDAT pdata
pdata	SEGMENT
$pdata$?call@?$functor2@M$0A@Utvec4@glm@@@detail@glm@@SA?AU?$tvec4@M$0A@@3@P6AMMM@ZAEBU43@1@Z DD imagerel $LN3
	DD	imagerel $LN3+191
	DD	imagerel $unwind$?call@?$functor2@M$0A@Utvec4@glm@@@detail@glm@@SA?AU?$tvec4@M$0A@@3@P6AMMM@ZAEBU43@1@Z
pdata	ENDS
;	COMDAT pdata
pdata	SEGMENT
$pdata$??$max@M@glm@@YAMMM@Z DD imagerel $LN5
	DD	imagerel $LN5+68
	DD	imagerel $unwind$??$max@M@glm@@YAMMM@Z
pdata	ENDS
;	COMDAT pdata
pdata	SEGMENT
$pdata$?call@?$functor2@M$0A@Utvec3@glm@@@detail@glm@@SA?AU?$tvec3@M$0A@@3@P6AMMM@ZAEBU43@1@Z DD imagerel $LN3
	DD	imagerel $LN3+149
	DD	imagerel $unwind$?call@?$functor2@M$0A@Utvec3@glm@@@detail@glm@@SA?AU?$tvec3@M$0A@@3@P6AMMM@ZAEBU43@1@Z
pdata	ENDS
;	COMDAT pdata
pdata	SEGMENT
$pdata$?call@?$functor2@M$0A@Utvec2@glm@@@detail@glm@@SA?AU?$tvec2@M$0A@@3@P6AMMM@ZAEBU43@1@Z DD imagerel $LN3
	DD	imagerel $LN3+110
	DD	imagerel $unwind$?call@?$functor2@M$0A@Utvec2@glm@@@detail@glm@@SA?AU?$tvec2@M$0A@@3@P6AMMM@ZAEBU43@1@Z
pdata	ENDS
;	COMDAT pdata
pdata	SEGMENT
$pdata$?call@?$functor2@M$0A@Utvec1@glm@@@detail@glm@@SA?AU?$tvec1@M$0A@@3@P6AMMM@ZAEBU43@1@Z DD imagerel $LN3
	DD	imagerel $LN3+71
	DD	imagerel $unwind$?call@?$functor2@M$0A@Utvec1@glm@@@detail@glm@@SA?AU?$tvec1@M$0A@@3@P6AMMM@ZAEBU43@1@Z
pdata	ENDS
;	COMDAT pdata
pdata	SEGMENT
$pdata$??$min@M@glm@@YAMMM@Z DD imagerel $LN5
	DD	imagerel $LN5+68
	DD	imagerel $unwind$??$min@M@glm@@YAMMM@Z
pdata	ENDS
;	COMDAT pdata
pdata	SEGMENT
$pdata$??$?KM$0A@@glm@@YA?AU?$tvec4@M$0A@@0@AEBU10@0@Z DD imagerel $LN3
	DD	imagerel $LN3+83
	DD	imagerel $unwind$??$?KM$0A@@glm@@YA?AU?$tvec4@M$0A@@0@AEBU10@0@Z
pdata	ENDS
;	COMDAT pdata
pdata	SEGMENT
$pdata$??$?DM$0A@@glm@@YA?AU?$tvec4@M$0A@@0@AEBU10@0@Z DD imagerel $LN3
	DD	imagerel $LN3+83
	DD	imagerel $unwind$??$?DM$0A@@glm@@YA?AU?$tvec4@M$0A@@0@AEBU10@0@Z
pdata	ENDS
;	COMDAT pdata
pdata	SEGMENT
$pdata$?call@?$functor1@NN$0A@Utvec4@glm@@@detail@glm@@SA?AU?$tvec4@N$0A@@3@P6ANN@ZAEBU43@@Z DD imagerel $LN3
	DD	imagerel $LN3+147
	DD	imagerel $unwind$?call@?$functor1@NN$0A@Utvec4@glm@@@detail@glm@@SA?AU?$tvec4@N$0A@@3@P6ANN@ZAEBU43@@Z
pdata	ENDS
;	COMDAT pdata
pdata	SEGMENT
$pdata$?call@?$functor1@MM$0A@Utvec4@glm@@@detail@glm@@SA?AU?$tvec4@M$0A@@3@P6AMM@ZAEBU43@@Z DD imagerel $LN3
	DD	imagerel $LN3+147
	DD	imagerel $unwind$?call@?$functor1@MM$0A@Utvec4@glm@@@detail@glm@@SA?AU?$tvec4@M$0A@@3@P6AMM@ZAEBU43@@Z
pdata	ENDS
;	COMDAT pdata
pdata	SEGMENT
$pdata$?call@?$functor1@NN$0A@Utvec3@glm@@@detail@glm@@SA?AU?$tvec3@N$0A@@3@P6ANN@ZAEBU43@@Z DD imagerel $LN3
	DD	imagerel $LN3+115
	DD	imagerel $unwind$?call@?$functor1@NN$0A@Utvec3@glm@@@detail@glm@@SA?AU?$tvec3@N$0A@@3@P6ANN@ZAEBU43@@Z
pdata	ENDS
;	COMDAT pdata
pdata	SEGMENT
$pdata$?call@?$functor1@MM$0A@Utvec3@glm@@@detail@glm@@SA?AU?$tvec3@M$0A@@3@P6AMM@ZAEBU43@@Z DD imagerel $LN3
	DD	imagerel $LN3+115
	DD	imagerel $unwind$?call@?$functor1@MM$0A@Utvec3@glm@@@detail@glm@@SA?AU?$tvec3@M$0A@@3@P6AMM@ZAEBU43@@Z
pdata	ENDS
;	COMDAT pdata
pdata	SEGMENT
$pdata$?call@?$functor1@NN$0A@Utvec2@glm@@@detail@glm@@SA?AU?$tvec2@N$0A@@3@P6ANN@ZAEBU43@@Z DD imagerel $LN3
	DD	imagerel $LN3+86
	DD	imagerel $unwind$?call@?$functor1@NN$0A@Utvec2@glm@@@detail@glm@@SA?AU?$tvec2@N$0A@@3@P6ANN@ZAEBU43@@Z
pdata	ENDS
;	COMDAT pdata
pdata	SEGMENT
$pdata$?call@?$functor1@MM$0A@Utvec2@glm@@@detail@glm@@SA?AU?$tvec2@M$0A@@3@P6AMM@ZAEBU43@@Z DD imagerel $LN3
	DD	imagerel $LN3+86
	DD	imagerel $unwind$?call@?$functor1@MM$0A@Utvec2@glm@@@detail@glm@@SA?AU?$tvec2@M$0A@@3@P6AMM@ZAEBU43@@Z
pdata	ENDS
;	COMDAT pdata
pdata	SEGMENT
$pdata$?call@?$functor1@NN$0A@Utvec1@glm@@@detail@glm@@SA?AU?$tvec1@N$0A@@3@P6ANN@ZAEBU43@@Z DD imagerel $LN3
	DD	imagerel $LN3+57
	DD	imagerel $unwind$?call@?$functor1@NN$0A@Utvec1@glm@@@detail@glm@@SA?AU?$tvec1@N$0A@@3@P6ANN@ZAEBU43@@Z
pdata	ENDS
;	COMDAT pdata
pdata	SEGMENT
$pdata$?call@?$functor1@MM$0A@Utvec1@glm@@@detail@glm@@SA?AU?$tvec1@M$0A@@3@P6AMM@ZAEBU43@@Z DD imagerel $LN3
	DD	imagerel $LN3+57
	DD	imagerel $unwind$?call@?$functor1@MM$0A@Utvec1@glm@@@detail@glm@@SA?AU?$tvec1@M$0A@@3@P6AMM@ZAEBU43@@Z
pdata	ENDS
;	COMDAT pdata
pdata	SEGMENT
$pdata$??$_Get_size_of_n@$0BA@@std@@YA_K_K@Z DD imagerel $LN4
	DD	imagerel $LN4+64
	DD	imagerel $unwind$??$_Get_size_of_n@$0BA@@std@@YA_K_K@Z
pdata	ENDS
;	COMDAT pdata
pdata	SEGMENT
$pdata$??$_Allocate@$0BA@U_Default_allocate_traits@std@@$0A@@std@@YAPEAX_K@Z DD imagerel $LN5
	DD	imagerel $LN5+61
	DD	imagerel $unwind$??$_Allocate@$0BA@U_Default_allocate_traits@std@@$0A@@std@@YAPEAX_K@Z
pdata	ENDS
;	COMDAT pdata
pdata	SEGMENT
$pdata$?call@?$compute_rand@G$0A@Utvec1@glm@@@detail@glm@@SA?AU?$tvec1@G$0A@@3@XZ DD imagerel $LN3
	DD	imagerel $LN3+127
	DD	imagerel $unwind$?call@?$compute_rand@G$0A@Utvec1@glm@@@detail@glm@@SA?AU?$tvec1@G$0A@@3@XZ
pdata	ENDS
;	COMDAT pdata
pdata	SEGMENT
$pdata$??0?$tvec1@G$0A@@glm@@QEAA@G@Z DD imagerel $LN3
	DD	imagerel $LN3+31
	DD	imagerel $unwind$??0?$tvec1@G$0A@@glm@@QEAA@G@Z
pdata	ENDS
;	COMDAT pdata
pdata	SEGMENT
$pdata$??$?0G$0A@@?$tvec1@I$0A@@glm@@QEAA@AEBU?$tvec1@G$0A@@1@@Z DD imagerel $LN3
	DD	imagerel $LN3+33
	DD	imagerel $unwind$??$?0G$0A@@?$tvec1@I$0A@@glm@@QEAA@AEBU?$tvec1@G$0A@@1@@Z
pdata	ENDS
;	COMDAT pdata
pdata	SEGMENT
$pdata$??$?6I$0A@@glm@@YA?AU?$tvec1@I$0A@@0@AEBU10@I@Z DD imagerel $LN3
	DD	imagerel $LN3+69
	DD	imagerel $unwind$??$?6I$0A@@glm@@YA?AU?$tvec1@I$0A@@0@AEBU10@I@Z
pdata	ENDS
;	COMDAT pdata
pdata	SEGMENT
$pdata$??$?UI$0A@@glm@@YA?AU?$tvec1@I$0A@@0@AEBU10@0@Z DD imagerel $LN3
	DD	imagerel $LN3+59
	DD	imagerel $unwind$??$?UI$0A@@glm@@YA?AU?$tvec1@I$0A@@0@AEBU10@0@Z
pdata	ENDS
;	COMDAT pdata
pdata	SEGMENT
$pdata$?call@?$compute_rand@E$0A@Utvec1@glm@@@detail@glm@@SA?AU?$tvec1@E$0A@@3@XZ DD imagerel $LN3
	DD	imagerel $LN3+71
	DD	imagerel $unwind$?call@?$compute_rand@E$0A@Utvec1@glm@@@detail@glm@@SA?AU?$tvec1@E$0A@@3@XZ
pdata	ENDS
;	COMDAT pdata
pdata	SEGMENT
$pdata$??0?$tvec1@E$0A@@glm@@QEAA@E@Z DD imagerel $LN3
	DD	imagerel $LN3+29
	DD	imagerel $unwind$??0?$tvec1@E$0A@@glm@@QEAA@E@Z
pdata	ENDS
;	COMDAT pdata
pdata	SEGMENT
$pdata$??$?0E$0A@@?$tvec1@G$0A@@glm@@QEAA@AEBU?$tvec1@E$0A@@1@@Z DD imagerel $LN3
	DD	imagerel $LN3+34
	DD	imagerel $unwind$??$?0E$0A@@?$tvec1@G$0A@@glm@@QEAA@AEBU?$tvec1@E$0A@@1@@Z
pdata	ENDS
;	COMDAT pdata
pdata	SEGMENT
$pdata$??$?6G$0A@@glm@@YA?AU?$tvec1@G$0A@@0@AEBU10@G@Z DD imagerel $LN3
	DD	imagerel $LN3+60
	DD	imagerel $unwind$??$?6G$0A@@glm@@YA?AU?$tvec1@G$0A@@0@AEBU10@G@Z
pdata	ENDS
;	COMDAT pdata
pdata	SEGMENT
$pdata$??$?UG$0A@@glm@@YA?AU?$tvec1@G$0A@@0@AEBU10@0@Z DD imagerel $LN3
	DD	imagerel $LN3+62
	DD	imagerel $unwind$??$?UG$0A@@glm@@YA?AU?$tvec1@G$0A@@0@AEBU10@0@Z
pdata	ENDS
;	COMDAT pdata
pdata	SEGMENT
$pdata$?call@?$compute_vec4_mul@M$0A@$0A@@detail@glm@@SA?AU?$tvec4@M$0A@@3@AEBU43@0@Z DD imagerel $LN3
	DD	imagerel $LN3+143
	DD	imagerel $unwind$?call@?$compute_vec4_mul@M$0A@$0A@@detail@glm@@SA?AU?$tvec4@M$0A@@3@AEBU43@0@Z
pdata	ENDS
;	COMDAT pdata
pdata	SEGMENT
$pdata$?call@?$compute_abs_vector@M$0A@Utvec1@glm@@$0A@@detail@glm@@SA?AU?$tvec1@M$0A@@3@AEBU43@@Z DD imagerel $LN3
	DD	imagerel $LN3+48
	DD	imagerel $unwind$?call@?$compute_abs_vector@M$0A@Utvec1@glm@@$0A@@detail@glm@@SA?AU?$tvec1@M$0A@@3@AEBU43@@Z
pdata	ENDS
;	COMDAT pdata
pdata	SEGMENT
$pdata$?call@?$compute_abs_vector@N$0A@Utvec1@glm@@$0A@@detail@glm@@SA?AU?$tvec1@N$0A@@3@AEBU43@@Z DD imagerel $LN3
	DD	imagerel $LN3+48
	DD	imagerel $unwind$?call@?$compute_abs_vector@N$0A@Utvec1@glm@@$0A@@detail@glm@@SA?AU?$tvec1@N$0A@@3@AEBU43@@Z
pdata	ENDS
;	COMDAT pdata
pdata	SEGMENT
$pdata$?call@?$compute_abs_vector@M$0A@Utvec2@glm@@$0A@@detail@glm@@SA?AU?$tvec2@M$0A@@3@AEBU43@@Z DD imagerel $LN3
	DD	imagerel $LN3+48
	DD	imagerel $unwind$?call@?$compute_abs_vector@M$0A@Utvec2@glm@@$0A@@detail@glm@@SA?AU?$tvec2@M$0A@@3@AEBU43@@Z
pdata	ENDS
;	COMDAT pdata
pdata	SEGMENT
$pdata$?call@?$compute_abs_vector@N$0A@Utvec2@glm@@$0A@@detail@glm@@SA?AU?$tvec2@N$0A@@3@AEBU43@@Z DD imagerel $LN3
	DD	imagerel $LN3+48
	DD	imagerel $unwind$?call@?$compute_abs_vector@N$0A@Utvec2@glm@@$0A@@detail@glm@@SA?AU?$tvec2@N$0A@@3@AEBU43@@Z
pdata	ENDS
;	COMDAT pdata
pdata	SEGMENT
$pdata$?call@?$compute_abs_vector@M$0A@Utvec3@glm@@$0A@@detail@glm@@SA?AU?$tvec3@M$0A@@3@AEBU43@@Z DD imagerel $LN3
	DD	imagerel $LN3+48
	DD	imagerel $unwind$?call@?$compute_abs_vector@M$0A@Utvec3@glm@@$0A@@detail@glm@@SA?AU?$tvec3@M$0A@@3@AEBU43@@Z
pdata	ENDS
;	COMDAT pdata
pdata	SEGMENT
$pdata$?call@?$compute_abs_vector@N$0A@Utvec3@glm@@$0A@@detail@glm@@SA?AU?$tvec3@N$0A@@3@AEBU43@@Z DD imagerel $LN3
	DD	imagerel $LN3+48
	DD	imagerel $unwind$?call@?$compute_abs_vector@N$0A@Utvec3@glm@@$0A@@detail@glm@@SA?AU?$tvec3@N$0A@@3@AEBU43@@Z
pdata	ENDS
;	COMDAT pdata
pdata	SEGMENT
$pdata$??$?ZM@?$tvec4@M$0A@@glm@@QEAAAEAU01@AEBU01@@Z DD imagerel $LN3
	DD	imagerel $LN3+83
	DD	imagerel $unwind$??$?ZM@?$tvec4@M$0A@@glm@@QEAAAEAU01@AEBU01@@Z
pdata	ENDS
;	COMDAT pdata
pdata	SEGMENT
$pdata$?call@?$compute_abs_vector@M$0A@Utvec4@glm@@$0A@@detail@glm@@SA?AU?$tvec4@M$0A@@3@AEBU43@@Z DD imagerel $LN3
	DD	imagerel $LN3+48
	DD	imagerel $unwind$?call@?$compute_abs_vector@M$0A@Utvec4@glm@@$0A@@detail@glm@@SA?AU?$tvec4@M$0A@@3@AEBU43@@Z
pdata	ENDS
;	COMDAT pdata
pdata	SEGMENT
$pdata$??$?ZN@?$tvec4@N$0A@@glm@@QEAAAEAU01@AEBU01@@Z DD imagerel $LN3
	DD	imagerel $LN3+95
	DD	imagerel $unwind$??$?ZN@?$tvec4@N$0A@@glm@@QEAAAEAU01@AEBU01@@Z
pdata	ENDS
;	COMDAT pdata
pdata	SEGMENT
$pdata$?call@?$compute_abs_vector@N$0A@Utvec4@glm@@$0A@@detail@glm@@SA?AU?$tvec4@N$0A@@3@AEBU43@@Z DD imagerel $LN3
	DD	imagerel $LN3+48
	DD	imagerel $unwind$?call@?$compute_abs_vector@N$0A@Utvec4@glm@@$0A@@detail@glm@@SA?AU?$tvec4@N$0A@@3@AEBU43@@Z
pdata	ENDS
;	COMDAT pdata
pdata	SEGMENT
$pdata$?call@?$compute_mod@M$0A@Utvec1@glm@@$0A@@detail@glm@@SA?AU?$tvec1@M$0A@@3@AEBU43@0@Z DD imagerel $LN3
	DD	imagerel $LN3+100
	DD	imagerel $unwind$?call@?$compute_mod@M$0A@Utvec1@glm@@$0A@@detail@glm@@SA?AU?$tvec1@M$0A@@3@AEBU43@0@Z
pdata	ENDS
;	COMDAT pdata
pdata	SEGMENT
$pdata$??$fract@M$0A@Utvec1@glm@@@glm@@YA?AU?$tvec1@M$0A@@0@AEBU10@@Z DD imagerel $LN3
	DD	imagerel $LN3+41
	DD	imagerel $unwind$??$fract@M$0A@Utvec1@glm@@@glm@@YA?AU?$tvec1@M$0A@@0@AEBU10@@Z
pdata	ENDS
;	COMDAT pdata
pdata	SEGMENT
$pdata$??$_Uninitialized_move@PEAHV?$allocator@H@std@@@std@@YAPEAHQEAH0PEAHAEAV?$allocator@H@0@@Z DD imagerel $LN7
	DD	imagerel $LN7+278
	DD	imagerel $unwind$??$_Uninitialized_move@PEAHV?$allocator@H@std@@@std@@YAPEAHQEAH0PEAHAEAV?$allocator@H@0@@Z
pdata	ENDS
;	COMDAT pdata
pdata	SEGMENT
$pdata$?dtor$0@?0???$_Uninitialized_move@PEAHV?$allocator@H@std@@@std@@YAPEAHQEAH0PEAHAEAV?$allocator@H@0@@Z@4HA DD imagerel ?dtor$0@?0???$_Uninitialized_move@PEAHV?$allocator@H@std@@@std@@YAPEAHQEAH0PEAHAEAV?$allocator@H@0@@Z@4HA
	DD	imagerel ?dtor$0@?0???$_Uninitialized_move@PEAHV?$allocator@H@std@@@std@@YAPEAHQEAH0PEAHAEAV?$allocator@H@0@@Z@4HA+35
	DD	imagerel $unwind$?dtor$0@?0???$_Uninitialized_move@PEAHV?$allocator@H@std@@@std@@YAPEAHQEAH0PEAHAEAV?$allocator@H@0@@Z@4HA
pdata	ENDS
;	COMDAT pdata
pdata	SEGMENT
$pdata$??$_Unfancy@H@std@@YAPEAHPEAH@Z DD imagerel $LN3
	DD	imagerel $LN3+13
	DD	imagerel $unwind$??$_Unfancy@H@std@@YAPEAHPEAH@Z
pdata	ENDS
;	COMDAT pdata
pdata	SEGMENT
$pdata$??$_Zero_range@PEAH@std@@YAPEAHQEAH0@Z DD imagerel $LN3
	DD	imagerel $LN3+87
	DD	imagerel $unwind$??$_Zero_range@PEAH@std@@YAPEAHQEAH0@Z
pdata	ENDS
;	COMDAT pdata
pdata	SEGMENT
$pdata$??0?$_Uninitialized_backout_al@V?$allocator@H@std@@@std@@QEAA@PEAHAEAV?$allocator@H@1@@Z DD imagerel $LN3
	DD	imagerel $LN3+64
	DD	imagerel $unwind$??0?$_Uninitialized_backout_al@V?$allocator@H@std@@@std@@QEAA@PEAHAEAV?$allocator@H@1@@Z
pdata	ENDS
;	COMDAT pdata
pdata	SEGMENT
$pdata$??1?$_Uninitialized_backout_al@V?$allocator@H@std@@@std@@QEAA@XZ DD imagerel $LN3
	DD	imagerel $LN3+47
	DD	imagerel $unwind$??1?$_Uninitialized_backout_al@V?$allocator@H@std@@@std@@QEAA@XZ
pdata	ENDS
;	COMDAT pdata
pdata	SEGMENT
$pdata$?_Release@?$_Uninitialized_backout_al@V?$allocator@H@std@@@std@@QEAAPEAHXZ DD imagerel $LN3
	DD	imagerel $LN3+34
	DD	imagerel $unwind$?_Release@?$_Uninitialized_backout_al@V?$allocator@H@std@@@std@@QEAAPEAHXZ
pdata	ENDS
;	COMDAT pdata
pdata	SEGMENT
$pdata$??$_Emplace_back@$$V@?$_Uninitialized_backout_al@V?$allocator@H@std@@@std@@QEAAXXZ DD imagerel $LN3
	DD	imagerel $LN3+69
	DD	imagerel $unwind$??$_Emplace_back@$$V@?$_Uninitialized_backout_al@V?$allocator@H@std@@@std@@QEAAXXZ
pdata	ENDS
;	COMDAT pdata
pdata	SEGMENT
$pdata$?deallocate@?$_Default_allocator_traits@V?$allocator@U_Container_proxy@std@@@std@@@std@@SAXAEAV?$allocator@U_Container_proxy@std@@@2@QEAU_Container_proxy@2@_K@Z DD imagerel $LN3
	DD	imagerel $LN3+45
	DD	imagerel $unwind$?deallocate@?$_Default_allocator_traits@V?$allocator@U_Container_proxy@std@@@std@@@std@@SAXAEAV?$allocator@U_Container_proxy@std@@@2@QEAU_Container_proxy@2@_K@Z
pdata	ENDS
;	COMDAT pdata
pdata	SEGMENT
$pdata$??$addressof@U_Container_proxy@std@@@std@@YAPEAU_Container_proxy@0@AEAU10@@Z DD imagerel $LN3
	DD	imagerel $LN3+13
	DD	imagerel $unwind$??$addressof@U_Container_proxy@std@@@std@@YAPEAU_Container_proxy@0@AEAU10@@Z
pdata	ENDS
;	COMDAT pdata
pdata	SEGMENT
$pdata$??$_Voidify_iter@PEAU_Container_proxy@std@@@std@@YAPEAXPEAU_Container_proxy@0@@Z DD imagerel $LN3
	DD	imagerel $LN3+13
	DD	imagerel $unwind$??$_Voidify_iter@PEAU_Container_proxy@std@@@std@@YAPEAXPEAU_Container_proxy@0@@Z
pdata	ENDS
;	COMDAT pdata
pdata	SEGMENT
$pdata$??$forward@PEAU_Container_base12@std@@@std@@YA$$QEAPEAU_Container_base12@0@AEAPEAU10@@Z DD imagerel $LN3
	DD	imagerel $LN3+13
	DD	imagerel $unwind$??$forward@PEAU_Container_base12@std@@@std@@YA$$QEAPEAU_Container_base12@0@AEAPEAU10@@Z
pdata	ENDS
;	COMDAT pdata
pdata	SEGMENT
$pdata$??$?ZH@?$tvec4@H$0A@@glm@@QEAAAEAU01@AEBU01@@Z DD imagerel $LN3
	DD	imagerel $LN3+83
	DD	imagerel $unwind$??$?ZH@?$tvec4@H$0A@@glm@@QEAAAEAU01@AEBU01@@Z
pdata	ENDS
;	COMDAT pdata
pdata	SEGMENT
$pdata$??$?_0M@?$tvec4@M$0A@@glm@@QEAAAEAU01@AEBU01@@Z DD imagerel $LN3
	DD	imagerel $LN3+83
	DD	imagerel $unwind$??$?_0M@?$tvec4@M$0A@@glm@@QEAAAEAU01@AEBU01@@Z
pdata	ENDS
;	COMDAT pdata
pdata	SEGMENT
$pdata$??$?XM@?$tvec4@M$0A@@glm@@QEAAAEAU01@AEBU01@@Z DD imagerel $LN3
	DD	imagerel $LN3+83
	DD	imagerel $unwind$??$?XM@?$tvec4@M$0A@@glm@@QEAAAEAU01@AEBU01@@Z
pdata	ENDS
;	COMDAT pdata
pdata	SEGMENT
$pdata$??$_Allocate_manually_vector_aligned@U_Default_allocate_traits@std@@@std@@YAPEAX_K@Z DD imagerel $LN13
	DD	imagerel $LN13+259
	DD	imagerel $unwind$??$_Allocate_manually_vector_aligned@U_Default_allocate_traits@std@@@std@@YAPEAX_K@Z
pdata	ENDS
;	COMDAT pdata
pdata	SEGMENT
$pdata$??$?KM$0A@@glm@@YA?AU?$tvec1@M$0A@@0@AEBU10@0@Z DD imagerel $LN3
	DD	imagerel $LN3+62
	DD	imagerel $unwind$??$?KM$0A@@glm@@YA?AU?$tvec1@M$0A@@0@AEBU10@0@Z
pdata	ENDS
;	COMDAT pdata
pdata	SEGMENT
$pdata$??$min@_K@std@@YAAEB_KAEB_K0@Z DD imagerel $LN5
	DD	imagerel $LN5+74
	DD	imagerel $unwind$??$min@_K@std@@YAAEB_KAEB_K0@Z
pdata	ENDS
;	COMDAT pdata
pdata	SEGMENT
$pdata$??$_Get_size_of_n@$03@std@@YA_K_K@Z DD imagerel $LN4
	DD	imagerel $LN4+67
	DD	imagerel $unwind$??$_Get_size_of_n@$03@std@@YA_K_K@Z
pdata	ENDS
;	COMDAT pdata
pdata	SEGMENT
$pdata$?call@?$compute_vec4_sub@M$0A@$0A@@detail@glm@@SA?AU?$tvec4@M$0A@@3@AEBU43@0@Z DD imagerel $LN3
	DD	imagerel $LN3+143
	DD	imagerel $unwind$?call@?$compute_vec4_sub@M$0A@$0A@@detail@glm@@SA?AU?$tvec4@M$0A@@3@AEBU43@0@Z
pdata	ENDS
;	COMDAT pdata
pdata	SEGMENT
$pdata$?call@?$compute_vec4_sub@N$0A@$0A@@detail@glm@@SA?AU?$tvec4@N$0A@@3@AEBU43@0@Z DD imagerel $LN3
	DD	imagerel $LN3+143
	DD	imagerel $unwind$?call@?$compute_vec4_sub@N$0A@$0A@@detail@glm@@SA?AU?$tvec4@N$0A@@3@AEBU43@0@Z
pdata	ENDS
;	COMDAT pdata
pdata	SEGMENT
$pdata$?call@?$compute_fract@M$0A@Utvec1@glm@@$0A@@detail@glm@@SA?AU?$tvec1@M$0A@@3@AEBU43@@Z DD imagerel $LN3
	DD	imagerel $LN3+59
	DD	imagerel $unwind$?call@?$compute_fract@M$0A@Utvec1@glm@@$0A@@detail@glm@@SA?AU?$tvec1@M$0A@@3@AEBU43@@Z
pdata	ENDS
;	COMDAT pdata
pdata	SEGMENT
$pdata$??$_Get_unwrapped@AEBQEAH@std@@YA?A_TAEBQEAH@Z DD imagerel $LN3
	DD	imagerel $LN3+16
	DD	imagerel $unwind$??$_Get_unwrapped@AEBQEAH@std@@YA?A_TAEBQEAH@Z
pdata	ENDS
;	COMDAT pdata
pdata	SEGMENT
$pdata$??$move@AEAH@std@@YA$$QEAHAEAH@Z DD imagerel $LN3
	DD	imagerel $LN3+13
	DD	imagerel $unwind$??$move@AEAH@std@@YA$$QEAHAEAH@Z
pdata	ENDS
;	COMDAT pdata
pdata	SEGMENT
$pdata$??$_Copy_memmove@PEAHPEAH@std@@YAPEAHPEAH00@Z DD imagerel $LN3
	DD	imagerel $LN3+161
	DD	imagerel $unwind$??$_Copy_memmove@PEAHPEAH@std@@YAPEAHPEAH00@Z
pdata	ENDS
;	COMDAT pdata
pdata	SEGMENT
$pdata$??$_Emplace_back@H@?$_Uninitialized_backout_al@V?$allocator@H@std@@@std@@QEAAX$$QEAH@Z DD imagerel $LN3
	DD	imagerel $LN3+97
	DD	imagerel $unwind$??$_Emplace_back@H@?$_Uninitialized_backout_al@V?$allocator@H@std@@@std@@QEAAX$$QEAH@Z
pdata	ENDS
;	COMDAT pdata
pdata	SEGMENT
$pdata$??$_To_address@PEAH@std@@YA?A_PAEBQEAH@Z DD imagerel $LN3
	DD	imagerel $LN3+16
	DD	imagerel $unwind$??$_To_address@PEAH@std@@YA?A_PAEBQEAH@Z
pdata	ENDS
;	COMDAT pdata
pdata	SEGMENT
$pdata$??$construct@H$$V@?$_Default_allocator_traits@V?$allocator@H@std@@@std@@SAXAEAV?$allocator@H@1@QEAH@Z DD imagerel $LN3
	DD	imagerel $LN3+72
	DD	imagerel $unwind$??$construct@H$$V@?$_Default_allocator_traits@V?$allocator@H@std@@@std@@SAXAEAV?$allocator@H@1@QEAH@Z
pdata	ENDS
;	COMDAT pdata
pdata	SEGMENT
$pdata$?call@?$compute_vec4_sub@H$0A@$0A@@detail@glm@@SA?AU?$tvec4@H$0A@@3@AEBU43@0@Z DD imagerel $LN3
	DD	imagerel $LN3+137
	DD	imagerel $unwind$?call@?$compute_vec4_sub@H$0A@$0A@@detail@glm@@SA?AU?$tvec4@H$0A@@3@AEBU43@0@Z
pdata	ENDS
;	COMDAT pdata
pdata	SEGMENT
$pdata$?call@?$compute_vec4_div@M$0A@$0A@@detail@glm@@SA?AU?$tvec4@M$0A@@3@AEBU43@0@Z DD imagerel $LN3
	DD	imagerel $LN3+143
	DD	imagerel $unwind$?call@?$compute_vec4_div@M$0A@$0A@@detail@glm@@SA?AU?$tvec4@M$0A@@3@AEBU43@0@Z
pdata	ENDS
;	COMDAT pdata
pdata	SEGMENT
$pdata$??$forward@H@std@@YA$$QEAHAEAH@Z DD imagerel $LN3
	DD	imagerel $LN3+13
	DD	imagerel $unwind$??$forward@H@std@@YA$$QEAHAEAH@Z
pdata	ENDS
;	COMDAT pdata
pdata	SEGMENT
$pdata$??$construct@HH@?$_Default_allocator_traits@V?$allocator@H@std@@@std@@SAXAEAV?$allocator@H@1@QEAH$$QEAH@Z DD imagerel $LN3
	DD	imagerel $LN3+73
	DD	imagerel $unwind$??$construct@HH@?$_Default_allocator_traits@V?$allocator@H@std@@@std@@SAXAEAV?$allocator@H@1@QEAH$$QEAH@Z
pdata	ENDS
;	COMDAT pdata
pdata	SEGMENT
$pdata$??$_Voidify_iter@PEAH@std@@YAPEAXPEAH@Z DD imagerel $LN3
	DD	imagerel $LN3+13
	DD	imagerel $unwind$??$_Voidify_iter@PEAH@std@@YAPEAXPEAH@Z
pdata	ENDS
CRT$XCU	SEGMENT
?TestVec2Bool$initializer$@mix_@@3P6AXXZEA DQ FLAT:??__ETestVec2Bool@mix_@@YAXXZ ; mix_::TestVec2Bool$initializer$
CRT$XCU	ENDS
;	COMDAT __xmm@80000000800000008000000080000000
CONST	SEGMENT
__xmm@80000000800000008000000080000000 DB 00H, 00H, 00H, 080H, 00H, 00H, 00H
	DB	080H, 00H, 00H, 00H, 080H, 00H, 00H, 00H, 080H
CONST	ENDS
;	COMDAT __xmm@80000000000000008000000000000000
CONST	SEGMENT
__xmm@80000000000000008000000000000000 DB 00H, 00H, 00H, 00H, 00H, 00H, 00H
	DB	080H, 00H, 00H, 00H, 00H, 00H, 00H, 00H, 080H
CONST	ENDS
;	COMDAT __real@c7800000
CONST	SEGMENT
__real@c7800000 DD 0c7800000r			; -65536
CONST	ENDS
;	COMDAT __real@c1000000
CONST	SEGMENT
__real@c1000000 DD 0c1000000r			; -8
CONST	ENDS
;	COMDAT __real@c0f00000
CONST	SEGMENT
__real@c0f00000 DD 0c0f00000r			; -7.5
CONST	ENDS
;	COMDAT __real@c0d00000
CONST	SEGMENT
__real@c0d00000 DD 0c0d00000r			; -6.5
CONST	ENDS
;	COMDAT __real@c0c00000
CONST	SEGMENT
__real@c0c00000 DD 0c0c00000r			; -6
CONST	ENDS
;	COMDAT __real@c0b00000
CONST	SEGMENT
__real@c0b00000 DD 0c0b00000r			; -5.5
CONST	ENDS
;	COMDAT __real@c0a00000
CONST	SEGMENT
__real@c0a00000 DD 0c0a00000r			; -5
CONST	ENDS
;	COMDAT __real@c0900000
CONST	SEGMENT
__real@c0900000 DD 0c0900000r			; -4.5
CONST	ENDS
;	COMDAT __real@c0800000
CONST	SEGMENT
__real@c0800000 DD 0c0800000r			; -4
CONST	ENDS
;	COMDAT __real@c0600000
CONST	SEGMENT
__real@c0600000 DD 0c0600000r			; -3.5
CONST	ENDS
;	COMDAT __real@c0400000
CONST	SEGMENT
__real@c0400000 DD 0c0400000r			; -3
CONST	ENDS
;	COMDAT __real@c0266666
CONST	SEGMENT
__real@c0266666 DD 0c0266666r			; -2.6
CONST	ENDS
;	COMDAT __real@c0200000
CONST	SEGMENT
__real@c0200000 DD 0c0200000r			; -2.5
CONST	ENDS
;	COMDAT __real@c019999a
CONST	SEGMENT
__real@c019999a DD 0c019999ar			; -2.4
CONST	ENDS
;	COMDAT __real@c0000000
CONST	SEGMENT
__real@c0000000 DD 0c0000000r			; -2
CONST	ENDS
;	COMDAT __real@bff547ae147ae148
CONST	SEGMENT
__real@bff547ae147ae148 DQ 0bff547ae147ae148r	; -1.33
CONST	ENDS
;	COMDAT __real@bff33333
CONST	SEGMENT
__real@bff33333 DD 0bff33333r			; -1.9
CONST	ENDS
;	COMDAT __real@bff0000000000000
CONST	SEGMENT
__real@bff0000000000000 DQ 0bff0000000000000r	; -1
CONST	ENDS
;	COMDAT __real@bfe547ae147ae148
CONST	SEGMENT
__real@bfe547ae147ae148 DQ 0bfe547ae147ae148r	; -0.665
CONST	ENDS
;	COMDAT __real@bfc00000
CONST	SEGMENT
__real@bfc00000 DD 0bfc00000r			; -1.5
CONST	ENDS
;	COMDAT __real@bf800000
CONST	SEGMENT
__real@bf800000 DD 0bf800000r			; -1
CONST	ENDS
;	COMDAT __real@bf666666
CONST	SEGMENT
__real@bf666666 DD 0bf666666r			; -0.9
CONST	ENDS
;	COMDAT __real@bf000000
CONST	SEGMENT
__real@bf000000 DD 0bf000000r			; -0.5
CONST	ENDS
;	COMDAT __real@be4ccccd
CONST	SEGMENT
__real@be4ccccd DD 0be4ccccdr			; -0.2
CONST	ENDS
;	COMDAT __real@bdcccccd
CONST	SEGMENT
__real@bdcccccd DD 0bdcccccdr			; -0.1
CONST	ENDS
;	COMDAT __real@80000000
CONST	SEGMENT
__real@80000000 DD 080000000r			; -0
CONST	ENDS
;	COMDAT __real@47800000
CONST	SEGMENT
__real@47800000 DD 047800000r			; 65536
CONST	ENDS
;	COMDAT __real@44800000
CONST	SEGMENT
__real@44800000 DD 044800000r			; 1024
CONST	ENDS
;	COMDAT __real@41000000
CONST	SEGMENT
__real@41000000 DD 041000000r			; 8
CONST	ENDS
;	COMDAT __real@40f00000
CONST	SEGMENT
__real@40f00000 DD 040f00000r			; 7.5
CONST	ENDS
;	COMDAT __real@40e00000
CONST	SEGMENT
__real@40e00000 DD 040e00000r			; 7
CONST	ENDS
;	COMDAT __real@40d00000
CONST	SEGMENT
__real@40d00000 DD 040d00000r			; 6.5
CONST	ENDS
;	COMDAT __real@40c00000
CONST	SEGMENT
__real@40c00000 DD 040c00000r			; 6
CONST	ENDS
;	COMDAT __real@40b00000
CONST	SEGMENT
__real@40b00000 DD 040b00000r			; 5.5
CONST	ENDS
;	COMDAT __real@40a00000
CONST	SEGMENT
__real@40a00000 DD 040a00000r			; 5
CONST	ENDS
;	COMDAT __real@40900000
CONST	SEGMENT
__real@40900000 DD 040900000r			; 4.5
CONST	ENDS
;	COMDAT __real@40800000
CONST	SEGMENT
__real@40800000 DD 040800000r			; 4
CONST	ENDS
;	COMDAT __real@40600000
CONST	SEGMENT
__real@40600000 DD 040600000r			; 3.5
CONST	ENDS
;	COMDAT __real@40400000
CONST	SEGMENT
__real@40400000 DD 040400000r			; 3
CONST	ENDS
;	COMDAT __real@40266666
CONST	SEGMENT
__real@40266666 DD 040266666r			; 2.6
CONST	ENDS
;	COMDAT __real@40200000
CONST	SEGMENT
__real@40200000 DD 040200000r			; 2.5
CONST	ENDS
;	COMDAT __real@4019999a
CONST	SEGMENT
__real@4019999a DD 04019999ar			; 2.4
CONST	ENDS
;	COMDAT __real@40000000
CONST	SEGMENT
__real@40000000 DD 040000000r			; 2
CONST	ENDS
;	COMDAT __real@3ffb333333333333
CONST	SEGMENT
__real@3ffb333333333333 DQ 03ffb333333333333r	; 1.7
CONST	ENDS
;	COMDAT __real@3ff8000000000000
CONST	SEGMENT
__real@3ff8000000000000 DQ 03ff8000000000000r	; 1.5
CONST	ENDS
;	COMDAT __real@3ff3333333333333
CONST	SEGMENT
__real@3ff3333333333333 DQ 03ff3333333333333r	; 1.2
CONST	ENDS
;	COMDAT __real@3ff33333
CONST	SEGMENT
__real@3ff33333 DD 03ff33333r			; 1.9
CONST	ENDS
;	COMDAT __real@3ff19999a0000000
CONST	SEGMENT
__real@3ff19999a0000000 DQ 03ff19999a0000000r	; 1.1
CONST	ENDS
;	COMDAT __real@3ff199999999999a
CONST	SEGMENT
__real@3ff199999999999a DQ 03ff199999999999ar	; 1.1
CONST	ENDS
;	COMDAT __real@3ff0000000000000
CONST	SEGMENT
__real@3ff0000000000000 DQ 03ff0000000000000r	; 1
CONST	ENDS
;	COMDAT __real@3feeb851eb851eb8
CONST	SEGMENT
__real@3feeb851eb851eb8 DQ 03feeb851eb851eb8r	; 0.96
CONST	ENDS
;	COMDAT __real@3fe6666666666666
CONST	SEGMENT
__real@3fe6666666666666 DQ 03fe6666666666666r	; 0.7
CONST	ENDS
;	COMDAT __real@3fe0000000000000
CONST	SEGMENT
__real@3fe0000000000000 DQ 03fe0000000000000r	; 0.5
CONST	ENDS
;	COMDAT __real@3fd9999a
CONST	SEGMENT
__real@3fd9999a DD 03fd9999ar			; 1.7
CONST	ENDS
;	COMDAT __real@3fceb851eb851eb8
CONST	SEGMENT
__real@3fceb851eb851eb8 DQ 03fceb851eb851eb8r	; 0.24
CONST	ENDS
;	COMDAT __real@3fc999999999999a
CONST	SEGMENT
__real@3fc999999999999a DQ 03fc999999999999ar	; 0.2
CONST	ENDS
;	COMDAT __real@3fc00000
CONST	SEGMENT
__real@3fc00000 DD 03fc00000r			; 1.5
CONST	ENDS
;	COMDAT __real@3fb999999999999a
CONST	SEGMENT
__real@3fb999999999999a DQ 03fb999999999999ar	; 0.1
CONST	ENDS
;	COMDAT __real@3f99999a
CONST	SEGMENT
__real@3f99999a DD 03f99999ar			; 1.2
CONST	ENDS
;	COMDAT __real@3f8ccccd
CONST	SEGMENT
__real@3f8ccccd DD 03f8ccccdr			; 1.1
CONST	ENDS
;	COMDAT __real@3f800000
CONST	SEGMENT
__real@3f800000 DD 03f800000r			; 1
CONST	ENDS
;	COMDAT __real@3f666666
CONST	SEGMENT
__real@3f666666 DD 03f666666r			; 0.9
CONST	ENDS
;	COMDAT __real@3f4ccccd
CONST	SEGMENT
__real@3f4ccccd DD 03f4ccccdr			; 0.8
CONST	ENDS
;	COMDAT __real@3f333333
CONST	SEGMENT
__real@3f333333 DD 03f333333r			; 0.7
CONST	ENDS
;	COMDAT __real@3f1a36e2eb1c432d
CONST	SEGMENT
__real@3f1a36e2eb1c432d DQ 03f1a36e2eb1c432dr	; 0.0001
CONST	ENDS
;	COMDAT __real@3f000000
CONST	SEGMENT
__real@3f000000 DD 03f000000r			; 0.5
CONST	ENDS
;	COMDAT __real@3e4ccccd
CONST	SEGMENT
__real@3e4ccccd DD 03e4ccccdr			; 0.2
CONST	ENDS
;	COMDAT __real@3e112e0be826d695
CONST	SEGMENT
__real@3e112e0be826d695 DQ 03e112e0be826d695r	; 1e-09
CONST	ENDS
;	COMDAT __real@3dcccccd
CONST	SEGMENT
__real@3dcccccd DD 03dcccccdr			; 0.1
CONST	ENDS
;	COMDAT __real@38d1b717
CONST	SEGMENT
__real@38d1b717 DD 038d1b717r			; 0.0001
CONST	ENDS
;	COMDAT __real@3727c5ac
CONST	SEGMENT
__real@3727c5ac DD 03727c5acr			; 1e-05
CONST	ENDS
;	COMDAT __real@34000000
CONST	SEGMENT
__real@34000000 DD 034000000r			; 1.19209e-07
CONST	ENDS
;	COMDAT __real@0000000000000000
CONST	SEGMENT
__real@0000000000000000 DQ 00000000000000000r	; 0
CONST	ENDS
;	COMDAT __real@00000000
CONST	SEGMENT
__real@00000000 DD 000000000r			; 0
CONST	ENDS
;	COMDAT rtc$TMZ
rtc$TMZ	SEGMENT
_RTC_Shutdown.rtc$TMZ DQ FLAT:_RTC_Shutdown
rtc$TMZ	ENDS
;	COMDAT rtc$IMZ
rtc$IMZ	SEGMENT
_RTC_InitBase.rtc$IMZ DQ FLAT:_RTC_InitBase
rtc$IMZ	ENDS
;	COMDAT ??_R1A@?0A@EA@bad_array_new_length@std@@8
rdata$r	SEGMENT
??_R1A@?0A@EA@bad_array_new_length@std@@8 DD imagerel ??_R0?AVbad_array_new_length@std@@@8 ; std::bad_array_new_length::`RTTI Base Class Descriptor at (0,-1,0,64)'
	DD	02H
	DD	00H
	DD	0ffffffffH
	DD	00H
	DD	040H
	DD	imagerel ??_R3bad_array_new_length@std@@8
rdata$r	ENDS
;	COMDAT ??_R2bad_array_new_length@std@@8
rdata$r	SEGMENT
??_R2bad_array_new_length@std@@8 DD imagerel ??_R1A@?0A@EA@bad_array_new_length@std@@8 ; std::bad_array_new_length::`RTTI Base Class Array'
	DD	imagerel ??_R1A@?0A@EA@bad_alloc@std@@8
	DD	imagerel ??_R1A@?0A@EA@exception@std@@8
	ORG $+3
rdata$r	ENDS
;	COMDAT ??_R3bad_array_new_length@std@@8
rdata$r	SEGMENT
??_R3bad_array_new_length@std@@8 DD 00H			; std::bad_array_new_length::`RTTI Class Hierarchy Descriptor'
	DD	00H
	DD	03H
	DD	imagerel ??_R2bad_array_new_length@std@@8
rdata$r	ENDS
;	COMDAT ??_R4bad_array_new_length@std@@6B@
rdata$r	SEGMENT
??_R4bad_array_new_length@std@@6B@ DD 01H		; std::bad_array_new_length::`RTTI Complete Object Locator'
	DD	00H
	DD	00H
	DD	imagerel ??_R0?AVbad_array_new_length@std@@@8
	DD	imagerel ??_R3bad_array_new_length@std@@8
	DD	imagerel ??_R4bad_array_new_length@std@@6B@
rdata$r	ENDS
;	COMDAT ??_R1A@?0A@EA@bad_alloc@std@@8
rdata$r	SEGMENT
??_R1A@?0A@EA@bad_alloc@std@@8 DD imagerel ??_R0?AVbad_alloc@std@@@8 ; std::bad_alloc::`RTTI Base Class Descriptor at (0,-1,0,64)'
	DD	01H
	DD	00H
	DD	0ffffffffH
	DD	00H
	DD	040H
	DD	imagerel ??_R3bad_alloc@std@@8
rdata$r	ENDS
;	COMDAT ??_R2bad_alloc@std@@8
rdata$r	SEGMENT
??_R2bad_alloc@std@@8 DD imagerel ??_R1A@?0A@EA@bad_alloc@std@@8 ; std::bad_alloc::`RTTI Base Class Array'
	DD	imagerel ??_R1A@?0A@EA@exception@std@@8
	ORG $+3
rdata$r	ENDS
;	COMDAT ??_R3bad_alloc@std@@8
rdata$r	SEGMENT
??_R3bad_alloc@std@@8 DD 00H				; std::bad_alloc::`RTTI Class Hierarchy Descriptor'
	DD	00H
	DD	02H
	DD	imagerel ??_R2bad_alloc@std@@8
rdata$r	ENDS
;	COMDAT ??_R4bad_alloc@std@@6B@
rdata$r	SEGMENT
??_R4bad_alloc@std@@6B@ DD 01H				; std::bad_alloc::`RTTI Complete Object Locator'
	DD	00H
	DD	00H
	DD	imagerel ??_R0?AVbad_alloc@std@@@8
	DD	imagerel ??_R3bad_alloc@std@@8
	DD	imagerel ??_R4bad_alloc@std@@6B@
rdata$r	ENDS
;	COMDAT ??_R1A@?0A@EA@exception@std@@8
rdata$r	SEGMENT
??_R1A@?0A@EA@exception@std@@8 DD imagerel ??_R0?AVexception@std@@@8 ; std::exception::`RTTI Base Class Descriptor at (0,-1,0,64)'
	DD	00H
	DD	00H
	DD	0ffffffffH
	DD	00H
	DD	040H
	DD	imagerel ??_R3exception@std@@8
rdata$r	ENDS
;	COMDAT ??_R2exception@std@@8
rdata$r	SEGMENT
??_R2exception@std@@8 DD imagerel ??_R1A@?0A@EA@exception@std@@8 ; std::exception::`RTTI Base Class Array'
	ORG $+3
rdata$r	ENDS
;	COMDAT ??_R3exception@std@@8
rdata$r	SEGMENT
??_R3exception@std@@8 DD 00H				; std::exception::`RTTI Class Hierarchy Descriptor'
	DD	00H
	DD	01H
	DD	imagerel ??_R2exception@std@@8
rdata$r	ENDS
;	COMDAT ??_R4exception@std@@6B@
rdata$r	SEGMENT
??_R4exception@std@@6B@ DD 01H				; std::exception::`RTTI Complete Object Locator'
	DD	00H
	DD	00H
	DD	imagerel ??_R0?AVexception@std@@@8
	DD	imagerel ??_R3exception@std@@8
	DD	imagerel ??_R4exception@std@@6B@
rdata$r	ENDS
;	COMDAT ??_C@_0BA@FOIKENOD@vector?5too?5long@
CONST	SEGMENT
??_C@_0BA@FOIKENOD@vector?5too?5long@ DB 'vector too long', 00H ; `string'
CONST	ENDS
;	COMDAT ??_C@_1LG@MEJFBKPC@?$AAC?$AA?3?$AA?2?$AAU?$AAs?$AAe?$AAr?$AAs?$AA?2?$AAk?$AAs?$AAa?$AAr?$AAt?$AA?2@
CONST	SEGMENT
??_C@_1LG@MEJFBKPC@?$AAC?$AA?3?$AA?2?$AAU?$AAs?$AAe?$AAr?$AAs?$AA?2?$AAk?$AAs?$AAa?$AAr?$AAt?$AA?2@ DB 'C'
	DB	00H, ':', 00H, '\', 00H, 'U', 00H, 's', 00H, 'e', 00H, 'r', 00H
	DB	's', 00H, '\', 00H, 'k', 00H, 's', 00H, 'a', 00H, 'r', 00H, 't'
	DB	00H, '\', 00H, 'O', 00H, 'n', 00H, 'e', 00H, 'D', 00H, 'r', 00H
	DB	'i', 00H, 'v', 00H, 'e', 00H, '\', 00H, 'D', 00H, 'e', 00H, 's'
	DB	00H, 'k', 00H, 't', 00H, 'o', 00H, 'p', 00H, '\', 00H, 'F', 00H
	DB	'l', 00H, 'a', 00H, 'p', 00H, 'p', 00H, 'y', 00H, 'B', 00H, 'i'
	DB	00H, 'r', 00H, 'd', 00H, '\', 00H, 'l', 00H, 'i', 00H, 'b', 00H
	DB	'r', 00H, 'a', 00H, 'r', 00H, 'i', 00H, 'e', 00H, 's', 00H, '\'
	DB	00H, 'e', 00H, 'x', 00H, 't', 00H, 'e', 00H, 'r', 00H, 'n', 00H
	DB	'a', 00H, 'l', 00H, '\', 00H, 'g', 00H, 'l', 00H, 'm', 00H, '\'
	DB	00H, 'g', 00H, 'l', 00H, 'm', 00H, '\', 00H, 'd', 00H, 'e', 00H
	DB	't', 00H, 'a', 00H, 'i', 00H, 'l', 00H, '\', 00H, 't', 00H, 'y'
	DB	00H, 'p', 00H, 'e', 00H, '_', 00H, 'v', 00H, 'e', 00H, 'c', 00H
	DB	'3', 00H, '.', 00H, 'i', 00H, 'n', 00H, 'l', 00H, 00H, 00H ; `string'
CONST	ENDS
;	COMDAT ??_C@_1LG@CIKOIEGN@?$AAC?$AA?3?$AA?2?$AAU?$AAs?$AAe?$AAr?$AAs?$AA?2?$AAk?$AAs?$AAa?$AAr?$AAt?$AA?2@
CONST	SEGMENT
??_C@_1LG@CIKOIEGN@?$AAC?$AA?3?$AA?2?$AAU?$AAs?$AAe?$AAr?$AAs?$AA?2?$AAk?$AAs?$AAa?$AAr?$AAt?$AA?2@ DB 'C'
	DB	00H, ':', 00H, '\', 00H, 'U', 00H, 's', 00H, 'e', 00H, 'r', 00H
	DB	's', 00H, '\', 00H, 'k', 00H, 's', 00H, 'a', 00H, 'r', 00H, 't'
	DB	00H, '\', 00H, 'O', 00H, 'n', 00H, 'e', 00H, 'D', 00H, 'r', 00H
	DB	'i', 00H, 'v', 00H, 'e', 00H, '\', 00H, 'D', 00H, 'e', 00H, 's'
	DB	00H, 'k', 00H, 't', 00H, 'o', 00H, 'p', 00H, '\', 00H, 'F', 00H
	DB	'l', 00H, 'a', 00H, 'p', 00H, 'p', 00H, 'y', 00H, 'B', 00H, 'i'
	DB	00H, 'r', 00H, 'd', 00H, '\', 00H, 'l', 00H, 'i', 00H, 'b', 00H
	DB	'r', 00H, 'a', 00H, 'r', 00H, 'i', 00H, 'e', 00H, 's', 00H, '\'
	DB	00H, 'e', 00H, 'x', 00H, 't', 00H, 'e', 00H, 'r', 00H, 'n', 00H
	DB	'a', 00H, 'l', 00H, '\', 00H, 'g', 00H, 'l', 00H, 'm', 00H, '\'
	DB	00H, 'g', 00H, 'l', 00H, 'm', 00H, '\', 00H, 'd', 00H, 'e', 00H
	DB	't', 00H, 'a', 00H, 'i', 00H, 'l', 00H, '\', 00H, 't', 00H, 'y'
	DB	00H, 'p', 00H, 'e', 00H, '_', 00H, 'v', 00H, 'e', 00H, 'c', 00H
	DB	'1', 00H, '.', 00H, 'i', 00H, 'n', 00H, 'l', 00H, 00H, 00H ; `string'
CONST	ENDS
;	COMDAT ??_C@_1DC@HHLCGOLC@?$AAx?$AA?4?$AAl?$AAe?$AAn?$AAg?$AAt?$AAh?$AA?$CI?$AA?$CJ?$AA?5?$AA?$DN?$AA?$DN?$AA?5?$AAy@
CONST	SEGMENT
??_C@_1DC@HHLCGOLC@?$AAx?$AA?4?$AAl?$AAe?$AAn?$AAg?$AAt?$AAh?$AA?$CI?$AA?$CJ?$AA?5?$AA?$DN?$AA?$DN?$AA?5?$AAy@ DB 'x'
	DB	00H, '.', 00H, 'l', 00H, 'e', 00H, 'n', 00H, 'g', 00H, 't', 00H
	DB	'h', 00H, '(', 00H, ')', 00H, ' ', 00H, '=', 00H, '=', 00H, ' '
	DB	00H, 'y', 00H, '.', 00H, 'l', 00H, 'e', 00H, 'n', 00H, 'g', 00H
	DB	't', 00H, 'h', 00H, '(', 00H, ')', 00H, 00H, 00H ; `string'
CONST	ENDS
;	COMDAT ??_C@_1NA@OPABFNEN@?$AAC?$AA?3?$AA?2?$AAU?$AAs?$AAe?$AAr?$AAs?$AA?2?$AAk?$AAs?$AAa?$AAr?$AAt?$AA?2@
CONST	SEGMENT
??_C@_1NA@OPABFNEN@?$AAC?$AA?3?$AA?2?$AAU?$AAs?$AAe?$AAr?$AAs?$AA?2?$AAk?$AAs?$AAa?$AAr?$AAt?$AA?2@ DB 'C'
	DB	00H, ':', 00H, '\', 00H, 'U', 00H, 's', 00H, 'e', 00H, 'r', 00H
	DB	's', 00H, '\', 00H, 'k', 00H, 's', 00H, 'a', 00H, 'r', 00H, 't'
	DB	00H, '\', 00H, 'O', 00H, 'n', 00H, 'e', 00H, 'D', 00H, 'r', 00H
	DB	'i', 00H, 'v', 00H, 'e', 00H, '\', 00H, 'D', 00H, 'e', 00H, 's'
	DB	00H, 'k', 00H, 't', 00H, 'o', 00H, 'p', 00H, '\', 00H, 'F', 00H
	DB	'l', 00H, 'a', 00H, 'p', 00H, 'p', 00H, 'y', 00H, 'B', 00H, 'i'
	DB	00H, 'r', 00H, 'd', 00H, '\', 00H, 'l', 00H, 'i', 00H, 'b', 00H
	DB	'r', 00H, 'a', 00H, 'r', 00H, 'i', 00H, 'e', 00H, 's', 00H, '\'
	DB	00H, 'e', 00H, 'x', 00H, 't', 00H, 'e', 00H, 'r', 00H, 'n', 00H
	DB	'a', 00H, 'l', 00H, '\', 00H, 'g', 00H, 'l', 00H, 'm', 00H, '\'
	DB	00H, 'g', 00H, 'l', 00H, 'm', 00H, '\', 00H, 'd', 00H, 'e', 00H
	DB	't', 00H, 'a', 00H, 'i', 00H, 'l', 00H, '\', 00H, 'f', 00H, 'u'
	DB	00H, 'n', 00H, 'c', 00H, '_', 00H, 'v', 00H, 'e', 00H, 'c', 00H
	DB	't', 00H, 'o', 00H, 'r', 00H, '_', 00H, 'r', 00H, 'e', 00H, 'l'
	DB	00H, 'a', 00H, 't', 00H, 'i', 00H, 'o', 00H, 'n', 00H, 'a', 00H
	DB	'l', 00H, '.', 00H, 'i', 00H, 'n', 00H, 'l', 00H, 00H, 00H ; `string'
CONST	ENDS
;	COMDAT ??_C@_1LG@LAANPDHN@?$AAC?$AA?3?$AA?2?$AAU?$AAs?$AAe?$AAr?$AAs?$AA?2?$AAk?$AAs?$AAa?$AAr?$AAt?$AA?2@
CONST	SEGMENT
??_C@_1LG@LAANPDHN@?$AAC?$AA?3?$AA?2?$AAU?$AAs?$AAe?$AAr?$AAs?$AA?2?$AAk?$AAs?$AAa?$AAr?$AAt?$AA?2@ DB 'C'
	DB	00H, ':', 00H, '\', 00H, 'U', 00H, 's', 00H, 'e', 00H, 'r', 00H
	DB	's', 00H, '\', 00H, 'k', 00H, 's', 00H, 'a', 00H, 'r', 00H, 't'
	DB	00H, '\', 00H, 'O', 00H, 'n', 00H, 'e', 00H, 'D', 00H, 'r', 00H
	DB	'i', 00H, 'v', 00H, 'e', 00H, '\', 00H, 'D', 00H, 'e', 00H, 's'
	DB	00H, 'k', 00H, 't', 00H, 'o', 00H, 'p', 00H, '\', 00H, 'F', 00H
	DB	'l', 00H, 'a', 00H, 'p', 00H, 'p', 00H, 'y', 00H, 'B', 00H, 'i'
	DB	00H, 'r', 00H, 'd', 00H, '\', 00H, 'l', 00H, 'i', 00H, 'b', 00H
	DB	'r', 00H, 'a', 00H, 'r', 00H, 'i', 00H, 'e', 00H, 's', 00H, '\'
	DB	00H, 'e', 00H, 'x', 00H, 't', 00H, 'e', 00H, 'r', 00H, 'n', 00H
	DB	'a', 00H, 'l', 00H, '\', 00H, 'g', 00H, 'l', 00H, 'm', 00H, '\'
	DB	00H, 'g', 00H, 'l', 00H, 'm', 00H, '\', 00H, 'd', 00H, 'e', 00H
	DB	't', 00H, 'a', 00H, 'i', 00H, 'l', 00H, '\', 00H, 't', 00H, 'y'
	DB	00H, 'p', 00H, 'e', 00H, '_', 00H, 'v', 00H, 'e', 00H, 'c', 00H
	DB	'4', 00H, '.', 00H, 'i', 00H, 'n', 00H, 'l', 00H, 00H, 00H ; `string'
CONST	ENDS
;	COMDAT ??_C@_1DK@BGNCJAPL@?$AAi?$AA?5?$AA?$DO?$AA?$DN?$AA?5?$AA0?$AA?5?$AA?$CG?$AA?$CG?$AA?5?$AAi?$AA?5?$AA?$DM?$AA?5?$AAt@
CONST	SEGMENT
??_C@_1DK@BGNCJAPL@?$AAi?$AA?5?$AA?$DO?$AA?$DN?$AA?5?$AA0?$AA?5?$AA?$CG?$AA?$CG?$AA?5?$AAi?$AA?5?$AA?$DM?$AA?5?$AAt@ DB 'i'
	DB	00H, ' ', 00H, '>', 00H, '=', 00H, ' ', 00H, '0', 00H, ' ', 00H
	DB	'&', 00H, '&', 00H, ' ', 00H, 'i', 00H, ' ', 00H, '<', 00H, ' '
	DB	00H, 't', 00H, 'h', 00H, 'i', 00H, 's', 00H, '-', 00H, '>', 00H
	DB	'l', 00H, 'e', 00H, 'n', 00H, 'g', 00H, 't', 00H, 'h', 00H, '('
	DB	00H, ')', 00H, 00H, 00H			; `string'
CONST	ENDS
;	COMDAT ??_C@_1LG@FPDAFGJN@?$AAC?$AA?3?$AA?2?$AAU?$AAs?$AAe?$AAr?$AAs?$AA?2?$AAk?$AAs?$AAa?$AAr?$AAt?$AA?2@
CONST	SEGMENT
??_C@_1LG@FPDAFGJN@?$AAC?$AA?3?$AA?2?$AAU?$AAs?$AAe?$AAr?$AAs?$AA?2?$AAk?$AAs?$AAa?$AAr?$AAt?$AA?2@ DB 'C'
	DB	00H, ':', 00H, '\', 00H, 'U', 00H, 's', 00H, 'e', 00H, 'r', 00H
	DB	's', 00H, '\', 00H, 'k', 00H, 's', 00H, 'a', 00H, 'r', 00H, 't'
	DB	00H, '\', 00H, 'O', 00H, 'n', 00H, 'e', 00H, 'D', 00H, 'r', 00H
	DB	'i', 00H, 'v', 00H, 'e', 00H, '\', 00H, 'D', 00H, 'e', 00H, 's'
	DB	00H, 'k', 00H, 't', 00H, 'o', 00H, 'p', 00H, '\', 00H, 'F', 00H
	DB	'l', 00H, 'a', 00H, 'p', 00H, 'p', 00H, 'y', 00H, 'B', 00H, 'i'
	DB	00H, 'r', 00H, 'd', 00H, '\', 00H, 'l', 00H, 'i', 00H, 'b', 00H
	DB	'r', 00H, 'a', 00H, 'r', 00H, 'i', 00H, 'e', 00H, 's', 00H, '\'
	DB	00H, 'e', 00H, 'x', 00H, 't', 00H, 'e', 00H, 'r', 00H, 'n', 00H
	DB	'a', 00H, 'l', 00H, '\', 00H, 'g', 00H, 'l', 00H, 'm', 00H, '\'
	DB	00H, 'g', 00H, 'l', 00H, 'm', 00H, '\', 00H, 'd', 00H, 'e', 00H
	DB	't', 00H, 'a', 00H, 'i', 00H, 'l', 00H, '\', 00H, 't', 00H, 'y'
	DB	00H, 'p', 00H, 'e', 00H, '_', 00H, 'v', 00H, 'e', 00H, 'c', 00H
	DB	'2', 00H, '.', 00H, 'i', 00H, 'n', 00H, 'l', 00H, 00H, 00H ; `string'
CONST	ENDS
;	COMDAT ??_C@_1HA@FACCKGGH@?$AA?$CC?$AAn?$AAu?$AAl?$AAl?$AA?5?$AAp?$AAo?$AAi?$AAn?$AAt?$AAe?$AAr?$AA?5?$AAc@
CONST	SEGMENT
??_C@_1HA@FACCKGGH@?$AA?$CC?$AAn?$AAu?$AAl?$AAl?$AA?5?$AAp?$AAo?$AAi?$AAn?$AAt?$AAe?$AAr?$AA?5?$AAc@ DB '"'
	DB	00H, 'n', 00H, 'u', 00H, 'l', 00H, 'l', 00H, ' ', 00H, 'p', 00H
	DB	'o', 00H, 'i', 00H, 'n', 00H, 't', 00H, 'e', 00H, 'r', 00H, ' '
	DB	00H, 'c', 00H, 'a', 00H, 'n', 00H, 'n', 00H, 'o', 00H, 't', 00H
	DB	' ', 00H, 'p', 00H, 'o', 00H, 'i', 00H, 'n', 00H, 't', 00H, ' '
	DB	00H, 't', 00H, 'o', 00H, ' ', 00H, 'a', 00H, ' ', 00H, 'b', 00H
	DB	'l', 00H, 'o', 00H, 'c', 00H, 'k', 00H, ' ', 00H, 'o', 00H, 'f'
	DB	00H, ' ', 00H, 'n', 00H, 'o', 00H, 'n', 00H, '-', 00H, 'z', 00H
	DB	'e', 00H, 'r', 00H, 'o', 00H, ' ', 00H, 's', 00H, 'i', 00H, 'z'
	DB	00H, 'e', 00H, '"', 00H, 00H, 00H		; `string'
CONST	ENDS
;	COMDAT ??_C@_0DG@KGHKKGBC@null?5pointer?5cannot?5point?5to?5a?5@
CONST	SEGMENT
??_C@_0DG@KGHKKGBC@null?5pointer?5cannot?5point?5to?5a?5@ DB 'null pointe'
	DB	'r cannot point to a block of non-zero size', 00H ; `string'
CONST	ENDS
;	COMDAT ??_C@_1EA@LEKOKFNB@?$AA?$CC?$AAv?$AAe?$AAc?$AAt?$AAo?$AAr?$AA?5?$AAs?$AAu?$AAb?$AAs?$AAc?$AAr?$AAi@
CONST	SEGMENT
??_C@_1EA@LEKOKFNB@?$AA?$CC?$AAv?$AAe?$AAc?$AAt?$AAo?$AAr?$AA?5?$AAs?$AAu?$AAb?$AAs?$AAc?$AAr?$AAi@ DB '"'
	DB	00H, 'v', 00H, 'e', 00H, 'c', 00H, 't', 00H, 'o', 00H, 'r', 00H
	DB	' ', 00H, 's', 00H, 'u', 00H, 'b', 00H, 's', 00H, 'c', 00H, 'r'
	DB	00H, 'i', 00H, 'p', 00H, 't', 00H, ' ', 00H, 'o', 00H, 'u', 00H
	DB	't', 00H, ' ', 00H, 'o', 00H, 'f', 00H, ' ', 00H, 'r', 00H, 'a'
	DB	00H, 'n', 00H, 'g', 00H, 'e', 00H, '"', 00H, 00H, 00H ; `string'
CONST	ENDS
;	COMDAT ??_C@_1MC@BJDJHFOD@?$AAC?$AA?3?$AA?2?$AAP?$AAr?$AAo?$AAg?$AAr?$AAa?$AAm?$AA?5?$AAF?$AAi?$AAl?$AAe@
CONST	SEGMENT
??_C@_1MC@BJDJHFOD@?$AAC?$AA?3?$AA?2?$AAP?$AAr?$AAo?$AAg?$AAr?$AAa?$AAm?$AA?5?$AAF?$AAi?$AAl?$AAe@ DB 'C'
	DB	00H, ':', 00H, '\', 00H, 'P', 00H, 'r', 00H, 'o', 00H, 'g', 00H
	DB	'r', 00H, 'a', 00H, 'm', 00H, ' ', 00H, 'F', 00H, 'i', 00H, 'l'
	DB	00H, 'e', 00H, 's', 00H, '\', 00H, 'M', 00H, 'i', 00H, 'c', 00H
	DB	'r', 00H, 'o', 00H, 's', 00H, 'o', 00H, 'f', 00H, 't', 00H, ' '
	DB	00H, 'V', 00H, 'i', 00H, 's', 00H, 'u', 00H, 'a', 00H, 'l', 00H
	DB	' ', 00H, 'S', 00H, 't', 00H, 'u', 00H, 'd', 00H, 'i', 00H, 'o'
	DB	00H, '\', 00H, '2', 00H, '0', 00H, '2', 00H, '2', 00H, '\', 00H
	DB	'C', 00H, 'o', 00H, 'm', 00H, 'm', 00H, 'u', 00H, 'n', 00H, 'i'
	DB	00H, 't', 00H, 'y', 00H, '\', 00H, 'V', 00H, 'C', 00H, '\', 00H
	DB	'T', 00H, 'o', 00H, 'o', 00H, 'l', 00H, 's', 00H, '\', 00H, 'M'
	DB	00H, 'S', 00H, 'V', 00H, 'C', 00H, '\', 00H, '1', 00H, '4', 00H
	DB	'.', 00H, '3', 00H, '2', 00H, '.', 00H, '3', 00H, '1', 00H, '3'
	DB	00H, '2', 00H, '6', 00H, '\', 00H, 'i', 00H, 'n', 00H, 'c', 00H
	DB	'l', 00H, 'u', 00H, 'd', 00H, 'e', 00H, '\', 00H, 'v', 00H, 'e'
	DB	00H, 'c', 00H, 't', 00H, 'o', 00H, 'r', 00H, 00H, 00H ; `string'
CONST	ENDS
;	COMDAT ??_C@_0GB@GDCALCPO@C?3?2Program?5Files?2Microsoft?5Visu@
CONST	SEGMENT
??_C@_0GB@GDCALCPO@C?3?2Program?5Files?2Microsoft?5Visu@ DB 'C:\Program F'
	DB	'iles\Microsoft Visual Studio\2022\Community\VC\Tools\MSVC\14.'
	DB	'32.31326\include\vector', 00H		; `string'
CONST	ENDS
;	COMDAT ??_C@_0BO@PFKOHNJC@vector?5subscript?5out?5of?5range@
CONST	SEGMENT
??_C@_0BO@PFKOHNJC@vector?5subscript?5out?5of?5range@ DB 'vector subscrip'
	DB	't out of range', 00H			; `string'
CONST	ENDS
;	COMDAT ??_C@_1CG@JNLFBNGN@?$AA?$CC?$AAi?$AAn?$AAv?$AAa?$AAl?$AAi?$AAd?$AA?5?$AAa?$AAr?$AAg?$AAu?$AAm?$AAe@
CONST	SEGMENT
??_C@_1CG@JNLFBNGN@?$AA?$CC?$AAi?$AAn?$AAv?$AAa?$AAl?$AAi?$AAd?$AA?5?$AAa?$AAr?$AAg?$AAu?$AAm?$AAe@ DB '"'
	DB	00H, 'i', 00H, 'n', 00H, 'v', 00H, 'a', 00H, 'l', 00H, 'i', 00H
	DB	'd', 00H, ' ', 00H, 'a', 00H, 'r', 00H, 'g', 00H, 'u', 00H, 'm'
	DB	00H, 'e', 00H, 'n', 00H, 't', 00H, '"', 00H, 00H, 00H ; `string'
CONST	ENDS
;	COMDAT ??_C@_11LOCGONAA@@
CONST	SEGMENT
??_C@_11LOCGONAA@@ DB 00H, 00H				; `string'
CONST	ENDS
;	COMDAT ??_C@_1ME@GEFGDEOM@?$AAC?$AA?3?$AA?2?$AAP?$AAr?$AAo?$AAg?$AAr?$AAa?$AAm?$AA?5?$AAF?$AAi?$AAl?$AAe@
CONST	SEGMENT
??_C@_1ME@GEFGDEOM@?$AAC?$AA?3?$AA?2?$AAP?$AAr?$AAo?$AAg?$AAr?$AAa?$AAm?$AA?5?$AAF?$AAi?$AAl?$AAe@ DB 'C'
	DB	00H, ':', 00H, '\', 00H, 'P', 00H, 'r', 00H, 'o', 00H, 'g', 00H
	DB	'r', 00H, 'a', 00H, 'm', 00H, ' ', 00H, 'F', 00H, 'i', 00H, 'l'
	DB	00H, 'e', 00H, 's', 00H, '\', 00H, 'M', 00H, 'i', 00H, 'c', 00H
	DB	'r', 00H, 'o', 00H, 's', 00H, 'o', 00H, 'f', 00H, 't', 00H, ' '
	DB	00H, 'V', 00H, 'i', 00H, 's', 00H, 'u', 00H, 'a', 00H, 'l', 00H
	DB	' ', 00H, 'S', 00H, 't', 00H, 'u', 00H, 'd', 00H, 'i', 00H, 'o'
	DB	00H, '\', 00H, '2', 00H, '0', 00H, '2', 00H, '2', 00H, '\', 00H
	DB	'C', 00H, 'o', 00H, 'm', 00H, 'm', 00H, 'u', 00H, 'n', 00H, 'i'
	DB	00H, 't', 00H, 'y', 00H, '\', 00H, 'V', 00H, 'C', 00H, '\', 00H
	DB	'T', 00H, 'o', 00H, 'o', 00H, 'l', 00H, 's', 00H, '\', 00H, 'M'
	DB	00H, 'S', 00H, 'V', 00H, 'C', 00H, '\', 00H, '1', 00H, '4', 00H
	DB	'.', 00H, '3', 00H, '2', 00H, '.', 00H, '3', 00H, '1', 00H, '3'
	DB	00H, '2', 00H, '6', 00H, '\', 00H, 'i', 00H, 'n', 00H, 'c', 00H
	DB	'l', 00H, 'u', 00H, 'd', 00H, 'e', 00H, '\', 00H, 'x', 00H, 'm'
	DB	00H, 'e', 00H, 'm', 00H, 'o', 00H, 'r', 00H, 'y', 00H, 00H, 00H ; `string'
CONST	ENDS
;	COMDAT ??_C@_0GC@DJFHHHKN@C?3?2Program?5Files?2Microsoft?5Visu@
CONST	SEGMENT
??_C@_0GC@DJFHHHKN@C?3?2Program?5Files?2Microsoft?5Visu@ DB 'C:\Program F'
	DB	'iles\Microsoft Visual Studio\2022\Community\VC\Tools\MSVC\14.'
	DB	'32.31326\include\xmemory', 00H		; `string'
CONST	ENDS
;	COMDAT ??_C@_02DKCKIIND@?$CFs@
CONST	SEGMENT
??_C@_02DKCKIIND@?$CFs@ DB '%s', 00H			; `string'
CONST	ENDS
;	COMDAT ??_C@_0BB@FCMFBGOM@invalid?5argument@
CONST	SEGMENT
??_C@_0BB@FCMFBGOM@invalid?5argument@ DB 'invalid argument', 00H ; `string'
CONST	ENDS
;	COMDAT _CT??_R0?AVexception@std@@@8??0exception@std@@QEAA@AEBV01@@Z24
xdata$x	SEGMENT
_CT??_R0?AVexception@std@@@8??0exception@std@@QEAA@AEBV01@@Z24 DD 00H
	DD	imagerel ??_R0?AVexception@std@@@8
	DD	00H
	DD	0ffffffffH
	ORG $+4
	DD	018H
	DD	imagerel ??0exception@std@@QEAA@AEBV01@@Z
xdata$x	ENDS
;	COMDAT ??_R0?AVexception@std@@@8
data$r	SEGMENT
??_R0?AVexception@std@@@8 DQ FLAT:??_7type_info@@6B@	; std::exception `RTTI Type Descriptor'
	DQ	0000000000000000H
	DB	'.?AVexception@std@@', 00H
data$r	ENDS
;	COMDAT _CT??_R0?AVbad_alloc@std@@@8??0bad_alloc@std@@QEAA@AEBV01@@Z24
xdata$x	SEGMENT
_CT??_R0?AVbad_alloc@std@@@8??0bad_alloc@std@@QEAA@AEBV01@@Z24 DD 010H
	DD	imagerel ??_R0?AVbad_alloc@std@@@8
	DD	00H
	DD	0ffffffffH
	ORG $+4
	DD	018H
	DD	imagerel ??0bad_alloc@std@@QEAA@AEBV01@@Z
xdata$x	ENDS
;	COMDAT ??_R0?AVbad_alloc@std@@@8
data$r	SEGMENT
??_R0?AVbad_alloc@std@@@8 DQ FLAT:??_7type_info@@6B@	; std::bad_alloc `RTTI Type Descriptor'
	DQ	0000000000000000H
	DB	'.?AVbad_alloc@std@@', 00H
data$r	ENDS
;	COMDAT _CT??_R0?AVbad_array_new_length@std@@@8??0bad_array_new_length@std@@QEAA@AEBV01@@Z24
xdata$x	SEGMENT
_CT??_R0?AVbad_array_new_length@std@@@8??0bad_array_new_length@std@@QEAA@AEBV01@@Z24 DD 00H
	DD	imagerel ??_R0?AVbad_array_new_length@std@@@8
	DD	00H
	DD	0ffffffffH
	ORG $+4
	DD	018H
	DD	imagerel ??0bad_array_new_length@std@@QEAA@AEBV01@@Z
xdata$x	ENDS
;	COMDAT ??_R0?AVbad_array_new_length@std@@@8
data$r	SEGMENT
??_R0?AVbad_array_new_length@std@@@8 DQ FLAT:??_7type_info@@6B@ ; std::bad_array_new_length `RTTI Type Descriptor'
	DQ	0000000000000000H
	DB	'.?AVbad_array_new_length@std@@', 00H
data$r	ENDS
;	COMDAT _CTA3?AVbad_array_new_length@std@@
xdata$x	SEGMENT
_CTA3?AVbad_array_new_length@std@@ DD 03H
	DD	imagerel _CT??_R0?AVbad_array_new_length@std@@@8??0bad_array_new_length@std@@QEAA@AEBV01@@Z24
	DD	imagerel _CT??_R0?AVbad_alloc@std@@@8??0bad_alloc@std@@QEAA@AEBV01@@Z24
	DD	imagerel _CT??_R0?AVexception@std@@@8??0exception@std@@QEAA@AEBV01@@Z24
xdata$x	ENDS
;	COMDAT _TI3?AVbad_array_new_length@std@@
xdata$x	SEGMENT
_TI3?AVbad_array_new_length@std@@ DD 00H
	DD	imagerel ??1bad_array_new_length@std@@UEAA@XZ
	DD	00H
	DD	imagerel _CTA3?AVbad_array_new_length@std@@
xdata$x	ENDS
;	COMDAT ??_C@_0BF@KINCDENJ@bad?5array?5new?5length@
CONST	SEGMENT
??_C@_0BF@KINCDENJ@bad?5array?5new?5length@ DB 'bad array new length', 00H ; `string'
CONST	ENDS
;	COMDAT ??_7bad_array_new_length@std@@6B@
CONST	SEGMENT
??_7bad_array_new_length@std@@6B@ DQ FLAT:??_R4bad_array_new_length@std@@6B@ ; std::bad_array_new_length::`vftable'
	DQ	FLAT:??_Ebad_array_new_length@std@@UEAAPEAXI@Z
	DQ	FLAT:?what@exception@std@@UEBAPEBDXZ
CONST	ENDS
;	COMDAT ??_7bad_alloc@std@@6B@
CONST	SEGMENT
??_7bad_alloc@std@@6B@ DQ FLAT:??_R4bad_alloc@std@@6B@	; std::bad_alloc::`vftable'
	DQ	FLAT:??_Ebad_alloc@std@@UEAAPEAXI@Z
	DQ	FLAT:?what@exception@std@@UEBAPEBDXZ
CONST	ENDS
;	COMDAT ??_C@_0BC@EOODALEL@Unknown?5exception@
CONST	SEGMENT
??_C@_0BC@EOODALEL@Unknown?5exception@ DB 'Unknown exception', 00H ; `string'
CONST	ENDS
;	COMDAT ??_7exception@std@@6B@
CONST	SEGMENT
??_7exception@std@@6B@ DQ FLAT:??_R4exception@std@@6B@	; std::exception::`vftable'
	DQ	FLAT:??_Eexception@std@@UEAAPEAXI@Z
	DQ	FLAT:?what@exception@std@@UEBAPEBDXZ
CONST	ENDS
;	COMDAT xdata
xdata	SEGMENT
$unwind$??$_Voidify_iter@PEAH@std@@YAPEAXPEAH@Z DD 010601H
	DD	07006H
xdata	ENDS
;	COMDAT xdata
xdata	SEGMENT
$unwind$??$construct@HH@?$_Default_allocator_traits@V?$allocator@H@std@@@std@@SAXAEAV?$allocator@H@1@QEAH$$QEAH@Z DD 021401H
	DD	070105214H
xdata	ENDS
;	COMDAT xdata
xdata	SEGMENT
$unwind$??$forward@H@std@@YA$$QEAHAEAH@Z DD 010601H
	DD	07006H
xdata	ENDS
;	COMDAT xdata
xdata	SEGMENT
$unwind$?call@?$compute_vec4_div@M$0A@$0A@@detail@glm@@SA?AU?$tvec4@M$0A@@3@AEBU43@0@Z DD 021401H
	DD	070107214H
xdata	ENDS
;	COMDAT xdata
xdata	SEGMENT
$unwind$?call@?$compute_vec4_sub@H$0A@$0A@@detail@glm@@SA?AU?$tvec4@H$0A@@3@AEBU43@0@Z DD 021401H
	DD	070107214H
xdata	ENDS
;	COMDAT xdata
xdata	SEGMENT
$unwind$??$construct@H$$V@?$_Default_allocator_traits@V?$allocator@H@std@@@std@@SAXAEAV?$allocator@H@1@QEAH@Z DD 020f01H
	DD	0700b520fH
xdata	ENDS
;	COMDAT xdata
xdata	SEGMENT
$unwind$??$_To_address@PEAH@std@@YA?A_PAEBQEAH@Z DD 010601H
	DD	07006H
xdata	ENDS
;	COMDAT xdata
xdata	SEGMENT
$unwind$??$_Emplace_back@H@?$_Uninitialized_backout_al@V?$allocator@H@std@@@std@@QEAAX$$QEAH@Z DD 020f01H
	DD	0700b520fH
xdata	ENDS
;	COMDAT xdata
xdata	SEGMENT
$unwind$??$_Copy_memmove@PEAHPEAH@std@@YAPEAHPEAH00@Z DD 021401H
	DD	07010b214H
xdata	ENDS
;	COMDAT xdata
xdata	SEGMENT
$unwind$??$move@AEAH@std@@YA$$QEAHAEAH@Z DD 010601H
	DD	07006H
xdata	ENDS
;	COMDAT xdata
xdata	SEGMENT
$unwind$??$_Get_unwrapped@AEBQEAH@std@@YA?A_TAEBQEAH@Z DD 010601H
	DD	07006H
xdata	ENDS
;	COMDAT xdata
xdata	SEGMENT
$unwind$?call@?$compute_fract@M$0A@Utvec1@glm@@$0A@@detail@glm@@SA?AU?$tvec1@M$0A@@3@AEBU43@@Z DD 020f01H
	DD	0700b520fH
xdata	ENDS
;	COMDAT xdata
xdata	SEGMENT
$unwind$?call@?$compute_vec4_sub@N$0A@$0A@@detail@glm@@SA?AU?$tvec4@N$0A@@3@AEBU43@0@Z DD 021401H
	DD	070107214H
xdata	ENDS
;	COMDAT xdata
xdata	SEGMENT
$unwind$?call@?$compute_vec4_sub@M$0A@$0A@@detail@glm@@SA?AU?$tvec4@M$0A@@3@AEBU43@0@Z DD 021401H
	DD	070107214H
xdata	ENDS
;	COMDAT xdata
xdata	SEGMENT
$unwind$??$_Get_size_of_n@$03@std@@YA_K_K@Z DD 020a01H
	DD	07006520aH
xdata	ENDS
;	COMDAT xdata
xdata	SEGMENT
$unwind$??$min@_K@std@@YAAEB_KAEB_K0@Z DD 020f01H
	DD	0700b120fH
xdata	ENDS
;	COMDAT xdata
xdata	SEGMENT
$unwind$??$?KM$0A@@glm@@YA?AU?$tvec1@M$0A@@0@AEBU10@0@Z DD 021401H
	DD	070103214H
xdata	ENDS
;	COMDAT xdata
xdata	SEGMENT
$unwind$??$_Allocate_manually_vector_aligned@U_Default_allocate_traits@std@@@std@@YAPEAX_K@Z DD 020a01H
	DD	07006920aH
xdata	ENDS
;	COMDAT xdata
xdata	SEGMENT
$unwind$??$?XM@?$tvec4@M$0A@@glm@@QEAAAEAU01@AEBU01@@Z DD 031001H
	DD	0700c8210H
	DD	0600bH
xdata	ENDS
;	COMDAT xdata
xdata	SEGMENT
$unwind$??$?_0M@?$tvec4@M$0A@@glm@@QEAAAEAU01@AEBU01@@Z DD 031001H
	DD	0700c8210H
	DD	0600bH
xdata	ENDS
;	COMDAT xdata
xdata	SEGMENT
$unwind$??$?ZH@?$tvec4@H$0A@@glm@@QEAAAEAU01@AEBU01@@Z DD 031001H
	DD	0700c8210H
	DD	0600bH
xdata	ENDS
;	COMDAT xdata
xdata	SEGMENT
$unwind$??$forward@PEAU_Container_base12@std@@@std@@YA$$QEAPEAU_Container_base12@0@AEAPEAU10@@Z DD 010601H
	DD	07006H
xdata	ENDS
;	COMDAT xdata
xdata	SEGMENT
$unwind$??$_Voidify_iter@PEAU_Container_proxy@std@@@std@@YAPEAXPEAU_Container_proxy@0@@Z DD 010601H
	DD	07006H
xdata	ENDS
;	COMDAT xdata
xdata	SEGMENT
$unwind$??$addressof@U_Container_proxy@std@@@std@@YAPEAU_Container_proxy@0@AEAU10@@Z DD 010601H
	DD	07006H
xdata	ENDS
;	COMDAT xdata
xdata	SEGMENT
$unwind$?deallocate@?$_Default_allocator_traits@V?$allocator@U_Container_proxy@std@@@std@@@std@@SAXAEAV?$allocator@U_Container_proxy@std@@@2@QEAU_Container_proxy@2@_K@Z DD 021401H
	DD	070103214H
xdata	ENDS
;	COMDAT xdata
xdata	SEGMENT
$unwind$??$_Emplace_back@$$V@?$_Uninitialized_backout_al@V?$allocator@H@std@@@std@@QEAAXXZ DD 020a01H
	DD	07006320aH
xdata	ENDS
;	COMDAT xdata
xdata	SEGMENT
$unwind$?_Release@?$_Uninitialized_backout_al@V?$allocator@H@std@@@std@@QEAAPEAHXZ DD 010601H
	DD	07006H
xdata	ENDS
;	COMDAT xdata
xdata	SEGMENT
$unwind$??1?$_Uninitialized_backout_al@V?$allocator@H@std@@@std@@QEAA@XZ DD 020a01H
	DD	07006320aH
xdata	ENDS
;	COMDAT xdata
xdata	SEGMENT
$unwind$??0?$_Uninitialized_backout_al@V?$allocator@H@std@@@std@@QEAA@PEAHAEAV?$allocator@H@1@@Z DD 011001H
	DD	07010H
xdata	ENDS
;	COMDAT xdata
xdata	SEGMENT
$unwind$??$_Zero_range@PEAH@std@@YAPEAHQEAH0@Z DD 020f01H
	DD	0700b520fH
xdata	ENDS
;	COMDAT xdata
xdata	SEGMENT
$unwind$??$_Unfancy@H@std@@YAPEAHPEAH@Z DD 010601H
	DD	07006H
xdata	ENDS
;	COMDAT voltbl
voltbl	SEGMENT
_volmd	DB	00H
	DB	05H
voltbl	ENDS
;	COMDAT xdata
xdata	SEGMENT
$unwind$?dtor$0@?0???$_Uninitialized_move@PEAHV?$allocator@H@std@@@std@@YAPEAHQEAH0PEAHAEAV?$allocator@H@0@@Z@4HA DD 031001H
	DD	0700c4210H
	DD	0500bH
xdata	ENDS
;	COMDAT xdata
xdata	SEGMENT
$ip2state$??$_Uninitialized_move@PEAHV?$allocator@H@std@@@std@@YAPEAHQEAH0PEAHAEAV?$allocator@H@0@@Z DB 02H
	DB	00H
	DB	00H
xdata	ENDS
;	COMDAT xdata
xdata	SEGMENT
$stateUnwindMap$??$_Uninitialized_move@PEAHV?$allocator@H@std@@@std@@YAPEAHQEAH0PEAHAEAV?$allocator@H@0@@Z DB 02H
	DB	0eH
	DD	imagerel ?dtor$0@?0???$_Uninitialized_move@PEAHV?$allocator@H@std@@@std@@YAPEAHQEAH0PEAHAEAV?$allocator@H@0@@Z@4HA
xdata	ENDS
;	COMDAT xdata
xdata	SEGMENT
$cppxdata$??$_Uninitialized_move@PEAHV?$allocator@H@std@@@std@@YAPEAHQEAH0PEAHAEAV?$allocator@H@0@@Z DB 028H
	DD	imagerel $stateUnwindMap$??$_Uninitialized_move@PEAHV?$allocator@H@std@@@std@@YAPEAHQEAH0PEAHAEAV?$allocator@H@0@@Z
	DD	imagerel $ip2state$??$_Uninitialized_move@PEAHV?$allocator@H@std@@@std@@YAPEAHQEAH0PEAHAEAV?$allocator@H@0@@Z
xdata	ENDS
;	COMDAT xdata
xdata	SEGMENT
$unwind$??$_Uninitialized_move@PEAHV?$allocator@H@std@@@std@@YAPEAHQEAH0PEAHAEAV?$allocator@H@0@@Z DD 022f11H
	DD	07015b219H
	DD	imagerel __CxxFrameHandler4
	DD	imagerel $cppxdata$??$_Uninitialized_move@PEAHV?$allocator@H@std@@@std@@YAPEAHQEAH0PEAHAEAV?$allocator@H@0@@Z
xdata	ENDS
;	COMDAT CONST
CONST	SEGMENT
??$_Uninitialized_move@PEAHV?$allocator@H@std@@@std@@YAPEAHQEAH0PEAHAEAV?$allocator@H@0@@Z$rtcName$0 DB 05fH ; std::_Uninitialized_move<int *,std::allocator<int> >
	DB	042H
	DB	061H
	DB	063H
	DB	06bH
	DB	06fH
	DB	075H
	DB	074H
	DB	00H
	ORG $+7
??$_Uninitialized_move@PEAHV?$allocator@H@std@@@std@@YAPEAHQEAH0PEAHAEAV?$allocator@H@0@@Z$rtcVarDesc DD 038H ; std::_Uninitialized_move<int *,std::allocator<int> >
	DD	018H
	DQ	FLAT:??$_Uninitialized_move@PEAHV?$allocator@H@std@@@std@@YAPEAHQEAH0PEAHAEAV?$allocator@H@0@@Z$rtcName$0
	ORG $+48
??$_Uninitialized_move@PEAHV?$allocator@H@std@@@std@@YAPEAHQEAH0PEAHAEAV?$allocator@H@0@@Z$rtcFrameData DD 01H ; std::_Uninitialized_move<int *,std::allocator<int> >
	DD	00H
	DQ	FLAT:??$_Uninitialized_move@PEAHV?$allocator@H@std@@@std@@YAPEAHQEAH0PEAHAEAV?$allocator@H@0@@Z$rtcVarDesc
CONST	ENDS
;	COMDAT xdata
xdata	SEGMENT
$unwind$??$fract@M$0A@Utvec1@glm@@@glm@@YA?AU?$tvec1@M$0A@@0@AEBU10@@Z DD 020f01H
	DD	0700b320fH
xdata	ENDS
;	COMDAT xdata
xdata	SEGMENT
$unwind$?call@?$compute_mod@M$0A@Utvec1@glm@@$0A@@detail@glm@@SA?AU?$tvec1@M$0A@@3@AEBU43@0@Z DD 021401H
	DD	070105214H
xdata	ENDS
;	COMDAT xdata
xdata	SEGMENT
$unwind$?call@?$compute_abs_vector@N$0A@Utvec4@glm@@$0A@@detail@glm@@SA?AU?$tvec4@N$0A@@3@AEBU43@@Z DD 020f01H
	DD	0700b320fH
xdata	ENDS
;	COMDAT xdata
xdata	SEGMENT
$unwind$??$?ZN@?$tvec4@N$0A@@glm@@QEAAAEAU01@AEBU01@@Z DD 031001H
	DD	0700cc210H
	DD	0600bH
xdata	ENDS
;	COMDAT xdata
xdata	SEGMENT
$unwind$?call@?$compute_abs_vector@M$0A@Utvec4@glm@@$0A@@detail@glm@@SA?AU?$tvec4@M$0A@@3@AEBU43@@Z DD 020f01H
	DD	0700b320fH
xdata	ENDS
;	COMDAT xdata
xdata	SEGMENT
$unwind$??$?ZM@?$tvec4@M$0A@@glm@@QEAAAEAU01@AEBU01@@Z DD 031001H
	DD	0700c8210H
	DD	0600bH
xdata	ENDS
;	COMDAT xdata
xdata	SEGMENT
$unwind$?call@?$compute_abs_vector@N$0A@Utvec3@glm@@$0A@@detail@glm@@SA?AU?$tvec3@N$0A@@3@AEBU43@@Z DD 020f01H
	DD	0700b320fH
xdata	ENDS
;	COMDAT xdata
xdata	SEGMENT
$unwind$?call@?$compute_abs_vector@M$0A@Utvec3@glm@@$0A@@detail@glm@@SA?AU?$tvec3@M$0A@@3@AEBU43@@Z DD 020f01H
	DD	0700b320fH
xdata	ENDS
;	COMDAT xdata
xdata	SEGMENT
$unwind$?call@?$compute_abs_vector@N$0A@Utvec2@glm@@$0A@@detail@glm@@SA?AU?$tvec2@N$0A@@3@AEBU43@@Z DD 020f01H
	DD	0700b320fH
xdata	ENDS
;	COMDAT xdata
xdata	SEGMENT
$unwind$?call@?$compute_abs_vector@M$0A@Utvec2@glm@@$0A@@detail@glm@@SA?AU?$tvec2@M$0A@@3@AEBU43@@Z DD 020f01H
	DD	0700b320fH
xdata	ENDS
;	COMDAT xdata
xdata	SEGMENT
$unwind$?call@?$compute_abs_vector@N$0A@Utvec1@glm@@$0A@@detail@glm@@SA?AU?$tvec1@N$0A@@3@AEBU43@@Z DD 020f01H
	DD	0700b320fH
xdata	ENDS
;	COMDAT xdata
xdata	SEGMENT
$unwind$?call@?$compute_abs_vector@M$0A@Utvec1@glm@@$0A@@detail@glm@@SA?AU?$tvec1@M$0A@@3@AEBU43@@Z DD 020f01H
	DD	0700b320fH
xdata	ENDS
;	COMDAT xdata
xdata	SEGMENT
$unwind$?call@?$compute_vec4_mul@M$0A@$0A@@detail@glm@@SA?AU?$tvec4@M$0A@@3@AEBU43@0@Z DD 021401H
	DD	070107214H
xdata	ENDS
;	COMDAT xdata
xdata	SEGMENT
$unwind$??$?UG$0A@@glm@@YA?AU?$tvec1@G$0A@@0@AEBU10@0@Z DD 021401H
	DD	070103214H
xdata	ENDS
;	COMDAT xdata
xdata	SEGMENT
$unwind$??$?6G$0A@@glm@@YA?AU?$tvec1@G$0A@@0@AEBU10@G@Z DD 021501H
	DD	070113215H
xdata	ENDS
;	COMDAT xdata
xdata	SEGMENT
$unwind$??$?0E$0A@@?$tvec1@G$0A@@glm@@QEAA@AEBU?$tvec1@E$0A@@1@@Z DD 010b01H
	DD	0700bH
xdata	ENDS
;	COMDAT xdata
xdata	SEGMENT
$unwind$??0?$tvec1@E$0A@@glm@@QEAA@E@Z DD 010a01H
	DD	0700aH
xdata	ENDS
;	COMDAT xdata
xdata	SEGMENT
$unwind$?call@?$compute_rand@E$0A@Utvec1@glm@@@detail@glm@@SA?AU?$tvec1@E$0A@@3@XZ DD 020a01H
	DD	07006520aH
xdata	ENDS
;	COMDAT xdata
xdata	SEGMENT
$unwind$??$?UI$0A@@glm@@YA?AU?$tvec1@I$0A@@0@AEBU10@0@Z DD 021401H
	DD	070103214H
xdata	ENDS
;	COMDAT xdata
xdata	SEGMENT
$unwind$??$?6I$0A@@glm@@YA?AU?$tvec1@I$0A@@0@AEBU10@I@Z DD 021401H
	DD	070105214H
xdata	ENDS
;	COMDAT xdata
xdata	SEGMENT
$unwind$??$?0G$0A@@?$tvec1@I$0A@@glm@@QEAA@AEBU?$tvec1@G$0A@@1@@Z DD 010b01H
	DD	0700bH
xdata	ENDS
;	COMDAT xdata
xdata	SEGMENT
$unwind$??0?$tvec1@G$0A@@glm@@QEAA@G@Z DD 010b01H
	DD	0700bH
xdata	ENDS
;	COMDAT xdata
xdata	SEGMENT
$unwind$?call@?$compute_rand@G$0A@Utvec1@glm@@@detail@glm@@SA?AU?$tvec1@G$0A@@3@XZ DD 020a01H
	DD	07006720aH
xdata	ENDS
;	COMDAT xdata
xdata	SEGMENT
$unwind$??$_Allocate@$0BA@U_Default_allocate_traits@std@@$0A@@std@@YAPEAX_K@Z DD 020a01H
	DD	07006320aH
xdata	ENDS
;	COMDAT xdata
xdata	SEGMENT
$unwind$??$_Get_size_of_n@$0BA@@std@@YA_K_K@Z DD 020a01H
	DD	07006520aH
xdata	ENDS
;	COMDAT xdata
xdata	SEGMENT
$unwind$?call@?$functor1@MM$0A@Utvec1@glm@@@detail@glm@@SA?AU?$tvec1@M$0A@@3@P6AMM@ZAEBU43@@Z DD 021401H
	DD	070103214H
xdata	ENDS
;	COMDAT xdata
xdata	SEGMENT
$unwind$?call@?$functor1@NN$0A@Utvec1@glm@@@detail@glm@@SA?AU?$tvec1@N$0A@@3@P6ANN@ZAEBU43@@Z DD 021401H
	DD	070103214H
xdata	ENDS
;	COMDAT xdata
xdata	SEGMENT
$unwind$?call@?$functor1@MM$0A@Utvec2@glm@@@detail@glm@@SA?AU?$tvec2@M$0A@@3@P6AMM@ZAEBU43@@Z DD 021401H
	DD	070105214H
xdata	ENDS
;	COMDAT xdata
xdata	SEGMENT
$unwind$?call@?$functor1@NN$0A@Utvec2@glm@@@detail@glm@@SA?AU?$tvec2@N$0A@@3@P6ANN@ZAEBU43@@Z DD 021401H
	DD	070105214H
xdata	ENDS
;	COMDAT xdata
xdata	SEGMENT
$unwind$?call@?$functor1@MM$0A@Utvec3@glm@@@detail@glm@@SA?AU?$tvec3@M$0A@@3@P6AMM@ZAEBU43@@Z DD 021401H
	DD	070105214H
xdata	ENDS
;	COMDAT xdata
xdata	SEGMENT
$unwind$?call@?$functor1@NN$0A@Utvec3@glm@@@detail@glm@@SA?AU?$tvec3@N$0A@@3@P6ANN@ZAEBU43@@Z DD 021401H
	DD	070105214H
xdata	ENDS
;	COMDAT xdata
xdata	SEGMENT
$unwind$?call@?$functor1@MM$0A@Utvec4@glm@@@detail@glm@@SA?AU?$tvec4@M$0A@@3@P6AMM@ZAEBU43@@Z DD 021401H
	DD	070107214H
xdata	ENDS
;	COMDAT xdata
xdata	SEGMENT
$unwind$?call@?$functor1@NN$0A@Utvec4@glm@@@detail@glm@@SA?AU?$tvec4@N$0A@@3@P6ANN@ZAEBU43@@Z DD 021401H
	DD	070109214H
xdata	ENDS
;	COMDAT xdata
xdata	SEGMENT
$unwind$??$?DM$0A@@glm@@YA?AU?$tvec4@M$0A@@0@AEBU10@0@Z DD 031501H
	DD	070116215H
	DD	06010H
xdata	ENDS
;	COMDAT xdata
xdata	SEGMENT
$unwind$??$?KM$0A@@glm@@YA?AU?$tvec4@M$0A@@0@AEBU10@0@Z DD 031501H
	DD	070116215H
	DD	06010H
xdata	ENDS
;	COMDAT xdata
xdata	SEGMENT
$unwind$??$min@M@glm@@YAMMM@Z DD 021101H
	DD	0700d3211H
xdata	ENDS
;	COMDAT xdata
xdata	SEGMENT
$unwind$?call@?$functor2@M$0A@Utvec1@glm@@@detail@glm@@SA?AU?$tvec1@M$0A@@3@P6AMMM@ZAEBU43@1@Z DD 021901H
	DD	070153219H
xdata	ENDS
;	COMDAT xdata
xdata	SEGMENT
$unwind$?call@?$functor2@M$0A@Utvec2@glm@@@detail@glm@@SA?AU?$tvec2@M$0A@@3@P6AMMM@ZAEBU43@1@Z DD 021901H
	DD	070155219H
xdata	ENDS
;	COMDAT xdata
xdata	SEGMENT
$unwind$?call@?$functor2@M$0A@Utvec3@glm@@@detail@glm@@SA?AU?$tvec3@M$0A@@3@P6AMMM@ZAEBU43@1@Z DD 021901H
	DD	070155219H
xdata	ENDS
;	COMDAT xdata
xdata	SEGMENT
$unwind$??$max@M@glm@@YAMMM@Z DD 021101H
	DD	0700d3211H
xdata	ENDS
;	COMDAT xdata
xdata	SEGMENT
$unwind$?call@?$functor2@M$0A@Utvec4@glm@@@detail@glm@@SA?AU?$tvec4@M$0A@@3@P6AMMM@ZAEBU43@1@Z DD 021901H
	DD	070157219H
xdata	ENDS
;	COMDAT xdata
xdata	SEGMENT
$unwind$??$?GH$0A@@glm@@YA?AU?$tvec1@H$0A@@0@AEBU10@0@Z DD 021401H
	DD	070103214H
xdata	ENDS
;	COMDAT xdata
xdata	SEGMENT
$unwind$??$?0_N$0A@@?$tvec1@H$0A@@glm@@QEAA@AEBU?$tvec1@_N$0A@@1@@Z DD 010b01H
	DD	0700bH
xdata	ENDS
;	COMDAT xdata
xdata	SEGMENT
$unwind$??$lessThan@H$0A@Utvec1@glm@@@glm@@YA?AU?$tvec1@_N$0A@@0@AEBU?$tvec1@H$0A@@0@0@Z DD 022a01H
	DD	070109214H
xdata	ENDS
;	COMDAT CONST
CONST	SEGMENT
??$lessThan@H$0A@Utvec1@glm@@@glm@@YA?AU?$tvec1@_N$0A@@0@AEBU?$tvec1@H$0A@@0@0@Z$rtcName$0 DB 052H ; glm::lessThan<int,0,glm::tvec1>
	DB	065H
	DB	073H
	DB	075H
	DB	06cH
	DB	074H
	DB	00H
	ORG $+9
??$lessThan@H$0A@Utvec1@glm@@@glm@@YA?AU?$tvec1@_N$0A@@0@AEBU?$tvec1@H$0A@@0@0@Z$rtcVarDesc DD 024H ; glm::lessThan<int,0,glm::tvec1>
	DD	01H
	DQ	FLAT:??$lessThan@H$0A@Utvec1@glm@@@glm@@YA?AU?$tvec1@_N$0A@@0@AEBU?$tvec1@H$0A@@0@0@Z$rtcName$0
	ORG $+48
??$lessThan@H$0A@Utvec1@glm@@@glm@@YA?AU?$tvec1@_N$0A@@0@AEBU?$tvec1@H$0A@@0@0@Z$rtcFrameData DD 01H ; glm::lessThan<int,0,glm::tvec1>
	DD	00H
	DQ	FLAT:??$lessThan@H$0A@Utvec1@glm@@@glm@@YA?AU?$tvec1@_N$0A@@0@AEBU?$tvec1@H$0A@@0@0@Z$rtcVarDesc
CONST	ENDS
;	COMDAT xdata
xdata	SEGMENT
$unwind$??$?GH$0A@@glm@@YA?AU?$tvec4@H$0A@@0@AEBU10@0@Z DD 031501H
	DD	070116215H
	DD	06010H
xdata	ENDS
;	COMDAT xdata
xdata	SEGMENT
$unwind$??$?0_N$0A@@?$tvec4@H$0A@@glm@@QEAA@AEBU?$tvec4@_N$0A@@1@@Z DD 010b01H
	DD	0700bH
xdata	ENDS
;	COMDAT xdata
xdata	SEGMENT
$unwind$??$lessThan@H$0A@Utvec4@glm@@@glm@@YA?AU?$tvec4@_N$0A@@0@AEBU?$tvec4@H$0A@@0@0@Z DD 022a01H
	DD	070109214H
xdata	ENDS
;	COMDAT CONST
CONST	SEGMENT
??$lessThan@H$0A@Utvec4@glm@@@glm@@YA?AU?$tvec4@_N$0A@@0@AEBU?$tvec4@H$0A@@0@0@Z$rtcName$0 DB 052H ; glm::lessThan<int,0,glm::tvec4>
	DB	065H
	DB	073H
	DB	075H
	DB	06cH
	DB	074H
	DB	00H
	ORG $+9
??$lessThan@H$0A@Utvec4@glm@@@glm@@YA?AU?$tvec4@_N$0A@@0@AEBU?$tvec4@H$0A@@0@0@Z$rtcVarDesc DD 024H ; glm::lessThan<int,0,glm::tvec4>
	DD	04H
	DQ	FLAT:??$lessThan@H$0A@Utvec4@glm@@@glm@@YA?AU?$tvec4@_N$0A@@0@AEBU?$tvec4@H$0A@@0@0@Z$rtcName$0
	ORG $+48
??$lessThan@H$0A@Utvec4@glm@@@glm@@YA?AU?$tvec4@_N$0A@@0@AEBU?$tvec4@H$0A@@0@0@Z$rtcFrameData DD 01H ; glm::lessThan<int,0,glm::tvec4>
	DD	00H
	DQ	FLAT:??$lessThan@H$0A@Utvec4@glm@@@glm@@YA?AU?$tvec4@_N$0A@@0@AEBU?$tvec4@H$0A@@0@0@Z$rtcVarDesc
CONST	ENDS
;	COMDAT xdata
xdata	SEGMENT
$unwind$??$?0_N$0A@@?$tvec4@M$0A@@glm@@QEAA@AEBU?$tvec4@_N$0A@@1@@Z DD 010b01H
	DD	0700bH
xdata	ENDS
;	COMDAT xdata
xdata	SEGMENT
$unwind$??$?HM$0A@@glm@@YA?AU?$tvec1@M$0A@@0@AEBU10@0@Z DD 021401H
	DD	070103214H
xdata	ENDS
;	COMDAT xdata
xdata	SEGMENT
$unwind$??$?DM$0A@@glm@@YA?AU?$tvec1@M$0A@@0@AEBU10@0@Z DD 021401H
	DD	070103214H
xdata	ENDS
;	COMDAT xdata
xdata	SEGMENT
$unwind$??$?KM$0A@@glm@@YA?AU?$tvec1@M$0A@@0@AEBU10@M@Z DD 021501H
	DD	070113215H
xdata	ENDS
;	COMDAT xdata
xdata	SEGMENT
$unwind$??$?0I$0A@@?$tvec1@M$0A@@glm@@QEAA@AEBU?$tvec1@I$0A@@1@@Z DD 010b01H
	DD	0700bH
xdata	ENDS
;	COMDAT xdata
xdata	SEGMENT
$unwind$??0?$tvec1@I$0A@@glm@@QEAA@I@Z DD 010a01H
	DD	0700aH
xdata	ENDS
;	COMDAT xdata
xdata	SEGMENT
$unwind$?call@?$compute_rand@I$0A@Utvec1@glm@@@detail@glm@@SA?AU?$tvec1@I$0A@@3@XZ DD 020a01H
	DD	07006720aH
xdata	ENDS
;	COMDAT xdata
xdata	SEGMENT
$unwind$??$_Construct_in_place@U_Container_proxy@std@@PEAU_Container_base12@2@@std@@YAXAEAU_Container_proxy@0@$$QEAPEAU_Container_base12@0@@Z DD 020f01H
	DD	0700b520fH
xdata	ENDS
;	COMDAT xdata
xdata	SEGMENT
$unwind$??$_Unfancy@U_Container_proxy@std@@@std@@YAPEAU_Container_proxy@0@PEAU10@@Z DD 010601H
	DD	07006H
xdata	ENDS
;	COMDAT xdata
xdata	SEGMENT
$ip2state$??$_Deallocate_plain@V?$allocator@U_Container_proxy@std@@@std@@@std@@YAXAEAV?$allocator@U_Container_proxy@std@@@0@QEAU_Container_proxy@0@@Z DB 02H
	DB	00H
	DB	00H
xdata	ENDS
;	COMDAT xdata
xdata	SEGMENT
$cppxdata$??$_Deallocate_plain@V?$allocator@U_Container_proxy@std@@@std@@@std@@YAXAEAV?$allocator@U_Container_proxy@std@@@0@QEAU_Container_proxy@0@@Z DB 060H
	DD	imagerel $ip2state$??$_Deallocate_plain@V?$allocator@U_Container_proxy@std@@@std@@@std@@YAXAEAV?$allocator@U_Container_proxy@std@@@0@QEAU_Container_proxy@0@@Z
xdata	ENDS
;	COMDAT xdata
xdata	SEGMENT
$unwind$??$_Deallocate_plain@V?$allocator@U_Container_proxy@std@@@std@@@std@@YAXAEAV?$allocator@U_Container_proxy@std@@@0@QEAU_Container_proxy@0@@Z DD 020f19H
	DD	0700b320fH
	DD	imagerel __CxxFrameHandler4
	DD	imagerel $cppxdata$??$_Deallocate_plain@V?$allocator@U_Container_proxy@std@@@std@@@std@@YAXAEAV?$allocator@U_Container_proxy@std@@@0@QEAU_Container_proxy@0@@Z
xdata	ENDS
;	COMDAT voltbl
voltbl	SEGMENT
_volmd	DB	00H
	DB	05H
voltbl	ENDS
;	COMDAT xdata
xdata	SEGMENT
$unwind$?dtor$0@?0???$_Uninitialized_value_construct_n@V?$allocator@H@std@@@std@@YAPEAHPEAH_KAEAV?$allocator@H@0@@Z@4HA DD 031001H
	DD	0700c4210H
	DD	0500bH
xdata	ENDS
;	COMDAT xdata
xdata	SEGMENT
$ip2state$??$_Uninitialized_value_construct_n@V?$allocator@H@std@@@std@@YAPEAHPEAH_KAEAV?$allocator@H@0@@Z DB 02H
	DB	00H
	DB	00H
xdata	ENDS
;	COMDAT xdata
xdata	SEGMENT
$stateUnwindMap$??$_Uninitialized_value_construct_n@V?$allocator@H@std@@@std@@YAPEAHPEAH_KAEAV?$allocator@H@0@@Z DB 02H
	DB	0eH
	DD	imagerel ?dtor$0@?0???$_Uninitialized_value_construct_n@V?$allocator@H@std@@@std@@YAPEAHPEAH_KAEAV?$allocator@H@0@@Z@4HA
xdata	ENDS
;	COMDAT xdata
xdata	SEGMENT
$cppxdata$??$_Uninitialized_value_construct_n@V?$allocator@H@std@@@std@@YAPEAHPEAH_KAEAV?$allocator@H@0@@Z DB 028H
	DD	imagerel $stateUnwindMap$??$_Uninitialized_value_construct_n@V?$allocator@H@std@@@std@@YAPEAHPEAH_KAEAV?$allocator@H@0@@Z
	DD	imagerel $ip2state$??$_Uninitialized_value_construct_n@V?$allocator@H@std@@@std@@YAPEAHPEAH_KAEAV?$allocator@H@0@@Z
xdata	ENDS
;	COMDAT xdata
xdata	SEGMENT
$unwind$??$_Uninitialized_value_construct_n@V?$allocator@H@std@@@std@@YAPEAHPEAH_KAEAV?$allocator@H@0@@Z DD 022a11H
	DD	07010b214H
	DD	imagerel __CxxFrameHandler4
	DD	imagerel $cppxdata$??$_Uninitialized_value_construct_n@V?$allocator@H@std@@@std@@YAPEAHPEAH_KAEAV?$allocator@H@0@@Z
xdata	ENDS
;	COMDAT CONST
CONST	SEGMENT
??$_Uninitialized_value_construct_n@V?$allocator@H@std@@@std@@YAPEAHPEAH_KAEAV?$allocator@H@0@@Z$rtcName$0 DB 05fH ; std::_Uninitialized_value_construct_n<std::allocator<int> >
	DB	042H
	DB	061H
	DB	063H
	DB	06bH
	DB	06fH
	DB	075H
	DB	074H
	DB	00H
	ORG $+7
??$_Uninitialized_value_construct_n@V?$allocator@H@std@@@std@@YAPEAHPEAH_KAEAV?$allocator@H@0@@Z$rtcVarDesc DD 038H ; std::_Uninitialized_value_construct_n<std::allocator<int> >
	DD	018H
	DQ	FLAT:??$_Uninitialized_value_construct_n@V?$allocator@H@std@@@std@@YAPEAHPEAH_KAEAV?$allocator@H@0@@Z$rtcName$0
	ORG $+48
??$_Uninitialized_value_construct_n@V?$allocator@H@std@@@std@@YAPEAHPEAH_KAEAV?$allocator@H@0@@Z$rtcFrameData DD 01H ; std::_Uninitialized_value_construct_n<std::allocator<int> >
	DD	00H
	DQ	FLAT:??$_Uninitialized_value_construct_n@V?$allocator@H@std@@@std@@YAPEAHPEAH_KAEAV?$allocator@H@0@@Z$rtcVarDesc
CONST	ENDS
;	COMDAT voltbl
voltbl	SEGMENT
_volmd	DB	00H
	DB	05H
voltbl	ENDS
;	COMDAT xdata
xdata	SEGMENT
$unwind$?catch$0@?0???$_Resize_reallocate@U_Value_init_tag@std@@@?$vector@HV?$allocator@H@std@@@std@@AEAAX_KAEBU_Value_init_tag@1@@Z@4HA DD 031001H
	DD	0700c4210H
	DD	0500bH
xdata	ENDS
;	COMDAT xdata
xdata	SEGMENT
$ip2state$??$_Resize_reallocate@U_Value_init_tag@std@@@?$vector@HV?$allocator@H@std@@@std@@AEAAX_KAEBU_Value_init_tag@1@@Z DB 06H
	DB	00H
	DB	00H
	DB	'I', 03H
	DB	02H
	DB	0a8H
	DB	00H
xdata	ENDS
;	COMDAT xdata
xdata	SEGMENT
$handlerMap$??$_Resize_reallocate@U_Value_init_tag@std@@@?$vector@HV?$allocator@H@std@@@std@@AEAAX_KAEBU_Value_init_tag@1@@Z DB 02H
	DB	01H
	DB	080H
	DD	imagerel ?catch$0@?0???$_Resize_reallocate@U_Value_init_tag@std@@@?$vector@HV?$allocator@H@std@@@std@@AEAAX_KAEBU_Value_init_tag@1@@Z@4HA
xdata	ENDS
;	COMDAT xdata
xdata	SEGMENT
$tryMap$??$_Resize_reallocate@U_Value_init_tag@std@@@?$vector@HV?$allocator@H@std@@@std@@AEAAX_KAEBU_Value_init_tag@1@@Z DB 02H
	DB	00H
	DB	00H
	DB	02H
	DD	imagerel $handlerMap$??$_Resize_reallocate@U_Value_init_tag@std@@@?$vector@HV?$allocator@H@std@@@std@@AEAAX_KAEBU_Value_init_tag@1@@Z
xdata	ENDS
;	COMDAT xdata
xdata	SEGMENT
$stateUnwindMap$??$_Resize_reallocate@U_Value_init_tag@std@@@?$vector@HV?$allocator@H@std@@@std@@AEAAX_KAEBU_Value_init_tag@1@@Z DB 04H
	DB	08H
	DB	010H
xdata	ENDS
;	COMDAT xdata
xdata	SEGMENT
$cppxdata$??$_Resize_reallocate@U_Value_init_tag@std@@@?$vector@HV?$allocator@H@std@@@std@@AEAAX_KAEBU_Value_init_tag@1@@Z DB 038H
	DD	imagerel $stateUnwindMap$??$_Resize_reallocate@U_Value_init_tag@std@@@?$vector@HV?$allocator@H@std@@@std@@AEAAX_KAEBU_Value_init_tag@1@@Z
	DD	imagerel $tryMap$??$_Resize_reallocate@U_Value_init_tag@std@@@?$vector@HV?$allocator@H@std@@@std@@AEAAX_KAEBU_Value_init_tag@1@@Z
	DD	imagerel $ip2state$??$_Resize_reallocate@U_Value_init_tag@std@@@?$vector@HV?$allocator@H@std@@@std@@AEAAX_KAEBU_Value_init_tag@1@@Z
xdata	ENDS
;	COMDAT xdata
xdata	SEGMENT
$unwind$??$_Resize_reallocate@U_Value_init_tag@std@@@?$vector@HV?$allocator@H@std@@@std@@AEAAX_KAEBU_Value_init_tag@1@@Z DD 021419H
	DD	07010d214H
	DD	imagerel __CxxFrameHandler4
	DD	imagerel $cppxdata$??$_Resize_reallocate@U_Value_init_tag@std@@@?$vector@HV?$allocator@H@std@@@std@@AEAAX_KAEBU_Value_init_tag@1@@Z
xdata	ENDS
;	COMDAT xdata
xdata	SEGMENT
$unwind$?call@?$compute_vec4_bitwise_not@H$0A@$0?0$0CA@$0A@@detail@glm@@SA?AU?$tvec4@H$0A@@3@AEBU43@@Z DD 020f01H
	DD	0700b720fH
xdata	ENDS
;	COMDAT xdata
xdata	SEGMENT
$unwind$??$ldexp@M@glm@@YAMAEBMAEBH@Z DD 020f01H
	DD	0700b520fH
xdata	ENDS
;	COMDAT xdata
xdata	SEGMENT
$unwind$??$frexp@M@glm@@YAMMAEAH@Z DD 021001H
	DD	0700c5210H
xdata	ENDS
;	COMDAT xdata
xdata	SEGMENT
$unwind$?call@?$compute_linearRand@M$0A@Utvec1@glm@@@detail@glm@@SA?AU?$tvec1@M$0A@@3@AEBU43@0@Z DD 021401H
	DD	070109214H
xdata	ENDS
;	COMDAT xdata
xdata	SEGMENT
$unwind$?call@?$compute_sign@M$0A@Utvec4@glm@@$00$0A@@detail@glm@@SA?AU?$tvec4@M$0A@@3@AEBU43@@Z DD 020f01H
	DD	0700bd20fH
xdata	ENDS
;	COMDAT xdata
xdata	SEGMENT
$unwind$?call@?$compute_sign@H$0A@Utvec4@glm@@$0A@$0A@@detail@glm@@SA?AU?$tvec4@H$0A@@3@AEBU43@@Z DD 020f01H
	DD	0700bd20fH
xdata	ENDS
;	COMDAT xdata
xdata	SEGMENT
$unwind$?call@?$compute_sign@H$0A@Utvec1@glm@@$0A@$0A@@detail@glm@@SA?AU?$tvec1@H$0A@@3@AEBU43@@Z DD 020f01H
	DD	0700b720fH
xdata	ENDS
;	COMDAT xdata
xdata	SEGMENT
$unwind$?call@?$functor1@_NM$0A@Utvec4@glm@@@detail@glm@@SA?AU?$tvec4@_N$0A@@3@P6A_NM@ZAEBU?$tvec4@M$0A@@3@@Z DD 021401H
	DD	070107214H
xdata	ENDS
;	COMDAT xdata
xdata	SEGMENT
$unwind$?call@?$functor1@_NM$0A@Utvec3@glm@@@detail@glm@@SA?AU?$tvec3@_N$0A@@3@P6A_NM@ZAEBU?$tvec3@M$0A@@3@@Z DD 021401H
	DD	070105214H
xdata	ENDS
;	COMDAT xdata
xdata	SEGMENT
$unwind$?call@?$functor1@_NM$0A@Utvec2@glm@@@detail@glm@@SA?AU?$tvec2@_N$0A@@3@P6A_NM@ZAEBU?$tvec2@M$0A@@3@@Z DD 021401H
	DD	070105214H
xdata	ENDS
;	COMDAT xdata
xdata	SEGMENT
$unwind$?call@?$functor1@_NN$0A@Utvec4@glm@@@detail@glm@@SA?AU?$tvec4@_N$0A@@3@P6A_NN@ZAEBU?$tvec4@N$0A@@3@@Z DD 021401H
	DD	070107214H
xdata	ENDS
;	COMDAT xdata
xdata	SEGMENT
$unwind$?call@?$functor1@_NN$0A@Utvec3@glm@@@detail@glm@@SA?AU?$tvec3@_N$0A@@3@P6A_NN@ZAEBU?$tvec3@N$0A@@3@@Z DD 021401H
	DD	070105214H
xdata	ENDS
;	COMDAT xdata
xdata	SEGMENT
$unwind$?call@?$functor1@_NN$0A@Utvec2@glm@@@detail@glm@@SA?AU?$tvec2@_N$0A@@3@P6A_NN@ZAEBU?$tvec2@N$0A@@3@@Z DD 021401H
	DD	070105214H
xdata	ENDS
;	COMDAT xdata
xdata	SEGMENT
$unwind$??$fract@M@glm@@YAMM@Z DD 020b01H
	DD	07007720bH
xdata	ENDS
;	COMDAT xdata
xdata	SEGMENT
$unwind$?call@?$compute_step_vector@M$0A@Utvec4@glm@@$0A@@detail@glm@@SA?AU?$tvec4@M$0A@@3@AEBU43@0@Z DD 021401H
	DD	07010b214H
xdata	ENDS
;	COMDAT xdata
xdata	SEGMENT
$unwind$?call@?$compute_mix_vector@M_N$0A@Utvec4@glm@@$0A@@detail@glm@@SA?AU?$tvec4@M$0A@@3@AEBU43@0AEBU?$tvec4@_N$0A@@3@@Z DD 033001H
	DD	07016a21aH
	DD	06015H
xdata	ENDS
;	COMDAT CONST
CONST	SEGMENT
?call@?$compute_mix_vector@M_N$0A@Utvec4@glm@@$0A@@detail@glm@@SA?AU?$tvec4@M$0A@@3@AEBU43@0AEBU?$tvec4@_N$0A@@3@@Z$rtcName$0 DB 052H ; glm::detail::compute_mix_vector<float,bool,0,glm::tvec4,0>::call
	DB	065H
	DB	073H
	DB	075H
	DB	06cH
	DB	074H
	DB	00H
	ORG $+9
?call@?$compute_mix_vector@M_N$0A@Utvec4@glm@@$0A@@detail@glm@@SA?AU?$tvec4@M$0A@@3@AEBU43@0AEBU?$tvec4@_N$0A@@3@@Z$rtcVarDesc DD 028H ; glm::detail::compute_mix_vector<float,bool,0,glm::tvec4,0>::call
	DD	010H
	DQ	FLAT:?call@?$compute_mix_vector@M_N$0A@Utvec4@glm@@$0A@@detail@glm@@SA?AU?$tvec4@M$0A@@3@AEBU43@0AEBU?$tvec4@_N$0A@@3@@Z$rtcName$0
	ORG $+48
?call@?$compute_mix_vector@M_N$0A@Utvec4@glm@@$0A@@detail@glm@@SA?AU?$tvec4@M$0A@@3@AEBU43@0AEBU?$tvec4@_N$0A@@3@@Z$rtcFrameData DD 01H ; glm::detail::compute_mix_vector<float,bool,0,glm::tvec4,0>::call
	DD	00H
	DQ	FLAT:?call@?$compute_mix_vector@M_N$0A@Utvec4@glm@@$0A@@detail@glm@@SA?AU?$tvec4@M$0A@@3@AEBU43@0AEBU?$tvec4@_N$0A@@3@@Z$rtcVarDesc
CONST	ENDS
;	COMDAT xdata
xdata	SEGMENT
$unwind$?call@?$compute_mix_scalar@M_N$0A@Utvec4@glm@@$0A@@detail@glm@@SA?AU?$tvec4@M$0A@@3@AEBU43@0AEB_N@Z DD 031a01H
	DD	07016221aH
	DD	06015H
xdata	ENDS
;	COMDAT xdata
xdata	SEGMENT
$unwind$?call@?$compute_mix_vector@M_N$0A@Utvec3@glm@@$0A@@detail@glm@@SA?AU?$tvec3@M$0A@@3@AEBU43@0AEBU?$tvec3@_N$0A@@3@@Z DD 033001H
	DD	07016a21aH
	DD	06015H
xdata	ENDS
;	COMDAT CONST
CONST	SEGMENT
?call@?$compute_mix_vector@M_N$0A@Utvec3@glm@@$0A@@detail@glm@@SA?AU?$tvec3@M$0A@@3@AEBU43@0AEBU?$tvec3@_N$0A@@3@@Z$rtcName$0 DB 052H ; glm::detail::compute_mix_vector<float,bool,0,glm::tvec3,0>::call
	DB	065H
	DB	073H
	DB	075H
	DB	06cH
	DB	074H
	DB	00H
	ORG $+9
?call@?$compute_mix_vector@M_N$0A@Utvec3@glm@@$0A@@detail@glm@@SA?AU?$tvec3@M$0A@@3@AEBU43@0AEBU?$tvec3@_N$0A@@3@@Z$rtcVarDesc DD 028H ; glm::detail::compute_mix_vector<float,bool,0,glm::tvec3,0>::call
	DD	0cH
	DQ	FLAT:?call@?$compute_mix_vector@M_N$0A@Utvec3@glm@@$0A@@detail@glm@@SA?AU?$tvec3@M$0A@@3@AEBU43@0AEBU?$tvec3@_N$0A@@3@@Z$rtcName$0
	ORG $+48
?call@?$compute_mix_vector@M_N$0A@Utvec3@glm@@$0A@@detail@glm@@SA?AU?$tvec3@M$0A@@3@AEBU43@0AEBU?$tvec3@_N$0A@@3@@Z$rtcFrameData DD 01H ; glm::detail::compute_mix_vector<float,bool,0,glm::tvec3,0>::call
	DD	00H
	DQ	FLAT:?call@?$compute_mix_vector@M_N$0A@Utvec3@glm@@$0A@@detail@glm@@SA?AU?$tvec3@M$0A@@3@AEBU43@0AEBU?$tvec3@_N$0A@@3@@Z$rtcVarDesc
CONST	ENDS
;	COMDAT xdata
xdata	SEGMENT
$unwind$?call@?$compute_mix_scalar@M_N$0A@Utvec3@glm@@$0A@@detail@glm@@SA?AU?$tvec3@M$0A@@3@AEBU43@0AEB_N@Z DD 031a01H
	DD	07016221aH
	DD	06015H
xdata	ENDS
;	COMDAT xdata
xdata	SEGMENT
$unwind$?call@?$compute_mix_vector@M_N$0A@Utvec2@glm@@$0A@@detail@glm@@SA?AU?$tvec2@M$0A@@3@AEBU43@0AEBU?$tvec2@_N$0A@@3@@Z DD 022f01H
	DD	070157219H
xdata	ENDS
;	COMDAT CONST
CONST	SEGMENT
?call@?$compute_mix_vector@M_N$0A@Utvec2@glm@@$0A@@detail@glm@@SA?AU?$tvec2@M$0A@@3@AEBU43@0AEBU?$tvec2@_N$0A@@3@@Z$rtcName$0 DB 052H ; glm::detail::compute_mix_vector<float,bool,0,glm::tvec2,0>::call
	DB	065H
	DB	073H
	DB	075H
	DB	06cH
	DB	074H
	DB	00H
	ORG $+9
?call@?$compute_mix_vector@M_N$0A@Utvec2@glm@@$0A@@detail@glm@@SA?AU?$tvec2@M$0A@@3@AEBU43@0AEBU?$tvec2@_N$0A@@3@@Z$rtcVarDesc DD 028H ; glm::detail::compute_mix_vector<float,bool,0,glm::tvec2,0>::call
	DD	08H
	DQ	FLAT:?call@?$compute_mix_vector@M_N$0A@Utvec2@glm@@$0A@@detail@glm@@SA?AU?$tvec2@M$0A@@3@AEBU43@0AEBU?$tvec2@_N$0A@@3@@Z$rtcName$0
	ORG $+48
?call@?$compute_mix_vector@M_N$0A@Utvec2@glm@@$0A@@detail@glm@@SA?AU?$tvec2@M$0A@@3@AEBU43@0AEBU?$tvec2@_N$0A@@3@@Z$rtcFrameData DD 01H ; glm::detail::compute_mix_vector<float,bool,0,glm::tvec2,0>::call
	DD	00H
	DQ	FLAT:?call@?$compute_mix_vector@M_N$0A@Utvec2@glm@@$0A@@detail@glm@@SA?AU?$tvec2@M$0A@@3@AEBU43@0AEBU?$tvec2@_N$0A@@3@@Z$rtcVarDesc
CONST	ENDS
;	COMDAT xdata
xdata	SEGMENT
$unwind$?call@?$compute_mix_scalar@M_N$0A@Utvec2@glm@@$0A@@detail@glm@@SA?AU?$tvec2@M$0A@@3@AEBU43@0AEB_N@Z DD 021901H
	DD	070151219H
xdata	ENDS
;	COMDAT xdata
xdata	SEGMENT
$unwind$?call@?$compute_mix@MM@detail@glm@@SAMAEBM00@Z DD 021401H
	DD	070101214H
xdata	ENDS
;	COMDAT xdata
xdata	SEGMENT
$unwind$?call@?$compute_mix@M_N@detail@glm@@SAMAEBM0AEB_N@Z DD 021401H
	DD	070103214H
xdata	ENDS
;	COMDAT xdata
xdata	SEGMENT
$unwind$?call@?$compute_max_vector@M$0A@Utvec4@glm@@$0A@@detail@glm@@SA?AU?$tvec4@M$0A@@3@AEBU43@0@Z DD 021401H
	DD	070103214H
xdata	ENDS
;	COMDAT xdata
xdata	SEGMENT
$unwind$?call@?$compute_max_vector@M$0A@Utvec3@glm@@$0A@@detail@glm@@SA?AU?$tvec3@M$0A@@3@AEBU43@0@Z DD 021401H
	DD	070103214H
xdata	ENDS
;	COMDAT xdata
xdata	SEGMENT
$unwind$?call@?$compute_max_vector@M$0A@Utvec2@glm@@$0A@@detail@glm@@SA?AU?$tvec2@M$0A@@3@AEBU43@0@Z DD 021401H
	DD	070103214H
xdata	ENDS
;	COMDAT xdata
xdata	SEGMENT
$unwind$?call@?$compute_max_vector@M$0A@Utvec1@glm@@$0A@@detail@glm@@SA?AU?$tvec1@M$0A@@3@AEBU43@0@Z DD 021401H
	DD	070103214H
xdata	ENDS
;	COMDAT xdata
xdata	SEGMENT
$unwind$?call@?$compute_min_vector@M$0A@Utvec4@glm@@$0A@@detail@glm@@SA?AU?$tvec4@M$0A@@3@AEBU43@0@Z DD 021401H
	DD	070103214H
xdata	ENDS
;	COMDAT xdata
xdata	SEGMENT
$unwind$?call@?$compute_min_vector@M$0A@Utvec3@glm@@$0A@@detail@glm@@SA?AU?$tvec3@M$0A@@3@AEBU43@0@Z DD 021401H
	DD	070103214H
xdata	ENDS
;	COMDAT xdata
xdata	SEGMENT
$unwind$?call@?$compute_min_vector@M$0A@Utvec2@glm@@$0A@@detail@glm@@SA?AU?$tvec2@M$0A@@3@AEBU43@0@Z DD 021401H
	DD	070103214H
xdata	ENDS
;	COMDAT xdata
xdata	SEGMENT
$unwind$?call@?$compute_min_vector@M$0A@Utvec1@glm@@$0A@@detail@glm@@SA?AU?$tvec1@M$0A@@3@AEBU43@0@Z DD 021401H
	DD	070103214H
xdata	ENDS
;	COMDAT xdata
xdata	SEGMENT
$unwind$?call@?$compute_mod@M$0A@Utvec4@glm@@$0A@@detail@glm@@SA?AU?$tvec4@M$0A@@3@AEBU43@0@Z DD 021401H
	DD	070109214H
xdata	ENDS
;	COMDAT xdata
xdata	SEGMENT
$unwind$??$mod@M$0A@Utvec1@glm@@@glm@@YA?AU?$tvec1@M$0A@@0@AEBU10@M@Z DD 021501H
	DD	070115215H
xdata	ENDS
;	COMDAT xdata
xdata	SEGMENT
$unwind$?call@?$compute_vec4_equal@N$0A@$0A@$0EA@$0A@@detail@glm@@SA_NAEBU?$tvec4@N$0A@@3@0@Z DD 020f01H
	DD	0700b120fH
xdata	ENDS
;	COMDAT xdata
xdata	SEGMENT
$unwind$?call@?$compute_vec4_equal@M$0A@$0A@$0CA@$0A@@detail@glm@@SA_NAEBU?$tvec4@M$0A@@3@0@Z DD 020f01H
	DD	0700b120fH
xdata	ENDS
;	COMDAT xdata
xdata	SEGMENT
$unwind$??$lessThan@N$0A@Utvec4@glm@@@glm@@YA?AU?$tvec4@_N$0A@@0@AEBU?$tvec4@N$0A@@0@0@Z DD 022a01H
	DD	070109214H
xdata	ENDS
;	COMDAT CONST
CONST	SEGMENT
??$lessThan@N$0A@Utvec4@glm@@@glm@@YA?AU?$tvec4@_N$0A@@0@AEBU?$tvec4@N$0A@@0@0@Z$rtcName$0 DB 052H ; glm::lessThan<double,0,glm::tvec4>
	DB	065H
	DB	073H
	DB	075H
	DB	06cH
	DB	074H
	DB	00H
	ORG $+9
??$lessThan@N$0A@Utvec4@glm@@@glm@@YA?AU?$tvec4@_N$0A@@0@AEBU?$tvec4@N$0A@@0@0@Z$rtcVarDesc DD 024H ; glm::lessThan<double,0,glm::tvec4>
	DD	04H
	DQ	FLAT:??$lessThan@N$0A@Utvec4@glm@@@glm@@YA?AU?$tvec4@_N$0A@@0@AEBU?$tvec4@N$0A@@0@0@Z$rtcName$0
	ORG $+48
??$lessThan@N$0A@Utvec4@glm@@@glm@@YA?AU?$tvec4@_N$0A@@0@AEBU?$tvec4@N$0A@@0@0@Z$rtcFrameData DD 01H ; glm::lessThan<double,0,glm::tvec4>
	DD	00H
	DQ	FLAT:??$lessThan@N$0A@Utvec4@glm@@@glm@@YA?AU?$tvec4@_N$0A@@0@AEBU?$tvec4@N$0A@@0@0@Z$rtcVarDesc
CONST	ENDS
;	COMDAT xdata
xdata	SEGMENT
$unwind$??$abs@N$0A@Utvec4@glm@@@glm@@YA?AU?$tvec4@N$0A@@0@AEBU10@@Z DD 020f01H
	DD	0700b320fH
xdata	ENDS
;	COMDAT xdata
xdata	SEGMENT
$unwind$??$?GN$0A@@glm@@YA?AU?$tvec4@N$0A@@0@AEBU10@0@Z DD 031501H
	DD	070118215H
	DD	06010H
xdata	ENDS
;	COMDAT xdata
xdata	SEGMENT
$unwind$?call@?$compute_floor@N$0A@Utvec4@glm@@$0A@@detail@glm@@SA?AU?$tvec4@N$0A@@3@AEBU43@@Z DD 020f01H
	DD	0700b320fH
xdata	ENDS
;	COMDAT xdata
xdata	SEGMENT
$unwind$??$lessThan@M$0A@Utvec4@glm@@@glm@@YA?AU?$tvec4@_N$0A@@0@AEBU?$tvec4@M$0A@@0@0@Z DD 022a01H
	DD	070109214H
xdata	ENDS
;	COMDAT CONST
CONST	SEGMENT
??$lessThan@M$0A@Utvec4@glm@@@glm@@YA?AU?$tvec4@_N$0A@@0@AEBU?$tvec4@M$0A@@0@0@Z$rtcName$0 DB 052H ; glm::lessThan<float,0,glm::tvec4>
	DB	065H
	DB	073H
	DB	075H
	DB	06cH
	DB	074H
	DB	00H
	ORG $+9
??$lessThan@M$0A@Utvec4@glm@@@glm@@YA?AU?$tvec4@_N$0A@@0@AEBU?$tvec4@M$0A@@0@0@Z$rtcVarDesc DD 024H ; glm::lessThan<float,0,glm::tvec4>
	DD	04H
	DQ	FLAT:??$lessThan@M$0A@Utvec4@glm@@@glm@@YA?AU?$tvec4@_N$0A@@0@AEBU?$tvec4@M$0A@@0@0@Z$rtcName$0
	ORG $+48
??$lessThan@M$0A@Utvec4@glm@@@glm@@YA?AU?$tvec4@_N$0A@@0@AEBU?$tvec4@M$0A@@0@0@Z$rtcFrameData DD 01H ; glm::lessThan<float,0,glm::tvec4>
	DD	00H
	DQ	FLAT:??$lessThan@M$0A@Utvec4@glm@@@glm@@YA?AU?$tvec4@_N$0A@@0@AEBU?$tvec4@M$0A@@0@0@Z$rtcVarDesc
CONST	ENDS
;	COMDAT xdata
xdata	SEGMENT
$unwind$??$abs@M$0A@Utvec4@glm@@@glm@@YA?AU?$tvec4@M$0A@@0@AEBU10@@Z DD 020f01H
	DD	0700b320fH
xdata	ENDS
;	COMDAT xdata
xdata	SEGMENT
$unwind$??$?GM$0A@@glm@@YA?AU?$tvec4@M$0A@@0@AEBU10@0@Z DD 031501H
	DD	070116215H
	DD	06010H
xdata	ENDS
;	COMDAT xdata
xdata	SEGMENT
$unwind$?call@?$compute_floor@M$0A@Utvec4@glm@@$0A@@detail@glm@@SA?AU?$tvec4@M$0A@@3@AEBU43@@Z DD 020f01H
	DD	0700b320fH
xdata	ENDS
;	COMDAT xdata
xdata	SEGMENT
$unwind$??$lessThan@N$0A@Utvec3@glm@@@glm@@YA?AU?$tvec3@_N$0A@@0@AEBU?$tvec3@N$0A@@0@0@Z DD 032b01H
	DD	07011a215H
	DD	06010H
xdata	ENDS
;	COMDAT CONST
CONST	SEGMENT
??$lessThan@N$0A@Utvec3@glm@@@glm@@YA?AU?$tvec3@_N$0A@@0@AEBU?$tvec3@N$0A@@0@0@Z$rtcName$0 DB 052H ; glm::lessThan<double,0,glm::tvec3>
	DB	065H
	DB	073H
	DB	075H
	DB	06cH
	DB	074H
	DB	00H
	ORG $+9
??$lessThan@N$0A@Utvec3@glm@@@glm@@YA?AU?$tvec3@_N$0A@@0@AEBU?$tvec3@N$0A@@0@0@Z$rtcVarDesc DD 024H ; glm::lessThan<double,0,glm::tvec3>
	DD	03H
	DQ	FLAT:??$lessThan@N$0A@Utvec3@glm@@@glm@@YA?AU?$tvec3@_N$0A@@0@AEBU?$tvec3@N$0A@@0@0@Z$rtcName$0
	ORG $+48
??$lessThan@N$0A@Utvec3@glm@@@glm@@YA?AU?$tvec3@_N$0A@@0@AEBU?$tvec3@N$0A@@0@0@Z$rtcFrameData DD 01H ; glm::lessThan<double,0,glm::tvec3>
	DD	00H
	DQ	FLAT:??$lessThan@N$0A@Utvec3@glm@@@glm@@YA?AU?$tvec3@_N$0A@@0@AEBU?$tvec3@N$0A@@0@0@Z$rtcVarDesc
CONST	ENDS
;	COMDAT xdata
xdata	SEGMENT
$unwind$??$abs@N$0A@Utvec3@glm@@@glm@@YA?AU?$tvec3@N$0A@@0@AEBU10@@Z DD 020f01H
	DD	0700b320fH
xdata	ENDS
;	COMDAT xdata
xdata	SEGMENT
$unwind$??$?GN$0A@@glm@@YA?AU?$tvec3@N$0A@@0@AEBU10@0@Z DD 021401H
	DD	070105214H
xdata	ENDS
;	COMDAT xdata
xdata	SEGMENT
$unwind$?call@?$compute_floor@N$0A@Utvec3@glm@@$0A@@detail@glm@@SA?AU?$tvec3@N$0A@@3@AEBU43@@Z DD 020f01H
	DD	0700b320fH
xdata	ENDS
;	COMDAT xdata
xdata	SEGMENT
$unwind$??$lessThan@M$0A@Utvec3@glm@@@glm@@YA?AU?$tvec3@_N$0A@@0@AEBU?$tvec3@M$0A@@0@0@Z DD 032b01H
	DD	07011a215H
	DD	06010H
xdata	ENDS
;	COMDAT CONST
CONST	SEGMENT
??$lessThan@M$0A@Utvec3@glm@@@glm@@YA?AU?$tvec3@_N$0A@@0@AEBU?$tvec3@M$0A@@0@0@Z$rtcName$0 DB 052H ; glm::lessThan<float,0,glm::tvec3>
	DB	065H
	DB	073H
	DB	075H
	DB	06cH
	DB	074H
	DB	00H
	ORG $+9
??$lessThan@M$0A@Utvec3@glm@@@glm@@YA?AU?$tvec3@_N$0A@@0@AEBU?$tvec3@M$0A@@0@0@Z$rtcVarDesc DD 024H ; glm::lessThan<float,0,glm::tvec3>
	DD	03H
	DQ	FLAT:??$lessThan@M$0A@Utvec3@glm@@@glm@@YA?AU?$tvec3@_N$0A@@0@AEBU?$tvec3@M$0A@@0@0@Z$rtcName$0
	ORG $+48
??$lessThan@M$0A@Utvec3@glm@@@glm@@YA?AU?$tvec3@_N$0A@@0@AEBU?$tvec3@M$0A@@0@0@Z$rtcFrameData DD 01H ; glm::lessThan<float,0,glm::tvec3>
	DD	00H
	DQ	FLAT:??$lessThan@M$0A@Utvec3@glm@@@glm@@YA?AU?$tvec3@_N$0A@@0@AEBU?$tvec3@M$0A@@0@0@Z$rtcVarDesc
CONST	ENDS
;	COMDAT xdata
xdata	SEGMENT
$unwind$??$abs@M$0A@Utvec3@glm@@@glm@@YA?AU?$tvec3@M$0A@@0@AEBU10@@Z DD 020f01H
	DD	0700b320fH
xdata	ENDS
;	COMDAT xdata
xdata	SEGMENT
$unwind$??$?GM$0A@@glm@@YA?AU?$tvec3@M$0A@@0@AEBU10@0@Z DD 021401H
	DD	070105214H
xdata	ENDS
;	COMDAT xdata
xdata	SEGMENT
$unwind$?call@?$compute_floor@M$0A@Utvec3@glm@@$0A@@detail@glm@@SA?AU?$tvec3@M$0A@@3@AEBU43@@Z DD 020f01H
	DD	0700b320fH
xdata	ENDS
;	COMDAT xdata
xdata	SEGMENT
$unwind$??$lessThan@N$0A@Utvec2@glm@@@glm@@YA?AU?$tvec2@_N$0A@@0@AEBU?$tvec2@N$0A@@0@0@Z DD 022a01H
	DD	070109214H
xdata	ENDS
;	COMDAT CONST
CONST	SEGMENT
??$lessThan@N$0A@Utvec2@glm@@@glm@@YA?AU?$tvec2@_N$0A@@0@AEBU?$tvec2@N$0A@@0@0@Z$rtcName$0 DB 052H ; glm::lessThan<double,0,glm::tvec2>
	DB	065H
	DB	073H
	DB	075H
	DB	06cH
	DB	074H
	DB	00H
	ORG $+9
??$lessThan@N$0A@Utvec2@glm@@@glm@@YA?AU?$tvec2@_N$0A@@0@AEBU?$tvec2@N$0A@@0@0@Z$rtcVarDesc DD 024H ; glm::lessThan<double,0,glm::tvec2>
	DD	02H
	DQ	FLAT:??$lessThan@N$0A@Utvec2@glm@@@glm@@YA?AU?$tvec2@_N$0A@@0@AEBU?$tvec2@N$0A@@0@0@Z$rtcName$0
	ORG $+48
??$lessThan@N$0A@Utvec2@glm@@@glm@@YA?AU?$tvec2@_N$0A@@0@AEBU?$tvec2@N$0A@@0@0@Z$rtcFrameData DD 01H ; glm::lessThan<double,0,glm::tvec2>
	DD	00H
	DQ	FLAT:??$lessThan@N$0A@Utvec2@glm@@@glm@@YA?AU?$tvec2@_N$0A@@0@AEBU?$tvec2@N$0A@@0@0@Z$rtcVarDesc
CONST	ENDS
;	COMDAT xdata
xdata	SEGMENT
$unwind$??$abs@N$0A@Utvec2@glm@@@glm@@YA?AU?$tvec2@N$0A@@0@AEBU10@@Z DD 020f01H
	DD	0700b320fH
xdata	ENDS
;	COMDAT xdata
xdata	SEGMENT
$unwind$??$?GN$0A@@glm@@YA?AU?$tvec2@N$0A@@0@AEBU10@0@Z DD 021401H
	DD	070103214H
xdata	ENDS
;	COMDAT xdata
xdata	SEGMENT
$unwind$?call@?$compute_floor@N$0A@Utvec2@glm@@$0A@@detail@glm@@SA?AU?$tvec2@N$0A@@3@AEBU43@@Z DD 020f01H
	DD	0700b320fH
xdata	ENDS
;	COMDAT xdata
xdata	SEGMENT
$unwind$??$lessThan@M$0A@Utvec2@glm@@@glm@@YA?AU?$tvec2@_N$0A@@0@AEBU?$tvec2@M$0A@@0@0@Z DD 022a01H
	DD	070109214H
xdata	ENDS
;	COMDAT CONST
CONST	SEGMENT
??$lessThan@M$0A@Utvec2@glm@@@glm@@YA?AU?$tvec2@_N$0A@@0@AEBU?$tvec2@M$0A@@0@0@Z$rtcName$0 DB 052H ; glm::lessThan<float,0,glm::tvec2>
	DB	065H
	DB	073H
	DB	075H
	DB	06cH
	DB	074H
	DB	00H
	ORG $+9
??$lessThan@M$0A@Utvec2@glm@@@glm@@YA?AU?$tvec2@_N$0A@@0@AEBU?$tvec2@M$0A@@0@0@Z$rtcVarDesc DD 024H ; glm::lessThan<float,0,glm::tvec2>
	DD	02H
	DQ	FLAT:??$lessThan@M$0A@Utvec2@glm@@@glm@@YA?AU?$tvec2@_N$0A@@0@AEBU?$tvec2@M$0A@@0@0@Z$rtcName$0
	ORG $+48
??$lessThan@M$0A@Utvec2@glm@@@glm@@YA?AU?$tvec2@_N$0A@@0@AEBU?$tvec2@M$0A@@0@0@Z$rtcFrameData DD 01H ; glm::lessThan<float,0,glm::tvec2>
	DD	00H
	DQ	FLAT:??$lessThan@M$0A@Utvec2@glm@@@glm@@YA?AU?$tvec2@_N$0A@@0@AEBU?$tvec2@M$0A@@0@0@Z$rtcVarDesc
CONST	ENDS
;	COMDAT xdata
xdata	SEGMENT
$unwind$??$abs@M$0A@Utvec2@glm@@@glm@@YA?AU?$tvec2@M$0A@@0@AEBU10@@Z DD 020f01H
	DD	0700b320fH
xdata	ENDS
;	COMDAT xdata
xdata	SEGMENT
$unwind$??$?GM$0A@@glm@@YA?AU?$tvec2@M$0A@@0@AEBU10@0@Z DD 021401H
	DD	070103214H
xdata	ENDS
;	COMDAT xdata
xdata	SEGMENT
$unwind$?call@?$compute_floor@M$0A@Utvec2@glm@@$0A@@detail@glm@@SA?AU?$tvec2@M$0A@@3@AEBU43@@Z DD 020f01H
	DD	0700b320fH
xdata	ENDS
;	COMDAT xdata
xdata	SEGMENT
$unwind$??$lessThan@N$0A@Utvec1@glm@@@glm@@YA?AU?$tvec1@_N$0A@@0@AEBU?$tvec1@N$0A@@0@0@Z DD 022a01H
	DD	070109214H
xdata	ENDS
;	COMDAT CONST
CONST	SEGMENT
??$lessThan@N$0A@Utvec1@glm@@@glm@@YA?AU?$tvec1@_N$0A@@0@AEBU?$tvec1@N$0A@@0@0@Z$rtcName$0 DB 052H ; glm::lessThan<double,0,glm::tvec1>
	DB	065H
	DB	073H
	DB	075H
	DB	06cH
	DB	074H
	DB	00H
	ORG $+9
??$lessThan@N$0A@Utvec1@glm@@@glm@@YA?AU?$tvec1@_N$0A@@0@AEBU?$tvec1@N$0A@@0@0@Z$rtcVarDesc DD 024H ; glm::lessThan<double,0,glm::tvec1>
	DD	01H
	DQ	FLAT:??$lessThan@N$0A@Utvec1@glm@@@glm@@YA?AU?$tvec1@_N$0A@@0@AEBU?$tvec1@N$0A@@0@0@Z$rtcName$0
	ORG $+48
??$lessThan@N$0A@Utvec1@glm@@@glm@@YA?AU?$tvec1@_N$0A@@0@AEBU?$tvec1@N$0A@@0@0@Z$rtcFrameData DD 01H ; glm::lessThan<double,0,glm::tvec1>
	DD	00H
	DQ	FLAT:??$lessThan@N$0A@Utvec1@glm@@@glm@@YA?AU?$tvec1@_N$0A@@0@AEBU?$tvec1@N$0A@@0@0@Z$rtcVarDesc
CONST	ENDS
;	COMDAT xdata
xdata	SEGMENT
$unwind$??$abs@N$0A@Utvec1@glm@@@glm@@YA?AU?$tvec1@N$0A@@0@AEBU10@@Z DD 020f01H
	DD	0700b320fH
xdata	ENDS
;	COMDAT xdata
xdata	SEGMENT
$unwind$??$?GN$0A@@glm@@YA?AU?$tvec1@N$0A@@0@AEBU10@0@Z DD 021401H
	DD	070103214H
xdata	ENDS
;	COMDAT xdata
xdata	SEGMENT
$unwind$?call@?$compute_floor@N$0A@Utvec1@glm@@$0A@@detail@glm@@SA?AU?$tvec1@N$0A@@3@AEBU43@@Z DD 020f01H
	DD	0700b320fH
xdata	ENDS
;	COMDAT xdata
xdata	SEGMENT
$unwind$??$lessThan@M$0A@Utvec1@glm@@@glm@@YA?AU?$tvec1@_N$0A@@0@AEBU?$tvec1@M$0A@@0@0@Z DD 022a01H
	DD	070109214H
xdata	ENDS
;	COMDAT CONST
CONST	SEGMENT
??$lessThan@M$0A@Utvec1@glm@@@glm@@YA?AU?$tvec1@_N$0A@@0@AEBU?$tvec1@M$0A@@0@0@Z$rtcName$0 DB 052H ; glm::lessThan<float,0,glm::tvec1>
	DB	065H
	DB	073H
	DB	075H
	DB	06cH
	DB	074H
	DB	00H
	ORG $+9
??$lessThan@M$0A@Utvec1@glm@@@glm@@YA?AU?$tvec1@_N$0A@@0@AEBU?$tvec1@M$0A@@0@0@Z$rtcVarDesc DD 024H ; glm::lessThan<float,0,glm::tvec1>
	DD	01H
	DQ	FLAT:??$lessThan@M$0A@Utvec1@glm@@@glm@@YA?AU?$tvec1@_N$0A@@0@AEBU?$tvec1@M$0A@@0@0@Z$rtcName$0
	ORG $+48
??$lessThan@M$0A@Utvec1@glm@@@glm@@YA?AU?$tvec1@_N$0A@@0@AEBU?$tvec1@M$0A@@0@0@Z$rtcFrameData DD 01H ; glm::lessThan<float,0,glm::tvec1>
	DD	00H
	DQ	FLAT:??$lessThan@M$0A@Utvec1@glm@@@glm@@YA?AU?$tvec1@_N$0A@@0@AEBU?$tvec1@M$0A@@0@0@Z$rtcVarDesc
CONST	ENDS
;	COMDAT xdata
xdata	SEGMENT
$unwind$??$abs@M$0A@Utvec1@glm@@@glm@@YA?AU?$tvec1@M$0A@@0@AEBU10@@Z DD 020f01H
	DD	0700b320fH
xdata	ENDS
;	COMDAT xdata
xdata	SEGMENT
$unwind$??$?GM$0A@@glm@@YA?AU?$tvec1@M$0A@@0@AEBU10@0@Z DD 021401H
	DD	070103214H
xdata	ENDS
;	COMDAT xdata
xdata	SEGMENT
$unwind$?call@?$compute_floor@M$0A@Utvec1@glm@@$0A@@detail@glm@@SA?AU?$tvec1@M$0A@@3@AEBU43@@Z DD 020f01H
	DD	0700b320fH
xdata	ENDS
;	COMDAT xdata
xdata	SEGMENT
$unwind$?call@?$compute_abs@N$00@detail@glm@@SANN@Z DD 020b01H
	DD	07007320bH
xdata	ENDS
;	COMDAT xdata
xdata	SEGMENT
$unwind$?call@?$compute_abs@M$00@detail@glm@@SAMM@Z DD 020b01H
	DD	07007320bH
xdata	ENDS
;	COMDAT xdata
xdata	SEGMENT
$ip2state$??$_Deallocate@$0BA@$0A@@std@@YAXPEAX_K@Z DB 02H
	DB	00H
	DB	00H
xdata	ENDS
;	COMDAT xdata
xdata	SEGMENT
$cppxdata$??$_Deallocate@$0BA@$0A@@std@@YAXPEAX_K@Z DB 060H
	DD	imagerel $ip2state$??$_Deallocate@$0BA@$0A@@std@@YAXPEAX_K@Z
xdata	ENDS
;	COMDAT xdata
xdata	SEGMENT
$unwind$??$_Deallocate@$0BA@$0A@@std@@YAXPEAX_K@Z DD 020f19H
	DD	0700b320fH
	DD	imagerel __CxxFrameHandler4
	DD	imagerel $cppxdata$??$_Deallocate@$0BA@$0A@@std@@YAXPEAX_K@Z
xdata	ENDS
;	COMDAT xdata
xdata	SEGMENT
$unwind$??$_Destroy_range@V?$allocator@H@std@@@std@@YAXPEAHQEAHAEAV?$allocator@H@0@@Z DD 011001H
	DD	07010H
xdata	ENDS
;	COMDAT xdata
xdata	SEGMENT
$unwind$??$_Alloc_proxy@V?$allocator@U_Container_proxy@std@@@std@@@_Container_base12@std@@QEAAX$$QEAV?$allocator@U_Container_proxy@std@@@1@@Z DD 020f01H
	DD	0700b520fH
xdata	ENDS
;	COMDAT xdata
xdata	SEGMENT
$unwind$??$?0$$V@?$_Compressed_pair@V?$allocator@H@std@@V?$_Vector_val@U?$_Simple_types@H@std@@@2@$00@std@@QEAA@U_Zero_then_variadic_args_t@1@@Z DD 020e01H
	DD	0700a320eH
xdata	ENDS
;	COMDAT xdata
xdata	SEGMENT
$unwind$??$_Delete_plain_internal@V?$allocator@U_Container_proxy@std@@@std@@@std@@YAXAEAV?$allocator@U_Container_proxy@std@@@0@QEAU_Container_proxy@0@@Z DD 020f01H
	DD	0700b320fH
xdata	ENDS
;	COMDAT xdata
xdata	SEGMENT
$unwind$??$exchange@PEAU_Container_proxy@std@@$$T@std@@YAPEAU_Container_proxy@0@AEAPEAU10@$$QEA$$T@Z DD 020f01H
	DD	0700b120fH
xdata	ENDS
;	COMDAT xdata
xdata	SEGMENT
$unwind$??$?0H@?$allocator@U_Container_proxy@std@@@std@@QEAA@AEBV?$allocator@H@1@@Z DD 010b01H
	DD	0700bH
xdata	ENDS
;	COMDAT xdata
xdata	SEGMENT
$unwind$?allocate@?$allocator@U_Container_proxy@std@@@std@@QEAAPEAU_Container_proxy@2@_K@Z DD 020f01H
	DD	0700b320fH
xdata	ENDS
;	COMDAT xdata
xdata	SEGMENT
$unwind$??$_Resize@U_Value_init_tag@std@@@?$vector@HV?$allocator@H@std@@@std@@AEAAX_KAEBU_Value_init_tag@1@@Z DD 021401H
	DD	07010b214H
xdata	ENDS
;	COMDAT xdata
xdata	SEGMENT
$unwind$??$?SH$0A@@glm@@YA?AU?$tvec4@H$0A@@0@AEBU10@@Z DD 020f01H
	DD	0700b320fH
xdata	ENDS
;	COMDAT xdata
xdata	SEGMENT
$unwind$??$ldexp@M$0A@@glm@@YA?AU?$tvec4@M$0A@@0@AEBU10@AEBU?$tvec4@H$0A@@0@@Z DD 021401H
	DD	070107214H
xdata	ENDS
;	COMDAT xdata
xdata	SEGMENT
$unwind$??$ldexp@M$0A@@glm@@YA?AU?$tvec3@M$0A@@0@AEBU10@AEBU?$tvec3@H$0A@@0@@Z DD 021401H
	DD	070105214H
xdata	ENDS
;	COMDAT xdata
xdata	SEGMENT
$unwind$??$ldexp@M$0A@@glm@@YA?AU?$tvec2@M$0A@@0@AEBU10@AEBU?$tvec2@H$0A@@0@@Z DD 021401H
	DD	070105214H
xdata	ENDS
;	COMDAT xdata
xdata	SEGMENT
$unwind$??$ldexp@M$0A@@glm@@YA?AU?$tvec1@M$0A@@0@AEBU10@AEBU?$tvec1@H$0A@@0@@Z DD 021401H
	DD	070103214H
xdata	ENDS
;	COMDAT xdata
xdata	SEGMENT
$unwind$??$?0NNNN@?$tvec4@M$0A@@glm@@QEAA@NNNN@Z DD 011801H
	DD	07018H
xdata	ENDS
;	COMDAT xdata
xdata	SEGMENT
$unwind$??$frexp@M$0A@@glm@@YA?AU?$tvec4@M$0A@@0@AEBU10@AEAU?$tvec4@H$0A@@0@@Z DD 021401H
	DD	070107214H
xdata	ENDS
;	COMDAT xdata
xdata	SEGMENT
$unwind$??$?0HNHN@?$tvec4@M$0A@@glm@@QEAA@HNHN@Z DD 011501H
	DD	07015H
xdata	ENDS
;	COMDAT xdata
xdata	SEGMENT
$unwind$??$equal@H$0A@Utvec3@glm@@@glm@@YA?AU?$tvec3@_N$0A@@0@AEBU?$tvec3@H$0A@@0@0@Z DD 032b01H
	DD	07011a215H
	DD	06010H
xdata	ENDS
;	COMDAT CONST
CONST	SEGMENT
??$equal@H$0A@Utvec3@glm@@@glm@@YA?AU?$tvec3@_N$0A@@0@AEBU?$tvec3@H$0A@@0@0@Z$rtcName$0 DB 052H ; glm::equal<int,0,glm::tvec3>
	DB	065H
	DB	073H
	DB	075H
	DB	06cH
	DB	074H
	DB	00H
	ORG $+9
??$equal@H$0A@Utvec3@glm@@@glm@@YA?AU?$tvec3@_N$0A@@0@AEBU?$tvec3@H$0A@@0@0@Z$rtcVarDesc DD 024H ; glm::equal<int,0,glm::tvec3>
	DD	03H
	DQ	FLAT:??$equal@H$0A@Utvec3@glm@@@glm@@YA?AU?$tvec3@_N$0A@@0@AEBU?$tvec3@H$0A@@0@0@Z$rtcName$0
	ORG $+48
??$equal@H$0A@Utvec3@glm@@@glm@@YA?AU?$tvec3@_N$0A@@0@AEBU?$tvec3@H$0A@@0@0@Z$rtcFrameData DD 01H ; glm::equal<int,0,glm::tvec3>
	DD	00H
	DQ	FLAT:??$equal@H$0A@Utvec3@glm@@@glm@@YA?AU?$tvec3@_N$0A@@0@AEBU?$tvec3@H$0A@@0@0@Z$rtcVarDesc
CONST	ENDS
;	COMDAT xdata
xdata	SEGMENT
$unwind$??$?0NNN@?$tvec3@M$0A@@glm@@QEAA@NNN@Z DD 011801H
	DD	07018H
xdata	ENDS
;	COMDAT xdata
xdata	SEGMENT
$unwind$??$frexp@M$0A@@glm@@YA?AU?$tvec3@M$0A@@0@AEBU10@AEAU?$tvec3@H$0A@@0@@Z DD 021401H
	DD	070105214H
xdata	ENDS
;	COMDAT xdata
xdata	SEGMENT
$unwind$??$?0HNH@?$tvec3@M$0A@@glm@@QEAA@HNH@Z DD 011501H
	DD	07015H
xdata	ENDS
;	COMDAT xdata
xdata	SEGMENT
$unwind$??$equal@H$0A@Utvec2@glm@@@glm@@YA?AU?$tvec2@_N$0A@@0@AEBU?$tvec2@H$0A@@0@0@Z DD 022a01H
	DD	070109214H
xdata	ENDS
;	COMDAT CONST
CONST	SEGMENT
??$equal@H$0A@Utvec2@glm@@@glm@@YA?AU?$tvec2@_N$0A@@0@AEBU?$tvec2@H$0A@@0@0@Z$rtcName$0 DB 052H ; glm::equal<int,0,glm::tvec2>
	DB	065H
	DB	073H
	DB	075H
	DB	06cH
	DB	074H
	DB	00H
	ORG $+9
??$equal@H$0A@Utvec2@glm@@@glm@@YA?AU?$tvec2@_N$0A@@0@AEBU?$tvec2@H$0A@@0@0@Z$rtcVarDesc DD 024H ; glm::equal<int,0,glm::tvec2>
	DD	02H
	DQ	FLAT:??$equal@H$0A@Utvec2@glm@@@glm@@YA?AU?$tvec2@_N$0A@@0@AEBU?$tvec2@H$0A@@0@0@Z$rtcName$0
	ORG $+48
??$equal@H$0A@Utvec2@glm@@@glm@@YA?AU?$tvec2@_N$0A@@0@AEBU?$tvec2@H$0A@@0@0@Z$rtcFrameData DD 01H ; glm::equal<int,0,glm::tvec2>
	DD	00H
	DQ	FLAT:??$equal@H$0A@Utvec2@glm@@@glm@@YA?AU?$tvec2@_N$0A@@0@AEBU?$tvec2@H$0A@@0@0@Z$rtcVarDesc
CONST	ENDS
;	COMDAT xdata
xdata	SEGMENT
$unwind$??$?0NN@?$tvec2@M$0A@@glm@@QEAA@NN@Z DD 011201H
	DD	07012H
xdata	ENDS
;	COMDAT xdata
xdata	SEGMENT
$unwind$??$frexp@M$0A@@glm@@YA?AU?$tvec2@M$0A@@0@AEBU10@AEAU?$tvec2@H$0A@@0@@Z DD 021401H
	DD	070105214H
xdata	ENDS
;	COMDAT xdata
xdata	SEGMENT
$unwind$??$?0HN@?$tvec2@M$0A@@glm@@QEAA@HN@Z DD 011001H
	DD	07010H
xdata	ENDS
;	COMDAT xdata
xdata	SEGMENT
$unwind$??$equal@H$0A@Utvec1@glm@@@glm@@YA?AU?$tvec1@_N$0A@@0@AEBU?$tvec1@H$0A@@0@0@Z DD 022a01H
	DD	070109214H
xdata	ENDS
;	COMDAT CONST
CONST	SEGMENT
??$equal@H$0A@Utvec1@glm@@@glm@@YA?AU?$tvec1@_N$0A@@0@AEBU?$tvec1@H$0A@@0@0@Z$rtcName$0 DB 052H ; glm::equal<int,0,glm::tvec1>
	DB	065H
	DB	073H
	DB	075H
	DB	06cH
	DB	074H
	DB	00H
	ORG $+9
??$equal@H$0A@Utvec1@glm@@@glm@@YA?AU?$tvec1@_N$0A@@0@AEBU?$tvec1@H$0A@@0@0@Z$rtcVarDesc DD 024H ; glm::equal<int,0,glm::tvec1>
	DD	01H
	DQ	FLAT:??$equal@H$0A@Utvec1@glm@@@glm@@YA?AU?$tvec1@_N$0A@@0@AEBU?$tvec1@H$0A@@0@0@Z$rtcName$0
	ORG $+48
??$equal@H$0A@Utvec1@glm@@@glm@@YA?AU?$tvec1@_N$0A@@0@AEBU?$tvec1@H$0A@@0@0@Z$rtcFrameData DD 01H ; glm::equal<int,0,glm::tvec1>
	DD	00H
	DQ	FLAT:??$equal@H$0A@Utvec1@glm@@@glm@@YA?AU?$tvec1@_N$0A@@0@AEBU?$tvec1@H$0A@@0@0@Z$rtcVarDesc
CONST	ENDS
;	COMDAT xdata
xdata	SEGMENT
$unwind$??$frexp@M$0A@@glm@@YA?AU?$tvec1@M$0A@@0@AEBU10@AEAU?$tvec1@H$0A@@0@@Z DD 021401H
	DD	070103214H
xdata	ENDS
;	COMDAT xdata
xdata	SEGMENT
$unwind$??0?$tvec1@H$0A@@glm@@QEAA@H@Z DD 010a01H
	DD	0700aH
xdata	ENDS
;	COMDAT xdata
xdata	SEGMENT
$unwind$??0?$tvec1@H$0A@@glm@@QEAA@XZ DD 010601H
	DD	07006H
xdata	ENDS
;	COMDAT xdata
xdata	SEGMENT
$unwind$??A?$tvec1@H$0A@@glm@@QEBAAEBHH@Z DD 020e01H
	DD	0700a320eH
xdata	ENDS
;	COMDAT xdata
xdata	SEGMENT
$unwind$?length@?$tvec1@H$0A@@glm@@SAHXZ DD 010201H
	DD	07002H
xdata	ENDS
;	COMDAT xdata
xdata	SEGMENT
$unwind$??$sign_sub@H@sign@@YAHH@Z DD 010501H
	DD	07005H
xdata	ENDS
;	COMDAT xdata
xdata	SEGMENT
$unwind$??$linearRand@M@glm@@YAMMM@Z DD 021101H
	DD	0700d9211H
xdata	ENDS
;	COMDAT xdata
xdata	SEGMENT
$unwind$?_Get_first@?$_Compressed_pair@V?$allocator@H@std@@V?$_Vector_val@U?$_Simple_types@H@std@@@2@$00@std@@QEBAAEBV?$allocator@H@2@XZ DD 010601H
	DD	07006H
xdata	ENDS
;	COMDAT xdata
xdata	SEGMENT
$unwind$?_Get_first@?$_Compressed_pair@V?$allocator@H@std@@V?$_Vector_val@U?$_Simple_types@H@std@@@2@$00@std@@QEAAAEAV?$allocator@H@2@XZ DD 010601H
	DD	07006H
xdata	ENDS
;	COMDAT xdata
xdata	SEGMENT
$unwind$??0?$_Vector_val@U?$_Simple_types@H@std@@@std@@QEAA@XZ DD 020a01H
	DD	07006320aH
xdata	ENDS
;	COMDAT xdata
xdata	SEGMENT
$unwind$?_Getal@?$vector@HV?$allocator@H@std@@@std@@AEBAAEBV?$allocator@H@2@XZ DD 020a01H
	DD	07006320aH
xdata	ENDS
;	COMDAT xdata
xdata	SEGMENT
$unwind$?_Getal@?$vector@HV?$allocator@H@std@@@std@@AEAAAEAV?$allocator@H@2@XZ DD 020a01H
	DD	07006320aH
xdata	ENDS
;	COMDAT xdata
xdata	SEGMENT
$unwind$?_Orphan_range@?$vector@HV?$allocator@H@std@@@std@@AEBAXPEAH0@Z DD 021401H
	DD	070103214H
xdata	ENDS
;	COMDAT voltbl
voltbl	SEGMENT
_volmd	DB	00H
	DB	05H
voltbl	ENDS
;	COMDAT xdata
xdata	SEGMENT
$unwind$?dtor$0@?0??_Orphan_range_locked@?$vector@HV?$allocator@H@std@@@std@@AEBAXPEAH0@Z@4HA DD 031001H
	DD	0700c4210H
	DD	0500bH
xdata	ENDS
;	COMDAT xdata
xdata	SEGMENT
$ip2state$?_Orphan_range_locked@?$vector@HV?$allocator@H@std@@@std@@AEBAXPEAH0@Z DB 06H
	DB	00H
	DB	00H
	DB	'v'
	DB	02H
	DB	'*'
	DB	00H
xdata	ENDS
;	COMDAT xdata
xdata	SEGMENT
$stateUnwindMap$?_Orphan_range_locked@?$vector@HV?$allocator@H@std@@@std@@AEBAXPEAH0@Z DB 02H
	DB	0eH
	DD	imagerel ?dtor$0@?0??_Orphan_range_locked@?$vector@HV?$allocator@H@std@@@std@@AEBAXPEAH0@Z@4HA
xdata	ENDS
;	COMDAT xdata
xdata	SEGMENT
$cppxdata$?_Orphan_range_locked@?$vector@HV?$allocator@H@std@@@std@@AEBAXPEAH0@Z DB 028H
	DD	imagerel $stateUnwindMap$?_Orphan_range_locked@?$vector@HV?$allocator@H@std@@@std@@AEBAXPEAH0@Z
	DD	imagerel $ip2state$?_Orphan_range_locked@?$vector@HV?$allocator@H@std@@@std@@AEBAXPEAH0@Z
xdata	ENDS
;	COMDAT xdata
xdata	SEGMENT
$unwind$?_Orphan_range_locked@?$vector@HV?$allocator@H@std@@@std@@AEBAXPEAH0@Z DD 022a11H
	DD	070107214H
	DD	imagerel __CxxFrameHandler4
	DD	imagerel $cppxdata$?_Orphan_range_locked@?$vector@HV?$allocator@H@std@@@std@@AEBAXPEAH0@Z
xdata	ENDS
;	COMDAT CONST
CONST	SEGMENT
?_Orphan_range_locked@?$vector@HV?$allocator@H@std@@@std@@AEBAXPEAH0@Z$rtcName$0 DB 05fH ; std::vector<int,std::allocator<int> >::_Orphan_range_locked
	DB	04cH
	DB	06fH
	DB	063H
	DB	06bH
	DB	00H
	ORG $+10
?_Orphan_range_locked@?$vector@HV?$allocator@H@std@@@std@@AEBAXPEAH0@Z$rtcVarDesc DD 024H ; std::vector<int,std::allocator<int> >::_Orphan_range_locked
	DD	04H
	DQ	FLAT:?_Orphan_range_locked@?$vector@HV?$allocator@H@std@@@std@@AEBAXPEAH0@Z$rtcName$0
	ORG $+48
?_Orphan_range_locked@?$vector@HV?$allocator@H@std@@@std@@AEBAXPEAH0@Z$rtcFrameData DD 01H ; std::vector<int,std::allocator<int> >::_Orphan_range_locked
	DD	00H
	DQ	FLAT:?_Orphan_range_locked@?$vector@HV?$allocator@H@std@@@std@@AEBAXPEAH0@Z$rtcVarDesc
CONST	ENDS
;	COMDAT xdata
xdata	SEGMENT
$unwind$?_Orphan_range_unlocked@?$vector@HV?$allocator@H@std@@@std@@AEBAXPEAH0@Z DD 021401H
	DD	070103214H
xdata	ENDS
;	COMDAT xdata
xdata	SEGMENT
$unwind$?_Xlength@?$vector@HV?$allocator@H@std@@@std@@CAXXZ DD 020601H
	DD	070023206H
xdata	ENDS
;	COMDAT xdata
xdata	SEGMENT
$ip2state$?_Tidy@?$vector@HV?$allocator@H@std@@@std@@AEAAXXZ DB 02H
	DB	00H
	DB	00H
xdata	ENDS
;	COMDAT xdata
xdata	SEGMENT
$cppxdata$?_Tidy@?$vector@HV?$allocator@H@std@@@std@@AEAAXXZ DB 060H
	DD	imagerel $ip2state$?_Tidy@?$vector@HV?$allocator@H@std@@@std@@AEAAXXZ
xdata	ENDS
;	COMDAT xdata
xdata	SEGMENT
$unwind$?_Tidy@?$vector@HV?$allocator@H@std@@@std@@AEAAXXZ DD 020a19H
	DD	07006920aH
	DD	imagerel __CxxFrameHandler4
	DD	imagerel $cppxdata$?_Tidy@?$vector@HV?$allocator@H@std@@@std@@AEAAXXZ
xdata	ENDS
;	COMDAT xdata
xdata	SEGMENT
$unwind$?_Change_array@?$vector@HV?$allocator@H@std@@@std@@AEAAXQEAH_K1@Z DD 021901H
	DD	070159219H
xdata	ENDS
;	COMDAT xdata
xdata	SEGMENT
$unwind$?_Calculate_growth@?$vector@HV?$allocator@H@std@@@std@@AEBA_K_K@Z DD 020f01H
	DD	0700b720fH
xdata	ENDS
;	COMDAT xdata
xdata	SEGMENT
$unwind$??A?$vector@HV?$allocator@H@std@@@std@@QEAAAEAH_K@Z DD 020f01H
	DD	0700b720fH
xdata	ENDS
;	COMDAT xdata
xdata	SEGMENT
$unwind$?capacity@?$vector@HV?$allocator@H@std@@@std@@QEBA_KXZ DD 020a01H
	DD	07006120aH
xdata	ENDS
;	COMDAT xdata
xdata	SEGMENT
$unwind$?max_size@?$vector@HV?$allocator@H@std@@@std@@QEBA_KXZ DD 020a01H
	DD	07006520aH
xdata	ENDS
;	COMDAT xdata
xdata	SEGMENT
$unwind$?resize@?$vector@HV?$allocator@H@std@@@std@@QEAAX_K@Z DD 020f01H
	DD	0700b520fH
xdata	ENDS
;	COMDAT xdata
xdata	SEGMENT
$unwind$??1?$vector@HV?$allocator@H@std@@@std@@QEAA@XZ DD 022001H
	DD	07006920aH
xdata	ENDS
;	COMDAT CONST
CONST	SEGMENT
??1?$vector@HV?$allocator@H@std@@@std@@QEAA@XZ$rtcName$0 DB 024H ; std::vector<int,std::allocator<int> >::~vector<int,std::allocator<int> >
	DB	053H
	DB	031H
	DB	00H
	ORG $+12
??1?$vector@HV?$allocator@H@std@@@std@@QEAA@XZ$rtcVarDesc DD 034H ; std::vector<int,std::allocator<int> >::~vector<int,std::allocator<int> >
	DD	01H
	DQ	FLAT:??1?$vector@HV?$allocator@H@std@@@std@@QEAA@XZ$rtcName$0
	ORG $+48
??1?$vector@HV?$allocator@H@std@@@std@@QEAA@XZ$rtcFrameData DD 01H ; std::vector<int,std::allocator<int> >::~vector<int,std::allocator<int> >
	DD	00H
	DQ	FLAT:??1?$vector@HV?$allocator@H@std@@@std@@QEAA@XZ$rtcVarDesc
CONST	ENDS
;	COMDAT xdata
xdata	SEGMENT
$ip2state$??0?$vector@HV?$allocator@H@std@@@std@@QEAA@XZ DB 02H
	DB	00H
	DB	00H
xdata	ENDS
;	COMDAT xdata
xdata	SEGMENT
$cppxdata$??0?$vector@HV?$allocator@H@std@@@std@@QEAA@XZ DB 060H
	DD	imagerel $ip2state$??0?$vector@HV?$allocator@H@std@@@std@@QEAA@XZ
xdata	ENDS
;	COMDAT xdata
xdata	SEGMENT
$unwind$??0?$vector@HV?$allocator@H@std@@@std@@QEAA@XZ DD 020a19H
	DD	07006520aH
	DD	imagerel __CxxFrameHandler4
	DD	imagerel $cppxdata$??0?$vector@HV?$allocator@H@std@@@std@@QEAA@XZ
xdata	ENDS
;	COMDAT xdata
xdata	SEGMENT
$unwind$?max_size@?$_Default_allocator_traits@V?$allocator@H@std@@@std@@SA_KAEBV?$allocator@H@2@@Z DD 010601H
	DD	07006H
xdata	ENDS
;	COMDAT xdata
xdata	SEGMENT
$unwind$?allocate@?$allocator@H@std@@QEAAPEAH_K@Z DD 020f01H
	DD	0700b320fH
xdata	ENDS
;	COMDAT xdata
xdata	SEGMENT
$unwind$?deallocate@?$allocator@H@std@@QEAAXQEAH_K@Z DD 021401H
	DD	070105214H
xdata	ENDS
;	COMDAT xdata
xdata	SEGMENT
$unwind$??0?$allocator@H@std@@QEAA@XZ DD 010601H
	DD	07006H
xdata	ENDS
voltbl	SEGMENT
_volmd	DD	0ffffffffH
	DDSymXIndex: 	FLAT:?dtor$1@?0??perf_linear@sign@@YAH_K@Z@4HA
	DD	00H
	DD	05H
_volmd	DD	0ffffffffH
	DDSymXIndex: 	FLAT:?dtor$0@?0??perf_linear@sign@@YAH_K@Z@4HA
	DD	00H
	DD	05H
_volmd	DD	0ffffffffH
	DDSymXIndex: 	FLAT:?dtor$1@?0??perf_rand@sign@@YAH_K@Z@4HA
	DD	00H
	DD	05H
_volmd	DD	0ffffffffH
	DDSymXIndex: 	FLAT:?dtor$0@?0??perf_rand@sign@@YAH_K@Z@4HA
	DD	00H
	DD	05H
voltbl	ENDS
;	COMDAT xdata
xdata	SEGMENT
$unwind$??$sign@M$0A@Utvec4@glm@@@glm@@YA?AU?$tvec4@M$0A@@0@AEBU10@@Z DD 020f01H
	DD	0700b320fH
xdata	ENDS
;	COMDAT xdata
xdata	SEGMENT
$unwind$??$equal@H$0A@Utvec4@glm@@@glm@@YA?AU?$tvec4@_N$0A@@0@AEBU?$tvec4@H$0A@@0@0@Z DD 022a01H
	DD	070109214H
xdata	ENDS
;	COMDAT CONST
CONST	SEGMENT
??$equal@H$0A@Utvec4@glm@@@glm@@YA?AU?$tvec4@_N$0A@@0@AEBU?$tvec4@H$0A@@0@0@Z$rtcName$0 DB 052H ; glm::equal<int,0,glm::tvec4>
	DB	065H
	DB	073H
	DB	075H
	DB	06cH
	DB	074H
	DB	00H
	ORG $+9
??$equal@H$0A@Utvec4@glm@@@glm@@YA?AU?$tvec4@_N$0A@@0@AEBU?$tvec4@H$0A@@0@0@Z$rtcVarDesc DD 024H ; glm::equal<int,0,glm::tvec4>
	DD	04H
	DQ	FLAT:??$equal@H$0A@Utvec4@glm@@@glm@@YA?AU?$tvec4@_N$0A@@0@AEBU?$tvec4@H$0A@@0@0@Z$rtcName$0
	ORG $+48
??$equal@H$0A@Utvec4@glm@@@glm@@YA?AU?$tvec4@_N$0A@@0@AEBU?$tvec4@H$0A@@0@0@Z$rtcFrameData DD 01H ; glm::equal<int,0,glm::tvec4>
	DD	00H
	DQ	FLAT:??$equal@H$0A@Utvec4@glm@@@glm@@YA?AU?$tvec4@_N$0A@@0@AEBU?$tvec4@H$0A@@0@0@Z$rtcVarDesc
CONST	ENDS
;	COMDAT xdata
xdata	SEGMENT
$unwind$??$sign@H$0A@Utvec4@glm@@@glm@@YA?AU?$tvec4@H$0A@@0@AEBU10@@Z DD 020f01H
	DD	0700b320fH
xdata	ENDS
;	COMDAT xdata
xdata	SEGMENT
$unwind$??$sign_alu2@H@sign@@YAHH@Z DD 010501H
	DD	07005H
xdata	ENDS
;	COMDAT xdata
xdata	SEGMENT
$unwind$??$sign_alu1@H@sign@@YAHH@Z DD 010501H
	DD	07005H
xdata	ENDS
;	COMDAT xdata
xdata	SEGMENT
$unwind$??$sign_if@H@sign@@YAHH@Z DD 020901H
	DD	070051209H
xdata	ENDS
;	COMDAT xdata
xdata	SEGMENT
$unwind$??$sign_cmp@H@sign@@YAHH@Z DD 020901H
	DD	070051209H
xdata	ENDS
;	COMDAT xdata
xdata	SEGMENT
$unwind$??$sign@H@glm@@YAHH@Z DD 020901H
	DD	070055209H
xdata	ENDS
voltbl	SEGMENT
_volmd	DD	0ffffffffH
	DDSymXIndex: 	FLAT:?test_f32vec4@sign@@YAHXZ
	DD	024H
	DD	0217H
_volmd	DD	0ffffffffH
	DDSymXIndex: 	FLAT:?test_i32vec4@sign@@YAHXZ
	DD	024H
	DD	01f1H
_volmd	DD	0ffffffffH
	DDSymXIndex: 	FLAT:?test_int32@sign@@YAHXZ
	DD	024H
	DD	039fH
voltbl	ENDS
;	COMDAT xdata
xdata	SEGMENT
$unwind$??$isinf@M$0A@Utvec4@glm@@@glm@@YA?AU?$tvec4@_N$0A@@0@AEBU?$tvec4@M$0A@@0@@Z DD 020f01H
	DD	0700b320fH
xdata	ENDS
;	COMDAT xdata
xdata	SEGMENT
$unwind$??$isinf@M$0A@Utvec3@glm@@@glm@@YA?AU?$tvec3@_N$0A@@0@AEBU?$tvec3@M$0A@@0@@Z DD 020f01H
	DD	0700b320fH
xdata	ENDS
;	COMDAT xdata
xdata	SEGMENT
$unwind$??$isinf@M$0A@Utvec2@glm@@@glm@@YA?AU?$tvec2@_N$0A@@0@AEBU?$tvec2@M$0A@@0@@Z DD 020f01H
	DD	0700b320fH
xdata	ENDS
;	COMDAT xdata
xdata	SEGMENT
$unwind$??$isinf@M@@YA_NM@Z DD 020b01H
	DD	07007520bH
xdata	ENDS
;	COMDAT xdata
xdata	SEGMENT
$unwind$??$isinf@N$0A@Utvec4@glm@@@glm@@YA?AU?$tvec4@_N$0A@@0@AEBU?$tvec4@N$0A@@0@@Z DD 020f01H
	DD	0700b320fH
xdata	ENDS
;	COMDAT xdata
xdata	SEGMENT
$unwind$??$isinf@N$0A@Utvec3@glm@@@glm@@YA?AU?$tvec3@_N$0A@@0@AEBU?$tvec3@N$0A@@0@@Z DD 020f01H
	DD	0700b320fH
xdata	ENDS
;	COMDAT xdata
xdata	SEGMENT
$unwind$??$isinf@N$0A@Utvec2@glm@@@glm@@YA?AU?$tvec2@_N$0A@@0@AEBU?$tvec2@N$0A@@0@@Z DD 020f01H
	DD	0700b320fH
xdata	ENDS
;	COMDAT xdata
xdata	SEGMENT
$unwind$??$isinf@N@@YA_NN@Z DD 020b01H
	DD	07007520bH
xdata	ENDS
;	COMDAT xdata
xdata	SEGMENT
$unwind$??$isnan@M$0A@Utvec4@glm@@@glm@@YA?AU?$tvec4@_N$0A@@0@AEBU?$tvec4@M$0A@@0@@Z DD 020f01H
	DD	0700b320fH
xdata	ENDS
;	COMDAT xdata
xdata	SEGMENT
$unwind$??$isnan@M$0A@Utvec3@glm@@@glm@@YA?AU?$tvec3@_N$0A@@0@AEBU?$tvec3@M$0A@@0@@Z DD 020f01H
	DD	0700b320fH
xdata	ENDS
;	COMDAT xdata
xdata	SEGMENT
$unwind$??$isnan@M$0A@Utvec2@glm@@@glm@@YA?AU?$tvec2@_N$0A@@0@AEBU?$tvec2@M$0A@@0@@Z DD 020f01H
	DD	0700b320fH
xdata	ENDS
;	COMDAT xdata
xdata	SEGMENT
$unwind$??$isnan@M@@YA_NM@Z DD 020b01H
	DD	07007520bH
xdata	ENDS
;	COMDAT xdata
xdata	SEGMENT
$unwind$??$any@$0A@Utvec4@glm@@@glm@@YA_NAEBU?$tvec4@_N$0A@@0@@Z DD 020a01H
	DD	07006520aH
xdata	ENDS
;	COMDAT xdata
