; Listing generated by Microsoft (R) Optimizing Compiler Version 19.32.31329.0 

include listing.inc

INCLUDELIB MSVCRTD

PUBLIC	?test_not@@YAHXZ				; test_not
PUBLIC	?length@?$tvec1@_N$0A@@glm@@SAHXZ		; glm::tvec1<bool,0>::length
PUBLIC	??A?$tvec1@_N$0A@@glm@@QEAAAEA_NH@Z		; glm::tvec1<bool,0>::operator[]
PUBLIC	??A?$tvec1@_N$0A@@glm@@QEBAAEB_NH@Z		; glm::tvec1<bool,0>::operator[]
PUBLIC	??0?$tvec1@_N$0A@@glm@@QEAA@W4ctor@1@@Z		; glm::tvec1<bool,0>::tvec1<bool,0>
PUBLIC	??0?$tvec1@_N$0A@@glm@@QEAA@_N@Z		; glm::tvec1<bool,0>::tvec1<bool,0>
PUBLIC	??$not_@$0A@Utvec1@glm@@@glm@@YA?AU?$tvec1@_N$0A@@0@AEBU10@@Z ; glm::not_<0,glm::tvec1>
PUBLIC	??$all@$0A@Utvec1@glm@@@glm@@YA_NAEBU?$tvec1@_N$0A@@0@@Z ; glm::all<0,glm::tvec1>
PUBLIC	?length@?$tvec2@_N$0A@@glm@@SAHXZ		; glm::tvec2<bool,0>::length
PUBLIC	??A?$tvec2@_N$0A@@glm@@QEAAAEA_NH@Z		; glm::tvec2<bool,0>::operator[]
PUBLIC	??A?$tvec2@_N$0A@@glm@@QEBAAEB_NH@Z		; glm::tvec2<bool,0>::operator[]
PUBLIC	??0?$tvec2@_N$0A@@glm@@QEAA@W4ctor@1@@Z		; glm::tvec2<bool,0>::tvec2<bool,0>
PUBLIC	??0?$tvec2@_N$0A@@glm@@QEAA@_N@Z		; glm::tvec2<bool,0>::tvec2<bool,0>
PUBLIC	??$not_@$0A@Utvec2@glm@@@glm@@YA?AU?$tvec2@_N$0A@@0@AEBU10@@Z ; glm::not_<0,glm::tvec2>
PUBLIC	??$all@$0A@Utvec2@glm@@@glm@@YA_NAEBU?$tvec2@_N$0A@@0@@Z ; glm::all<0,glm::tvec2>
PUBLIC	?length@?$tvec3@_N$0A@@glm@@SAHXZ		; glm::tvec3<bool,0>::length
PUBLIC	??A?$tvec3@_N$0A@@glm@@QEAAAEA_NH@Z		; glm::tvec3<bool,0>::operator[]
PUBLIC	??A?$tvec3@_N$0A@@glm@@QEBAAEB_NH@Z		; glm::tvec3<bool,0>::operator[]
PUBLIC	??0?$tvec3@_N$0A@@glm@@QEAA@W4ctor@1@@Z		; glm::tvec3<bool,0>::tvec3<bool,0>
PUBLIC	??0?$tvec3@_N$0A@@glm@@QEAA@_N@Z		; glm::tvec3<bool,0>::tvec3<bool,0>
PUBLIC	??$not_@$0A@Utvec3@glm@@@glm@@YA?AU?$tvec3@_N$0A@@0@AEBU10@@Z ; glm::not_<0,glm::tvec3>
PUBLIC	??$all@$0A@Utvec3@glm@@@glm@@YA_NAEBU?$tvec3@_N$0A@@0@@Z ; glm::all<0,glm::tvec3>
PUBLIC	?length@?$tvec4@_N$0A@@glm@@SAHXZ		; glm::tvec4<bool,0>::length
PUBLIC	??A?$tvec4@_N$0A@@glm@@QEAAAEA_NH@Z		; glm::tvec4<bool,0>::operator[]
PUBLIC	??A?$tvec4@_N$0A@@glm@@QEBAAEB_NH@Z		; glm::tvec4<bool,0>::operator[]
PUBLIC	??0?$tvec4@_N$0A@@glm@@QEAA@W4ctor@1@@Z		; glm::tvec4<bool,0>::tvec4<bool,0>
PUBLIC	??0?$tvec4@_N$0A@@glm@@QEAA@_N@Z		; glm::tvec4<bool,0>::tvec4<bool,0>
PUBLIC	??$not_@$0A@Utvec4@glm@@@glm@@YA?AU?$tvec4@_N$0A@@0@AEBU10@@Z ; glm::not_<0,glm::tvec4>
PUBLIC	??$all@$0A@Utvec4@glm@@@glm@@YA_NAEBU?$tvec4@_N$0A@@0@@Z ; glm::all<0,glm::tvec4>
PUBLIC	main
PUBLIC	??_C@_1LG@FPDAFGJN@?$AAC?$AA?3?$AA?2?$AAU?$AAs?$AAe?$AAr?$AAs?$AA?2?$AAk?$AAs?$AAa?$AAr?$AAt?$AA?2@ ; `string'
PUBLIC	??_C@_1DK@BGNCJAPL@?$AAi?$AA?5?$AA?$DO?$AA?$DN?$AA?5?$AA0?$AA?5?$AA?$CG?$AA?$CG?$AA?5?$AAi?$AA?5?$AA?$DM?$AA?5?$AAt@ ; `string'
PUBLIC	??_C@_1LG@LAANPDHN@?$AAC?$AA?3?$AA?2?$AAU?$AAs?$AAe?$AAr?$AAs?$AA?2?$AAk?$AAs?$AAa?$AAr?$AAt?$AA?2@ ; `string'
PUBLIC	??_C@_1LG@CIKOIEGN@?$AAC?$AA?3?$AA?2?$AAU?$AAs?$AAe?$AAr?$AAs?$AA?2?$AAk?$AAs?$AAa?$AAr?$AAt?$AA?2@ ; `string'
PUBLIC	??_C@_1LG@MEJFBKPC@?$AAC?$AA?3?$AA?2?$AAU?$AAs?$AAe?$AAr?$AAs?$AA?2?$AAk?$AAs?$AAa?$AAr?$AAt?$AA?2@ ; `string'
EXTRN	__imp__wassert:PROC
EXTRN	_RTC_CheckStackVars:PROC
EXTRN	_RTC_InitBase:PROC
EXTRN	_RTC_Shutdown:PROC
pdata	SEGMENT
$pdata$?test_not@@YAHXZ DD imagerel $LN11
	DD	imagerel $LN11+424
	DD	imagerel $unwind$?test_not@@YAHXZ
pdata	ENDS
;	COMDAT pdata
pdata	SEGMENT
$pdata$?length@?$tvec1@_N$0A@@glm@@SAHXZ DD imagerel $LN3
	DD	imagerel $LN3+9
	DD	imagerel $unwind$?length@?$tvec1@_N$0A@@glm@@SAHXZ
pdata	ENDS
;	COMDAT pdata
pdata	SEGMENT
$pdata$??A?$tvec1@_N$0A@@glm@@QEAAAEA_NH@Z DD imagerel $LN5
	DD	imagerel $LN5+82
	DD	imagerel $unwind$??A?$tvec1@_N$0A@@glm@@QEAAAEA_NH@Z
pdata	ENDS
;	COMDAT pdata
pdata	SEGMENT
$pdata$??A?$tvec1@_N$0A@@glm@@QEBAAEB_NH@Z DD imagerel $LN5
	DD	imagerel $LN5+82
	DD	imagerel $unwind$??A?$tvec1@_N$0A@@glm@@QEBAAEB_NH@Z
pdata	ENDS
;	COMDAT pdata
pdata	SEGMENT
$pdata$??0?$tvec1@_N$0A@@glm@@QEAA@W4ctor@1@@Z DD imagerel $LN3
	DD	imagerel $LN3+17
	DD	imagerel $unwind$??0?$tvec1@_N$0A@@glm@@QEAA@W4ctor@1@@Z
pdata	ENDS
;	COMDAT pdata
pdata	SEGMENT
$pdata$??0?$tvec1@_N$0A@@glm@@QEAA@_N@Z DD imagerel $LN3
	DD	imagerel $LN3+29
	DD	imagerel $unwind$??0?$tvec1@_N$0A@@glm@@QEAA@_N@Z
pdata	ENDS
;	COMDAT pdata
pdata	SEGMENT
$pdata$??$not_@$0A@Utvec1@glm@@@glm@@YA?AU?$tvec1@_N$0A@@0@AEBU10@@Z DD imagerel $LN8
	DD	imagerel $LN8+186
	DD	imagerel $unwind$??$not_@$0A@Utvec1@glm@@@glm@@YA?AU?$tvec1@_N$0A@@0@AEBU10@@Z
pdata	ENDS
;	COMDAT pdata
pdata	SEGMENT
$pdata$??$all@$0A@Utvec1@glm@@@glm@@YA_NAEBU?$tvec1@_N$0A@@0@@Z DD imagerel $LN8
	DD	imagerel $LN8+116
	DD	imagerel $unwind$??$all@$0A@Utvec1@glm@@@glm@@YA_NAEBU?$tvec1@_N$0A@@0@@Z
pdata	ENDS
;	COMDAT pdata
pdata	SEGMENT
$pdata$?length@?$tvec2@_N$0A@@glm@@SAHXZ DD imagerel $LN3
	DD	imagerel $LN3+9
	DD	imagerel $unwind$?length@?$tvec2@_N$0A@@glm@@SAHXZ
pdata	ENDS
;	COMDAT pdata
pdata	SEGMENT
$pdata$??A?$tvec2@_N$0A@@glm@@QEAAAEA_NH@Z DD imagerel $LN5
	DD	imagerel $LN5+82
	DD	imagerel $unwind$??A?$tvec2@_N$0A@@glm@@QEAAAEA_NH@Z
pdata	ENDS
;	COMDAT pdata
pdata	SEGMENT
$pdata$??A?$tvec2@_N$0A@@glm@@QEBAAEB_NH@Z DD imagerel $LN5
	DD	imagerel $LN5+82
	DD	imagerel $unwind$??A?$tvec2@_N$0A@@glm@@QEBAAEB_NH@Z
pdata	ENDS
;	COMDAT pdata
pdata	SEGMENT
$pdata$??0?$tvec2@_N$0A@@glm@@QEAA@W4ctor@1@@Z DD imagerel $LN3
	DD	imagerel $LN3+17
	DD	imagerel $unwind$??0?$tvec2@_N$0A@@glm@@QEAA@W4ctor@1@@Z
pdata	ENDS
;	COMDAT pdata
pdata	SEGMENT
$pdata$??0?$tvec2@_N$0A@@glm@@QEAA@_N@Z DD imagerel $LN3
	DD	imagerel $LN3+42
	DD	imagerel $unwind$??0?$tvec2@_N$0A@@glm@@QEAA@_N@Z
pdata	ENDS
;	COMDAT pdata
pdata	SEGMENT
$pdata$??$not_@$0A@Utvec2@glm@@@glm@@YA?AU?$tvec2@_N$0A@@0@AEBU10@@Z DD imagerel $LN8
	DD	imagerel $LN8+187
	DD	imagerel $unwind$??$not_@$0A@Utvec2@glm@@@glm@@YA?AU?$tvec2@_N$0A@@0@AEBU10@@Z
pdata	ENDS
;	COMDAT pdata
pdata	SEGMENT
$pdata$??$all@$0A@Utvec2@glm@@@glm@@YA_NAEBU?$tvec2@_N$0A@@0@@Z DD imagerel $LN8
	DD	imagerel $LN8+116
	DD	imagerel $unwind$??$all@$0A@Utvec2@glm@@@glm@@YA_NAEBU?$tvec2@_N$0A@@0@@Z
pdata	ENDS
;	COMDAT pdata
pdata	SEGMENT
$pdata$?length@?$tvec3@_N$0A@@glm@@SAHXZ DD imagerel $LN3
	DD	imagerel $LN3+9
	DD	imagerel $unwind$?length@?$tvec3@_N$0A@@glm@@SAHXZ
pdata	ENDS
;	COMDAT pdata
pdata	SEGMENT
$pdata$??A?$tvec3@_N$0A@@glm@@QEAAAEA_NH@Z DD imagerel $LN5
	DD	imagerel $LN5+82
	DD	imagerel $unwind$??A?$tvec3@_N$0A@@glm@@QEAAAEA_NH@Z
pdata	ENDS
;	COMDAT pdata
pdata	SEGMENT
$pdata$??A?$tvec3@_N$0A@@glm@@QEBAAEB_NH@Z DD imagerel $LN5
	DD	imagerel $LN5+82
	DD	imagerel $unwind$??A?$tvec3@_N$0A@@glm@@QEBAAEB_NH@Z
pdata	ENDS
;	COMDAT pdata
pdata	SEGMENT
$pdata$??0?$tvec3@_N$0A@@glm@@QEAA@W4ctor@1@@Z DD imagerel $LN3
	DD	imagerel $LN3+17
	DD	imagerel $unwind$??0?$tvec3@_N$0A@@glm@@QEAA@W4ctor@1@@Z
pdata	ENDS
;	COMDAT pdata
pdata	SEGMENT
$pdata$??0?$tvec3@_N$0A@@glm@@QEAA@_N@Z DD imagerel $LN3
	DD	imagerel $LN3+55
	DD	imagerel $unwind$??0?$tvec3@_N$0A@@glm@@QEAA@_N@Z
pdata	ENDS
;	COMDAT pdata
pdata	SEGMENT
$pdata$??$not_@$0A@Utvec3@glm@@@glm@@YA?AU?$tvec3@_N$0A@@0@AEBU10@@Z DD imagerel $LN8
	DD	imagerel $LN8+196
	DD	imagerel $unwind$??$not_@$0A@Utvec3@glm@@@glm@@YA?AU?$tvec3@_N$0A@@0@AEBU10@@Z
pdata	ENDS
;	COMDAT pdata
pdata	SEGMENT
$pdata$??$all@$0A@Utvec3@glm@@@glm@@YA_NAEBU?$tvec3@_N$0A@@0@@Z DD imagerel $LN8
	DD	imagerel $LN8+116
	DD	imagerel $unwind$??$all@$0A@Utvec3@glm@@@glm@@YA_NAEBU?$tvec3@_N$0A@@0@@Z
pdata	ENDS
;	COMDAT pdata
pdata	SEGMENT
$pdata$?length@?$tvec4@_N$0A@@glm@@SAHXZ DD imagerel $LN3
	DD	imagerel $LN3+9
	DD	imagerel $unwind$?length@?$tvec4@_N$0A@@glm@@SAHXZ
pdata	ENDS
;	COMDAT pdata
pdata	SEGMENT
$pdata$??A?$tvec4@_N$0A@@glm@@QEAAAEA_NH@Z DD imagerel $LN5
	DD	imagerel $LN5+82
	DD	imagerel $unwind$??A?$tvec4@_N$0A@@glm@@QEAAAEA_NH@Z
pdata	ENDS
;	COMDAT pdata
pdata	SEGMENT
$pdata$??A?$tvec4@_N$0A@@glm@@QEBAAEB_NH@Z DD imagerel $LN5
	DD	imagerel $LN5+82
	DD	imagerel $unwind$??A?$tvec4@_N$0A@@glm@@QEBAAEB_NH@Z
pdata	ENDS
;	COMDAT pdata
pdata	SEGMENT
$pdata$??0?$tvec4@_N$0A@@glm@@QEAA@W4ctor@1@@Z DD imagerel $LN3
	DD	imagerel $LN3+17
	DD	imagerel $unwind$??0?$tvec4@_N$0A@@glm@@QEAA@W4ctor@1@@Z
pdata	ENDS
;	COMDAT pdata
pdata	SEGMENT
$pdata$??0?$tvec4@_N$0A@@glm@@QEAA@_N@Z DD imagerel $LN3
	DD	imagerel $LN3+68
	DD	imagerel $unwind$??0?$tvec4@_N$0A@@glm@@QEAA@_N@Z
pdata	ENDS
;	COMDAT pdata
pdata	SEGMENT
$pdata$??$not_@$0A@Utvec4@glm@@@glm@@YA?AU?$tvec4@_N$0A@@0@AEBU10@@Z DD imagerel $LN8
	DD	imagerel $LN8+185
	DD	imagerel $unwind$??$not_@$0A@Utvec4@glm@@@glm@@YA?AU?$tvec4@_N$0A@@0@AEBU10@@Z
pdata	ENDS
;	COMDAT pdata
pdata	SEGMENT
$pdata$??$all@$0A@Utvec4@glm@@@glm@@YA_NAEBU?$tvec4@_N$0A@@0@@Z DD imagerel $LN8
	DD	imagerel $LN8+116
	DD	imagerel $unwind$??$all@$0A@Utvec4@glm@@@glm@@YA_NAEBU?$tvec4@_N$0A@@0@@Z
pdata	ENDS
pdata	SEGMENT
$pdata$main DD	imagerel $LN3
	DD	imagerel $LN3+41
	DD	imagerel $unwind$main
pdata	ENDS
;	COMDAT rtc$TMZ
rtc$TMZ	SEGMENT
_RTC_Shutdown.rtc$TMZ DQ FLAT:_RTC_Shutdown
rtc$TMZ	ENDS
;	COMDAT rtc$IMZ
rtc$IMZ	SEGMENT
_RTC_InitBase.rtc$IMZ DQ FLAT:_RTC_InitBase
rtc$IMZ	ENDS
;	COMDAT ??_C@_1LG@MEJFBKPC@?$AAC?$AA?3?$AA?2?$AAU?$AAs?$AAe?$AAr?$AAs?$AA?2?$AAk?$AAs?$AAa?$AAr?$AAt?$AA?2@
CONST	SEGMENT
??_C@_1LG@MEJFBKPC@?$AAC?$AA?3?$AA?2?$AAU?$AAs?$AAe?$AAr?$AAs?$AA?2?$AAk?$AAs?$AAa?$AAr?$AAt?$AA?2@ DB 'C'
	DB	00H, ':', 00H, '\', 00H, 'U', 00H, 's', 00H, 'e', 00H, 'r', 00H
	DB	's', 00H, '\', 00H, 'k', 00H, 's', 00H, 'a', 00H, 'r', 00H, 't'
	DB	00H, '\', 00H, 'O', 00H, 'n', 00H, 'e', 00H, 'D', 00H, 'r', 00H
	DB	'i', 00H, 'v', 00H, 'e', 00H, '\', 00H, 'D', 00H, 'e', 00H, 's'
	DB	00H, 'k', 00H, 't', 00H, 'o', 00H, 'p', 00H, '\', 00H, 'F', 00H
	DB	'l', 00H, 'a', 00H, 'p', 00H, 'p', 00H, 'y', 00H, 'B', 00H, 'i'
	DB	00H, 'r', 00H, 'd', 00H, '\', 00H, 'l', 00H, 'i', 00H, 'b', 00H
	DB	'r', 00H, 'a', 00H, 'r', 00H, 'i', 00H, 'e', 00H, 's', 00H, '\'
	DB	00H, 'e', 00H, 'x', 00H, 't', 00H, 'e', 00H, 'r', 00H, 'n', 00H
	DB	'a', 00H, 'l', 00H, '\', 00H, 'g', 00H, 'l', 00H, 'm', 00H, '\'
	DB	00H, 'g', 00H, 'l', 00H, 'm', 00H, '\', 00H, 'd', 00H, 'e', 00H
	DB	't', 00H, 'a', 00H, 'i', 00H, 'l', 00H, '\', 00H, 't', 00H, 'y'
	DB	00H, 'p', 00H, 'e', 00H, '_', 00H, 'v', 00H, 'e', 00H, 'c', 00H
	DB	'3', 00H, '.', 00H, 'i', 00H, 'n', 00H, 'l', 00H, 00H, 00H ; `string'
CONST	ENDS
;	COMDAT ??_C@_1LG@CIKOIEGN@?$AAC?$AA?3?$AA?2?$AAU?$AAs?$AAe?$AAr?$AAs?$AA?2?$AAk?$AAs?$AAa?$AAr?$AAt?$AA?2@
CONST	SEGMENT
??_C@_1LG@CIKOIEGN@?$AAC?$AA?3?$AA?2?$AAU?$AAs?$AAe?$AAr?$AAs?$AA?2?$AAk?$AAs?$AAa?$AAr?$AAt?$AA?2@ DB 'C'
	DB	00H, ':', 00H, '\', 00H, 'U', 00H, 's', 00H, 'e', 00H, 'r', 00H
	DB	's', 00H, '\', 00H, 'k', 00H, 's', 00H, 'a', 00H, 'r', 00H, 't'
	DB	00H, '\', 00H, 'O', 00H, 'n', 00H, 'e', 00H, 'D', 00H, 'r', 00H
	DB	'i', 00H, 'v', 00H, 'e', 00H, '\', 00H, 'D', 00H, 'e', 00H, 's'
	DB	00H, 'k', 00H, 't', 00H, 'o', 00H, 'p', 00H, '\', 00H, 'F', 00H
	DB	'l', 00H, 'a', 00H, 'p', 00H, 'p', 00H, 'y', 00H, 'B', 00H, 'i'
	DB	00H, 'r', 00H, 'd', 00H, '\', 00H, 'l', 00H, 'i', 00H, 'b', 00H
	DB	'r', 00H, 'a', 00H, 'r', 00H, 'i', 00H, 'e', 00H, 's', 00H, '\'
	DB	00H, 'e', 00H, 'x', 00H, 't', 00H, 'e', 00H, 'r', 00H, 'n', 00H
	DB	'a', 00H, 'l', 00H, '\', 00H, 'g', 00H, 'l', 00H, 'm', 00H, '\'
	DB	00H, 'g', 00H, 'l', 00H, 'm', 00H, '\', 00H, 'd', 00H, 'e', 00H
	DB	't', 00H, 'a', 00H, 'i', 00H, 'l', 00H, '\', 00H, 't', 00H, 'y'
	DB	00H, 'p', 00H, 'e', 00H, '_', 00H, 'v', 00H, 'e', 00H, 'c', 00H
	DB	'1', 00H, '.', 00H, 'i', 00H, 'n', 00H, 'l', 00H, 00H, 00H ; `string'
CONST	ENDS
;	COMDAT ??_C@_1LG@LAANPDHN@?$AAC?$AA?3?$AA?2?$AAU?$AAs?$AAe?$AAr?$AAs?$AA?2?$AAk?$AAs?$AAa?$AAr?$AAt?$AA?2@
CONST	SEGMENT
??_C@_1LG@LAANPDHN@?$AAC?$AA?3?$AA?2?$AAU?$AAs?$AAe?$AAr?$AAs?$AA?2?$AAk?$AAs?$AAa?$AAr?$AAt?$AA?2@ DB 'C'
	DB	00H, ':', 00H, '\', 00H, 'U', 00H, 's', 00H, 'e', 00H, 'r', 00H
	DB	's', 00H, '\', 00H, 'k', 00H, 's', 00H, 'a', 00H, 'r', 00H, 't'
	DB	00H, '\', 00H, 'O', 00H, 'n', 00H, 'e', 00H, 'D', 00H, 'r', 00H
	DB	'i', 00H, 'v', 00H, 'e', 00H, '\', 00H, 'D', 00H, 'e', 00H, 's'
	DB	00H, 'k', 00H, 't', 00H, 'o', 00H, 'p', 00H, '\', 00H, 'F', 00H
	DB	'l', 00H, 'a', 00H, 'p', 00H, 'p', 00H, 'y', 00H, 'B', 00H, 'i'
	DB	00H, 'r', 00H, 'd', 00H, '\', 00H, 'l', 00H, 'i', 00H, 'b', 00H
	DB	'r', 00H, 'a', 00H, 'r', 00H, 'i', 00H, 'e', 00H, 's', 00H, '\'
	DB	00H, 'e', 00H, 'x', 00H, 't', 00H, 'e', 00H, 'r', 00H, 'n', 00H
	DB	'a', 00H, 'l', 00H, '\', 00H, 'g', 00H, 'l', 00H, 'm', 00H, '\'
	DB	00H, 'g', 00H, 'l', 00H, 'm', 00H, '\', 00H, 'd', 00H, 'e', 00H
	DB	't', 00H, 'a', 00H, 'i', 00H, 'l', 00H, '\', 00H, 't', 00H, 'y'
	DB	00H, 'p', 00H, 'e', 00H, '_', 00H, 'v', 00H, 'e', 00H, 'c', 00H
	DB	'4', 00H, '.', 00H, 'i', 00H, 'n', 00H, 'l', 00H, 00H, 00H ; `string'
CONST	ENDS
;	COMDAT ??_C@_1DK@BGNCJAPL@?$AAi?$AA?5?$AA?$DO?$AA?$DN?$AA?5?$AA0?$AA?5?$AA?$CG?$AA?$CG?$AA?5?$AAi?$AA?5?$AA?$DM?$AA?5?$AAt@
CONST	SEGMENT
??_C@_1DK@BGNCJAPL@?$AAi?$AA?5?$AA?$DO?$AA?$DN?$AA?5?$AA0?$AA?5?$AA?$CG?$AA?$CG?$AA?5?$AAi?$AA?5?$AA?$DM?$AA?5?$AAt@ DB 'i'
	DB	00H, ' ', 00H, '>', 00H, '=', 00H, ' ', 00H, '0', 00H, ' ', 00H
	DB	'&', 00H, '&', 00H, ' ', 00H, 'i', 00H, ' ', 00H, '<', 00H, ' '
	DB	00H, 't', 00H, 'h', 00H, 'i', 00H, 's', 00H, '-', 00H, '>', 00H
	DB	'l', 00H, 'e', 00H, 'n', 00H, 'g', 00H, 't', 00H, 'h', 00H, '('
	DB	00H, ')', 00H, 00H, 00H			; `string'
CONST	ENDS
;	COMDAT ??_C@_1LG@FPDAFGJN@?$AAC?$AA?3?$AA?2?$AAU?$AAs?$AAe?$AAr?$AAs?$AA?2?$AAk?$AAs?$AAa?$AAr?$AAt?$AA?2@
CONST	SEGMENT
??_C@_1LG@FPDAFGJN@?$AAC?$AA?3?$AA?2?$AAU?$AAs?$AAe?$AAr?$AAs?$AA?2?$AAk?$AAs?$AAa?$AAr?$AAt?$AA?2@ DB 'C'
	DB	00H, ':', 00H, '\', 00H, 'U', 00H, 's', 00H, 'e', 00H, 'r', 00H
	DB	's', 00H, '\', 00H, 'k', 00H, 's', 00H, 'a', 00H, 'r', 00H, 't'
	DB	00H, '\', 00H, 'O', 00H, 'n', 00H, 'e', 00H, 'D', 00H, 'r', 00H
	DB	'i', 00H, 'v', 00H, 'e', 00H, '\', 00H, 'D', 00H, 'e', 00H, 's'
	DB	00H, 'k', 00H, 't', 00H, 'o', 00H, 'p', 00H, '\', 00H, 'F', 00H
	DB	'l', 00H, 'a', 00H, 'p', 00H, 'p', 00H, 'y', 00H, 'B', 00H, 'i'
	DB	00H, 'r', 00H, 'd', 00H, '\', 00H, 'l', 00H, 'i', 00H, 'b', 00H
	DB	'r', 00H, 'a', 00H, 'r', 00H, 'i', 00H, 'e', 00H, 's', 00H, '\'
	DB	00H, 'e', 00H, 'x', 00H, 't', 00H, 'e', 00H, 'r', 00H, 'n', 00H
	DB	'a', 00H, 'l', 00H, '\', 00H, 'g', 00H, 'l', 00H, 'm', 00H, '\'
	DB	00H, 'g', 00H, 'l', 00H, 'm', 00H, '\', 00H, 'd', 00H, 'e', 00H
	DB	't', 00H, 'a', 00H, 'i', 00H, 'l', 00H, '\', 00H, 't', 00H, 'y'
	DB	00H, 'p', 00H, 'e', 00H, '_', 00H, 'v', 00H, 'e', 00H, 'c', 00H
	DB	'2', 00H, '.', 00H, 'i', 00H, 'n', 00H, 'l', 00H, 00H, 00H ; `string'
CONST	ENDS
;	COMDAT xdata
xdata	SEGMENT
$unwind$??$all@$0A@Utvec4@glm@@@glm@@YA_NAEBU?$tvec4@_N$0A@@0@@Z DD 020a01H
	DD	07006520aH
xdata	ENDS
;	COMDAT xdata
xdata	SEGMENT
$unwind$??$not_@$0A@Utvec4@glm@@@glm@@YA?AU?$tvec4@_N$0A@@0@AEBU10@@Z DD 022501H
	DD	0700b720fH
xdata	ENDS
;	COMDAT CONST
CONST	SEGMENT
??$not_@$0A@Utvec4@glm@@@glm@@YA?AU?$tvec4@_N$0A@@0@AEBU10@@Z$rtcName$0 DB 052H ; glm::not_<0,glm::tvec4>
	DB	065H
	DB	073H
	DB	075H
	DB	06cH
	DB	074H
	DB	00H
	ORG $+9
??$not_@$0A@Utvec4@glm@@@glm@@YA?AU?$tvec4@_N$0A@@0@AEBU10@@Z$rtcVarDesc DD 024H ; glm::not_<0,glm::tvec4>
	DD	04H
	DQ	FLAT:??$not_@$0A@Utvec4@glm@@@glm@@YA?AU?$tvec4@_N$0A@@0@AEBU10@@Z$rtcName$0
	ORG $+48
??$not_@$0A@Utvec4@glm@@@glm@@YA?AU?$tvec4@_N$0A@@0@AEBU10@@Z$rtcFrameData DD 01H ; glm::not_<0,glm::tvec4>
	DD	00H
	DQ	FLAT:??$not_@$0A@Utvec4@glm@@@glm@@YA?AU?$tvec4@_N$0A@@0@AEBU10@@Z$rtcVarDesc
CONST	ENDS
;	COMDAT xdata
xdata	SEGMENT
$unwind$??0?$tvec4@_N$0A@@glm@@QEAA@_N@Z DD 010a01H
	DD	0700aH
xdata	ENDS
;	COMDAT xdata
xdata	SEGMENT
$unwind$??0?$tvec4@_N$0A@@glm@@QEAA@W4ctor@1@@Z DD 010a01H
	DD	0700aH
xdata	ENDS
;	COMDAT xdata
xdata	SEGMENT
$unwind$??A?$tvec4@_N$0A@@glm@@QEBAAEB_NH@Z DD 020e01H
	DD	0700a320eH
xdata	ENDS
;	COMDAT xdata
xdata	SEGMENT
$unwind$??A?$tvec4@_N$0A@@glm@@QEAAAEA_NH@Z DD 020e01H
	DD	0700a320eH
xdata	ENDS
;	COMDAT xdata
xdata	SEGMENT
$unwind$?length@?$tvec4@_N$0A@@glm@@SAHXZ DD 010201H
	DD	07002H
xdata	ENDS
;	COMDAT xdata
xdata	SEGMENT
$unwind$??$all@$0A@Utvec3@glm@@@glm@@YA_NAEBU?$tvec3@_N$0A@@0@@Z DD 020a01H
	DD	07006520aH
xdata	ENDS
;	COMDAT xdata
xdata	SEGMENT
$unwind$??$not_@$0A@Utvec3@glm@@@glm@@YA?AU?$tvec3@_N$0A@@0@AEBU10@@Z DD 032601H
	DD	0700c8210H
	DD	0600bH
xdata	ENDS
;	COMDAT CONST
CONST	SEGMENT
??$not_@$0A@Utvec3@glm@@@glm@@YA?AU?$tvec3@_N$0A@@0@AEBU10@@Z$rtcName$0 DB 052H ; glm::not_<0,glm::tvec3>
	DB	065H
	DB	073H
	DB	075H
	DB	06cH
	DB	074H
	DB	00H
	ORG $+9
??$not_@$0A@Utvec3@glm@@@glm@@YA?AU?$tvec3@_N$0A@@0@AEBU10@@Z$rtcVarDesc DD 024H ; glm::not_<0,glm::tvec3>
	DD	03H
	DQ	FLAT:??$not_@$0A@Utvec3@glm@@@glm@@YA?AU?$tvec3@_N$0A@@0@AEBU10@@Z$rtcName$0
	ORG $+48
??$not_@$0A@Utvec3@glm@@@glm@@YA?AU?$tvec3@_N$0A@@0@AEBU10@@Z$rtcFrameData DD 01H ; glm::not_<0,glm::tvec3>
	DD	00H
	DQ	FLAT:??$not_@$0A@Utvec3@glm@@@glm@@YA?AU?$tvec3@_N$0A@@0@AEBU10@@Z$rtcVarDesc
CONST	ENDS
;	COMDAT xdata
xdata	SEGMENT
$unwind$??0?$tvec3@_N$0A@@glm@@QEAA@_N@Z DD 010a01H
	DD	0700aH
xdata	ENDS
;	COMDAT xdata
xdata	SEGMENT
$unwind$??0?$tvec3@_N$0A@@glm@@QEAA@W4ctor@1@@Z DD 010a01H
	DD	0700aH
xdata	ENDS
;	COMDAT xdata
xdata	SEGMENT
$unwind$??A?$tvec3@_N$0A@@glm@@QEBAAEB_NH@Z DD 020e01H
	DD	0700a320eH
xdata	ENDS
;	COMDAT xdata
xdata	SEGMENT
$unwind$??A?$tvec3@_N$0A@@glm@@QEAAAEA_NH@Z DD 020e01H
	DD	0700a320eH
xdata	ENDS
;	COMDAT xdata
xdata	SEGMENT
$unwind$?length@?$tvec3@_N$0A@@glm@@SAHXZ DD 010201H
	DD	07002H
xdata	ENDS
;	COMDAT xdata
xdata	SEGMENT
$unwind$??$all@$0A@Utvec2@glm@@@glm@@YA_NAEBU?$tvec2@_N$0A@@0@@Z DD 020a01H
	DD	07006520aH
xdata	ENDS
;	COMDAT xdata
xdata	SEGMENT
$unwind$??$not_@$0A@Utvec2@glm@@@glm@@YA?AU?$tvec2@_N$0A@@0@AEBU10@@Z DD 022501H
	DD	0700b720fH
xdata	ENDS
;	COMDAT CONST
CONST	SEGMENT
??$not_@$0A@Utvec2@glm@@@glm@@YA?AU?$tvec2@_N$0A@@0@AEBU10@@Z$rtcName$0 DB 052H ; glm::not_<0,glm::tvec2>
	DB	065H
	DB	073H
	DB	075H
	DB	06cH
	DB	074H
	DB	00H
	ORG $+9
??$not_@$0A@Utvec2@glm@@@glm@@YA?AU?$tvec2@_N$0A@@0@AEBU10@@Z$rtcVarDesc DD 024H ; glm::not_<0,glm::tvec2>
	DD	02H
	DQ	FLAT:??$not_@$0A@Utvec2@glm@@@glm@@YA?AU?$tvec2@_N$0A@@0@AEBU10@@Z$rtcName$0
	ORG $+48
??$not_@$0A@Utvec2@glm@@@glm@@YA?AU?$tvec2@_N$0A@@0@AEBU10@@Z$rtcFrameData DD 01H ; glm::not_<0,glm::tvec2>
	DD	00H
	DQ	FLAT:??$not_@$0A@Utvec2@glm@@@glm@@YA?AU?$tvec2@_N$0A@@0@AEBU10@@Z$rtcVarDesc
CONST	ENDS
;	COMDAT xdata
xdata	SEGMENT
$unwind$??0?$tvec2@_N$0A@@glm@@QEAA@_N@Z DD 010a01H
	DD	0700aH
xdata	ENDS
;	COMDAT xdata
xdata	SEGMENT
$unwind$??0?$tvec2@_N$0A@@glm@@QEAA@W4ctor@1@@Z DD 010a01H
	DD	0700aH
xdata	ENDS
;	COMDAT xdata
xdata	SEGMENT
$unwind$??A?$tvec2@_N$0A@@glm@@QEBAAEB_NH@Z DD 020e01H
	DD	0700a320eH
xdata	ENDS
;	COMDAT xdata
xdata	SEGMENT
$unwind$??A?$tvec2@_N$0A@@glm@@QEAAAEA_NH@Z DD 020e01H
	DD	0700a320eH
xdata	ENDS
;	COMDAT xdata
xdata	SEGMENT
$unwind$?length@?$tvec2@_N$0A@@glm@@SAHXZ DD 010201H
	DD	07002H
xdata	ENDS
;	COMDAT xdata
xdata	SEGMENT
$unwind$??$all@$0A@Utvec1@glm@@@glm@@YA_NAEBU?$tvec1@_N$0A@@0@@Z DD 020a01H
	DD	07006520aH
xdata	ENDS
;	COMDAT xdata
xdata	SEGMENT
$unwind$??$not_@$0A@Utvec1@glm@@@glm@@YA?AU?$tvec1@_N$0A@@0@AEBU10@@Z DD 022501H
	DD	0700b720fH
xdata	ENDS
;	COMDAT CONST
CONST	SEGMENT
??$not_@$0A@Utvec1@glm@@@glm@@YA?AU?$tvec1@_N$0A@@0@AEBU10@@Z$rtcName$0 DB 052H ; glm::not_<0,glm::tvec1>
	DB	065H
	DB	073H
	DB	075H
	DB	06cH
	DB	074H
	DB	00H
	ORG $+9
??$not_@$0A@Utvec1@glm@@@glm@@YA?AU?$tvec1@_N$0A@@0@AEBU10@@Z$rtcVarDesc DD 024H ; glm::not_<0,glm::tvec1>
	DD	01H
	DQ	FLAT:??$not_@$0A@Utvec1@glm@@@glm@@YA?AU?$tvec1@_N$0A@@0@AEBU10@@Z$rtcName$0
	ORG $+48
??$not_@$0A@Utvec1@glm@@@glm@@YA?AU?$tvec1@_N$0A@@0@AEBU10@@Z$rtcFrameData DD 01H ; glm::not_<0,glm::tvec1>
	DD	00H
	DQ	FLAT:??$not_@$0A@Utvec1@glm@@@glm@@YA?AU?$tvec1@_N$0A@@0@AEBU10@@Z$rtcVarDesc
CONST	ENDS
;	COMDAT xdata
xdata	SEGMENT
$unwind$??0?$tvec1@_N$0A@@glm@@QEAA@_N@Z DD 010a01H
	DD	0700aH
xdata	ENDS
;	COMDAT xdata
xdata	SEGMENT
$unwind$??0?$tvec1@_N$0A@@glm@@QEAA@W4ctor@1@@Z DD 010a01H
	DD	0700aH
xdata	ENDS
;	COMDAT xdata
xdata	SEGMENT
$unwind$??A?$tvec1@_N$0A@@glm@@QEBAAEB_NH@Z DD 020e01H
	DD	0700a320eH
xdata	ENDS
;	COMDAT xdata
xdata	SEGMENT
$unwind$??A?$tvec1@_N$0A@@glm@@QEAAAEA_NH@Z DD 020e01H
	DD	0700a320eH
xdata	ENDS
;	COMDAT xdata
xdata	SEGMENT
$unwind$?length@?$tvec1@_N$0A@@glm@@SAHXZ DD 010201H
	DD	07002H
xdata	ENDS
xdata	SEGMENT
$unwind$?test_not@@YAHXZ DD 031a01H
	DD	0180109H
	DD	07002H
$unwind$main DD	020601H
	DD	070025206H
xdata	ENDS
CONST	SEGMENT
?test_not@@YAHXZ$rtcName$0 DB 076H			; test_not
	DB	00H
	ORG $+2
?test_not@@YAHXZ$rtcName$1 DB 076H			; test_not
	DB	00H
	ORG $+2
?test_not@@YAHXZ$rtcName$2 DB 076H			; test_not
	DB	00H
	ORG $+2
?test_not@@YAHXZ$rtcName$3 DB 076H			; test_not
	DB	00H
	ORG $+2
?test_not@@YAHXZ$rtcVarDesc DD 094H			; test_not
	DD	04H
	DQ	FLAT:?test_not@@YAHXZ$rtcName$3
	DD	074H
	DD	03H
	DQ	FLAT:?test_not@@YAHXZ$rtcName$2
	DD	054H
	DD	02H
	DQ	FLAT:?test_not@@YAHXZ$rtcName$1
	DD	034H
	DD	01H
	DQ	FLAT:?test_not@@YAHXZ$rtcName$0
	ORG $+192
?test_not@@YAHXZ$rtcFrameData DD 04H			; test_not
	DD	00H
	DQ	FLAT:?test_not@@YAHXZ$rtcVarDesc
CONST	ENDS
; Function compile flags: /Odtp /RTCsu
; File C:\Users\ksart\OneDrive\Desktop\FlappyBird\libraries\external\glm\test\core\core_func_vector_relational.cpp
_TEXT	SEGMENT
Error$ = 32
main	PROC

; 35   : {

$LN3:
	push	rdi
	sub	rsp, 48					; 00000030H

; 36   : 	int Error(0);

	mov	DWORD PTR Error$[rsp], 0

; 37   : 
; 38   : 	Error += test_not();

	call	?test_not@@YAHXZ			; test_not
	mov	ecx, DWORD PTR Error$[rsp]
	add	ecx, eax
	mov	eax, ecx
	mov	DWORD PTR Error$[rsp], eax

; 39   : 
; 40   : 	return Error;

	mov	eax, DWORD PTR Error$[rsp]

; 41   : }

	add	rsp, 48					; 00000030H
	pop	rdi
	ret	0
main	ENDP
_TEXT	ENDS
; Function compile flags: /Odtp /RTCsu
; File C:\Users\ksart\OneDrive\Desktop\FlappyBird\libraries\external\glm\glm\detail\func_vector_relational.inl
;	COMDAT ??$all@$0A@Utvec4@glm@@@glm@@YA_NAEBU?$tvec4@_N$0A@@0@@Z
_TEXT	SEGMENT
Result$ = 32
i$1 = 36
tv74 = 40
v$ = 64
??$all@$0A@Utvec4@glm@@@glm@@YA_NAEBU?$tvec4@_N$0A@@0@@Z PROC ; glm::all<0,glm::tvec4>, COMDAT

; 86   : 	{

$LN8:
	mov	QWORD PTR [rsp+8], rcx
	push	rdi
	sub	rsp, 48					; 00000030H

; 87   : 		bool Result = true;

	mov	BYTE PTR Result$[rsp], 1

; 88   : 		for(length_t i = 0; i < v.length(); ++i)

	mov	DWORD PTR i$1[rsp], 0
	jmp	SHORT $LN4@all
$LN2@all:
	mov	eax, DWORD PTR i$1[rsp]
	inc	eax
	mov	DWORD PTR i$1[rsp], eax
$LN4@all:
	call	?length@?$tvec4@_N$0A@@glm@@SAHXZ	; glm::tvec4<bool,0>::length
	cmp	DWORD PTR i$1[rsp], eax
	jge	SHORT $LN3@all

; 89   : 			Result = Result && v[i];

	movzx	eax, BYTE PTR Result$[rsp]
	test	eax, eax
	je	SHORT $LN6@all
	mov	edx, DWORD PTR i$1[rsp]
	mov	rcx, QWORD PTR v$[rsp]
	call	??A?$tvec4@_N$0A@@glm@@QEBAAEB_NH@Z	; glm::tvec4<bool,0>::operator[]
	movzx	eax, BYTE PTR [rax]
	test	eax, eax
	je	SHORT $LN6@all
	mov	DWORD PTR tv74[rsp], 1
	jmp	SHORT $LN7@all
$LN6@all:
	mov	DWORD PTR tv74[rsp], 0
$LN7@all:
	movzx	eax, BYTE PTR tv74[rsp]
	mov	BYTE PTR Result$[rsp], al
	jmp	SHORT $LN2@all
$LN3@all:

; 90   : 		return Result;

	movzx	eax, BYTE PTR Result$[rsp]

; 91   : 	}

	add	rsp, 48					; 00000030H
	pop	rdi
	ret	0
??$all@$0A@Utvec4@glm@@@glm@@YA_NAEBU?$tvec4@_N$0A@@0@@Z ENDP ; glm::all<0,glm::tvec4>
_TEXT	ENDS
; Function compile flags: /Odtp /RTCsu
; File C:\Users\ksart\OneDrive\Desktop\FlappyBird\libraries\external\glm\glm\detail\func_vector_relational.inl
;	COMDAT ??$not_@$0A@Utvec4@glm@@@glm@@YA?AU?$tvec4@_N$0A@@0@AEBU10@@Z
_TEXT	SEGMENT
Result$ = 36
i$4 = 52
tv77 = 56
__$ReturnUdt$ = 80
v$ = 88
??$not_@$0A@Utvec4@glm@@@glm@@YA?AU?$tvec4@_N$0A@@0@AEBU10@@Z PROC ; glm::not_<0,glm::tvec4>, COMDAT

; 95   : 	{

$LN8:
	mov	QWORD PTR [rsp+16], rdx
	mov	QWORD PTR [rsp+8], rcx
	push	rdi
	sub	rsp, 64					; 00000040H
	lea	rdi, QWORD PTR [rsp+32]
	mov	ecx, 8
	mov	eax, -858993460				; ccccccccH
	rep stosd
	mov	rcx, QWORD PTR [rsp+80]

; 96   : 		vecType<bool, P> Result(uninitialize);

	xor	edx, edx
	lea	rcx, QWORD PTR Result$[rsp]
	call	??0?$tvec4@_N$0A@@glm@@QEAA@W4ctor@1@@Z	; glm::tvec4<bool,0>::tvec4<bool,0>

; 97   : 		for(length_t i = 0; i < v.length(); ++i)

	mov	DWORD PTR i$4[rsp], 0
	jmp	SHORT $LN4@not_
$LN2@not_:
	mov	eax, DWORD PTR i$4[rsp]
	inc	eax
	mov	DWORD PTR i$4[rsp], eax
$LN4@not_:
	call	?length@?$tvec4@_N$0A@@glm@@SAHXZ	; glm::tvec4<bool,0>::length
	cmp	DWORD PTR i$4[rsp], eax
	jge	SHORT $LN3@not_

; 98   : 			Result[i] = !v[i];

	mov	edx, DWORD PTR i$4[rsp]
	mov	rcx, QWORD PTR v$[rsp]
	call	??A?$tvec4@_N$0A@@glm@@QEBAAEB_NH@Z	; glm::tvec4<bool,0>::operator[]
	movzx	eax, BYTE PTR [rax]
	test	eax, eax
	jne	SHORT $LN6@not_
	mov	DWORD PTR tv77[rsp], 1
	jmp	SHORT $LN7@not_
$LN6@not_:
	mov	DWORD PTR tv77[rsp], 0
$LN7@not_:
	mov	edx, DWORD PTR i$4[rsp]
	lea	rcx, QWORD PTR Result$[rsp]
	call	??A?$tvec4@_N$0A@@glm@@QEAAAEA_NH@Z	; glm::tvec4<bool,0>::operator[]
	movzx	ecx, BYTE PTR tv77[rsp]
	mov	BYTE PTR [rax], cl
	jmp	SHORT $LN2@not_
$LN3@not_:

; 99   : 		return Result;

	mov	rax, QWORD PTR __$ReturnUdt$[rsp]
	mov	ecx, DWORD PTR Result$[rsp]
	mov	DWORD PTR [rax], ecx
	mov	rax, QWORD PTR __$ReturnUdt$[rsp]

; 100  : 	}

	mov	rdi, rax
	mov	rcx, rsp
	lea	rdx, OFFSET FLAT:??$not_@$0A@Utvec4@glm@@@glm@@YA?AU?$tvec4@_N$0A@@0@AEBU10@@Z$rtcFrameData
	call	_RTC_CheckStackVars
	mov	rax, rdi
	add	rsp, 64					; 00000040H
	pop	rdi
	ret	0
??$not_@$0A@Utvec4@glm@@@glm@@YA?AU?$tvec4@_N$0A@@0@AEBU10@@Z ENDP ; glm::not_<0,glm::tvec4>
_TEXT	ENDS
; Function compile flags: /Odtp /RTCsu
; File C:\Users\ksart\OneDrive\Desktop\FlappyBird\libraries\external\glm\glm\detail\type_vec4.inl
;	COMDAT ??0?$tvec4@_N$0A@@glm@@QEAA@_N@Z
_TEXT	SEGMENT
this$ = 16
scalar$ = 24
??0?$tvec4@_N$0A@@glm@@QEAA@_N@Z PROC			; glm::tvec4<bool,0>::tvec4<bool,0>, COMDAT

; 188  : 	{}

$LN3:
	mov	BYTE PTR [rsp+16], dl
	mov	QWORD PTR [rsp+8], rcx
	push	rdi

; 187  : 		: x(scalar), y(scalar), z(scalar), w(scalar)

	mov	rax, QWORD PTR this$[rsp]
	movzx	ecx, BYTE PTR scalar$[rsp]
	mov	BYTE PTR [rax], cl
	mov	rax, QWORD PTR this$[rsp]
	movzx	ecx, BYTE PTR scalar$[rsp]
	mov	BYTE PTR [rax+1], cl
	mov	rax, QWORD PTR this$[rsp]
	movzx	ecx, BYTE PTR scalar$[rsp]
	mov	BYTE PTR [rax+2], cl
	mov	rax, QWORD PTR this$[rsp]
	movzx	ecx, BYTE PTR scalar$[rsp]
	mov	BYTE PTR [rax+3], cl

; 188  : 	{}

	mov	rax, QWORD PTR this$[rsp]
	pop	rdi
	ret	0
??0?$tvec4@_N$0A@@glm@@QEAA@_N@Z ENDP			; glm::tvec4<bool,0>::tvec4<bool,0>
_TEXT	ENDS
; Function compile flags: /Odtp /RTCsu
; File C:\Users\ksart\OneDrive\Desktop\FlappyBird\libraries\external\glm\glm\detail\type_vec4.inl
;	COMDAT ??0?$tvec4@_N$0A@@glm@@QEAA@W4ctor@1@@Z
_TEXT	SEGMENT
this$ = 16
__formal$ = 24
??0?$tvec4@_N$0A@@glm@@QEAA@W4ctor@1@@Z PROC		; glm::tvec4<bool,0>::tvec4<bool,0>, COMDAT

; 183  : 	{}

$LN3:
	mov	DWORD PTR [rsp+16], edx
	mov	QWORD PTR [rsp+8], rcx
	push	rdi
	mov	rax, QWORD PTR this$[rsp]
	pop	rdi
	ret	0
??0?$tvec4@_N$0A@@glm@@QEAA@W4ctor@1@@Z ENDP		; glm::tvec4<bool,0>::tvec4<bool,0>
_TEXT	ENDS
; Function compile flags: /Odtp /RTCsu
; File C:\Users\ksart\OneDrive\Desktop\FlappyBird\libraries\external\glm\glm\detail\type_vec4.inl
;	COMDAT ??A?$tvec4@_N$0A@@glm@@QEBAAEB_NH@Z
_TEXT	SEGMENT
this$ = 48
i$ = 56
??A?$tvec4@_N$0A@@glm@@QEBAAEB_NH@Z PROC		; glm::tvec4<bool,0>::operator[], COMDAT

; 336  : 	{

$LN5:
	mov	DWORD PTR [rsp+16], edx
	mov	QWORD PTR [rsp+8], rcx
	push	rdi
	sub	rsp, 32					; 00000020H

; 337  : 		assert(i >= 0 && i < this->length());

	cmp	DWORD PTR i$[rsp], 0
	jl	SHORT $LN3@operator
	call	?length@?$tvec4@_N$0A@@glm@@SAHXZ	; glm::tvec4<bool,0>::length
	cmp	DWORD PTR i$[rsp], eax
	jl	SHORT $LN4@operator
$LN3@operator:
	mov	r8d, 337				; 00000151H
	lea	rdx, OFFSET FLAT:??_C@_1LG@LAANPDHN@?$AAC?$AA?3?$AA?2?$AAU?$AAs?$AAe?$AAr?$AAs?$AA?2?$AAk?$AAs?$AAa?$AAr?$AAt?$AA?2@
	lea	rcx, OFFSET FLAT:??_C@_1DK@BGNCJAPL@?$AAi?$AA?5?$AA?$DO?$AA?$DN?$AA?5?$AA0?$AA?5?$AA?$CG?$AA?$CG?$AA?5?$AAi?$AA?5?$AA?$DM?$AA?5?$AAt@
	call	QWORD PTR __imp__wassert
	xor	eax, eax
$LN4@operator:

; 338  : 		return (&x)[i];

	movsxd	rax, DWORD PTR i$[rsp]
	mov	rcx, QWORD PTR this$[rsp]
	add	rcx, rax
	mov	rax, rcx

; 339  : 	}

	add	rsp, 32					; 00000020H
	pop	rdi
	ret	0
??A?$tvec4@_N$0A@@glm@@QEBAAEB_NH@Z ENDP		; glm::tvec4<bool,0>::operator[]
_TEXT	ENDS
; Function compile flags: /Odtp /RTCsu
; File C:\Users\ksart\OneDrive\Desktop\FlappyBird\libraries\external\glm\glm\detail\type_vec4.inl
;	COMDAT ??A?$tvec4@_N$0A@@glm@@QEAAAEA_NH@Z
_TEXT	SEGMENT
this$ = 48
i$ = 56
??A?$tvec4@_N$0A@@glm@@QEAAAEA_NH@Z PROC		; glm::tvec4<bool,0>::operator[], COMDAT

; 329  : 	{

$LN5:
	mov	DWORD PTR [rsp+16], edx
	mov	QWORD PTR [rsp+8], rcx
	push	rdi
	sub	rsp, 32					; 00000020H

; 330  : 		assert(i >= 0 && i < this->length());

	cmp	DWORD PTR i$[rsp], 0
	jl	SHORT $LN3@operator
	call	?length@?$tvec4@_N$0A@@glm@@SAHXZ	; glm::tvec4<bool,0>::length
	cmp	DWORD PTR i$[rsp], eax
	jl	SHORT $LN4@operator
$LN3@operator:
	mov	r8d, 330				; 0000014aH
	lea	rdx, OFFSET FLAT:??_C@_1LG@LAANPDHN@?$AAC?$AA?3?$AA?2?$AAU?$AAs?$AAe?$AAr?$AAs?$AA?2?$AAk?$AAs?$AAa?$AAr?$AAt?$AA?2@
	lea	rcx, OFFSET FLAT:??_C@_1DK@BGNCJAPL@?$AAi?$AA?5?$AA?$DO?$AA?$DN?$AA?5?$AA0?$AA?5?$AA?$CG?$AA?$CG?$AA?5?$AAi?$AA?5?$AA?$DM?$AA?5?$AAt@
	call	QWORD PTR __imp__wassert
	xor	eax, eax
$LN4@operator:

; 331  : 		return (&x)[i];

	movsxd	rax, DWORD PTR i$[rsp]
	mov	rcx, QWORD PTR this$[rsp]
	add	rcx, rax
	mov	rax, rcx

; 332  : 	}

	add	rsp, 32					; 00000020H
	pop	rdi
	ret	0
??A?$tvec4@_N$0A@@glm@@QEAAAEA_NH@Z ENDP		; glm::tvec4<bool,0>::operator[]
_TEXT	ENDS
; Function compile flags: /Odtp /RTCsu
; File C:\Users\ksart\OneDrive\Desktop\FlappyBird\libraries\external\glm\glm\detail\type_vec4.hpp
;	COMDAT ?length@?$tvec4@_N$0A@@glm@@SAHXZ
_TEXT	SEGMENT
?length@?$tvec4@_N$0A@@glm@@SAHXZ PROC			; glm::tvec4<bool,0>::length, COMDAT

; 85   : 		GLM_FUNC_DECL static length_type length(){return 4;}

$LN3:
	push	rdi
	mov	eax, 4
	pop	rdi
	ret	0
?length@?$tvec4@_N$0A@@glm@@SAHXZ ENDP			; glm::tvec4<bool,0>::length
_TEXT	ENDS
; Function compile flags: /Odtp /RTCsu
; File C:\Users\ksart\OneDrive\Desktop\FlappyBird\libraries\external\glm\glm\detail\func_vector_relational.inl
;	COMDAT ??$all@$0A@Utvec3@glm@@@glm@@YA_NAEBU?$tvec3@_N$0A@@0@@Z
_TEXT	SEGMENT
Result$ = 32
i$1 = 36
tv74 = 40
v$ = 64
??$all@$0A@Utvec3@glm@@@glm@@YA_NAEBU?$tvec3@_N$0A@@0@@Z PROC ; glm::all<0,glm::tvec3>, COMDAT

; 86   : 	{

$LN8:
	mov	QWORD PTR [rsp+8], rcx
	push	rdi
	sub	rsp, 48					; 00000030H

; 87   : 		bool Result = true;

	mov	BYTE PTR Result$[rsp], 1

; 88   : 		for(length_t i = 0; i < v.length(); ++i)

	mov	DWORD PTR i$1[rsp], 0
	jmp	SHORT $LN4@all
$LN2@all:
	mov	eax, DWORD PTR i$1[rsp]
	inc	eax
	mov	DWORD PTR i$1[rsp], eax
$LN4@all:
	call	?length@?$tvec3@_N$0A@@glm@@SAHXZ	; glm::tvec3<bool,0>::length
	cmp	DWORD PTR i$1[rsp], eax
	jge	SHORT $LN3@all

; 89   : 			Result = Result && v[i];

	movzx	eax, BYTE PTR Result$[rsp]
	test	eax, eax
	je	SHORT $LN6@all
	mov	edx, DWORD PTR i$1[rsp]
	mov	rcx, QWORD PTR v$[rsp]
	call	??A?$tvec3@_N$0A@@glm@@QEBAAEB_NH@Z	; glm::tvec3<bool,0>::operator[]
	movzx	eax, BYTE PTR [rax]
	test	eax, eax
	je	SHORT $LN6@all
	mov	DWORD PTR tv74[rsp], 1
	jmp	SHORT $LN7@all
$LN6@all:
	mov	DWORD PTR tv74[rsp], 0
$LN7@all:
	movzx	eax, BYTE PTR tv74[rsp]
	mov	BYTE PTR Result$[rsp], al
	jmp	SHORT $LN2@all
$LN3@all:

; 90   : 		return Result;

	movzx	eax, BYTE PTR Result$[rsp]

; 91   : 	}

	add	rsp, 48					; 00000030H
	pop	rdi
	ret	0
??$all@$0A@Utvec3@glm@@@glm@@YA_NAEBU?$tvec3@_N$0A@@0@@Z ENDP ; glm::all<0,glm::tvec3>
_TEXT	ENDS
; Function compile flags: /Odtp /RTCsu
; File C:\Users\ksart\OneDrive\Desktop\FlappyBird\libraries\external\glm\glm\detail\func_vector_relational.inl
;	COMDAT ??$not_@$0A@Utvec3@glm@@@glm@@YA?AU?$tvec3@_N$0A@@0@AEBU10@@Z
_TEXT	SEGMENT
Result$ = 36
i$4 = 52
tv77 = 56
__$ReturnUdt$ = 96
v$ = 104
??$not_@$0A@Utvec3@glm@@@glm@@YA?AU?$tvec3@_N$0A@@0@AEBU10@@Z PROC ; glm::not_<0,glm::tvec3>, COMDAT

; 95   : 	{

$LN8:
	mov	QWORD PTR [rsp+16], rdx
	mov	QWORD PTR [rsp+8], rcx
	push	rsi
	push	rdi
	sub	rsp, 72					; 00000048H
	lea	rdi, QWORD PTR [rsp+32]
	mov	ecx, 10
	mov	eax, -858993460				; ccccccccH
	rep stosd
	mov	rcx, QWORD PTR [rsp+96]

; 96   : 		vecType<bool, P> Result(uninitialize);

	xor	edx, edx
	lea	rcx, QWORD PTR Result$[rsp]
	call	??0?$tvec3@_N$0A@@glm@@QEAA@W4ctor@1@@Z	; glm::tvec3<bool,0>::tvec3<bool,0>

; 97   : 		for(length_t i = 0; i < v.length(); ++i)

	mov	DWORD PTR i$4[rsp], 0
	jmp	SHORT $LN4@not_
$LN2@not_:
	mov	eax, DWORD PTR i$4[rsp]
	inc	eax
	mov	DWORD PTR i$4[rsp], eax
$LN4@not_:
	call	?length@?$tvec3@_N$0A@@glm@@SAHXZ	; glm::tvec3<bool,0>::length
	cmp	DWORD PTR i$4[rsp], eax
	jge	SHORT $LN3@not_

; 98   : 			Result[i] = !v[i];

	mov	edx, DWORD PTR i$4[rsp]
	mov	rcx, QWORD PTR v$[rsp]
	call	??A?$tvec3@_N$0A@@glm@@QEBAAEB_NH@Z	; glm::tvec3<bool,0>::operator[]
	movzx	eax, BYTE PTR [rax]
	test	eax, eax
	jne	SHORT $LN6@not_
	mov	DWORD PTR tv77[rsp], 1
	jmp	SHORT $LN7@not_
$LN6@not_:
	mov	DWORD PTR tv77[rsp], 0
$LN7@not_:
	mov	edx, DWORD PTR i$4[rsp]
	lea	rcx, QWORD PTR Result$[rsp]
	call	??A?$tvec3@_N$0A@@glm@@QEAAAEA_NH@Z	; glm::tvec3<bool,0>::operator[]
	movzx	ecx, BYTE PTR tv77[rsp]
	mov	BYTE PTR [rax], cl
	jmp	SHORT $LN2@not_
$LN3@not_:

; 99   : 		return Result;

	lea	rax, QWORD PTR Result$[rsp]
	mov	rdi, QWORD PTR __$ReturnUdt$[rsp]
	mov	rsi, rax
	mov	ecx, 3
	rep movsb
	mov	rax, QWORD PTR __$ReturnUdt$[rsp]

; 100  : 	}

	mov	rdi, rax
	mov	rcx, rsp
	lea	rdx, OFFSET FLAT:??$not_@$0A@Utvec3@glm@@@glm@@YA?AU?$tvec3@_N$0A@@0@AEBU10@@Z$rtcFrameData
	call	_RTC_CheckStackVars
	mov	rax, rdi
	add	rsp, 72					; 00000048H
	pop	rdi
	pop	rsi
	ret	0
??$not_@$0A@Utvec3@glm@@@glm@@YA?AU?$tvec3@_N$0A@@0@AEBU10@@Z ENDP ; glm::not_<0,glm::tvec3>
_TEXT	ENDS
; Function compile flags: /Odtp /RTCsu
; File C:\Users\ksart\OneDrive\Desktop\FlappyBird\libraries\external\glm\glm\detail\type_vec3.inl
;	COMDAT ??0?$tvec3@_N$0A@@glm@@QEAA@_N@Z
_TEXT	SEGMENT
this$ = 16
scalar$ = 24
??0?$tvec3@_N$0A@@glm@@QEAA@_N@Z PROC			; glm::tvec3<bool,0>::tvec3<bool,0>, COMDAT

; 65   : 	{}

$LN3:
	mov	BYTE PTR [rsp+16], dl
	mov	QWORD PTR [rsp+8], rcx
	push	rdi

; 64   : 		: x(scalar), y(scalar), z(scalar)

	mov	rax, QWORD PTR this$[rsp]
	movzx	ecx, BYTE PTR scalar$[rsp]
	mov	BYTE PTR [rax], cl
	mov	rax, QWORD PTR this$[rsp]
	movzx	ecx, BYTE PTR scalar$[rsp]
	mov	BYTE PTR [rax+1], cl
	mov	rax, QWORD PTR this$[rsp]
	movzx	ecx, BYTE PTR scalar$[rsp]
	mov	BYTE PTR [rax+2], cl

; 65   : 	{}

	mov	rax, QWORD PTR this$[rsp]
	pop	rdi
	ret	0
??0?$tvec3@_N$0A@@glm@@QEAA@_N@Z ENDP			; glm::tvec3<bool,0>::tvec3<bool,0>
_TEXT	ENDS
; Function compile flags: /Odtp /RTCsu
; File C:\Users\ksart\OneDrive\Desktop\FlappyBird\libraries\external\glm\glm\detail\type_vec3.inl
;	COMDAT ??0?$tvec3@_N$0A@@glm@@QEAA@W4ctor@1@@Z
_TEXT	SEGMENT
this$ = 16
__formal$ = 24
??0?$tvec3@_N$0A@@glm@@QEAA@W4ctor@1@@Z PROC		; glm::tvec3<bool,0>::tvec3<bool,0>, COMDAT

; 60   : 	{}

$LN3:
	mov	DWORD PTR [rsp+16], edx
	mov	QWORD PTR [rsp+8], rcx
	push	rdi
	mov	rax, QWORD PTR this$[rsp]
	pop	rdi
	ret	0
??0?$tvec3@_N$0A@@glm@@QEAA@W4ctor@1@@Z ENDP		; glm::tvec3<bool,0>::tvec3<bool,0>
_TEXT	ENDS
; Function compile flags: /Odtp /RTCsu
; File C:\Users\ksart\OneDrive\Desktop\FlappyBird\libraries\external\glm\glm\detail\type_vec3.inl
;	COMDAT ??A?$tvec3@_N$0A@@glm@@QEBAAEB_NH@Z
_TEXT	SEGMENT
this$ = 48
i$ = 56
??A?$tvec3@_N$0A@@glm@@QEBAAEB_NH@Z PROC		; glm::tvec3<bool,0>::operator[], COMDAT

; 151  : 	{

$LN5:
	mov	DWORD PTR [rsp+16], edx
	mov	QWORD PTR [rsp+8], rcx
	push	rdi
	sub	rsp, 32					; 00000020H

; 152  : 		assert(i >= 0 && i < this->length());

	cmp	DWORD PTR i$[rsp], 0
	jl	SHORT $LN3@operator
	call	?length@?$tvec3@_N$0A@@glm@@SAHXZ	; glm::tvec3<bool,0>::length
	cmp	DWORD PTR i$[rsp], eax
	jl	SHORT $LN4@operator
$LN3@operator:
	mov	r8d, 152				; 00000098H
	lea	rdx, OFFSET FLAT:??_C@_1LG@MEJFBKPC@?$AAC?$AA?3?$AA?2?$AAU?$AAs?$AAe?$AAr?$AAs?$AA?2?$AAk?$AAs?$AAa?$AAr?$AAt?$AA?2@
	lea	rcx, OFFSET FLAT:??_C@_1DK@BGNCJAPL@?$AAi?$AA?5?$AA?$DO?$AA?$DN?$AA?5?$AA0?$AA?5?$AA?$CG?$AA?$CG?$AA?5?$AAi?$AA?5?$AA?$DM?$AA?5?$AAt@
	call	QWORD PTR __imp__wassert
	xor	eax, eax
$LN4@operator:

; 153  : 		return (&x)[i];

	movsxd	rax, DWORD PTR i$[rsp]
	mov	rcx, QWORD PTR this$[rsp]
	add	rcx, rax
	mov	rax, rcx

; 154  : 	}

	add	rsp, 32					; 00000020H
	pop	rdi
	ret	0
??A?$tvec3@_N$0A@@glm@@QEBAAEB_NH@Z ENDP		; glm::tvec3<bool,0>::operator[]
_TEXT	ENDS
; Function compile flags: /Odtp /RTCsu
; File C:\Users\ksart\OneDrive\Desktop\FlappyBird\libraries\external\glm\glm\detail\type_vec3.inl
;	COMDAT ??A?$tvec3@_N$0A@@glm@@QEAAAEA_NH@Z
_TEXT	SEGMENT
this$ = 48
i$ = 56
??A?$tvec3@_N$0A@@glm@@QEAAAEA_NH@Z PROC		; glm::tvec3<bool,0>::operator[], COMDAT

; 144  : 	{

$LN5:
	mov	DWORD PTR [rsp+16], edx
	mov	QWORD PTR [rsp+8], rcx
	push	rdi
	sub	rsp, 32					; 00000020H

; 145  : 		assert(i >= 0 && i < this->length());

	cmp	DWORD PTR i$[rsp], 0
	jl	SHORT $LN3@operator
	call	?length@?$tvec3@_N$0A@@glm@@SAHXZ	; glm::tvec3<bool,0>::length
	cmp	DWORD PTR i$[rsp], eax
	jl	SHORT $LN4@operator
$LN3@operator:
	mov	r8d, 145				; 00000091H
	lea	rdx, OFFSET FLAT:??_C@_1LG@MEJFBKPC@?$AAC?$AA?3?$AA?2?$AAU?$AAs?$AAe?$AAr?$AAs?$AA?2?$AAk?$AAs?$AAa?$AAr?$AAt?$AA?2@
	lea	rcx, OFFSET FLAT:??_C@_1DK@BGNCJAPL@?$AAi?$AA?5?$AA?$DO?$AA?$DN?$AA?5?$AA0?$AA?5?$AA?$CG?$AA?$CG?$AA?5?$AAi?$AA?5?$AA?$DM?$AA?5?$AAt@
	call	QWORD PTR __imp__wassert
	xor	eax, eax
$LN4@operator:

; 146  : 		return (&x)[i];

	movsxd	rax, DWORD PTR i$[rsp]
	mov	rcx, QWORD PTR this$[rsp]
	add	rcx, rax
	mov	rax, rcx

; 147  : 	}

	add	rsp, 32					; 00000020H
	pop	rdi
	ret	0
??A?$tvec3@_N$0A@@glm@@QEAAAEA_NH@Z ENDP		; glm::tvec3<bool,0>::operator[]
_TEXT	ENDS
; Function compile flags: /Odtp /RTCsu
; File C:\Users\ksart\OneDrive\Desktop\FlappyBird\libraries\external\glm\glm\detail\type_vec3.hpp
;	COMDAT ?length@?$tvec3@_N$0A@@glm@@SAHXZ
_TEXT	SEGMENT
?length@?$tvec3@_N$0A@@glm@@SAHXZ PROC			; glm::tvec3<bool,0>::length, COMDAT

; 82   : 		GLM_FUNC_DECL static length_type length(){return 3;}

$LN3:
	push	rdi
	mov	eax, 3
	pop	rdi
	ret	0
?length@?$tvec3@_N$0A@@glm@@SAHXZ ENDP			; glm::tvec3<bool,0>::length
_TEXT	ENDS
; Function compile flags: /Odtp /RTCsu
; File C:\Users\ksart\OneDrive\Desktop\FlappyBird\libraries\external\glm\glm\detail\func_vector_relational.inl
;	COMDAT ??$all@$0A@Utvec2@glm@@@glm@@YA_NAEBU?$tvec2@_N$0A@@0@@Z
_TEXT	SEGMENT
Result$ = 32
i$1 = 36
tv74 = 40
v$ = 64
??$all@$0A@Utvec2@glm@@@glm@@YA_NAEBU?$tvec2@_N$0A@@0@@Z PROC ; glm::all<0,glm::tvec2>, COMDAT

; 86   : 	{

$LN8:
	mov	QWORD PTR [rsp+8], rcx
	push	rdi
	sub	rsp, 48					; 00000030H

; 87   : 		bool Result = true;

	mov	BYTE PTR Result$[rsp], 1

; 88   : 		for(length_t i = 0; i < v.length(); ++i)

	mov	DWORD PTR i$1[rsp], 0
	jmp	SHORT $LN4@all
$LN2@all:
	mov	eax, DWORD PTR i$1[rsp]
	inc	eax
	mov	DWORD PTR i$1[rsp], eax
$LN4@all:
	call	?length@?$tvec2@_N$0A@@glm@@SAHXZ	; glm::tvec2<bool,0>::length
	cmp	DWORD PTR i$1[rsp], eax
	jge	SHORT $LN3@all

; 89   : 			Result = Result && v[i];

	movzx	eax, BYTE PTR Result$[rsp]
	test	eax, eax
	je	SHORT $LN6@all
	mov	edx, DWORD PTR i$1[rsp]
	mov	rcx, QWORD PTR v$[rsp]
	call	??A?$tvec2@_N$0A@@glm@@QEBAAEB_NH@Z	; glm::tvec2<bool,0>::operator[]
	movzx	eax, BYTE PTR [rax]
	test	eax, eax
	je	SHORT $LN6@all
	mov	DWORD PTR tv74[rsp], 1
	jmp	SHORT $LN7@all
$LN6@all:
	mov	DWORD PTR tv74[rsp], 0
$LN7@all:
	movzx	eax, BYTE PTR tv74[rsp]
	mov	BYTE PTR Result$[rsp], al
	jmp	SHORT $LN2@all
$LN3@all:

; 90   : 		return Result;

	movzx	eax, BYTE PTR Result$[rsp]

; 91   : 	}

	add	rsp, 48					; 00000030H
	pop	rdi
	ret	0
??$all@$0A@Utvec2@glm@@@glm@@YA_NAEBU?$tvec2@_N$0A@@0@@Z ENDP ; glm::all<0,glm::tvec2>
_TEXT	ENDS
; Function compile flags: /Odtp /RTCsu
; File C:\Users\ksart\OneDrive\Desktop\FlappyBird\libraries\external\glm\glm\detail\func_vector_relational.inl
;	COMDAT ??$not_@$0A@Utvec2@glm@@@glm@@YA?AU?$tvec2@_N$0A@@0@AEBU10@@Z
_TEXT	SEGMENT
Result$ = 36
i$4 = 52
tv77 = 56
__$ReturnUdt$ = 80
v$ = 88
??$not_@$0A@Utvec2@glm@@@glm@@YA?AU?$tvec2@_N$0A@@0@AEBU10@@Z PROC ; glm::not_<0,glm::tvec2>, COMDAT

; 95   : 	{

$LN8:
	mov	QWORD PTR [rsp+16], rdx
	mov	QWORD PTR [rsp+8], rcx
	push	rdi
	sub	rsp, 64					; 00000040H
	lea	rdi, QWORD PTR [rsp+32]
	mov	ecx, 8
	mov	eax, -858993460				; ccccccccH
	rep stosd
	mov	rcx, QWORD PTR [rsp+80]

; 96   : 		vecType<bool, P> Result(uninitialize);

	xor	edx, edx
	lea	rcx, QWORD PTR Result$[rsp]
	call	??0?$tvec2@_N$0A@@glm@@QEAA@W4ctor@1@@Z	; glm::tvec2<bool,0>::tvec2<bool,0>

; 97   : 		for(length_t i = 0; i < v.length(); ++i)

	mov	DWORD PTR i$4[rsp], 0
	jmp	SHORT $LN4@not_
$LN2@not_:
	mov	eax, DWORD PTR i$4[rsp]
	inc	eax
	mov	DWORD PTR i$4[rsp], eax
$LN4@not_:
	call	?length@?$tvec2@_N$0A@@glm@@SAHXZ	; glm::tvec2<bool,0>::length
	cmp	DWORD PTR i$4[rsp], eax
	jge	SHORT $LN3@not_

; 98   : 			Result[i] = !v[i];

	mov	edx, DWORD PTR i$4[rsp]
	mov	rcx, QWORD PTR v$[rsp]
	call	??A?$tvec2@_N$0A@@glm@@QEBAAEB_NH@Z	; glm::tvec2<bool,0>::operator[]
	movzx	eax, BYTE PTR [rax]
	test	eax, eax
	jne	SHORT $LN6@not_
	mov	DWORD PTR tv77[rsp], 1
	jmp	SHORT $LN7@not_
$LN6@not_:
	mov	DWORD PTR tv77[rsp], 0
$LN7@not_:
	mov	edx, DWORD PTR i$4[rsp]
	lea	rcx, QWORD PTR Result$[rsp]
	call	??A?$tvec2@_N$0A@@glm@@QEAAAEA_NH@Z	; glm::tvec2<bool,0>::operator[]
	movzx	ecx, BYTE PTR tv77[rsp]
	mov	BYTE PTR [rax], cl
	jmp	SHORT $LN2@not_
$LN3@not_:

; 99   : 		return Result;

	mov	rax, QWORD PTR __$ReturnUdt$[rsp]
	movzx	ecx, WORD PTR Result$[rsp]
	mov	WORD PTR [rax], cx
	mov	rax, QWORD PTR __$ReturnUdt$[rsp]

; 100  : 	}

	mov	rdi, rax
	mov	rcx, rsp
	lea	rdx, OFFSET FLAT:??$not_@$0A@Utvec2@glm@@@glm@@YA?AU?$tvec2@_N$0A@@0@AEBU10@@Z$rtcFrameData
	call	_RTC_CheckStackVars
	mov	rax, rdi
	add	rsp, 64					; 00000040H
	pop	rdi
	ret	0
??$not_@$0A@Utvec2@glm@@@glm@@YA?AU?$tvec2@_N$0A@@0@AEBU10@@Z ENDP ; glm::not_<0,glm::tvec2>
_TEXT	ENDS
; Function compile flags: /Odtp /RTCsu
; File C:\Users\ksart\OneDrive\Desktop\FlappyBird\libraries\external\glm\glm\detail\type_vec2.inl
;	COMDAT ??0?$tvec2@_N$0A@@glm@@QEAA@_N@Z
_TEXT	SEGMENT
this$ = 16
scalar$ = 24
??0?$tvec2@_N$0A@@glm@@QEAA@_N@Z PROC			; glm::tvec2<bool,0>::tvec2<bool,0>, COMDAT

; 52   : 	{}

$LN3:
	mov	BYTE PTR [rsp+16], dl
	mov	QWORD PTR [rsp+8], rcx
	push	rdi

; 51   : 		: x(scalar), y(scalar)

	mov	rax, QWORD PTR this$[rsp]
	movzx	ecx, BYTE PTR scalar$[rsp]
	mov	BYTE PTR [rax], cl
	mov	rax, QWORD PTR this$[rsp]
	movzx	ecx, BYTE PTR scalar$[rsp]
	mov	BYTE PTR [rax+1], cl

; 52   : 	{}

	mov	rax, QWORD PTR this$[rsp]
	pop	rdi
	ret	0
??0?$tvec2@_N$0A@@glm@@QEAA@_N@Z ENDP			; glm::tvec2<bool,0>::tvec2<bool,0>
_TEXT	ENDS
; Function compile flags: /Odtp /RTCsu
; File C:\Users\ksart\OneDrive\Desktop\FlappyBird\libraries\external\glm\glm\detail\type_vec2.inl
;	COMDAT ??0?$tvec2@_N$0A@@glm@@QEAA@W4ctor@1@@Z
_TEXT	SEGMENT
this$ = 16
__formal$ = 24
??0?$tvec2@_N$0A@@glm@@QEAA@W4ctor@1@@Z PROC		; glm::tvec2<bool,0>::tvec2<bool,0>, COMDAT

; 47   : 	{}

$LN3:
	mov	DWORD PTR [rsp+16], edx
	mov	QWORD PTR [rsp+8], rcx
	push	rdi
	mov	rax, QWORD PTR this$[rsp]
	pop	rdi
	ret	0
??0?$tvec2@_N$0A@@glm@@QEAA@W4ctor@1@@Z ENDP		; glm::tvec2<bool,0>::tvec2<bool,0>
_TEXT	ENDS
; Function compile flags: /Odtp /RTCsu
; File C:\Users\ksart\OneDrive\Desktop\FlappyBird\libraries\external\glm\glm\detail\type_vec2.inl
;	COMDAT ??A?$tvec2@_N$0A@@glm@@QEBAAEB_NH@Z
_TEXT	SEGMENT
this$ = 48
i$ = 56
??A?$tvec2@_N$0A@@glm@@QEBAAEB_NH@Z PROC		; glm::tvec2<bool,0>::operator[], COMDAT

; 109  : 	{

$LN5:
	mov	DWORD PTR [rsp+16], edx
	mov	QWORD PTR [rsp+8], rcx
	push	rdi
	sub	rsp, 32					; 00000020H

; 110  : 		assert(i >= 0 && i < this->length());

	cmp	DWORD PTR i$[rsp], 0
	jl	SHORT $LN3@operator
	call	?length@?$tvec2@_N$0A@@glm@@SAHXZ	; glm::tvec2<bool,0>::length
	cmp	DWORD PTR i$[rsp], eax
	jl	SHORT $LN4@operator
$LN3@operator:
	mov	r8d, 110				; 0000006eH
	lea	rdx, OFFSET FLAT:??_C@_1LG@FPDAFGJN@?$AAC?$AA?3?$AA?2?$AAU?$AAs?$AAe?$AAr?$AAs?$AA?2?$AAk?$AAs?$AAa?$AAr?$AAt?$AA?2@
	lea	rcx, OFFSET FLAT:??_C@_1DK@BGNCJAPL@?$AAi?$AA?5?$AA?$DO?$AA?$DN?$AA?5?$AA0?$AA?5?$AA?$CG?$AA?$CG?$AA?5?$AAi?$AA?5?$AA?$DM?$AA?5?$AAt@
	call	QWORD PTR __imp__wassert
	xor	eax, eax
$LN4@operator:

; 111  : 		return (&x)[i];

	movsxd	rax, DWORD PTR i$[rsp]
	mov	rcx, QWORD PTR this$[rsp]
	add	rcx, rax
	mov	rax, rcx

; 112  : 	}

	add	rsp, 32					; 00000020H
	pop	rdi
	ret	0
??A?$tvec2@_N$0A@@glm@@QEBAAEB_NH@Z ENDP		; glm::tvec2<bool,0>::operator[]
_TEXT	ENDS
; Function compile flags: /Odtp /RTCsu
; File C:\Users\ksart\OneDrive\Desktop\FlappyBird\libraries\external\glm\glm\detail\type_vec2.inl
;	COMDAT ??A?$tvec2@_N$0A@@glm@@QEAAAEA_NH@Z
_TEXT	SEGMENT
this$ = 48
i$ = 56
??A?$tvec2@_N$0A@@glm@@QEAAAEA_NH@Z PROC		; glm::tvec2<bool,0>::operator[], COMDAT

; 102  : 	{

$LN5:
	mov	DWORD PTR [rsp+16], edx
	mov	QWORD PTR [rsp+8], rcx
	push	rdi
	sub	rsp, 32					; 00000020H

; 103  : 		assert(i >= 0 && i < this->length());

	cmp	DWORD PTR i$[rsp], 0
	jl	SHORT $LN3@operator
	call	?length@?$tvec2@_N$0A@@glm@@SAHXZ	; glm::tvec2<bool,0>::length
	cmp	DWORD PTR i$[rsp], eax
	jl	SHORT $LN4@operator
$LN3@operator:
	mov	r8d, 103				; 00000067H
	lea	rdx, OFFSET FLAT:??_C@_1LG@FPDAFGJN@?$AAC?$AA?3?$AA?2?$AAU?$AAs?$AAe?$AAr?$AAs?$AA?2?$AAk?$AAs?$AAa?$AAr?$AAt?$AA?2@
	lea	rcx, OFFSET FLAT:??_C@_1DK@BGNCJAPL@?$AAi?$AA?5?$AA?$DO?$AA?$DN?$AA?5?$AA0?$AA?5?$AA?$CG?$AA?$CG?$AA?5?$AAi?$AA?5?$AA?$DM?$AA?5?$AAt@
	call	QWORD PTR __imp__wassert
	xor	eax, eax
$LN4@operator:

; 104  : 		return (&x)[i];

	movsxd	rax, DWORD PTR i$[rsp]
	mov	rcx, QWORD PTR this$[rsp]
	add	rcx, rax
	mov	rax, rcx

; 105  : 	}

	add	rsp, 32					; 00000020H
	pop	rdi
	ret	0
??A?$tvec2@_N$0A@@glm@@QEAAAEA_NH@Z ENDP		; glm::tvec2<bool,0>::operator[]
_TEXT	ENDS
; Function compile flags: /Odtp /RTCsu
; File C:\Users\ksart\OneDrive\Desktop\FlappyBird\libraries\external\glm\glm\detail\type_vec2.hpp
;	COMDAT ?length@?$tvec2@_N$0A@@glm@@SAHXZ
_TEXT	SEGMENT
?length@?$tvec2@_N$0A@@glm@@SAHXZ PROC			; glm::tvec2<bool,0>::length, COMDAT

; 82   : 		GLM_FUNC_DECL static length_type length(){return 2;}

$LN3:
	push	rdi
	mov	eax, 2
	pop	rdi
	ret	0
?length@?$tvec2@_N$0A@@glm@@SAHXZ ENDP			; glm::tvec2<bool,0>::length
_TEXT	ENDS
; Function compile flags: /Odtp /RTCsu
; File C:\Users\ksart\OneDrive\Desktop\FlappyBird\libraries\external\glm\glm\detail\func_vector_relational.inl
;	COMDAT ??$all@$0A@Utvec1@glm@@@glm@@YA_NAEBU?$tvec1@_N$0A@@0@@Z
_TEXT	SEGMENT
Result$ = 32
i$1 = 36
tv74 = 40
v$ = 64
??$all@$0A@Utvec1@glm@@@glm@@YA_NAEBU?$tvec1@_N$0A@@0@@Z PROC ; glm::all<0,glm::tvec1>, COMDAT

; 86   : 	{

$LN8:
	mov	QWORD PTR [rsp+8], rcx
	push	rdi
	sub	rsp, 48					; 00000030H

; 87   : 		bool Result = true;

	mov	BYTE PTR Result$[rsp], 1

; 88   : 		for(length_t i = 0; i < v.length(); ++i)

	mov	DWORD PTR i$1[rsp], 0
	jmp	SHORT $LN4@all
$LN2@all:
	mov	eax, DWORD PTR i$1[rsp]
	inc	eax
	mov	DWORD PTR i$1[rsp], eax
$LN4@all:
	call	?length@?$tvec1@_N$0A@@glm@@SAHXZ	; glm::tvec1<bool,0>::length
	cmp	DWORD PTR i$1[rsp], eax
	jge	SHORT $LN3@all

; 89   : 			Result = Result && v[i];

	movzx	eax, BYTE PTR Result$[rsp]
	test	eax, eax
	je	SHORT $LN6@all
	mov	edx, DWORD PTR i$1[rsp]
	mov	rcx, QWORD PTR v$[rsp]
	call	??A?$tvec1@_N$0A@@glm@@QEBAAEB_NH@Z	; glm::tvec1<bool,0>::operator[]
	movzx	eax, BYTE PTR [rax]
	test	eax, eax
	je	SHORT $LN6@all
	mov	DWORD PTR tv74[rsp], 1
	jmp	SHORT $LN7@all
$LN6@all:
	mov	DWORD PTR tv74[rsp], 0
$LN7@all:
	movzx	eax, BYTE PTR tv74[rsp]
	mov	BYTE PTR Result$[rsp], al
	jmp	SHORT $LN2@all
$LN3@all:

; 90   : 		return Result;

	movzx	eax, BYTE PTR Result$[rsp]

; 91   : 	}

	add	rsp, 48					; 00000030H
	pop	rdi
	ret	0
??$all@$0A@Utvec1@glm@@@glm@@YA_NAEBU?$tvec1@_N$0A@@0@@Z ENDP ; glm::all<0,glm::tvec1>
_TEXT	ENDS
; Function compile flags: /Odtp /RTCsu
; File C:\Users\ksart\OneDrive\Desktop\FlappyBird\libraries\external\glm\glm\detail\func_vector_relational.inl
;	COMDAT ??$not_@$0A@Utvec1@glm@@@glm@@YA?AU?$tvec1@_N$0A@@0@AEBU10@@Z
_TEXT	SEGMENT
Result$ = 36
i$4 = 52
tv77 = 56
__$ReturnUdt$ = 80
v$ = 88
??$not_@$0A@Utvec1@glm@@@glm@@YA?AU?$tvec1@_N$0A@@0@AEBU10@@Z PROC ; glm::not_<0,glm::tvec1>, COMDAT

; 95   : 	{

$LN8:
	mov	QWORD PTR [rsp+16], rdx
	mov	QWORD PTR [rsp+8], rcx
	push	rdi
	sub	rsp, 64					; 00000040H
	lea	rdi, QWORD PTR [rsp+32]
	mov	ecx, 8
	mov	eax, -858993460				; ccccccccH
	rep stosd
	mov	rcx, QWORD PTR [rsp+80]

; 96   : 		vecType<bool, P> Result(uninitialize);

	xor	edx, edx
	lea	rcx, QWORD PTR Result$[rsp]
	call	??0?$tvec1@_N$0A@@glm@@QEAA@W4ctor@1@@Z	; glm::tvec1<bool,0>::tvec1<bool,0>

; 97   : 		for(length_t i = 0; i < v.length(); ++i)

	mov	DWORD PTR i$4[rsp], 0
	jmp	SHORT $LN4@not_
$LN2@not_:
	mov	eax, DWORD PTR i$4[rsp]
	inc	eax
	mov	DWORD PTR i$4[rsp], eax
$LN4@not_:
	call	?length@?$tvec1@_N$0A@@glm@@SAHXZ	; glm::tvec1<bool,0>::length
	cmp	DWORD PTR i$4[rsp], eax
	jge	SHORT $LN3@not_

; 98   : 			Result[i] = !v[i];

	mov	edx, DWORD PTR i$4[rsp]
	mov	rcx, QWORD PTR v$[rsp]
	call	??A?$tvec1@_N$0A@@glm@@QEBAAEB_NH@Z	; glm::tvec1<bool,0>::operator[]
	movzx	eax, BYTE PTR [rax]
	test	eax, eax
	jne	SHORT $LN6@not_
	mov	DWORD PTR tv77[rsp], 1
	jmp	SHORT $LN7@not_
$LN6@not_:
	mov	DWORD PTR tv77[rsp], 0
$LN7@not_:
	mov	edx, DWORD PTR i$4[rsp]
	lea	rcx, QWORD PTR Result$[rsp]
	call	??A?$tvec1@_N$0A@@glm@@QEAAAEA_NH@Z	; glm::tvec1<bool,0>::operator[]
	movzx	ecx, BYTE PTR tv77[rsp]
	mov	BYTE PTR [rax], cl
	jmp	SHORT $LN2@not_
$LN3@not_:

; 99   : 		return Result;

	mov	rax, QWORD PTR __$ReturnUdt$[rsp]
	movzx	ecx, BYTE PTR Result$[rsp]
	mov	BYTE PTR [rax], cl
	mov	rax, QWORD PTR __$ReturnUdt$[rsp]

; 100  : 	}

	mov	rdi, rax
	mov	rcx, rsp
	lea	rdx, OFFSET FLAT:??$not_@$0A@Utvec1@glm@@@glm@@YA?AU?$tvec1@_N$0A@@0@AEBU10@@Z$rtcFrameData
	call	_RTC_CheckStackVars
	mov	rax, rdi
	add	rsp, 64					; 00000040H
	pop	rdi
	ret	0
??$not_@$0A@Utvec1@glm@@@glm@@YA?AU?$tvec1@_N$0A@@0@AEBU10@@Z ENDP ; glm::not_<0,glm::tvec1>
_TEXT	ENDS
; Function compile flags: /Odtp /RTCsu
; File C:\Users\ksart\OneDrive\Desktop\FlappyBird\libraries\external\glm\glm\detail\type_vec1.inl
;	COMDAT ??0?$tvec1@_N$0A@@glm@@QEAA@_N@Z
_TEXT	SEGMENT
this$ = 16
scalar$ = 24
??0?$tvec1@_N$0A@@glm@@QEAA@_N@Z PROC			; glm::tvec1<bool,0>::tvec1<bool,0>, COMDAT

; 39   : 	{}

$LN3:
	mov	BYTE PTR [rsp+16], dl
	mov	QWORD PTR [rsp+8], rcx
	push	rdi

; 38   : 		: x(scalar)

	mov	rax, QWORD PTR this$[rsp]
	movzx	ecx, BYTE PTR scalar$[rsp]
	mov	BYTE PTR [rax], cl

; 39   : 	{}

	mov	rax, QWORD PTR this$[rsp]
	pop	rdi
	ret	0
??0?$tvec1@_N$0A@@glm@@QEAA@_N@Z ENDP			; glm::tvec1<bool,0>::tvec1<bool,0>
_TEXT	ENDS
; Function compile flags: /Odtp /RTCsu
; File C:\Users\ksart\OneDrive\Desktop\FlappyBird\libraries\external\glm\glm\detail\type_vec1.inl
;	COMDAT ??0?$tvec1@_N$0A@@glm@@QEAA@W4ctor@1@@Z
_TEXT	SEGMENT
this$ = 16
__formal$ = 24
??0?$tvec1@_N$0A@@glm@@QEAA@W4ctor@1@@Z PROC		; glm::tvec1<bool,0>::tvec1<bool,0>, COMDAT

; 34   : 	{}

$LN3:
	mov	DWORD PTR [rsp+16], edx
	mov	QWORD PTR [rsp+8], rcx
	push	rdi
	mov	rax, QWORD PTR this$[rsp]
	pop	rdi
	ret	0
??0?$tvec1@_N$0A@@glm@@QEAA@W4ctor@1@@Z ENDP		; glm::tvec1<bool,0>::tvec1<bool,0>
_TEXT	ENDS
; Function compile flags: /Odtp /RTCsu
; File C:\Users\ksart\OneDrive\Desktop\FlappyBird\libraries\external\glm\glm\detail\type_vec1.inl
;	COMDAT ??A?$tvec1@_N$0A@@glm@@QEBAAEB_NH@Z
_TEXT	SEGMENT
this$ = 48
i$ = 56
??A?$tvec1@_N$0A@@glm@@QEBAAEB_NH@Z PROC		; glm::tvec1<bool,0>::operator[], COMDAT

; 78   : 	{

$LN5:
	mov	DWORD PTR [rsp+16], edx
	mov	QWORD PTR [rsp+8], rcx
	push	rdi
	sub	rsp, 32					; 00000020H

; 79   : 		assert(i >= 0 && i < this->length());

	cmp	DWORD PTR i$[rsp], 0
	jl	SHORT $LN3@operator
	call	?length@?$tvec1@_N$0A@@glm@@SAHXZ	; glm::tvec1<bool,0>::length
	cmp	DWORD PTR i$[rsp], eax
	jl	SHORT $LN4@operator
$LN3@operator:
	mov	r8d, 79					; 0000004fH
	lea	rdx, OFFSET FLAT:??_C@_1LG@CIKOIEGN@?$AAC?$AA?3?$AA?2?$AAU?$AAs?$AAe?$AAr?$AAs?$AA?2?$AAk?$AAs?$AAa?$AAr?$AAt?$AA?2@
	lea	rcx, OFFSET FLAT:??_C@_1DK@BGNCJAPL@?$AAi?$AA?5?$AA?$DO?$AA?$DN?$AA?5?$AA0?$AA?5?$AA?$CG?$AA?$CG?$AA?5?$AAi?$AA?5?$AA?$DM?$AA?5?$AAt@
	call	QWORD PTR __imp__wassert
	xor	eax, eax
$LN4@operator:

; 80   : 		return (&x)[i];

	movsxd	rax, DWORD PTR i$[rsp]
	mov	rcx, QWORD PTR this$[rsp]
	add	rcx, rax
	mov	rax, rcx

; 81   : 	}

	add	rsp, 32					; 00000020H
	pop	rdi
	ret	0
??A?$tvec1@_N$0A@@glm@@QEBAAEB_NH@Z ENDP		; glm::tvec1<bool,0>::operator[]
_TEXT	ENDS
; Function compile flags: /Odtp /RTCsu
; File C:\Users\ksart\OneDrive\Desktop\FlappyBird\libraries\external\glm\glm\detail\type_vec1.inl
;	COMDAT ??A?$tvec1@_N$0A@@glm@@QEAAAEA_NH@Z
_TEXT	SEGMENT
this$ = 48
i$ = 56
??A?$tvec1@_N$0A@@glm@@QEAAAEA_NH@Z PROC		; glm::tvec1<bool,0>::operator[], COMDAT

; 71   : 	{

$LN5:
	mov	DWORD PTR [rsp+16], edx
	mov	QWORD PTR [rsp+8], rcx
	push	rdi
	sub	rsp, 32					; 00000020H

; 72   : 		assert(i >= 0 && i < this->length());

	cmp	DWORD PTR i$[rsp], 0
	jl	SHORT $LN3@operator
	call	?length@?$tvec1@_N$0A@@glm@@SAHXZ	; glm::tvec1<bool,0>::length
	cmp	DWORD PTR i$[rsp], eax
	jl	SHORT $LN4@operator
$LN3@operator:
	mov	r8d, 72					; 00000048H
	lea	rdx, OFFSET FLAT:??_C@_1LG@CIKOIEGN@?$AAC?$AA?3?$AA?2?$AAU?$AAs?$AAe?$AAr?$AAs?$AA?2?$AAk?$AAs?$AAa?$AAr?$AAt?$AA?2@
	lea	rcx, OFFSET FLAT:??_C@_1DK@BGNCJAPL@?$AAi?$AA?5?$AA?$DO?$AA?$DN?$AA?5?$AA0?$AA?5?$AA?$CG?$AA?$CG?$AA?5?$AAi?$AA?5?$AA?$DM?$AA?5?$AAt@
	call	QWORD PTR __imp__wassert
	xor	eax, eax
$LN4@operator:

; 73   : 		return (&x)[i];

	movsxd	rax, DWORD PTR i$[rsp]
	mov	rcx, QWORD PTR this$[rsp]
	add	rcx, rax
	mov	rax, rcx

; 74   : 	}

	add	rsp, 32					; 00000020H
	pop	rdi
	ret	0
??A?$tvec1@_N$0A@@glm@@QEAAAEA_NH@Z ENDP		; glm::tvec1<bool,0>::operator[]
_TEXT	ENDS
; Function compile flags: /Odtp /RTCsu
; File C:\Users\ksart\OneDrive\Desktop\FlappyBird\libraries\external\glm\glm\detail\type_vec1.hpp
;	COMDAT ?length@?$tvec1@_N$0A@@glm@@SAHXZ
_TEXT	SEGMENT
?length@?$tvec1@_N$0A@@glm@@SAHXZ PROC			; glm::tvec1<bool,0>::length, COMDAT

; 81   : 		GLM_FUNC_DECL static length_type length(){return 1;}

$LN3:
	push	rdi
	mov	eax, 1
	pop	rdi
	ret	0
?length@?$tvec1@_N$0A@@glm@@SAHXZ ENDP			; glm::tvec1<bool,0>::length
_TEXT	ENDS
; Function compile flags: /Odtp /RTCsu
; File C:\Users\ksart\OneDrive\Desktop\FlappyBird\libraries\external\glm\test\core\core_func_vector_relational.cpp
_TEXT	SEGMENT
Error$ = 32
v$7 = 52
v$8 = 84
v$9 = 116
v$10 = 148
$T11 = 164
$T12 = 165
$T13 = 167
$T14 = 170
tv73 = 176
tv84 = 180
tv95 = 184
tv138 = 188
?test_not@@YAHXZ PROC					; test_not

; 8    : {

$LN11:
	push	rdi
	sub	rsp, 192				; 000000c0H
	lea	rdi, QWORD PTR [rsp+32]
	mov	ecx, 40					; 00000028H
	mov	eax, -858993460				; ccccccccH
	rep stosd

; 9    : 	int Error(0);

	mov	DWORD PTR Error$[rsp], 0

; 10   : 
; 11   : 	{
; 12   : 		glm::bvec1 v(false);

	xor	edx, edx
	lea	rcx, QWORD PTR v$7[rsp]
	call	??0?$tvec1@_N$0A@@glm@@QEAA@_N@Z	; glm::tvec1<bool,0>::tvec1<bool,0>

; 13   : 		Error += glm::all(glm::not_(v)) ? 0 : 1;

	lea	rdx, QWORD PTR v$7[rsp]
	lea	rcx, QWORD PTR $T11[rsp]
	call	??$not_@$0A@Utvec1@glm@@@glm@@YA?AU?$tvec1@_N$0A@@0@AEBU10@@Z ; glm::not_<0,glm::tvec1>
	mov	rcx, rax
	call	??$all@$0A@Utvec1@glm@@@glm@@YA_NAEBU?$tvec1@_N$0A@@0@@Z ; glm::all<0,glm::tvec1>
	movzx	eax, al
	test	eax, eax
	je	SHORT $LN3@test_not
	mov	DWORD PTR tv73[rsp], 0
	jmp	SHORT $LN4@test_not
$LN3@test_not:
	mov	DWORD PTR tv73[rsp], 1
$LN4@test_not:
	mov	eax, DWORD PTR tv73[rsp]
	mov	ecx, DWORD PTR Error$[rsp]
	add	ecx, eax
	mov	eax, ecx
	mov	DWORD PTR Error$[rsp], eax

; 14   : 	}
; 15   : 
; 16   : 	{
; 17   : 		glm::bvec2 v(false);

	xor	edx, edx
	lea	rcx, QWORD PTR v$8[rsp]
	call	??0?$tvec2@_N$0A@@glm@@QEAA@_N@Z	; glm::tvec2<bool,0>::tvec2<bool,0>

; 18   : 		Error += glm::all(glm::not_(v)) ? 0 : 1;

	lea	rdx, QWORD PTR v$8[rsp]
	lea	rcx, QWORD PTR $T12[rsp]
	call	??$not_@$0A@Utvec2@glm@@@glm@@YA?AU?$tvec2@_N$0A@@0@AEBU10@@Z ; glm::not_<0,glm::tvec2>
	mov	rcx, rax
	call	??$all@$0A@Utvec2@glm@@@glm@@YA_NAEBU?$tvec2@_N$0A@@0@@Z ; glm::all<0,glm::tvec2>
	movzx	eax, al
	test	eax, eax
	je	SHORT $LN5@test_not
	mov	DWORD PTR tv84[rsp], 0
	jmp	SHORT $LN6@test_not
$LN5@test_not:
	mov	DWORD PTR tv84[rsp], 1
$LN6@test_not:
	mov	eax, DWORD PTR tv84[rsp]
	mov	ecx, DWORD PTR Error$[rsp]
	add	ecx, eax
	mov	eax, ecx
	mov	DWORD PTR Error$[rsp], eax

; 19   : 	}
; 20   : 
; 21   : 	{
; 22   : 		glm::bvec3 v(false);

	xor	edx, edx
	lea	rcx, QWORD PTR v$9[rsp]
	call	??0?$tvec3@_N$0A@@glm@@QEAA@_N@Z	; glm::tvec3<bool,0>::tvec3<bool,0>

; 23   : 		Error += glm::all(glm::not_(v)) ? 0 : 1;

	lea	rdx, QWORD PTR v$9[rsp]
	lea	rcx, QWORD PTR $T13[rsp]
	call	??$not_@$0A@Utvec3@glm@@@glm@@YA?AU?$tvec3@_N$0A@@0@AEBU10@@Z ; glm::not_<0,glm::tvec3>
	mov	rcx, rax
	call	??$all@$0A@Utvec3@glm@@@glm@@YA_NAEBU?$tvec3@_N$0A@@0@@Z ; glm::all<0,glm::tvec3>
	movzx	eax, al
	test	eax, eax
	je	SHORT $LN7@test_not
	mov	DWORD PTR tv95[rsp], 0
	jmp	SHORT $LN8@test_not
$LN7@test_not:
	mov	DWORD PTR tv95[rsp], 1
$LN8@test_not:
	mov	eax, DWORD PTR tv95[rsp]
	mov	ecx, DWORD PTR Error$[rsp]
	add	ecx, eax
	mov	eax, ecx
	mov	DWORD PTR Error$[rsp], eax

; 24   : 	}
; 25   : 	
; 26   : 	{
; 27   : 		glm::bvec4 v(false);

	xor	edx, edx
	lea	rcx, QWORD PTR v$10[rsp]
	call	??0?$tvec4@_N$0A@@glm@@QEAA@_N@Z	; glm::tvec4<bool,0>::tvec4<bool,0>

; 28   : 		Error += glm::all(glm::not_(v)) ? 0 : 1;

	lea	rdx, QWORD PTR v$10[rsp]
	lea	rcx, QWORD PTR $T14[rsp]
	call	??$not_@$0A@Utvec4@glm@@@glm@@YA?AU?$tvec4@_N$0A@@0@AEBU10@@Z ; glm::not_<0,glm::tvec4>
	mov	rcx, rax
	call	??$all@$0A@Utvec4@glm@@@glm@@YA_NAEBU?$tvec4@_N$0A@@0@@Z ; glm::all<0,glm::tvec4>
	movzx	eax, al
	test	eax, eax
	je	SHORT $LN9@test_not
	mov	DWORD PTR tv138[rsp], 0
	jmp	SHORT $LN10@test_not
$LN9@test_not:
	mov	DWORD PTR tv138[rsp], 1
$LN10@test_not:
	mov	eax, DWORD PTR tv138[rsp]
	mov	ecx, DWORD PTR Error$[rsp]
	add	ecx, eax
	mov	eax, ecx
	mov	DWORD PTR Error$[rsp], eax

; 29   : 	}
; 30   : 
; 31   : 	return Error;

	mov	eax, DWORD PTR Error$[rsp]

; 32   : }

	mov	edi, eax
	mov	rcx, rsp
	lea	rdx, OFFSET FLAT:?test_not@@YAHXZ$rtcFrameData
	call	_RTC_CheckStackVars
	mov	eax, edi
	add	rsp, 192				; 000000c0H
	pop	rdi
	ret	0
?test_not@@YAHXZ ENDP					; test_not
_TEXT	ENDS
END
