; Listing generated by Microsoft (R) Optimizing Compiler Version 19.32.31329.0 

include listing.inc

INCLUDELIB MSVCRTD

CONST	SEGMENT
$SG58662 DB	'f32: ', 00H
	ORG $+2
$SG58665 DB	' ', 00H
	ORG $+2
$SG58666 DB	'%d', 00H
	ORG $+1
$SG58674 DB	'10b: ', 00H
	ORG $+2
$SG58676 DB	' ', 00H
	ORG $+2
$SG58677 DB	'%d', 00H
	ORG $+1
$SG58685 DB	'11b: ', 00H
	ORG $+2
$SG58687 DB	' ', 00H
	ORG $+2
$SG58688 DB	'%d', 00H
	ORG $+1
$SG58692 DB	'%2.5f, ', 00H
$SG58693 DB	', ', 00H
	ORG $+1
$SG58694 DB	0aH, 00H
	ORG $+2
$SG69959 DB	'invalid argument', 00H
	ORG $+3
$SG69960 DB	'%s', 00H
	ORG $+1
$SG69964 DB	'"', 00H, 'i', 00H, 'n', 00H, 'v', 00H, 'a', 00H, 'l', 00H
	DB	'i', 00H, 'd', 00H, ' ', 00H, 'a', 00H, 'r', 00H, 'g', 00H, 'u'
	DB	00H, 'm', 00H, 'e', 00H, 'n', 00H, 't', 00H, '"', 00H, 00H, 00H
	ORG $+2
$SG69961 DB	'C:\Program Files\Microsoft Visual Studio\2022\Community\'
	DB	'VC\Tools\MSVC\14.32.31326\include\xmemory', 00H
	ORG $+2
$SG69963 DB	00H, 00H
	ORG $+10
$SG69962 DB	'C', 00H, ':', 00H, '\', 00H, 'P', 00H, 'r', 00H, 'o', 00H
	DB	'g', 00H, 'r', 00H, 'a', 00H, 'm', 00H, ' ', 00H, 'F', 00H, 'i'
	DB	00H, 'l', 00H, 'e', 00H, 's', 00H, '\', 00H, 'M', 00H, 'i', 00H
	DB	'c', 00H, 'r', 00H, 'o', 00H, 's', 00H, 'o', 00H, 'f', 00H, 't'
	DB	00H, ' ', 00H, 'V', 00H, 'i', 00H, 's', 00H, 'u', 00H, 'a', 00H
	DB	'l', 00H, ' ', 00H, 'S', 00H, 't', 00H, 'u', 00H, 'd', 00H, 'i'
	DB	00H, 'o', 00H, '\', 00H, '2', 00H, '0', 00H, '2', 00H, '2', 00H
	DB	'\', 00H, 'C', 00H, 'o', 00H, 'm', 00H, 'm', 00H, 'u', 00H, 'n'
	DB	00H, 'i', 00H, 't', 00H, 'y', 00H, '\', 00H, 'V', 00H, 'C', 00H
	DB	'\', 00H, 'T', 00H, 'o', 00H, 'o', 00H, 'l', 00H, 's', 00H, '\'
	DB	00H, 'M', 00H, 'S', 00H, 'V', 00H, 'C', 00H, '\', 00H, '1', 00H
	DB	'4', 00H, '.', 00H, '3', 00H, '2', 00H, '.', 00H, '3', 00H, '1'
	DB	00H, '3', 00H, '2', 00H, '6', 00H, '\', 00H, 'i', 00H, 'n', 00H
	DB	'c', 00H, 'l', 00H, 'u', 00H, 'd', 00H, 'e', 00H, '\', 00H, 'x'
	DB	00H, 'm', 00H, 'e', 00H, 'm', 00H, 'o', 00H, 'r', 00H, 'y', 00H
	DB	00H, 00H
	ORG $+12
$SG62688 DB	'C', 00H, ':', 00H, '\', 00H, 'U', 00H, 's', 00H, 'e', 00H
	DB	'r', 00H, 's', 00H, '\', 00H, 'k', 00H, 's', 00H, 'a', 00H, 'r'
	DB	00H, 't', 00H, '\', 00H, 'O', 00H, 'n', 00H, 'e', 00H, 'D', 00H
	DB	'r', 00H, 'i', 00H, 'v', 00H, 'e', 00H, '\', 00H, 'D', 00H, 'e'
	DB	00H, 's', 00H, 'k', 00H, 't', 00H, 'o', 00H, 'p', 00H, '\', 00H
	DB	'F', 00H, 'l', 00H, 'a', 00H, 'p', 00H, 'p', 00H, 'y', 00H, 'B'
	DB	00H, 'i', 00H, 'r', 00H, 'd', 00H, '\', 00H, 'l', 00H, 'i', 00H
	DB	'b', 00H, 'r', 00H, 'a', 00H, 'r', 00H, 'i', 00H, 'e', 00H, 's'
	DB	00H, '\', 00H, 'e', 00H, 'x', 00H, 't', 00H, 'e', 00H, 'r', 00H
	DB	'n', 00H, 'a', 00H, 'l', 00H, '\', 00H, 'g', 00H, 'l', 00H, 'm'
	DB	00H, '\', 00H, 't', 00H, 'e', 00H, 's', 00H, 't', 00H, '\', 00H
	DB	'g', 00H, 't', 00H, 'c', 00H, '\', 00H, 'g', 00H, 't', 00H, 'c'
	DB	00H, '_', 00H, 'p', 00H, 'a', 00H, 'c', 00H, 'k', 00H, 'i', 00H
	DB	'n', 00H, 'g', 00H, '.', 00H, 'c', 00H, 'p', 00H, 'p', 00H, 00H
	DB	00H
	ORG $+2
$SG62689 DB	'!', 00H, 'E', 00H, 'r', 00H, 'r', 00H, 'o', 00H, 'r', 00H
	DB	00H, 00H
	ORG $+10
$SG63404 DB	'C', 00H, ':', 00H, '\', 00H, 'U', 00H, 's', 00H, 'e', 00H
	DB	'r', 00H, 's', 00H, '\', 00H, 'k', 00H, 's', 00H, 'a', 00H, 'r'
	DB	00H, 't', 00H, '\', 00H, 'O', 00H, 'n', 00H, 'e', 00H, 'D', 00H
	DB	'r', 00H, 'i', 00H, 'v', 00H, 'e', 00H, '\', 00H, 'D', 00H, 'e'
	DB	00H, 's', 00H, 'k', 00H, 't', 00H, 'o', 00H, 'p', 00H, '\', 00H
	DB	'F', 00H, 'l', 00H, 'a', 00H, 'p', 00H, 'p', 00H, 'y', 00H, 'B'
	DB	00H, 'i', 00H, 'r', 00H, 'd', 00H, '\', 00H, 'l', 00H, 'i', 00H
	DB	'b', 00H, 'r', 00H, 'a', 00H, 'r', 00H, 'i', 00H, 'e', 00H, 's'
	DB	00H, '\', 00H, 'e', 00H, 'x', 00H, 't', 00H, 'e', 00H, 'r', 00H
	DB	'n', 00H, 'a', 00H, 'l', 00H, '\', 00H, 'g', 00H, 'l', 00H, 'm'
	DB	00H, '\', 00H, 't', 00H, 'e', 00H, 's', 00H, 't', 00H, '\', 00H
	DB	'g', 00H, 't', 00H, 'c', 00H, '\', 00H, 'g', 00H, 't', 00H, 'c'
	DB	00H, '_', 00H, 'p', 00H, 'a', 00H, 'c', 00H, 'k', 00H, 'i', 00H
	DB	'n', 00H, 'g', 00H, '.', 00H, 'c', 00H, 'p', 00H, 'p', 00H, 00H
	DB	00H
	ORG $+2
$SG63405 DB	'!', 00H, 'E', 00H, 'r', 00H, 'r', 00H, 'o', 00H, 'r', 00H
	DB	00H, 00H
	ORG $+10
$SG63426 DB	'C', 00H, ':', 00H, '\', 00H, 'U', 00H, 's', 00H, 'e', 00H
	DB	'r', 00H, 's', 00H, '\', 00H, 'k', 00H, 's', 00H, 'a', 00H, 'r'
	DB	00H, 't', 00H, '\', 00H, 'O', 00H, 'n', 00H, 'e', 00H, 'D', 00H
	DB	'r', 00H, 'i', 00H, 'v', 00H, 'e', 00H, '\', 00H, 'D', 00H, 'e'
	DB	00H, 's', 00H, 'k', 00H, 't', 00H, 'o', 00H, 'p', 00H, '\', 00H
	DB	'F', 00H, 'l', 00H, 'a', 00H, 'p', 00H, 'p', 00H, 'y', 00H, 'B'
	DB	00H, 'i', 00H, 'r', 00H, 'd', 00H, '\', 00H, 'l', 00H, 'i', 00H
	DB	'b', 00H, 'r', 00H, 'a', 00H, 'r', 00H, 'i', 00H, 'e', 00H, 's'
	DB	00H, '\', 00H, 'e', 00H, 'x', 00H, 't', 00H, 'e', 00H, 'r', 00H
	DB	'n', 00H, 'a', 00H, 'l', 00H, '\', 00H, 'g', 00H, 'l', 00H, 'm'
	DB	00H, '\', 00H, 't', 00H, 'e', 00H, 's', 00H, 't', 00H, '\', 00H
	DB	'g', 00H, 't', 00H, 'c', 00H, '\', 00H, 'g', 00H, 't', 00H, 'c'
	DB	00H, '_', 00H, 'p', 00H, 'a', 00H, 'c', 00H, 'k', 00H, 'i', 00H
	DB	'n', 00H, 'g', 00H, '.', 00H, 'c', 00H, 'p', 00H, 'p', 00H, 00H
	DB	00H
	ORG $+2
$SG63427 DB	'!', 00H, 'E', 00H, 'r', 00H, 'r', 00H, 'o', 00H, 'r', 00H
	DB	00H, 00H
	ORG $+10
$SG63449 DB	'C', 00H, ':', 00H, '\', 00H, 'U', 00H, 's', 00H, 'e', 00H
	DB	'r', 00H, 's', 00H, '\', 00H, 'k', 00H, 's', 00H, 'a', 00H, 'r'
	DB	00H, 't', 00H, '\', 00H, 'O', 00H, 'n', 00H, 'e', 00H, 'D', 00H
	DB	'r', 00H, 'i', 00H, 'v', 00H, 'e', 00H, '\', 00H, 'D', 00H, 'e'
	DB	00H, 's', 00H, 'k', 00H, 't', 00H, 'o', 00H, 'p', 00H, '\', 00H
	DB	'F', 00H, 'l', 00H, 'a', 00H, 'p', 00H, 'p', 00H, 'y', 00H, 'B'
	DB	00H, 'i', 00H, 'r', 00H, 'd', 00H, '\', 00H, 'l', 00H, 'i', 00H
	DB	'b', 00H, 'r', 00H, 'a', 00H, 'r', 00H, 'i', 00H, 'e', 00H, 's'
	DB	00H, '\', 00H, 'e', 00H, 'x', 00H, 't', 00H, 'e', 00H, 'r', 00H
	DB	'n', 00H, 'a', 00H, 'l', 00H, '\', 00H, 'g', 00H, 'l', 00H, 'm'
	DB	00H, '\', 00H, 't', 00H, 'e', 00H, 's', 00H, 't', 00H, '\', 00H
	DB	'g', 00H, 't', 00H, 'c', 00H, '\', 00H, 'g', 00H, 't', 00H, 'c'
	DB	00H, '_', 00H, 'p', 00H, 'a', 00H, 'c', 00H, 'k', 00H, 'i', 00H
	DB	'n', 00H, 'g', 00H, '.', 00H, 'c', 00H, 'p', 00H, 'p', 00H, 00H
	DB	00H
	ORG $+2
$SG63450 DB	'!', 00H, 'E', 00H, 'r', 00H, 'r', 00H, 'o', 00H, 'r', 00H
	DB	00H, 00H
	ORG $+10
$SG63471 DB	'C', 00H, ':', 00H, '\', 00H, 'U', 00H, 's', 00H, 'e', 00H
	DB	'r', 00H, 's', 00H, '\', 00H, 'k', 00H, 's', 00H, 'a', 00H, 'r'
	DB	00H, 't', 00H, '\', 00H, 'O', 00H, 'n', 00H, 'e', 00H, 'D', 00H
	DB	'r', 00H, 'i', 00H, 'v', 00H, 'e', 00H, '\', 00H, 'D', 00H, 'e'
	DB	00H, 's', 00H, 'k', 00H, 't', 00H, 'o', 00H, 'p', 00H, '\', 00H
	DB	'F', 00H, 'l', 00H, 'a', 00H, 'p', 00H, 'p', 00H, 'y', 00H, 'B'
	DB	00H, 'i', 00H, 'r', 00H, 'd', 00H, '\', 00H, 'l', 00H, 'i', 00H
	DB	'b', 00H, 'r', 00H, 'a', 00H, 'r', 00H, 'i', 00H, 'e', 00H, 's'
	DB	00H, '\', 00H, 'e', 00H, 'x', 00H, 't', 00H, 'e', 00H, 'r', 00H
	DB	'n', 00H, 'a', 00H, 'l', 00H, '\', 00H, 'g', 00H, 'l', 00H, 'm'
	DB	00H, '\', 00H, 't', 00H, 'e', 00H, 's', 00H, 't', 00H, '\', 00H
	DB	'g', 00H, 't', 00H, 'c', 00H, '\', 00H, 'g', 00H, 't', 00H, 'c'
	DB	00H, '_', 00H, 'p', 00H, 'a', 00H, 'c', 00H, 'k', 00H, 'i', 00H
	DB	'n', 00H, 'g', 00H, '.', 00H, 'c', 00H, 'p', 00H, 'p', 00H, 00H
	DB	00H
	ORG $+2
$SG63472 DB	'!', 00H, 'E', 00H, 'r', 00H, 'r', 00H, 'o', 00H, 'r', 00H
	DB	00H, 00H
	ORG $+10
$SG63492 DB	'C', 00H, ':', 00H, '\', 00H, 'U', 00H, 's', 00H, 'e', 00H
	DB	'r', 00H, 's', 00H, '\', 00H, 'k', 00H, 's', 00H, 'a', 00H, 'r'
	DB	00H, 't', 00H, '\', 00H, 'O', 00H, 'n', 00H, 'e', 00H, 'D', 00H
	DB	'r', 00H, 'i', 00H, 'v', 00H, 'e', 00H, '\', 00H, 'D', 00H, 'e'
	DB	00H, 's', 00H, 'k', 00H, 't', 00H, 'o', 00H, 'p', 00H, '\', 00H
	DB	'F', 00H, 'l', 00H, 'a', 00H, 'p', 00H, 'p', 00H, 'y', 00H, 'B'
	DB	00H, 'i', 00H, 'r', 00H, 'd', 00H, '\', 00H, 'l', 00H, 'i', 00H
	DB	'b', 00H, 'r', 00H, 'a', 00H, 'r', 00H, 'i', 00H, 'e', 00H, 's'
	DB	00H, '\', 00H, 'e', 00H, 'x', 00H, 't', 00H, 'e', 00H, 'r', 00H
	DB	'n', 00H, 'a', 00H, 'l', 00H, '\', 00H, 'g', 00H, 'l', 00H, 'm'
	DB	00H, '\', 00H, 't', 00H, 'e', 00H, 's', 00H, 't', 00H, '\', 00H
	DB	'g', 00H, 't', 00H, 'c', 00H, '\', 00H, 'g', 00H, 't', 00H, 'c'
	DB	00H, '_', 00H, 'p', 00H, 'a', 00H, 'c', 00H, 'k', 00H, 'i', 00H
	DB	'n', 00H, 'g', 00H, '.', 00H, 'c', 00H, 'p', 00H, 'p', 00H, 00H
	DB	00H
	ORG $+2
$SG63493 DB	'!', 00H, 'E', 00H, 'r', 00H, 'r', 00H, 'o', 00H, 'r', 00H
	DB	00H, 00H
	ORG $+10
$SG63530 DB	'C', 00H, ':', 00H, '\', 00H, 'U', 00H, 's', 00H, 'e', 00H
	DB	'r', 00H, 's', 00H, '\', 00H, 'k', 00H, 's', 00H, 'a', 00H, 'r'
	DB	00H, 't', 00H, '\', 00H, 'O', 00H, 'n', 00H, 'e', 00H, 'D', 00H
	DB	'r', 00H, 'i', 00H, 'v', 00H, 'e', 00H, '\', 00H, 'D', 00H, 'e'
	DB	00H, 's', 00H, 'k', 00H, 't', 00H, 'o', 00H, 'p', 00H, '\', 00H
	DB	'F', 00H, 'l', 00H, 'a', 00H, 'p', 00H, 'p', 00H, 'y', 00H, 'B'
	DB	00H, 'i', 00H, 'r', 00H, 'd', 00H, '\', 00H, 'l', 00H, 'i', 00H
	DB	'b', 00H, 'r', 00H, 'a', 00H, 'r', 00H, 'i', 00H, 'e', 00H, 's'
	DB	00H, '\', 00H, 'e', 00H, 'x', 00H, 't', 00H, 'e', 00H, 'r', 00H
	DB	'n', 00H, 'a', 00H, 'l', 00H, '\', 00H, 'g', 00H, 'l', 00H, 'm'
	DB	00H, '\', 00H, 't', 00H, 'e', 00H, 's', 00H, 't', 00H, '\', 00H
	DB	'g', 00H, 't', 00H, 'c', 00H, '\', 00H, 'g', 00H, 't', 00H, 'c'
	DB	00H, '_', 00H, 'p', 00H, 'a', 00H, 'c', 00H, 'k', 00H, 'i', 00H
	DB	'n', 00H, 'g', 00H, '.', 00H, 'c', 00H, 'p', 00H, 'p', 00H, 00H
	DB	00H
	ORG $+2
$SG63531 DB	'!', 00H, 'E', 00H, 'r', 00H, 'r', 00H, 'o', 00H, 'r', 00H
	DB	00H, 00H
	ORG $+10
$SG63568 DB	'C', 00H, ':', 00H, '\', 00H, 'U', 00H, 's', 00H, 'e', 00H
	DB	'r', 00H, 's', 00H, '\', 00H, 'k', 00H, 's', 00H, 'a', 00H, 'r'
	DB	00H, 't', 00H, '\', 00H, 'O', 00H, 'n', 00H, 'e', 00H, 'D', 00H
	DB	'r', 00H, 'i', 00H, 'v', 00H, 'e', 00H, '\', 00H, 'D', 00H, 'e'
	DB	00H, 's', 00H, 'k', 00H, 't', 00H, 'o', 00H, 'p', 00H, '\', 00H
	DB	'F', 00H, 'l', 00H, 'a', 00H, 'p', 00H, 'p', 00H, 'y', 00H, 'B'
	DB	00H, 'i', 00H, 'r', 00H, 'd', 00H, '\', 00H, 'l', 00H, 'i', 00H
	DB	'b', 00H, 'r', 00H, 'a', 00H, 'r', 00H, 'i', 00H, 'e', 00H, 's'
	DB	00H, '\', 00H, 'e', 00H, 'x', 00H, 't', 00H, 'e', 00H, 'r', 00H
	DB	'n', 00H, 'a', 00H, 'l', 00H, '\', 00H, 'g', 00H, 'l', 00H, 'm'
	DB	00H, '\', 00H, 't', 00H, 'e', 00H, 's', 00H, 't', 00H, '\', 00H
	DB	'g', 00H, 't', 00H, 'c', 00H, '\', 00H, 'g', 00H, 't', 00H, 'c'
	DB	00H, '_', 00H, 'p', 00H, 'a', 00H, 'c', 00H, 'k', 00H, 'i', 00H
	DB	'n', 00H, 'g', 00H, '.', 00H, 'c', 00H, 'p', 00H, 'p', 00H, 00H
	DB	00H
	ORG $+2
$SG63569 DB	'!', 00H, 'E', 00H, 'r', 00H, 'r', 00H, 'o', 00H, 'r', 00H
	DB	00H, 00H
	ORG $+10
$SG63589 DB	'C', 00H, ':', 00H, '\', 00H, 'U', 00H, 's', 00H, 'e', 00H
	DB	'r', 00H, 's', 00H, '\', 00H, 'k', 00H, 's', 00H, 'a', 00H, 'r'
	DB	00H, 't', 00H, '\', 00H, 'O', 00H, 'n', 00H, 'e', 00H, 'D', 00H
	DB	'r', 00H, 'i', 00H, 'v', 00H, 'e', 00H, '\', 00H, 'D', 00H, 'e'
	DB	00H, 's', 00H, 'k', 00H, 't', 00H, 'o', 00H, 'p', 00H, '\', 00H
	DB	'F', 00H, 'l', 00H, 'a', 00H, 'p', 00H, 'p', 00H, 'y', 00H, 'B'
	DB	00H, 'i', 00H, 'r', 00H, 'd', 00H, '\', 00H, 'l', 00H, 'i', 00H
	DB	'b', 00H, 'r', 00H, 'a', 00H, 'r', 00H, 'i', 00H, 'e', 00H, 's'
	DB	00H, '\', 00H, 'e', 00H, 'x', 00H, 't', 00H, 'e', 00H, 'r', 00H
	DB	'n', 00H, 'a', 00H, 'l', 00H, '\', 00H, 'g', 00H, 'l', 00H, 'm'
	DB	00H, '\', 00H, 't', 00H, 'e', 00H, 's', 00H, 't', 00H, '\', 00H
	DB	'g', 00H, 't', 00H, 'c', 00H, '\', 00H, 'g', 00H, 't', 00H, 'c'
	DB	00H, '_', 00H, 'p', 00H, 'a', 00H, 'c', 00H, 'k', 00H, 'i', 00H
	DB	'n', 00H, 'g', 00H, '.', 00H, 'c', 00H, 'p', 00H, 'p', 00H, 00H
	DB	00H
	ORG $+2
$SG63590 DB	'!', 00H, 'E', 00H, 'r', 00H, 'r', 00H, 'o', 00H, 'r', 00H
	DB	00H, 00H
	ORG $+10
$SG63628 DB	'C', 00H, ':', 00H, '\', 00H, 'U', 00H, 's', 00H, 'e', 00H
	DB	'r', 00H, 's', 00H, '\', 00H, 'k', 00H, 's', 00H, 'a', 00H, 'r'
	DB	00H, 't', 00H, '\', 00H, 'O', 00H, 'n', 00H, 'e', 00H, 'D', 00H
	DB	'r', 00H, 'i', 00H, 'v', 00H, 'e', 00H, '\', 00H, 'D', 00H, 'e'
	DB	00H, 's', 00H, 'k', 00H, 't', 00H, 'o', 00H, 'p', 00H, '\', 00H
	DB	'F', 00H, 'l', 00H, 'a', 00H, 'p', 00H, 'p', 00H, 'y', 00H, 'B'
	DB	00H, 'i', 00H, 'r', 00H, 'd', 00H, '\', 00H, 'l', 00H, 'i', 00H
	DB	'b', 00H, 'r', 00H, 'a', 00H, 'r', 00H, 'i', 00H, 'e', 00H, 's'
	DB	00H, '\', 00H, 'e', 00H, 'x', 00H, 't', 00H, 'e', 00H, 'r', 00H
	DB	'n', 00H, 'a', 00H, 'l', 00H, '\', 00H, 'g', 00H, 'l', 00H, 'm'
	DB	00H, '\', 00H, 't', 00H, 'e', 00H, 's', 00H, 't', 00H, '\', 00H
	DB	'g', 00H, 't', 00H, 'c', 00H, '\', 00H, 'g', 00H, 't', 00H, 'c'
	DB	00H, '_', 00H, 'p', 00H, 'a', 00H, 'c', 00H, 'k', 00H, 'i', 00H
	DB	'n', 00H, 'g', 00H, '.', 00H, 'c', 00H, 'p', 00H, 'p', 00H, 00H
	DB	00H
	ORG $+2
$SG63629 DB	'!', 00H, 'E', 00H, 'r', 00H, 'r', 00H, 'o', 00H, 'r', 00H
	DB	00H, 00H
	ORG $+10
$SG63671 DB	'C', 00H, ':', 00H, '\', 00H, 'U', 00H, 's', 00H, 'e', 00H
	DB	'r', 00H, 's', 00H, '\', 00H, 'k', 00H, 's', 00H, 'a', 00H, 'r'
	DB	00H, 't', 00H, '\', 00H, 'O', 00H, 'n', 00H, 'e', 00H, 'D', 00H
	DB	'r', 00H, 'i', 00H, 'v', 00H, 'e', 00H, '\', 00H, 'D', 00H, 'e'
	DB	00H, 's', 00H, 'k', 00H, 't', 00H, 'o', 00H, 'p', 00H, '\', 00H
	DB	'F', 00H, 'l', 00H, 'a', 00H, 'p', 00H, 'p', 00H, 'y', 00H, 'B'
	DB	00H, 'i', 00H, 'r', 00H, 'd', 00H, '\', 00H, 'l', 00H, 'i', 00H
	DB	'b', 00H, 'r', 00H, 'a', 00H, 'r', 00H, 'i', 00H, 'e', 00H, 's'
	DB	00H, '\', 00H, 'e', 00H, 'x', 00H, 't', 00H, 'e', 00H, 'r', 00H
	DB	'n', 00H, 'a', 00H, 'l', 00H, '\', 00H, 'g', 00H, 'l', 00H, 'm'
	DB	00H, '\', 00H, 't', 00H, 'e', 00H, 's', 00H, 't', 00H, '\', 00H
	DB	'g', 00H, 't', 00H, 'c', 00H, '\', 00H, 'g', 00H, 't', 00H, 'c'
	DB	00H, '_', 00H, 'p', 00H, 'a', 00H, 'c', 00H, 'k', 00H, 'i', 00H
	DB	'n', 00H, 'g', 00H, '.', 00H, 'c', 00H, 'p', 00H, 'p', 00H, 00H
	DB	00H
	ORG $+2
$SG63672 DB	'!', 00H, 'E', 00H, 'r', 00H, 'r', 00H, 'o', 00H, 'r', 00H
	DB	00H, 00H
	ORG $+10
$SG63695 DB	'C', 00H, ':', 00H, '\', 00H, 'U', 00H, 's', 00H, 'e', 00H
	DB	'r', 00H, 's', 00H, '\', 00H, 'k', 00H, 's', 00H, 'a', 00H, 'r'
	DB	00H, 't', 00H, '\', 00H, 'O', 00H, 'n', 00H, 'e', 00H, 'D', 00H
	DB	'r', 00H, 'i', 00H, 'v', 00H, 'e', 00H, '\', 00H, 'D', 00H, 'e'
	DB	00H, 's', 00H, 'k', 00H, 't', 00H, 'o', 00H, 'p', 00H, '\', 00H
	DB	'F', 00H, 'l', 00H, 'a', 00H, 'p', 00H, 'p', 00H, 'y', 00H, 'B'
	DB	00H, 'i', 00H, 'r', 00H, 'd', 00H, '\', 00H, 'l', 00H, 'i', 00H
	DB	'b', 00H, 'r', 00H, 'a', 00H, 'r', 00H, 'i', 00H, 'e', 00H, 's'
	DB	00H, '\', 00H, 'e', 00H, 'x', 00H, 't', 00H, 'e', 00H, 'r', 00H
	DB	'n', 00H, 'a', 00H, 'l', 00H, '\', 00H, 'g', 00H, 'l', 00H, 'm'
	DB	00H, '\', 00H, 't', 00H, 'e', 00H, 's', 00H, 't', 00H, '\', 00H
	DB	'g', 00H, 't', 00H, 'c', 00H, '\', 00H, 'g', 00H, 't', 00H, 'c'
	DB	00H, '_', 00H, 'p', 00H, 'a', 00H, 'c', 00H, 'k', 00H, 'i', 00H
	DB	'n', 00H, 'g', 00H, '.', 00H, 'c', 00H, 'p', 00H, 'p', 00H, 00H
	DB	00H
	ORG $+2
$SG63696 DB	'!', 00H, 'E', 00H, 'r', 00H, 'r', 00H, 'o', 00H, 'r', 00H
	DB	00H, 00H
	ORG $+10
$SG63716 DB	'C', 00H, ':', 00H, '\', 00H, 'U', 00H, 's', 00H, 'e', 00H
	DB	'r', 00H, 's', 00H, '\', 00H, 'k', 00H, 's', 00H, 'a', 00H, 'r'
	DB	00H, 't', 00H, '\', 00H, 'O', 00H, 'n', 00H, 'e', 00H, 'D', 00H
	DB	'r', 00H, 'i', 00H, 'v', 00H, 'e', 00H, '\', 00H, 'D', 00H, 'e'
	DB	00H, 's', 00H, 'k', 00H, 't', 00H, 'o', 00H, 'p', 00H, '\', 00H
	DB	'F', 00H, 'l', 00H, 'a', 00H, 'p', 00H, 'p', 00H, 'y', 00H, 'B'
	DB	00H, 'i', 00H, 'r', 00H, 'd', 00H, '\', 00H, 'l', 00H, 'i', 00H
	DB	'b', 00H, 'r', 00H, 'a', 00H, 'r', 00H, 'i', 00H, 'e', 00H, 's'
	DB	00H, '\', 00H, 'e', 00H, 'x', 00H, 't', 00H, 'e', 00H, 'r', 00H
	DB	'n', 00H, 'a', 00H, 'l', 00H, '\', 00H, 'g', 00H, 'l', 00H, 'm'
	DB	00H, '\', 00H, 't', 00H, 'e', 00H, 's', 00H, 't', 00H, '\', 00H
	DB	'g', 00H, 't', 00H, 'c', 00H, '\', 00H, 'g', 00H, 't', 00H, 'c'
	DB	00H, '_', 00H, 'p', 00H, 'a', 00H, 'c', 00H, 'k', 00H, 'i', 00H
	DB	'n', 00H, 'g', 00H, '.', 00H, 'c', 00H, 'p', 00H, 'p', 00H, 00H
	DB	00H
	ORG $+2
$SG63717 DB	'!', 00H, 'E', 00H, 'r', 00H, 'r', 00H, 'o', 00H, 'r', 00H
	DB	00H, 00H
	ORG $+10
$SG63737 DB	'C', 00H, ':', 00H, '\', 00H, 'U', 00H, 's', 00H, 'e', 00H
	DB	'r', 00H, 's', 00H, '\', 00H, 'k', 00H, 's', 00H, 'a', 00H, 'r'
	DB	00H, 't', 00H, '\', 00H, 'O', 00H, 'n', 00H, 'e', 00H, 'D', 00H
	DB	'r', 00H, 'i', 00H, 'v', 00H, 'e', 00H, '\', 00H, 'D', 00H, 'e'
	DB	00H, 's', 00H, 'k', 00H, 't', 00H, 'o', 00H, 'p', 00H, '\', 00H
	DB	'F', 00H, 'l', 00H, 'a', 00H, 'p', 00H, 'p', 00H, 'y', 00H, 'B'
	DB	00H, 'i', 00H, 'r', 00H, 'd', 00H, '\', 00H, 'l', 00H, 'i', 00H
	DB	'b', 00H, 'r', 00H, 'a', 00H, 'r', 00H, 'i', 00H, 'e', 00H, 's'
	DB	00H, '\', 00H, 'e', 00H, 'x', 00H, 't', 00H, 'e', 00H, 'r', 00H
	DB	'n', 00H, 'a', 00H, 'l', 00H, '\', 00H, 'g', 00H, 'l', 00H, 'm'
	DB	00H, '\', 00H, 't', 00H, 'e', 00H, 's', 00H, 't', 00H, '\', 00H
	DB	'g', 00H, 't', 00H, 'c', 00H, '\', 00H, 'g', 00H, 't', 00H, 'c'
	DB	00H, '_', 00H, 'p', 00H, 'a', 00H, 'c', 00H, 'k', 00H, 'i', 00H
	DB	'n', 00H, 'g', 00H, '.', 00H, 'c', 00H, 'p', 00H, 'p', 00H, 00H
	DB	00H
	ORG $+2
$SG63738 DB	'!', 00H, 'E', 00H, 'r', 00H, 'r', 00H, 'o', 00H, 'r', 00H
	DB	00H, 00H
	ORG $+10
$SG63758 DB	'C', 00H, ':', 00H, '\', 00H, 'U', 00H, 's', 00H, 'e', 00H
	DB	'r', 00H, 's', 00H, '\', 00H, 'k', 00H, 's', 00H, 'a', 00H, 'r'
	DB	00H, 't', 00H, '\', 00H, 'O', 00H, 'n', 00H, 'e', 00H, 'D', 00H
	DB	'r', 00H, 'i', 00H, 'v', 00H, 'e', 00H, '\', 00H, 'D', 00H, 'e'
	DB	00H, 's', 00H, 'k', 00H, 't', 00H, 'o', 00H, 'p', 00H, '\', 00H
	DB	'F', 00H, 'l', 00H, 'a', 00H, 'p', 00H, 'p', 00H, 'y', 00H, 'B'
	DB	00H, 'i', 00H, 'r', 00H, 'd', 00H, '\', 00H, 'l', 00H, 'i', 00H
	DB	'b', 00H, 'r', 00H, 'a', 00H, 'r', 00H, 'i', 00H, 'e', 00H, 's'
	DB	00H, '\', 00H, 'e', 00H, 'x', 00H, 't', 00H, 'e', 00H, 'r', 00H
	DB	'n', 00H, 'a', 00H, 'l', 00H, '\', 00H, 'g', 00H, 'l', 00H, 'm'
	DB	00H, '\', 00H, 't', 00H, 'e', 00H, 's', 00H, 't', 00H, '\', 00H
	DB	'g', 00H, 't', 00H, 'c', 00H, '\', 00H, 'g', 00H, 't', 00H, 'c'
	DB	00H, '_', 00H, 'p', 00H, 'a', 00H, 'c', 00H, 'k', 00H, 'i', 00H
	DB	'n', 00H, 'g', 00H, '.', 00H, 'c', 00H, 'p', 00H, 'p', 00H, 00H
	DB	00H
	ORG $+2
$SG63759 DB	'!', 00H, 'E', 00H, 'r', 00H, 'r', 00H, 'o', 00H, 'r', 00H
	DB	00H, 00H
	ORG $+10
$SG63779 DB	'C', 00H, ':', 00H, '\', 00H, 'U', 00H, 's', 00H, 'e', 00H
	DB	'r', 00H, 's', 00H, '\', 00H, 'k', 00H, 's', 00H, 'a', 00H, 'r'
	DB	00H, 't', 00H, '\', 00H, 'O', 00H, 'n', 00H, 'e', 00H, 'D', 00H
	DB	'r', 00H, 'i', 00H, 'v', 00H, 'e', 00H, '\', 00H, 'D', 00H, 'e'
	DB	00H, 's', 00H, 'k', 00H, 't', 00H, 'o', 00H, 'p', 00H, '\', 00H
	DB	'F', 00H, 'l', 00H, 'a', 00H, 'p', 00H, 'p', 00H, 'y', 00H, 'B'
	DB	00H, 'i', 00H, 'r', 00H, 'd', 00H, '\', 00H, 'l', 00H, 'i', 00H
	DB	'b', 00H, 'r', 00H, 'a', 00H, 'r', 00H, 'i', 00H, 'e', 00H, 's'
	DB	00H, '\', 00H, 'e', 00H, 'x', 00H, 't', 00H, 'e', 00H, 'r', 00H
	DB	'n', 00H, 'a', 00H, 'l', 00H, '\', 00H, 'g', 00H, 'l', 00H, 'm'
	DB	00H, '\', 00H, 't', 00H, 'e', 00H, 's', 00H, 't', 00H, '\', 00H
	DB	'g', 00H, 't', 00H, 'c', 00H, '\', 00H, 'g', 00H, 't', 00H, 'c'
	DB	00H, '_', 00H, 'p', 00H, 'a', 00H, 'c', 00H, 'k', 00H, 'i', 00H
	DB	'n', 00H, 'g', 00H, '.', 00H, 'c', 00H, 'p', 00H, 'p', 00H, 00H
	DB	00H
	ORG $+2
$SG63780 DB	'!', 00H, 'E', 00H, 'r', 00H, 'r', 00H, 'o', 00H, 'r', 00H
	DB	00H, 00H
CONST	ENDS
PUBLIC	?fpclassify@@YAHM@Z				; fpclassify
PUBLIC	__local_stdio_printf_options
PUBLIC	_vfprintf_l
PUBLIC	printf
PUBLIC	?max@?$numeric_limits@F@std@@SAFXZ		; std::numeric_limits<short>::max
PUBLIC	?max@?$numeric_limits@_J@std@@SA_JXZ		; std::numeric_limits<__int64>::max
PUBLIC	?max@?$numeric_limits@G@std@@SAGXZ		; std::numeric_limits<unsigned short>::max
PUBLIC	??2@YAPEAX_KPEAX@Z				; operator new
PUBLIC	?floor@@YAMM@Z					; floor
PUBLIC	?log2@@YAMM@Z					; log2
PUBLIC	?pow@@YAMMM@Z					; pow
PUBLIC	?round@@YAMM@Z					; round
PUBLIC	?packUnorm2x16@glm@@YAIAEBU?$tvec2@M$0A@@1@@Z	; glm::packUnorm2x16
PUBLIC	?packSnorm2x16@glm@@YAIAEBU?$tvec2@M$0A@@1@@Z	; glm::packSnorm2x16
PUBLIC	?packUnorm4x8@glm@@YAIAEBU?$tvec4@M$0A@@1@@Z	; glm::packUnorm4x8
PUBLIC	?packSnorm4x8@glm@@YAIAEBU?$tvec4@M$0A@@1@@Z	; glm::packSnorm4x8
PUBLIC	?unpackUnorm2x16@glm@@YA?AU?$tvec2@M$0A@@1@I@Z	; glm::unpackUnorm2x16
PUBLIC	?unpackSnorm2x16@glm@@YA?AU?$tvec2@M$0A@@1@I@Z	; glm::unpackSnorm2x16
PUBLIC	?unpackUnorm4x8@glm@@YA?AU?$tvec4@M$0A@@1@I@Z	; glm::unpackUnorm4x8
PUBLIC	?unpackSnorm4x8@glm@@YA?AU?$tvec4@M$0A@@1@I@Z	; glm::unpackSnorm4x8
PUBLIC	?toFloat32@detail@glm@@YAMF@Z			; glm::detail::toFloat32
PUBLIC	?toFloat16@detail@glm@@YAFAEBM@Z		; glm::detail::toFloat16
PUBLIC	?overflow@detail@glm@@YAMXZ			; glm::detail::overflow
PUBLIC	??0uif32@detail@glm@@QEAA@XZ			; glm::detail::uif32::uif32
PUBLIC	?length@?$tvec2@M$0A@@glm@@SAHXZ		; glm::tvec2<float,0>::length
PUBLIC	??A?$tvec2@M$0A@@glm@@QEBAAEBMH@Z		; glm::tvec2<float,0>::operator[]
PUBLIC	??0?$tvec2@M$0A@@glm@@QEAA@M@Z			; glm::tvec2<float,0>::tvec2<float,0>
PUBLIC	??0?$tvec2@M$0A@@glm@@QEAA@MM@Z			; glm::tvec2<float,0>::tvec2<float,0>
PUBLIC	??$clamp@M$0A@Utvec2@glm@@@glm@@YA?AU?$tvec2@M$0A@@0@AEBU10@MM@Z ; glm::clamp<float,0,glm::tvec2>
PUBLIC	??$?DM$0A@@glm@@YA?AU?$tvec2@M$0A@@0@AEBU10@M@Z	; glm::operator*<float,0>
PUBLIC	??$round@M$0A@Utvec2@glm@@@glm@@YA?AU?$tvec2@M$0A@@0@AEBU10@@Z ; glm::round<float,0,glm::tvec2>
PUBLIC	?length@?$tvec2@G$0A@@glm@@SAHXZ		; glm::tvec2<unsigned short,0>::length
PUBLIC	??A?$tvec2@G$0A@@glm@@QEAAAEAGH@Z		; glm::tvec2<unsigned short,0>::operator[]
PUBLIC	??$?0M$0A@@?$tvec2@G$0A@@glm@@QEAA@AEBU?$tvec2@M$0A@@1@@Z ; glm::tvec2<unsigned short,0>::tvec2<unsigned short,0><float,0>
PUBLIC	??$?0GG@?$tvec2@M$0A@@glm@@QEAA@GG@Z		; glm::tvec2<float,0>::tvec2<float,0><unsigned short,unsigned short>
PUBLIC	?length@?$tvec2@F$0A@@glm@@SAHXZ		; glm::tvec2<short,0>::length
PUBLIC	??A?$tvec2@F$0A@@glm@@QEAAAEAFH@Z		; glm::tvec2<short,0>::operator[]
PUBLIC	??$?0M$0A@@?$tvec2@F$0A@@glm@@QEAA@AEBU?$tvec2@M$0A@@1@@Z ; glm::tvec2<short,0>::tvec2<short,0><float,0>
PUBLIC	??$?0FF@?$tvec2@M$0A@@glm@@QEAA@FF@Z		; glm::tvec2<float,0>::tvec2<float,0><short,short>
PUBLIC	?length@?$tvec4@M$0A@@glm@@SAHXZ		; glm::tvec4<float,0>::length
PUBLIC	??A?$tvec4@M$0A@@glm@@QEBAAEBMH@Z		; glm::tvec4<float,0>::operator[]
PUBLIC	??0?$tvec4@M$0A@@glm@@QEAA@XZ			; glm::tvec4<float,0>::tvec4<float,0>
PUBLIC	??0?$tvec4@M$0A@@glm@@QEAA@M@Z			; glm::tvec4<float,0>::tvec4<float,0>
PUBLIC	??0?$tvec4@M$0A@@glm@@QEAA@MMMM@Z		; glm::tvec4<float,0>::tvec4<float,0>
PUBLIC	??$clamp@M$0A@Utvec4@glm@@@glm@@YA?AU?$tvec4@M$0A@@0@AEBU10@MM@Z ; glm::clamp<float,0,glm::tvec4>
PUBLIC	??$?DM$0A@@glm@@YA?AU?$tvec4@M$0A@@0@AEBU10@M@Z	; glm::operator*<float,0>
PUBLIC	??$round@M$0A@Utvec4@glm@@@glm@@YA?AU?$tvec4@M$0A@@0@AEBU10@@Z ; glm::round<float,0,glm::tvec4>
PUBLIC	?length@?$tvec4@E$0A@@glm@@SAHXZ		; glm::tvec4<unsigned char,0>::length
PUBLIC	??A?$tvec4@E$0A@@glm@@QEAAAEAEH@Z		; glm::tvec4<unsigned char,0>::operator[]
PUBLIC	??$?0M$0A@@?$tvec4@E$0A@@glm@@QEAA@AEBU?$tvec4@M$0A@@1@@Z ; glm::tvec4<unsigned char,0>::tvec4<unsigned char,0><float,0>
PUBLIC	??$?0EEEE@?$tvec4@M$0A@@glm@@QEAA@EEEE@Z	; glm::tvec4<float,0>::tvec4<float,0><unsigned char,unsigned char,unsigned char,unsigned char>
PUBLIC	?length@?$tvec4@C$0A@@glm@@SAHXZ		; glm::tvec4<signed char,0>::length
PUBLIC	??A?$tvec4@C$0A@@glm@@QEAAAEACH@Z		; glm::tvec4<signed char,0>::operator[]
PUBLIC	??$?0M$0A@@?$tvec4@C$0A@@glm@@QEAA@AEBU?$tvec4@M$0A@@1@@Z ; glm::tvec4<signed char,0>::tvec4<signed char,0><float,0>
PUBLIC	??$?0CCCC@?$tvec4@M$0A@@glm@@QEAA@CCCC@Z	; glm::tvec4<float,0>::tvec4<float,0><signed char,signed char,signed char,signed char>
PUBLIC	?packUnorm1x8@glm@@YAEM@Z			; glm::packUnorm1x8
PUBLIC	?unpackUnorm1x8@glm@@YAME@Z			; glm::unpackUnorm1x8
PUBLIC	?packUnorm2x8@glm@@YAGAEBU?$tvec2@M$0A@@1@@Z	; glm::packUnorm2x8
PUBLIC	?unpackUnorm2x8@glm@@YA?AU?$tvec2@M$0A@@1@G@Z	; glm::unpackUnorm2x8
PUBLIC	?packSnorm1x8@glm@@YAEM@Z			; glm::packSnorm1x8
PUBLIC	?unpackSnorm1x8@glm@@YAME@Z			; glm::unpackSnorm1x8
PUBLIC	?packSnorm2x8@glm@@YAGAEBU?$tvec2@M$0A@@1@@Z	; glm::packSnorm2x8
PUBLIC	?unpackSnorm2x8@glm@@YA?AU?$tvec2@M$0A@@1@G@Z	; glm::unpackSnorm2x8
PUBLIC	?packUnorm1x16@glm@@YAGM@Z			; glm::packUnorm1x16
PUBLIC	?unpackUnorm1x16@glm@@YAMG@Z			; glm::unpackUnorm1x16
PUBLIC	?packUnorm4x16@glm@@YA_KAEBU?$tvec4@M$0A@@1@@Z	; glm::packUnorm4x16
PUBLIC	?unpackUnorm4x16@glm@@YA?AU?$tvec4@M$0A@@1@_K@Z	; glm::unpackUnorm4x16
PUBLIC	?packSnorm1x16@glm@@YAGM@Z			; glm::packSnorm1x16
PUBLIC	?unpackSnorm1x16@glm@@YAMG@Z			; glm::unpackSnorm1x16
PUBLIC	?packSnorm4x16@glm@@YA_KAEBU?$tvec4@M$0A@@1@@Z	; glm::packSnorm4x16
PUBLIC	?unpackSnorm4x16@glm@@YA?AU?$tvec4@M$0A@@1@_K@Z	; glm::unpackSnorm4x16
PUBLIC	?packHalf1x16@glm@@YAGM@Z			; glm::packHalf1x16
PUBLIC	?unpackHalf1x16@glm@@YAMG@Z			; glm::unpackHalf1x16
PUBLIC	?packHalf4x16@glm@@YA_KAEBU?$tvec4@M$0A@@1@@Z	; glm::packHalf4x16
PUBLIC	?unpackHalf4x16@glm@@YA?AU?$tvec4@M$0A@@1@_K@Z	; glm::unpackHalf4x16
PUBLIC	?packI3x10_1x2@glm@@YAIAEBU?$tvec4@H$0A@@1@@Z	; glm::packI3x10_1x2
PUBLIC	?unpackI3x10_1x2@glm@@YA?AU?$tvec4@H$0A@@1@I@Z	; glm::unpackI3x10_1x2
PUBLIC	?packU3x10_1x2@glm@@YAIAEBU?$tvec4@I$0A@@1@@Z	; glm::packU3x10_1x2
PUBLIC	?unpackU3x10_1x2@glm@@YA?AU?$tvec4@I$0A@@1@I@Z	; glm::unpackU3x10_1x2
PUBLIC	?packSnorm3x10_1x2@glm@@YAIAEBU?$tvec4@M$0A@@1@@Z ; glm::packSnorm3x10_1x2
PUBLIC	?unpackSnorm3x10_1x2@glm@@YA?AU?$tvec4@M$0A@@1@I@Z ; glm::unpackSnorm3x10_1x2
PUBLIC	?packUnorm3x10_1x2@glm@@YAIAEBU?$tvec4@M$0A@@1@@Z ; glm::packUnorm3x10_1x2
PUBLIC	?unpackUnorm3x10_1x2@glm@@YA?AU?$tvec4@M$0A@@1@I@Z ; glm::unpackUnorm3x10_1x2
PUBLIC	?packF2x11_1x10@glm@@YAIAEBU?$tvec3@M$0A@@1@@Z	; glm::packF2x11_1x10
PUBLIC	?unpackF2x11_1x10@glm@@YA?AU?$tvec3@M$0A@@1@I@Z	; glm::unpackF2x11_1x10
PUBLIC	?packF3x9_E1x5@glm@@YAIAEBU?$tvec3@M$0A@@1@@Z	; glm::packF3x9_E1x5
PUBLIC	?unpackF3x9_E1x5@glm@@YA?AU?$tvec3@M$0A@@1@I@Z	; glm::unpackF3x9_E1x5
PUBLIC	?packUnorm2x4@glm@@YAEAEBU?$tvec2@M$0A@@1@@Z	; glm::packUnorm2x4
PUBLIC	?unpackUnorm2x4@glm@@YA?AU?$tvec2@M$0A@@1@E@Z	; glm::unpackUnorm2x4
PUBLIC	?packUnorm4x4@glm@@YAGAEBU?$tvec4@M$0A@@1@@Z	; glm::packUnorm4x4
PUBLIC	?unpackUnorm4x4@glm@@YA?AU?$tvec4@M$0A@@1@G@Z	; glm::unpackUnorm4x4
PUBLIC	?packUnorm1x5_1x6_1x5@glm@@YAGAEBU?$tvec3@M$0A@@1@@Z ; glm::packUnorm1x5_1x6_1x5
PUBLIC	?unpackUnorm1x5_1x6_1x5@glm@@YA?AU?$tvec3@M$0A@@1@G@Z ; glm::unpackUnorm1x5_1x6_1x5
PUBLIC	?packUnorm3x5_1x1@glm@@YAGAEBU?$tvec4@M$0A@@1@@Z ; glm::packUnorm3x5_1x1
PUBLIC	?unpackUnorm3x5_1x1@glm@@YA?AU?$tvec4@M$0A@@1@G@Z ; glm::unpackUnorm3x5_1x1
PUBLIC	?packUnorm2x3_1x2@glm@@YAEAEBU?$tvec3@M$0A@@1@@Z ; glm::packUnorm2x3_1x2
PUBLIC	?unpackUnorm2x3_1x2@glm@@YA?AU?$tvec3@M$0A@@1@E@Z ; glm::unpackUnorm2x3_1x2
PUBLIC	?float2packed11@detail@glm@@YAII@Z		; glm::detail::float2packed11
PUBLIC	?packed11ToFloat@detail@glm@@YAII@Z		; glm::detail::packed11ToFloat
PUBLIC	?float2packed10@detail@glm@@YAII@Z		; glm::detail::float2packed10
PUBLIC	?packed10ToFloat@detail@glm@@YAII@Z		; glm::detail::packed10ToFloat
PUBLIC	?floatTo11bit@detail@glm@@YAIM@Z		; glm::detail::floatTo11bit
PUBLIC	??$isnan@M@@YA_NM@Z				; isnan<float>
PUBLIC	??$isinf@M@@YA_NM@Z				; isinf<float>
PUBLIC	?packed11bitToFloat@detail@glm@@YAMI@Z		; glm::detail::packed11bitToFloat
PUBLIC	?floatTo10bit@detail@glm@@YAIM@Z		; glm::detail::floatTo10bit
PUBLIC	?packed10bitToFloat@detail@glm@@YAMI@Z		; glm::detail::packed10bitToFloat
PUBLIC	??$clamp@M@glm@@YAMMMM@Z			; glm::clamp<float>
PUBLIC	??0?$tvec2@E$0A@@glm@@QEAA@W4ctor@1@@Z		; glm::tvec2<unsigned char,0>::tvec2<unsigned char,0>
PUBLIC	??$?0M$0A@@?$tvec2@E$0A@@glm@@QEAA@AEBU?$tvec2@M$0A@@1@@Z ; glm::tvec2<unsigned char,0>::tvec2<unsigned char,0><float,0>
PUBLIC	??$?0E$0A@@?$tvec2@M$0A@@glm@@QEAA@AEBU?$tvec2@E$0A@@1@@Z ; glm::tvec2<float,0>::tvec2<float,0><unsigned char,0>
PUBLIC	??0?$tvec2@C$0A@@glm@@QEAA@W4ctor@1@@Z		; glm::tvec2<signed char,0>::tvec2<signed char,0>
PUBLIC	??$?0M$0A@@?$tvec2@C$0A@@glm@@QEAA@AEBU?$tvec2@M$0A@@1@@Z ; glm::tvec2<signed char,0>::tvec2<signed char,0><float,0>
PUBLIC	??$?0C$0A@@?$tvec2@M$0A@@glm@@QEAA@AEBU?$tvec2@C$0A@@1@@Z ; glm::tvec2<float,0>::tvec2<float,0><signed char,0>
PUBLIC	??0?$tvec4@G$0A@@glm@@QEAA@W4ctor@1@@Z		; glm::tvec4<unsigned short,0>::tvec4<unsigned short,0>
PUBLIC	??$?0M$0A@@?$tvec4@G$0A@@glm@@QEAA@AEBU?$tvec4@M$0A@@1@@Z ; glm::tvec4<unsigned short,0>::tvec4<unsigned short,0><float,0>
PUBLIC	??$?0G$0A@@?$tvec4@M$0A@@glm@@QEAA@AEBU?$tvec4@G$0A@@1@@Z ; glm::tvec4<float,0>::tvec4<float,0><unsigned short,0>
PUBLIC	??0?$tvec4@F$0A@@glm@@QEAA@W4ctor@1@@Z		; glm::tvec4<short,0>::tvec4<short,0>
PUBLIC	??0?$tvec4@F$0A@@glm@@QEAA@FFFF@Z		; glm::tvec4<short,0>::tvec4<short,0>
PUBLIC	??$?0M$0A@@?$tvec4@F$0A@@glm@@QEAA@AEBU?$tvec4@M$0A@@1@@Z ; glm::tvec4<short,0>::tvec4<short,0><float,0>
PUBLIC	??$?0F$0A@@?$tvec4@M$0A@@glm@@QEAA@AEBU?$tvec4@F$0A@@1@@Z ; glm::tvec4<float,0>::tvec4<float,0><short,0>
PUBLIC	?length@?$tvec4@H$0A@@glm@@SAHXZ		; glm::tvec4<int,0>::length
PUBLIC	??A?$tvec4@H$0A@@glm@@QEBAAEBHH@Z		; glm::tvec4<int,0>::operator[]
PUBLIC	??0?$tvec4@H$0A@@glm@@QEAA@H@Z			; glm::tvec4<int,0>::tvec4<int,0>
PUBLIC	??0?$tvec4@H$0A@@glm@@QEAA@HHHH@Z		; glm::tvec4<int,0>::tvec4<int,0>
PUBLIC	?length@?$tvec4@I$0A@@glm@@SAHXZ		; glm::tvec4<unsigned int,0>::length
PUBLIC	??A?$tvec4@I$0A@@glm@@QEBAAEBIH@Z		; glm::tvec4<unsigned int,0>::operator[]
PUBLIC	??0?$tvec4@I$0A@@glm@@QEAA@I@Z			; glm::tvec4<unsigned int,0>::tvec4<unsigned int,0>
PUBLIC	??0?$tvec4@I$0A@@glm@@QEAA@IIII@Z		; glm::tvec4<unsigned int,0>::tvec4<unsigned int,0>
PUBLIC	??$?DM$0A@@glm@@YA?AU?$tvec4@M$0A@@0@AEBU10@0@Z	; glm::operator*<float,0>
PUBLIC	??$?0M$0A@@?$tvec4@I$0A@@glm@@QEAA@AEBU?$tvec4@M$0A@@1@@Z ; glm::tvec4<unsigned int,0>::tvec4<unsigned int,0><float,0>
PUBLIC	??$?0IIII@?$tvec4@M$0A@@glm@@QEAA@IIII@Z	; glm::tvec4<float,0>::tvec4<float,0><unsigned int,unsigned int,unsigned int,unsigned int>
PUBLIC	?length@?$tvec3@M$0A@@glm@@SAHXZ		; glm::tvec3<float,0>::length
PUBLIC	??A?$tvec3@M$0A@@glm@@QEBAAEBMH@Z		; glm::tvec3<float,0>::operator[]
PUBLIC	??0?$tvec3@M$0A@@glm@@QEAA@M@Z			; glm::tvec3<float,0>::tvec3<float,0>
PUBLIC	??0?$tvec3@M$0A@@glm@@QEAA@MMM@Z		; glm::tvec3<float,0>::tvec3<float,0>
PUBLIC	??$clamp@M$0A@Utvec3@glm@@@glm@@YA?AU?$tvec3@M$0A@@0@AEBU10@MM@Z ; glm::clamp<float,0,glm::tvec3>
PUBLIC	??$max@M@glm@@YAMMM@Z				; glm::max<float>
PUBLIC	??$log2@M@glm@@YAMM@Z				; glm::log2<float>
PUBLIC	??$?KM$0A@@glm@@YA?AU?$tvec3@M$0A@@0@AEBU10@M@Z	; glm::operator/<float,0>
PUBLIC	??$?HM$0A@@glm@@YA?AU?$tvec3@M$0A@@0@AEBU10@M@Z	; glm::operator+<float,0>
PUBLIC	??$floor@M$0A@Utvec3@glm@@@glm@@YA?AU?$tvec3@M$0A@@0@AEBU10@@Z ; glm::floor<float,0,glm::tvec3>
PUBLIC	??$?0M$0A@@?$tvec3@I$0A@@glm@@QEAA@AEBU?$tvec3@M$0A@@1@@Z ; glm::tvec3<unsigned int,0>::tvec3<unsigned int,0><float,0>
PUBLIC	??$?0III@?$tvec3@M$0A@@glm@@QEAA@III@Z		; glm::tvec3<float,0>::tvec3<float,0><unsigned int,unsigned int,unsigned int>
PUBLIC	??$?DM$0A@@glm@@YA?AU?$tvec3@M$0A@@0@AEBU10@M@Z	; glm::operator*<float,0>
PUBLIC	??$?0M$0A@@?$tvec2@I$0A@@glm@@QEAA@AEBU?$tvec2@M$0A@@1@@Z ; glm::tvec2<unsigned int,0>::tvec2<unsigned int,0><float,0>
PUBLIC	??$?0II@?$tvec2@M$0A@@glm@@QEAA@II@Z		; glm::tvec2<float,0>::tvec2<float,0><unsigned int,unsigned int>
PUBLIC	??$?DM$0A@@glm@@YA?AU?$tvec3@M$0A@@0@AEBU10@0@Z	; glm::operator*<float,0>
PUBLIC	??$round@M$0A@Utvec3@glm@@@glm@@YA?AU?$tvec3@M$0A@@0@AEBU10@@Z ; glm::round<float,0,glm::tvec3>
PUBLIC	??$abs@M@glm@@YAMM@Z				; glm::abs<float>
PUBLIC	??0exception@std@@QEAA@QEBDH@Z			; std::exception::exception
PUBLIC	??0exception@std@@QEAA@AEBV01@@Z		; std::exception::exception
PUBLIC	??1exception@std@@UEAA@XZ			; std::exception::~exception
PUBLIC	?what@exception@std@@UEBAPEBDXZ			; std::exception::what
PUBLIC	??_Gexception@std@@UEAAPEAXI@Z			; std::exception::`scalar deleting destructor'
PUBLIC	??0bad_alloc@std@@AEAA@QEBD@Z			; std::bad_alloc::bad_alloc
PUBLIC	??1bad_alloc@std@@UEAA@XZ			; std::bad_alloc::~bad_alloc
PUBLIC	??0bad_alloc@std@@QEAA@AEBV01@@Z		; std::bad_alloc::bad_alloc
PUBLIC	??_Gbad_alloc@std@@UEAAPEAXI@Z			; std::bad_alloc::`scalar deleting destructor'
PUBLIC	??0bad_array_new_length@std@@QEAA@XZ		; std::bad_array_new_length::bad_array_new_length
PUBLIC	??1bad_array_new_length@std@@UEAA@XZ		; std::bad_array_new_length::~bad_array_new_length
PUBLIC	??0bad_array_new_length@std@@QEAA@AEBV01@@Z	; std::bad_array_new_length::bad_array_new_length
PUBLIC	??_Gbad_array_new_length@std@@UEAAPEAXI@Z	; std::bad_array_new_length::`scalar deleting destructor'
PUBLIC	?_Throw_bad_array_new_length@std@@YAXXZ		; std::_Throw_bad_array_new_length
PUBLIC	?_Allocate@_Default_allocate_traits@std@@SAPEAX_K@Z ; std::_Default_allocate_traits::_Allocate
PUBLIC	?_Adjust_manually_vector_aligned@std@@YAXAEAPEAXAEA_K@Z ; std::_Adjust_manually_vector_aligned
PUBLIC	??0_Container_proxy@std@@QEAA@PEAU_Container_base12@1@@Z ; std::_Container_proxy::_Container_proxy
PUBLIC	??0_Container_base12@std@@QEAA@XZ		; std::_Container_base12::_Container_base12
PUBLIC	?_Orphan_all@_Container_base12@std@@QEAAXXZ	; std::_Container_base12::_Orphan_all
PUBLIC	?_Orphan_all_unlocked_v3@_Container_base12@std@@AEAAXXZ ; std::_Container_base12::_Orphan_all_unlocked_v3
PUBLIC	?_Orphan_all_locked_v3@_Container_base12@std@@AEAAXXZ ; std::_Container_base12::_Orphan_all_locked_v3
PUBLIC	?print_bits@@YAXAEBM@Z				; print_bits
PUBLIC	?print_10bits@@YAXAEBI@Z			; print_10bits
PUBLIC	?print_11bits@@YAXAEBI@Z			; print_11bits
PUBLIC	?print_value@@YAXAEBM@Z				; print_value
PUBLIC	?test_Half1x16@@YAHXZ				; test_Half1x16
PUBLIC	??0?$allocator@M@std@@QEAA@XZ			; std::allocator<float>::allocator<float>
PUBLIC	?deallocate@?$allocator@M@std@@QEAAXQEAM_K@Z	; std::allocator<float>::deallocate
PUBLIC	?allocate@?$allocator@M@std@@QEAAPEAM_K@Z	; std::allocator<float>::allocate
PUBLIC	?max_size@?$_Default_allocator_traits@V?$allocator@M@std@@@std@@SA_KAEBV?$allocator@M@2@@Z ; std::_Default_allocator_traits<std::allocator<float> >::max_size
PUBLIC	??0?$vector@MV?$allocator@M@std@@@std@@QEAA@XZ	; std::vector<float,std::allocator<float> >::vector<float,std::allocator<float> >
PUBLIC	??1?$vector@MV?$allocator@M@std@@@std@@QEAA@XZ	; std::vector<float,std::allocator<float> >::~vector<float,std::allocator<float> >
PUBLIC	?push_back@?$vector@MV?$allocator@M@std@@@std@@QEAAX$$QEAM@Z ; std::vector<float,std::allocator<float> >::push_back
PUBLIC	?size@?$vector@MV?$allocator@M@std@@@std@@QEBA_KXZ ; std::vector<float,std::allocator<float> >::size
PUBLIC	?max_size@?$vector@MV?$allocator@M@std@@@std@@QEBA_KXZ ; std::vector<float,std::allocator<float> >::max_size
PUBLIC	?capacity@?$vector@MV?$allocator@M@std@@@std@@QEBA_KXZ ; std::vector<float,std::allocator<float> >::capacity
PUBLIC	??A?$vector@MV?$allocator@M@std@@@std@@QEAAAEAM_K@Z ; std::vector<float,std::allocator<float> >::operator[]
PUBLIC	?_Calculate_growth@?$vector@MV?$allocator@M@std@@@std@@AEBA_K_K@Z ; std::vector<float,std::allocator<float> >::_Calculate_growth
PUBLIC	?_Change_array@?$vector@MV?$allocator@M@std@@@std@@AEAAXQEAM_K1@Z ; std::vector<float,std::allocator<float> >::_Change_array
PUBLIC	?_Tidy@?$vector@MV?$allocator@M@std@@@std@@AEAAXXZ ; std::vector<float,std::allocator<float> >::_Tidy
PUBLIC	?_Xlength@?$vector@MV?$allocator@M@std@@@std@@CAXXZ ; std::vector<float,std::allocator<float> >::_Xlength
PUBLIC	?_Orphan_range_unlocked@?$vector@MV?$allocator@M@std@@@std@@AEBAXPEAM0@Z ; std::vector<float,std::allocator<float> >::_Orphan_range_unlocked
PUBLIC	?_Orphan_range_locked@?$vector@MV?$allocator@M@std@@@std@@AEBAXPEAM0@Z ; std::vector<float,std::allocator<float> >::_Orphan_range_locked
PUBLIC	?_Orphan_range@?$vector@MV?$allocator@M@std@@@std@@AEBAXPEAM0@Z ; std::vector<float,std::allocator<float> >::_Orphan_range
PUBLIC	?_Getal@?$vector@MV?$allocator@M@std@@@std@@AEAAAEAV?$allocator@M@2@XZ ; std::vector<float,std::allocator<float> >::_Getal
PUBLIC	?_Getal@?$vector@MV?$allocator@M@std@@@std@@AEBAAEBV?$allocator@M@2@XZ ; std::vector<float,std::allocator<float> >::_Getal
PUBLIC	??0?$_Vector_val@U?$_Simple_types@M@std@@@std@@QEAA@XZ ; std::_Vector_val<std::_Simple_types<float> >::_Vector_val<std::_Simple_types<float> >
PUBLIC	?_Get_first@?$_Compressed_pair@V?$allocator@M@std@@V?$_Vector_val@U?$_Simple_types@M@std@@@2@$00@std@@QEAAAEAV?$allocator@M@2@XZ ; std::_Compressed_pair<std::allocator<float>,std::_Vector_val<std::_Simple_types<float> >,1>::_Get_first
PUBLIC	?_Get_first@?$_Compressed_pair@V?$allocator@M@std@@V?$_Vector_val@U?$_Simple_types@M@std@@@2@$00@std@@QEBAAEBV?$allocator@M@2@XZ ; std::_Compressed_pair<std::allocator<float>,std::_Vector_val<std::_Simple_types<float> >,1>::_Get_first
PUBLIC	?test_Half4x16@@YAHXZ				; test_Half4x16
PUBLIC	??0?$allocator@U?$tvec4@M$0A@@glm@@@std@@QEAA@XZ ; std::allocator<glm::tvec4<float,0> >::allocator<glm::tvec4<float,0> >
PUBLIC	?deallocate@?$allocator@U?$tvec4@M$0A@@glm@@@std@@QEAAXQEAU?$tvec4@M$0A@@glm@@_K@Z ; std::allocator<glm::tvec4<float,0> >::deallocate
PUBLIC	?allocate@?$allocator@U?$tvec4@M$0A@@glm@@@std@@QEAAPEAU?$tvec4@M$0A@@glm@@_K@Z ; std::allocator<glm::tvec4<float,0> >::allocate
PUBLIC	?max_size@?$_Default_allocator_traits@V?$allocator@U?$tvec4@M$0A@@glm@@@std@@@std@@SA_KAEBV?$allocator@U?$tvec4@M$0A@@glm@@@2@@Z ; std::_Default_allocator_traits<std::allocator<glm::tvec4<float,0> > >::max_size
PUBLIC	??0?$vector@U?$tvec4@M$0A@@glm@@V?$allocator@U?$tvec4@M$0A@@glm@@@std@@@std@@QEAA@XZ ; std::vector<glm::tvec4<float,0>,std::allocator<glm::tvec4<float,0> > >::vector<glm::tvec4<float,0>,std::allocator<glm::tvec4<float,0> > >
PUBLIC	??1?$vector@U?$tvec4@M$0A@@glm@@V?$allocator@U?$tvec4@M$0A@@glm@@@std@@@std@@QEAA@XZ ; std::vector<glm::tvec4<float,0>,std::allocator<glm::tvec4<float,0> > >::~vector<glm::tvec4<float,0>,std::allocator<glm::tvec4<float,0> > >
PUBLIC	?push_back@?$vector@U?$tvec4@M$0A@@glm@@V?$allocator@U?$tvec4@M$0A@@glm@@@std@@@std@@QEAAX$$QEAU?$tvec4@M$0A@@glm@@@Z ; std::vector<glm::tvec4<float,0>,std::allocator<glm::tvec4<float,0> > >::push_back
PUBLIC	?size@?$vector@U?$tvec4@M$0A@@glm@@V?$allocator@U?$tvec4@M$0A@@glm@@@std@@@std@@QEBA_KXZ ; std::vector<glm::tvec4<float,0>,std::allocator<glm::tvec4<float,0> > >::size
PUBLIC	?max_size@?$vector@U?$tvec4@M$0A@@glm@@V?$allocator@U?$tvec4@M$0A@@glm@@@std@@@std@@QEBA_KXZ ; std::vector<glm::tvec4<float,0>,std::allocator<glm::tvec4<float,0> > >::max_size
PUBLIC	?capacity@?$vector@U?$tvec4@M$0A@@glm@@V?$allocator@U?$tvec4@M$0A@@glm@@@std@@@std@@QEBA_KXZ ; std::vector<glm::tvec4<float,0>,std::allocator<glm::tvec4<float,0> > >::capacity
PUBLIC	??A?$vector@U?$tvec4@M$0A@@glm@@V?$allocator@U?$tvec4@M$0A@@glm@@@std@@@std@@QEAAAEAU?$tvec4@M$0A@@glm@@_K@Z ; std::vector<glm::tvec4<float,0>,std::allocator<glm::tvec4<float,0> > >::operator[]
PUBLIC	?_Calculate_growth@?$vector@U?$tvec4@M$0A@@glm@@V?$allocator@U?$tvec4@M$0A@@glm@@@std@@@std@@AEBA_K_K@Z ; std::vector<glm::tvec4<float,0>,std::allocator<glm::tvec4<float,0> > >::_Calculate_growth
PUBLIC	?_Change_array@?$vector@U?$tvec4@M$0A@@glm@@V?$allocator@U?$tvec4@M$0A@@glm@@@std@@@std@@AEAAXQEAU?$tvec4@M$0A@@glm@@_K1@Z ; std::vector<glm::tvec4<float,0>,std::allocator<glm::tvec4<float,0> > >::_Change_array
PUBLIC	?_Tidy@?$vector@U?$tvec4@M$0A@@glm@@V?$allocator@U?$tvec4@M$0A@@glm@@@std@@@std@@AEAAXXZ ; std::vector<glm::tvec4<float,0>,std::allocator<glm::tvec4<float,0> > >::_Tidy
PUBLIC	?_Xlength@?$vector@U?$tvec4@M$0A@@glm@@V?$allocator@U?$tvec4@M$0A@@glm@@@std@@@std@@CAXXZ ; std::vector<glm::tvec4<float,0>,std::allocator<glm::tvec4<float,0> > >::_Xlength
PUBLIC	?_Orphan_range_unlocked@?$vector@U?$tvec4@M$0A@@glm@@V?$allocator@U?$tvec4@M$0A@@glm@@@std@@@std@@AEBAXPEAU?$tvec4@M$0A@@glm@@0@Z ; std::vector<glm::tvec4<float,0>,std::allocator<glm::tvec4<float,0> > >::_Orphan_range_unlocked
PUBLIC	?_Orphan_range_locked@?$vector@U?$tvec4@M$0A@@glm@@V?$allocator@U?$tvec4@M$0A@@glm@@@std@@@std@@AEBAXPEAU?$tvec4@M$0A@@glm@@0@Z ; std::vector<glm::tvec4<float,0>,std::allocator<glm::tvec4<float,0> > >::_Orphan_range_locked
PUBLIC	?_Orphan_range@?$vector@U?$tvec4@M$0A@@glm@@V?$allocator@U?$tvec4@M$0A@@glm@@@std@@@std@@AEBAXPEAU?$tvec4@M$0A@@glm@@0@Z ; std::vector<glm::tvec4<float,0>,std::allocator<glm::tvec4<float,0> > >::_Orphan_range
PUBLIC	?_Getal@?$vector@U?$tvec4@M$0A@@glm@@V?$allocator@U?$tvec4@M$0A@@glm@@@std@@@std@@AEAAAEAV?$allocator@U?$tvec4@M$0A@@glm@@@2@XZ ; std::vector<glm::tvec4<float,0>,std::allocator<glm::tvec4<float,0> > >::_Getal
PUBLIC	?_Getal@?$vector@U?$tvec4@M$0A@@glm@@V?$allocator@U?$tvec4@M$0A@@glm@@@std@@@std@@AEBAAEBV?$allocator@U?$tvec4@M$0A@@glm@@@2@XZ ; std::vector<glm::tvec4<float,0>,std::allocator<glm::tvec4<float,0> > >::_Getal
PUBLIC	??0?$_Vector_val@U?$_Simple_types@U?$tvec4@M$0A@@glm@@@std@@@std@@QEAA@XZ ; std::_Vector_val<std::_Simple_types<glm::tvec4<float,0> > >::_Vector_val<std::_Simple_types<glm::tvec4<float,0> > >
PUBLIC	?_Get_first@?$_Compressed_pair@V?$allocator@U?$tvec4@M$0A@@glm@@@std@@V?$_Vector_val@U?$_Simple_types@U?$tvec4@M$0A@@glm@@@std@@@2@$00@std@@QEAAAEAV?$allocator@U?$tvec4@M$0A@@glm@@@2@XZ ; std::_Compressed_pair<std::allocator<glm::tvec4<float,0> >,std::_Vector_val<std::_Simple_types<glm::tvec4<float,0> > >,1>::_Get_first
PUBLIC	?_Get_first@?$_Compressed_pair@V?$allocator@U?$tvec4@M$0A@@glm@@@std@@V?$_Vector_val@U?$_Simple_types@U?$tvec4@M$0A@@glm@@@std@@@2@$00@std@@QEBAAEBV?$allocator@U?$tvec4@M$0A@@glm@@@2@XZ ; std::_Compressed_pair<std::allocator<glm::tvec4<float,0> >,std::_Vector_val<std::_Simple_types<glm::tvec4<float,0> > >,1>::_Get_first
PUBLIC	??$packHalf@$0A@Utvec4@glm@@@glm@@YA?AU?$tvec4@G$0A@@0@AEBU?$tvec4@M$0A@@0@@Z ; glm::packHalf<0,glm::tvec4>
PUBLIC	??$unpackHalf@$0A@Utvec4@glm@@@glm@@YA?AU?$tvec4@M$0A@@0@AEBU?$tvec4@G$0A@@0@@Z ; glm::unpackHalf<0,glm::tvec4>
PUBLIC	??$equal@M$0A@Utvec4@glm@@@glm@@YA?AU?$tvec4@_N$0A@@0@AEBU?$tvec4@M$0A@@0@0@Z ; glm::equal<float,0,glm::tvec4>
PUBLIC	?length@?$tvec4@_N$0A@@glm@@SAHXZ		; glm::tvec4<bool,0>::length
PUBLIC	??A?$tvec4@_N$0A@@glm@@QEAAAEA_NH@Z		; glm::tvec4<bool,0>::operator[]
PUBLIC	??A?$tvec4@_N$0A@@glm@@QEBAAEB_NH@Z		; glm::tvec4<bool,0>::operator[]
PUBLIC	??0?$tvec4@_N$0A@@glm@@QEAA@W4ctor@1@@Z		; glm::tvec4<bool,0>::tvec4<bool,0>
PUBLIC	??$all@$0A@Utvec4@glm@@@glm@@YA_NAEBU?$tvec4@_N$0A@@0@@Z ; glm::all<0,glm::tvec4>
PUBLIC	?test_I3x10_1x2@@YAHXZ				; test_I3x10_1x2
PUBLIC	??0?$allocator@U?$tvec4@H$0A@@glm@@@std@@QEAA@XZ ; std::allocator<glm::tvec4<int,0> >::allocator<glm::tvec4<int,0> >
PUBLIC	?deallocate@?$allocator@U?$tvec4@H$0A@@glm@@@std@@QEAAXQEAU?$tvec4@H$0A@@glm@@_K@Z ; std::allocator<glm::tvec4<int,0> >::deallocate
PUBLIC	?allocate@?$allocator@U?$tvec4@H$0A@@glm@@@std@@QEAAPEAU?$tvec4@H$0A@@glm@@_K@Z ; std::allocator<glm::tvec4<int,0> >::allocate
PUBLIC	?max_size@?$_Default_allocator_traits@V?$allocator@U?$tvec4@H$0A@@glm@@@std@@@std@@SA_KAEBV?$allocator@U?$tvec4@H$0A@@glm@@@2@@Z ; std::_Default_allocator_traits<std::allocator<glm::tvec4<int,0> > >::max_size
PUBLIC	??0?$vector@U?$tvec4@H$0A@@glm@@V?$allocator@U?$tvec4@H$0A@@glm@@@std@@@std@@QEAA@XZ ; std::vector<glm::tvec4<int,0>,std::allocator<glm::tvec4<int,0> > >::vector<glm::tvec4<int,0>,std::allocator<glm::tvec4<int,0> > >
PUBLIC	??1?$vector@U?$tvec4@H$0A@@glm@@V?$allocator@U?$tvec4@H$0A@@glm@@@std@@@std@@QEAA@XZ ; std::vector<glm::tvec4<int,0>,std::allocator<glm::tvec4<int,0> > >::~vector<glm::tvec4<int,0>,std::allocator<glm::tvec4<int,0> > >
PUBLIC	?push_back@?$vector@U?$tvec4@H$0A@@glm@@V?$allocator@U?$tvec4@H$0A@@glm@@@std@@@std@@QEAAX$$QEAU?$tvec4@H$0A@@glm@@@Z ; std::vector<glm::tvec4<int,0>,std::allocator<glm::tvec4<int,0> > >::push_back
PUBLIC	?size@?$vector@U?$tvec4@H$0A@@glm@@V?$allocator@U?$tvec4@H$0A@@glm@@@std@@@std@@QEBA_KXZ ; std::vector<glm::tvec4<int,0>,std::allocator<glm::tvec4<int,0> > >::size
PUBLIC	?max_size@?$vector@U?$tvec4@H$0A@@glm@@V?$allocator@U?$tvec4@H$0A@@glm@@@std@@@std@@QEBA_KXZ ; std::vector<glm::tvec4<int,0>,std::allocator<glm::tvec4<int,0> > >::max_size
PUBLIC	?capacity@?$vector@U?$tvec4@H$0A@@glm@@V?$allocator@U?$tvec4@H$0A@@glm@@@std@@@std@@QEBA_KXZ ; std::vector<glm::tvec4<int,0>,std::allocator<glm::tvec4<int,0> > >::capacity
PUBLIC	??A?$vector@U?$tvec4@H$0A@@glm@@V?$allocator@U?$tvec4@H$0A@@glm@@@std@@@std@@QEAAAEAU?$tvec4@H$0A@@glm@@_K@Z ; std::vector<glm::tvec4<int,0>,std::allocator<glm::tvec4<int,0> > >::operator[]
PUBLIC	?_Calculate_growth@?$vector@U?$tvec4@H$0A@@glm@@V?$allocator@U?$tvec4@H$0A@@glm@@@std@@@std@@AEBA_K_K@Z ; std::vector<glm::tvec4<int,0>,std::allocator<glm::tvec4<int,0> > >::_Calculate_growth
PUBLIC	?_Change_array@?$vector@U?$tvec4@H$0A@@glm@@V?$allocator@U?$tvec4@H$0A@@glm@@@std@@@std@@AEAAXQEAU?$tvec4@H$0A@@glm@@_K1@Z ; std::vector<glm::tvec4<int,0>,std::allocator<glm::tvec4<int,0> > >::_Change_array
PUBLIC	?_Tidy@?$vector@U?$tvec4@H$0A@@glm@@V?$allocator@U?$tvec4@H$0A@@glm@@@std@@@std@@AEAAXXZ ; std::vector<glm::tvec4<int,0>,std::allocator<glm::tvec4<int,0> > >::_Tidy
PUBLIC	?_Xlength@?$vector@U?$tvec4@H$0A@@glm@@V?$allocator@U?$tvec4@H$0A@@glm@@@std@@@std@@CAXXZ ; std::vector<glm::tvec4<int,0>,std::allocator<glm::tvec4<int,0> > >::_Xlength
PUBLIC	?_Orphan_range_unlocked@?$vector@U?$tvec4@H$0A@@glm@@V?$allocator@U?$tvec4@H$0A@@glm@@@std@@@std@@AEBAXPEAU?$tvec4@H$0A@@glm@@0@Z ; std::vector<glm::tvec4<int,0>,std::allocator<glm::tvec4<int,0> > >::_Orphan_range_unlocked
PUBLIC	?_Orphan_range_locked@?$vector@U?$tvec4@H$0A@@glm@@V?$allocator@U?$tvec4@H$0A@@glm@@@std@@@std@@AEBAXPEAU?$tvec4@H$0A@@glm@@0@Z ; std::vector<glm::tvec4<int,0>,std::allocator<glm::tvec4<int,0> > >::_Orphan_range_locked
PUBLIC	?_Orphan_range@?$vector@U?$tvec4@H$0A@@glm@@V?$allocator@U?$tvec4@H$0A@@glm@@@std@@@std@@AEBAXPEAU?$tvec4@H$0A@@glm@@0@Z ; std::vector<glm::tvec4<int,0>,std::allocator<glm::tvec4<int,0> > >::_Orphan_range
PUBLIC	?_Getal@?$vector@U?$tvec4@H$0A@@glm@@V?$allocator@U?$tvec4@H$0A@@glm@@@std@@@std@@AEAAAEAV?$allocator@U?$tvec4@H$0A@@glm@@@2@XZ ; std::vector<glm::tvec4<int,0>,std::allocator<glm::tvec4<int,0> > >::_Getal
PUBLIC	?_Getal@?$vector@U?$tvec4@H$0A@@glm@@V?$allocator@U?$tvec4@H$0A@@glm@@@std@@@std@@AEBAAEBV?$allocator@U?$tvec4@H$0A@@glm@@@2@XZ ; std::vector<glm::tvec4<int,0>,std::allocator<glm::tvec4<int,0> > >::_Getal
PUBLIC	??0?$_Vector_val@U?$_Simple_types@U?$tvec4@H$0A@@glm@@@std@@@std@@QEAA@XZ ; std::_Vector_val<std::_Simple_types<glm::tvec4<int,0> > >::_Vector_val<std::_Simple_types<glm::tvec4<int,0> > >
PUBLIC	?_Get_first@?$_Compressed_pair@V?$allocator@U?$tvec4@H$0A@@glm@@@std@@V?$_Vector_val@U?$_Simple_types@U?$tvec4@H$0A@@glm@@@std@@@2@$00@std@@QEAAAEAV?$allocator@U?$tvec4@H$0A@@glm@@@2@XZ ; std::_Compressed_pair<std::allocator<glm::tvec4<int,0> >,std::_Vector_val<std::_Simple_types<glm::tvec4<int,0> > >,1>::_Get_first
PUBLIC	?_Get_first@?$_Compressed_pair@V?$allocator@U?$tvec4@H$0A@@glm@@@std@@V?$_Vector_val@U?$_Simple_types@U?$tvec4@H$0A@@glm@@@std@@@2@$00@std@@QEBAAEBV?$allocator@U?$tvec4@H$0A@@glm@@@2@XZ ; std::_Compressed_pair<std::allocator<glm::tvec4<int,0> >,std::_Vector_val<std::_Simple_types<glm::tvec4<int,0> > >,1>::_Get_first
PUBLIC	??$equal@H$0A@Utvec4@glm@@@glm@@YA?AU?$tvec4@_N$0A@@0@AEBU?$tvec4@H$0A@@0@0@Z ; glm::equal<int,0,glm::tvec4>
PUBLIC	?test_U3x10_1x2@@YAHXZ				; test_U3x10_1x2
PUBLIC	??0?$allocator@U?$tvec4@I$0A@@glm@@@std@@QEAA@XZ ; std::allocator<glm::tvec4<unsigned int,0> >::allocator<glm::tvec4<unsigned int,0> >
PUBLIC	?deallocate@?$allocator@U?$tvec4@I$0A@@glm@@@std@@QEAAXQEAU?$tvec4@I$0A@@glm@@_K@Z ; std::allocator<glm::tvec4<unsigned int,0> >::deallocate
PUBLIC	?allocate@?$allocator@U?$tvec4@I$0A@@glm@@@std@@QEAAPEAU?$tvec4@I$0A@@glm@@_K@Z ; std::allocator<glm::tvec4<unsigned int,0> >::allocate
PUBLIC	?max_size@?$_Default_allocator_traits@V?$allocator@U?$tvec4@I$0A@@glm@@@std@@@std@@SA_KAEBV?$allocator@U?$tvec4@I$0A@@glm@@@2@@Z ; std::_Default_allocator_traits<std::allocator<glm::tvec4<unsigned int,0> > >::max_size
PUBLIC	??0?$vector@U?$tvec4@I$0A@@glm@@V?$allocator@U?$tvec4@I$0A@@glm@@@std@@@std@@QEAA@XZ ; std::vector<glm::tvec4<unsigned int,0>,std::allocator<glm::tvec4<unsigned int,0> > >::vector<glm::tvec4<unsigned int,0>,std::allocator<glm::tvec4<unsigned int,0> > >
PUBLIC	??1?$vector@U?$tvec4@I$0A@@glm@@V?$allocator@U?$tvec4@I$0A@@glm@@@std@@@std@@QEAA@XZ ; std::vector<glm::tvec4<unsigned int,0>,std::allocator<glm::tvec4<unsigned int,0> > >::~vector<glm::tvec4<unsigned int,0>,std::allocator<glm::tvec4<unsigned int,0> > >
PUBLIC	?push_back@?$vector@U?$tvec4@I$0A@@glm@@V?$allocator@U?$tvec4@I$0A@@glm@@@std@@@std@@QEAAX$$QEAU?$tvec4@I$0A@@glm@@@Z ; std::vector<glm::tvec4<unsigned int,0>,std::allocator<glm::tvec4<unsigned int,0> > >::push_back
PUBLIC	?size@?$vector@U?$tvec4@I$0A@@glm@@V?$allocator@U?$tvec4@I$0A@@glm@@@std@@@std@@QEBA_KXZ ; std::vector<glm::tvec4<unsigned int,0>,std::allocator<glm::tvec4<unsigned int,0> > >::size
PUBLIC	?max_size@?$vector@U?$tvec4@I$0A@@glm@@V?$allocator@U?$tvec4@I$0A@@glm@@@std@@@std@@QEBA_KXZ ; std::vector<glm::tvec4<unsigned int,0>,std::allocator<glm::tvec4<unsigned int,0> > >::max_size
PUBLIC	?capacity@?$vector@U?$tvec4@I$0A@@glm@@V?$allocator@U?$tvec4@I$0A@@glm@@@std@@@std@@QEBA_KXZ ; std::vector<glm::tvec4<unsigned int,0>,std::allocator<glm::tvec4<unsigned int,0> > >::capacity
PUBLIC	??A?$vector@U?$tvec4@I$0A@@glm@@V?$allocator@U?$tvec4@I$0A@@glm@@@std@@@std@@QEAAAEAU?$tvec4@I$0A@@glm@@_K@Z ; std::vector<glm::tvec4<unsigned int,0>,std::allocator<glm::tvec4<unsigned int,0> > >::operator[]
PUBLIC	?_Calculate_growth@?$vector@U?$tvec4@I$0A@@glm@@V?$allocator@U?$tvec4@I$0A@@glm@@@std@@@std@@AEBA_K_K@Z ; std::vector<glm::tvec4<unsigned int,0>,std::allocator<glm::tvec4<unsigned int,0> > >::_Calculate_growth
PUBLIC	?_Change_array@?$vector@U?$tvec4@I$0A@@glm@@V?$allocator@U?$tvec4@I$0A@@glm@@@std@@@std@@AEAAXQEAU?$tvec4@I$0A@@glm@@_K1@Z ; std::vector<glm::tvec4<unsigned int,0>,std::allocator<glm::tvec4<unsigned int,0> > >::_Change_array
PUBLIC	?_Tidy@?$vector@U?$tvec4@I$0A@@glm@@V?$allocator@U?$tvec4@I$0A@@glm@@@std@@@std@@AEAAXXZ ; std::vector<glm::tvec4<unsigned int,0>,std::allocator<glm::tvec4<unsigned int,0> > >::_Tidy
PUBLIC	?_Xlength@?$vector@U?$tvec4@I$0A@@glm@@V?$allocator@U?$tvec4@I$0A@@glm@@@std@@@std@@CAXXZ ; std::vector<glm::tvec4<unsigned int,0>,std::allocator<glm::tvec4<unsigned int,0> > >::_Xlength
PUBLIC	?_Orphan_range_unlocked@?$vector@U?$tvec4@I$0A@@glm@@V?$allocator@U?$tvec4@I$0A@@glm@@@std@@@std@@AEBAXPEAU?$tvec4@I$0A@@glm@@0@Z ; std::vector<glm::tvec4<unsigned int,0>,std::allocator<glm::tvec4<unsigned int,0> > >::_Orphan_range_unlocked
PUBLIC	?_Orphan_range_locked@?$vector@U?$tvec4@I$0A@@glm@@V?$allocator@U?$tvec4@I$0A@@glm@@@std@@@std@@AEBAXPEAU?$tvec4@I$0A@@glm@@0@Z ; std::vector<glm::tvec4<unsigned int,0>,std::allocator<glm::tvec4<unsigned int,0> > >::_Orphan_range_locked
PUBLIC	?_Orphan_range@?$vector@U?$tvec4@I$0A@@glm@@V?$allocator@U?$tvec4@I$0A@@glm@@@std@@@std@@AEBAXPEAU?$tvec4@I$0A@@glm@@0@Z ; std::vector<glm::tvec4<unsigned int,0>,std::allocator<glm::tvec4<unsigned int,0> > >::_Orphan_range
PUBLIC	?_Getal@?$vector@U?$tvec4@I$0A@@glm@@V?$allocator@U?$tvec4@I$0A@@glm@@@std@@@std@@AEAAAEAV?$allocator@U?$tvec4@I$0A@@glm@@@2@XZ ; std::vector<glm::tvec4<unsigned int,0>,std::allocator<glm::tvec4<unsigned int,0> > >::_Getal
PUBLIC	?_Getal@?$vector@U?$tvec4@I$0A@@glm@@V?$allocator@U?$tvec4@I$0A@@glm@@@std@@@std@@AEBAAEBV?$allocator@U?$tvec4@I$0A@@glm@@@2@XZ ; std::vector<glm::tvec4<unsigned int,0>,std::allocator<glm::tvec4<unsigned int,0> > >::_Getal
PUBLIC	??0?$_Vector_val@U?$_Simple_types@U?$tvec4@I$0A@@glm@@@std@@@std@@QEAA@XZ ; std::_Vector_val<std::_Simple_types<glm::tvec4<unsigned int,0> > >::_Vector_val<std::_Simple_types<glm::tvec4<unsigned int,0> > >
PUBLIC	?_Get_first@?$_Compressed_pair@V?$allocator@U?$tvec4@I$0A@@glm@@@std@@V?$_Vector_val@U?$_Simple_types@U?$tvec4@I$0A@@glm@@@std@@@2@$00@std@@QEAAAEAV?$allocator@U?$tvec4@I$0A@@glm@@@2@XZ ; std::_Compressed_pair<std::allocator<glm::tvec4<unsigned int,0> >,std::_Vector_val<std::_Simple_types<glm::tvec4<unsigned int,0> > >,1>::_Get_first
PUBLIC	?_Get_first@?$_Compressed_pair@V?$allocator@U?$tvec4@I$0A@@glm@@@std@@V?$_Vector_val@U?$_Simple_types@U?$tvec4@I$0A@@glm@@@std@@@2@$00@std@@QEBAAEBV?$allocator@U?$tvec4@I$0A@@glm@@@2@XZ ; std::_Compressed_pair<std::allocator<glm::tvec4<unsigned int,0> >,std::_Vector_val<std::_Simple_types<glm::tvec4<unsigned int,0> > >,1>::_Get_first
PUBLIC	??$equal@I$0A@Utvec4@glm@@@glm@@YA?AU?$tvec4@_N$0A@@0@AEBU?$tvec4@I$0A@@0@0@Z ; glm::equal<unsigned int,0,glm::tvec4>
PUBLIC	?test_Snorm3x10_1x2@@YAHXZ			; test_Snorm3x10_1x2
PUBLIC	??$epsilonEqual@M$0A@Utvec4@glm@@@glm@@YA?AU?$tvec4@_N$0A@@0@AEBU?$tvec4@M$0A@@0@0AEBM@Z ; glm::epsilonEqual<float,0,glm::tvec4>
PUBLIC	?test_Unorm3x10_1x2@@YAHXZ			; test_Unorm3x10_1x2
PUBLIC	?test_F2x11_1x10@@YAHXZ				; test_F2x11_1x10
PUBLIC	??0?$allocator@U?$tvec3@M$0A@@glm@@@std@@QEAA@XZ ; std::allocator<glm::tvec3<float,0> >::allocator<glm::tvec3<float,0> >
PUBLIC	?deallocate@?$allocator@U?$tvec3@M$0A@@glm@@@std@@QEAAXQEAU?$tvec3@M$0A@@glm@@_K@Z ; std::allocator<glm::tvec3<float,0> >::deallocate
PUBLIC	?allocate@?$allocator@U?$tvec3@M$0A@@glm@@@std@@QEAAPEAU?$tvec3@M$0A@@glm@@_K@Z ; std::allocator<glm::tvec3<float,0> >::allocate
PUBLIC	?max_size@?$_Default_allocator_traits@V?$allocator@U?$tvec3@M$0A@@glm@@@std@@@std@@SA_KAEBV?$allocator@U?$tvec3@M$0A@@glm@@@2@@Z ; std::_Default_allocator_traits<std::allocator<glm::tvec3<float,0> > >::max_size
PUBLIC	??0?$vector@U?$tvec3@M$0A@@glm@@V?$allocator@U?$tvec3@M$0A@@glm@@@std@@@std@@QEAA@XZ ; std::vector<glm::tvec3<float,0>,std::allocator<glm::tvec3<float,0> > >::vector<glm::tvec3<float,0>,std::allocator<glm::tvec3<float,0> > >
PUBLIC	??1?$vector@U?$tvec3@M$0A@@glm@@V?$allocator@U?$tvec3@M$0A@@glm@@@std@@@std@@QEAA@XZ ; std::vector<glm::tvec3<float,0>,std::allocator<glm::tvec3<float,0> > >::~vector<glm::tvec3<float,0>,std::allocator<glm::tvec3<float,0> > >
PUBLIC	?push_back@?$vector@U?$tvec3@M$0A@@glm@@V?$allocator@U?$tvec3@M$0A@@glm@@@std@@@std@@QEAAX$$QEAU?$tvec3@M$0A@@glm@@@Z ; std::vector<glm::tvec3<float,0>,std::allocator<glm::tvec3<float,0> > >::push_back
PUBLIC	?size@?$vector@U?$tvec3@M$0A@@glm@@V?$allocator@U?$tvec3@M$0A@@glm@@@std@@@std@@QEBA_KXZ ; std::vector<glm::tvec3<float,0>,std::allocator<glm::tvec3<float,0> > >::size
PUBLIC	?max_size@?$vector@U?$tvec3@M$0A@@glm@@V?$allocator@U?$tvec3@M$0A@@glm@@@std@@@std@@QEBA_KXZ ; std::vector<glm::tvec3<float,0>,std::allocator<glm::tvec3<float,0> > >::max_size
PUBLIC	?capacity@?$vector@U?$tvec3@M$0A@@glm@@V?$allocator@U?$tvec3@M$0A@@glm@@@std@@@std@@QEBA_KXZ ; std::vector<glm::tvec3<float,0>,std::allocator<glm::tvec3<float,0> > >::capacity
PUBLIC	??A?$vector@U?$tvec3@M$0A@@glm@@V?$allocator@U?$tvec3@M$0A@@glm@@@std@@@std@@QEAAAEAU?$tvec3@M$0A@@glm@@_K@Z ; std::vector<glm::tvec3<float,0>,std::allocator<glm::tvec3<float,0> > >::operator[]
PUBLIC	?_Calculate_growth@?$vector@U?$tvec3@M$0A@@glm@@V?$allocator@U?$tvec3@M$0A@@glm@@@std@@@std@@AEBA_K_K@Z ; std::vector<glm::tvec3<float,0>,std::allocator<glm::tvec3<float,0> > >::_Calculate_growth
PUBLIC	?_Change_array@?$vector@U?$tvec3@M$0A@@glm@@V?$allocator@U?$tvec3@M$0A@@glm@@@std@@@std@@AEAAXQEAU?$tvec3@M$0A@@glm@@_K1@Z ; std::vector<glm::tvec3<float,0>,std::allocator<glm::tvec3<float,0> > >::_Change_array
PUBLIC	?_Tidy@?$vector@U?$tvec3@M$0A@@glm@@V?$allocator@U?$tvec3@M$0A@@glm@@@std@@@std@@AEAAXXZ ; std::vector<glm::tvec3<float,0>,std::allocator<glm::tvec3<float,0> > >::_Tidy
PUBLIC	?_Xlength@?$vector@U?$tvec3@M$0A@@glm@@V?$allocator@U?$tvec3@M$0A@@glm@@@std@@@std@@CAXXZ ; std::vector<glm::tvec3<float,0>,std::allocator<glm::tvec3<float,0> > >::_Xlength
PUBLIC	?_Orphan_range_unlocked@?$vector@U?$tvec3@M$0A@@glm@@V?$allocator@U?$tvec3@M$0A@@glm@@@std@@@std@@AEBAXPEAU?$tvec3@M$0A@@glm@@0@Z ; std::vector<glm::tvec3<float,0>,std::allocator<glm::tvec3<float,0> > >::_Orphan_range_unlocked
PUBLIC	?_Orphan_range_locked@?$vector@U?$tvec3@M$0A@@glm@@V?$allocator@U?$tvec3@M$0A@@glm@@@std@@@std@@AEBAXPEAU?$tvec3@M$0A@@glm@@0@Z ; std::vector<glm::tvec3<float,0>,std::allocator<glm::tvec3<float,0> > >::_Orphan_range_locked
PUBLIC	?_Orphan_range@?$vector@U?$tvec3@M$0A@@glm@@V?$allocator@U?$tvec3@M$0A@@glm@@@std@@@std@@AEBAXPEAU?$tvec3@M$0A@@glm@@0@Z ; std::vector<glm::tvec3<float,0>,std::allocator<glm::tvec3<float,0> > >::_Orphan_range
PUBLIC	?_Getal@?$vector@U?$tvec3@M$0A@@glm@@V?$allocator@U?$tvec3@M$0A@@glm@@@std@@@std@@AEAAAEAV?$allocator@U?$tvec3@M$0A@@glm@@@2@XZ ; std::vector<glm::tvec3<float,0>,std::allocator<glm::tvec3<float,0> > >::_Getal
PUBLIC	?_Getal@?$vector@U?$tvec3@M$0A@@glm@@V?$allocator@U?$tvec3@M$0A@@glm@@@std@@@std@@AEBAAEBV?$allocator@U?$tvec3@M$0A@@glm@@@2@XZ ; std::vector<glm::tvec3<float,0>,std::allocator<glm::tvec3<float,0> > >::_Getal
PUBLIC	??0?$_Vector_val@U?$_Simple_types@U?$tvec3@M$0A@@glm@@@std@@@std@@QEAA@XZ ; std::_Vector_val<std::_Simple_types<glm::tvec3<float,0> > >::_Vector_val<std::_Simple_types<glm::tvec3<float,0> > >
PUBLIC	?_Get_first@?$_Compressed_pair@V?$allocator@U?$tvec3@M$0A@@glm@@@std@@V?$_Vector_val@U?$_Simple_types@U?$tvec3@M$0A@@glm@@@std@@@2@$00@std@@QEAAAEAV?$allocator@U?$tvec3@M$0A@@glm@@@2@XZ ; std::_Compressed_pair<std::allocator<glm::tvec3<float,0> >,std::_Vector_val<std::_Simple_types<glm::tvec3<float,0> > >,1>::_Get_first
PUBLIC	?_Get_first@?$_Compressed_pair@V?$allocator@U?$tvec3@M$0A@@glm@@@std@@V?$_Vector_val@U?$_Simple_types@U?$tvec3@M$0A@@glm@@@std@@@2@$00@std@@QEBAAEBV?$allocator@U?$tvec3@M$0A@@glm@@@2@XZ ; std::_Compressed_pair<std::allocator<glm::tvec3<float,0> >,std::_Vector_val<std::_Simple_types<glm::tvec3<float,0> > >,1>::_Get_first
PUBLIC	??$equal@M$0A@Utvec3@glm@@@glm@@YA?AU?$tvec3@_N$0A@@0@AEBU?$tvec3@M$0A@@0@0@Z ; glm::equal<float,0,glm::tvec3>
PUBLIC	?length@?$tvec3@_N$0A@@glm@@SAHXZ		; glm::tvec3<bool,0>::length
PUBLIC	??A?$tvec3@_N$0A@@glm@@QEAAAEA_NH@Z		; glm::tvec3<bool,0>::operator[]
PUBLIC	??A?$tvec3@_N$0A@@glm@@QEBAAEB_NH@Z		; glm::tvec3<bool,0>::operator[]
PUBLIC	??0?$tvec3@_N$0A@@glm@@QEAA@W4ctor@1@@Z		; glm::tvec3<bool,0>::tvec3<bool,0>
PUBLIC	??$all@$0A@Utvec3@glm@@@glm@@YA_NAEBU?$tvec3@_N$0A@@0@@Z ; glm::all<0,glm::tvec3>
PUBLIC	?test_F3x9_E1x5@@YAHXZ				; test_F3x9_E1x5
PUBLIC	??$epsilonEqual@M$0A@Utvec3@glm@@@glm@@YA?AU?$tvec3@_N$0A@@0@AEBU?$tvec3@M$0A@@0@0AEBM@Z ; glm::epsilonEqual<float,0,glm::tvec3>
PUBLIC	?test_packUnorm1x16@@YAHXZ			; test_packUnorm1x16
PUBLIC	??0?$allocator@U?$tvec1@M$0A@@glm@@@std@@QEAA@XZ ; std::allocator<glm::tvec1<float,0> >::allocator<glm::tvec1<float,0> >
PUBLIC	?deallocate@?$allocator@U?$tvec1@M$0A@@glm@@@std@@QEAAXQEAU?$tvec1@M$0A@@glm@@_K@Z ; std::allocator<glm::tvec1<float,0> >::deallocate
PUBLIC	?allocate@?$allocator@U?$tvec1@M$0A@@glm@@@std@@QEAAPEAU?$tvec1@M$0A@@glm@@_K@Z ; std::allocator<glm::tvec1<float,0> >::allocate
PUBLIC	?max_size@?$_Default_allocator_traits@V?$allocator@U?$tvec1@M$0A@@glm@@@std@@@std@@SA_KAEBV?$allocator@U?$tvec1@M$0A@@glm@@@2@@Z ; std::_Default_allocator_traits<std::allocator<glm::tvec1<float,0> > >::max_size
PUBLIC	??0?$vector@U?$tvec1@M$0A@@glm@@V?$allocator@U?$tvec1@M$0A@@glm@@@std@@@std@@QEAA@XZ ; std::vector<glm::tvec1<float,0>,std::allocator<glm::tvec1<float,0> > >::vector<glm::tvec1<float,0>,std::allocator<glm::tvec1<float,0> > >
PUBLIC	??1?$vector@U?$tvec1@M$0A@@glm@@V?$allocator@U?$tvec1@M$0A@@glm@@@std@@@std@@QEAA@XZ ; std::vector<glm::tvec1<float,0>,std::allocator<glm::tvec1<float,0> > >::~vector<glm::tvec1<float,0>,std::allocator<glm::tvec1<float,0> > >
PUBLIC	?push_back@?$vector@U?$tvec1@M$0A@@glm@@V?$allocator@U?$tvec1@M$0A@@glm@@@std@@@std@@QEAAX$$QEAU?$tvec1@M$0A@@glm@@@Z ; std::vector<glm::tvec1<float,0>,std::allocator<glm::tvec1<float,0> > >::push_back
PUBLIC	?size@?$vector@U?$tvec1@M$0A@@glm@@V?$allocator@U?$tvec1@M$0A@@glm@@@std@@@std@@QEBA_KXZ ; std::vector<glm::tvec1<float,0>,std::allocator<glm::tvec1<float,0> > >::size
PUBLIC	?max_size@?$vector@U?$tvec1@M$0A@@glm@@V?$allocator@U?$tvec1@M$0A@@glm@@@std@@@std@@QEBA_KXZ ; std::vector<glm::tvec1<float,0>,std::allocator<glm::tvec1<float,0> > >::max_size
PUBLIC	?capacity@?$vector@U?$tvec1@M$0A@@glm@@V?$allocator@U?$tvec1@M$0A@@glm@@@std@@@std@@QEBA_KXZ ; std::vector<glm::tvec1<float,0>,std::allocator<glm::tvec1<float,0> > >::capacity
PUBLIC	??A?$vector@U?$tvec1@M$0A@@glm@@V?$allocator@U?$tvec1@M$0A@@glm@@@std@@@std@@QEAAAEAU?$tvec1@M$0A@@glm@@_K@Z ; std::vector<glm::tvec1<float,0>,std::allocator<glm::tvec1<float,0> > >::operator[]
PUBLIC	?_Calculate_growth@?$vector@U?$tvec1@M$0A@@glm@@V?$allocator@U?$tvec1@M$0A@@glm@@@std@@@std@@AEBA_K_K@Z ; std::vector<glm::tvec1<float,0>,std::allocator<glm::tvec1<float,0> > >::_Calculate_growth
PUBLIC	?_Change_array@?$vector@U?$tvec1@M$0A@@glm@@V?$allocator@U?$tvec1@M$0A@@glm@@@std@@@std@@AEAAXQEAU?$tvec1@M$0A@@glm@@_K1@Z ; std::vector<glm::tvec1<float,0>,std::allocator<glm::tvec1<float,0> > >::_Change_array
PUBLIC	?_Tidy@?$vector@U?$tvec1@M$0A@@glm@@V?$allocator@U?$tvec1@M$0A@@glm@@@std@@@std@@AEAAXXZ ; std::vector<glm::tvec1<float,0>,std::allocator<glm::tvec1<float,0> > >::_Tidy
PUBLIC	?_Xlength@?$vector@U?$tvec1@M$0A@@glm@@V?$allocator@U?$tvec1@M$0A@@glm@@@std@@@std@@CAXXZ ; std::vector<glm::tvec1<float,0>,std::allocator<glm::tvec1<float,0> > >::_Xlength
PUBLIC	?_Orphan_range_unlocked@?$vector@U?$tvec1@M$0A@@glm@@V?$allocator@U?$tvec1@M$0A@@glm@@@std@@@std@@AEBAXPEAU?$tvec1@M$0A@@glm@@0@Z ; std::vector<glm::tvec1<float,0>,std::allocator<glm::tvec1<float,0> > >::_Orphan_range_unlocked
PUBLIC	?_Orphan_range_locked@?$vector@U?$tvec1@M$0A@@glm@@V?$allocator@U?$tvec1@M$0A@@glm@@@std@@@std@@AEBAXPEAU?$tvec1@M$0A@@glm@@0@Z ; std::vector<glm::tvec1<float,0>,std::allocator<glm::tvec1<float,0> > >::_Orphan_range_locked
PUBLIC	?_Orphan_range@?$vector@U?$tvec1@M$0A@@glm@@V?$allocator@U?$tvec1@M$0A@@glm@@@std@@@std@@AEBAXPEAU?$tvec1@M$0A@@glm@@0@Z ; std::vector<glm::tvec1<float,0>,std::allocator<glm::tvec1<float,0> > >::_Orphan_range
PUBLIC	?_Getal@?$vector@U?$tvec1@M$0A@@glm@@V?$allocator@U?$tvec1@M$0A@@glm@@@std@@@std@@AEAAAEAV?$allocator@U?$tvec1@M$0A@@glm@@@2@XZ ; std::vector<glm::tvec1<float,0>,std::allocator<glm::tvec1<float,0> > >::_Getal
PUBLIC	?_Getal@?$vector@U?$tvec1@M$0A@@glm@@V?$allocator@U?$tvec1@M$0A@@glm@@@std@@@std@@AEBAAEBV?$allocator@U?$tvec1@M$0A@@glm@@@2@XZ ; std::vector<glm::tvec1<float,0>,std::allocator<glm::tvec1<float,0> > >::_Getal
PUBLIC	??0?$_Vector_val@U?$_Simple_types@U?$tvec1@M$0A@@glm@@@std@@@std@@QEAA@XZ ; std::_Vector_val<std::_Simple_types<glm::tvec1<float,0> > >::_Vector_val<std::_Simple_types<glm::tvec1<float,0> > >
PUBLIC	?_Get_first@?$_Compressed_pair@V?$allocator@U?$tvec1@M$0A@@glm@@@std@@V?$_Vector_val@U?$_Simple_types@U?$tvec1@M$0A@@glm@@@std@@@2@$00@std@@QEAAAEAV?$allocator@U?$tvec1@M$0A@@glm@@@2@XZ ; std::_Compressed_pair<std::allocator<glm::tvec1<float,0> >,std::_Vector_val<std::_Simple_types<glm::tvec1<float,0> > >,1>::_Get_first
PUBLIC	?_Get_first@?$_Compressed_pair@V?$allocator@U?$tvec1@M$0A@@glm@@@std@@V?$_Vector_val@U?$_Simple_types@U?$tvec1@M$0A@@glm@@@std@@@2@$00@std@@QEBAAEBV?$allocator@U?$tvec1@M$0A@@glm@@@2@XZ ; std::_Compressed_pair<std::allocator<glm::tvec1<float,0> >,std::_Vector_val<std::_Simple_types<glm::tvec1<float,0> > >,1>::_Get_first
PUBLIC	?length@?$tvec1@M$0A@@glm@@SAHXZ		; glm::tvec1<float,0>::length
PUBLIC	??A?$tvec1@M$0A@@glm@@QEBAAEBMH@Z		; glm::tvec1<float,0>::operator[]
PUBLIC	??0?$tvec1@M$0A@@glm@@QEAA@M@Z			; glm::tvec1<float,0>::tvec1<float,0>
PUBLIC	??$epsilonEqual@M$0A@Utvec1@glm@@@glm@@YA?AU?$tvec1@_N$0A@@0@AEBU?$tvec1@M$0A@@0@0AEBM@Z ; glm::epsilonEqual<float,0,glm::tvec1>
PUBLIC	?length@?$tvec1@_N$0A@@glm@@SAHXZ		; glm::tvec1<bool,0>::length
PUBLIC	??A?$tvec1@_N$0A@@glm@@QEAAAEA_NH@Z		; glm::tvec1<bool,0>::operator[]
PUBLIC	??A?$tvec1@_N$0A@@glm@@QEBAAEB_NH@Z		; glm::tvec1<bool,0>::operator[]
PUBLIC	??0?$tvec1@_N$0A@@glm@@QEAA@W4ctor@1@@Z		; glm::tvec1<bool,0>::tvec1<bool,0>
PUBLIC	??$all@$0A@Utvec1@glm@@@glm@@YA_NAEBU?$tvec1@_N$0A@@0@@Z ; glm::all<0,glm::tvec1>
PUBLIC	?test_packSnorm1x16@@YAHXZ			; test_packSnorm1x16
PUBLIC	?test_packUnorm2x16@@YAHXZ			; test_packUnorm2x16
PUBLIC	??0?$allocator@U?$tvec2@M$0A@@glm@@@std@@QEAA@XZ ; std::allocator<glm::tvec2<float,0> >::allocator<glm::tvec2<float,0> >
PUBLIC	?deallocate@?$allocator@U?$tvec2@M$0A@@glm@@@std@@QEAAXQEAU?$tvec2@M$0A@@glm@@_K@Z ; std::allocator<glm::tvec2<float,0> >::deallocate
PUBLIC	?allocate@?$allocator@U?$tvec2@M$0A@@glm@@@std@@QEAAPEAU?$tvec2@M$0A@@glm@@_K@Z ; std::allocator<glm::tvec2<float,0> >::allocate
PUBLIC	?max_size@?$_Default_allocator_traits@V?$allocator@U?$tvec2@M$0A@@glm@@@std@@@std@@SA_KAEBV?$allocator@U?$tvec2@M$0A@@glm@@@2@@Z ; std::_Default_allocator_traits<std::allocator<glm::tvec2<float,0> > >::max_size
PUBLIC	??0?$vector@U?$tvec2@M$0A@@glm@@V?$allocator@U?$tvec2@M$0A@@glm@@@std@@@std@@QEAA@XZ ; std::vector<glm::tvec2<float,0>,std::allocator<glm::tvec2<float,0> > >::vector<glm::tvec2<float,0>,std::allocator<glm::tvec2<float,0> > >
PUBLIC	??1?$vector@U?$tvec2@M$0A@@glm@@V?$allocator@U?$tvec2@M$0A@@glm@@@std@@@std@@QEAA@XZ ; std::vector<glm::tvec2<float,0>,std::allocator<glm::tvec2<float,0> > >::~vector<glm::tvec2<float,0>,std::allocator<glm::tvec2<float,0> > >
PUBLIC	?push_back@?$vector@U?$tvec2@M$0A@@glm@@V?$allocator@U?$tvec2@M$0A@@glm@@@std@@@std@@QEAAX$$QEAU?$tvec2@M$0A@@glm@@@Z ; std::vector<glm::tvec2<float,0>,std::allocator<glm::tvec2<float,0> > >::push_back
PUBLIC	?size@?$vector@U?$tvec2@M$0A@@glm@@V?$allocator@U?$tvec2@M$0A@@glm@@@std@@@std@@QEBA_KXZ ; std::vector<glm::tvec2<float,0>,std::allocator<glm::tvec2<float,0> > >::size
PUBLIC	?max_size@?$vector@U?$tvec2@M$0A@@glm@@V?$allocator@U?$tvec2@M$0A@@glm@@@std@@@std@@QEBA_KXZ ; std::vector<glm::tvec2<float,0>,std::allocator<glm::tvec2<float,0> > >::max_size
PUBLIC	?capacity@?$vector@U?$tvec2@M$0A@@glm@@V?$allocator@U?$tvec2@M$0A@@glm@@@std@@@std@@QEBA_KXZ ; std::vector<glm::tvec2<float,0>,std::allocator<glm::tvec2<float,0> > >::capacity
PUBLIC	??A?$vector@U?$tvec2@M$0A@@glm@@V?$allocator@U?$tvec2@M$0A@@glm@@@std@@@std@@QEAAAEAU?$tvec2@M$0A@@glm@@_K@Z ; std::vector<glm::tvec2<float,0>,std::allocator<glm::tvec2<float,0> > >::operator[]
PUBLIC	?_Calculate_growth@?$vector@U?$tvec2@M$0A@@glm@@V?$allocator@U?$tvec2@M$0A@@glm@@@std@@@std@@AEBA_K_K@Z ; std::vector<glm::tvec2<float,0>,std::allocator<glm::tvec2<float,0> > >::_Calculate_growth
PUBLIC	?_Change_array@?$vector@U?$tvec2@M$0A@@glm@@V?$allocator@U?$tvec2@M$0A@@glm@@@std@@@std@@AEAAXQEAU?$tvec2@M$0A@@glm@@_K1@Z ; std::vector<glm::tvec2<float,0>,std::allocator<glm::tvec2<float,0> > >::_Change_array
PUBLIC	?_Tidy@?$vector@U?$tvec2@M$0A@@glm@@V?$allocator@U?$tvec2@M$0A@@glm@@@std@@@std@@AEAAXXZ ; std::vector<glm::tvec2<float,0>,std::allocator<glm::tvec2<float,0> > >::_Tidy
PUBLIC	?_Xlength@?$vector@U?$tvec2@M$0A@@glm@@V?$allocator@U?$tvec2@M$0A@@glm@@@std@@@std@@CAXXZ ; std::vector<glm::tvec2<float,0>,std::allocator<glm::tvec2<float,0> > >::_Xlength
PUBLIC	?_Orphan_range_unlocked@?$vector@U?$tvec2@M$0A@@glm@@V?$allocator@U?$tvec2@M$0A@@glm@@@std@@@std@@AEBAXPEAU?$tvec2@M$0A@@glm@@0@Z ; std::vector<glm::tvec2<float,0>,std::allocator<glm::tvec2<float,0> > >::_Orphan_range_unlocked
PUBLIC	?_Orphan_range_locked@?$vector@U?$tvec2@M$0A@@glm@@V?$allocator@U?$tvec2@M$0A@@glm@@@std@@@std@@AEBAXPEAU?$tvec2@M$0A@@glm@@0@Z ; std::vector<glm::tvec2<float,0>,std::allocator<glm::tvec2<float,0> > >::_Orphan_range_locked
PUBLIC	?_Orphan_range@?$vector@U?$tvec2@M$0A@@glm@@V?$allocator@U?$tvec2@M$0A@@glm@@@std@@@std@@AEBAXPEAU?$tvec2@M$0A@@glm@@0@Z ; std::vector<glm::tvec2<float,0>,std::allocator<glm::tvec2<float,0> > >::_Orphan_range
PUBLIC	?_Getal@?$vector@U?$tvec2@M$0A@@glm@@V?$allocator@U?$tvec2@M$0A@@glm@@@std@@@std@@AEAAAEAV?$allocator@U?$tvec2@M$0A@@glm@@@2@XZ ; std::vector<glm::tvec2<float,0>,std::allocator<glm::tvec2<float,0> > >::_Getal
PUBLIC	?_Getal@?$vector@U?$tvec2@M$0A@@glm@@V?$allocator@U?$tvec2@M$0A@@glm@@@std@@@std@@AEBAAEBV?$allocator@U?$tvec2@M$0A@@glm@@@2@XZ ; std::vector<glm::tvec2<float,0>,std::allocator<glm::tvec2<float,0> > >::_Getal
PUBLIC	??0?$_Vector_val@U?$_Simple_types@U?$tvec2@M$0A@@glm@@@std@@@std@@QEAA@XZ ; std::_Vector_val<std::_Simple_types<glm::tvec2<float,0> > >::_Vector_val<std::_Simple_types<glm::tvec2<float,0> > >
PUBLIC	?_Get_first@?$_Compressed_pair@V?$allocator@U?$tvec2@M$0A@@glm@@@std@@V?$_Vector_val@U?$_Simple_types@U?$tvec2@M$0A@@glm@@@std@@@2@$00@std@@QEAAAEAV?$allocator@U?$tvec2@M$0A@@glm@@@2@XZ ; std::_Compressed_pair<std::allocator<glm::tvec2<float,0> >,std::_Vector_val<std::_Simple_types<glm::tvec2<float,0> > >,1>::_Get_first
PUBLIC	?_Get_first@?$_Compressed_pair@V?$allocator@U?$tvec2@M$0A@@glm@@@std@@V?$_Vector_val@U?$_Simple_types@U?$tvec2@M$0A@@glm@@@std@@@2@$00@std@@QEBAAEBV?$allocator@U?$tvec2@M$0A@@glm@@@2@XZ ; std::_Compressed_pair<std::allocator<glm::tvec2<float,0> >,std::_Vector_val<std::_Simple_types<glm::tvec2<float,0> > >,1>::_Get_first
PUBLIC	??$epsilonEqual@M$0A@Utvec2@glm@@@glm@@YA?AU?$tvec2@_N$0A@@0@AEBU?$tvec2@M$0A@@0@0AEBM@Z ; glm::epsilonEqual<float,0,glm::tvec2>
PUBLIC	?length@?$tvec2@_N$0A@@glm@@SAHXZ		; glm::tvec2<bool,0>::length
PUBLIC	??A?$tvec2@_N$0A@@glm@@QEAAAEA_NH@Z		; glm::tvec2<bool,0>::operator[]
PUBLIC	??A?$tvec2@_N$0A@@glm@@QEBAAEB_NH@Z		; glm::tvec2<bool,0>::operator[]
PUBLIC	??0?$tvec2@_N$0A@@glm@@QEAA@W4ctor@1@@Z		; glm::tvec2<bool,0>::tvec2<bool,0>
PUBLIC	??$all@$0A@Utvec2@glm@@@glm@@YA_NAEBU?$tvec2@_N$0A@@0@@Z ; glm::all<0,glm::tvec2>
PUBLIC	?test_packSnorm2x16@@YAHXZ			; test_packSnorm2x16
PUBLIC	?test_packUnorm4x16@@YAHXZ			; test_packUnorm4x16
PUBLIC	?test_packSnorm4x16@@YAHXZ			; test_packSnorm4x16
PUBLIC	?test_packUnorm1x8@@YAHXZ			; test_packUnorm1x8
PUBLIC	?test_packSnorm1x8@@YAHXZ			; test_packSnorm1x8
PUBLIC	?test_packUnorm2x8@@YAHXZ			; test_packUnorm2x8
PUBLIC	?test_packSnorm2x8@@YAHXZ			; test_packSnorm2x8
PUBLIC	?test_packUnorm4x8@@YAHXZ			; test_packUnorm4x8
PUBLIC	?test_packSnorm4x8@@YAHXZ			; test_packSnorm4x8
PUBLIC	?test_packUnorm@@YAHXZ				; test_packUnorm
PUBLIC	??$packUnorm@GM$0A@Utvec2@glm@@@glm@@YA?AU?$tvec2@G$0A@@0@AEBU?$tvec2@M$0A@@0@@Z ; glm::packUnorm<unsigned short,float,0,glm::tvec2>
PUBLIC	??$unpackUnorm@GM$0A@Utvec2@glm@@@glm@@YA?AU?$tvec2@M$0A@@0@AEBU?$tvec2@G$0A@@0@@Z ; glm::unpackUnorm<unsigned short,float,0,glm::tvec2>
PUBLIC	?test_packSnorm@@YAHXZ				; test_packSnorm
PUBLIC	??$packSnorm@FM$0A@Utvec2@glm@@@glm@@YA?AU?$tvec2@F$0A@@0@AEBU?$tvec2@M$0A@@0@@Z ; glm::packSnorm<short,float,0,glm::tvec2>
PUBLIC	??$unpackSnorm@FM$0A@Utvec2@glm@@@glm@@YA?AU?$tvec2@M$0A@@0@AEBU?$tvec2@F$0A@@0@@Z ; glm::unpackSnorm<short,float,0,glm::tvec2>
PUBLIC	?test_packUnorm2x4@@YAHXZ			; test_packUnorm2x4
PUBLIC	?test_packUnorm4x4@@YAHXZ			; test_packUnorm4x4
PUBLIC	?test_packUnorm3x5_1x1@@YAHXZ			; test_packUnorm3x5_1x1
PUBLIC	?test_packUnorm1x5_1x6_1x5@@YAHXZ		; test_packUnorm1x5_1x6_1x5
PUBLIC	?test_packUnorm2x3_1x2@@YAHXZ			; test_packUnorm2x3_1x2
PUBLIC	main
PUBLIC	??$move@AEAU?$tvec2@M$0A@@glm@@@std@@YA$$QEAU?$tvec2@M$0A@@glm@@AEAU12@@Z ; std::move<glm::tvec2<float,0> &>
PUBLIC	??$emplace_back@U?$tvec2@M$0A@@glm@@@?$vector@U?$tvec2@M$0A@@glm@@V?$allocator@U?$tvec2@M$0A@@glm@@@std@@@std@@QEAA?A_T$$QEAU?$tvec2@M$0A@@glm@@@Z ; std::vector<glm::tvec2<float,0>,std::allocator<glm::tvec2<float,0> > >::emplace_back<glm::tvec2<float,0> >
PUBLIC	??$forward@U?$tvec2@M$0A@@glm@@@std@@YA$$QEAU?$tvec2@M$0A@@glm@@AEAU12@@Z ; std::forward<glm::tvec2<float,0> >
PUBLIC	??$_Emplace_one_at_back@U?$tvec2@M$0A@@glm@@@?$vector@U?$tvec2@M$0A@@glm@@V?$allocator@U?$tvec2@M$0A@@glm@@@std@@@std@@AEAAAEAU?$tvec2@M$0A@@glm@@$$QEAU23@@Z ; std::vector<glm::tvec2<float,0>,std::allocator<glm::tvec2<float,0> > >::_Emplace_one_at_back<glm::tvec2<float,0> >
PUBLIC	?allocate@?$allocator@U_Container_proxy@std@@@std@@QEAAPEAU_Container_proxy@2@_K@Z ; std::allocator<std::_Container_proxy>::allocate
PUBLIC	??$?0U?$tvec2@M$0A@@glm@@@?$allocator@U_Container_proxy@std@@@std@@QEAA@AEBV?$allocator@U?$tvec2@M$0A@@glm@@@1@@Z ; std::allocator<std::_Container_proxy>::allocator<std::_Container_proxy><glm::tvec2<float,0> >
PUBLIC	??$exchange@PEAU_Container_proxy@std@@$$T@std@@YAPEAU_Container_proxy@0@AEAPEAU10@$$QEA$$T@Z ; std::exchange<std::_Container_proxy *,std::nullptr_t>
PUBLIC	??$_Delete_plain_internal@V?$allocator@U_Container_proxy@std@@@std@@@std@@YAXAEAV?$allocator@U_Container_proxy@std@@@0@QEAU_Container_proxy@0@@Z ; std::_Delete_plain_internal<std::allocator<std::_Container_proxy> >
PUBLIC	??$?0$$V@?$_Compressed_pair@V?$allocator@U?$tvec2@M$0A@@glm@@@std@@V?$_Vector_val@U?$_Simple_types@U?$tvec2@M$0A@@glm@@@std@@@2@$00@std@@QEAA@U_Zero_then_variadic_args_t@1@@Z ; std::_Compressed_pair<std::allocator<glm::tvec2<float,0> >,std::_Vector_val<std::_Simple_types<glm::tvec2<float,0> > >,1>::_Compressed_pair<std::allocator<glm::tvec2<float,0> >,std::_Vector_val<std::_Simple_types<glm::tvec2<float,0> > >,1><>
PUBLIC	??$_Alloc_proxy@V?$allocator@U_Container_proxy@std@@@std@@@_Container_base12@std@@QEAAX$$QEAV?$allocator@U_Container_proxy@std@@@1@@Z ; std::_Container_base12::_Alloc_proxy<std::allocator<std::_Container_proxy> >
PUBLIC	??$move@AEAU?$tvec1@M$0A@@glm@@@std@@YA$$QEAU?$tvec1@M$0A@@glm@@AEAU12@@Z ; std::move<glm::tvec1<float,0> &>
PUBLIC	??$emplace_back@U?$tvec1@M$0A@@glm@@@?$vector@U?$tvec1@M$0A@@glm@@V?$allocator@U?$tvec1@M$0A@@glm@@@std@@@std@@QEAA?A_T$$QEAU?$tvec1@M$0A@@glm@@@Z ; std::vector<glm::tvec1<float,0>,std::allocator<glm::tvec1<float,0> > >::emplace_back<glm::tvec1<float,0> >
PUBLIC	??$forward@U?$tvec1@M$0A@@glm@@@std@@YA$$QEAU?$tvec1@M$0A@@glm@@AEAU12@@Z ; std::forward<glm::tvec1<float,0> >
PUBLIC	??$_Emplace_one_at_back@U?$tvec1@M$0A@@glm@@@?$vector@U?$tvec1@M$0A@@glm@@V?$allocator@U?$tvec1@M$0A@@glm@@@std@@@std@@AEAAAEAU?$tvec1@M$0A@@glm@@$$QEAU23@@Z ; std::vector<glm::tvec1<float,0>,std::allocator<glm::tvec1<float,0> > >::_Emplace_one_at_back<glm::tvec1<float,0> >
PUBLIC	??$?0U?$tvec1@M$0A@@glm@@@?$allocator@U_Container_proxy@std@@@std@@QEAA@AEBV?$allocator@U?$tvec1@M$0A@@glm@@@1@@Z ; std::allocator<std::_Container_proxy>::allocator<std::_Container_proxy><glm::tvec1<float,0> >
PUBLIC	??$?0$$V@?$_Compressed_pair@V?$allocator@U?$tvec1@M$0A@@glm@@@std@@V?$_Vector_val@U?$_Simple_types@U?$tvec1@M$0A@@glm@@@std@@@2@$00@std@@QEAA@U_Zero_then_variadic_args_t@1@@Z ; std::_Compressed_pair<std::allocator<glm::tvec1<float,0> >,std::_Vector_val<std::_Simple_types<glm::tvec1<float,0> > >,1>::_Compressed_pair<std::allocator<glm::tvec1<float,0> >,std::_Vector_val<std::_Simple_types<glm::tvec1<float,0> > >,1><>
PUBLIC	??$move@AEAU?$tvec3@M$0A@@glm@@@std@@YA$$QEAU?$tvec3@M$0A@@glm@@AEAU12@@Z ; std::move<glm::tvec3<float,0> &>
PUBLIC	??$emplace_back@U?$tvec3@M$0A@@glm@@@?$vector@U?$tvec3@M$0A@@glm@@V?$allocator@U?$tvec3@M$0A@@glm@@@std@@@std@@QEAA?A_T$$QEAU?$tvec3@M$0A@@glm@@@Z ; std::vector<glm::tvec3<float,0>,std::allocator<glm::tvec3<float,0> > >::emplace_back<glm::tvec3<float,0> >
PUBLIC	??$forward@U?$tvec3@M$0A@@glm@@@std@@YA$$QEAU?$tvec3@M$0A@@glm@@AEAU12@@Z ; std::forward<glm::tvec3<float,0> >
PUBLIC	??$_Emplace_one_at_back@U?$tvec3@M$0A@@glm@@@?$vector@U?$tvec3@M$0A@@glm@@V?$allocator@U?$tvec3@M$0A@@glm@@@std@@@std@@AEAAAEAU?$tvec3@M$0A@@glm@@$$QEAU23@@Z ; std::vector<glm::tvec3<float,0>,std::allocator<glm::tvec3<float,0> > >::_Emplace_one_at_back<glm::tvec3<float,0> >
PUBLIC	??$?0U?$tvec3@M$0A@@glm@@@?$allocator@U_Container_proxy@std@@@std@@QEAA@AEBV?$allocator@U?$tvec3@M$0A@@glm@@@1@@Z ; std::allocator<std::_Container_proxy>::allocator<std::_Container_proxy><glm::tvec3<float,0> >
PUBLIC	??$?0$$V@?$_Compressed_pair@V?$allocator@U?$tvec3@M$0A@@glm@@@std@@V?$_Vector_val@U?$_Simple_types@U?$tvec3@M$0A@@glm@@@std@@@2@$00@std@@QEAA@U_Zero_then_variadic_args_t@1@@Z ; std::_Compressed_pair<std::allocator<glm::tvec3<float,0> >,std::_Vector_val<std::_Simple_types<glm::tvec3<float,0> > >,1>::_Compressed_pair<std::allocator<glm::tvec3<float,0> >,std::_Vector_val<std::_Simple_types<glm::tvec3<float,0> > >,1><>
PUBLIC	??$move@AEAU?$tvec4@I$0A@@glm@@@std@@YA$$QEAU?$tvec4@I$0A@@glm@@AEAU12@@Z ; std::move<glm::tvec4<unsigned int,0> &>
PUBLIC	??$emplace_back@U?$tvec4@I$0A@@glm@@@?$vector@U?$tvec4@I$0A@@glm@@V?$allocator@U?$tvec4@I$0A@@glm@@@std@@@std@@QEAA?A_T$$QEAU?$tvec4@I$0A@@glm@@@Z ; std::vector<glm::tvec4<unsigned int,0>,std::allocator<glm::tvec4<unsigned int,0> > >::emplace_back<glm::tvec4<unsigned int,0> >
PUBLIC	??$forward@U?$tvec4@I$0A@@glm@@@std@@YA$$QEAU?$tvec4@I$0A@@glm@@AEAU12@@Z ; std::forward<glm::tvec4<unsigned int,0> >
PUBLIC	??$_Emplace_one_at_back@U?$tvec4@I$0A@@glm@@@?$vector@U?$tvec4@I$0A@@glm@@V?$allocator@U?$tvec4@I$0A@@glm@@@std@@@std@@AEAAAEAU?$tvec4@I$0A@@glm@@$$QEAU23@@Z ; std::vector<glm::tvec4<unsigned int,0>,std::allocator<glm::tvec4<unsigned int,0> > >::_Emplace_one_at_back<glm::tvec4<unsigned int,0> >
PUBLIC	??$?0U?$tvec4@I$0A@@glm@@@?$allocator@U_Container_proxy@std@@@std@@QEAA@AEBV?$allocator@U?$tvec4@I$0A@@glm@@@1@@Z ; std::allocator<std::_Container_proxy>::allocator<std::_Container_proxy><glm::tvec4<unsigned int,0> >
PUBLIC	??$?0$$V@?$_Compressed_pair@V?$allocator@U?$tvec4@I$0A@@glm@@@std@@V?$_Vector_val@U?$_Simple_types@U?$tvec4@I$0A@@glm@@@std@@@2@$00@std@@QEAA@U_Zero_then_variadic_args_t@1@@Z ; std::_Compressed_pair<std::allocator<glm::tvec4<unsigned int,0> >,std::_Vector_val<std::_Simple_types<glm::tvec4<unsigned int,0> > >,1>::_Compressed_pair<std::allocator<glm::tvec4<unsigned int,0> >,std::_Vector_val<std::_Simple_types<glm::tvec4<unsigned int,0> > >,1><>
PUBLIC	??$move@AEAU?$tvec4@H$0A@@glm@@@std@@YA$$QEAU?$tvec4@H$0A@@glm@@AEAU12@@Z ; std::move<glm::tvec4<int,0> &>
PUBLIC	??$emplace_back@U?$tvec4@H$0A@@glm@@@?$vector@U?$tvec4@H$0A@@glm@@V?$allocator@U?$tvec4@H$0A@@glm@@@std@@@std@@QEAA?A_T$$QEAU?$tvec4@H$0A@@glm@@@Z ; std::vector<glm::tvec4<int,0>,std::allocator<glm::tvec4<int,0> > >::emplace_back<glm::tvec4<int,0> >
PUBLIC	??$forward@U?$tvec4@H$0A@@glm@@@std@@YA$$QEAU?$tvec4@H$0A@@glm@@AEAU12@@Z ; std::forward<glm::tvec4<int,0> >
PUBLIC	??$_Emplace_one_at_back@U?$tvec4@H$0A@@glm@@@?$vector@U?$tvec4@H$0A@@glm@@V?$allocator@U?$tvec4@H$0A@@glm@@@std@@@std@@AEAAAEAU?$tvec4@H$0A@@glm@@$$QEAU23@@Z ; std::vector<glm::tvec4<int,0>,std::allocator<glm::tvec4<int,0> > >::_Emplace_one_at_back<glm::tvec4<int,0> >
PUBLIC	??$?0U?$tvec4@H$0A@@glm@@@?$allocator@U_Container_proxy@std@@@std@@QEAA@AEBV?$allocator@U?$tvec4@H$0A@@glm@@@1@@Z ; std::allocator<std::_Container_proxy>::allocator<std::_Container_proxy><glm::tvec4<int,0> >
PUBLIC	??$?0$$V@?$_Compressed_pair@V?$allocator@U?$tvec4@H$0A@@glm@@@std@@V?$_Vector_val@U?$_Simple_types@U?$tvec4@H$0A@@glm@@@std@@@2@$00@std@@QEAA@U_Zero_then_variadic_args_t@1@@Z ; std::_Compressed_pair<std::allocator<glm::tvec4<int,0> >,std::_Vector_val<std::_Simple_types<glm::tvec4<int,0> > >,1>::_Compressed_pair<std::allocator<glm::tvec4<int,0> >,std::_Vector_val<std::_Simple_types<glm::tvec4<int,0> > >,1><>
PUBLIC	??$move@AEAU?$tvec4@M$0A@@glm@@@std@@YA$$QEAU?$tvec4@M$0A@@glm@@AEAU12@@Z ; std::move<glm::tvec4<float,0> &>
PUBLIC	??$emplace_back@U?$tvec4@M$0A@@glm@@@?$vector@U?$tvec4@M$0A@@glm@@V?$allocator@U?$tvec4@M$0A@@glm@@@std@@@std@@QEAA?A_T$$QEAU?$tvec4@M$0A@@glm@@@Z ; std::vector<glm::tvec4<float,0>,std::allocator<glm::tvec4<float,0> > >::emplace_back<glm::tvec4<float,0> >
PUBLIC	??$forward@U?$tvec4@M$0A@@glm@@@std@@YA$$QEAU?$tvec4@M$0A@@glm@@AEAU12@@Z ; std::forward<glm::tvec4<float,0> >
PUBLIC	??$_Emplace_one_at_back@U?$tvec4@M$0A@@glm@@@?$vector@U?$tvec4@M$0A@@glm@@V?$allocator@U?$tvec4@M$0A@@glm@@@std@@@std@@AEAAAEAU?$tvec4@M$0A@@glm@@$$QEAU23@@Z ; std::vector<glm::tvec4<float,0>,std::allocator<glm::tvec4<float,0> > >::_Emplace_one_at_back<glm::tvec4<float,0> >
PUBLIC	??$?0U?$tvec4@M$0A@@glm@@@?$allocator@U_Container_proxy@std@@@std@@QEAA@AEBV?$allocator@U?$tvec4@M$0A@@glm@@@1@@Z ; std::allocator<std::_Container_proxy>::allocator<std::_Container_proxy><glm::tvec4<float,0> >
PUBLIC	??$?0$$V@?$_Compressed_pair@V?$allocator@U?$tvec4@M$0A@@glm@@@std@@V?$_Vector_val@U?$_Simple_types@U?$tvec4@M$0A@@glm@@@std@@@2@$00@std@@QEAA@U_Zero_then_variadic_args_t@1@@Z ; std::_Compressed_pair<std::allocator<glm::tvec4<float,0> >,std::_Vector_val<std::_Simple_types<glm::tvec4<float,0> > >,1>::_Compressed_pair<std::allocator<glm::tvec4<float,0> >,std::_Vector_val<std::_Simple_types<glm::tvec4<float,0> > >,1><>
PUBLIC	??$move@AEAM@std@@YA$$QEAMAEAM@Z		; std::move<float &>
PUBLIC	??$emplace_back@M@?$vector@MV?$allocator@M@std@@@std@@QEAA?A_T$$QEAM@Z ; std::vector<float,std::allocator<float> >::emplace_back<float>
PUBLIC	??$forward@M@std@@YA$$QEAMAEAM@Z		; std::forward<float>
PUBLIC	??$_Emplace_one_at_back@M@?$vector@MV?$allocator@M@std@@@std@@AEAAAEAM$$QEAM@Z ; std::vector<float,std::allocator<float> >::_Emplace_one_at_back<float>
PUBLIC	??$?0M@?$allocator@U_Container_proxy@std@@@std@@QEAA@AEBV?$allocator@M@1@@Z ; std::allocator<std::_Container_proxy>::allocator<std::_Container_proxy><float>
PUBLIC	??$?0$$V@?$_Compressed_pair@V?$allocator@M@std@@V?$_Vector_val@U?$_Simple_types@M@std@@@2@$00@std@@QEAA@U_Zero_then_variadic_args_t@1@@Z ; std::_Compressed_pair<std::allocator<float>,std::_Vector_val<std::_Simple_types<float> >,1>::_Compressed_pair<std::allocator<float>,std::_Vector_val<std::_Simple_types<float> >,1><>
PUBLIC	??$_Destroy_range@V?$allocator@U?$tvec2@M$0A@@glm@@@std@@@std@@YAXPEAU?$tvec2@M$0A@@glm@@QEAU12@AEAV?$allocator@U?$tvec2@M$0A@@glm@@@0@@Z ; std::_Destroy_range<std::allocator<glm::tvec2<float,0> > >
PUBLIC	??$_Destroy_range@V?$allocator@U?$tvec1@M$0A@@glm@@@std@@@std@@YAXPEAU?$tvec1@M$0A@@glm@@QEAU12@AEAV?$allocator@U?$tvec1@M$0A@@glm@@@0@@Z ; std::_Destroy_range<std::allocator<glm::tvec1<float,0> > >
PUBLIC	??$_Destroy_range@V?$allocator@U?$tvec3@M$0A@@glm@@@std@@@std@@YAXPEAU?$tvec3@M$0A@@glm@@QEAU12@AEAV?$allocator@U?$tvec3@M$0A@@glm@@@0@@Z ; std::_Destroy_range<std::allocator<glm::tvec3<float,0> > >
PUBLIC	??$_Destroy_range@V?$allocator@U?$tvec4@I$0A@@glm@@@std@@@std@@YAXPEAU?$tvec4@I$0A@@glm@@QEAU12@AEAV?$allocator@U?$tvec4@I$0A@@glm@@@0@@Z ; std::_Destroy_range<std::allocator<glm::tvec4<unsigned int,0> > >
PUBLIC	??$_Destroy_range@V?$allocator@U?$tvec4@H$0A@@glm@@@std@@@std@@YAXPEAU?$tvec4@H$0A@@glm@@QEAU12@AEAV?$allocator@U?$tvec4@H$0A@@glm@@@0@@Z ; std::_Destroy_range<std::allocator<glm::tvec4<int,0> > >
PUBLIC	??$_Destroy_range@V?$allocator@U?$tvec4@M$0A@@glm@@@std@@@std@@YAXPEAU?$tvec4@M$0A@@glm@@QEAU12@AEAV?$allocator@U?$tvec4@M$0A@@glm@@@0@@Z ; std::_Destroy_range<std::allocator<glm::tvec4<float,0> > >
PUBLIC	??$_Destroy_range@V?$allocator@M@std@@@std@@YAXPEAMQEAMAEAV?$allocator@M@0@@Z ; std::_Destroy_range<std::allocator<float> >
PUBLIC	??$_Deallocate@$0BA@$0A@@std@@YAXPEAX_K@Z	; std::_Deallocate<16,0>
PUBLIC	?call@?$compute_clamp_vector@M$0A@Utvec2@glm@@$0A@@detail@glm@@SA?AU?$tvec2@M$0A@@3@AEBU43@00@Z ; glm::detail::compute_clamp_vector<float,0,glm::tvec2,0>::call
PUBLIC	?call@?$compute_round@M$0A@Utvec2@glm@@$0A@@detail@glm@@SA?AU?$tvec2@M$0A@@3@AEBU43@@Z ; glm::detail::compute_round<float,0,glm::tvec2,0>::call
PUBLIC	?call@?$compute_clamp_vector@M$0A@Utvec4@glm@@$0A@@detail@glm@@SA?AU?$tvec4@M$0A@@3@AEBU43@00@Z ; glm::detail::compute_clamp_vector<float,0,glm::tvec4,0>::call
PUBLIC	??$?XM@?$tvec4@M$0A@@glm@@QEAAAEAU01@M@Z	; glm::tvec4<float,0>::operator*=<float>
PUBLIC	?call@?$compute_round@M$0A@Utvec4@glm@@$0A@@detail@glm@@SA?AU?$tvec4@M$0A@@3@AEBU43@@Z ; glm::detail::compute_round<float,0,glm::tvec4,0>::call
PUBLIC	??$min@M@glm@@YAMMM@Z				; glm::min<float>
PUBLIC	??$?XM@?$tvec4@M$0A@@glm@@QEAAAEAU01@AEBU01@@Z	; glm::tvec4<float,0>::operator*=<float>
PUBLIC	?call@?$compute_clamp_vector@M$0A@Utvec3@glm@@$0A@@detail@glm@@SA?AU?$tvec3@M$0A@@3@AEBU43@00@Z ; glm::detail::compute_clamp_vector<float,0,glm::tvec3,0>::call
PUBLIC	??$log2@M$0A@Utvec1@glm@@@glm@@YA?AU?$tvec1@M$0A@@0@AEBU10@@Z ; glm::log2<float,0,glm::tvec1>
PUBLIC	?call@?$compute_floor@M$0A@Utvec3@glm@@$0A@@detail@glm@@SA?AU?$tvec3@M$0A@@3@AEBU43@@Z ; glm::detail::compute_floor<float,0,glm::tvec3,0>::call
PUBLIC	?call@?$compute_round@M$0A@Utvec3@glm@@$0A@@detail@glm@@SA?AU?$tvec3@M$0A@@3@AEBU43@@Z ; glm::detail::compute_round<float,0,glm::tvec3,0>::call
PUBLIC	?call@?$compute_abs@M$00@detail@glm@@SAMM@Z	; glm::detail::compute_abs<float,1>::call
PUBLIC	?pack@?$compute_half@$0A@Utvec4@glm@@@detail@glm@@SA?AU?$tvec4@G$0A@@3@AEBU?$tvec4@M$0A@@3@@Z ; glm::detail::compute_half<0,glm::tvec4>::pack
PUBLIC	?unpack@?$compute_half@$0A@Utvec4@glm@@@detail@glm@@SA?AU?$tvec4@M$0A@@3@AEBU?$tvec4@G$0A@@3@@Z ; glm::detail::compute_half<0,glm::tvec4>::unpack
PUBLIC	??$?GM$0A@@glm@@YA?AU?$tvec4@M$0A@@0@AEBU10@0@Z	; glm::operator-<float,0>
PUBLIC	??$abs@M$0A@Utvec4@glm@@@glm@@YA?AU?$tvec4@M$0A@@0@AEBU10@@Z ; glm::abs<float,0,glm::tvec4>
PUBLIC	??$lessThan@M$0A@Utvec4@glm@@@glm@@YA?AU?$tvec4@_N$0A@@0@AEBU?$tvec4@M$0A@@0@0@Z ; glm::lessThan<float,0,glm::tvec4>
PUBLIC	??$?GM$0A@@glm@@YA?AU?$tvec3@M$0A@@0@AEBU10@0@Z	; glm::operator-<float,0>
PUBLIC	??$abs@M$0A@Utvec3@glm@@@glm@@YA?AU?$tvec3@M$0A@@0@AEBU10@@Z ; glm::abs<float,0,glm::tvec3>
PUBLIC	??$lessThan@M$0A@Utvec3@glm@@@glm@@YA?AU?$tvec3@_N$0A@@0@AEBU?$tvec3@M$0A@@0@0@Z ; glm::lessThan<float,0,glm::tvec3>
PUBLIC	??$?GM$0A@@glm@@YA?AU?$tvec1@M$0A@@0@AEBU10@0@Z	; glm::operator-<float,0>
PUBLIC	??$abs@M$0A@Utvec1@glm@@@glm@@YA?AU?$tvec1@M$0A@@0@AEBU10@@Z ; glm::abs<float,0,glm::tvec1>
PUBLIC	??$lessThan@M$0A@Utvec1@glm@@@glm@@YA?AU?$tvec1@_N$0A@@0@AEBU?$tvec1@M$0A@@0@0@Z ; glm::lessThan<float,0,glm::tvec1>
PUBLIC	??$?GM$0A@@glm@@YA?AU?$tvec2@M$0A@@0@AEBU10@0@Z	; glm::operator-<float,0>
PUBLIC	??$abs@M$0A@Utvec2@glm@@@glm@@YA?AU?$tvec2@M$0A@@0@AEBU10@@Z ; glm::abs<float,0,glm::tvec2>
PUBLIC	??$lessThan@M$0A@Utvec2@glm@@@glm@@YA?AU?$tvec2@_N$0A@@0@AEBU?$tvec2@M$0A@@0@0@Z ; glm::lessThan<float,0,glm::tvec2>
PUBLIC	??$?0G$0A@@?$tvec2@M$0A@@glm@@QEAA@AEBU?$tvec2@G$0A@@1@@Z ; glm::tvec2<float,0>::tvec2<float,0><unsigned short,0>
PUBLIC	??$?0F$0A@@?$tvec2@M$0A@@glm@@QEAA@AEBU?$tvec2@F$0A@@1@@Z ; glm::tvec2<float,0>::tvec2<float,0><short,0>
PUBLIC	??$_Emplace_back_with_unused_capacity@U?$tvec2@M$0A@@glm@@@?$vector@U?$tvec2@M$0A@@glm@@V?$allocator@U?$tvec2@M$0A@@glm@@@std@@@std@@AEAAAEAU?$tvec2@M$0A@@glm@@$$QEAU23@@Z ; std::vector<glm::tvec2<float,0>,std::allocator<glm::tvec2<float,0> > >::_Emplace_back_with_unused_capacity<glm::tvec2<float,0> >
PUBLIC	??$_Emplace_reallocate@U?$tvec2@M$0A@@glm@@@?$vector@U?$tvec2@M$0A@@glm@@V?$allocator@U?$tvec2@M$0A@@glm@@@std@@@std@@AEAAPEAU?$tvec2@M$0A@@glm@@QEAU23@$$QEAU23@@Z ; std::vector<glm::tvec2<float,0>,std::allocator<glm::tvec2<float,0> > >::_Emplace_reallocate<glm::tvec2<float,0> >
PUBLIC	??$_Deallocate_plain@V?$allocator@U_Container_proxy@std@@@std@@@std@@YAXAEAV?$allocator@U_Container_proxy@std@@@0@QEAU_Container_proxy@0@@Z ; std::_Deallocate_plain<std::allocator<std::_Container_proxy> >
PUBLIC	??$_Unfancy@U_Container_proxy@std@@@std@@YAPEAU_Container_proxy@0@PEAU10@@Z ; std::_Unfancy<std::_Container_proxy>
PUBLIC	??$_Construct_in_place@U_Container_proxy@std@@PEAU_Container_base12@2@@std@@YAXAEAU_Container_proxy@0@$$QEAPEAU_Container_base12@0@@Z ; std::_Construct_in_place<std::_Container_proxy,std::_Container_base12 *>
PUBLIC	??$_Emplace_back_with_unused_capacity@U?$tvec1@M$0A@@glm@@@?$vector@U?$tvec1@M$0A@@glm@@V?$allocator@U?$tvec1@M$0A@@glm@@@std@@@std@@AEAAAEAU?$tvec1@M$0A@@glm@@$$QEAU23@@Z ; std::vector<glm::tvec1<float,0>,std::allocator<glm::tvec1<float,0> > >::_Emplace_back_with_unused_capacity<glm::tvec1<float,0> >
PUBLIC	??$_Emplace_reallocate@U?$tvec1@M$0A@@glm@@@?$vector@U?$tvec1@M$0A@@glm@@V?$allocator@U?$tvec1@M$0A@@glm@@@std@@@std@@AEAAPEAU?$tvec1@M$0A@@glm@@QEAU23@$$QEAU23@@Z ; std::vector<glm::tvec1<float,0>,std::allocator<glm::tvec1<float,0> > >::_Emplace_reallocate<glm::tvec1<float,0> >
PUBLIC	??$_Emplace_back_with_unused_capacity@U?$tvec3@M$0A@@glm@@@?$vector@U?$tvec3@M$0A@@glm@@V?$allocator@U?$tvec3@M$0A@@glm@@@std@@@std@@AEAAAEAU?$tvec3@M$0A@@glm@@$$QEAU23@@Z ; std::vector<glm::tvec3<float,0>,std::allocator<glm::tvec3<float,0> > >::_Emplace_back_with_unused_capacity<glm::tvec3<float,0> >
PUBLIC	??$_Emplace_reallocate@U?$tvec3@M$0A@@glm@@@?$vector@U?$tvec3@M$0A@@glm@@V?$allocator@U?$tvec3@M$0A@@glm@@@std@@@std@@AEAAPEAU?$tvec3@M$0A@@glm@@QEAU23@$$QEAU23@@Z ; std::vector<glm::tvec3<float,0>,std::allocator<glm::tvec3<float,0> > >::_Emplace_reallocate<glm::tvec3<float,0> >
PUBLIC	??$_Emplace_back_with_unused_capacity@U?$tvec4@I$0A@@glm@@@?$vector@U?$tvec4@I$0A@@glm@@V?$allocator@U?$tvec4@I$0A@@glm@@@std@@@std@@AEAAAEAU?$tvec4@I$0A@@glm@@$$QEAU23@@Z ; std::vector<glm::tvec4<unsigned int,0>,std::allocator<glm::tvec4<unsigned int,0> > >::_Emplace_back_with_unused_capacity<glm::tvec4<unsigned int,0> >
PUBLIC	??$_Emplace_reallocate@U?$tvec4@I$0A@@glm@@@?$vector@U?$tvec4@I$0A@@glm@@V?$allocator@U?$tvec4@I$0A@@glm@@@std@@@std@@AEAAPEAU?$tvec4@I$0A@@glm@@QEAU23@$$QEAU23@@Z ; std::vector<glm::tvec4<unsigned int,0>,std::allocator<glm::tvec4<unsigned int,0> > >::_Emplace_reallocate<glm::tvec4<unsigned int,0> >
PUBLIC	??$_Emplace_back_with_unused_capacity@U?$tvec4@H$0A@@glm@@@?$vector@U?$tvec4@H$0A@@glm@@V?$allocator@U?$tvec4@H$0A@@glm@@@std@@@std@@AEAAAEAU?$tvec4@H$0A@@glm@@$$QEAU23@@Z ; std::vector<glm::tvec4<int,0>,std::allocator<glm::tvec4<int,0> > >::_Emplace_back_with_unused_capacity<glm::tvec4<int,0> >
PUBLIC	??$_Emplace_reallocate@U?$tvec4@H$0A@@glm@@@?$vector@U?$tvec4@H$0A@@glm@@V?$allocator@U?$tvec4@H$0A@@glm@@@std@@@std@@AEAAPEAU?$tvec4@H$0A@@glm@@QEAU23@$$QEAU23@@Z ; std::vector<glm::tvec4<int,0>,std::allocator<glm::tvec4<int,0> > >::_Emplace_reallocate<glm::tvec4<int,0> >
PUBLIC	??$_Emplace_back_with_unused_capacity@U?$tvec4@M$0A@@glm@@@?$vector@U?$tvec4@M$0A@@glm@@V?$allocator@U?$tvec4@M$0A@@glm@@@std@@@std@@AEAAAEAU?$tvec4@M$0A@@glm@@$$QEAU23@@Z ; std::vector<glm::tvec4<float,0>,std::allocator<glm::tvec4<float,0> > >::_Emplace_back_with_unused_capacity<glm::tvec4<float,0> >
PUBLIC	??$_Emplace_reallocate@U?$tvec4@M$0A@@glm@@@?$vector@U?$tvec4@M$0A@@glm@@V?$allocator@U?$tvec4@M$0A@@glm@@@std@@@std@@AEAAPEAU?$tvec4@M$0A@@glm@@QEAU23@$$QEAU23@@Z ; std::vector<glm::tvec4<float,0>,std::allocator<glm::tvec4<float,0> > >::_Emplace_reallocate<glm::tvec4<float,0> >
PUBLIC	??$_Emplace_back_with_unused_capacity@M@?$vector@MV?$allocator@M@std@@@std@@AEAAAEAM$$QEAM@Z ; std::vector<float,std::allocator<float> >::_Emplace_back_with_unused_capacity<float>
PUBLIC	??$_Emplace_reallocate@M@?$vector@MV?$allocator@M@std@@@std@@AEAAPEAMQEAM$$QEAM@Z ; std::vector<float,std::allocator<float> >::_Emplace_reallocate<float>
PUBLIC	?call@?$functor1@MM$0A@Utvec3@glm@@@detail@glm@@SA?AU?$tvec3@M$0A@@3@P6AMM@ZAEBU43@@Z ; glm::detail::functor1<float,float,0,glm::tvec3>::call
PUBLIC	??$max@M$0A@Utvec3@glm@@@glm@@YA?AU?$tvec3@M$0A@@0@AEBU10@0@Z ; glm::max<float,0,glm::tvec3>
PUBLIC	??$min@M$0A@Utvec3@glm@@@glm@@YA?AU?$tvec3@M$0A@@0@AEBU10@0@Z ; glm::min<float,0,glm::tvec3>
PUBLIC	?call@?$functor1@MM$0A@Utvec4@glm@@@detail@glm@@SA?AU?$tvec4@M$0A@@3@P6AMM@ZAEBU43@@Z ; glm::detail::functor1<float,float,0,glm::tvec4>::call
PUBLIC	??$max@M$0A@Utvec4@glm@@@glm@@YA?AU?$tvec4@M$0A@@0@AEBU10@0@Z ; glm::max<float,0,glm::tvec4>
PUBLIC	??$min@M$0A@Utvec4@glm@@@glm@@YA?AU?$tvec4@M$0A@@0@AEBU10@0@Z ; glm::min<float,0,glm::tvec4>
PUBLIC	?call@?$functor1@MM$0A@Utvec2@glm@@@detail@glm@@SA?AU?$tvec2@M$0A@@3@P6AMM@ZAEBU43@@Z ; glm::detail::functor1<float,float,0,glm::tvec2>::call
PUBLIC	??$max@M$0A@Utvec2@glm@@@glm@@YA?AU?$tvec2@M$0A@@0@AEBU10@0@Z ; glm::max<float,0,glm::tvec2>
PUBLIC	??$min@M$0A@Utvec2@glm@@@glm@@YA?AU?$tvec2@M$0A@@0@AEBU10@0@Z ; glm::min<float,0,glm::tvec2>
PUBLIC	??$_Get_size_of_n@$0BA@@std@@YA_K_K@Z		; std::_Get_size_of_n<16>
PUBLIC	??$_Allocate@$0BA@U_Default_allocate_traits@std@@$0A@@std@@YAPEAX_K@Z ; std::_Allocate<16,std::_Default_allocate_traits,0>
PUBLIC	?call@?$compute_vec4_mul@M$0A@$0A@@detail@glm@@SA?AU?$tvec4@M$0A@@3@AEBU43@0@Z ; glm::detail::compute_vec4_mul<float,0,0>::call
PUBLIC	?call@?$compute_log2@M$0A@Utvec1@glm@@$00$0A@@detail@glm@@SA?AU?$tvec1@M$0A@@3@AEBU43@@Z ; glm::detail::compute_log2<float,0,glm::tvec1,1,0>::call
PUBLIC	??$?ZM@?$tvec4@M$0A@@glm@@QEAAAEAU01@AEBU01@@Z	; glm::tvec4<float,0>::operator-=<float>
PUBLIC	?call@?$compute_abs_vector@M$0A@Utvec4@glm@@$0A@@detail@glm@@SA?AU?$tvec4@M$0A@@3@AEBU43@@Z ; glm::detail::compute_abs_vector<float,0,glm::tvec4,0>::call
PUBLIC	?call@?$compute_abs_vector@M$0A@Utvec3@glm@@$0A@@detail@glm@@SA?AU?$tvec3@M$0A@@3@AEBU43@@Z ; glm::detail::compute_abs_vector<float,0,glm::tvec3,0>::call
PUBLIC	?call@?$compute_abs_vector@M$0A@Utvec1@glm@@$0A@@detail@glm@@SA?AU?$tvec1@M$0A@@3@AEBU43@@Z ; glm::detail::compute_abs_vector<float,0,glm::tvec1,0>::call
PUBLIC	?call@?$compute_abs_vector@M$0A@Utvec2@glm@@$0A@@detail@glm@@SA?AU?$tvec2@M$0A@@3@AEBU43@@Z ; glm::detail::compute_abs_vector<float,0,glm::tvec2,0>::call
PUBLIC	??$_Construct_in_place@U?$tvec2@M$0A@@glm@@U12@@std@@YAXAEAU?$tvec2@M$0A@@glm@@$$QEAU12@@Z ; std::_Construct_in_place<glm::tvec2<float,0>,glm::tvec2<float,0> >
PUBLIC	??$_Unfancy@U?$tvec2@M$0A@@glm@@@std@@YAPEAU?$tvec2@M$0A@@glm@@PEAU12@@Z ; std::_Unfancy<glm::tvec2<float,0> >
PUBLIC	??$construct@U?$tvec2@M$0A@@glm@@U12@@?$_Default_allocator_traits@V?$allocator@U?$tvec2@M$0A@@glm@@@std@@@std@@SAXAEAV?$allocator@U?$tvec2@M$0A@@glm@@@1@QEAU?$tvec2@M$0A@@glm@@$$QEAU34@@Z ; std::_Default_allocator_traits<std::allocator<glm::tvec2<float,0> > >::construct<glm::tvec2<float,0>,glm::tvec2<float,0> >
PUBLIC	??$_Uninitialized_move@PEAU?$tvec2@M$0A@@glm@@V?$allocator@U?$tvec2@M$0A@@glm@@@std@@@std@@YAPEAU?$tvec2@M$0A@@glm@@QEAU12@0PEAU12@AEAV?$allocator@U?$tvec2@M$0A@@glm@@@0@@Z ; std::_Uninitialized_move<glm::tvec2<float,0> *,std::allocator<glm::tvec2<float,0> > >
PUBLIC	?deallocate@?$_Default_allocator_traits@V?$allocator@U_Container_proxy@std@@@std@@@std@@SAXAEAV?$allocator@U_Container_proxy@std@@@2@QEAU_Container_proxy@2@_K@Z ; std::_Default_allocator_traits<std::allocator<std::_Container_proxy> >::deallocate
PUBLIC	??$addressof@U_Container_proxy@std@@@std@@YAPEAU_Container_proxy@0@AEAU10@@Z ; std::addressof<std::_Container_proxy>
PUBLIC	??$_Voidify_iter@PEAU_Container_proxy@std@@@std@@YAPEAXPEAU_Container_proxy@0@@Z ; std::_Voidify_iter<std::_Container_proxy *>
PUBLIC	??$forward@PEAU_Container_base12@std@@@std@@YA$$QEAPEAU_Container_base12@0@AEAPEAU10@@Z ; std::forward<std::_Container_base12 *>
PUBLIC	??$_Construct_in_place@U?$tvec1@M$0A@@glm@@U12@@std@@YAXAEAU?$tvec1@M$0A@@glm@@$$QEAU12@@Z ; std::_Construct_in_place<glm::tvec1<float,0>,glm::tvec1<float,0> >
PUBLIC	??$_Unfancy@U?$tvec1@M$0A@@glm@@@std@@YAPEAU?$tvec1@M$0A@@glm@@PEAU12@@Z ; std::_Unfancy<glm::tvec1<float,0> >
PUBLIC	??$construct@U?$tvec1@M$0A@@glm@@U12@@?$_Default_allocator_traits@V?$allocator@U?$tvec1@M$0A@@glm@@@std@@@std@@SAXAEAV?$allocator@U?$tvec1@M$0A@@glm@@@1@QEAU?$tvec1@M$0A@@glm@@$$QEAU34@@Z ; std::_Default_allocator_traits<std::allocator<glm::tvec1<float,0> > >::construct<glm::tvec1<float,0>,glm::tvec1<float,0> >
PUBLIC	??$_Uninitialized_move@PEAU?$tvec1@M$0A@@glm@@V?$allocator@U?$tvec1@M$0A@@glm@@@std@@@std@@YAPEAU?$tvec1@M$0A@@glm@@QEAU12@0PEAU12@AEAV?$allocator@U?$tvec1@M$0A@@glm@@@0@@Z ; std::_Uninitialized_move<glm::tvec1<float,0> *,std::allocator<glm::tvec1<float,0> > >
PUBLIC	??$_Construct_in_place@U?$tvec3@M$0A@@glm@@U12@@std@@YAXAEAU?$tvec3@M$0A@@glm@@$$QEAU12@@Z ; std::_Construct_in_place<glm::tvec3<float,0>,glm::tvec3<float,0> >
PUBLIC	??$_Unfancy@U?$tvec3@M$0A@@glm@@@std@@YAPEAU?$tvec3@M$0A@@glm@@PEAU12@@Z ; std::_Unfancy<glm::tvec3<float,0> >
PUBLIC	??$construct@U?$tvec3@M$0A@@glm@@U12@@?$_Default_allocator_traits@V?$allocator@U?$tvec3@M$0A@@glm@@@std@@@std@@SAXAEAV?$allocator@U?$tvec3@M$0A@@glm@@@1@QEAU?$tvec3@M$0A@@glm@@$$QEAU34@@Z ; std::_Default_allocator_traits<std::allocator<glm::tvec3<float,0> > >::construct<glm::tvec3<float,0>,glm::tvec3<float,0> >
PUBLIC	??$_Uninitialized_move@PEAU?$tvec3@M$0A@@glm@@V?$allocator@U?$tvec3@M$0A@@glm@@@std@@@std@@YAPEAU?$tvec3@M$0A@@glm@@QEAU12@0PEAU12@AEAV?$allocator@U?$tvec3@M$0A@@glm@@@0@@Z ; std::_Uninitialized_move<glm::tvec3<float,0> *,std::allocator<glm::tvec3<float,0> > >
PUBLIC	??$_Construct_in_place@U?$tvec4@I$0A@@glm@@U12@@std@@YAXAEAU?$tvec4@I$0A@@glm@@$$QEAU12@@Z ; std::_Construct_in_place<glm::tvec4<unsigned int,0>,glm::tvec4<unsigned int,0> >
PUBLIC	??$_Unfancy@U?$tvec4@I$0A@@glm@@@std@@YAPEAU?$tvec4@I$0A@@glm@@PEAU12@@Z ; std::_Unfancy<glm::tvec4<unsigned int,0> >
PUBLIC	??$construct@U?$tvec4@I$0A@@glm@@U12@@?$_Default_allocator_traits@V?$allocator@U?$tvec4@I$0A@@glm@@@std@@@std@@SAXAEAV?$allocator@U?$tvec4@I$0A@@glm@@@1@QEAU?$tvec4@I$0A@@glm@@$$QEAU34@@Z ; std::_Default_allocator_traits<std::allocator<glm::tvec4<unsigned int,0> > >::construct<glm::tvec4<unsigned int,0>,glm::tvec4<unsigned int,0> >
PUBLIC	??$_Uninitialized_move@PEAU?$tvec4@I$0A@@glm@@V?$allocator@U?$tvec4@I$0A@@glm@@@std@@@std@@YAPEAU?$tvec4@I$0A@@glm@@QEAU12@0PEAU12@AEAV?$allocator@U?$tvec4@I$0A@@glm@@@0@@Z ; std::_Uninitialized_move<glm::tvec4<unsigned int,0> *,std::allocator<glm::tvec4<unsigned int,0> > >
PUBLIC	??$_Construct_in_place@U?$tvec4@H$0A@@glm@@U12@@std@@YAXAEAU?$tvec4@H$0A@@glm@@$$QEAU12@@Z ; std::_Construct_in_place<glm::tvec4<int,0>,glm::tvec4<int,0> >
PUBLIC	??$_Unfancy@U?$tvec4@H$0A@@glm@@@std@@YAPEAU?$tvec4@H$0A@@glm@@PEAU12@@Z ; std::_Unfancy<glm::tvec4<int,0> >
PUBLIC	??$construct@U?$tvec4@H$0A@@glm@@U12@@?$_Default_allocator_traits@V?$allocator@U?$tvec4@H$0A@@glm@@@std@@@std@@SAXAEAV?$allocator@U?$tvec4@H$0A@@glm@@@1@QEAU?$tvec4@H$0A@@glm@@$$QEAU34@@Z ; std::_Default_allocator_traits<std::allocator<glm::tvec4<int,0> > >::construct<glm::tvec4<int,0>,glm::tvec4<int,0> >
PUBLIC	??$_Uninitialized_move@PEAU?$tvec4@H$0A@@glm@@V?$allocator@U?$tvec4@H$0A@@glm@@@std@@@std@@YAPEAU?$tvec4@H$0A@@glm@@QEAU12@0PEAU12@AEAV?$allocator@U?$tvec4@H$0A@@glm@@@0@@Z ; std::_Uninitialized_move<glm::tvec4<int,0> *,std::allocator<glm::tvec4<int,0> > >
PUBLIC	??$_Construct_in_place@U?$tvec4@M$0A@@glm@@U12@@std@@YAXAEAU?$tvec4@M$0A@@glm@@$$QEAU12@@Z ; std::_Construct_in_place<glm::tvec4<float,0>,glm::tvec4<float,0> >
PUBLIC	??$_Unfancy@U?$tvec4@M$0A@@glm@@@std@@YAPEAU?$tvec4@M$0A@@glm@@PEAU12@@Z ; std::_Unfancy<glm::tvec4<float,0> >
PUBLIC	??$construct@U?$tvec4@M$0A@@glm@@U12@@?$_Default_allocator_traits@V?$allocator@U?$tvec4@M$0A@@glm@@@std@@@std@@SAXAEAV?$allocator@U?$tvec4@M$0A@@glm@@@1@QEAU?$tvec4@M$0A@@glm@@$$QEAU34@@Z ; std::_Default_allocator_traits<std::allocator<glm::tvec4<float,0> > >::construct<glm::tvec4<float,0>,glm::tvec4<float,0> >
PUBLIC	??$_Uninitialized_move@PEAU?$tvec4@M$0A@@glm@@V?$allocator@U?$tvec4@M$0A@@glm@@@std@@@std@@YAPEAU?$tvec4@M$0A@@glm@@QEAU12@0PEAU12@AEAV?$allocator@U?$tvec4@M$0A@@glm@@@0@@Z ; std::_Uninitialized_move<glm::tvec4<float,0> *,std::allocator<glm::tvec4<float,0> > >
PUBLIC	??$_Construct_in_place@MM@std@@YAXAEAM$$QEAM@Z	; std::_Construct_in_place<float,float>
PUBLIC	??$_Unfancy@M@std@@YAPEAMPEAM@Z			; std::_Unfancy<float>
PUBLIC	??$construct@MM@?$_Default_allocator_traits@V?$allocator@M@std@@@std@@SAXAEAV?$allocator@M@1@QEAM$$QEAM@Z ; std::_Default_allocator_traits<std::allocator<float> >::construct<float,float>
PUBLIC	??$_Uninitialized_move@PEAMV?$allocator@M@std@@@std@@YAPEAMQEAM0PEAMAEAV?$allocator@M@0@@Z ; std::_Uninitialized_move<float *,std::allocator<float> >
PUBLIC	?call@?$compute_max_vector@M$0A@Utvec3@glm@@$0A@@detail@glm@@SA?AU?$tvec3@M$0A@@3@AEBU43@0@Z ; glm::detail::compute_max_vector<float,0,glm::tvec3,0>::call
PUBLIC	?call@?$compute_min_vector@M$0A@Utvec3@glm@@$0A@@detail@glm@@SA?AU?$tvec3@M$0A@@3@AEBU43@0@Z ; glm::detail::compute_min_vector<float,0,glm::tvec3,0>::call
PUBLIC	?call@?$compute_max_vector@M$0A@Utvec4@glm@@$0A@@detail@glm@@SA?AU?$tvec4@M$0A@@3@AEBU43@0@Z ; glm::detail::compute_max_vector<float,0,glm::tvec4,0>::call
PUBLIC	?call@?$compute_min_vector@M$0A@Utvec4@glm@@$0A@@detail@glm@@SA?AU?$tvec4@M$0A@@3@AEBU43@0@Z ; glm::detail::compute_min_vector<float,0,glm::tvec4,0>::call
PUBLIC	?call@?$compute_max_vector@M$0A@Utvec2@glm@@$0A@@detail@glm@@SA?AU?$tvec2@M$0A@@3@AEBU43@0@Z ; glm::detail::compute_max_vector<float,0,glm::tvec2,0>::call
PUBLIC	?call@?$compute_min_vector@M$0A@Utvec2@glm@@$0A@@detail@glm@@SA?AU?$tvec2@M$0A@@3@AEBU43@0@Z ; glm::detail::compute_min_vector<float,0,glm::tvec2,0>::call
PUBLIC	??$_Allocate_manually_vector_aligned@U_Default_allocate_traits@std@@@std@@YAPEAX_K@Z ; std::_Allocate_manually_vector_aligned<std::_Default_allocate_traits>
PUBLIC	?call@?$functor2@M$0A@Utvec2@glm@@@detail@glm@@SA?AU?$tvec2@M$0A@@3@P6AMMM@ZAEBU43@1@Z ; glm::detail::functor2<float,0,glm::tvec2>::call
PUBLIC	?call@?$functor2@M$0A@Utvec4@glm@@@detail@glm@@SA?AU?$tvec4@M$0A@@3@P6AMMM@ZAEBU43@1@Z ; glm::detail::functor2<float,0,glm::tvec4>::call
PUBLIC	?call@?$functor2@M$0A@Utvec3@glm@@@detail@glm@@SA?AU?$tvec3@M$0A@@3@P6AMMM@ZAEBU43@1@Z ; glm::detail::functor2<float,0,glm::tvec3>::call
PUBLIC	?call@?$functor1@MM$0A@Utvec1@glm@@@detail@glm@@SA?AU?$tvec1@M$0A@@3@P6AMM@ZAEBU43@@Z ; glm::detail::functor1<float,float,0,glm::tvec1>::call
PUBLIC	??$min@_K@std@@YAAEB_KAEB_K0@Z			; std::min<unsigned __int64>
PUBLIC	??$_Get_size_of_n@$07@std@@YA_K_K@Z		; std::_Get_size_of_n<8>
PUBLIC	??$_Get_size_of_n@$03@std@@YA_K_K@Z		; std::_Get_size_of_n<4>
PUBLIC	??$_Get_size_of_n@$0M@@std@@YA_K_K@Z		; std::_Get_size_of_n<12>
PUBLIC	?call@?$compute_vec4_sub@M$0A@$0A@@detail@glm@@SA?AU?$tvec4@M$0A@@3@AEBU43@0@Z ; glm::detail::compute_vec4_sub<float,0,0>::call
PUBLIC	??$addressof@U?$tvec2@M$0A@@glm@@@std@@YAPEAU?$tvec2@M$0A@@glm@@AEAU12@@Z ; std::addressof<glm::tvec2<float,0> >
PUBLIC	??$_Voidify_iter@PEAU?$tvec2@M$0A@@glm@@@std@@YAPEAXPEAU?$tvec2@M$0A@@glm@@@Z ; std::_Voidify_iter<glm::tvec2<float,0> *>
PUBLIC	??$_Get_unwrapped@AEBQEAU?$tvec2@M$0A@@glm@@@std@@YA?A_TAEBQEAU?$tvec2@M$0A@@glm@@@Z ; std::_Get_unwrapped<glm::tvec2<float,0> * const &>
PUBLIC	??$_Copy_memmove@PEAU?$tvec2@M$0A@@glm@@PEAU12@@std@@YAPEAU?$tvec2@M$0A@@glm@@PEAU12@00@Z ; std::_Copy_memmove<glm::tvec2<float,0> *,glm::tvec2<float,0> *>
PUBLIC	??0?$_Uninitialized_backout_al@V?$allocator@U?$tvec2@M$0A@@glm@@@std@@@std@@QEAA@PEAU?$tvec2@M$0A@@glm@@AEAV?$allocator@U?$tvec2@M$0A@@glm@@@1@@Z ; std::_Uninitialized_backout_al<std::allocator<glm::tvec2<float,0> > >::_Uninitialized_backout_al<std::allocator<glm::tvec2<float,0> > >
PUBLIC	??1?$_Uninitialized_backout_al@V?$allocator@U?$tvec2@M$0A@@glm@@@std@@@std@@QEAA@XZ ; std::_Uninitialized_backout_al<std::allocator<glm::tvec2<float,0> > >::~_Uninitialized_backout_al<std::allocator<glm::tvec2<float,0> > >
PUBLIC	?_Release@?$_Uninitialized_backout_al@V?$allocator@U?$tvec2@M$0A@@glm@@@std@@@std@@QEAAPEAU?$tvec2@M$0A@@glm@@XZ ; std::_Uninitialized_backout_al<std::allocator<glm::tvec2<float,0> > >::_Release
PUBLIC	??$_Emplace_back@U?$tvec2@M$0A@@glm@@@?$_Uninitialized_backout_al@V?$allocator@U?$tvec2@M$0A@@glm@@@std@@@std@@QEAAX$$QEAU?$tvec2@M$0A@@glm@@@Z ; std::_Uninitialized_backout_al<std::allocator<glm::tvec2<float,0> > >::_Emplace_back<glm::tvec2<float,0> >
PUBLIC	??$addressof@U?$tvec1@M$0A@@glm@@@std@@YAPEAU?$tvec1@M$0A@@glm@@AEAU12@@Z ; std::addressof<glm::tvec1<float,0> >
PUBLIC	??$_Voidify_iter@PEAU?$tvec1@M$0A@@glm@@@std@@YAPEAXPEAU?$tvec1@M$0A@@glm@@@Z ; std::_Voidify_iter<glm::tvec1<float,0> *>
PUBLIC	??$_Get_unwrapped@AEBQEAU?$tvec1@M$0A@@glm@@@std@@YA?A_TAEBQEAU?$tvec1@M$0A@@glm@@@Z ; std::_Get_unwrapped<glm::tvec1<float,0> * const &>
PUBLIC	??$_Copy_memmove@PEAU?$tvec1@M$0A@@glm@@PEAU12@@std@@YAPEAU?$tvec1@M$0A@@glm@@PEAU12@00@Z ; std::_Copy_memmove<glm::tvec1<float,0> *,glm::tvec1<float,0> *>
PUBLIC	??0?$_Uninitialized_backout_al@V?$allocator@U?$tvec1@M$0A@@glm@@@std@@@std@@QEAA@PEAU?$tvec1@M$0A@@glm@@AEAV?$allocator@U?$tvec1@M$0A@@glm@@@1@@Z ; std::_Uninitialized_backout_al<std::allocator<glm::tvec1<float,0> > >::_Uninitialized_backout_al<std::allocator<glm::tvec1<float,0> > >
PUBLIC	??1?$_Uninitialized_backout_al@V?$allocator@U?$tvec1@M$0A@@glm@@@std@@@std@@QEAA@XZ ; std::_Uninitialized_backout_al<std::allocator<glm::tvec1<float,0> > >::~_Uninitialized_backout_al<std::allocator<glm::tvec1<float,0> > >
PUBLIC	?_Release@?$_Uninitialized_backout_al@V?$allocator@U?$tvec1@M$0A@@glm@@@std@@@std@@QEAAPEAU?$tvec1@M$0A@@glm@@XZ ; std::_Uninitialized_backout_al<std::allocator<glm::tvec1<float,0> > >::_Release
PUBLIC	??$_Emplace_back@U?$tvec1@M$0A@@glm@@@?$_Uninitialized_backout_al@V?$allocator@U?$tvec1@M$0A@@glm@@@std@@@std@@QEAAX$$QEAU?$tvec1@M$0A@@glm@@@Z ; std::_Uninitialized_backout_al<std::allocator<glm::tvec1<float,0> > >::_Emplace_back<glm::tvec1<float,0> >
PUBLIC	??$addressof@U?$tvec3@M$0A@@glm@@@std@@YAPEAU?$tvec3@M$0A@@glm@@AEAU12@@Z ; std::addressof<glm::tvec3<float,0> >
PUBLIC	??$_Voidify_iter@PEAU?$tvec3@M$0A@@glm@@@std@@YAPEAXPEAU?$tvec3@M$0A@@glm@@@Z ; std::_Voidify_iter<glm::tvec3<float,0> *>
PUBLIC	??$_Get_unwrapped@AEBQEAU?$tvec3@M$0A@@glm@@@std@@YA?A_TAEBQEAU?$tvec3@M$0A@@glm@@@Z ; std::_Get_unwrapped<glm::tvec3<float,0> * const &>
PUBLIC	??$_Copy_memmove@PEAU?$tvec3@M$0A@@glm@@PEAU12@@std@@YAPEAU?$tvec3@M$0A@@glm@@PEAU12@00@Z ; std::_Copy_memmove<glm::tvec3<float,0> *,glm::tvec3<float,0> *>
PUBLIC	??0?$_Uninitialized_backout_al@V?$allocator@U?$tvec3@M$0A@@glm@@@std@@@std@@QEAA@PEAU?$tvec3@M$0A@@glm@@AEAV?$allocator@U?$tvec3@M$0A@@glm@@@1@@Z ; std::_Uninitialized_backout_al<std::allocator<glm::tvec3<float,0> > >::_Uninitialized_backout_al<std::allocator<glm::tvec3<float,0> > >
PUBLIC	??1?$_Uninitialized_backout_al@V?$allocator@U?$tvec3@M$0A@@glm@@@std@@@std@@QEAA@XZ ; std::_Uninitialized_backout_al<std::allocator<glm::tvec3<float,0> > >::~_Uninitialized_backout_al<std::allocator<glm::tvec3<float,0> > >
PUBLIC	?_Release@?$_Uninitialized_backout_al@V?$allocator@U?$tvec3@M$0A@@glm@@@std@@@std@@QEAAPEAU?$tvec3@M$0A@@glm@@XZ ; std::_Uninitialized_backout_al<std::allocator<glm::tvec3<float,0> > >::_Release
PUBLIC	??$_Emplace_back@U?$tvec3@M$0A@@glm@@@?$_Uninitialized_backout_al@V?$allocator@U?$tvec3@M$0A@@glm@@@std@@@std@@QEAAX$$QEAU?$tvec3@M$0A@@glm@@@Z ; std::_Uninitialized_backout_al<std::allocator<glm::tvec3<float,0> > >::_Emplace_back<glm::tvec3<float,0> >
PUBLIC	??$addressof@U?$tvec4@I$0A@@glm@@@std@@YAPEAU?$tvec4@I$0A@@glm@@AEAU12@@Z ; std::addressof<glm::tvec4<unsigned int,0> >
PUBLIC	??$_Voidify_iter@PEAU?$tvec4@I$0A@@glm@@@std@@YAPEAXPEAU?$tvec4@I$0A@@glm@@@Z ; std::_Voidify_iter<glm::tvec4<unsigned int,0> *>
PUBLIC	??$_Get_unwrapped@AEBQEAU?$tvec4@I$0A@@glm@@@std@@YA?A_TAEBQEAU?$tvec4@I$0A@@glm@@@Z ; std::_Get_unwrapped<glm::tvec4<unsigned int,0> * const &>
PUBLIC	??$_Copy_memmove@PEAU?$tvec4@I$0A@@glm@@PEAU12@@std@@YAPEAU?$tvec4@I$0A@@glm@@PEAU12@00@Z ; std::_Copy_memmove<glm::tvec4<unsigned int,0> *,glm::tvec4<unsigned int,0> *>
PUBLIC	??0?$_Uninitialized_backout_al@V?$allocator@U?$tvec4@I$0A@@glm@@@std@@@std@@QEAA@PEAU?$tvec4@I$0A@@glm@@AEAV?$allocator@U?$tvec4@I$0A@@glm@@@1@@Z ; std::_Uninitialized_backout_al<std::allocator<glm::tvec4<unsigned int,0> > >::_Uninitialized_backout_al<std::allocator<glm::tvec4<unsigned int,0> > >
PUBLIC	??1?$_Uninitialized_backout_al@V?$allocator@U?$tvec4@I$0A@@glm@@@std@@@std@@QEAA@XZ ; std::_Uninitialized_backout_al<std::allocator<glm::tvec4<unsigned int,0> > >::~_Uninitialized_backout_al<std::allocator<glm::tvec4<unsigned int,0> > >
PUBLIC	?_Release@?$_Uninitialized_backout_al@V?$allocator@U?$tvec4@I$0A@@glm@@@std@@@std@@QEAAPEAU?$tvec4@I$0A@@glm@@XZ ; std::_Uninitialized_backout_al<std::allocator<glm::tvec4<unsigned int,0> > >::_Release
PUBLIC	??$_Emplace_back@U?$tvec4@I$0A@@glm@@@?$_Uninitialized_backout_al@V?$allocator@U?$tvec4@I$0A@@glm@@@std@@@std@@QEAAX$$QEAU?$tvec4@I$0A@@glm@@@Z ; std::_Uninitialized_backout_al<std::allocator<glm::tvec4<unsigned int,0> > >::_Emplace_back<glm::tvec4<unsigned int,0> >
PUBLIC	??$addressof@U?$tvec4@H$0A@@glm@@@std@@YAPEAU?$tvec4@H$0A@@glm@@AEAU12@@Z ; std::addressof<glm::tvec4<int,0> >
PUBLIC	??$_Voidify_iter@PEAU?$tvec4@H$0A@@glm@@@std@@YAPEAXPEAU?$tvec4@H$0A@@glm@@@Z ; std::_Voidify_iter<glm::tvec4<int,0> *>
PUBLIC	??$_Get_unwrapped@AEBQEAU?$tvec4@H$0A@@glm@@@std@@YA?A_TAEBQEAU?$tvec4@H$0A@@glm@@@Z ; std::_Get_unwrapped<glm::tvec4<int,0> * const &>
PUBLIC	??$_Copy_memmove@PEAU?$tvec4@H$0A@@glm@@PEAU12@@std@@YAPEAU?$tvec4@H$0A@@glm@@PEAU12@00@Z ; std::_Copy_memmove<glm::tvec4<int,0> *,glm::tvec4<int,0> *>
PUBLIC	??0?$_Uninitialized_backout_al@V?$allocator@U?$tvec4@H$0A@@glm@@@std@@@std@@QEAA@PEAU?$tvec4@H$0A@@glm@@AEAV?$allocator@U?$tvec4@H$0A@@glm@@@1@@Z ; std::_Uninitialized_backout_al<std::allocator<glm::tvec4<int,0> > >::_Uninitialized_backout_al<std::allocator<glm::tvec4<int,0> > >
PUBLIC	??1?$_Uninitialized_backout_al@V?$allocator@U?$tvec4@H$0A@@glm@@@std@@@std@@QEAA@XZ ; std::_Uninitialized_backout_al<std::allocator<glm::tvec4<int,0> > >::~_Uninitialized_backout_al<std::allocator<glm::tvec4<int,0> > >
PUBLIC	?_Release@?$_Uninitialized_backout_al@V?$allocator@U?$tvec4@H$0A@@glm@@@std@@@std@@QEAAPEAU?$tvec4@H$0A@@glm@@XZ ; std::_Uninitialized_backout_al<std::allocator<glm::tvec4<int,0> > >::_Release
PUBLIC	??$_Emplace_back@U?$tvec4@H$0A@@glm@@@?$_Uninitialized_backout_al@V?$allocator@U?$tvec4@H$0A@@glm@@@std@@@std@@QEAAX$$QEAU?$tvec4@H$0A@@glm@@@Z ; std::_Uninitialized_backout_al<std::allocator<glm::tvec4<int,0> > >::_Emplace_back<glm::tvec4<int,0> >
PUBLIC	??$addressof@U?$tvec4@M$0A@@glm@@@std@@YAPEAU?$tvec4@M$0A@@glm@@AEAU12@@Z ; std::addressof<glm::tvec4<float,0> >
PUBLIC	??$_Voidify_iter@PEAU?$tvec4@M$0A@@glm@@@std@@YAPEAXPEAU?$tvec4@M$0A@@glm@@@Z ; std::_Voidify_iter<glm::tvec4<float,0> *>
PUBLIC	??$_Get_unwrapped@AEBQEAU?$tvec4@M$0A@@glm@@@std@@YA?A_TAEBQEAU?$tvec4@M$0A@@glm@@@Z ; std::_Get_unwrapped<glm::tvec4<float,0> * const &>
PUBLIC	??$_Copy_memmove@PEAU?$tvec4@M$0A@@glm@@PEAU12@@std@@YAPEAU?$tvec4@M$0A@@glm@@PEAU12@00@Z ; std::_Copy_memmove<glm::tvec4<float,0> *,glm::tvec4<float,0> *>
PUBLIC	??0?$_Uninitialized_backout_al@V?$allocator@U?$tvec4@M$0A@@glm@@@std@@@std@@QEAA@PEAU?$tvec4@M$0A@@glm@@AEAV?$allocator@U?$tvec4@M$0A@@glm@@@1@@Z ; std::_Uninitialized_backout_al<std::allocator<glm::tvec4<float,0> > >::_Uninitialized_backout_al<std::allocator<glm::tvec4<float,0> > >
PUBLIC	??1?$_Uninitialized_backout_al@V?$allocator@U?$tvec4@M$0A@@glm@@@std@@@std@@QEAA@XZ ; std::_Uninitialized_backout_al<std::allocator<glm::tvec4<float,0> > >::~_Uninitialized_backout_al<std::allocator<glm::tvec4<float,0> > >
PUBLIC	?_Release@?$_Uninitialized_backout_al@V?$allocator@U?$tvec4@M$0A@@glm@@@std@@@std@@QEAAPEAU?$tvec4@M$0A@@glm@@XZ ; std::_Uninitialized_backout_al<std::allocator<glm::tvec4<float,0> > >::_Release
PUBLIC	??$_Emplace_back@U?$tvec4@M$0A@@glm@@@?$_Uninitialized_backout_al@V?$allocator@U?$tvec4@M$0A@@glm@@@std@@@std@@QEAAX$$QEAU?$tvec4@M$0A@@glm@@@Z ; std::_Uninitialized_backout_al<std::allocator<glm::tvec4<float,0> > >::_Emplace_back<glm::tvec4<float,0> >
PUBLIC	??$addressof@M@std@@YAPEAMAEAM@Z		; std::addressof<float>
PUBLIC	??$_Voidify_iter@PEAM@std@@YAPEAXPEAM@Z		; std::_Voidify_iter<float *>
PUBLIC	??$_Get_unwrapped@AEBQEAM@std@@YA?A_TAEBQEAM@Z	; std::_Get_unwrapped<float * const &>
PUBLIC	??$_Copy_memmove@PEAMPEAM@std@@YAPEAMPEAM00@Z	; std::_Copy_memmove<float *,float *>
PUBLIC	??0?$_Uninitialized_backout_al@V?$allocator@M@std@@@std@@QEAA@PEAMAEAV?$allocator@M@1@@Z ; std::_Uninitialized_backout_al<std::allocator<float> >::_Uninitialized_backout_al<std::allocator<float> >
PUBLIC	??1?$_Uninitialized_backout_al@V?$allocator@M@std@@@std@@QEAA@XZ ; std::_Uninitialized_backout_al<std::allocator<float> >::~_Uninitialized_backout_al<std::allocator<float> >
PUBLIC	?_Release@?$_Uninitialized_backout_al@V?$allocator@M@std@@@std@@QEAAPEAMXZ ; std::_Uninitialized_backout_al<std::allocator<float> >::_Release
PUBLIC	??$_Emplace_back@M@?$_Uninitialized_backout_al@V?$allocator@M@std@@@std@@QEAAX$$QEAM@Z ; std::_Uninitialized_backout_al<std::allocator<float> >::_Emplace_back<float>
PUBLIC	??$_To_address@PEAU?$tvec2@M$0A@@glm@@@std@@YA?A_PAEBQEAU?$tvec2@M$0A@@glm@@@Z ; std::_To_address<glm::tvec2<float,0> *>
PUBLIC	??$_To_address@PEAU?$tvec1@M$0A@@glm@@@std@@YA?A_PAEBQEAU?$tvec1@M$0A@@glm@@@Z ; std::_To_address<glm::tvec1<float,0> *>
PUBLIC	??$_To_address@PEAU?$tvec3@M$0A@@glm@@@std@@YA?A_PAEBQEAU?$tvec3@M$0A@@glm@@@Z ; std::_To_address<glm::tvec3<float,0> *>
PUBLIC	??$_To_address@PEAU?$tvec4@I$0A@@glm@@@std@@YA?A_PAEBQEAU?$tvec4@I$0A@@glm@@@Z ; std::_To_address<glm::tvec4<unsigned int,0> *>
PUBLIC	??$_To_address@PEAU?$tvec4@H$0A@@glm@@@std@@YA?A_PAEBQEAU?$tvec4@H$0A@@glm@@@Z ; std::_To_address<glm::tvec4<int,0> *>
PUBLIC	??$_To_address@PEAU?$tvec4@M$0A@@glm@@@std@@YA?A_PAEBQEAU?$tvec4@M$0A@@glm@@@Z ; std::_To_address<glm::tvec4<float,0> *>
PUBLIC	??$_To_address@PEAM@std@@YA?A_PAEBQEAM@Z	; std::_To_address<float *>
PUBLIC	?_OptionsStorage@?1??__local_stdio_printf_options@@9@4_KA ; `__local_stdio_printf_options'::`2'::_OptionsStorage
PUBLIC	??_7exception@std@@6B@				; std::exception::`vftable'
PUBLIC	??_C@_0BC@EOODALEL@Unknown?5exception@		; `string'
PUBLIC	??_7bad_alloc@std@@6B@				; std::bad_alloc::`vftable'
PUBLIC	??_7bad_array_new_length@std@@6B@		; std::bad_array_new_length::`vftable'
PUBLIC	??_C@_0BF@KINCDENJ@bad?5array?5new?5length@	; `string'
PUBLIC	_TI3?AVbad_array_new_length@std@@
PUBLIC	_CTA3?AVbad_array_new_length@std@@
PUBLIC	??_R0?AVbad_array_new_length@std@@@8		; std::bad_array_new_length `RTTI Type Descriptor'
PUBLIC	_CT??_R0?AVbad_array_new_length@std@@@8??0bad_array_new_length@std@@QEAA@AEBV01@@Z24
PUBLIC	??_R0?AVbad_alloc@std@@@8			; std::bad_alloc `RTTI Type Descriptor'
PUBLIC	_CT??_R0?AVbad_alloc@std@@@8??0bad_alloc@std@@QEAA@AEBV01@@Z24
PUBLIC	??_R0?AVexception@std@@@8			; std::exception `RTTI Type Descriptor'
PUBLIC	_CT??_R0?AVexception@std@@@8??0exception@std@@QEAA@AEBV01@@Z24
PUBLIC	??_C@_0BB@FCMFBGOM@invalid?5argument@		; `string'
PUBLIC	??_C@_02DKCKIIND@?$CFs@				; `string'
PUBLIC	??_C@_0GC@DJFHHHKN@C?3?2Program?5Files?2Microsoft?5Visu@ ; `string'
PUBLIC	??_C@_1ME@GEFGDEOM@?$AAC?$AA?3?$AA?2?$AAP?$AAr?$AAo?$AAg?$AAr?$AAa?$AAm?$AA?5?$AAF?$AAi?$AAl?$AAe@ ; `string'
PUBLIC	??_C@_11LOCGONAA@@				; `string'
PUBLIC	??_C@_1CG@JNLFBNGN@?$AA?$CC?$AAi?$AAn?$AAv?$AAa?$AAl?$AAi?$AAd?$AA?5?$AAa?$AAr?$AAg?$AAu?$AAm?$AAe@ ; `string'
PUBLIC	??_C@_0BO@PFKOHNJC@vector?5subscript?5out?5of?5range@ ; `string'
PUBLIC	??_C@_0GB@GDCALCPO@C?3?2Program?5Files?2Microsoft?5Visu@ ; `string'
PUBLIC	??_C@_1MC@BJDJHFOD@?$AAC?$AA?3?$AA?2?$AAP?$AAr?$AAo?$AAg?$AAr?$AAa?$AAm?$AA?5?$AAF?$AAi?$AAl?$AAe@ ; `string'
PUBLIC	??_C@_1EA@LEKOKFNB@?$AA?$CC?$AAv?$AAe?$AAc?$AAt?$AAo?$AAr?$AA?5?$AAs?$AAu?$AAb?$AAs?$AAc?$AAr?$AAi@ ; `string'
PUBLIC	??_C@_0DG@KGHKKGBC@null?5pointer?5cannot?5point?5to?5a?5@ ; `string'
PUBLIC	??_C@_1HA@FACCKGGH@?$AA?$CC?$AAn?$AAu?$AAl?$AAl?$AA?5?$AAp?$AAo?$AAi?$AAn?$AAt?$AAe?$AAr?$AA?5?$AAc@ ; `string'
PUBLIC	??_C@_1LG@FPDAFGJN@?$AAC?$AA?3?$AA?2?$AAU?$AAs?$AAe?$AAr?$AAs?$AA?2?$AAk?$AAs?$AAa?$AAr?$AAt?$AA?2@ ; `string'
PUBLIC	??_C@_1DK@BGNCJAPL@?$AAi?$AA?5?$AA?$DO?$AA?$DN?$AA?5?$AA0?$AA?5?$AA?$CG?$AA?$CG?$AA?5?$AAi?$AA?5?$AA?$DM?$AA?5?$AAt@ ; `string'
PUBLIC	??_C@_1LG@LAANPDHN@?$AAC?$AA?3?$AA?2?$AAU?$AAs?$AAe?$AAr?$AAs?$AA?2?$AAk?$AAs?$AAa?$AAr?$AAt?$AA?2@ ; `string'
PUBLIC	??_C@_1NA@OPABFNEN@?$AAC?$AA?3?$AA?2?$AAU?$AAs?$AAe?$AAr?$AAs?$AA?2?$AAk?$AAs?$AAa?$AAr?$AAt?$AA?2@ ; `string'
PUBLIC	??_C@_1DC@HHLCGOLC@?$AAx?$AA?4?$AAl?$AAe?$AAn?$AAg?$AAt?$AAh?$AA?$CI?$AA?$CJ?$AA?5?$AA?$DN?$AA?$DN?$AA?5?$AAy@ ; `string'
PUBLIC	??_C@_1LG@CIKOIEGN@?$AAC?$AA?3?$AA?2?$AAU?$AAs?$AAe?$AAr?$AAs?$AA?2?$AAk?$AAs?$AAa?$AAr?$AAt?$AA?2@ ; `string'
PUBLIC	??_C@_1LG@MEJFBKPC@?$AAC?$AA?3?$AA?2?$AAU?$AAs?$AAe?$AAr?$AAs?$AA?2?$AAk?$AAs?$AAa?$AAr?$AAt?$AA?2@ ; `string'
PUBLIC	??_C@_0BA@FOIKENOD@vector?5too?5long@		; `string'
PUBLIC	??_R4exception@std@@6B@				; std::exception::`RTTI Complete Object Locator'
PUBLIC	??_R3exception@std@@8				; std::exception::`RTTI Class Hierarchy Descriptor'
PUBLIC	??_R2exception@std@@8				; std::exception::`RTTI Base Class Array'
PUBLIC	??_R1A@?0A@EA@exception@std@@8			; std::exception::`RTTI Base Class Descriptor at (0,-1,0,64)'
PUBLIC	??_R4bad_alloc@std@@6B@				; std::bad_alloc::`RTTI Complete Object Locator'
PUBLIC	??_R3bad_alloc@std@@8				; std::bad_alloc::`RTTI Class Hierarchy Descriptor'
PUBLIC	??_R2bad_alloc@std@@8				; std::bad_alloc::`RTTI Base Class Array'
PUBLIC	??_R1A@?0A@EA@bad_alloc@std@@8			; std::bad_alloc::`RTTI Base Class Descriptor at (0,-1,0,64)'
PUBLIC	??_R4bad_array_new_length@std@@6B@		; std::bad_array_new_length::`RTTI Complete Object Locator'
PUBLIC	??_R3bad_array_new_length@std@@8		; std::bad_array_new_length::`RTTI Class Hierarchy Descriptor'
PUBLIC	??_R2bad_array_new_length@std@@8		; std::bad_array_new_length::`RTTI Base Class Array'
PUBLIC	??_R1A@?0A@EA@bad_array_new_length@std@@8	; std::bad_array_new_length::`RTTI Base Class Descriptor at (0,-1,0,64)'
PUBLIC	__real@00000000
PUBLIC	__real@37800080
PUBLIC	__real@38000100
PUBLIC	__real@38800100
PUBLIC	__real@3a802008
PUBLIC	__real@3a83126f
PUBLIC	__real@3b808081
PUBLIC	__real@3c010204
PUBLIC	__real@3c23d70a
PUBLIC	__real@3c820821
PUBLIC	__real@3d042108
PUBLIC	__real@3d888889
PUBLIC	__real@3dcccccd
PUBLIC	__real@3e124925
PUBLIC	__real@3e4ccccd
PUBLIC	__real@3e99999a
PUBLIC	__real@3eaaaaab
PUBLIC	__real@3f000000
PUBLIC	__real@3f333333
PUBLIC	__real@3f666666
PUBLIC	__real@3f800000
PUBLIC	__real@3ff33333
PUBLIC	__real@40000000
PUBLIC	__real@40400000
PUBLIC	__real@40e00000
PUBLIC	__real@41000000
PUBLIC	__real@41100000
PUBLIC	__real@41700000
PUBLIC	__real@41800000
PUBLIC	__real@41f80000
PUBLIC	__real@427c0000
PUBLIC	__real@42fe0000
PUBLIC	__real@437f0000
PUBLIC	__real@43ff8000
PUBLIC	__real@447fc000
PUBLIC	__real@46fffe00
PUBLIC	__real@477fff00
PUBLIC	__real@501502f9
PUBLIC	__real@bdcccccd
PUBLIC	__real@be4ccccd
PUBLIC	__real@be99999a
PUBLIC	__real@bf000000
PUBLIC	__real@bf333333
PUBLIC	__real@bf666666
PUBLIC	__real@bf800000
PUBLIC	__real@c0000000
PUBLIC	__real@c1800000
PUBLIC	__xmm@80000000800000008000000080000000
EXTRN	??2@YAPEAX_K@Z:PROC				; operator new
EXTRN	??3@YAXPEAX_K@Z:PROC				; operator delete
EXTRN	__imp__invalid_parameter:PROC
EXTRN	__imp__wassert:PROC
EXTRN	__imp__fdtest:PROC
EXTRN	__imp_log2f:PROC
EXTRN	__imp_powf:PROC
EXTRN	__imp___acrt_iob_func:PROC
EXTRN	__imp___stdio_common_vfprintf:PROC
EXTRN	memcpy:PROC
EXTRN	memmove:PROC
EXTRN	__imp__CrtDbgReport:PROC
EXTRN	__imp_??0_Lockit@std@@QEAA@H@Z:PROC
EXTRN	__imp_??1_Lockit@std@@QEAA@XZ:PROC
EXTRN	__std_exception_copy:PROC
EXTRN	__std_exception_destroy:PROC
EXTRN	??_Eexception@std@@UEAAPEAXI@Z:PROC		; std::exception::`vector deleting destructor'
EXTRN	??_Ebad_alloc@std@@UEAAPEAXI@Z:PROC		; std::bad_alloc::`vector deleting destructor'
EXTRN	??_Ebad_array_new_length@std@@UEAAPEAXI@Z:PROC	; std::bad_array_new_length::`vector deleting destructor'
EXTRN	?_Xlength_error@std@@YAXPEBD@Z:PROC		; std::_Xlength_error
EXTRN	_CxxThrowException:PROC
EXTRN	_RTC_CheckStackVars:PROC
EXTRN	_RTC_InitBase:PROC
EXTRN	_RTC_Shutdown:PROC
EXTRN	__CxxFrameHandler4:PROC
EXTRN	floorf:PROC
EXTRN	roundf:PROC
EXTRN	??_7type_info@@6B@:BYTE				; type_info::`vftable'
EXTRN	_fltused:DWORD
;	COMDAT ?_OptionsStorage@?1??__local_stdio_printf_options@@9@4_KA
_BSS	SEGMENT
?_OptionsStorage@?1??__local_stdio_printf_options@@9@4_KA DQ 01H DUP (?) ; `__local_stdio_printf_options'::`2'::_OptionsStorage
_BSS	ENDS
;	COMDAT pdata
pdata	SEGMENT
$pdata$?fpclassify@@YAHM@Z DD imagerel $LN3
	DD	imagerel $LN3+29
	DD	imagerel $unwind$?fpclassify@@YAHM@Z
pdata	ENDS
;	COMDAT pdata
pdata	SEGMENT
$pdata$__local_stdio_printf_options DD imagerel $LN3
	DD	imagerel $LN3+11
	DD	imagerel $unwind$__local_stdio_printf_options
pdata	ENDS
;	COMDAT pdata
pdata	SEGMENT
$pdata$_vfprintf_l DD imagerel $LN3
	DD	imagerel $LN3+70
	DD	imagerel $unwind$_vfprintf_l
pdata	ENDS
;	COMDAT pdata
pdata	SEGMENT
$pdata$printf DD imagerel $LN3
	DD	imagerel $LN3+131
	DD	imagerel $unwind$printf
pdata	ENDS
;	COMDAT pdata
pdata	SEGMENT
$pdata$?max@?$numeric_limits@F@std@@SAFXZ DD imagerel $LN3
	DD	imagerel $LN3+9
	DD	imagerel $unwind$?max@?$numeric_limits@F@std@@SAFXZ
pdata	ENDS
;	COMDAT pdata
pdata	SEGMENT
$pdata$?max@?$numeric_limits@_J@std@@SA_JXZ DD imagerel $LN3
	DD	imagerel $LN3+14
	DD	imagerel $unwind$?max@?$numeric_limits@_J@std@@SA_JXZ
pdata	ENDS
;	COMDAT pdata
pdata	SEGMENT
$pdata$?max@?$numeric_limits@G@std@@SAGXZ DD imagerel $LN3
	DD	imagerel $LN3+9
	DD	imagerel $unwind$?max@?$numeric_limits@G@std@@SAGXZ
pdata	ENDS
;	COMDAT pdata
pdata	SEGMENT
$pdata$??2@YAPEAX_KPEAX@Z DD imagerel $LN3
	DD	imagerel $LN3+18
	DD	imagerel $unwind$??2@YAPEAX_KPEAX@Z
pdata	ENDS
;	COMDAT pdata
pdata	SEGMENT
$pdata$?floor@@YAMM@Z DD imagerel $LN3
	DD	imagerel $LN3+28
	DD	imagerel $unwind$?floor@@YAMM@Z
pdata	ENDS
;	COMDAT pdata
pdata	SEGMENT
$pdata$?log2@@YAMM@Z DD imagerel $LN3
	DD	imagerel $LN3+29
	DD	imagerel $unwind$?log2@@YAMM@Z
pdata	ENDS
;	COMDAT pdata
pdata	SEGMENT
$pdata$?pow@@YAMMM@Z DD imagerel $LN3
	DD	imagerel $LN3+41
	DD	imagerel $unwind$?pow@@YAMMM@Z
pdata	ENDS
;	COMDAT pdata
pdata	SEGMENT
$pdata$?round@@YAMM@Z DD imagerel $LN3
	DD	imagerel $LN3+28
	DD	imagerel $unwind$?round@@YAMM@Z
pdata	ENDS
;	COMDAT pdata
pdata	SEGMENT
$pdata$?packUnorm2x16@glm@@YAIAEBU?$tvec2@M$0A@@1@@Z DD imagerel $LN3
	DD	imagerel $LN3+201
	DD	imagerel $unwind$?packUnorm2x16@glm@@YAIAEBU?$tvec2@M$0A@@1@@Z
pdata	ENDS
;	COMDAT pdata
pdata	SEGMENT
$pdata$?packSnorm2x16@glm@@YAIAEBU?$tvec2@M$0A@@1@@Z DD imagerel $LN3
	DD	imagerel $LN3+206
	DD	imagerel $unwind$?packSnorm2x16@glm@@YAIAEBU?$tvec2@M$0A@@1@@Z
pdata	ENDS
;	COMDAT pdata
pdata	SEGMENT
$pdata$?packUnorm4x8@glm@@YAIAEBU?$tvec4@M$0A@@1@@Z DD imagerel $LN3
	DD	imagerel $LN3+267
	DD	imagerel $unwind$?packUnorm4x8@glm@@YAIAEBU?$tvec4@M$0A@@1@@Z
pdata	ENDS
;	COMDAT pdata
pdata	SEGMENT
$pdata$?packSnorm4x8@glm@@YAIAEBU?$tvec4@M$0A@@1@@Z DD imagerel $LN3
	DD	imagerel $LN3+272
	DD	imagerel $unwind$?packSnorm4x8@glm@@YAIAEBU?$tvec4@M$0A@@1@@Z
pdata	ENDS
;	COMDAT pdata
pdata	SEGMENT
$pdata$?unpackUnorm2x16@glm@@YA?AU?$tvec2@M$0A@@1@I@Z DD imagerel $LN3
	DD	imagerel $LN3+136
	DD	imagerel $unwind$?unpackUnorm2x16@glm@@YA?AU?$tvec2@M$0A@@1@I@Z
pdata	ENDS
;	COMDAT pdata
pdata	SEGMENT
$pdata$?unpackSnorm2x16@glm@@YA?AU?$tvec2@M$0A@@1@I@Z DD imagerel $LN3
	DD	imagerel $LN3+165
	DD	imagerel $unwind$?unpackSnorm2x16@glm@@YA?AU?$tvec2@M$0A@@1@I@Z
pdata	ENDS
;	COMDAT pdata
pdata	SEGMENT
$pdata$?unpackUnorm4x8@glm@@YA?AU?$tvec4@M$0A@@1@I@Z DD imagerel $LN3
	DD	imagerel $LN3+180
	DD	imagerel $unwind$?unpackUnorm4x8@glm@@YA?AU?$tvec4@M$0A@@1@I@Z
pdata	ENDS
;	COMDAT pdata
pdata	SEGMENT
$pdata$?unpackSnorm4x8@glm@@YA?AU?$tvec4@M$0A@@1@I@Z DD imagerel $LN3
	DD	imagerel $LN3+221
	DD	imagerel $unwind$?unpackSnorm4x8@glm@@YA?AU?$tvec4@M$0A@@1@I@Z
pdata	ENDS
;	COMDAT pdata
pdata	SEGMENT
$pdata$?toFloat32@detail@glm@@YAMF@Z DD imagerel $LN12
	DD	imagerel $LN12+407
	DD	imagerel $unwind$?toFloat32@detail@glm@@YAMF@Z
pdata	ENDS
;	COMDAT pdata
pdata	SEGMENT
$pdata$?toFloat16@detail@glm@@YAFAEBM@Z DD imagerel $LN16
	DD	imagerel $LN16+432
	DD	imagerel $unwind$?toFloat16@detail@glm@@YAFAEBM@Z
pdata	ENDS
;	COMDAT pdata
pdata	SEGMENT
$pdata$?overflow@detail@glm@@YAMXZ DD imagerel $LN6
	DD	imagerel $LN6+83
	DD	imagerel $unwind$?overflow@detail@glm@@YAMXZ
pdata	ENDS
;	COMDAT pdata
pdata	SEGMENT
$pdata$??0uif32@detail@glm@@QEAA@XZ DD imagerel $LN3
	DD	imagerel $LN3+24
	DD	imagerel $unwind$??0uif32@detail@glm@@QEAA@XZ
pdata	ENDS
;	COMDAT pdata
pdata	SEGMENT
$pdata$?length@?$tvec2@M$0A@@glm@@SAHXZ DD imagerel $LN3
	DD	imagerel $LN3+9
	DD	imagerel $unwind$?length@?$tvec2@M$0A@@glm@@SAHXZ
pdata	ENDS
;	COMDAT pdata
pdata	SEGMENT
$pdata$??A?$tvec2@M$0A@@glm@@QEBAAEBMH@Z DD imagerel $LN5
	DD	imagerel $LN5+80
	DD	imagerel $unwind$??A?$tvec2@M$0A@@glm@@QEBAAEBMH@Z
pdata	ENDS
;	COMDAT pdata
pdata	SEGMENT
$pdata$??0?$tvec2@M$0A@@glm@@QEAA@M@Z DD imagerel $LN3
	DD	imagerel $LN3+50
	DD	imagerel $unwind$??0?$tvec2@M$0A@@glm@@QEAA@M@Z
pdata	ENDS
;	COMDAT pdata
pdata	SEGMENT
$pdata$??0?$tvec2@M$0A@@glm@@QEAA@MM@Z DD imagerel $LN3
	DD	imagerel $LN3+56
	DD	imagerel $unwind$??0?$tvec2@M$0A@@glm@@QEAA@MM@Z
pdata	ENDS
;	COMDAT pdata
pdata	SEGMENT
$pdata$??$clamp@M$0A@Utvec2@glm@@@glm@@YA?AU?$tvec2@M$0A@@0@AEBU10@MM@Z DD imagerel $LN3
	DD	imagerel $LN3+101
	DD	imagerel $unwind$??$clamp@M$0A@Utvec2@glm@@@glm@@YA?AU?$tvec2@M$0A@@0@AEBU10@MM@Z
pdata	ENDS
;	COMDAT pdata
pdata	SEGMENT
$pdata$??$?DM$0A@@glm@@YA?AU?$tvec2@M$0A@@0@AEBU10@M@Z DD imagerel $LN3
	DD	imagerel $LN3+76
	DD	imagerel $unwind$??$?DM$0A@@glm@@YA?AU?$tvec2@M$0A@@0@AEBU10@M@Z
pdata	ENDS
;	COMDAT pdata
pdata	SEGMENT
$pdata$??$round@M$0A@Utvec2@glm@@@glm@@YA?AU?$tvec2@M$0A@@0@AEBU10@@Z DD imagerel $LN3
	DD	imagerel $LN3+41
	DD	imagerel $unwind$??$round@M$0A@Utvec2@glm@@@glm@@YA?AU?$tvec2@M$0A@@0@AEBU10@@Z
pdata	ENDS
;	COMDAT pdata
pdata	SEGMENT
$pdata$?length@?$tvec2@G$0A@@glm@@SAHXZ DD imagerel $LN3
	DD	imagerel $LN3+9
	DD	imagerel $unwind$?length@?$tvec2@G$0A@@glm@@SAHXZ
pdata	ENDS
;	COMDAT pdata
pdata	SEGMENT
$pdata$??A?$tvec2@G$0A@@glm@@QEAAAEAGH@Z DD imagerel $LN5
	DD	imagerel $LN5+80
	DD	imagerel $unwind$??A?$tvec2@G$0A@@glm@@QEAAAEAGH@Z
pdata	ENDS
;	COMDAT pdata
pdata	SEGMENT
$pdata$??$?0M$0A@@?$tvec2@G$0A@@glm@@QEAA@AEBU?$tvec2@M$0A@@1@@Z DD imagerel $LN3
	DD	imagerel $LN3+54
	DD	imagerel $unwind$??$?0M$0A@@?$tvec2@G$0A@@glm@@QEAA@AEBU?$tvec2@M$0A@@1@@Z
pdata	ENDS
;	COMDAT pdata
pdata	SEGMENT
$pdata$??$?0GG@?$tvec2@M$0A@@glm@@QEAA@GG@Z DD imagerel $LN3
	DD	imagerel $LN3+61
	DD	imagerel $unwind$??$?0GG@?$tvec2@M$0A@@glm@@QEAA@GG@Z
pdata	ENDS
;	COMDAT pdata
pdata	SEGMENT
$pdata$?length@?$tvec2@F$0A@@glm@@SAHXZ DD imagerel $LN3
	DD	imagerel $LN3+9
	DD	imagerel $unwind$?length@?$tvec2@F$0A@@glm@@SAHXZ
pdata	ENDS
;	COMDAT pdata
pdata	SEGMENT
$pdata$??A?$tvec2@F$0A@@glm@@QEAAAEAFH@Z DD imagerel $LN5
	DD	imagerel $LN5+80
	DD	imagerel $unwind$??A?$tvec2@F$0A@@glm@@QEAAAEAFH@Z
pdata	ENDS
;	COMDAT pdata
pdata	SEGMENT
$pdata$??$?0M$0A@@?$tvec2@F$0A@@glm@@QEAA@AEBU?$tvec2@M$0A@@1@@Z DD imagerel $LN3
	DD	imagerel $LN3+54
	DD	imagerel $unwind$??$?0M$0A@@?$tvec2@F$0A@@glm@@QEAA@AEBU?$tvec2@M$0A@@1@@Z
pdata	ENDS
;	COMDAT pdata
pdata	SEGMENT
$pdata$??$?0FF@?$tvec2@M$0A@@glm@@QEAA@FF@Z DD imagerel $LN3
	DD	imagerel $LN3+61
	DD	imagerel $unwind$??$?0FF@?$tvec2@M$0A@@glm@@QEAA@FF@Z
pdata	ENDS
;	COMDAT pdata
pdata	SEGMENT
$pdata$?length@?$tvec4@M$0A@@glm@@SAHXZ DD imagerel $LN3
	DD	imagerel $LN3+9
	DD	imagerel $unwind$?length@?$tvec4@M$0A@@glm@@SAHXZ
pdata	ENDS
;	COMDAT pdata
pdata	SEGMENT
$pdata$??A?$tvec4@M$0A@@glm@@QEBAAEBMH@Z DD imagerel $LN5
	DD	imagerel $LN5+80
	DD	imagerel $unwind$??A?$tvec4@M$0A@@glm@@QEBAAEBMH@Z
pdata	ENDS
;	COMDAT pdata
pdata	SEGMENT
$pdata$??0?$tvec4@M$0A@@glm@@QEAA@XZ DD imagerel $LN3
	DD	imagerel $LN3+64
	DD	imagerel $unwind$??0?$tvec4@M$0A@@glm@@QEAA@XZ
pdata	ENDS
;	COMDAT pdata
pdata	SEGMENT
$pdata$??0?$tvec4@M$0A@@glm@@QEAA@M@Z DD imagerel $LN3
	DD	imagerel $LN3+82
	DD	imagerel $unwind$??0?$tvec4@M$0A@@glm@@QEAA@M@Z
pdata	ENDS
;	COMDAT pdata
pdata	SEGMENT
$pdata$??0?$tvec4@M$0A@@glm@@QEAA@MMMM@Z DD imagerel $LN3
	DD	imagerel $LN3+94
	DD	imagerel $unwind$??0?$tvec4@M$0A@@glm@@QEAA@MMMM@Z
pdata	ENDS
;	COMDAT pdata
pdata	SEGMENT
$pdata$??$clamp@M$0A@Utvec4@glm@@@glm@@YA?AU?$tvec4@M$0A@@0@AEBU10@MM@Z DD imagerel $LN3
	DD	imagerel $LN3+101
	DD	imagerel $unwind$??$clamp@M$0A@Utvec4@glm@@@glm@@YA?AU?$tvec4@M$0A@@0@AEBU10@MM@Z
pdata	ENDS
;	COMDAT pdata
pdata	SEGMENT
$pdata$??$?DM$0A@@glm@@YA?AU?$tvec4@M$0A@@0@AEBU10@M@Z DD imagerel $LN3
	DD	imagerel $LN3+85
	DD	imagerel $unwind$??$?DM$0A@@glm@@YA?AU?$tvec4@M$0A@@0@AEBU10@M@Z
pdata	ENDS
;	COMDAT pdata
pdata	SEGMENT
$pdata$??$round@M$0A@Utvec4@glm@@@glm@@YA?AU?$tvec4@M$0A@@0@AEBU10@@Z DD imagerel $LN3
	DD	imagerel $LN3+41
	DD	imagerel $unwind$??$round@M$0A@Utvec4@glm@@@glm@@YA?AU?$tvec4@M$0A@@0@AEBU10@@Z
pdata	ENDS
;	COMDAT pdata
pdata	SEGMENT
$pdata$?length@?$tvec4@E$0A@@glm@@SAHXZ DD imagerel $LN3
	DD	imagerel $LN3+9
	DD	imagerel $unwind$?length@?$tvec4@E$0A@@glm@@SAHXZ
pdata	ENDS
;	COMDAT pdata
pdata	SEGMENT
$pdata$??A?$tvec4@E$0A@@glm@@QEAAAEAEH@Z DD imagerel $LN5
	DD	imagerel $LN5+82
	DD	imagerel $unwind$??A?$tvec4@E$0A@@glm@@QEAAAEAEH@Z
pdata	ENDS
;	COMDAT pdata
pdata	SEGMENT
$pdata$??$?0M$0A@@?$tvec4@E$0A@@glm@@QEAA@AEBU?$tvec4@M$0A@@1@@Z DD imagerel $LN3
	DD	imagerel $LN3+88
	DD	imagerel $unwind$??$?0M$0A@@?$tvec4@E$0A@@glm@@QEAA@AEBU?$tvec4@M$0A@@1@@Z
pdata	ENDS
;	COMDAT pdata
pdata	SEGMENT
$pdata$??$?0EEEE@?$tvec4@M$0A@@glm@@QEAA@EEEE@Z DD imagerel $LN3
	DD	imagerel $LN3+102
	DD	imagerel $unwind$??$?0EEEE@?$tvec4@M$0A@@glm@@QEAA@EEEE@Z
pdata	ENDS
;	COMDAT pdata
pdata	SEGMENT
$pdata$?length@?$tvec4@C$0A@@glm@@SAHXZ DD imagerel $LN3
	DD	imagerel $LN3+9
	DD	imagerel $unwind$?length@?$tvec4@C$0A@@glm@@SAHXZ
pdata	ENDS
;	COMDAT pdata
pdata	SEGMENT
$pdata$??A?$tvec4@C$0A@@glm@@QEAAAEACH@Z DD imagerel $LN5
	DD	imagerel $LN5+82
	DD	imagerel $unwind$??A?$tvec4@C$0A@@glm@@QEAAAEACH@Z
pdata	ENDS
;	COMDAT pdata
pdata	SEGMENT
$pdata$??$?0M$0A@@?$tvec4@C$0A@@glm@@QEAA@AEBU?$tvec4@M$0A@@1@@Z DD imagerel $LN3
	DD	imagerel $LN3+88
	DD	imagerel $unwind$??$?0M$0A@@?$tvec4@C$0A@@glm@@QEAA@AEBU?$tvec4@M$0A@@1@@Z
pdata	ENDS
;	COMDAT pdata
pdata	SEGMENT
$pdata$??$?0CCCC@?$tvec4@M$0A@@glm@@QEAA@CCCC@Z DD imagerel $LN3
	DD	imagerel $LN3+102
	DD	imagerel $unwind$??$?0CCCC@?$tvec4@M$0A@@glm@@QEAA@CCCC@Z
pdata	ENDS
;	COMDAT pdata
pdata	SEGMENT
$pdata$?packUnorm1x8@glm@@YAEM@Z DD imagerel $LN3
	DD	imagerel $LN3+56
	DD	imagerel $unwind$?packUnorm1x8@glm@@YAEM@Z
pdata	ENDS
;	COMDAT pdata
pdata	SEGMENT
$pdata$?unpackUnorm1x8@glm@@YAME@Z DD imagerel $LN3
	DD	imagerel $LN3+44
	DD	imagerel $unwind$?unpackUnorm1x8@glm@@YAME@Z
pdata	ENDS
;	COMDAT pdata
pdata	SEGMENT
$pdata$?packUnorm2x8@glm@@YAGAEBU?$tvec2@M$0A@@1@@Z DD imagerel $LN3
	DD	imagerel $LN3+169
	DD	imagerel $unwind$?packUnorm2x8@glm@@YAGAEBU?$tvec2@M$0A@@1@@Z
pdata	ENDS
;	COMDAT pdata
pdata	SEGMENT
$pdata$?unpackUnorm2x8@glm@@YA?AU?$tvec2@M$0A@@1@G@Z DD imagerel $LN3
	DD	imagerel $LN3+138
	DD	imagerel $unwind$?unpackUnorm2x8@glm@@YA?AU?$tvec2@M$0A@@1@G@Z
pdata	ENDS
;	COMDAT pdata
pdata	SEGMENT
$pdata$?packSnorm1x8@glm@@YAEM@Z DD imagerel $LN3
	DD	imagerel $LN3+132
	DD	imagerel $unwind$?packSnorm1x8@glm@@YAEM@Z
pdata	ENDS
;	COMDAT pdata
pdata	SEGMENT
$pdata$?unpackSnorm1x8@glm@@YAME@Z DD imagerel $LN3
	DD	imagerel $LN3+128
	DD	imagerel $unwind$?unpackSnorm1x8@glm@@YAME@Z
pdata	ENDS
;	COMDAT pdata
pdata	SEGMENT
$pdata$?packSnorm2x8@glm@@YAGAEBU?$tvec2@M$0A@@1@@Z DD imagerel $LN3
	DD	imagerel $LN3+174
	DD	imagerel $unwind$?packSnorm2x8@glm@@YAGAEBU?$tvec2@M$0A@@1@@Z
pdata	ENDS
;	COMDAT pdata
pdata	SEGMENT
$pdata$?unpackSnorm2x8@glm@@YA?AU?$tvec2@M$0A@@1@G@Z DD imagerel $LN3
	DD	imagerel $LN3+167
	DD	imagerel $unwind$?unpackSnorm2x8@glm@@YA?AU?$tvec2@M$0A@@1@G@Z
pdata	ENDS
;	COMDAT pdata
pdata	SEGMENT
$pdata$?packUnorm1x16@glm@@YAGM@Z DD imagerel $LN3
	DD	imagerel $LN3+56
	DD	imagerel $unwind$?packUnorm1x16@glm@@YAGM@Z
pdata	ENDS
;	COMDAT pdata
pdata	SEGMENT
$pdata$?unpackUnorm1x16@glm@@YAMG@Z DD imagerel $LN3
	DD	imagerel $LN3+45
	DD	imagerel $unwind$?unpackUnorm1x16@glm@@YAMG@Z
pdata	ENDS
;	COMDAT pdata
pdata	SEGMENT
$pdata$?packUnorm4x16@glm@@YA_KAEBU?$tvec4@M$0A@@1@@Z DD imagerel $LN3
	DD	imagerel $LN3+179
	DD	imagerel $unwind$?packUnorm4x16@glm@@YA_KAEBU?$tvec4@M$0A@@1@@Z
pdata	ENDS
;	COMDAT pdata
pdata	SEGMENT
$pdata$?unpackUnorm4x16@glm@@YA?AU?$tvec4@M$0A@@1@_K@Z DD imagerel $LN3
	DD	imagerel $LN3+138
	DD	imagerel $unwind$?unpackUnorm4x16@glm@@YA?AU?$tvec4@M$0A@@1@_K@Z
pdata	ENDS
;	COMDAT pdata
pdata	SEGMENT
$pdata$?packSnorm1x16@glm@@YAGM@Z DD imagerel $LN3
	DD	imagerel $LN3+135
	DD	imagerel $unwind$?packSnorm1x16@glm@@YAGM@Z
pdata	ENDS
;	COMDAT pdata
pdata	SEGMENT
$pdata$?unpackSnorm1x16@glm@@YAMG@Z DD imagerel $LN3
	DD	imagerel $LN3+131
	DD	imagerel $unwind$?unpackSnorm1x16@glm@@YAMG@Z
pdata	ENDS
;	COMDAT pdata
pdata	SEGMENT
$pdata$?packSnorm4x16@glm@@YA_KAEBU?$tvec4@M$0A@@1@@Z DD imagerel $LN3
	DD	imagerel $LN3+184
	DD	imagerel $unwind$?packSnorm4x16@glm@@YA_KAEBU?$tvec4@M$0A@@1@@Z
pdata	ENDS
;	COMDAT pdata
pdata	SEGMENT
$pdata$?unpackSnorm4x16@glm@@YA?AU?$tvec4@M$0A@@1@_K@Z DD imagerel $LN3
	DD	imagerel $LN3+167
	DD	imagerel $unwind$?unpackSnorm4x16@glm@@YA?AU?$tvec4@M$0A@@1@_K@Z
pdata	ENDS
;	COMDAT pdata
pdata	SEGMENT
$pdata$?packHalf1x16@glm@@YAGM@Z DD imagerel $LN3
	DD	imagerel $LN3+101
	DD	imagerel $unwind$?packHalf1x16@glm@@YAGM@Z
pdata	ENDS
;	COMDAT pdata
pdata	SEGMENT
$pdata$?unpackHalf1x16@glm@@YAMG@Z DD imagerel $LN3
	DD	imagerel $LN3+103
	DD	imagerel $unwind$?unpackHalf1x16@glm@@YAMG@Z
pdata	ENDS
;	COMDAT pdata
pdata	SEGMENT
$pdata$?packHalf4x16@glm@@YA_KAEBU?$tvec4@M$0A@@1@@Z DD imagerel $LN3
	DD	imagerel $LN3+220
	DD	imagerel $unwind$?packHalf4x16@glm@@YA_KAEBU?$tvec4@M$0A@@1@@Z
pdata	ENDS
;	COMDAT pdata
pdata	SEGMENT
$pdata$?unpackHalf4x16@glm@@YA?AU?$tvec4@M$0A@@1@_K@Z DD imagerel $LN3
	DD	imagerel $LN3+203
	DD	imagerel $unwind$?unpackHalf4x16@glm@@YA?AU?$tvec4@M$0A@@1@_K@Z
pdata	ENDS
;	COMDAT pdata
pdata	SEGMENT
$pdata$?packI3x10_1x2@glm@@YAIAEBU?$tvec4@H$0A@@1@@Z DD imagerel $LN3
	DD	imagerel $LN3+191
	DD	imagerel $unwind$?packI3x10_1x2@glm@@YAIAEBU?$tvec4@H$0A@@1@@Z
pdata	ENDS
;	COMDAT pdata
pdata	SEGMENT
$pdata$?unpackI3x10_1x2@glm@@YA?AU?$tvec4@H$0A@@1@I@Z DD imagerel $LN3
	DD	imagerel $LN3+150
	DD	imagerel $unwind$?unpackI3x10_1x2@glm@@YA?AU?$tvec4@H$0A@@1@I@Z
pdata	ENDS
;	COMDAT pdata
pdata	SEGMENT
$pdata$?packU3x10_1x2@glm@@YAIAEBU?$tvec4@I$0A@@1@@Z DD imagerel $LN3
	DD	imagerel $LN3+191
	DD	imagerel $unwind$?packU3x10_1x2@glm@@YAIAEBU?$tvec4@I$0A@@1@@Z
pdata	ENDS
;	COMDAT pdata
pdata	SEGMENT
$pdata$?unpackU3x10_1x2@glm@@YA?AU?$tvec4@I$0A@@1@I@Z DD imagerel $LN3
	DD	imagerel $LN3+155
	DD	imagerel $unwind$?unpackU3x10_1x2@glm@@YA?AU?$tvec4@I$0A@@1@I@Z
pdata	ENDS
;	COMDAT pdata
pdata	SEGMENT
$pdata$?packSnorm3x10_1x2@glm@@YAIAEBU?$tvec4@M$0A@@1@@Z DD imagerel $LN3
	DD	imagerel $LN3+383
	DD	imagerel $unwind$?packSnorm3x10_1x2@glm@@YAIAEBU?$tvec4@M$0A@@1@@Z
pdata	ENDS
;	COMDAT pdata
pdata	SEGMENT
$pdata$?unpackSnorm3x10_1x2@glm@@YA?AU?$tvec4@M$0A@@1@I@Z DD imagerel $LN3
	DD	imagerel $LN3+316
	DD	imagerel $unwind$?unpackSnorm3x10_1x2@glm@@YA?AU?$tvec4@M$0A@@1@I@Z
pdata	ENDS
;	COMDAT pdata
pdata	SEGMENT
$pdata$?packUnorm3x10_1x2@glm@@YAIAEBU?$tvec4@M$0A@@1@@Z DD imagerel $LN3
	DD	imagerel $LN3+329
	DD	imagerel $unwind$?packUnorm3x10_1x2@glm@@YAIAEBU?$tvec4@M$0A@@1@@Z
pdata	ENDS
;	COMDAT pdata
pdata	SEGMENT
$pdata$?unpackUnorm3x10_1x2@glm@@YA?AU?$tvec4@M$0A@@1@I@Z DD imagerel $LN3
	DD	imagerel $LN3+245
	DD	imagerel $unwind$?unpackUnorm3x10_1x2@glm@@YA?AU?$tvec4@M$0A@@1@I@Z
pdata	ENDS
;	COMDAT pdata
pdata	SEGMENT
$pdata$?packF2x11_1x10@glm@@YAIAEBU?$tvec3@M$0A@@1@@Z DD imagerel $LN3
	DD	imagerel $LN3+105
	DD	imagerel $unwind$?packF2x11_1x10@glm@@YAIAEBU?$tvec3@M$0A@@1@@Z
pdata	ENDS
;	COMDAT pdata
pdata	SEGMENT
$pdata$?unpackF2x11_1x10@glm@@YA?AU?$tvec3@M$0A@@1@I@Z DD imagerel $LN3
	DD	imagerel $LN3+105
	DD	imagerel $unwind$?unpackF2x11_1x10@glm@@YA?AU?$tvec3@M$0A@@1@I@Z
pdata	ENDS
;	COMDAT pdata
pdata	SEGMENT
$pdata$?packF3x9_E1x5@glm@@YAIAEBU?$tvec3@M$0A@@1@@Z DD imagerel $LN5
	DD	imagerel $LN5+726
	DD	imagerel $unwind$?packF3x9_E1x5@glm@@YAIAEBU?$tvec3@M$0A@@1@@Z
pdata	ENDS
;	COMDAT pdata
pdata	SEGMENT
$pdata$?unpackF3x9_E1x5@glm@@YA?AU?$tvec3@M$0A@@1@I@Z DD imagerel $LN3
	DD	imagerel $LN3+204
	DD	imagerel $unwind$?unpackF3x9_E1x5@glm@@YA?AU?$tvec3@M$0A@@1@I@Z
pdata	ENDS
;	COMDAT pdata
pdata	SEGMENT
$pdata$?packUnorm2x4@glm@@YAEAEBU?$tvec2@M$0A@@1@@Z DD imagerel $LN3
	DD	imagerel $LN3+191
	DD	imagerel $unwind$?packUnorm2x4@glm@@YAEAEBU?$tvec2@M$0A@@1@@Z
pdata	ENDS
;	COMDAT pdata
pdata	SEGMENT
$pdata$?unpackUnorm2x4@glm@@YA?AU?$tvec2@M$0A@@1@E@Z DD imagerel $LN3
	DD	imagerel $LN3+144
	DD	imagerel $unwind$?unpackUnorm2x4@glm@@YA?AU?$tvec2@M$0A@@1@E@Z
pdata	ENDS
;	COMDAT pdata
pdata	SEGMENT
$pdata$?packUnorm4x4@glm@@YAGAEBU?$tvec4@M$0A@@1@@Z DD imagerel $LN3
	DD	imagerel $LN3+256
	DD	imagerel $unwind$?packUnorm4x4@glm@@YAGAEBU?$tvec4@M$0A@@1@@Z
pdata	ENDS
;	COMDAT pdata
pdata	SEGMENT
$pdata$?unpackUnorm4x4@glm@@YA?AU?$tvec4@M$0A@@1@G@Z DD imagerel $LN3
	DD	imagerel $LN3+196
	DD	imagerel $unwind$?unpackUnorm4x4@glm@@YA?AU?$tvec4@M$0A@@1@G@Z
pdata	ENDS
;	COMDAT pdata
pdata	SEGMENT
$pdata$?packUnorm1x5_1x6_1x5@glm@@YAGAEBU?$tvec3@M$0A@@1@@Z DD imagerel $LN3
	DD	imagerel $LN3+273
	DD	imagerel $unwind$?packUnorm1x5_1x6_1x5@glm@@YAGAEBU?$tvec3@M$0A@@1@@Z
pdata	ENDS
;	COMDAT pdata
pdata	SEGMENT
$pdata$?unpackUnorm1x5_1x6_1x5@glm@@YA?AU?$tvec3@M$0A@@1@G@Z DD imagerel $LN3
	DD	imagerel $LN3+186
	DD	imagerel $unwind$?unpackUnorm1x5_1x6_1x5@glm@@YA?AU?$tvec3@M$0A@@1@G@Z
pdata	ENDS
;	COMDAT pdata
pdata	SEGMENT
$pdata$?packUnorm3x5_1x1@glm@@YAGAEBU?$tvec4@M$0A@@1@@Z DD imagerel $LN3
	DD	imagerel $LN3+319
	DD	imagerel $unwind$?packUnorm3x5_1x1@glm@@YAGAEBU?$tvec4@M$0A@@1@@Z
pdata	ENDS
;	COMDAT pdata
pdata	SEGMENT
$pdata$?unpackUnorm3x5_1x1@glm@@YA?AU?$tvec4@M$0A@@1@G@Z DD imagerel $LN3
	DD	imagerel $LN3+239
	DD	imagerel $unwind$?unpackUnorm3x5_1x1@glm@@YA?AU?$tvec4@M$0A@@1@G@Z
pdata	ENDS
;	COMDAT pdata
pdata	SEGMENT
$pdata$?packUnorm2x3_1x2@glm@@YAEAEBU?$tvec3@M$0A@@1@@Z DD imagerel $LN3
	DD	imagerel $LN3+270
	DD	imagerel $unwind$?packUnorm2x3_1x2@glm@@YAEAEBU?$tvec3@M$0A@@1@@Z
pdata	ENDS
;	COMDAT pdata
pdata	SEGMENT
$pdata$?unpackUnorm2x3_1x2@glm@@YA?AU?$tvec3@M$0A@@1@E@Z DD imagerel $LN3
	DD	imagerel $LN3+184
	DD	imagerel $unwind$?unpackUnorm2x3_1x2@glm@@YA?AU?$tvec3@M$0A@@1@E@Z
pdata	ENDS
;	COMDAT pdata
pdata	SEGMENT
$pdata$?float2packed11@detail@glm@@YAII@Z DD imagerel $LN3
	DD	imagerel $LN3+41
	DD	imagerel $unwind$?float2packed11@detail@glm@@YAII@Z
pdata	ENDS
;	COMDAT pdata
pdata	SEGMENT
$pdata$?packed11ToFloat@detail@glm@@YAII@Z DD imagerel $LN3
	DD	imagerel $LN3+41
	DD	imagerel $unwind$?packed11ToFloat@detail@glm@@YAII@Z
pdata	ENDS
;	COMDAT pdata
pdata	SEGMENT
$pdata$?float2packed10@detail@glm@@YAII@Z DD imagerel $LN3
	DD	imagerel $LN3+41
	DD	imagerel $unwind$?float2packed10@detail@glm@@YAII@Z
pdata	ENDS
;	COMDAT pdata
pdata	SEGMENT
$pdata$?packed10ToFloat@detail@glm@@YAII@Z DD imagerel $LN3
	DD	imagerel $LN3+41
	DD	imagerel $unwind$?packed10ToFloat@detail@glm@@YAII@Z
pdata	ENDS
;	COMDAT pdata
pdata	SEGMENT
$pdata$?floatTo11bit@detail@glm@@YAIM@Z DD imagerel $LN8
	DD	imagerel $LN8+168
	DD	imagerel $unwind$?floatTo11bit@detail@glm@@YAIM@Z
pdata	ENDS
;	COMDAT pdata
pdata	SEGMENT
$pdata$??$isnan@M@@YA_NM@Z DD imagerel $LN5
	DD	imagerel $LN5+56
	DD	imagerel $unwind$??$isnan@M@@YA_NM@Z
pdata	ENDS
;	COMDAT pdata
pdata	SEGMENT
$pdata$??$isinf@M@@YA_NM@Z DD imagerel $LN5
	DD	imagerel $LN5+56
	DD	imagerel $unwind$??$isinf@M@@YA_NM@Z
pdata	ENDS
;	COMDAT pdata
pdata	SEGMENT
$pdata$?packed11bitToFloat@detail@glm@@YAMI@Z DD imagerel $LN8
	DD	imagerel $LN8+183
	DD	imagerel $unwind$?packed11bitToFloat@detail@glm@@YAMI@Z
pdata	ENDS
;	COMDAT pdata
pdata	SEGMENT
$pdata$?floatTo10bit@detail@glm@@YAIM@Z DD imagerel $LN8
	DD	imagerel $LN8+168
	DD	imagerel $unwind$?floatTo10bit@detail@glm@@YAIM@Z
pdata	ENDS
;	COMDAT pdata
pdata	SEGMENT
$pdata$?packed10bitToFloat@detail@glm@@YAMI@Z DD imagerel $LN8
	DD	imagerel $LN8+183
	DD	imagerel $unwind$?packed10bitToFloat@detail@glm@@YAMI@Z
pdata	ENDS
;	COMDAT pdata
pdata	SEGMENT
$pdata$??$clamp@M@glm@@YAMMMM@Z DD imagerel $LN3
	DD	imagerel $LN3+57
	DD	imagerel $unwind$??$clamp@M@glm@@YAMMMM@Z
pdata	ENDS
;	COMDAT pdata
pdata	SEGMENT
$pdata$??0?$tvec2@E$0A@@glm@@QEAA@W4ctor@1@@Z DD imagerel $LN3
	DD	imagerel $LN3+17
	DD	imagerel $unwind$??0?$tvec2@E$0A@@glm@@QEAA@W4ctor@1@@Z
pdata	ENDS
;	COMDAT pdata
pdata	SEGMENT
$pdata$??$?0M$0A@@?$tvec2@E$0A@@glm@@QEAA@AEBU?$tvec2@M$0A@@1@@Z DD imagerel $LN3
	DD	imagerel $LN3+52
	DD	imagerel $unwind$??$?0M$0A@@?$tvec2@E$0A@@glm@@QEAA@AEBU?$tvec2@M$0A@@1@@Z
pdata	ENDS
;	COMDAT pdata
pdata	SEGMENT
$pdata$??$?0E$0A@@?$tvec2@M$0A@@glm@@QEAA@AEBU?$tvec2@E$0A@@1@@Z DD imagerel $LN3
	DD	imagerel $LN3+62
	DD	imagerel $unwind$??$?0E$0A@@?$tvec2@M$0A@@glm@@QEAA@AEBU?$tvec2@E$0A@@1@@Z
pdata	ENDS
;	COMDAT pdata
pdata	SEGMENT
$pdata$??0?$tvec2@C$0A@@glm@@QEAA@W4ctor@1@@Z DD imagerel $LN3
	DD	imagerel $LN3+17
	DD	imagerel $unwind$??0?$tvec2@C$0A@@glm@@QEAA@W4ctor@1@@Z
pdata	ENDS
;	COMDAT pdata
pdata	SEGMENT
$pdata$??$?0M$0A@@?$tvec2@C$0A@@glm@@QEAA@AEBU?$tvec2@M$0A@@1@@Z DD imagerel $LN3
	DD	imagerel $LN3+52
	DD	imagerel $unwind$??$?0M$0A@@?$tvec2@C$0A@@glm@@QEAA@AEBU?$tvec2@M$0A@@1@@Z
pdata	ENDS
;	COMDAT pdata
pdata	SEGMENT
$pdata$??$?0C$0A@@?$tvec2@M$0A@@glm@@QEAA@AEBU?$tvec2@C$0A@@1@@Z DD imagerel $LN3
	DD	imagerel $LN3+62
	DD	imagerel $unwind$??$?0C$0A@@?$tvec2@M$0A@@glm@@QEAA@AEBU?$tvec2@C$0A@@1@@Z
pdata	ENDS
;	COMDAT pdata
pdata	SEGMENT
$pdata$??0?$tvec4@G$0A@@glm@@QEAA@W4ctor@1@@Z DD imagerel $LN3
	DD	imagerel $LN3+17
	DD	imagerel $unwind$??0?$tvec4@G$0A@@glm@@QEAA@W4ctor@1@@Z
pdata	ENDS
;	COMDAT pdata
pdata	SEGMENT
$pdata$??$?0M$0A@@?$tvec4@G$0A@@glm@@QEAA@AEBU?$tvec4@M$0A@@1@@Z DD imagerel $LN3
	DD	imagerel $LN3+92
	DD	imagerel $unwind$??$?0M$0A@@?$tvec4@G$0A@@glm@@QEAA@AEBU?$tvec4@M$0A@@1@@Z
pdata	ENDS
;	COMDAT pdata
pdata	SEGMENT
$pdata$??$?0G$0A@@?$tvec4@M$0A@@glm@@QEAA@AEBU?$tvec4@G$0A@@1@@Z DD imagerel $LN3
	DD	imagerel $LN3+108
	DD	imagerel $unwind$??$?0G$0A@@?$tvec4@M$0A@@glm@@QEAA@AEBU?$tvec4@G$0A@@1@@Z
pdata	ENDS
;	COMDAT pdata
pdata	SEGMENT
$pdata$??0?$tvec4@F$0A@@glm@@QEAA@W4ctor@1@@Z DD imagerel $LN3
	DD	imagerel $LN3+17
	DD	imagerel $unwind$??0?$tvec4@F$0A@@glm@@QEAA@W4ctor@1@@Z
pdata	ENDS
;	COMDAT pdata
pdata	SEGMENT
$pdata$??0?$tvec4@F$0A@@glm@@QEAA@FFFF@Z DD imagerel $LN3
	DD	imagerel $LN3+85
	DD	imagerel $unwind$??0?$tvec4@F$0A@@glm@@QEAA@FFFF@Z
pdata	ENDS
;	COMDAT pdata
pdata	SEGMENT
$pdata$??$?0M$0A@@?$tvec4@F$0A@@glm@@QEAA@AEBU?$tvec4@M$0A@@1@@Z DD imagerel $LN3
	DD	imagerel $LN3+92
	DD	imagerel $unwind$??$?0M$0A@@?$tvec4@F$0A@@glm@@QEAA@AEBU?$tvec4@M$0A@@1@@Z
pdata	ENDS
;	COMDAT pdata
pdata	SEGMENT
$pdata$??$?0F$0A@@?$tvec4@M$0A@@glm@@QEAA@AEBU?$tvec4@F$0A@@1@@Z DD imagerel $LN3
	DD	imagerel $LN3+108
	DD	imagerel $unwind$??$?0F$0A@@?$tvec4@M$0A@@glm@@QEAA@AEBU?$tvec4@F$0A@@1@@Z
pdata	ENDS
;	COMDAT pdata
pdata	SEGMENT
$pdata$?length@?$tvec4@H$0A@@glm@@SAHXZ DD imagerel $LN3
	DD	imagerel $LN3+9
	DD	imagerel $unwind$?length@?$tvec4@H$0A@@glm@@SAHXZ
pdata	ENDS
;	COMDAT pdata
pdata	SEGMENT
$pdata$??A?$tvec4@H$0A@@glm@@QEBAAEBHH@Z DD imagerel $LN5
	DD	imagerel $LN5+80
	DD	imagerel $unwind$??A?$tvec4@H$0A@@glm@@QEBAAEBHH@Z
pdata	ENDS
;	COMDAT pdata
pdata	SEGMENT
$pdata$??0?$tvec4@H$0A@@glm@@QEAA@H@Z DD imagerel $LN3
	DD	imagerel $LN3+64
	DD	imagerel $unwind$??0?$tvec4@H$0A@@glm@@QEAA@H@Z
pdata	ENDS
;	COMDAT pdata
pdata	SEGMENT
$pdata$??0?$tvec4@H$0A@@glm@@QEAA@HHHH@Z DD imagerel $LN3
	DD	imagerel $LN3+74
	DD	imagerel $unwind$??0?$tvec4@H$0A@@glm@@QEAA@HHHH@Z
pdata	ENDS
;	COMDAT pdata
pdata	SEGMENT
$pdata$?length@?$tvec4@I$0A@@glm@@SAHXZ DD imagerel $LN3
	DD	imagerel $LN3+9
	DD	imagerel $unwind$?length@?$tvec4@I$0A@@glm@@SAHXZ
pdata	ENDS
;	COMDAT pdata
pdata	SEGMENT
$pdata$??A?$tvec4@I$0A@@glm@@QEBAAEBIH@Z DD imagerel $LN5
	DD	imagerel $LN5+80
	DD	imagerel $unwind$??A?$tvec4@I$0A@@glm@@QEBAAEBIH@Z
pdata	ENDS
;	COMDAT pdata
pdata	SEGMENT
$pdata$??0?$tvec4@I$0A@@glm@@QEAA@I@Z DD imagerel $LN3
	DD	imagerel $LN3+64
	DD	imagerel $unwind$??0?$tvec4@I$0A@@glm@@QEAA@I@Z
pdata	ENDS
;	COMDAT pdata
pdata	SEGMENT
$pdata$??0?$tvec4@I$0A@@glm@@QEAA@IIII@Z DD imagerel $LN3
	DD	imagerel $LN3+74
	DD	imagerel $unwind$??0?$tvec4@I$0A@@glm@@QEAA@IIII@Z
pdata	ENDS
;	COMDAT pdata
pdata	SEGMENT
$pdata$??$?DM$0A@@glm@@YA?AU?$tvec4@M$0A@@0@AEBU10@0@Z DD imagerel $LN3
	DD	imagerel $LN3+83
	DD	imagerel $unwind$??$?DM$0A@@glm@@YA?AU?$tvec4@M$0A@@0@AEBU10@0@Z
pdata	ENDS
;	COMDAT pdata
pdata	SEGMENT
$pdata$??$?0M$0A@@?$tvec4@I$0A@@glm@@QEAA@AEBU?$tvec4@M$0A@@1@@Z DD imagerel $LN3
	DD	imagerel $LN3+92
	DD	imagerel $unwind$??$?0M$0A@@?$tvec4@I$0A@@glm@@QEAA@AEBU?$tvec4@M$0A@@1@@Z
pdata	ENDS
;	COMDAT pdata
pdata	SEGMENT
$pdata$??$?0IIII@?$tvec4@M$0A@@glm@@QEAA@IIII@Z DD imagerel $LN3
	DD	imagerel $LN3+102
	DD	imagerel $unwind$??$?0IIII@?$tvec4@M$0A@@glm@@QEAA@IIII@Z
pdata	ENDS
;	COMDAT pdata
pdata	SEGMENT
$pdata$?length@?$tvec3@M$0A@@glm@@SAHXZ DD imagerel $LN3
	DD	imagerel $LN3+9
	DD	imagerel $unwind$?length@?$tvec3@M$0A@@glm@@SAHXZ
pdata	ENDS
;	COMDAT pdata
pdata	SEGMENT
$pdata$??A?$tvec3@M$0A@@glm@@QEBAAEBMH@Z DD imagerel $LN5
	DD	imagerel $LN5+80
	DD	imagerel $unwind$??A?$tvec3@M$0A@@glm@@QEBAAEBMH@Z
pdata	ENDS
;	COMDAT pdata
pdata	SEGMENT
$pdata$??0?$tvec3@M$0A@@glm@@QEAA@M@Z DD imagerel $LN3
	DD	imagerel $LN3+66
	DD	imagerel $unwind$??0?$tvec3@M$0A@@glm@@QEAA@M@Z
pdata	ENDS
;	COMDAT pdata
pdata	SEGMENT
$pdata$??0?$tvec3@M$0A@@glm@@QEAA@MMM@Z DD imagerel $LN3
	DD	imagerel $LN3+78
	DD	imagerel $unwind$??0?$tvec3@M$0A@@glm@@QEAA@MMM@Z
pdata	ENDS
;	COMDAT pdata
pdata	SEGMENT
$pdata$??$clamp@M$0A@Utvec3@glm@@@glm@@YA?AU?$tvec3@M$0A@@0@AEBU10@MM@Z DD imagerel $LN3
	DD	imagerel $LN3+101
	DD	imagerel $unwind$??$clamp@M$0A@Utvec3@glm@@@glm@@YA?AU?$tvec3@M$0A@@0@AEBU10@MM@Z
pdata	ENDS
;	COMDAT pdata
pdata	SEGMENT
$pdata$??$max@M@glm@@YAMMM@Z DD imagerel $LN5
	DD	imagerel $LN5+68
	DD	imagerel $unwind$??$max@M@glm@@YAMMM@Z
pdata	ENDS
;	COMDAT pdata
pdata	SEGMENT
$pdata$??$log2@M@glm@@YAMM@Z DD imagerel $LN3
	DD	imagerel $LN3+50
	DD	imagerel $unwind$??$log2@M@glm@@YAMM@Z
pdata	ENDS
;	COMDAT pdata
pdata	SEGMENT
$pdata$??$?KM$0A@@glm@@YA?AU?$tvec3@M$0A@@0@AEBU10@M@Z DD imagerel $LN3
	DD	imagerel $LN3+110
	DD	imagerel $unwind$??$?KM$0A@@glm@@YA?AU?$tvec3@M$0A@@0@AEBU10@M@Z
pdata	ENDS
;	COMDAT pdata
pdata	SEGMENT
$pdata$??$?HM$0A@@glm@@YA?AU?$tvec3@M$0A@@0@AEBU10@M@Z DD imagerel $LN3
	DD	imagerel $LN3+110
	DD	imagerel $unwind$??$?HM$0A@@glm@@YA?AU?$tvec3@M$0A@@0@AEBU10@M@Z
pdata	ENDS
;	COMDAT pdata
pdata	SEGMENT
$pdata$??$floor@M$0A@Utvec3@glm@@@glm@@YA?AU?$tvec3@M$0A@@0@AEBU10@@Z DD imagerel $LN3
	DD	imagerel $LN3+41
	DD	imagerel $unwind$??$floor@M$0A@Utvec3@glm@@@glm@@YA?AU?$tvec3@M$0A@@0@AEBU10@@Z
pdata	ENDS
;	COMDAT pdata
pdata	SEGMENT
$pdata$??$?0M$0A@@?$tvec3@I$0A@@glm@@QEAA@AEBU?$tvec3@M$0A@@1@@Z DD imagerel $LN3
	DD	imagerel $LN3+73
	DD	imagerel $unwind$??$?0M$0A@@?$tvec3@I$0A@@glm@@QEAA@AEBU?$tvec3@M$0A@@1@@Z
pdata	ENDS
;	COMDAT pdata
pdata	SEGMENT
$pdata$??$?0III@?$tvec3@M$0A@@glm@@QEAA@III@Z DD imagerel $LN3
	DD	imagerel $LN3+83
	DD	imagerel $unwind$??$?0III@?$tvec3@M$0A@@glm@@QEAA@III@Z
pdata	ENDS
;	COMDAT pdata
pdata	SEGMENT
$pdata$??$?DM$0A@@glm@@YA?AU?$tvec3@M$0A@@0@AEBU10@M@Z DD imagerel $LN3
	DD	imagerel $LN3+110
	DD	imagerel $unwind$??$?DM$0A@@glm@@YA?AU?$tvec3@M$0A@@0@AEBU10@M@Z
pdata	ENDS
;	COMDAT pdata
pdata	SEGMENT
$pdata$??$?0M$0A@@?$tvec2@I$0A@@glm@@QEAA@AEBU?$tvec2@M$0A@@1@@Z DD imagerel $LN3
	DD	imagerel $LN3+54
	DD	imagerel $unwind$??$?0M$0A@@?$tvec2@I$0A@@glm@@QEAA@AEBU?$tvec2@M$0A@@1@@Z
pdata	ENDS
;	COMDAT pdata
pdata	SEGMENT
$pdata$??$?0II@?$tvec2@M$0A@@glm@@QEAA@II@Z DD imagerel $LN3
	DD	imagerel $LN3+59
	DD	imagerel $unwind$??$?0II@?$tvec2@M$0A@@glm@@QEAA@II@Z
pdata	ENDS
;	COMDAT pdata
pdata	SEGMENT
$pdata$??$?DM$0A@@glm@@YA?AU?$tvec3@M$0A@@0@AEBU10@0@Z DD imagerel $LN3
	DD	imagerel $LN3+120
	DD	imagerel $unwind$??$?DM$0A@@glm@@YA?AU?$tvec3@M$0A@@0@AEBU10@0@Z
pdata	ENDS
;	COMDAT pdata
pdata	SEGMENT
$pdata$??$round@M$0A@Utvec3@glm@@@glm@@YA?AU?$tvec3@M$0A@@0@AEBU10@@Z DD imagerel $LN3
	DD	imagerel $LN3+41
	DD	imagerel $unwind$??$round@M$0A@Utvec3@glm@@@glm@@YA?AU?$tvec3@M$0A@@0@AEBU10@@Z
pdata	ENDS
;	COMDAT pdata
pdata	SEGMENT
$pdata$??$abs@M@glm@@YAMM@Z DD imagerel $LN3
	DD	imagerel $LN3+28
	DD	imagerel $unwind$??$abs@M@glm@@YAMM@Z
pdata	ENDS
;	COMDAT pdata
pdata	SEGMENT
$pdata$??0exception@std@@QEAA@QEBDH@Z DD imagerel $LN3
	DD	imagerel $LN3+73
	DD	imagerel $unwind$??0exception@std@@QEAA@QEBDH@Z
pdata	ENDS
;	COMDAT pdata
pdata	SEGMENT
$pdata$??0exception@std@@QEAA@AEBV01@@Z DD imagerel $LN3
	DD	imagerel $LN3+88
	DD	imagerel $unwind$??0exception@std@@QEAA@AEBV01@@Z
pdata	ENDS
;	COMDAT pdata
pdata	SEGMENT
$pdata$??1exception@std@@UEAA@XZ DD imagerel $LN3
	DD	imagerel $LN3+48
	DD	imagerel $unwind$??1exception@std@@UEAA@XZ
pdata	ENDS
;	COMDAT pdata
pdata	SEGMENT
$pdata$?what@exception@std@@UEBAPEBDXZ DD imagerel $LN5
	DD	imagerel $LN5+58
	DD	imagerel $unwind$?what@exception@std@@UEBAPEBDXZ
pdata	ENDS
;	COMDAT pdata
pdata	SEGMENT
$pdata$??_Gexception@std@@UEAAPEAXI@Z DD imagerel $LN4
	DD	imagerel $LN4+61
	DD	imagerel $unwind$??_Gexception@std@@UEAAPEAXI@Z
pdata	ENDS
;	COMDAT pdata
pdata	SEGMENT
$pdata$??0bad_alloc@std@@AEAA@QEBD@Z DD imagerel $LN3
	DD	imagerel $LN3+62
	DD	imagerel $unwind$??0bad_alloc@std@@AEAA@QEBD@Z
pdata	ENDS
;	COMDAT pdata
pdata	SEGMENT
$pdata$??1bad_alloc@std@@UEAA@XZ DD imagerel $LN3
	DD	imagerel $LN3+26
	DD	imagerel $unwind$??1bad_alloc@std@@UEAA@XZ
pdata	ENDS
;	COMDAT pdata
pdata	SEGMENT
$pdata$??0bad_alloc@std@@QEAA@AEBV01@@Z DD imagerel $LN3
	DD	imagerel $LN3+56
	DD	imagerel $unwind$??0bad_alloc@std@@QEAA@AEBV01@@Z
pdata	ENDS
;	COMDAT pdata
pdata	SEGMENT
$pdata$??_Gbad_alloc@std@@UEAAPEAXI@Z DD imagerel $LN4
	DD	imagerel $LN4+61
	DD	imagerel $unwind$??_Gbad_alloc@std@@UEAAPEAXI@Z
pdata	ENDS
;	COMDAT pdata
pdata	SEGMENT
$pdata$??0bad_array_new_length@std@@QEAA@XZ DD imagerel $LN3
	DD	imagerel $LN3+53
	DD	imagerel $unwind$??0bad_array_new_length@std@@QEAA@XZ
pdata	ENDS
;	COMDAT pdata
pdata	SEGMENT
$pdata$??1bad_array_new_length@std@@UEAA@XZ DD imagerel $LN3
	DD	imagerel $LN3+26
	DD	imagerel $unwind$??1bad_array_new_length@std@@UEAA@XZ
pdata	ENDS
;	COMDAT pdata
pdata	SEGMENT
$pdata$??0bad_array_new_length@std@@QEAA@AEBV01@@Z DD imagerel $LN3
	DD	imagerel $LN3+56
	DD	imagerel $unwind$??0bad_array_new_length@std@@QEAA@AEBV01@@Z
pdata	ENDS
;	COMDAT pdata
pdata	SEGMENT
$pdata$??_Gbad_array_new_length@std@@UEAAPEAXI@Z DD imagerel $LN4
	DD	imagerel $LN4+61
	DD	imagerel $unwind$??_Gbad_array_new_length@std@@UEAAPEAXI@Z
pdata	ENDS
;	COMDAT pdata
pdata	SEGMENT
$pdata$?_Throw_bad_array_new_length@std@@YAXXZ DD imagerel $LN3
	DD	imagerel $LN3+39
	DD	imagerel $unwind$?_Throw_bad_array_new_length@std@@YAXXZ
pdata	ENDS
;	COMDAT pdata
pdata	SEGMENT
$pdata$?_Allocate@_Default_allocate_traits@std@@SAPEAX_K@Z DD imagerel $LN3
	DD	imagerel $LN3+26
	DD	imagerel $unwind$?_Allocate@_Default_allocate_traits@std@@SAPEAX_K@Z
pdata	ENDS
;	COMDAT pdata
pdata	SEGMENT
$pdata$?_Adjust_manually_vector_aligned@std@@YAXAEAPEAXAEA_K@Z DD imagerel $LN21
	DD	imagerel $LN21+404
	DD	imagerel $unwind$?_Adjust_manually_vector_aligned@std@@YAXAEAPEAXAEA_K@Z
pdata	ENDS
;	COMDAT pdata
pdata	SEGMENT
$pdata$??0_Container_proxy@std@@QEAA@PEAU_Container_base12@1@@Z DD imagerel $LN3
	DD	imagerel $LN3+44
	DD	imagerel $unwind$??0_Container_proxy@std@@QEAA@PEAU_Container_base12@1@@Z
pdata	ENDS
;	COMDAT pdata
pdata	SEGMENT
$pdata$??0_Container_base12@std@@QEAA@XZ DD imagerel $LN3
	DD	imagerel $LN3+25
	DD	imagerel $unwind$??0_Container_base12@std@@QEAA@XZ
pdata	ENDS
;	COMDAT pdata
pdata	SEGMENT
$pdata$?_Orphan_all@_Container_base12@std@@QEAAXXZ DD imagerel $LN3
	DD	imagerel $LN3+26
	DD	imagerel $unwind$?_Orphan_all@_Container_base12@std@@QEAAXXZ
pdata	ENDS
;	COMDAT pdata
pdata	SEGMENT
$pdata$?_Orphan_all_unlocked_v3@_Container_base12@std@@AEAAXXZ DD imagerel $LN7
	DD	imagerel $LN7+107
	DD	imagerel $unwind$?_Orphan_all_unlocked_v3@_Container_base12@std@@AEAAXXZ
pdata	ENDS
;	COMDAT pdata
pdata	SEGMENT
$pdata$?_Orphan_all_locked_v3@_Container_base12@std@@AEAAXXZ DD imagerel $LN3
	DD	imagerel $LN3+90
	DD	imagerel $unwind$?_Orphan_all_locked_v3@_Container_base12@std@@AEAAXXZ
pdata	ENDS
pdata	SEGMENT
$pdata$?print_bits@@YAXAEBM@Z DD imagerel $LN10
	DD	imagerel $LN10+214
	DD	imagerel $unwind$?print_bits@@YAXAEBM@Z
$pdata$?print_10bits@@YAXAEBI@Z DD imagerel $LN9
	DD	imagerel $LN9+157
	DD	imagerel $unwind$?print_10bits@@YAXAEBI@Z
$pdata$?print_11bits@@YAXAEBI@Z DD imagerel $LN9
	DD	imagerel $LN9+157
	DD	imagerel $unwind$?print_11bits@@YAXAEBI@Z
$pdata$?print_value@@YAXAEBM@Z DD imagerel $LN3
	DD	imagerel $LN3+79
	DD	imagerel $unwind$?print_value@@YAXAEBM@Z
$pdata$?test_Half1x16@@YAHXZ DD imagerel $LN9
	DD	imagerel $LN9+495
	DD	imagerel $unwind$?test_Half1x16@@YAHXZ
pdata	ENDS
pdata	SEGMENT
$pdata$?dtor$0@?0??test_Half1x16@@YAHXZ@4HA DD imagerel ?dtor$0@?0??test_Half1x16@@YAHXZ@4HA
	DD	imagerel ?dtor$0@?0??test_Half1x16@@YAHXZ@4HA+35
	DD	imagerel $unwind$?dtor$0@?0??test_Half1x16@@YAHXZ@4HA
pdata	ENDS
;	COMDAT pdata
pdata	SEGMENT
$pdata$??0?$allocator@M@std@@QEAA@XZ DD imagerel $LN3
	DD	imagerel $LN3+13
	DD	imagerel $unwind$??0?$allocator@M@std@@QEAA@XZ
pdata	ENDS
;	COMDAT pdata
pdata	SEGMENT
$pdata$?deallocate@?$allocator@M@std@@QEAAXQEAM_K@Z DD imagerel $LN13
	DD	imagerel $LN13+183
	DD	imagerel $unwind$?deallocate@?$allocator@M@std@@QEAAXQEAM_K@Z
pdata	ENDS
;	COMDAT pdata
pdata	SEGMENT
$pdata$?allocate@?$allocator@M@std@@QEAAPEAM_K@Z DD imagerel $LN3
	DD	imagerel $LN3+39
	DD	imagerel $unwind$?allocate@?$allocator@M@std@@QEAAPEAM_K@Z
pdata	ENDS
;	COMDAT pdata
pdata	SEGMENT
$pdata$?max_size@?$_Default_allocator_traits@V?$allocator@M@std@@@std@@SA_KAEBV?$allocator@M@2@@Z DD imagerel $LN3
	DD	imagerel $LN3+18
	DD	imagerel $unwind$?max_size@?$_Default_allocator_traits@V?$allocator@M@std@@@std@@SA_KAEBV?$allocator@M@2@@Z
pdata	ENDS
;	COMDAT pdata
pdata	SEGMENT
$pdata$??0?$vector@MV?$allocator@M@std@@@std@@QEAA@XZ DD imagerel $LN3
	DD	imagerel $LN3+75
	DD	imagerel $unwind$??0?$vector@MV?$allocator@M@std@@@std@@QEAA@XZ
pdata	ENDS
;	COMDAT pdata
pdata	SEGMENT
$pdata$??1?$vector@MV?$allocator@M@std@@@std@@QEAA@XZ DD imagerel $LN3
	DD	imagerel $LN3+136
	DD	imagerel $unwind$??1?$vector@MV?$allocator@M@std@@@std@@QEAA@XZ
pdata	ENDS
;	COMDAT pdata
pdata	SEGMENT
$pdata$?push_back@?$vector@MV?$allocator@M@std@@@std@@QEAAX$$QEAM@Z DD imagerel $LN3
	DD	imagerel $LN3+44
	DD	imagerel $unwind$?push_back@?$vector@MV?$allocator@M@std@@@std@@QEAAX$$QEAM@Z
pdata	ENDS
;	COMDAT pdata
pdata	SEGMENT
$pdata$?size@?$vector@MV?$allocator@M@std@@@std@@QEBA_KXZ DD imagerel $LN3
	DD	imagerel $LN3+48
	DD	imagerel $unwind$?size@?$vector@MV?$allocator@M@std@@@std@@QEBA_KXZ
pdata	ENDS
;	COMDAT pdata
pdata	SEGMENT
$pdata$?max_size@?$vector@MV?$allocator@M@std@@@std@@QEBA_KXZ DD imagerel $LN3
	DD	imagerel $LN3+67
	DD	imagerel $unwind$?max_size@?$vector@MV?$allocator@M@std@@@std@@QEBA_KXZ
pdata	ENDS
;	COMDAT pdata
pdata	SEGMENT
$pdata$?capacity@?$vector@MV?$allocator@M@std@@@std@@QEBA_KXZ DD imagerel $LN3
	DD	imagerel $LN3+48
	DD	imagerel $unwind$?capacity@?$vector@MV?$allocator@M@std@@@std@@QEBA_KXZ
pdata	ENDS
;	COMDAT pdata
pdata	SEGMENT
$pdata$??A?$vector@MV?$allocator@M@std@@@std@@QEAAAEAM_K@Z DD imagerel $LN12
	DD	imagerel $LN12+200
	DD	imagerel $unwind$??A?$vector@MV?$allocator@M@std@@@std@@QEAAAEAM_K@Z
pdata	ENDS
;	COMDAT pdata
pdata	SEGMENT
$pdata$?_Calculate_growth@?$vector@MV?$allocator@M@std@@@std@@AEBA_K_K@Z DD imagerel $LN5
	DD	imagerel $LN5+146
	DD	imagerel $unwind$?_Calculate_growth@?$vector@MV?$allocator@M@std@@@std@@AEBA_K_K@Z
pdata	ENDS
;	COMDAT pdata
pdata	SEGMENT
$pdata$?_Change_array@?$vector@MV?$allocator@M@std@@@std@@AEAAXQEAM_K1@Z DD imagerel $LN4
	DD	imagerel $LN4+246
	DD	imagerel $unwind$?_Change_array@?$vector@MV?$allocator@M@std@@@std@@AEAAXQEAM_K1@Z
pdata	ENDS
;	COMDAT pdata
pdata	SEGMENT
$pdata$?_Tidy@?$vector@MV?$allocator@M@std@@@std@@AEAAXXZ DD imagerel $LN4
	DD	imagerel $LN4+210
	DD	imagerel $unwind$?_Tidy@?$vector@MV?$allocator@M@std@@@std@@AEAAXXZ
pdata	ENDS
;	COMDAT pdata
pdata	SEGMENT
$pdata$?_Xlength@?$vector@MV?$allocator@M@std@@@std@@CAXXZ DD imagerel $LN3
	DD	imagerel $LN3+24
	DD	imagerel $unwind$?_Xlength@?$vector@MV?$allocator@M@std@@@std@@CAXXZ
pdata	ENDS
;	COMDAT pdata
pdata	SEGMENT
$pdata$?_Orphan_range_unlocked@?$vector@MV?$allocator@M@std@@@std@@AEBAXPEAM0@Z DD imagerel $LN8
	DD	imagerel $LN8+161
	DD	imagerel $unwind$?_Orphan_range_unlocked@?$vector@MV?$allocator@M@std@@@std@@AEBAXPEAM0@Z
pdata	ENDS
;	COMDAT pdata
pdata	SEGMENT
$pdata$?_Orphan_range_locked@?$vector@MV?$allocator@M@std@@@std@@AEBAXPEAM0@Z DD imagerel $LN4
	DD	imagerel $LN4+112
	DD	imagerel $unwind$?_Orphan_range_locked@?$vector@MV?$allocator@M@std@@@std@@AEBAXPEAM0@Z
pdata	ENDS
;	COMDAT pdata
pdata	SEGMENT
$pdata$?dtor$0@?0??_Orphan_range_locked@?$vector@MV?$allocator@M@std@@@std@@AEBAXPEAM0@Z@4HA DD imagerel ?dtor$0@?0??_Orphan_range_locked@?$vector@MV?$allocator@M@std@@@std@@AEBAXPEAM0@Z@4HA
	DD	imagerel ?dtor$0@?0??_Orphan_range_locked@?$vector@MV?$allocator@M@std@@@std@@AEBAXPEAM0@Z@4HA+36
	DD	imagerel $unwind$?dtor$0@?0??_Orphan_range_locked@?$vector@MV?$allocator@M@std@@@std@@AEBAXPEAM0@Z@4HA
pdata	ENDS
;	COMDAT pdata
pdata	SEGMENT
$pdata$?_Orphan_range@?$vector@MV?$allocator@M@std@@@std@@AEBAXPEAM0@Z DD imagerel $LN3
	DD	imagerel $LN3+46
	DD	imagerel $unwind$?_Orphan_range@?$vector@MV?$allocator@M@std@@@std@@AEBAXPEAM0@Z
pdata	ENDS
;	COMDAT pdata
pdata	SEGMENT
$pdata$?_Getal@?$vector@MV?$allocator@M@std@@@std@@AEAAAEAV?$allocator@M@2@XZ DD imagerel $LN3
	DD	imagerel $LN3+29
	DD	imagerel $unwind$?_Getal@?$vector@MV?$allocator@M@std@@@std@@AEAAAEAV?$allocator@M@2@XZ
pdata	ENDS
;	COMDAT pdata
pdata	SEGMENT
$pdata$?_Getal@?$vector@MV?$allocator@M@std@@@std@@AEBAAEBV?$allocator@M@2@XZ DD imagerel $LN3
	DD	imagerel $LN3+29
	DD	imagerel $unwind$?_Getal@?$vector@MV?$allocator@M@std@@@std@@AEBAAEBV?$allocator@M@2@XZ
pdata	ENDS
;	COMDAT pdata
pdata	SEGMENT
$pdata$??0?$_Vector_val@U?$_Simple_types@M@std@@@std@@QEAA@XZ DD imagerel $LN3
	DD	imagerel $LN3+70
	DD	imagerel $unwind$??0?$_Vector_val@U?$_Simple_types@M@std@@@std@@QEAA@XZ
pdata	ENDS
;	COMDAT pdata
pdata	SEGMENT
$pdata$?_Get_first@?$_Compressed_pair@V?$allocator@M@std@@V?$_Vector_val@U?$_Simple_types@M@std@@@2@$00@std@@QEAAAEAV?$allocator@M@2@XZ DD imagerel $LN3
	DD	imagerel $LN3+13
	DD	imagerel $unwind$?_Get_first@?$_Compressed_pair@V?$allocator@M@std@@V?$_Vector_val@U?$_Simple_types@M@std@@@2@$00@std@@QEAAAEAV?$allocator@M@2@XZ
pdata	ENDS
;	COMDAT pdata
pdata	SEGMENT
$pdata$?_Get_first@?$_Compressed_pair@V?$allocator@M@std@@V?$_Vector_val@U?$_Simple_types@M@std@@@2@$00@std@@QEBAAEBV?$allocator@M@2@XZ DD imagerel $LN3
	DD	imagerel $LN3+13
	DD	imagerel $unwind$?_Get_first@?$_Compressed_pair@V?$allocator@M@std@@V?$_Vector_val@U?$_Simple_types@M@std@@@2@$00@std@@QEBAAEBV?$allocator@M@2@XZ
pdata	ENDS
pdata	SEGMENT
$pdata$?test_Half4x16@@YAHXZ DD imagerel $LN11
	DD	imagerel $LN11+654
	DD	imagerel $unwind$?test_Half4x16@@YAHXZ
pdata	ENDS
pdata	SEGMENT
$pdata$?dtor$0@?0??test_Half4x16@@YAHXZ@4HA DD imagerel ?dtor$0@?0??test_Half4x16@@YAHXZ@4HA
	DD	imagerel ?dtor$0@?0??test_Half4x16@@YAHXZ@4HA+35
	DD	imagerel $unwind$?dtor$0@?0??test_Half4x16@@YAHXZ@4HA
pdata	ENDS
;	COMDAT pdata
pdata	SEGMENT
$pdata$??0?$allocator@U?$tvec4@M$0A@@glm@@@std@@QEAA@XZ DD imagerel $LN3
	DD	imagerel $LN3+13
	DD	imagerel $unwind$??0?$allocator@U?$tvec4@M$0A@@glm@@@std@@QEAA@XZ
pdata	ENDS
;	COMDAT pdata
pdata	SEGMENT
$pdata$?deallocate@?$allocator@U?$tvec4@M$0A@@glm@@@std@@QEAAXQEAU?$tvec4@M$0A@@glm@@_K@Z DD imagerel $LN13
	DD	imagerel $LN13+180
	DD	imagerel $unwind$?deallocate@?$allocator@U?$tvec4@M$0A@@glm@@@std@@QEAAXQEAU?$tvec4@M$0A@@glm@@_K@Z
pdata	ENDS
;	COMDAT pdata
pdata	SEGMENT
$pdata$?allocate@?$allocator@U?$tvec4@M$0A@@glm@@@std@@QEAAPEAU?$tvec4@M$0A@@glm@@_K@Z DD imagerel $LN3
	DD	imagerel $LN3+39
	DD	imagerel $unwind$?allocate@?$allocator@U?$tvec4@M$0A@@glm@@@std@@QEAAPEAU?$tvec4@M$0A@@glm@@_K@Z
pdata	ENDS
;	COMDAT pdata
pdata	SEGMENT
$pdata$?max_size@?$_Default_allocator_traits@V?$allocator@U?$tvec4@M$0A@@glm@@@std@@@std@@SA_KAEBV?$allocator@U?$tvec4@M$0A@@glm@@@2@@Z DD imagerel $LN3
	DD	imagerel $LN3+18
	DD	imagerel $unwind$?max_size@?$_Default_allocator_traits@V?$allocator@U?$tvec4@M$0A@@glm@@@std@@@std@@SA_KAEBV?$allocator@U?$tvec4@M$0A@@glm@@@2@@Z
pdata	ENDS
;	COMDAT pdata
pdata	SEGMENT
$pdata$??0?$vector@U?$tvec4@M$0A@@glm@@V?$allocator@U?$tvec4@M$0A@@glm@@@std@@@std@@QEAA@XZ DD imagerel $LN3
	DD	imagerel $LN3+75
	DD	imagerel $unwind$??0?$vector@U?$tvec4@M$0A@@glm@@V?$allocator@U?$tvec4@M$0A@@glm@@@std@@@std@@QEAA@XZ
pdata	ENDS
;	COMDAT pdata
pdata	SEGMENT
$pdata$??1?$vector@U?$tvec4@M$0A@@glm@@V?$allocator@U?$tvec4@M$0A@@glm@@@std@@@std@@QEAA@XZ DD imagerel $LN3
	DD	imagerel $LN3+136
	DD	imagerel $unwind$??1?$vector@U?$tvec4@M$0A@@glm@@V?$allocator@U?$tvec4@M$0A@@glm@@@std@@@std@@QEAA@XZ
pdata	ENDS
;	COMDAT pdata
pdata	SEGMENT
$pdata$?push_back@?$vector@U?$tvec4@M$0A@@glm@@V?$allocator@U?$tvec4@M$0A@@glm@@@std@@@std@@QEAAX$$QEAU?$tvec4@M$0A@@glm@@@Z DD imagerel $LN3
	DD	imagerel $LN3+44
	DD	imagerel $unwind$?push_back@?$vector@U?$tvec4@M$0A@@glm@@V?$allocator@U?$tvec4@M$0A@@glm@@@std@@@std@@QEAAX$$QEAU?$tvec4@M$0A@@glm@@@Z
pdata	ENDS
;	COMDAT pdata
pdata	SEGMENT
$pdata$?size@?$vector@U?$tvec4@M$0A@@glm@@V?$allocator@U?$tvec4@M$0A@@glm@@@std@@@std@@QEBA_KXZ DD imagerel $LN3
	DD	imagerel $LN3+48
	DD	imagerel $unwind$?size@?$vector@U?$tvec4@M$0A@@glm@@V?$allocator@U?$tvec4@M$0A@@glm@@@std@@@std@@QEBA_KXZ
pdata	ENDS
;	COMDAT pdata
pdata	SEGMENT
$pdata$?max_size@?$vector@U?$tvec4@M$0A@@glm@@V?$allocator@U?$tvec4@M$0A@@glm@@@std@@@std@@QEBA_KXZ DD imagerel $LN3
	DD	imagerel $LN3+67
	DD	imagerel $unwind$?max_size@?$vector@U?$tvec4@M$0A@@glm@@V?$allocator@U?$tvec4@M$0A@@glm@@@std@@@std@@QEBA_KXZ
pdata	ENDS
;	COMDAT pdata
pdata	SEGMENT
$pdata$?capacity@?$vector@U?$tvec4@M$0A@@glm@@V?$allocator@U?$tvec4@M$0A@@glm@@@std@@@std@@QEBA_KXZ DD imagerel $LN3
	DD	imagerel $LN3+48
	DD	imagerel $unwind$?capacity@?$vector@U?$tvec4@M$0A@@glm@@V?$allocator@U?$tvec4@M$0A@@glm@@@std@@@std@@QEBA_KXZ
pdata	ENDS
;	COMDAT pdata
pdata	SEGMENT
$pdata$??A?$vector@U?$tvec4@M$0A@@glm@@V?$allocator@U?$tvec4@M$0A@@glm@@@std@@@std@@QEAAAEAU?$tvec4@M$0A@@glm@@_K@Z DD imagerel $LN12
	DD	imagerel $LN12+197
	DD	imagerel $unwind$??A?$vector@U?$tvec4@M$0A@@glm@@V?$allocator@U?$tvec4@M$0A@@glm@@@std@@@std@@QEAAAEAU?$tvec4@M$0A@@glm@@_K@Z
pdata	ENDS
;	COMDAT pdata
pdata	SEGMENT
$pdata$?_Calculate_growth@?$vector@U?$tvec4@M$0A@@glm@@V?$allocator@U?$tvec4@M$0A@@glm@@@std@@@std@@AEBA_K_K@Z DD imagerel $LN5
	DD	imagerel $LN5+146
	DD	imagerel $unwind$?_Calculate_growth@?$vector@U?$tvec4@M$0A@@glm@@V?$allocator@U?$tvec4@M$0A@@glm@@@std@@@std@@AEBA_K_K@Z
pdata	ENDS
;	COMDAT pdata
pdata	SEGMENT
$pdata$?_Change_array@?$vector@U?$tvec4@M$0A@@glm@@V?$allocator@U?$tvec4@M$0A@@glm@@@std@@@std@@AEAAXQEAU?$tvec4@M$0A@@glm@@_K1@Z DD imagerel $LN4
	DD	imagerel $LN4+252
	DD	imagerel $unwind$?_Change_array@?$vector@U?$tvec4@M$0A@@glm@@V?$allocator@U?$tvec4@M$0A@@glm@@@std@@@std@@AEAAXQEAU?$tvec4@M$0A@@glm@@_K1@Z
pdata	ENDS
;	COMDAT pdata
pdata	SEGMENT
$pdata$?_Tidy@?$vector@U?$tvec4@M$0A@@glm@@V?$allocator@U?$tvec4@M$0A@@glm@@@std@@@std@@AEAAXXZ DD imagerel $LN4
	DD	imagerel $LN4+210
	DD	imagerel $unwind$?_Tidy@?$vector@U?$tvec4@M$0A@@glm@@V?$allocator@U?$tvec4@M$0A@@glm@@@std@@@std@@AEAAXXZ
pdata	ENDS
;	COMDAT pdata
pdata	SEGMENT
$pdata$?_Xlength@?$vector@U?$tvec4@M$0A@@glm@@V?$allocator@U?$tvec4@M$0A@@glm@@@std@@@std@@CAXXZ DD imagerel $LN3
	DD	imagerel $LN3+24
	DD	imagerel $unwind$?_Xlength@?$vector@U?$tvec4@M$0A@@glm@@V?$allocator@U?$tvec4@M$0A@@glm@@@std@@@std@@CAXXZ
pdata	ENDS
;	COMDAT pdata
pdata	SEGMENT
$pdata$?_Orphan_range_unlocked@?$vector@U?$tvec4@M$0A@@glm@@V?$allocator@U?$tvec4@M$0A@@glm@@@std@@@std@@AEBAXPEAU?$tvec4@M$0A@@glm@@0@Z DD imagerel $LN8
	DD	imagerel $LN8+161
	DD	imagerel $unwind$?_Orphan_range_unlocked@?$vector@U?$tvec4@M$0A@@glm@@V?$allocator@U?$tvec4@M$0A@@glm@@@std@@@std@@AEBAXPEAU?$tvec4@M$0A@@glm@@0@Z
pdata	ENDS
;	COMDAT pdata
pdata	SEGMENT
$pdata$?_Orphan_range_locked@?$vector@U?$tvec4@M$0A@@glm@@V?$allocator@U?$tvec4@M$0A@@glm@@@std@@@std@@AEBAXPEAU?$tvec4@M$0A@@glm@@0@Z DD imagerel $LN4
	DD	imagerel $LN4+112
	DD	imagerel $unwind$?_Orphan_range_locked@?$vector@U?$tvec4@M$0A@@glm@@V?$allocator@U?$tvec4@M$0A@@glm@@@std@@@std@@AEBAXPEAU?$tvec4@M$0A@@glm@@0@Z
pdata	ENDS
;	COMDAT pdata
pdata	SEGMENT
$pdata$?dtor$0@?0??_Orphan_range_locked@?$vector@U?$tvec4@M$0A@@glm@@V?$allocator@U?$tvec4@M$0A@@glm@@@std@@@std@@AEBAXPEAU?$tvec4@M$0A@@glm@@0@Z@4HA DD imagerel ?dtor$0@?0??_Orphan_range_locked@?$vector@U?$tvec4@M$0A@@glm@@V?$allocator@U?$tvec4@M$0A@@glm@@@std@@@std@@AEBAXPEAU?$tvec4@M$0A@@glm@@0@Z@4HA
	DD	imagerel ?dtor$0@?0??_Orphan_range_locked@?$vector@U?$tvec4@M$0A@@glm@@V?$allocator@U?$tvec4@M$0A@@glm@@@std@@@std@@AEBAXPEAU?$tvec4@M$0A@@glm@@0@Z@4HA+36
	DD	imagerel $unwind$?dtor$0@?0??_Orphan_range_locked@?$vector@U?$tvec4@M$0A@@glm@@V?$allocator@U?$tvec4@M$0A@@glm@@@std@@@std@@AEBAXPEAU?$tvec4@M$0A@@glm@@0@Z@4HA
pdata	ENDS
;	COMDAT pdata
pdata	SEGMENT
$pdata$?_Orphan_range@?$vector@U?$tvec4@M$0A@@glm@@V?$allocator@U?$tvec4@M$0A@@glm@@@std@@@std@@AEBAXPEAU?$tvec4@M$0A@@glm@@0@Z DD imagerel $LN3
	DD	imagerel $LN3+46
	DD	imagerel $unwind$?_Orphan_range@?$vector@U?$tvec4@M$0A@@glm@@V?$allocator@U?$tvec4@M$0A@@glm@@@std@@@std@@AEBAXPEAU?$tvec4@M$0A@@glm@@0@Z
pdata	ENDS
;	COMDAT pdata
pdata	SEGMENT
$pdata$?_Getal@?$vector@U?$tvec4@M$0A@@glm@@V?$allocator@U?$tvec4@M$0A@@glm@@@std@@@std@@AEAAAEAV?$allocator@U?$tvec4@M$0A@@glm@@@2@XZ DD imagerel $LN3
	DD	imagerel $LN3+29
	DD	imagerel $unwind$?_Getal@?$vector@U?$tvec4@M$0A@@glm@@V?$allocator@U?$tvec4@M$0A@@glm@@@std@@@std@@AEAAAEAV?$allocator@U?$tvec4@M$0A@@glm@@@2@XZ
pdata	ENDS
;	COMDAT pdata
pdata	SEGMENT
$pdata$?_Getal@?$vector@U?$tvec4@M$0A@@glm@@V?$allocator@U?$tvec4@M$0A@@glm@@@std@@@std@@AEBAAEBV?$allocator@U?$tvec4@M$0A@@glm@@@2@XZ DD imagerel $LN3
	DD	imagerel $LN3+29
	DD	imagerel $unwind$?_Getal@?$vector@U?$tvec4@M$0A@@glm@@V?$allocator@U?$tvec4@M$0A@@glm@@@std@@@std@@AEBAAEBV?$allocator@U?$tvec4@M$0A@@glm@@@2@XZ
pdata	ENDS
;	COMDAT pdata
pdata	SEGMENT
$pdata$??0?$_Vector_val@U?$_Simple_types@U?$tvec4@M$0A@@glm@@@std@@@std@@QEAA@XZ DD imagerel $LN3
	DD	imagerel $LN3+70
	DD	imagerel $unwind$??0?$_Vector_val@U?$_Simple_types@U?$tvec4@M$0A@@glm@@@std@@@std@@QEAA@XZ
pdata	ENDS
;	COMDAT pdata
pdata	SEGMENT
$pdata$?_Get_first@?$_Compressed_pair@V?$allocator@U?$tvec4@M$0A@@glm@@@std@@V?$_Vector_val@U?$_Simple_types@U?$tvec4@M$0A@@glm@@@std@@@2@$00@std@@QEAAAEAV?$allocator@U?$tvec4@M$0A@@glm@@@2@XZ DD imagerel $LN3
	DD	imagerel $LN3+13
	DD	imagerel $unwind$?_Get_first@?$_Compressed_pair@V?$allocator@U?$tvec4@M$0A@@glm@@@std@@V?$_Vector_val@U?$_Simple_types@U?$tvec4@M$0A@@glm@@@std@@@2@$00@std@@QEAAAEAV?$allocator@U?$tvec4@M$0A@@glm@@@2@XZ
pdata	ENDS
;	COMDAT pdata
pdata	SEGMENT
$pdata$?_Get_first@?$_Compressed_pair@V?$allocator@U?$tvec4@M$0A@@glm@@@std@@V?$_Vector_val@U?$_Simple_types@U?$tvec4@M$0A@@glm@@@std@@@2@$00@std@@QEBAAEBV?$allocator@U?$tvec4@M$0A@@glm@@@2@XZ DD imagerel $LN3
	DD	imagerel $LN3+13
	DD	imagerel $unwind$?_Get_first@?$_Compressed_pair@V?$allocator@U?$tvec4@M$0A@@glm@@@std@@V?$_Vector_val@U?$_Simple_types@U?$tvec4@M$0A@@glm@@@std@@@2@$00@std@@QEBAAEBV?$allocator@U?$tvec4@M$0A@@glm@@@2@XZ
pdata	ENDS
;	COMDAT pdata
pdata	SEGMENT
$pdata$??$packHalf@$0A@Utvec4@glm@@@glm@@YA?AU?$tvec4@G$0A@@0@AEBU?$tvec4@M$0A@@0@@Z DD imagerel $LN3
	DD	imagerel $LN3+41
	DD	imagerel $unwind$??$packHalf@$0A@Utvec4@glm@@@glm@@YA?AU?$tvec4@G$0A@@0@AEBU?$tvec4@M$0A@@0@@Z
pdata	ENDS
;	COMDAT pdata
pdata	SEGMENT
$pdata$??$unpackHalf@$0A@Utvec4@glm@@@glm@@YA?AU?$tvec4@M$0A@@0@AEBU?$tvec4@G$0A@@0@@Z DD imagerel $LN3
	DD	imagerel $LN3+41
	DD	imagerel $unwind$??$unpackHalf@$0A@Utvec4@glm@@@glm@@YA?AU?$tvec4@M$0A@@0@AEBU?$tvec4@G$0A@@0@@Z
pdata	ENDS
;	COMDAT pdata
pdata	SEGMENT
$pdata$??$equal@M$0A@Utvec4@glm@@@glm@@YA?AU?$tvec4@_N$0A@@0@AEBU?$tvec4@M$0A@@0@0@Z DD imagerel $LN9
	DD	imagerel $LN9+268
	DD	imagerel $unwind$??$equal@M$0A@Utvec4@glm@@@glm@@YA?AU?$tvec4@_N$0A@@0@AEBU?$tvec4@M$0A@@0@0@Z
pdata	ENDS
;	COMDAT pdata
pdata	SEGMENT
$pdata$?length@?$tvec4@_N$0A@@glm@@SAHXZ DD imagerel $LN3
	DD	imagerel $LN3+9
	DD	imagerel $unwind$?length@?$tvec4@_N$0A@@glm@@SAHXZ
pdata	ENDS
;	COMDAT pdata
pdata	SEGMENT
$pdata$??A?$tvec4@_N$0A@@glm@@QEAAAEA_NH@Z DD imagerel $LN5
	DD	imagerel $LN5+82
	DD	imagerel $unwind$??A?$tvec4@_N$0A@@glm@@QEAAAEA_NH@Z
pdata	ENDS
;	COMDAT pdata
pdata	SEGMENT
$pdata$??A?$tvec4@_N$0A@@glm@@QEBAAEB_NH@Z DD imagerel $LN5
	DD	imagerel $LN5+82
	DD	imagerel $unwind$??A?$tvec4@_N$0A@@glm@@QEBAAEB_NH@Z
pdata	ENDS
;	COMDAT pdata
pdata	SEGMENT
$pdata$??0?$tvec4@_N$0A@@glm@@QEAA@W4ctor@1@@Z DD imagerel $LN3
	DD	imagerel $LN3+17
	DD	imagerel $unwind$??0?$tvec4@_N$0A@@glm@@QEAA@W4ctor@1@@Z
pdata	ENDS
;	COMDAT pdata
pdata	SEGMENT
$pdata$??$all@$0A@Utvec4@glm@@@glm@@YA_NAEBU?$tvec4@_N$0A@@0@@Z DD imagerel $LN8
	DD	imagerel $LN8+116
	DD	imagerel $unwind$??$all@$0A@Utvec4@glm@@@glm@@YA_NAEBU?$tvec4@_N$0A@@0@@Z
pdata	ENDS
pdata	SEGMENT
$pdata$?test_I3x10_1x2@@YAHXZ DD imagerel $LN9
	DD	imagerel $LN9+505
	DD	imagerel $unwind$?test_I3x10_1x2@@YAHXZ
pdata	ENDS
pdata	SEGMENT
$pdata$?dtor$0@?0??test_I3x10_1x2@@YAHXZ@4HA DD imagerel ?dtor$0@?0??test_I3x10_1x2@@YAHXZ@4HA
	DD	imagerel ?dtor$0@?0??test_I3x10_1x2@@YAHXZ@4HA+35
	DD	imagerel $unwind$?dtor$0@?0??test_I3x10_1x2@@YAHXZ@4HA
pdata	ENDS
;	COMDAT pdata
pdata	SEGMENT
$pdata$??0?$allocator@U?$tvec4@H$0A@@glm@@@std@@QEAA@XZ DD imagerel $LN3
	DD	imagerel $LN3+13
	DD	imagerel $unwind$??0?$allocator@U?$tvec4@H$0A@@glm@@@std@@QEAA@XZ
pdata	ENDS
;	COMDAT pdata
pdata	SEGMENT
$pdata$?deallocate@?$allocator@U?$tvec4@H$0A@@glm@@@std@@QEAAXQEAU?$tvec4@H$0A@@glm@@_K@Z DD imagerel $LN13
	DD	imagerel $LN13+180
	DD	imagerel $unwind$?deallocate@?$allocator@U?$tvec4@H$0A@@glm@@@std@@QEAAXQEAU?$tvec4@H$0A@@glm@@_K@Z
pdata	ENDS
;	COMDAT pdata
pdata	SEGMENT
$pdata$?allocate@?$allocator@U?$tvec4@H$0A@@glm@@@std@@QEAAPEAU?$tvec4@H$0A@@glm@@_K@Z DD imagerel $LN3
	DD	imagerel $LN3+39
	DD	imagerel $unwind$?allocate@?$allocator@U?$tvec4@H$0A@@glm@@@std@@QEAAPEAU?$tvec4@H$0A@@glm@@_K@Z
pdata	ENDS
;	COMDAT pdata
pdata	SEGMENT
$pdata$?max_size@?$_Default_allocator_traits@V?$allocator@U?$tvec4@H$0A@@glm@@@std@@@std@@SA_KAEBV?$allocator@U?$tvec4@H$0A@@glm@@@2@@Z DD imagerel $LN3
	DD	imagerel $LN3+18
	DD	imagerel $unwind$?max_size@?$_Default_allocator_traits@V?$allocator@U?$tvec4@H$0A@@glm@@@std@@@std@@SA_KAEBV?$allocator@U?$tvec4@H$0A@@glm@@@2@@Z
pdata	ENDS
;	COMDAT pdata
pdata	SEGMENT
$pdata$??0?$vector@U?$tvec4@H$0A@@glm@@V?$allocator@U?$tvec4@H$0A@@glm@@@std@@@std@@QEAA@XZ DD imagerel $LN3
	DD	imagerel $LN3+75
	DD	imagerel $unwind$??0?$vector@U?$tvec4@H$0A@@glm@@V?$allocator@U?$tvec4@H$0A@@glm@@@std@@@std@@QEAA@XZ
pdata	ENDS
;	COMDAT pdata
pdata	SEGMENT
$pdata$??1?$vector@U?$tvec4@H$0A@@glm@@V?$allocator@U?$tvec4@H$0A@@glm@@@std@@@std@@QEAA@XZ DD imagerel $LN3
	DD	imagerel $LN3+136
	DD	imagerel $unwind$??1?$vector@U?$tvec4@H$0A@@glm@@V?$allocator@U?$tvec4@H$0A@@glm@@@std@@@std@@QEAA@XZ
pdata	ENDS
;	COMDAT pdata
pdata	SEGMENT
$pdata$?push_back@?$vector@U?$tvec4@H$0A@@glm@@V?$allocator@U?$tvec4@H$0A@@glm@@@std@@@std@@QEAAX$$QEAU?$tvec4@H$0A@@glm@@@Z DD imagerel $LN3
	DD	imagerel $LN3+44
	DD	imagerel $unwind$?push_back@?$vector@U?$tvec4@H$0A@@glm@@V?$allocator@U?$tvec4@H$0A@@glm@@@std@@@std@@QEAAX$$QEAU?$tvec4@H$0A@@glm@@@Z
pdata	ENDS
;	COMDAT pdata
pdata	SEGMENT
$pdata$?size@?$vector@U?$tvec4@H$0A@@glm@@V?$allocator@U?$tvec4@H$0A@@glm@@@std@@@std@@QEBA_KXZ DD imagerel $LN3
	DD	imagerel $LN3+48
	DD	imagerel $unwind$?size@?$vector@U?$tvec4@H$0A@@glm@@V?$allocator@U?$tvec4@H$0A@@glm@@@std@@@std@@QEBA_KXZ
pdata	ENDS
;	COMDAT pdata
pdata	SEGMENT
$pdata$?max_size@?$vector@U?$tvec4@H$0A@@glm@@V?$allocator@U?$tvec4@H$0A@@glm@@@std@@@std@@QEBA_KXZ DD imagerel $LN3
	DD	imagerel $LN3+67
	DD	imagerel $unwind$?max_size@?$vector@U?$tvec4@H$0A@@glm@@V?$allocator@U?$tvec4@H$0A@@glm@@@std@@@std@@QEBA_KXZ
pdata	ENDS
;	COMDAT pdata
pdata	SEGMENT
$pdata$?capacity@?$vector@U?$tvec4@H$0A@@glm@@V?$allocator@U?$tvec4@H$0A@@glm@@@std@@@std@@QEBA_KXZ DD imagerel $LN3
	DD	imagerel $LN3+48
	DD	imagerel $unwind$?capacity@?$vector@U?$tvec4@H$0A@@glm@@V?$allocator@U?$tvec4@H$0A@@glm@@@std@@@std@@QEBA_KXZ
pdata	ENDS
;	COMDAT pdata
pdata	SEGMENT
$pdata$??A?$vector@U?$tvec4@H$0A@@glm@@V?$allocator@U?$tvec4@H$0A@@glm@@@std@@@std@@QEAAAEAU?$tvec4@H$0A@@glm@@_K@Z DD imagerel $LN12
	DD	imagerel $LN12+197
	DD	imagerel $unwind$??A?$vector@U?$tvec4@H$0A@@glm@@V?$allocator@U?$tvec4@H$0A@@glm@@@std@@@std@@QEAAAEAU?$tvec4@H$0A@@glm@@_K@Z
pdata	ENDS
;	COMDAT pdata
pdata	SEGMENT
$pdata$?_Calculate_growth@?$vector@U?$tvec4@H$0A@@glm@@V?$allocator@U?$tvec4@H$0A@@glm@@@std@@@std@@AEBA_K_K@Z DD imagerel $LN5
	DD	imagerel $LN5+146
	DD	imagerel $unwind$?_Calculate_growth@?$vector@U?$tvec4@H$0A@@glm@@V?$allocator@U?$tvec4@H$0A@@glm@@@std@@@std@@AEBA_K_K@Z
pdata	ENDS
;	COMDAT pdata
pdata	SEGMENT
$pdata$?_Change_array@?$vector@U?$tvec4@H$0A@@glm@@V?$allocator@U?$tvec4@H$0A@@glm@@@std@@@std@@AEAAXQEAU?$tvec4@H$0A@@glm@@_K1@Z DD imagerel $LN4
	DD	imagerel $LN4+252
	DD	imagerel $unwind$?_Change_array@?$vector@U?$tvec4@H$0A@@glm@@V?$allocator@U?$tvec4@H$0A@@glm@@@std@@@std@@AEAAXQEAU?$tvec4@H$0A@@glm@@_K1@Z
pdata	ENDS
;	COMDAT pdata
pdata	SEGMENT
$pdata$?_Tidy@?$vector@U?$tvec4@H$0A@@glm@@V?$allocator@U?$tvec4@H$0A@@glm@@@std@@@std@@AEAAXXZ DD imagerel $LN4
	DD	imagerel $LN4+210
	DD	imagerel $unwind$?_Tidy@?$vector@U?$tvec4@H$0A@@glm@@V?$allocator@U?$tvec4@H$0A@@glm@@@std@@@std@@AEAAXXZ
pdata	ENDS
;	COMDAT pdata
pdata	SEGMENT
$pdata$?_Xlength@?$vector@U?$tvec4@H$0A@@glm@@V?$allocator@U?$tvec4@H$0A@@glm@@@std@@@std@@CAXXZ DD imagerel $LN3
	DD	imagerel $LN3+24
	DD	imagerel $unwind$?_Xlength@?$vector@U?$tvec4@H$0A@@glm@@V?$allocator@U?$tvec4@H$0A@@glm@@@std@@@std@@CAXXZ
pdata	ENDS
;	COMDAT pdata
pdata	SEGMENT
$pdata$?_Orphan_range_unlocked@?$vector@U?$tvec4@H$0A@@glm@@V?$allocator@U?$tvec4@H$0A@@glm@@@std@@@std@@AEBAXPEAU?$tvec4@H$0A@@glm@@0@Z DD imagerel $LN8
	DD	imagerel $LN8+161
	DD	imagerel $unwind$?_Orphan_range_unlocked@?$vector@U?$tvec4@H$0A@@glm@@V?$allocator@U?$tvec4@H$0A@@glm@@@std@@@std@@AEBAXPEAU?$tvec4@H$0A@@glm@@0@Z
pdata	ENDS
;	COMDAT pdata
pdata	SEGMENT
$pdata$?_Orphan_range_locked@?$vector@U?$tvec4@H$0A@@glm@@V?$allocator@U?$tvec4@H$0A@@glm@@@std@@@std@@AEBAXPEAU?$tvec4@H$0A@@glm@@0@Z DD imagerel $LN4
	DD	imagerel $LN4+112
	DD	imagerel $unwind$?_Orphan_range_locked@?$vector@U?$tvec4@H$0A@@glm@@V?$allocator@U?$tvec4@H$0A@@glm@@@std@@@std@@AEBAXPEAU?$tvec4@H$0A@@glm@@0@Z
pdata	ENDS
;	COMDAT pdata
pdata	SEGMENT
$pdata$?dtor$0@?0??_Orphan_range_locked@?$vector@U?$tvec4@H$0A@@glm@@V?$allocator@U?$tvec4@H$0A@@glm@@@std@@@std@@AEBAXPEAU?$tvec4@H$0A@@glm@@0@Z@4HA DD imagerel ?dtor$0@?0??_Orphan_range_locked@?$vector@U?$tvec4@H$0A@@glm@@V?$allocator@U?$tvec4@H$0A@@glm@@@std@@@std@@AEBAXPEAU?$tvec4@H$0A@@glm@@0@Z@4HA
	DD	imagerel ?dtor$0@?0??_Orphan_range_locked@?$vector@U?$tvec4@H$0A@@glm@@V?$allocator@U?$tvec4@H$0A@@glm@@@std@@@std@@AEBAXPEAU?$tvec4@H$0A@@glm@@0@Z@4HA+36
	DD	imagerel $unwind$?dtor$0@?0??_Orphan_range_locked@?$vector@U?$tvec4@H$0A@@glm@@V?$allocator@U?$tvec4@H$0A@@glm@@@std@@@std@@AEBAXPEAU?$tvec4@H$0A@@glm@@0@Z@4HA
pdata	ENDS
;	COMDAT pdata
pdata	SEGMENT
$pdata$?_Orphan_range@?$vector@U?$tvec4@H$0A@@glm@@V?$allocator@U?$tvec4@H$0A@@glm@@@std@@@std@@AEBAXPEAU?$tvec4@H$0A@@glm@@0@Z DD imagerel $LN3
	DD	imagerel $LN3+46
	DD	imagerel $unwind$?_Orphan_range@?$vector@U?$tvec4@H$0A@@glm@@V?$allocator@U?$tvec4@H$0A@@glm@@@std@@@std@@AEBAXPEAU?$tvec4@H$0A@@glm@@0@Z
pdata	ENDS
;	COMDAT pdata
pdata	SEGMENT
$pdata$?_Getal@?$vector@U?$tvec4@H$0A@@glm@@V?$allocator@U?$tvec4@H$0A@@glm@@@std@@@std@@AEAAAEAV?$allocator@U?$tvec4@H$0A@@glm@@@2@XZ DD imagerel $LN3
	DD	imagerel $LN3+29
	DD	imagerel $unwind$?_Getal@?$vector@U?$tvec4@H$0A@@glm@@V?$allocator@U?$tvec4@H$0A@@glm@@@std@@@std@@AEAAAEAV?$allocator@U?$tvec4@H$0A@@glm@@@2@XZ
pdata	ENDS
;	COMDAT pdata
pdata	SEGMENT
$pdata$?_Getal@?$vector@U?$tvec4@H$0A@@glm@@V?$allocator@U?$tvec4@H$0A@@glm@@@std@@@std@@AEBAAEBV?$allocator@U?$tvec4@H$0A@@glm@@@2@XZ DD imagerel $LN3
	DD	imagerel $LN3+29
	DD	imagerel $unwind$?_Getal@?$vector@U?$tvec4@H$0A@@glm@@V?$allocator@U?$tvec4@H$0A@@glm@@@std@@@std@@AEBAAEBV?$allocator@U?$tvec4@H$0A@@glm@@@2@XZ
pdata	ENDS
;	COMDAT pdata
pdata	SEGMENT
$pdata$??0?$_Vector_val@U?$_Simple_types@U?$tvec4@H$0A@@glm@@@std@@@std@@QEAA@XZ DD imagerel $LN3
	DD	imagerel $LN3+70
	DD	imagerel $unwind$??0?$_Vector_val@U?$_Simple_types@U?$tvec4@H$0A@@glm@@@std@@@std@@QEAA@XZ
pdata	ENDS
;	COMDAT pdata
pdata	SEGMENT
$pdata$?_Get_first@?$_Compressed_pair@V?$allocator@U?$tvec4@H$0A@@glm@@@std@@V?$_Vector_val@U?$_Simple_types@U?$tvec4@H$0A@@glm@@@std@@@2@$00@std@@QEAAAEAV?$allocator@U?$tvec4@H$0A@@glm@@@2@XZ DD imagerel $LN3
	DD	imagerel $LN3+13
	DD	imagerel $unwind$?_Get_first@?$_Compressed_pair@V?$allocator@U?$tvec4@H$0A@@glm@@@std@@V?$_Vector_val@U?$_Simple_types@U?$tvec4@H$0A@@glm@@@std@@@2@$00@std@@QEAAAEAV?$allocator@U?$tvec4@H$0A@@glm@@@2@XZ
pdata	ENDS
;	COMDAT pdata
pdata	SEGMENT
$pdata$?_Get_first@?$_Compressed_pair@V?$allocator@U?$tvec4@H$0A@@glm@@@std@@V?$_Vector_val@U?$_Simple_types@U?$tvec4@H$0A@@glm@@@std@@@2@$00@std@@QEBAAEBV?$allocator@U?$tvec4@H$0A@@glm@@@2@XZ DD imagerel $LN3
	DD	imagerel $LN3+13
	DD	imagerel $unwind$?_Get_first@?$_Compressed_pair@V?$allocator@U?$tvec4@H$0A@@glm@@@std@@V?$_Vector_val@U?$_Simple_types@U?$tvec4@H$0A@@glm@@@std@@@2@$00@std@@QEBAAEBV?$allocator@U?$tvec4@H$0A@@glm@@@2@XZ
pdata	ENDS
;	COMDAT pdata
pdata	SEGMENT
$pdata$??$equal@H$0A@Utvec4@glm@@@glm@@YA?AU?$tvec4@_N$0A@@0@AEBU?$tvec4@H$0A@@0@0@Z DD imagerel $LN9
	DD	imagerel $LN9+263
	DD	imagerel $unwind$??$equal@H$0A@Utvec4@glm@@@glm@@YA?AU?$tvec4@_N$0A@@0@AEBU?$tvec4@H$0A@@0@0@Z
pdata	ENDS
pdata	SEGMENT
$pdata$?test_U3x10_1x2@@YAHXZ DD imagerel $LN9
	DD	imagerel $LN9+505
	DD	imagerel $unwind$?test_U3x10_1x2@@YAHXZ
pdata	ENDS
pdata	SEGMENT
$pdata$?dtor$0@?0??test_U3x10_1x2@@YAHXZ@4HA DD imagerel ?dtor$0@?0??test_U3x10_1x2@@YAHXZ@4HA
	DD	imagerel ?dtor$0@?0??test_U3x10_1x2@@YAHXZ@4HA+35
	DD	imagerel $unwind$?dtor$0@?0??test_U3x10_1x2@@YAHXZ@4HA
pdata	ENDS
;	COMDAT pdata
pdata	SEGMENT
$pdata$??0?$allocator@U?$tvec4@I$0A@@glm@@@std@@QEAA@XZ DD imagerel $LN3
	DD	imagerel $LN3+13
	DD	imagerel $unwind$??0?$allocator@U?$tvec4@I$0A@@glm@@@std@@QEAA@XZ
pdata	ENDS
;	COMDAT pdata
pdata	SEGMENT
$pdata$?deallocate@?$allocator@U?$tvec4@I$0A@@glm@@@std@@QEAAXQEAU?$tvec4@I$0A@@glm@@_K@Z DD imagerel $LN13
	DD	imagerel $LN13+180
	DD	imagerel $unwind$?deallocate@?$allocator@U?$tvec4@I$0A@@glm@@@std@@QEAAXQEAU?$tvec4@I$0A@@glm@@_K@Z
pdata	ENDS
;	COMDAT pdata
pdata	SEGMENT
$pdata$?allocate@?$allocator@U?$tvec4@I$0A@@glm@@@std@@QEAAPEAU?$tvec4@I$0A@@glm@@_K@Z DD imagerel $LN3
	DD	imagerel $LN3+39
	DD	imagerel $unwind$?allocate@?$allocator@U?$tvec4@I$0A@@glm@@@std@@QEAAPEAU?$tvec4@I$0A@@glm@@_K@Z
pdata	ENDS
;	COMDAT pdata
pdata	SEGMENT
$pdata$?max_size@?$_Default_allocator_traits@V?$allocator@U?$tvec4@I$0A@@glm@@@std@@@std@@SA_KAEBV?$allocator@U?$tvec4@I$0A@@glm@@@2@@Z DD imagerel $LN3
	DD	imagerel $LN3+18
	DD	imagerel $unwind$?max_size@?$_Default_allocator_traits@V?$allocator@U?$tvec4@I$0A@@glm@@@std@@@std@@SA_KAEBV?$allocator@U?$tvec4@I$0A@@glm@@@2@@Z
pdata	ENDS
;	COMDAT pdata
pdata	SEGMENT
$pdata$??0?$vector@U?$tvec4@I$0A@@glm@@V?$allocator@U?$tvec4@I$0A@@glm@@@std@@@std@@QEAA@XZ DD imagerel $LN3
	DD	imagerel $LN3+75
	DD	imagerel $unwind$??0?$vector@U?$tvec4@I$0A@@glm@@V?$allocator@U?$tvec4@I$0A@@glm@@@std@@@std@@QEAA@XZ
pdata	ENDS
;	COMDAT pdata
pdata	SEGMENT
$pdata$??1?$vector@U?$tvec4@I$0A@@glm@@V?$allocator@U?$tvec4@I$0A@@glm@@@std@@@std@@QEAA@XZ DD imagerel $LN3
	DD	imagerel $LN3+136
	DD	imagerel $unwind$??1?$vector@U?$tvec4@I$0A@@glm@@V?$allocator@U?$tvec4@I$0A@@glm@@@std@@@std@@QEAA@XZ
pdata	ENDS
;	COMDAT pdata
pdata	SEGMENT
$pdata$?push_back@?$vector@U?$tvec4@I$0A@@glm@@V?$allocator@U?$tvec4@I$0A@@glm@@@std@@@std@@QEAAX$$QEAU?$tvec4@I$0A@@glm@@@Z DD imagerel $LN3
	DD	imagerel $LN3+44
	DD	imagerel $unwind$?push_back@?$vector@U?$tvec4@I$0A@@glm@@V?$allocator@U?$tvec4@I$0A@@glm@@@std@@@std@@QEAAX$$QEAU?$tvec4@I$0A@@glm@@@Z
pdata	ENDS
;	COMDAT pdata
pdata	SEGMENT
$pdata$?size@?$vector@U?$tvec4@I$0A@@glm@@V?$allocator@U?$tvec4@I$0A@@glm@@@std@@@std@@QEBA_KXZ DD imagerel $LN3
	DD	imagerel $LN3+48
	DD	imagerel $unwind$?size@?$vector@U?$tvec4@I$0A@@glm@@V?$allocator@U?$tvec4@I$0A@@glm@@@std@@@std@@QEBA_KXZ
pdata	ENDS
;	COMDAT pdata
pdata	SEGMENT
$pdata$?max_size@?$vector@U?$tvec4@I$0A@@glm@@V?$allocator@U?$tvec4@I$0A@@glm@@@std@@@std@@QEBA_KXZ DD imagerel $LN3
	DD	imagerel $LN3+67
	DD	imagerel $unwind$?max_size@?$vector@U?$tvec4@I$0A@@glm@@V?$allocator@U?$tvec4@I$0A@@glm@@@std@@@std@@QEBA_KXZ
pdata	ENDS
;	COMDAT pdata
pdata	SEGMENT
$pdata$?capacity@?$vector@U?$tvec4@I$0A@@glm@@V?$allocator@U?$tvec4@I$0A@@glm@@@std@@@std@@QEBA_KXZ DD imagerel $LN3
	DD	imagerel $LN3+48
	DD	imagerel $unwind$?capacity@?$vector@U?$tvec4@I$0A@@glm@@V?$allocator@U?$tvec4@I$0A@@glm@@@std@@@std@@QEBA_KXZ
pdata	ENDS
;	COMDAT pdata
pdata	SEGMENT
$pdata$??A?$vector@U?$tvec4@I$0A@@glm@@V?$allocator@U?$tvec4@I$0A@@glm@@@std@@@std@@QEAAAEAU?$tvec4@I$0A@@glm@@_K@Z DD imagerel $LN12
	DD	imagerel $LN12+197
	DD	imagerel $unwind$??A?$vector@U?$tvec4@I$0A@@glm@@V?$allocator@U?$tvec4@I$0A@@glm@@@std@@@std@@QEAAAEAU?$tvec4@I$0A@@glm@@_K@Z
pdata	ENDS
;	COMDAT pdata
pdata	SEGMENT
$pdata$?_Calculate_growth@?$vector@U?$tvec4@I$0A@@glm@@V?$allocator@U?$tvec4@I$0A@@glm@@@std@@@std@@AEBA_K_K@Z DD imagerel $LN5
	DD	imagerel $LN5+146
	DD	imagerel $unwind$?_Calculate_growth@?$vector@U?$tvec4@I$0A@@glm@@V?$allocator@U?$tvec4@I$0A@@glm@@@std@@@std@@AEBA_K_K@Z
pdata	ENDS
;	COMDAT pdata
pdata	SEGMENT
$pdata$?_Change_array@?$vector@U?$tvec4@I$0A@@glm@@V?$allocator@U?$tvec4@I$0A@@glm@@@std@@@std@@AEAAXQEAU?$tvec4@I$0A@@glm@@_K1@Z DD imagerel $LN4
	DD	imagerel $LN4+252
	DD	imagerel $unwind$?_Change_array@?$vector@U?$tvec4@I$0A@@glm@@V?$allocator@U?$tvec4@I$0A@@glm@@@std@@@std@@AEAAXQEAU?$tvec4@I$0A@@glm@@_K1@Z
pdata	ENDS
;	COMDAT pdata
pdata	SEGMENT
$pdata$?_Tidy@?$vector@U?$tvec4@I$0A@@glm@@V?$allocator@U?$tvec4@I$0A@@glm@@@std@@@std@@AEAAXXZ DD imagerel $LN4
	DD	imagerel $LN4+210
	DD	imagerel $unwind$?_Tidy@?$vector@U?$tvec4@I$0A@@glm@@V?$allocator@U?$tvec4@I$0A@@glm@@@std@@@std@@AEAAXXZ
pdata	ENDS
;	COMDAT pdata
pdata	SEGMENT
$pdata$?_Xlength@?$vector@U?$tvec4@I$0A@@glm@@V?$allocator@U?$tvec4@I$0A@@glm@@@std@@@std@@CAXXZ DD imagerel $LN3
	DD	imagerel $LN3+24
	DD	imagerel $unwind$?_Xlength@?$vector@U?$tvec4@I$0A@@glm@@V?$allocator@U?$tvec4@I$0A@@glm@@@std@@@std@@CAXXZ
pdata	ENDS
;	COMDAT pdata
pdata	SEGMENT
$pdata$?_Orphan_range_unlocked@?$vector@U?$tvec4@I$0A@@glm@@V?$allocator@U?$tvec4@I$0A@@glm@@@std@@@std@@AEBAXPEAU?$tvec4@I$0A@@glm@@0@Z DD imagerel $LN8
	DD	imagerel $LN8+161
	DD	imagerel $unwind$?_Orphan_range_unlocked@?$vector@U?$tvec4@I$0A@@glm@@V?$allocator@U?$tvec4@I$0A@@glm@@@std@@@std@@AEBAXPEAU?$tvec4@I$0A@@glm@@0@Z
pdata	ENDS
;	COMDAT pdata
pdata	SEGMENT
$pdata$?_Orphan_range_locked@?$vector@U?$tvec4@I$0A@@glm@@V?$allocator@U?$tvec4@I$0A@@glm@@@std@@@std@@AEBAXPEAU?$tvec4@I$0A@@glm@@0@Z DD imagerel $LN4
	DD	imagerel $LN4+112
	DD	imagerel $unwind$?_Orphan_range_locked@?$vector@U?$tvec4@I$0A@@glm@@V?$allocator@U?$tvec4@I$0A@@glm@@@std@@@std@@AEBAXPEAU?$tvec4@I$0A@@glm@@0@Z
pdata	ENDS
;	COMDAT pdata
pdata	SEGMENT
$pdata$?dtor$0@?0??_Orphan_range_locked@?$vector@U?$tvec4@I$0A@@glm@@V?$allocator@U?$tvec4@I$0A@@glm@@@std@@@std@@AEBAXPEAU?$tvec4@I$0A@@glm@@0@Z@4HA DD imagerel ?dtor$0@?0??_Orphan_range_locked@?$vector@U?$tvec4@I$0A@@glm@@V?$allocator@U?$tvec4@I$0A@@glm@@@std@@@std@@AEBAXPEAU?$tvec4@I$0A@@glm@@0@Z@4HA
	DD	imagerel ?dtor$0@?0??_Orphan_range_locked@?$vector@U?$tvec4@I$0A@@glm@@V?$allocator@U?$tvec4@I$0A@@glm@@@std@@@std@@AEBAXPEAU?$tvec4@I$0A@@glm@@0@Z@4HA+36
	DD	imagerel $unwind$?dtor$0@?0??_Orphan_range_locked@?$vector@U?$tvec4@I$0A@@glm@@V?$allocator@U?$tvec4@I$0A@@glm@@@std@@@std@@AEBAXPEAU?$tvec4@I$0A@@glm@@0@Z@4HA
pdata	ENDS
;	COMDAT pdata
pdata	SEGMENT
$pdata$?_Orphan_range@?$vector@U?$tvec4@I$0A@@glm@@V?$allocator@U?$tvec4@I$0A@@glm@@@std@@@std@@AEBAXPEAU?$tvec4@I$0A@@glm@@0@Z DD imagerel $LN3
	DD	imagerel $LN3+46
	DD	imagerel $unwind$?_Orphan_range@?$vector@U?$tvec4@I$0A@@glm@@V?$allocator@U?$tvec4@I$0A@@glm@@@std@@@std@@AEBAXPEAU?$tvec4@I$0A@@glm@@0@Z
pdata	ENDS
;	COMDAT pdata
pdata	SEGMENT
$pdata$?_Getal@?$vector@U?$tvec4@I$0A@@glm@@V?$allocator@U?$tvec4@I$0A@@glm@@@std@@@std@@AEAAAEAV?$allocator@U?$tvec4@I$0A@@glm@@@2@XZ DD imagerel $LN3
	DD	imagerel $LN3+29
	DD	imagerel $unwind$?_Getal@?$vector@U?$tvec4@I$0A@@glm@@V?$allocator@U?$tvec4@I$0A@@glm@@@std@@@std@@AEAAAEAV?$allocator@U?$tvec4@I$0A@@glm@@@2@XZ
pdata	ENDS
;	COMDAT pdata
pdata	SEGMENT
$pdata$?_Getal@?$vector@U?$tvec4@I$0A@@glm@@V?$allocator@U?$tvec4@I$0A@@glm@@@std@@@std@@AEBAAEBV?$allocator@U?$tvec4@I$0A@@glm@@@2@XZ DD imagerel $LN3
	DD	imagerel $LN3+29
	DD	imagerel $unwind$?_Getal@?$vector@U?$tvec4@I$0A@@glm@@V?$allocator@U?$tvec4@I$0A@@glm@@@std@@@std@@AEBAAEBV?$allocator@U?$tvec4@I$0A@@glm@@@2@XZ
pdata	ENDS
;	COMDAT pdata
pdata	SEGMENT
$pdata$??0?$_Vector_val@U?$_Simple_types@U?$tvec4@I$0A@@glm@@@std@@@std@@QEAA@XZ DD imagerel $LN3
	DD	imagerel $LN3+70
	DD	imagerel $unwind$??0?$_Vector_val@U?$_Simple_types@U?$tvec4@I$0A@@glm@@@std@@@std@@QEAA@XZ
pdata	ENDS
;	COMDAT pdata
pdata	SEGMENT
$pdata$?_Get_first@?$_Compressed_pair@V?$allocator@U?$tvec4@I$0A@@glm@@@std@@V?$_Vector_val@U?$_Simple_types@U?$tvec4@I$0A@@glm@@@std@@@2@$00@std@@QEAAAEAV?$allocator@U?$tvec4@I$0A@@glm@@@2@XZ DD imagerel $LN3
	DD	imagerel $LN3+13
	DD	imagerel $unwind$?_Get_first@?$_Compressed_pair@V?$allocator@U?$tvec4@I$0A@@glm@@@std@@V?$_Vector_val@U?$_Simple_types@U?$tvec4@I$0A@@glm@@@std@@@2@$00@std@@QEAAAEAV?$allocator@U?$tvec4@I$0A@@glm@@@2@XZ
pdata	ENDS
;	COMDAT pdata
pdata	SEGMENT
$pdata$?_Get_first@?$_Compressed_pair@V?$allocator@U?$tvec4@I$0A@@glm@@@std@@V?$_Vector_val@U?$_Simple_types@U?$tvec4@I$0A@@glm@@@std@@@2@$00@std@@QEBAAEBV?$allocator@U?$tvec4@I$0A@@glm@@@2@XZ DD imagerel $LN3
	DD	imagerel $LN3+13
	DD	imagerel $unwind$?_Get_first@?$_Compressed_pair@V?$allocator@U?$tvec4@I$0A@@glm@@@std@@V?$_Vector_val@U?$_Simple_types@U?$tvec4@I$0A@@glm@@@std@@@2@$00@std@@QEBAAEBV?$allocator@U?$tvec4@I$0A@@glm@@@2@XZ
pdata	ENDS
;	COMDAT pdata
pdata	SEGMENT
$pdata$??$equal@I$0A@Utvec4@glm@@@glm@@YA?AU?$tvec4@_N$0A@@0@AEBU?$tvec4@I$0A@@0@0@Z DD imagerel $LN9
	DD	imagerel $LN9+263
	DD	imagerel $unwind$??$equal@I$0A@Utvec4@glm@@@glm@@YA?AU?$tvec4@_N$0A@@0@AEBU?$tvec4@I$0A@@0@0@Z
pdata	ENDS
pdata	SEGMENT
$pdata$?test_Snorm3x10_1x2@@YAHXZ DD imagerel $LN9
	DD	imagerel $LN9+546
	DD	imagerel $unwind$?test_Snorm3x10_1x2@@YAHXZ
pdata	ENDS
pdata	SEGMENT
$pdata$?dtor$0@?0??test_Snorm3x10_1x2@@YAHXZ@4HA DD imagerel ?dtor$0@?0??test_Snorm3x10_1x2@@YAHXZ@4HA
	DD	imagerel ?dtor$0@?0??test_Snorm3x10_1x2@@YAHXZ@4HA+35
	DD	imagerel $unwind$?dtor$0@?0??test_Snorm3x10_1x2@@YAHXZ@4HA
pdata	ENDS
;	COMDAT pdata
pdata	SEGMENT
$pdata$??$epsilonEqual@M$0A@Utvec4@glm@@@glm@@YA?AU?$tvec4@_N$0A@@0@AEBU?$tvec4@M$0A@@0@0AEBM@Z DD imagerel $LN3
	DD	imagerel $LN3+120
	DD	imagerel $unwind$??$epsilonEqual@M$0A@Utvec4@glm@@@glm@@YA?AU?$tvec4@_N$0A@@0@AEBU?$tvec4@M$0A@@0@0AEBM@Z
pdata	ENDS
pdata	SEGMENT
$pdata$?test_Unorm3x10_1x2@@YAHXZ DD imagerel $LN9
	DD	imagerel $LN9+546
	DD	imagerel $unwind$?test_Unorm3x10_1x2@@YAHXZ
pdata	ENDS
pdata	SEGMENT
$pdata$?dtor$0@?0??test_Unorm3x10_1x2@@YAHXZ@4HA DD imagerel ?dtor$0@?0??test_Unorm3x10_1x2@@YAHXZ@4HA
	DD	imagerel ?dtor$0@?0??test_Unorm3x10_1x2@@YAHXZ@4HA+35
	DD	imagerel $unwind$?dtor$0@?0??test_Unorm3x10_1x2@@YAHXZ@4HA
pdata	ENDS
pdata	SEGMENT
$pdata$?test_F2x11_1x10@@YAHXZ DD imagerel $LN9
	DD	imagerel $LN9+521
	DD	imagerel $unwind$?test_F2x11_1x10@@YAHXZ
pdata	ENDS
pdata	SEGMENT
$pdata$?dtor$0@?0??test_F2x11_1x10@@YAHXZ@4HA DD imagerel ?dtor$0@?0??test_F2x11_1x10@@YAHXZ@4HA
	DD	imagerel ?dtor$0@?0??test_F2x11_1x10@@YAHXZ@4HA+35
	DD	imagerel $unwind$?dtor$0@?0??test_F2x11_1x10@@YAHXZ@4HA
pdata	ENDS
;	COMDAT pdata
pdata	SEGMENT
$pdata$??0?$allocator@U?$tvec3@M$0A@@glm@@@std@@QEAA@XZ DD imagerel $LN3
	DD	imagerel $LN3+13
	DD	imagerel $unwind$??0?$allocator@U?$tvec3@M$0A@@glm@@@std@@QEAA@XZ
pdata	ENDS
;	COMDAT pdata
pdata	SEGMENT
$pdata$?deallocate@?$allocator@U?$tvec3@M$0A@@glm@@@std@@QEAAXQEAU?$tvec3@M$0A@@glm@@_K@Z DD imagerel $LN13
	DD	imagerel $LN13+180
	DD	imagerel $unwind$?deallocate@?$allocator@U?$tvec3@M$0A@@glm@@@std@@QEAAXQEAU?$tvec3@M$0A@@glm@@_K@Z
pdata	ENDS
;	COMDAT pdata
pdata	SEGMENT
$pdata$?allocate@?$allocator@U?$tvec3@M$0A@@glm@@@std@@QEAAPEAU?$tvec3@M$0A@@glm@@_K@Z DD imagerel $LN3
	DD	imagerel $LN3+39
	DD	imagerel $unwind$?allocate@?$allocator@U?$tvec3@M$0A@@glm@@@std@@QEAAPEAU?$tvec3@M$0A@@glm@@_K@Z
pdata	ENDS
;	COMDAT pdata
pdata	SEGMENT
$pdata$?max_size@?$_Default_allocator_traits@V?$allocator@U?$tvec3@M$0A@@glm@@@std@@@std@@SA_KAEBV?$allocator@U?$tvec3@M$0A@@glm@@@2@@Z DD imagerel $LN3
	DD	imagerel $LN3+18
	DD	imagerel $unwind$?max_size@?$_Default_allocator_traits@V?$allocator@U?$tvec3@M$0A@@glm@@@std@@@std@@SA_KAEBV?$allocator@U?$tvec3@M$0A@@glm@@@2@@Z
pdata	ENDS
;	COMDAT pdata
pdata	SEGMENT
$pdata$??0?$vector@U?$tvec3@M$0A@@glm@@V?$allocator@U?$tvec3@M$0A@@glm@@@std@@@std@@QEAA@XZ DD imagerel $LN3
	DD	imagerel $LN3+75
	DD	imagerel $unwind$??0?$vector@U?$tvec3@M$0A@@glm@@V?$allocator@U?$tvec3@M$0A@@glm@@@std@@@std@@QEAA@XZ
pdata	ENDS
;	COMDAT pdata
pdata	SEGMENT
$pdata$??1?$vector@U?$tvec3@M$0A@@glm@@V?$allocator@U?$tvec3@M$0A@@glm@@@std@@@std@@QEAA@XZ DD imagerel $LN3
	DD	imagerel $LN3+136
	DD	imagerel $unwind$??1?$vector@U?$tvec3@M$0A@@glm@@V?$allocator@U?$tvec3@M$0A@@glm@@@std@@@std@@QEAA@XZ
pdata	ENDS
;	COMDAT pdata
pdata	SEGMENT
$pdata$?push_back@?$vector@U?$tvec3@M$0A@@glm@@V?$allocator@U?$tvec3@M$0A@@glm@@@std@@@std@@QEAAX$$QEAU?$tvec3@M$0A@@glm@@@Z DD imagerel $LN3
	DD	imagerel $LN3+44
	DD	imagerel $unwind$?push_back@?$vector@U?$tvec3@M$0A@@glm@@V?$allocator@U?$tvec3@M$0A@@glm@@@std@@@std@@QEAAX$$QEAU?$tvec3@M$0A@@glm@@@Z
pdata	ENDS
;	COMDAT pdata
pdata	SEGMENT
$pdata$?size@?$vector@U?$tvec3@M$0A@@glm@@V?$allocator@U?$tvec3@M$0A@@glm@@@std@@@std@@QEBA_KXZ DD imagerel $LN3
	DD	imagerel $LN3+54
	DD	imagerel $unwind$?size@?$vector@U?$tvec3@M$0A@@glm@@V?$allocator@U?$tvec3@M$0A@@glm@@@std@@@std@@QEBA_KXZ
pdata	ENDS
;	COMDAT pdata
pdata	SEGMENT
$pdata$?max_size@?$vector@U?$tvec3@M$0A@@glm@@V?$allocator@U?$tvec3@M$0A@@glm@@@std@@@std@@QEBA_KXZ DD imagerel $LN3
	DD	imagerel $LN3+67
	DD	imagerel $unwind$?max_size@?$vector@U?$tvec3@M$0A@@glm@@V?$allocator@U?$tvec3@M$0A@@glm@@@std@@@std@@QEBA_KXZ
pdata	ENDS
;	COMDAT pdata
pdata	SEGMENT
$pdata$?capacity@?$vector@U?$tvec3@M$0A@@glm@@V?$allocator@U?$tvec3@M$0A@@glm@@@std@@@std@@QEBA_KXZ DD imagerel $LN3
	DD	imagerel $LN3+54
	DD	imagerel $unwind$?capacity@?$vector@U?$tvec3@M$0A@@glm@@V?$allocator@U?$tvec3@M$0A@@glm@@@std@@@std@@QEBA_KXZ
pdata	ENDS
;	COMDAT pdata
pdata	SEGMENT
$pdata$??A?$vector@U?$tvec3@M$0A@@glm@@V?$allocator@U?$tvec3@M$0A@@glm@@@std@@@std@@QEAAAEAU?$tvec3@M$0A@@glm@@_K@Z DD imagerel $LN12
	DD	imagerel $LN12+203
	DD	imagerel $unwind$??A?$vector@U?$tvec3@M$0A@@glm@@V?$allocator@U?$tvec3@M$0A@@glm@@@std@@@std@@QEAAAEAU?$tvec3@M$0A@@glm@@_K@Z
pdata	ENDS
;	COMDAT pdata
pdata	SEGMENT
$pdata$?_Calculate_growth@?$vector@U?$tvec3@M$0A@@glm@@V?$allocator@U?$tvec3@M$0A@@glm@@@std@@@std@@AEBA_K_K@Z DD imagerel $LN5
	DD	imagerel $LN5+146
	DD	imagerel $unwind$?_Calculate_growth@?$vector@U?$tvec3@M$0A@@glm@@V?$allocator@U?$tvec3@M$0A@@glm@@@std@@@std@@AEBA_K_K@Z
pdata	ENDS
;	COMDAT pdata
pdata	SEGMENT
$pdata$?_Change_array@?$vector@U?$tvec3@M$0A@@glm@@V?$allocator@U?$tvec3@M$0A@@glm@@@std@@@std@@AEAAXQEAU?$tvec3@M$0A@@glm@@_K1@Z DD imagerel $LN4
	DD	imagerel $LN4+258
	DD	imagerel $unwind$?_Change_array@?$vector@U?$tvec3@M$0A@@glm@@V?$allocator@U?$tvec3@M$0A@@glm@@@std@@@std@@AEAAXQEAU?$tvec3@M$0A@@glm@@_K1@Z
pdata	ENDS
;	COMDAT pdata
pdata	SEGMENT
$pdata$?_Tidy@?$vector@U?$tvec3@M$0A@@glm@@V?$allocator@U?$tvec3@M$0A@@glm@@@std@@@std@@AEAAXXZ DD imagerel $LN4
	DD	imagerel $LN4+216
	DD	imagerel $unwind$?_Tidy@?$vector@U?$tvec3@M$0A@@glm@@V?$allocator@U?$tvec3@M$0A@@glm@@@std@@@std@@AEAAXXZ
pdata	ENDS
;	COMDAT pdata
pdata	SEGMENT
$pdata$?_Xlength@?$vector@U?$tvec3@M$0A@@glm@@V?$allocator@U?$tvec3@M$0A@@glm@@@std@@@std@@CAXXZ DD imagerel $LN3
	DD	imagerel $LN3+24
	DD	imagerel $unwind$?_Xlength@?$vector@U?$tvec3@M$0A@@glm@@V?$allocator@U?$tvec3@M$0A@@glm@@@std@@@std@@CAXXZ
pdata	ENDS
;	COMDAT pdata
pdata	SEGMENT
$pdata$?_Orphan_range_unlocked@?$vector@U?$tvec3@M$0A@@glm@@V?$allocator@U?$tvec3@M$0A@@glm@@@std@@@std@@AEBAXPEAU?$tvec3@M$0A@@glm@@0@Z DD imagerel $LN8
	DD	imagerel $LN8+161
	DD	imagerel $unwind$?_Orphan_range_unlocked@?$vector@U?$tvec3@M$0A@@glm@@V?$allocator@U?$tvec3@M$0A@@glm@@@std@@@std@@AEBAXPEAU?$tvec3@M$0A@@glm@@0@Z
pdata	ENDS
;	COMDAT pdata
pdata	SEGMENT
$pdata$?_Orphan_range_locked@?$vector@U?$tvec3@M$0A@@glm@@V?$allocator@U?$tvec3@M$0A@@glm@@@std@@@std@@AEBAXPEAU?$tvec3@M$0A@@glm@@0@Z DD imagerel $LN4
	DD	imagerel $LN4+112
	DD	imagerel $unwind$?_Orphan_range_locked@?$vector@U?$tvec3@M$0A@@glm@@V?$allocator@U?$tvec3@M$0A@@glm@@@std@@@std@@AEBAXPEAU?$tvec3@M$0A@@glm@@0@Z
pdata	ENDS
;	COMDAT pdata
pdata	SEGMENT
$pdata$?dtor$0@?0??_Orphan_range_locked@?$vector@U?$tvec3@M$0A@@glm@@V?$allocator@U?$tvec3@M$0A@@glm@@@std@@@std@@AEBAXPEAU?$tvec3@M$0A@@glm@@0@Z@4HA DD imagerel ?dtor$0@?0??_Orphan_range_locked@?$vector@U?$tvec3@M$0A@@glm@@V?$allocator@U?$tvec3@M$0A@@glm@@@std@@@std@@AEBAXPEAU?$tvec3@M$0A@@glm@@0@Z@4HA
	DD	imagerel ?dtor$0@?0??_Orphan_range_locked@?$vector@U?$tvec3@M$0A@@glm@@V?$allocator@U?$tvec3@M$0A@@glm@@@std@@@std@@AEBAXPEAU?$tvec3@M$0A@@glm@@0@Z@4HA+36
	DD	imagerel $unwind$?dtor$0@?0??_Orphan_range_locked@?$vector@U?$tvec3@M$0A@@glm@@V?$allocator@U?$tvec3@M$0A@@glm@@@std@@@std@@AEBAXPEAU?$tvec3@M$0A@@glm@@0@Z@4HA
pdata	ENDS
;	COMDAT pdata
pdata	SEGMENT
$pdata$?_Orphan_range@?$vector@U?$tvec3@M$0A@@glm@@V?$allocator@U?$tvec3@M$0A@@glm@@@std@@@std@@AEBAXPEAU?$tvec3@M$0A@@glm@@0@Z DD imagerel $LN3
	DD	imagerel $LN3+46
	DD	imagerel $unwind$?_Orphan_range@?$vector@U?$tvec3@M$0A@@glm@@V?$allocator@U?$tvec3@M$0A@@glm@@@std@@@std@@AEBAXPEAU?$tvec3@M$0A@@glm@@0@Z
pdata	ENDS
;	COMDAT pdata
pdata	SEGMENT
$pdata$?_Getal@?$vector@U?$tvec3@M$0A@@glm@@V?$allocator@U?$tvec3@M$0A@@glm@@@std@@@std@@AEAAAEAV?$allocator@U?$tvec3@M$0A@@glm@@@2@XZ DD imagerel $LN3
	DD	imagerel $LN3+29
	DD	imagerel $unwind$?_Getal@?$vector@U?$tvec3@M$0A@@glm@@V?$allocator@U?$tvec3@M$0A@@glm@@@std@@@std@@AEAAAEAV?$allocator@U?$tvec3@M$0A@@glm@@@2@XZ
pdata	ENDS
;	COMDAT pdata
pdata	SEGMENT
$pdata$?_Getal@?$vector@U?$tvec3@M$0A@@glm@@V?$allocator@U?$tvec3@M$0A@@glm@@@std@@@std@@AEBAAEBV?$allocator@U?$tvec3@M$0A@@glm@@@2@XZ DD imagerel $LN3
	DD	imagerel $LN3+29
	DD	imagerel $unwind$?_Getal@?$vector@U?$tvec3@M$0A@@glm@@V?$allocator@U?$tvec3@M$0A@@glm@@@std@@@std@@AEBAAEBV?$allocator@U?$tvec3@M$0A@@glm@@@2@XZ
pdata	ENDS
;	COMDAT pdata
pdata	SEGMENT
$pdata$??0?$_Vector_val@U?$_Simple_types@U?$tvec3@M$0A@@glm@@@std@@@std@@QEAA@XZ DD imagerel $LN3
	DD	imagerel $LN3+70
	DD	imagerel $unwind$??0?$_Vector_val@U?$_Simple_types@U?$tvec3@M$0A@@glm@@@std@@@std@@QEAA@XZ
pdata	ENDS
;	COMDAT pdata
pdata	SEGMENT
$pdata$?_Get_first@?$_Compressed_pair@V?$allocator@U?$tvec3@M$0A@@glm@@@std@@V?$_Vector_val@U?$_Simple_types@U?$tvec3@M$0A@@glm@@@std@@@2@$00@std@@QEAAAEAV?$allocator@U?$tvec3@M$0A@@glm@@@2@XZ DD imagerel $LN3
	DD	imagerel $LN3+13
	DD	imagerel $unwind$?_Get_first@?$_Compressed_pair@V?$allocator@U?$tvec3@M$0A@@glm@@@std@@V?$_Vector_val@U?$_Simple_types@U?$tvec3@M$0A@@glm@@@std@@@2@$00@std@@QEAAAEAV?$allocator@U?$tvec3@M$0A@@glm@@@2@XZ
pdata	ENDS
;	COMDAT pdata
pdata	SEGMENT
$pdata$?_Get_first@?$_Compressed_pair@V?$allocator@U?$tvec3@M$0A@@glm@@@std@@V?$_Vector_val@U?$_Simple_types@U?$tvec3@M$0A@@glm@@@std@@@2@$00@std@@QEBAAEBV?$allocator@U?$tvec3@M$0A@@glm@@@2@XZ DD imagerel $LN3
	DD	imagerel $LN3+13
	DD	imagerel $unwind$?_Get_first@?$_Compressed_pair@V?$allocator@U?$tvec3@M$0A@@glm@@@std@@V?$_Vector_val@U?$_Simple_types@U?$tvec3@M$0A@@glm@@@std@@@2@$00@std@@QEBAAEBV?$allocator@U?$tvec3@M$0A@@glm@@@2@XZ
pdata	ENDS
;	COMDAT pdata
pdata	SEGMENT
$pdata$??$equal@M$0A@Utvec3@glm@@@glm@@YA?AU?$tvec3@_N$0A@@0@AEBU?$tvec3@M$0A@@0@0@Z DD imagerel $LN9
	DD	imagerel $LN9+282
	DD	imagerel $unwind$??$equal@M$0A@Utvec3@glm@@@glm@@YA?AU?$tvec3@_N$0A@@0@AEBU?$tvec3@M$0A@@0@0@Z
pdata	ENDS
;	COMDAT pdata
pdata	SEGMENT
$pdata$?length@?$tvec3@_N$0A@@glm@@SAHXZ DD imagerel $LN3
	DD	imagerel $LN3+9
	DD	imagerel $unwind$?length@?$tvec3@_N$0A@@glm@@SAHXZ
pdata	ENDS
;	COMDAT pdata
pdata	SEGMENT
$pdata$??A?$tvec3@_N$0A@@glm@@QEAAAEA_NH@Z DD imagerel $LN5
	DD	imagerel $LN5+82
	DD	imagerel $unwind$??A?$tvec3@_N$0A@@glm@@QEAAAEA_NH@Z
pdata	ENDS
;	COMDAT pdata
pdata	SEGMENT
$pdata$??A?$tvec3@_N$0A@@glm@@QEBAAEB_NH@Z DD imagerel $LN5
	DD	imagerel $LN5+82
	DD	imagerel $unwind$??A?$tvec3@_N$0A@@glm@@QEBAAEB_NH@Z
pdata	ENDS
;	COMDAT pdata
pdata	SEGMENT
$pdata$??0?$tvec3@_N$0A@@glm@@QEAA@W4ctor@1@@Z DD imagerel $LN3
	DD	imagerel $LN3+17
	DD	imagerel $unwind$??0?$tvec3@_N$0A@@glm@@QEAA@W4ctor@1@@Z
pdata	ENDS
;	COMDAT pdata
pdata	SEGMENT
$pdata$??$all@$0A@Utvec3@glm@@@glm@@YA_NAEBU?$tvec3@_N$0A@@0@@Z DD imagerel $LN8
	DD	imagerel $LN8+116
	DD	imagerel $unwind$??$all@$0A@Utvec3@glm@@@glm@@YA_NAEBU?$tvec3@_N$0A@@0@@Z
pdata	ENDS
pdata	SEGMENT
$pdata$?test_F3x9_E1x5@@YAHXZ DD imagerel $LN9
	DD	imagerel $LN9+546
	DD	imagerel $unwind$?test_F3x9_E1x5@@YAHXZ
pdata	ENDS
pdata	SEGMENT
$pdata$?dtor$0@?0??test_F3x9_E1x5@@YAHXZ@4HA DD imagerel ?dtor$0@?0??test_F3x9_E1x5@@YAHXZ@4HA
	DD	imagerel ?dtor$0@?0??test_F3x9_E1x5@@YAHXZ@4HA+35
	DD	imagerel $unwind$?dtor$0@?0??test_F3x9_E1x5@@YAHXZ@4HA
pdata	ENDS
;	COMDAT pdata
pdata	SEGMENT
$pdata$??$epsilonEqual@M$0A@Utvec3@glm@@@glm@@YA?AU?$tvec3@_N$0A@@0@AEBU?$tvec3@M$0A@@0@0AEBM@Z DD imagerel $LN3
	DD	imagerel $LN3+114
	DD	imagerel $unwind$??$epsilonEqual@M$0A@Utvec3@glm@@@glm@@YA?AU?$tvec3@_N$0A@@0@AEBU?$tvec3@M$0A@@0@0AEBM@Z
pdata	ENDS
pdata	SEGMENT
$pdata$?test_packUnorm1x16@@YAHXZ DD imagerel $LN10
	DD	imagerel $LN10+497
	DD	imagerel $unwind$?test_packUnorm1x16@@YAHXZ
pdata	ENDS
pdata	SEGMENT
$pdata$?dtor$0@?0??test_packUnorm1x16@@YAHXZ@4HA DD imagerel ?dtor$0@?0??test_packUnorm1x16@@YAHXZ@4HA
	DD	imagerel ?dtor$0@?0??test_packUnorm1x16@@YAHXZ@4HA+35
	DD	imagerel $unwind$?dtor$0@?0??test_packUnorm1x16@@YAHXZ@4HA
pdata	ENDS
;	COMDAT pdata
pdata	SEGMENT
$pdata$??0?$allocator@U?$tvec1@M$0A@@glm@@@std@@QEAA@XZ DD imagerel $LN3
	DD	imagerel $LN3+13
	DD	imagerel $unwind$??0?$allocator@U?$tvec1@M$0A@@glm@@@std@@QEAA@XZ
pdata	ENDS
;	COMDAT pdata
pdata	SEGMENT
$pdata$?deallocate@?$allocator@U?$tvec1@M$0A@@glm@@@std@@QEAAXQEAU?$tvec1@M$0A@@glm@@_K@Z DD imagerel $LN13
	DD	imagerel $LN13+183
	DD	imagerel $unwind$?deallocate@?$allocator@U?$tvec1@M$0A@@glm@@@std@@QEAAXQEAU?$tvec1@M$0A@@glm@@_K@Z
pdata	ENDS
;	COMDAT pdata
pdata	SEGMENT
$pdata$?allocate@?$allocator@U?$tvec1@M$0A@@glm@@@std@@QEAAPEAU?$tvec1@M$0A@@glm@@_K@Z DD imagerel $LN3
	DD	imagerel $LN3+39
	DD	imagerel $unwind$?allocate@?$allocator@U?$tvec1@M$0A@@glm@@@std@@QEAAPEAU?$tvec1@M$0A@@glm@@_K@Z
pdata	ENDS
;	COMDAT pdata
pdata	SEGMENT
$pdata$?max_size@?$_Default_allocator_traits@V?$allocator@U?$tvec1@M$0A@@glm@@@std@@@std@@SA_KAEBV?$allocator@U?$tvec1@M$0A@@glm@@@2@@Z DD imagerel $LN3
	DD	imagerel $LN3+18
	DD	imagerel $unwind$?max_size@?$_Default_allocator_traits@V?$allocator@U?$tvec1@M$0A@@glm@@@std@@@std@@SA_KAEBV?$allocator@U?$tvec1@M$0A@@glm@@@2@@Z
pdata	ENDS
;	COMDAT pdata
pdata	SEGMENT
$pdata$??0?$vector@U?$tvec1@M$0A@@glm@@V?$allocator@U?$tvec1@M$0A@@glm@@@std@@@std@@QEAA@XZ DD imagerel $LN3
	DD	imagerel $LN3+75
	DD	imagerel $unwind$??0?$vector@U?$tvec1@M$0A@@glm@@V?$allocator@U?$tvec1@M$0A@@glm@@@std@@@std@@QEAA@XZ
pdata	ENDS
;	COMDAT pdata
pdata	SEGMENT
$pdata$??1?$vector@U?$tvec1@M$0A@@glm@@V?$allocator@U?$tvec1@M$0A@@glm@@@std@@@std@@QEAA@XZ DD imagerel $LN3
	DD	imagerel $LN3+136
	DD	imagerel $unwind$??1?$vector@U?$tvec1@M$0A@@glm@@V?$allocator@U?$tvec1@M$0A@@glm@@@std@@@std@@QEAA@XZ
pdata	ENDS
;	COMDAT pdata
pdata	SEGMENT
$pdata$?push_back@?$vector@U?$tvec1@M$0A@@glm@@V?$allocator@U?$tvec1@M$0A@@glm@@@std@@@std@@QEAAX$$QEAU?$tvec1@M$0A@@glm@@@Z DD imagerel $LN3
	DD	imagerel $LN3+44
	DD	imagerel $unwind$?push_back@?$vector@U?$tvec1@M$0A@@glm@@V?$allocator@U?$tvec1@M$0A@@glm@@@std@@@std@@QEAAX$$QEAU?$tvec1@M$0A@@glm@@@Z
pdata	ENDS
;	COMDAT pdata
pdata	SEGMENT
$pdata$?size@?$vector@U?$tvec1@M$0A@@glm@@V?$allocator@U?$tvec1@M$0A@@glm@@@std@@@std@@QEBA_KXZ DD imagerel $LN3
	DD	imagerel $LN3+48
	DD	imagerel $unwind$?size@?$vector@U?$tvec1@M$0A@@glm@@V?$allocator@U?$tvec1@M$0A@@glm@@@std@@@std@@QEBA_KXZ
pdata	ENDS
;	COMDAT pdata
pdata	SEGMENT
$pdata$?max_size@?$vector@U?$tvec1@M$0A@@glm@@V?$allocator@U?$tvec1@M$0A@@glm@@@std@@@std@@QEBA_KXZ DD imagerel $LN3
	DD	imagerel $LN3+67
	DD	imagerel $unwind$?max_size@?$vector@U?$tvec1@M$0A@@glm@@V?$allocator@U?$tvec1@M$0A@@glm@@@std@@@std@@QEBA_KXZ
pdata	ENDS
;	COMDAT pdata
pdata	SEGMENT
$pdata$?capacity@?$vector@U?$tvec1@M$0A@@glm@@V?$allocator@U?$tvec1@M$0A@@glm@@@std@@@std@@QEBA_KXZ DD imagerel $LN3
	DD	imagerel $LN3+48
	DD	imagerel $unwind$?capacity@?$vector@U?$tvec1@M$0A@@glm@@V?$allocator@U?$tvec1@M$0A@@glm@@@std@@@std@@QEBA_KXZ
pdata	ENDS
;	COMDAT pdata
pdata	SEGMENT
$pdata$??A?$vector@U?$tvec1@M$0A@@glm@@V?$allocator@U?$tvec1@M$0A@@glm@@@std@@@std@@QEAAAEAU?$tvec1@M$0A@@glm@@_K@Z DD imagerel $LN12
	DD	imagerel $LN12+200
	DD	imagerel $unwind$??A?$vector@U?$tvec1@M$0A@@glm@@V?$allocator@U?$tvec1@M$0A@@glm@@@std@@@std@@QEAAAEAU?$tvec1@M$0A@@glm@@_K@Z
pdata	ENDS
;	COMDAT pdata
pdata	SEGMENT
$pdata$?_Calculate_growth@?$vector@U?$tvec1@M$0A@@glm@@V?$allocator@U?$tvec1@M$0A@@glm@@@std@@@std@@AEBA_K_K@Z DD imagerel $LN5
	DD	imagerel $LN5+146
	DD	imagerel $unwind$?_Calculate_growth@?$vector@U?$tvec1@M$0A@@glm@@V?$allocator@U?$tvec1@M$0A@@glm@@@std@@@std@@AEBA_K_K@Z
pdata	ENDS
;	COMDAT pdata
pdata	SEGMENT
$pdata$?_Change_array@?$vector@U?$tvec1@M$0A@@glm@@V?$allocator@U?$tvec1@M$0A@@glm@@@std@@@std@@AEAAXQEAU?$tvec1@M$0A@@glm@@_K1@Z DD imagerel $LN4
	DD	imagerel $LN4+246
	DD	imagerel $unwind$?_Change_array@?$vector@U?$tvec1@M$0A@@glm@@V?$allocator@U?$tvec1@M$0A@@glm@@@std@@@std@@AEAAXQEAU?$tvec1@M$0A@@glm@@_K1@Z
pdata	ENDS
;	COMDAT pdata
pdata	SEGMENT
$pdata$?_Tidy@?$vector@U?$tvec1@M$0A@@glm@@V?$allocator@U?$tvec1@M$0A@@glm@@@std@@@std@@AEAAXXZ DD imagerel $LN4
	DD	imagerel $LN4+210
	DD	imagerel $unwind$?_Tidy@?$vector@U?$tvec1@M$0A@@glm@@V?$allocator@U?$tvec1@M$0A@@glm@@@std@@@std@@AEAAXXZ
pdata	ENDS
;	COMDAT pdata
pdata	SEGMENT
$pdata$?_Xlength@?$vector@U?$tvec1@M$0A@@glm@@V?$allocator@U?$tvec1@M$0A@@glm@@@std@@@std@@CAXXZ DD imagerel $LN3
	DD	imagerel $LN3+24
	DD	imagerel $unwind$?_Xlength@?$vector@U?$tvec1@M$0A@@glm@@V?$allocator@U?$tvec1@M$0A@@glm@@@std@@@std@@CAXXZ
pdata	ENDS
;	COMDAT pdata
pdata	SEGMENT
$pdata$?_Orphan_range_unlocked@?$vector@U?$tvec1@M$0A@@glm@@V?$allocator@U?$tvec1@M$0A@@glm@@@std@@@std@@AEBAXPEAU?$tvec1@M$0A@@glm@@0@Z DD imagerel $LN8
	DD	imagerel $LN8+161
	DD	imagerel $unwind$?_Orphan_range_unlocked@?$vector@U?$tvec1@M$0A@@glm@@V?$allocator@U?$tvec1@M$0A@@glm@@@std@@@std@@AEBAXPEAU?$tvec1@M$0A@@glm@@0@Z
pdata	ENDS
;	COMDAT pdata
pdata	SEGMENT
$pdata$?_Orphan_range_locked@?$vector@U?$tvec1@M$0A@@glm@@V?$allocator@U?$tvec1@M$0A@@glm@@@std@@@std@@AEBAXPEAU?$tvec1@M$0A@@glm@@0@Z DD imagerel $LN4
	DD	imagerel $LN4+112
	DD	imagerel $unwind$?_Orphan_range_locked@?$vector@U?$tvec1@M$0A@@glm@@V?$allocator@U?$tvec1@M$0A@@glm@@@std@@@std@@AEBAXPEAU?$tvec1@M$0A@@glm@@0@Z
pdata	ENDS
;	COMDAT pdata
pdata	SEGMENT
$pdata$?dtor$0@?0??_Orphan_range_locked@?$vector@U?$tvec1@M$0A@@glm@@V?$allocator@U?$tvec1@M$0A@@glm@@@std@@@std@@AEBAXPEAU?$tvec1@M$0A@@glm@@0@Z@4HA DD imagerel ?dtor$0@?0??_Orphan_range_locked@?$vector@U?$tvec1@M$0A@@glm@@V?$allocator@U?$tvec1@M$0A@@glm@@@std@@@std@@AEBAXPEAU?$tvec1@M$0A@@glm@@0@Z@4HA
	DD	imagerel ?dtor$0@?0??_Orphan_range_locked@?$vector@U?$tvec1@M$0A@@glm@@V?$allocator@U?$tvec1@M$0A@@glm@@@std@@@std@@AEBAXPEAU?$tvec1@M$0A@@glm@@0@Z@4HA+36
	DD	imagerel $unwind$?dtor$0@?0??_Orphan_range_locked@?$vector@U?$tvec1@M$0A@@glm@@V?$allocator@U?$tvec1@M$0A@@glm@@@std@@@std@@AEBAXPEAU?$tvec1@M$0A@@glm@@0@Z@4HA
pdata	ENDS
;	COMDAT pdata
pdata	SEGMENT
$pdata$?_Orphan_range@?$vector@U?$tvec1@M$0A@@glm@@V?$allocator@U?$tvec1@M$0A@@glm@@@std@@@std@@AEBAXPEAU?$tvec1@M$0A@@glm@@0@Z DD imagerel $LN3
	DD	imagerel $LN3+46
	DD	imagerel $unwind$?_Orphan_range@?$vector@U?$tvec1@M$0A@@glm@@V?$allocator@U?$tvec1@M$0A@@glm@@@std@@@std@@AEBAXPEAU?$tvec1@M$0A@@glm@@0@Z
pdata	ENDS
;	COMDAT pdata
pdata	SEGMENT
$pdata$?_Getal@?$vector@U?$tvec1@M$0A@@glm@@V?$allocator@U?$tvec1@M$0A@@glm@@@std@@@std@@AEAAAEAV?$allocator@U?$tvec1@M$0A@@glm@@@2@XZ DD imagerel $LN3
	DD	imagerel $LN3+29
	DD	imagerel $unwind$?_Getal@?$vector@U?$tvec1@M$0A@@glm@@V?$allocator@U?$tvec1@M$0A@@glm@@@std@@@std@@AEAAAEAV?$allocator@U?$tvec1@M$0A@@glm@@@2@XZ
pdata	ENDS
;	COMDAT pdata
pdata	SEGMENT
$pdata$?_Getal@?$vector@U?$tvec1@M$0A@@glm@@V?$allocator@U?$tvec1@M$0A@@glm@@@std@@@std@@AEBAAEBV?$allocator@U?$tvec1@M$0A@@glm@@@2@XZ DD imagerel $LN3
	DD	imagerel $LN3+29
	DD	imagerel $unwind$?_Getal@?$vector@U?$tvec1@M$0A@@glm@@V?$allocator@U?$tvec1@M$0A@@glm@@@std@@@std@@AEBAAEBV?$allocator@U?$tvec1@M$0A@@glm@@@2@XZ
pdata	ENDS
;	COMDAT pdata
pdata	SEGMENT
$pdata$??0?$_Vector_val@U?$_Simple_types@U?$tvec1@M$0A@@glm@@@std@@@std@@QEAA@XZ DD imagerel $LN3
	DD	imagerel $LN3+70
	DD	imagerel $unwind$??0?$_Vector_val@U?$_Simple_types@U?$tvec1@M$0A@@glm@@@std@@@std@@QEAA@XZ
pdata	ENDS
;	COMDAT pdata
pdata	SEGMENT
$pdata$?_Get_first@?$_Compressed_pair@V?$allocator@U?$tvec1@M$0A@@glm@@@std@@V?$_Vector_val@U?$_Simple_types@U?$tvec1@M$0A@@glm@@@std@@@2@$00@std@@QEAAAEAV?$allocator@U?$tvec1@M$0A@@glm@@@2@XZ DD imagerel $LN3
	DD	imagerel $LN3+13
	DD	imagerel $unwind$?_Get_first@?$_Compressed_pair@V?$allocator@U?$tvec1@M$0A@@glm@@@std@@V?$_Vector_val@U?$_Simple_types@U?$tvec1@M$0A@@glm@@@std@@@2@$00@std@@QEAAAEAV?$allocator@U?$tvec1@M$0A@@glm@@@2@XZ
pdata	ENDS
;	COMDAT pdata
pdata	SEGMENT
$pdata$?_Get_first@?$_Compressed_pair@V?$allocator@U?$tvec1@M$0A@@glm@@@std@@V?$_Vector_val@U?$_Simple_types@U?$tvec1@M$0A@@glm@@@std@@@2@$00@std@@QEBAAEBV?$allocator@U?$tvec1@M$0A@@glm@@@2@XZ DD imagerel $LN3
	DD	imagerel $LN3+13
	DD	imagerel $unwind$?_Get_first@?$_Compressed_pair@V?$allocator@U?$tvec1@M$0A@@glm@@@std@@V?$_Vector_val@U?$_Simple_types@U?$tvec1@M$0A@@glm@@@std@@@2@$00@std@@QEBAAEBV?$allocator@U?$tvec1@M$0A@@glm@@@2@XZ
pdata	ENDS
;	COMDAT pdata
pdata	SEGMENT
$pdata$?length@?$tvec1@M$0A@@glm@@SAHXZ DD imagerel $LN3
	DD	imagerel $LN3+9
	DD	imagerel $unwind$?length@?$tvec1@M$0A@@glm@@SAHXZ
pdata	ENDS
;	COMDAT pdata
pdata	SEGMENT
$pdata$??A?$tvec1@M$0A@@glm@@QEBAAEBMH@Z DD imagerel $LN5
	DD	imagerel $LN5+80
	DD	imagerel $unwind$??A?$tvec1@M$0A@@glm@@QEBAAEBMH@Z
pdata	ENDS
;	COMDAT pdata
pdata	SEGMENT
$pdata$??0?$tvec1@M$0A@@glm@@QEAA@M@Z DD imagerel $LN3
	DD	imagerel $LN3+34
	DD	imagerel $unwind$??0?$tvec1@M$0A@@glm@@QEAA@M@Z
pdata	ENDS
;	COMDAT pdata
pdata	SEGMENT
$pdata$??$epsilonEqual@M$0A@Utvec1@glm@@@glm@@YA?AU?$tvec1@_N$0A@@0@AEBU?$tvec1@M$0A@@0@0AEBM@Z DD imagerel $LN3
	DD	imagerel $LN3+114
	DD	imagerel $unwind$??$epsilonEqual@M$0A@Utvec1@glm@@@glm@@YA?AU?$tvec1@_N$0A@@0@AEBU?$tvec1@M$0A@@0@0AEBM@Z
pdata	ENDS
;	COMDAT pdata
pdata	SEGMENT
$pdata$?length@?$tvec1@_N$0A@@glm@@SAHXZ DD imagerel $LN3
	DD	imagerel $LN3+9
	DD	imagerel $unwind$?length@?$tvec1@_N$0A@@glm@@SAHXZ
pdata	ENDS
;	COMDAT pdata
pdata	SEGMENT
$pdata$??A?$tvec1@_N$0A@@glm@@QEAAAEA_NH@Z DD imagerel $LN5
	DD	imagerel $LN5+82
	DD	imagerel $unwind$??A?$tvec1@_N$0A@@glm@@QEAAAEA_NH@Z
pdata	ENDS
;	COMDAT pdata
pdata	SEGMENT
$pdata$??A?$tvec1@_N$0A@@glm@@QEBAAEB_NH@Z DD imagerel $LN5
	DD	imagerel $LN5+82
	DD	imagerel $unwind$??A?$tvec1@_N$0A@@glm@@QEBAAEB_NH@Z
pdata	ENDS
;	COMDAT pdata
pdata	SEGMENT
$pdata$??0?$tvec1@_N$0A@@glm@@QEAA@W4ctor@1@@Z DD imagerel $LN3
	DD	imagerel $LN3+17
	DD	imagerel $unwind$??0?$tvec1@_N$0A@@glm@@QEAA@W4ctor@1@@Z
pdata	ENDS
;	COMDAT pdata
pdata	SEGMENT
$pdata$??$all@$0A@Utvec1@glm@@@glm@@YA_NAEBU?$tvec1@_N$0A@@0@@Z DD imagerel $LN8
	DD	imagerel $LN8+116
	DD	imagerel $unwind$??$all@$0A@Utvec1@glm@@@glm@@YA_NAEBU?$tvec1@_N$0A@@0@@Z
pdata	ENDS
pdata	SEGMENT
$pdata$?test_packSnorm1x16@@YAHXZ DD imagerel $LN9
	DD	imagerel $LN9+462
	DD	imagerel $unwind$?test_packSnorm1x16@@YAHXZ
pdata	ENDS
pdata	SEGMENT
$pdata$?dtor$0@?0??test_packSnorm1x16@@YAHXZ@4HA DD imagerel ?dtor$0@?0??test_packSnorm1x16@@YAHXZ@4HA
	DD	imagerel ?dtor$0@?0??test_packSnorm1x16@@YAHXZ@4HA+35
	DD	imagerel $unwind$?dtor$0@?0??test_packSnorm1x16@@YAHXZ@4HA
pdata	ENDS
pdata	SEGMENT
$pdata$?test_packUnorm2x16@@YAHXZ DD imagerel $LN10
	DD	imagerel $LN10+476
	DD	imagerel $unwind$?test_packUnorm2x16@@YAHXZ
pdata	ENDS
pdata	SEGMENT
$pdata$?dtor$0@?0??test_packUnorm2x16@@YAHXZ@4HA DD imagerel ?dtor$0@?0??test_packUnorm2x16@@YAHXZ@4HA
	DD	imagerel ?dtor$0@?0??test_packUnorm2x16@@YAHXZ@4HA+35
	DD	imagerel $unwind$?dtor$0@?0??test_packUnorm2x16@@YAHXZ@4HA
pdata	ENDS
;	COMDAT pdata
pdata	SEGMENT
$pdata$??0?$allocator@U?$tvec2@M$0A@@glm@@@std@@QEAA@XZ DD imagerel $LN3
	DD	imagerel $LN3+13
	DD	imagerel $unwind$??0?$allocator@U?$tvec2@M$0A@@glm@@@std@@QEAA@XZ
pdata	ENDS
;	COMDAT pdata
pdata	SEGMENT
$pdata$?deallocate@?$allocator@U?$tvec2@M$0A@@glm@@@std@@QEAAXQEAU?$tvec2@M$0A@@glm@@_K@Z DD imagerel $LN13
	DD	imagerel $LN13+183
	DD	imagerel $unwind$?deallocate@?$allocator@U?$tvec2@M$0A@@glm@@@std@@QEAAXQEAU?$tvec2@M$0A@@glm@@_K@Z
pdata	ENDS
;	COMDAT pdata
pdata	SEGMENT
$pdata$?allocate@?$allocator@U?$tvec2@M$0A@@glm@@@std@@QEAAPEAU?$tvec2@M$0A@@glm@@_K@Z DD imagerel $LN3
	DD	imagerel $LN3+39
	DD	imagerel $unwind$?allocate@?$allocator@U?$tvec2@M$0A@@glm@@@std@@QEAAPEAU?$tvec2@M$0A@@glm@@_K@Z
pdata	ENDS
;	COMDAT pdata
pdata	SEGMENT
$pdata$?max_size@?$_Default_allocator_traits@V?$allocator@U?$tvec2@M$0A@@glm@@@std@@@std@@SA_KAEBV?$allocator@U?$tvec2@M$0A@@glm@@@2@@Z DD imagerel $LN3
	DD	imagerel $LN3+18
	DD	imagerel $unwind$?max_size@?$_Default_allocator_traits@V?$allocator@U?$tvec2@M$0A@@glm@@@std@@@std@@SA_KAEBV?$allocator@U?$tvec2@M$0A@@glm@@@2@@Z
pdata	ENDS
;	COMDAT pdata
pdata	SEGMENT
$pdata$??0?$vector@U?$tvec2@M$0A@@glm@@V?$allocator@U?$tvec2@M$0A@@glm@@@std@@@std@@QEAA@XZ DD imagerel $LN3
	DD	imagerel $LN3+75
	DD	imagerel $unwind$??0?$vector@U?$tvec2@M$0A@@glm@@V?$allocator@U?$tvec2@M$0A@@glm@@@std@@@std@@QEAA@XZ
pdata	ENDS
;	COMDAT pdata
pdata	SEGMENT
$pdata$??1?$vector@U?$tvec2@M$0A@@glm@@V?$allocator@U?$tvec2@M$0A@@glm@@@std@@@std@@QEAA@XZ DD imagerel $LN3
	DD	imagerel $LN3+136
	DD	imagerel $unwind$??1?$vector@U?$tvec2@M$0A@@glm@@V?$allocator@U?$tvec2@M$0A@@glm@@@std@@@std@@QEAA@XZ
pdata	ENDS
;	COMDAT pdata
pdata	SEGMENT
$pdata$?push_back@?$vector@U?$tvec2@M$0A@@glm@@V?$allocator@U?$tvec2@M$0A@@glm@@@std@@@std@@QEAAX$$QEAU?$tvec2@M$0A@@glm@@@Z DD imagerel $LN3
	DD	imagerel $LN3+44
	DD	imagerel $unwind$?push_back@?$vector@U?$tvec2@M$0A@@glm@@V?$allocator@U?$tvec2@M$0A@@glm@@@std@@@std@@QEAAX$$QEAU?$tvec2@M$0A@@glm@@@Z
pdata	ENDS
;	COMDAT pdata
pdata	SEGMENT
$pdata$?size@?$vector@U?$tvec2@M$0A@@glm@@V?$allocator@U?$tvec2@M$0A@@glm@@@std@@@std@@QEBA_KXZ DD imagerel $LN3
	DD	imagerel $LN3+48
	DD	imagerel $unwind$?size@?$vector@U?$tvec2@M$0A@@glm@@V?$allocator@U?$tvec2@M$0A@@glm@@@std@@@std@@QEBA_KXZ
pdata	ENDS
;	COMDAT pdata
pdata	SEGMENT
$pdata$?max_size@?$vector@U?$tvec2@M$0A@@glm@@V?$allocator@U?$tvec2@M$0A@@glm@@@std@@@std@@QEBA_KXZ DD imagerel $LN3
	DD	imagerel $LN3+67
	DD	imagerel $unwind$?max_size@?$vector@U?$tvec2@M$0A@@glm@@V?$allocator@U?$tvec2@M$0A@@glm@@@std@@@std@@QEBA_KXZ
pdata	ENDS
;	COMDAT pdata
pdata	SEGMENT
$pdata$?capacity@?$vector@U?$tvec2@M$0A@@glm@@V?$allocator@U?$tvec2@M$0A@@glm@@@std@@@std@@QEBA_KXZ DD imagerel $LN3
	DD	imagerel $LN3+48
	DD	imagerel $unwind$?capacity@?$vector@U?$tvec2@M$0A@@glm@@V?$allocator@U?$tvec2@M$0A@@glm@@@std@@@std@@QEBA_KXZ
pdata	ENDS
;	COMDAT pdata
pdata	SEGMENT
$pdata$??A?$vector@U?$tvec2@M$0A@@glm@@V?$allocator@U?$tvec2@M$0A@@glm@@@std@@@std@@QEAAAEAU?$tvec2@M$0A@@glm@@_K@Z DD imagerel $LN12
	DD	imagerel $LN12+200
	DD	imagerel $unwind$??A?$vector@U?$tvec2@M$0A@@glm@@V?$allocator@U?$tvec2@M$0A@@glm@@@std@@@std@@QEAAAEAU?$tvec2@M$0A@@glm@@_K@Z
pdata	ENDS
;	COMDAT pdata
pdata	SEGMENT
$pdata$?_Calculate_growth@?$vector@U?$tvec2@M$0A@@glm@@V?$allocator@U?$tvec2@M$0A@@glm@@@std@@@std@@AEBA_K_K@Z DD imagerel $LN5
	DD	imagerel $LN5+146
	DD	imagerel $unwind$?_Calculate_growth@?$vector@U?$tvec2@M$0A@@glm@@V?$allocator@U?$tvec2@M$0A@@glm@@@std@@@std@@AEBA_K_K@Z
pdata	ENDS
;	COMDAT pdata
pdata	SEGMENT
$pdata$?_Change_array@?$vector@U?$tvec2@M$0A@@glm@@V?$allocator@U?$tvec2@M$0A@@glm@@@std@@@std@@AEAAXQEAU?$tvec2@M$0A@@glm@@_K1@Z DD imagerel $LN4
	DD	imagerel $LN4+246
	DD	imagerel $unwind$?_Change_array@?$vector@U?$tvec2@M$0A@@glm@@V?$allocator@U?$tvec2@M$0A@@glm@@@std@@@std@@AEAAXQEAU?$tvec2@M$0A@@glm@@_K1@Z
pdata	ENDS
;	COMDAT pdata
pdata	SEGMENT
$pdata$?_Tidy@?$vector@U?$tvec2@M$0A@@glm@@V?$allocator@U?$tvec2@M$0A@@glm@@@std@@@std@@AEAAXXZ DD imagerel $LN4
	DD	imagerel $LN4+210
	DD	imagerel $unwind$?_Tidy@?$vector@U?$tvec2@M$0A@@glm@@V?$allocator@U?$tvec2@M$0A@@glm@@@std@@@std@@AEAAXXZ
pdata	ENDS
;	COMDAT pdata
pdata	SEGMENT
$pdata$?_Xlength@?$vector@U?$tvec2@M$0A@@glm@@V?$allocator@U?$tvec2@M$0A@@glm@@@std@@@std@@CAXXZ DD imagerel $LN3
	DD	imagerel $LN3+24
	DD	imagerel $unwind$?_Xlength@?$vector@U?$tvec2@M$0A@@glm@@V?$allocator@U?$tvec2@M$0A@@glm@@@std@@@std@@CAXXZ
pdata	ENDS
;	COMDAT pdata
pdata	SEGMENT
$pdata$?_Orphan_range_unlocked@?$vector@U?$tvec2@M$0A@@glm@@V?$allocator@U?$tvec2@M$0A@@glm@@@std@@@std@@AEBAXPEAU?$tvec2@M$0A@@glm@@0@Z DD imagerel $LN8
	DD	imagerel $LN8+161
	DD	imagerel $unwind$?_Orphan_range_unlocked@?$vector@U?$tvec2@M$0A@@glm@@V?$allocator@U?$tvec2@M$0A@@glm@@@std@@@std@@AEBAXPEAU?$tvec2@M$0A@@glm@@0@Z
pdata	ENDS
;	COMDAT pdata
pdata	SEGMENT
$pdata$?_Orphan_range_locked@?$vector@U?$tvec2@M$0A@@glm@@V?$allocator@U?$tvec2@M$0A@@glm@@@std@@@std@@AEBAXPEAU?$tvec2@M$0A@@glm@@0@Z DD imagerel $LN4
	DD	imagerel $LN4+112
	DD	imagerel $unwind$?_Orphan_range_locked@?$vector@U?$tvec2@M$0A@@glm@@V?$allocator@U?$tvec2@M$0A@@glm@@@std@@@std@@AEBAXPEAU?$tvec2@M$0A@@glm@@0@Z
pdata	ENDS
;	COMDAT pdata
pdata	SEGMENT
$pdata$?dtor$0@?0??_Orphan_range_locked@?$vector@U?$tvec2@M$0A@@glm@@V?$allocator@U?$tvec2@M$0A@@glm@@@std@@@std@@AEBAXPEAU?$tvec2@M$0A@@glm@@0@Z@4HA DD imagerel ?dtor$0@?0??_Orphan_range_locked@?$vector@U?$tvec2@M$0A@@glm@@V?$allocator@U?$tvec2@M$0A@@glm@@@std@@@std@@AEBAXPEAU?$tvec2@M$0A@@glm@@0@Z@4HA
	DD	imagerel ?dtor$0@?0??_Orphan_range_locked@?$vector@U?$tvec2@M$0A@@glm@@V?$allocator@U?$tvec2@M$0A@@glm@@@std@@@std@@AEBAXPEAU?$tvec2@M$0A@@glm@@0@Z@4HA+36
	DD	imagerel $unwind$?dtor$0@?0??_Orphan_range_locked@?$vector@U?$tvec2@M$0A@@glm@@V?$allocator@U?$tvec2@M$0A@@glm@@@std@@@std@@AEBAXPEAU?$tvec2@M$0A@@glm@@0@Z@4HA
pdata	ENDS
;	COMDAT pdata
pdata	SEGMENT
$pdata$?_Orphan_range@?$vector@U?$tvec2@M$0A@@glm@@V?$allocator@U?$tvec2@M$0A@@glm@@@std@@@std@@AEBAXPEAU?$tvec2@M$0A@@glm@@0@Z DD imagerel $LN3
	DD	imagerel $LN3+46
	DD	imagerel $unwind$?_Orphan_range@?$vector@U?$tvec2@M$0A@@glm@@V?$allocator@U?$tvec2@M$0A@@glm@@@std@@@std@@AEBAXPEAU?$tvec2@M$0A@@glm@@0@Z
pdata	ENDS
;	COMDAT pdata
pdata	SEGMENT
$pdata$?_Getal@?$vector@U?$tvec2@M$0A@@glm@@V?$allocator@U?$tvec2@M$0A@@glm@@@std@@@std@@AEAAAEAV?$allocator@U?$tvec2@M$0A@@glm@@@2@XZ DD imagerel $LN3
	DD	imagerel $LN3+29
	DD	imagerel $unwind$?_Getal@?$vector@U?$tvec2@M$0A@@glm@@V?$allocator@U?$tvec2@M$0A@@glm@@@std@@@std@@AEAAAEAV?$allocator@U?$tvec2@M$0A@@glm@@@2@XZ
pdata	ENDS
;	COMDAT pdata
pdata	SEGMENT
$pdata$?_Getal@?$vector@U?$tvec2@M$0A@@glm@@V?$allocator@U?$tvec2@M$0A@@glm@@@std@@@std@@AEBAAEBV?$allocator@U?$tvec2@M$0A@@glm@@@2@XZ DD imagerel $LN3
	DD	imagerel $LN3+29
	DD	imagerel $unwind$?_Getal@?$vector@U?$tvec2@M$0A@@glm@@V?$allocator@U?$tvec2@M$0A@@glm@@@std@@@std@@AEBAAEBV?$allocator@U?$tvec2@M$0A@@glm@@@2@XZ
pdata	ENDS
;	COMDAT pdata
pdata	SEGMENT
$pdata$??0?$_Vector_val@U?$_Simple_types@U?$tvec2@M$0A@@glm@@@std@@@std@@QEAA@XZ DD imagerel $LN3
	DD	imagerel $LN3+70
	DD	imagerel $unwind$??0?$_Vector_val@U?$_Simple_types@U?$tvec2@M$0A@@glm@@@std@@@std@@QEAA@XZ
pdata	ENDS
;	COMDAT pdata
pdata	SEGMENT
$pdata$?_Get_first@?$_Compressed_pair@V?$allocator@U?$tvec2@M$0A@@glm@@@std@@V?$_Vector_val@U?$_Simple_types@U?$tvec2@M$0A@@glm@@@std@@@2@$00@std@@QEAAAEAV?$allocator@U?$tvec2@M$0A@@glm@@@2@XZ DD imagerel $LN3
	DD	imagerel $LN3+13
	DD	imagerel $unwind$?_Get_first@?$_Compressed_pair@V?$allocator@U?$tvec2@M$0A@@glm@@@std@@V?$_Vector_val@U?$_Simple_types@U?$tvec2@M$0A@@glm@@@std@@@2@$00@std@@QEAAAEAV?$allocator@U?$tvec2@M$0A@@glm@@@2@XZ
pdata	ENDS
;	COMDAT pdata
pdata	SEGMENT
$pdata$?_Get_first@?$_Compressed_pair@V?$allocator@U?$tvec2@M$0A@@glm@@@std@@V?$_Vector_val@U?$_Simple_types@U?$tvec2@M$0A@@glm@@@std@@@2@$00@std@@QEBAAEBV?$allocator@U?$tvec2@M$0A@@glm@@@2@XZ DD imagerel $LN3
	DD	imagerel $LN3+13
	DD	imagerel $unwind$?_Get_first@?$_Compressed_pair@V?$allocator@U?$tvec2@M$0A@@glm@@@std@@V?$_Vector_val@U?$_Simple_types@U?$tvec2@M$0A@@glm@@@std@@@2@$00@std@@QEBAAEBV?$allocator@U?$tvec2@M$0A@@glm@@@2@XZ
pdata	ENDS
;	COMDAT pdata
pdata	SEGMENT
$pdata$??$epsilonEqual@M$0A@Utvec2@glm@@@glm@@YA?AU?$tvec2@_N$0A@@0@AEBU?$tvec2@M$0A@@0@0AEBM@Z DD imagerel $LN3
	DD	imagerel $LN3+114
	DD	imagerel $unwind$??$epsilonEqual@M$0A@Utvec2@glm@@@glm@@YA?AU?$tvec2@_N$0A@@0@AEBU?$tvec2@M$0A@@0@0AEBM@Z
pdata	ENDS
;	COMDAT pdata
pdata	SEGMENT
$pdata$?length@?$tvec2@_N$0A@@glm@@SAHXZ DD imagerel $LN3
	DD	imagerel $LN3+9
	DD	imagerel $unwind$?length@?$tvec2@_N$0A@@glm@@SAHXZ
pdata	ENDS
;	COMDAT pdata
pdata	SEGMENT
$pdata$??A?$tvec2@_N$0A@@glm@@QEAAAEA_NH@Z DD imagerel $LN5
	DD	imagerel $LN5+82
	DD	imagerel $unwind$??A?$tvec2@_N$0A@@glm@@QEAAAEA_NH@Z
pdata	ENDS
;	COMDAT pdata
pdata	SEGMENT
$pdata$??A?$tvec2@_N$0A@@glm@@QEBAAEB_NH@Z DD imagerel $LN5
	DD	imagerel $LN5+82
	DD	imagerel $unwind$??A?$tvec2@_N$0A@@glm@@QEBAAEB_NH@Z
pdata	ENDS
;	COMDAT pdata
pdata	SEGMENT
$pdata$??0?$tvec2@_N$0A@@glm@@QEAA@W4ctor@1@@Z DD imagerel $LN3
	DD	imagerel $LN3+17
	DD	imagerel $unwind$??0?$tvec2@_N$0A@@glm@@QEAA@W4ctor@1@@Z
pdata	ENDS
;	COMDAT pdata
pdata	SEGMENT
$pdata$??$all@$0A@Utvec2@glm@@@glm@@YA_NAEBU?$tvec2@_N$0A@@0@@Z DD imagerel $LN8
	DD	imagerel $LN8+116
	DD	imagerel $unwind$??$all@$0A@Utvec2@glm@@@glm@@YA_NAEBU?$tvec2@_N$0A@@0@@Z
pdata	ENDS
pdata	SEGMENT
$pdata$?test_packSnorm2x16@@YAHXZ DD imagerel $LN10
	DD	imagerel $LN10+476
	DD	imagerel $unwind$?test_packSnorm2x16@@YAHXZ
pdata	ENDS
pdata	SEGMENT
$pdata$?dtor$0@?0??test_packSnorm2x16@@YAHXZ@4HA DD imagerel ?dtor$0@?0??test_packSnorm2x16@@YAHXZ@4HA
	DD	imagerel ?dtor$0@?0??test_packSnorm2x16@@YAHXZ@4HA+35
	DD	imagerel $unwind$?dtor$0@?0??test_packSnorm2x16@@YAHXZ@4HA
pdata	ENDS
pdata	SEGMENT
$pdata$?test_packUnorm4x16@@YAHXZ DD imagerel $LN10
	DD	imagerel $LN10+500
	DD	imagerel $unwind$?test_packUnorm4x16@@YAHXZ
pdata	ENDS
pdata	SEGMENT
$pdata$?dtor$0@?0??test_packUnorm4x16@@YAHXZ@4HA DD imagerel ?dtor$0@?0??test_packUnorm4x16@@YAHXZ@4HA
	DD	imagerel ?dtor$0@?0??test_packUnorm4x16@@YAHXZ@4HA+35
	DD	imagerel $unwind$?dtor$0@?0??test_packUnorm4x16@@YAHXZ@4HA
pdata	ENDS
pdata	SEGMENT
$pdata$?test_packSnorm4x16@@YAHXZ DD imagerel $LN10
	DD	imagerel $LN10+565
	DD	imagerel $unwind$?test_packSnorm4x16@@YAHXZ
pdata	ENDS
pdata	SEGMENT
$pdata$?dtor$0@?0??test_packSnorm4x16@@YAHXZ@4HA DD imagerel ?dtor$0@?0??test_packSnorm4x16@@YAHXZ@4HA
	DD	imagerel ?dtor$0@?0??test_packSnorm4x16@@YAHXZ@4HA+35
	DD	imagerel $unwind$?dtor$0@?0??test_packSnorm4x16@@YAHXZ@4HA
pdata	ENDS
pdata	SEGMENT
$pdata$?test_packUnorm1x8@@YAHXZ DD imagerel $LN10
	DD	imagerel $LN10+460
	DD	imagerel $unwind$?test_packUnorm1x8@@YAHXZ
pdata	ENDS
pdata	SEGMENT
$pdata$?dtor$0@?0??test_packUnorm1x8@@YAHXZ@4HA DD imagerel ?dtor$0@?0??test_packUnorm1x8@@YAHXZ@4HA
	DD	imagerel ?dtor$0@?0??test_packUnorm1x8@@YAHXZ@4HA+35
	DD	imagerel $unwind$?dtor$0@?0??test_packUnorm1x8@@YAHXZ@4HA
pdata	ENDS
pdata	SEGMENT
$pdata$?test_packSnorm1x8@@YAHXZ DD imagerel $LN9
	DD	imagerel $LN9+430
	DD	imagerel $unwind$?test_packSnorm1x8@@YAHXZ
pdata	ENDS
pdata	SEGMENT
$pdata$?dtor$0@?0??test_packSnorm1x8@@YAHXZ@4HA DD imagerel ?dtor$0@?0??test_packSnorm1x8@@YAHXZ@4HA
	DD	imagerel ?dtor$0@?0??test_packSnorm1x8@@YAHXZ@4HA+35
	DD	imagerel $unwind$?dtor$0@?0??test_packSnorm1x8@@YAHXZ@4HA
pdata	ENDS
pdata	SEGMENT
$pdata$?test_packUnorm2x8@@YAHXZ DD imagerel $LN10
	DD	imagerel $LN10+441
	DD	imagerel $unwind$?test_packUnorm2x8@@YAHXZ
pdata	ENDS
pdata	SEGMENT
$pdata$?dtor$0@?0??test_packUnorm2x8@@YAHXZ@4HA DD imagerel ?dtor$0@?0??test_packUnorm2x8@@YAHXZ@4HA
	DD	imagerel ?dtor$0@?0??test_packUnorm2x8@@YAHXZ@4HA+35
	DD	imagerel $unwind$?dtor$0@?0??test_packUnorm2x8@@YAHXZ@4HA
pdata	ENDS
pdata	SEGMENT
$pdata$?test_packSnorm2x8@@YAHXZ DD imagerel $LN9
	DD	imagerel $LN9+401
	DD	imagerel $unwind$?test_packSnorm2x8@@YAHXZ
pdata	ENDS
pdata	SEGMENT
$pdata$?dtor$0@?0??test_packSnorm2x8@@YAHXZ@4HA DD imagerel ?dtor$0@?0??test_packSnorm2x8@@YAHXZ@4HA
	DD	imagerel ?dtor$0@?0??test_packSnorm2x8@@YAHXZ@4HA+35
	DD	imagerel $unwind$?dtor$0@?0??test_packSnorm2x8@@YAHXZ@4HA
pdata	ENDS
pdata	SEGMENT
$pdata$?test_packUnorm4x8@@YAHXZ DD imagerel $LN10
	DD	imagerel $LN10+499
	DD	imagerel $unwind$?test_packUnorm4x8@@YAHXZ
pdata	ENDS
pdata	SEGMENT
$pdata$?dtor$0@?0??test_packUnorm4x8@@YAHXZ@4HA DD imagerel ?dtor$0@?0??test_packUnorm4x8@@YAHXZ@4HA
	DD	imagerel ?dtor$0@?0??test_packUnorm4x8@@YAHXZ@4HA+35
	DD	imagerel $unwind$?dtor$0@?0??test_packUnorm4x8@@YAHXZ@4HA
pdata	ENDS
pdata	SEGMENT
$pdata$?test_packSnorm4x8@@YAHXZ DD imagerel $LN10
	DD	imagerel $LN10+499
	DD	imagerel $unwind$?test_packSnorm4x8@@YAHXZ
pdata	ENDS
pdata	SEGMENT
$pdata$?dtor$0@?0??test_packSnorm4x8@@YAHXZ@4HA DD imagerel ?dtor$0@?0??test_packSnorm4x8@@YAHXZ@4HA
	DD	imagerel ?dtor$0@?0??test_packSnorm4x8@@YAHXZ@4HA+35
	DD	imagerel $unwind$?dtor$0@?0??test_packSnorm4x8@@YAHXZ@4HA
pdata	ENDS
pdata	SEGMENT
$pdata$?test_packUnorm@@YAHXZ DD imagerel $LN10
	DD	imagerel $LN10+441
	DD	imagerel $unwind$?test_packUnorm@@YAHXZ
pdata	ENDS
pdata	SEGMENT
$pdata$?dtor$0@?0??test_packUnorm@@YAHXZ@4HA DD imagerel ?dtor$0@?0??test_packUnorm@@YAHXZ@4HA
	DD	imagerel ?dtor$0@?0??test_packUnorm@@YAHXZ@4HA+35
	DD	imagerel $unwind$?dtor$0@?0??test_packUnorm@@YAHXZ@4HA
pdata	ENDS
;	COMDAT pdata
pdata	SEGMENT
$pdata$??$packUnorm@GM$0A@Utvec2@glm@@@glm@@YA?AU?$tvec2@G$0A@@0@AEBU?$tvec2@M$0A@@0@@Z DD imagerel $LN3
	DD	imagerel $LN3+118
	DD	imagerel $unwind$??$packUnorm@GM$0A@Utvec2@glm@@@glm@@YA?AU?$tvec2@G$0A@@0@AEBU?$tvec2@M$0A@@0@@Z
pdata	ENDS
;	COMDAT pdata
pdata	SEGMENT
$pdata$??$unpackUnorm@GM$0A@Utvec2@glm@@@glm@@YA?AU?$tvec2@M$0A@@0@AEBU?$tvec2@G$0A@@0@@Z DD imagerel $LN3
	DD	imagerel $LN3+96
	DD	imagerel $unwind$??$unpackUnorm@GM$0A@Utvec2@glm@@@glm@@YA?AU?$tvec2@M$0A@@0@AEBU?$tvec2@G$0A@@0@@Z
pdata	ENDS
pdata	SEGMENT
$pdata$?test_packSnorm@@YAHXZ DD imagerel $LN10
	DD	imagerel $LN10+478
	DD	imagerel $unwind$?test_packSnorm@@YAHXZ
pdata	ENDS
pdata	SEGMENT
$pdata$?dtor$0@?0??test_packSnorm@@YAHXZ@4HA DD imagerel ?dtor$0@?0??test_packSnorm@@YAHXZ@4HA
	DD	imagerel ?dtor$0@?0??test_packSnorm@@YAHXZ@4HA+35
	DD	imagerel $unwind$?dtor$0@?0??test_packSnorm@@YAHXZ@4HA
pdata	ENDS
;	COMDAT pdata
pdata	SEGMENT
$pdata$??$packSnorm@FM$0A@Utvec2@glm@@@glm@@YA?AU?$tvec2@F$0A@@0@AEBU?$tvec2@M$0A@@0@@Z DD imagerel $LN3
	DD	imagerel $LN3+121
	DD	imagerel $unwind$??$packSnorm@FM$0A@Utvec2@glm@@@glm@@YA?AU?$tvec2@F$0A@@0@AEBU?$tvec2@M$0A@@0@@Z
pdata	ENDS
;	COMDAT pdata
pdata	SEGMENT
$pdata$??$unpackSnorm@FM$0A@Utvec2@glm@@@glm@@YA?AU?$tvec2@M$0A@@0@AEBU?$tvec2@F$0A@@0@@Z DD imagerel $LN3
	DD	imagerel $LN3+123
	DD	imagerel $unwind$??$unpackSnorm@FM$0A@Utvec2@glm@@@glm@@YA?AU?$tvec2@M$0A@@0@AEBU?$tvec2@F$0A@@0@@Z
pdata	ENDS
pdata	SEGMENT
$pdata$?test_packUnorm2x4@@YAHXZ DD imagerel $LN10
	DD	imagerel $LN10+435
	DD	imagerel $unwind$?test_packUnorm2x4@@YAHXZ
pdata	ENDS
pdata	SEGMENT
$pdata$?dtor$0@?0??test_packUnorm2x4@@YAHXZ@4HA DD imagerel ?dtor$0@?0??test_packUnorm2x4@@YAHXZ@4HA
	DD	imagerel ?dtor$0@?0??test_packUnorm2x4@@YAHXZ@4HA+35
	DD	imagerel $unwind$?dtor$0@?0??test_packUnorm2x4@@YAHXZ@4HA
pdata	ENDS
pdata	SEGMENT
$pdata$?test_packUnorm4x4@@YAHXZ DD imagerel $LN10
	DD	imagerel $LN10+496
	DD	imagerel $unwind$?test_packUnorm4x4@@YAHXZ
pdata	ENDS
pdata	SEGMENT
$pdata$?dtor$0@?0??test_packUnorm4x4@@YAHXZ@4HA DD imagerel ?dtor$0@?0??test_packUnorm4x4@@YAHXZ@4HA
	DD	imagerel ?dtor$0@?0??test_packUnorm4x4@@YAHXZ@4HA+35
	DD	imagerel $unwind$?dtor$0@?0??test_packUnorm4x4@@YAHXZ@4HA
pdata	ENDS
pdata	SEGMENT
$pdata$?test_packUnorm3x5_1x1@@YAHXZ DD imagerel $LN10
	DD	imagerel $LN10+496
	DD	imagerel $unwind$?test_packUnorm3x5_1x1@@YAHXZ
pdata	ENDS
pdata	SEGMENT
$pdata$?dtor$0@?0??test_packUnorm3x5_1x1@@YAHXZ@4HA DD imagerel ?dtor$0@?0??test_packUnorm3x5_1x1@@YAHXZ@4HA
	DD	imagerel ?dtor$0@?0??test_packUnorm3x5_1x1@@YAHXZ@4HA+35
	DD	imagerel $unwind$?dtor$0@?0??test_packUnorm3x5_1x1@@YAHXZ@4HA
pdata	ENDS
pdata	SEGMENT
$pdata$?test_packUnorm1x5_1x6_1x5@@YAHXZ DD imagerel $LN10
	DD	imagerel $LN10+464
	DD	imagerel $unwind$?test_packUnorm1x5_1x6_1x5@@YAHXZ
pdata	ENDS
pdata	SEGMENT
$pdata$?dtor$0@?0??test_packUnorm1x5_1x6_1x5@@YAHXZ@4HA DD imagerel ?dtor$0@?0??test_packUnorm1x5_1x6_1x5@@YAHXZ@4HA
	DD	imagerel ?dtor$0@?0??test_packUnorm1x5_1x6_1x5@@YAHXZ@4HA+35
	DD	imagerel $unwind$?dtor$0@?0??test_packUnorm1x5_1x6_1x5@@YAHXZ@4HA
pdata	ENDS
pdata	SEGMENT
$pdata$?test_packUnorm2x3_1x2@@YAHXZ DD imagerel $LN10
	DD	imagerel $LN10+463
	DD	imagerel $unwind$?test_packUnorm2x3_1x2@@YAHXZ
pdata	ENDS
pdata	SEGMENT
$pdata$?dtor$0@?0??test_packUnorm2x3_1x2@@YAHXZ@4HA DD imagerel ?dtor$0@?0??test_packUnorm2x3_1x2@@YAHXZ@4HA
	DD	imagerel ?dtor$0@?0??test_packUnorm2x3_1x2@@YAHXZ@4HA+35
	DD	imagerel $unwind$?dtor$0@?0??test_packUnorm2x3_1x2@@YAHXZ@4HA
pdata	ENDS
pdata	SEGMENT
$pdata$main DD	imagerel $LN3
	DD	imagerel $LN3+483
	DD	imagerel $unwind$main
pdata	ENDS
;	COMDAT pdata
pdata	SEGMENT
$pdata$??$move@AEAU?$tvec2@M$0A@@glm@@@std@@YA$$QEAU?$tvec2@M$0A@@glm@@AEAU12@@Z DD imagerel $LN3
	DD	imagerel $LN3+13
	DD	imagerel $unwind$??$move@AEAU?$tvec2@M$0A@@glm@@@std@@YA$$QEAU?$tvec2@M$0A@@glm@@AEAU12@@Z
pdata	ENDS
;	COMDAT pdata
pdata	SEGMENT
$pdata$??$emplace_back@U?$tvec2@M$0A@@glm@@@?$vector@U?$tvec2@M$0A@@glm@@V?$allocator@U?$tvec2@M$0A@@glm@@@std@@@std@@QEAA?A_T$$QEAU?$tvec2@M$0A@@glm@@@Z DD imagerel $LN3
	DD	imagerel $LN3+49
	DD	imagerel $unwind$??$emplace_back@U?$tvec2@M$0A@@glm@@@?$vector@U?$tvec2@M$0A@@glm@@V?$allocator@U?$tvec2@M$0A@@glm@@@std@@@std@@QEAA?A_T$$QEAU?$tvec2@M$0A@@glm@@@Z
pdata	ENDS
;	COMDAT pdata
pdata	SEGMENT
$pdata$??$forward@U?$tvec2@M$0A@@glm@@@std@@YA$$QEAU?$tvec2@M$0A@@glm@@AEAU12@@Z DD imagerel $LN3
	DD	imagerel $LN3+13
	DD	imagerel $unwind$??$forward@U?$tvec2@M$0A@@glm@@@std@@YA$$QEAU?$tvec2@M$0A@@glm@@AEAU12@@Z
pdata	ENDS
;	COMDAT pdata
pdata	SEGMENT
$pdata$??$_Emplace_one_at_back@U?$tvec2@M$0A@@glm@@@?$vector@U?$tvec2@M$0A@@glm@@V?$allocator@U?$tvec2@M$0A@@glm@@@std@@@std@@AEAAAEAU?$tvec2@M$0A@@glm@@$$QEAU23@@Z DD imagerel $LN4
	DD	imagerel $LN4+120
	DD	imagerel $unwind$??$_Emplace_one_at_back@U?$tvec2@M$0A@@glm@@@?$vector@U?$tvec2@M$0A@@glm@@V?$allocator@U?$tvec2@M$0A@@glm@@@std@@@std@@AEAAAEAU?$tvec2@M$0A@@glm@@$$QEAU23@@Z
pdata	ENDS
;	COMDAT pdata
pdata	SEGMENT
$pdata$?allocate@?$allocator@U_Container_proxy@std@@@std@@QEAAPEAU_Container_proxy@2@_K@Z DD imagerel $LN3
	DD	imagerel $LN3+39
	DD	imagerel $unwind$?allocate@?$allocator@U_Container_proxy@std@@@std@@QEAAPEAU_Container_proxy@2@_K@Z
pdata	ENDS
;	COMDAT pdata
pdata	SEGMENT
$pdata$??$?0U?$tvec2@M$0A@@glm@@@?$allocator@U_Container_proxy@std@@@std@@QEAA@AEBV?$allocator@U?$tvec2@M$0A@@glm@@@1@@Z DD imagerel $LN3
	DD	imagerel $LN3+18
	DD	imagerel $unwind$??$?0U?$tvec2@M$0A@@glm@@@?$allocator@U_Container_proxy@std@@@std@@QEAA@AEBV?$allocator@U?$tvec2@M$0A@@glm@@@1@@Z
pdata	ENDS
;	COMDAT pdata
pdata	SEGMENT
$pdata$??$exchange@PEAU_Container_proxy@std@@$$T@std@@YAPEAU_Container_proxy@0@AEAPEAU10@$$QEA$$T@Z DD imagerel $LN3
	DD	imagerel $LN3+53
	DD	imagerel $unwind$??$exchange@PEAU_Container_proxy@std@@$$T@std@@YAPEAU_Container_proxy@0@AEAPEAU10@$$QEA$$T@Z
pdata	ENDS
;	COMDAT pdata
pdata	SEGMENT
$pdata$??$_Delete_plain_internal@V?$allocator@U_Container_proxy@std@@@std@@@std@@YAXAEAV?$allocator@U_Container_proxy@std@@@0@QEAU_Container_proxy@0@@Z DD imagerel $LN3
	DD	imagerel $LN3+36
	DD	imagerel $unwind$??$_Delete_plain_internal@V?$allocator@U_Container_proxy@std@@@std@@@std@@YAXAEAV?$allocator@U_Container_proxy@std@@@0@QEAU_Container_proxy@0@@Z
pdata	ENDS
;	COMDAT pdata
pdata	SEGMENT
$pdata$??$?0$$V@?$_Compressed_pair@V?$allocator@U?$tvec2@M$0A@@glm@@@std@@V?$_Vector_val@U?$_Simple_types@U?$tvec2@M$0A@@glm@@@std@@@2@$00@std@@QEAA@U_Zero_then_variadic_args_t@1@@Z DD imagerel $LN3
	DD	imagerel $LN3+48
	DD	imagerel $unwind$??$?0$$V@?$_Compressed_pair@V?$allocator@U?$tvec2@M$0A@@glm@@@std@@V?$_Vector_val@U?$_Simple_types@U?$tvec2@M$0A@@glm@@@std@@@2@$00@std@@QEAA@U_Zero_then_variadic_args_t@1@@Z
pdata	ENDS
;	COMDAT pdata
pdata	SEGMENT
$pdata$??$_Alloc_proxy@V?$allocator@U_Container_proxy@std@@@std@@@_Container_base12@std@@QEAAX$$QEAV?$allocator@U_Container_proxy@std@@@1@@Z DD imagerel $LN3
	DD	imagerel $LN3+100
	DD	imagerel $unwind$??$_Alloc_proxy@V?$allocator@U_Container_proxy@std@@@std@@@_Container_base12@std@@QEAAX$$QEAV?$allocator@U_Container_proxy@std@@@1@@Z
pdata	ENDS
;	COMDAT pdata
pdata	SEGMENT
$pdata$??$move@AEAU?$tvec1@M$0A@@glm@@@std@@YA$$QEAU?$tvec1@M$0A@@glm@@AEAU12@@Z DD imagerel $LN3
	DD	imagerel $LN3+13
	DD	imagerel $unwind$??$move@AEAU?$tvec1@M$0A@@glm@@@std@@YA$$QEAU?$tvec1@M$0A@@glm@@AEAU12@@Z
pdata	ENDS
;	COMDAT pdata
pdata	SEGMENT
$pdata$??$emplace_back@U?$tvec1@M$0A@@glm@@@?$vector@U?$tvec1@M$0A@@glm@@V?$allocator@U?$tvec1@M$0A@@glm@@@std@@@std@@QEAA?A_T$$QEAU?$tvec1@M$0A@@glm@@@Z DD imagerel $LN3
	DD	imagerel $LN3+49
	DD	imagerel $unwind$??$emplace_back@U?$tvec1@M$0A@@glm@@@?$vector@U?$tvec1@M$0A@@glm@@V?$allocator@U?$tvec1@M$0A@@glm@@@std@@@std@@QEAA?A_T$$QEAU?$tvec1@M$0A@@glm@@@Z
pdata	ENDS
;	COMDAT pdata
pdata	SEGMENT
$pdata$??$forward@U?$tvec1@M$0A@@glm@@@std@@YA$$QEAU?$tvec1@M$0A@@glm@@AEAU12@@Z DD imagerel $LN3
	DD	imagerel $LN3+13
	DD	imagerel $unwind$??$forward@U?$tvec1@M$0A@@glm@@@std@@YA$$QEAU?$tvec1@M$0A@@glm@@AEAU12@@Z
pdata	ENDS
;	COMDAT pdata
pdata	SEGMENT
$pdata$??$_Emplace_one_at_back@U?$tvec1@M$0A@@glm@@@?$vector@U?$tvec1@M$0A@@glm@@V?$allocator@U?$tvec1@M$0A@@glm@@@std@@@std@@AEAAAEAU?$tvec1@M$0A@@glm@@$$QEAU23@@Z DD imagerel $LN4
	DD	imagerel $LN4+120
	DD	imagerel $unwind$??$_Emplace_one_at_back@U?$tvec1@M$0A@@glm@@@?$vector@U?$tvec1@M$0A@@glm@@V?$allocator@U?$tvec1@M$0A@@glm@@@std@@@std@@AEAAAEAU?$tvec1@M$0A@@glm@@$$QEAU23@@Z
pdata	ENDS
;	COMDAT pdata
pdata	SEGMENT
$pdata$??$?0U?$tvec1@M$0A@@glm@@@?$allocator@U_Container_proxy@std@@@std@@QEAA@AEBV?$allocator@U?$tvec1@M$0A@@glm@@@1@@Z DD imagerel $LN3
	DD	imagerel $LN3+18
	DD	imagerel $unwind$??$?0U?$tvec1@M$0A@@glm@@@?$allocator@U_Container_proxy@std@@@std@@QEAA@AEBV?$allocator@U?$tvec1@M$0A@@glm@@@1@@Z
pdata	ENDS
;	COMDAT pdata
pdata	SEGMENT
$pdata$??$?0$$V@?$_Compressed_pair@V?$allocator@U?$tvec1@M$0A@@glm@@@std@@V?$_Vector_val@U?$_Simple_types@U?$tvec1@M$0A@@glm@@@std@@@2@$00@std@@QEAA@U_Zero_then_variadic_args_t@1@@Z DD imagerel $LN3
	DD	imagerel $LN3+48
	DD	imagerel $unwind$??$?0$$V@?$_Compressed_pair@V?$allocator@U?$tvec1@M$0A@@glm@@@std@@V?$_Vector_val@U?$_Simple_types@U?$tvec1@M$0A@@glm@@@std@@@2@$00@std@@QEAA@U_Zero_then_variadic_args_t@1@@Z
pdata	ENDS
;	COMDAT pdata
pdata	SEGMENT
$pdata$??$move@AEAU?$tvec3@M$0A@@glm@@@std@@YA$$QEAU?$tvec3@M$0A@@glm@@AEAU12@@Z DD imagerel $LN3
	DD	imagerel $LN3+13
	DD	imagerel $unwind$??$move@AEAU?$tvec3@M$0A@@glm@@@std@@YA$$QEAU?$tvec3@M$0A@@glm@@AEAU12@@Z
pdata	ENDS
;	COMDAT pdata
pdata	SEGMENT
$pdata$??$emplace_back@U?$tvec3@M$0A@@glm@@@?$vector@U?$tvec3@M$0A@@glm@@V?$allocator@U?$tvec3@M$0A@@glm@@@std@@@std@@QEAA?A_T$$QEAU?$tvec3@M$0A@@glm@@@Z DD imagerel $LN3
	DD	imagerel $LN3+49
	DD	imagerel $unwind$??$emplace_back@U?$tvec3@M$0A@@glm@@@?$vector@U?$tvec3@M$0A@@glm@@V?$allocator@U?$tvec3@M$0A@@glm@@@std@@@std@@QEAA?A_T$$QEAU?$tvec3@M$0A@@glm@@@Z
pdata	ENDS
;	COMDAT pdata
pdata	SEGMENT
$pdata$??$forward@U?$tvec3@M$0A@@glm@@@std@@YA$$QEAU?$tvec3@M$0A@@glm@@AEAU12@@Z DD imagerel $LN3
	DD	imagerel $LN3+13
	DD	imagerel $unwind$??$forward@U?$tvec3@M$0A@@glm@@@std@@YA$$QEAU?$tvec3@M$0A@@glm@@AEAU12@@Z
pdata	ENDS
;	COMDAT pdata
pdata	SEGMENT
$pdata$??$_Emplace_one_at_back@U?$tvec3@M$0A@@glm@@@?$vector@U?$tvec3@M$0A@@glm@@V?$allocator@U?$tvec3@M$0A@@glm@@@std@@@std@@AEAAAEAU?$tvec3@M$0A@@glm@@$$QEAU23@@Z DD imagerel $LN4
	DD	imagerel $LN4+120
	DD	imagerel $unwind$??$_Emplace_one_at_back@U?$tvec3@M$0A@@glm@@@?$vector@U?$tvec3@M$0A@@glm@@V?$allocator@U?$tvec3@M$0A@@glm@@@std@@@std@@AEAAAEAU?$tvec3@M$0A@@glm@@$$QEAU23@@Z
pdata	ENDS
;	COMDAT pdata
pdata	SEGMENT
$pdata$??$?0U?$tvec3@M$0A@@glm@@@?$allocator@U_Container_proxy@std@@@std@@QEAA@AEBV?$allocator@U?$tvec3@M$0A@@glm@@@1@@Z DD imagerel $LN3
	DD	imagerel $LN3+18
	DD	imagerel $unwind$??$?0U?$tvec3@M$0A@@glm@@@?$allocator@U_Container_proxy@std@@@std@@QEAA@AEBV?$allocator@U?$tvec3@M$0A@@glm@@@1@@Z
pdata	ENDS
;	COMDAT pdata
pdata	SEGMENT
$pdata$??$?0$$V@?$_Compressed_pair@V?$allocator@U?$tvec3@M$0A@@glm@@@std@@V?$_Vector_val@U?$_Simple_types@U?$tvec3@M$0A@@glm@@@std@@@2@$00@std@@QEAA@U_Zero_then_variadic_args_t@1@@Z DD imagerel $LN3
	DD	imagerel $LN3+48
	DD	imagerel $unwind$??$?0$$V@?$_Compressed_pair@V?$allocator@U?$tvec3@M$0A@@glm@@@std@@V?$_Vector_val@U?$_Simple_types@U?$tvec3@M$0A@@glm@@@std@@@2@$00@std@@QEAA@U_Zero_then_variadic_args_t@1@@Z
pdata	ENDS
;	COMDAT pdata
pdata	SEGMENT
$pdata$??$move@AEAU?$tvec4@I$0A@@glm@@@std@@YA$$QEAU?$tvec4@I$0A@@glm@@AEAU12@@Z DD imagerel $LN3
	DD	imagerel $LN3+13
	DD	imagerel $unwind$??$move@AEAU?$tvec4@I$0A@@glm@@@std@@YA$$QEAU?$tvec4@I$0A@@glm@@AEAU12@@Z
pdata	ENDS
;	COMDAT pdata
pdata	SEGMENT
$pdata$??$emplace_back@U?$tvec4@I$0A@@glm@@@?$vector@U?$tvec4@I$0A@@glm@@V?$allocator@U?$tvec4@I$0A@@glm@@@std@@@std@@QEAA?A_T$$QEAU?$tvec4@I$0A@@glm@@@Z DD imagerel $LN3
	DD	imagerel $LN3+49
	DD	imagerel $unwind$??$emplace_back@U?$tvec4@I$0A@@glm@@@?$vector@U?$tvec4@I$0A@@glm@@V?$allocator@U?$tvec4@I$0A@@glm@@@std@@@std@@QEAA?A_T$$QEAU?$tvec4@I$0A@@glm@@@Z
pdata	ENDS
;	COMDAT pdata
pdata	SEGMENT
$pdata$??$forward@U?$tvec4@I$0A@@glm@@@std@@YA$$QEAU?$tvec4@I$0A@@glm@@AEAU12@@Z DD imagerel $LN3
	DD	imagerel $LN3+13
	DD	imagerel $unwind$??$forward@U?$tvec4@I$0A@@glm@@@std@@YA$$QEAU?$tvec4@I$0A@@glm@@AEAU12@@Z
pdata	ENDS
;	COMDAT pdata
pdata	SEGMENT
$pdata$??$_Emplace_one_at_back@U?$tvec4@I$0A@@glm@@@?$vector@U?$tvec4@I$0A@@glm@@V?$allocator@U?$tvec4@I$0A@@glm@@@std@@@std@@AEAAAEAU?$tvec4@I$0A@@glm@@$$QEAU23@@Z DD imagerel $LN4
	DD	imagerel $LN4+120
	DD	imagerel $unwind$??$_Emplace_one_at_back@U?$tvec4@I$0A@@glm@@@?$vector@U?$tvec4@I$0A@@glm@@V?$allocator@U?$tvec4@I$0A@@glm@@@std@@@std@@AEAAAEAU?$tvec4@I$0A@@glm@@$$QEAU23@@Z
pdata	ENDS
;	COMDAT pdata
pdata	SEGMENT
$pdata$??$?0U?$tvec4@I$0A@@glm@@@?$allocator@U_Container_proxy@std@@@std@@QEAA@AEBV?$allocator@U?$tvec4@I$0A@@glm@@@1@@Z DD imagerel $LN3
	DD	imagerel $LN3+18
	DD	imagerel $unwind$??$?0U?$tvec4@I$0A@@glm@@@?$allocator@U_Container_proxy@std@@@std@@QEAA@AEBV?$allocator@U?$tvec4@I$0A@@glm@@@1@@Z
pdata	ENDS
;	COMDAT pdata
pdata	SEGMENT
$pdata$??$?0$$V@?$_Compressed_pair@V?$allocator@U?$tvec4@I$0A@@glm@@@std@@V?$_Vector_val@U?$_Simple_types@U?$tvec4@I$0A@@glm@@@std@@@2@$00@std@@QEAA@U_Zero_then_variadic_args_t@1@@Z DD imagerel $LN3
	DD	imagerel $LN3+48
	DD	imagerel $unwind$??$?0$$V@?$_Compressed_pair@V?$allocator@U?$tvec4@I$0A@@glm@@@std@@V?$_Vector_val@U?$_Simple_types@U?$tvec4@I$0A@@glm@@@std@@@2@$00@std@@QEAA@U_Zero_then_variadic_args_t@1@@Z
pdata	ENDS
;	COMDAT pdata
pdata	SEGMENT
$pdata$??$move@AEAU?$tvec4@H$0A@@glm@@@std@@YA$$QEAU?$tvec4@H$0A@@glm@@AEAU12@@Z DD imagerel $LN3
	DD	imagerel $LN3+13
	DD	imagerel $unwind$??$move@AEAU?$tvec4@H$0A@@glm@@@std@@YA$$QEAU?$tvec4@H$0A@@glm@@AEAU12@@Z
pdata	ENDS
;	COMDAT pdata
pdata	SEGMENT
$pdata$??$emplace_back@U?$tvec4@H$0A@@glm@@@?$vector@U?$tvec4@H$0A@@glm@@V?$allocator@U?$tvec4@H$0A@@glm@@@std@@@std@@QEAA?A_T$$QEAU?$tvec4@H$0A@@glm@@@Z DD imagerel $LN3
	DD	imagerel $LN3+49
	DD	imagerel $unwind$??$emplace_back@U?$tvec4@H$0A@@glm@@@?$vector@U?$tvec4@H$0A@@glm@@V?$allocator@U?$tvec4@H$0A@@glm@@@std@@@std@@QEAA?A_T$$QEAU?$tvec4@H$0A@@glm@@@Z
pdata	ENDS
;	COMDAT pdata
pdata	SEGMENT
$pdata$??$forward@U?$tvec4@H$0A@@glm@@@std@@YA$$QEAU?$tvec4@H$0A@@glm@@AEAU12@@Z DD imagerel $LN3
	DD	imagerel $LN3+13
	DD	imagerel $unwind$??$forward@U?$tvec4@H$0A@@glm@@@std@@YA$$QEAU?$tvec4@H$0A@@glm@@AEAU12@@Z
pdata	ENDS
;	COMDAT pdata
pdata	SEGMENT
$pdata$??$_Emplace_one_at_back@U?$tvec4@H$0A@@glm@@@?$vector@U?$tvec4@H$0A@@glm@@V?$allocator@U?$tvec4@H$0A@@glm@@@std@@@std@@AEAAAEAU?$tvec4@H$0A@@glm@@$$QEAU23@@Z DD imagerel $LN4
	DD	imagerel $LN4+120
	DD	imagerel $unwind$??$_Emplace_one_at_back@U?$tvec4@H$0A@@glm@@@?$vector@U?$tvec4@H$0A@@glm@@V?$allocator@U?$tvec4@H$0A@@glm@@@std@@@std@@AEAAAEAU?$tvec4@H$0A@@glm@@$$QEAU23@@Z
pdata	ENDS
;	COMDAT pdata
pdata	SEGMENT
$pdata$??$?0U?$tvec4@H$0A@@glm@@@?$allocator@U_Container_proxy@std@@@std@@QEAA@AEBV?$allocator@U?$tvec4@H$0A@@glm@@@1@@Z DD imagerel $LN3
	DD	imagerel $LN3+18
	DD	imagerel $unwind$??$?0U?$tvec4@H$0A@@glm@@@?$allocator@U_Container_proxy@std@@@std@@QEAA@AEBV?$allocator@U?$tvec4@H$0A@@glm@@@1@@Z
pdata	ENDS
;	COMDAT pdata
pdata	SEGMENT
$pdata$??$?0$$V@?$_Compressed_pair@V?$allocator@U?$tvec4@H$0A@@glm@@@std@@V?$_Vector_val@U?$_Simple_types@U?$tvec4@H$0A@@glm@@@std@@@2@$00@std@@QEAA@U_Zero_then_variadic_args_t@1@@Z DD imagerel $LN3
	DD	imagerel $LN3+48
	DD	imagerel $unwind$??$?0$$V@?$_Compressed_pair@V?$allocator@U?$tvec4@H$0A@@glm@@@std@@V?$_Vector_val@U?$_Simple_types@U?$tvec4@H$0A@@glm@@@std@@@2@$00@std@@QEAA@U_Zero_then_variadic_args_t@1@@Z
pdata	ENDS
;	COMDAT pdata
pdata	SEGMENT
$pdata$??$move@AEAU?$tvec4@M$0A@@glm@@@std@@YA$$QEAU?$tvec4@M$0A@@glm@@AEAU12@@Z DD imagerel $LN3
	DD	imagerel $LN3+13
	DD	imagerel $unwind$??$move@AEAU?$tvec4@M$0A@@glm@@@std@@YA$$QEAU?$tvec4@M$0A@@glm@@AEAU12@@Z
pdata	ENDS
;	COMDAT pdata
pdata	SEGMENT
$pdata$??$emplace_back@U?$tvec4@M$0A@@glm@@@?$vector@U?$tvec4@M$0A@@glm@@V?$allocator@U?$tvec4@M$0A@@glm@@@std@@@std@@QEAA?A_T$$QEAU?$tvec4@M$0A@@glm@@@Z DD imagerel $LN3
	DD	imagerel $LN3+49
	DD	imagerel $unwind$??$emplace_back@U?$tvec4@M$0A@@glm@@@?$vector@U?$tvec4@M$0A@@glm@@V?$allocator@U?$tvec4@M$0A@@glm@@@std@@@std@@QEAA?A_T$$QEAU?$tvec4@M$0A@@glm@@@Z
pdata	ENDS
;	COMDAT pdata
pdata	SEGMENT
$pdata$??$forward@U?$tvec4@M$0A@@glm@@@std@@YA$$QEAU?$tvec4@M$0A@@glm@@AEAU12@@Z DD imagerel $LN3
	DD	imagerel $LN3+13
	DD	imagerel $unwind$??$forward@U?$tvec4@M$0A@@glm@@@std@@YA$$QEAU?$tvec4@M$0A@@glm@@AEAU12@@Z
pdata	ENDS
;	COMDAT pdata
pdata	SEGMENT
$pdata$??$_Emplace_one_at_back@U?$tvec4@M$0A@@glm@@@?$vector@U?$tvec4@M$0A@@glm@@V?$allocator@U?$tvec4@M$0A@@glm@@@std@@@std@@AEAAAEAU?$tvec4@M$0A@@glm@@$$QEAU23@@Z DD imagerel $LN4
	DD	imagerel $LN4+120
	DD	imagerel $unwind$??$_Emplace_one_at_back@U?$tvec4@M$0A@@glm@@@?$vector@U?$tvec4@M$0A@@glm@@V?$allocator@U?$tvec4@M$0A@@glm@@@std@@@std@@AEAAAEAU?$tvec4@M$0A@@glm@@$$QEAU23@@Z
pdata	ENDS
;	COMDAT pdata
pdata	SEGMENT
$pdata$??$?0U?$tvec4@M$0A@@glm@@@?$allocator@U_Container_proxy@std@@@std@@QEAA@AEBV?$allocator@U?$tvec4@M$0A@@glm@@@1@@Z DD imagerel $LN3
	DD	imagerel $LN3+18
	DD	imagerel $unwind$??$?0U?$tvec4@M$0A@@glm@@@?$allocator@U_Container_proxy@std@@@std@@QEAA@AEBV?$allocator@U?$tvec4@M$0A@@glm@@@1@@Z
pdata	ENDS
;	COMDAT pdata
pdata	SEGMENT
$pdata$??$?0$$V@?$_Compressed_pair@V?$allocator@U?$tvec4@M$0A@@glm@@@std@@V?$_Vector_val@U?$_Simple_types@U?$tvec4@M$0A@@glm@@@std@@@2@$00@std@@QEAA@U_Zero_then_variadic_args_t@1@@Z DD imagerel $LN3
	DD	imagerel $LN3+48
	DD	imagerel $unwind$??$?0$$V@?$_Compressed_pair@V?$allocator@U?$tvec4@M$0A@@glm@@@std@@V?$_Vector_val@U?$_Simple_types@U?$tvec4@M$0A@@glm@@@std@@@2@$00@std@@QEAA@U_Zero_then_variadic_args_t@1@@Z
pdata	ENDS
;	COMDAT pdata
pdata	SEGMENT
$pdata$??$move@AEAM@std@@YA$$QEAMAEAM@Z DD imagerel $LN3
	DD	imagerel $LN3+13
	DD	imagerel $unwind$??$move@AEAM@std@@YA$$QEAMAEAM@Z
pdata	ENDS
;	COMDAT pdata
pdata	SEGMENT
$pdata$??$emplace_back@M@?$vector@MV?$allocator@M@std@@@std@@QEAA?A_T$$QEAM@Z DD imagerel $LN3
	DD	imagerel $LN3+49
	DD	imagerel $unwind$??$emplace_back@M@?$vector@MV?$allocator@M@std@@@std@@QEAA?A_T$$QEAM@Z
pdata	ENDS
;	COMDAT pdata
pdata	SEGMENT
$pdata$??$forward@M@std@@YA$$QEAMAEAM@Z DD imagerel $LN3
	DD	imagerel $LN3+13
	DD	imagerel $unwind$??$forward@M@std@@YA$$QEAMAEAM@Z
pdata	ENDS
;	COMDAT pdata
pdata	SEGMENT
$pdata$??$_Emplace_one_at_back@M@?$vector@MV?$allocator@M@std@@@std@@AEAAAEAM$$QEAM@Z DD imagerel $LN4
	DD	imagerel $LN4+120
	DD	imagerel $unwind$??$_Emplace_one_at_back@M@?$vector@MV?$allocator@M@std@@@std@@AEAAAEAM$$QEAM@Z
pdata	ENDS
;	COMDAT pdata
pdata	SEGMENT
$pdata$??$?0M@?$allocator@U_Container_proxy@std@@@std@@QEAA@AEBV?$allocator@M@1@@Z DD imagerel $LN3
	DD	imagerel $LN3+18
	DD	imagerel $unwind$??$?0M@?$allocator@U_Container_proxy@std@@@std@@QEAA@AEBV?$allocator@M@1@@Z
pdata	ENDS
;	COMDAT pdata
pdata	SEGMENT
$pdata$??$?0$$V@?$_Compressed_pair@V?$allocator@M@std@@V?$_Vector_val@U?$_Simple_types@M@std@@@2@$00@std@@QEAA@U_Zero_then_variadic_args_t@1@@Z DD imagerel $LN3
	DD	imagerel $LN3+48
	DD	imagerel $unwind$??$?0$$V@?$_Compressed_pair@V?$allocator@M@std@@V?$_Vector_val@U?$_Simple_types@M@std@@@2@$00@std@@QEAA@U_Zero_then_variadic_args_t@1@@Z
pdata	ENDS
;	COMDAT pdata
pdata	SEGMENT
$pdata$??$_Destroy_range@V?$allocator@U?$tvec2@M$0A@@glm@@@std@@@std@@YAXPEAU?$tvec2@M$0A@@glm@@QEAU12@AEAV?$allocator@U?$tvec2@M$0A@@glm@@@0@@Z DD imagerel $LN3
	DD	imagerel $LN3+18
	DD	imagerel $unwind$??$_Destroy_range@V?$allocator@U?$tvec2@M$0A@@glm@@@std@@@std@@YAXPEAU?$tvec2@M$0A@@glm@@QEAU12@AEAV?$allocator@U?$tvec2@M$0A@@glm@@@0@@Z
pdata	ENDS
;	COMDAT pdata
pdata	SEGMENT
$pdata$??$_Destroy_range@V?$allocator@U?$tvec1@M$0A@@glm@@@std@@@std@@YAXPEAU?$tvec1@M$0A@@glm@@QEAU12@AEAV?$allocator@U?$tvec1@M$0A@@glm@@@0@@Z DD imagerel $LN3
	DD	imagerel $LN3+18
	DD	imagerel $unwind$??$_Destroy_range@V?$allocator@U?$tvec1@M$0A@@glm@@@std@@@std@@YAXPEAU?$tvec1@M$0A@@glm@@QEAU12@AEAV?$allocator@U?$tvec1@M$0A@@glm@@@0@@Z
pdata	ENDS
;	COMDAT pdata
pdata	SEGMENT
$pdata$??$_Destroy_range@V?$allocator@U?$tvec3@M$0A@@glm@@@std@@@std@@YAXPEAU?$tvec3@M$0A@@glm@@QEAU12@AEAV?$allocator@U?$tvec3@M$0A@@glm@@@0@@Z DD imagerel $LN3
	DD	imagerel $LN3+18
	DD	imagerel $unwind$??$_Destroy_range@V?$allocator@U?$tvec3@M$0A@@glm@@@std@@@std@@YAXPEAU?$tvec3@M$0A@@glm@@QEAU12@AEAV?$allocator@U?$tvec3@M$0A@@glm@@@0@@Z
pdata	ENDS
;	COMDAT pdata
pdata	SEGMENT
$pdata$??$_Destroy_range@V?$allocator@U?$tvec4@I$0A@@glm@@@std@@@std@@YAXPEAU?$tvec4@I$0A@@glm@@QEAU12@AEAV?$allocator@U?$tvec4@I$0A@@glm@@@0@@Z DD imagerel $LN3
	DD	imagerel $LN3+18
	DD	imagerel $unwind$??$_Destroy_range@V?$allocator@U?$tvec4@I$0A@@glm@@@std@@@std@@YAXPEAU?$tvec4@I$0A@@glm@@QEAU12@AEAV?$allocator@U?$tvec4@I$0A@@glm@@@0@@Z
pdata	ENDS
;	COMDAT pdata
pdata	SEGMENT
$pdata$??$_Destroy_range@V?$allocator@U?$tvec4@H$0A@@glm@@@std@@@std@@YAXPEAU?$tvec4@H$0A@@glm@@QEAU12@AEAV?$allocator@U?$tvec4@H$0A@@glm@@@0@@Z DD imagerel $LN3
	DD	imagerel $LN3+18
	DD	imagerel $unwind$??$_Destroy_range@V?$allocator@U?$tvec4@H$0A@@glm@@@std@@@std@@YAXPEAU?$tvec4@H$0A@@glm@@QEAU12@AEAV?$allocator@U?$tvec4@H$0A@@glm@@@0@@Z
pdata	ENDS
;	COMDAT pdata
pdata	SEGMENT
$pdata$??$_Destroy_range@V?$allocator@U?$tvec4@M$0A@@glm@@@std@@@std@@YAXPEAU?$tvec4@M$0A@@glm@@QEAU12@AEAV?$allocator@U?$tvec4@M$0A@@glm@@@0@@Z DD imagerel $LN3
	DD	imagerel $LN3+18
	DD	imagerel $unwind$??$_Destroy_range@V?$allocator@U?$tvec4@M$0A@@glm@@@std@@@std@@YAXPEAU?$tvec4@M$0A@@glm@@QEAU12@AEAV?$allocator@U?$tvec4@M$0A@@glm@@@0@@Z
pdata	ENDS
;	COMDAT pdata
pdata	SEGMENT
$pdata$??$_Destroy_range@V?$allocator@M@std@@@std@@YAXPEAMQEAMAEAV?$allocator@M@0@@Z DD imagerel $LN3
	DD	imagerel $LN3+18
	DD	imagerel $unwind$??$_Destroy_range@V?$allocator@M@std@@@std@@YAXPEAMQEAMAEAV?$allocator@M@0@@Z
pdata	ENDS
;	COMDAT pdata
pdata	SEGMENT
$pdata$??$_Deallocate@$0BA@$0A@@std@@YAXPEAX_K@Z DD imagerel $LN4
	DD	imagerel $LN4+63
	DD	imagerel $unwind$??$_Deallocate@$0BA@$0A@@std@@YAXPEAX_K@Z
pdata	ENDS
;	COMDAT pdata
pdata	SEGMENT
$pdata$?call@?$compute_clamp_vector@M$0A@Utvec2@glm@@$0A@@detail@glm@@SA?AU?$tvec2@M$0A@@3@AEBU43@00@Z DD imagerel $LN3
	DD	imagerel $LN3+74
	DD	imagerel $unwind$?call@?$compute_clamp_vector@M$0A@Utvec2@glm@@$0A@@detail@glm@@SA?AU?$tvec2@M$0A@@3@AEBU43@00@Z
pdata	ENDS
;	COMDAT pdata
pdata	SEGMENT
$pdata$?call@?$compute_round@M$0A@Utvec2@glm@@$0A@@detail@glm@@SA?AU?$tvec2@M$0A@@3@AEBU43@@Z DD imagerel $LN3
	DD	imagerel $LN3+48
	DD	imagerel $unwind$?call@?$compute_round@M$0A@Utvec2@glm@@$0A@@detail@glm@@SA?AU?$tvec2@M$0A@@3@AEBU43@@Z
pdata	ENDS
;	COMDAT pdata
pdata	SEGMENT
$pdata$?call@?$compute_clamp_vector@M$0A@Utvec4@glm@@$0A@@detail@glm@@SA?AU?$tvec4@M$0A@@3@AEBU43@00@Z DD imagerel $LN3
	DD	imagerel $LN3+74
	DD	imagerel $unwind$?call@?$compute_clamp_vector@M$0A@Utvec4@glm@@$0A@@detail@glm@@SA?AU?$tvec4@M$0A@@3@AEBU43@00@Z
pdata	ENDS
;	COMDAT pdata
pdata	SEGMENT
$pdata$??$?XM@?$tvec4@M$0A@@glm@@QEAAAEAU01@M@Z DD imagerel $LN3
	DD	imagerel $LN3+78
	DD	imagerel $unwind$??$?XM@?$tvec4@M$0A@@glm@@QEAAAEAU01@M@Z
pdata	ENDS
;	COMDAT pdata
pdata	SEGMENT
$pdata$?call@?$compute_round@M$0A@Utvec4@glm@@$0A@@detail@glm@@SA?AU?$tvec4@M$0A@@3@AEBU43@@Z DD imagerel $LN3
	DD	imagerel $LN3+48
	DD	imagerel $unwind$?call@?$compute_round@M$0A@Utvec4@glm@@$0A@@detail@glm@@SA?AU?$tvec4@M$0A@@3@AEBU43@@Z
pdata	ENDS
;	COMDAT pdata
pdata	SEGMENT
$pdata$??$min@M@glm@@YAMMM@Z DD imagerel $LN5
	DD	imagerel $LN5+68
	DD	imagerel $unwind$??$min@M@glm@@YAMMM@Z
pdata	ENDS
;	COMDAT pdata
pdata	SEGMENT
$pdata$??$?XM@?$tvec4@M$0A@@glm@@QEAAAEAU01@AEBU01@@Z DD imagerel $LN3
	DD	imagerel $LN3+83
	DD	imagerel $unwind$??$?XM@?$tvec4@M$0A@@glm@@QEAAAEAU01@AEBU01@@Z
pdata	ENDS
;	COMDAT pdata
pdata	SEGMENT
$pdata$?call@?$compute_clamp_vector@M$0A@Utvec3@glm@@$0A@@detail@glm@@SA?AU?$tvec3@M$0A@@3@AEBU43@00@Z DD imagerel $LN3
	DD	imagerel $LN3+74
	DD	imagerel $unwind$?call@?$compute_clamp_vector@M$0A@Utvec3@glm@@$0A@@detail@glm@@SA?AU?$tvec3@M$0A@@3@AEBU43@00@Z
pdata	ENDS
;	COMDAT pdata
pdata	SEGMENT
$pdata$??$log2@M$0A@Utvec1@glm@@@glm@@YA?AU?$tvec1@M$0A@@0@AEBU10@@Z DD imagerel $LN3
	DD	imagerel $LN3+41
	DD	imagerel $unwind$??$log2@M$0A@Utvec1@glm@@@glm@@YA?AU?$tvec1@M$0A@@0@AEBU10@@Z
pdata	ENDS
;	COMDAT pdata
pdata	SEGMENT
$pdata$?call@?$compute_floor@M$0A@Utvec3@glm@@$0A@@detail@glm@@SA?AU?$tvec3@M$0A@@3@AEBU43@@Z DD imagerel $LN3
	DD	imagerel $LN3+48
	DD	imagerel $unwind$?call@?$compute_floor@M$0A@Utvec3@glm@@$0A@@detail@glm@@SA?AU?$tvec3@M$0A@@3@AEBU43@@Z
pdata	ENDS
;	COMDAT pdata
pdata	SEGMENT
$pdata$?call@?$compute_round@M$0A@Utvec3@glm@@$0A@@detail@glm@@SA?AU?$tvec3@M$0A@@3@AEBU43@@Z DD imagerel $LN3
	DD	imagerel $LN3+48
	DD	imagerel $unwind$?call@?$compute_round@M$0A@Utvec3@glm@@$0A@@detail@glm@@SA?AU?$tvec3@M$0A@@3@AEBU43@@Z
pdata	ENDS
;	COMDAT pdata
pdata	SEGMENT
$pdata$?call@?$compute_abs@M$00@detail@glm@@SAMM@Z DD imagerel $LN5
	DD	imagerel $LN5+71
	DD	imagerel $unwind$?call@?$compute_abs@M$00@detail@glm@@SAMM@Z
pdata	ENDS
;	COMDAT pdata
pdata	SEGMENT
$pdata$?pack@?$compute_half@$0A@Utvec4@glm@@@detail@glm@@SA?AU?$tvec4@G$0A@@3@AEBU?$tvec4@M$0A@@3@@Z DD imagerel $LN3
	DD	imagerel $LN3+247
	DD	imagerel $unwind$?pack@?$compute_half@$0A@Utvec4@glm@@@detail@glm@@SA?AU?$tvec4@G$0A@@3@AEBU?$tvec4@M$0A@@3@@Z
pdata	ENDS
;	COMDAT pdata
pdata	SEGMENT
$pdata$?unpack@?$compute_half@$0A@Utvec4@glm@@@detail@glm@@SA?AU?$tvec4@M$0A@@3@AEBU?$tvec4@G$0A@@3@@Z DD imagerel $LN3
	DD	imagerel $LN3+218
	DD	imagerel $unwind$?unpack@?$compute_half@$0A@Utvec4@glm@@@detail@glm@@SA?AU?$tvec4@M$0A@@3@AEBU?$tvec4@G$0A@@3@@Z
pdata	ENDS
;	COMDAT pdata
pdata	SEGMENT
$pdata$??$?GM$0A@@glm@@YA?AU?$tvec4@M$0A@@0@AEBU10@0@Z DD imagerel $LN3
	DD	imagerel $LN3+83
	DD	imagerel $unwind$??$?GM$0A@@glm@@YA?AU?$tvec4@M$0A@@0@AEBU10@0@Z
pdata	ENDS
;	COMDAT pdata
pdata	SEGMENT
$pdata$??$abs@M$0A@Utvec4@glm@@@glm@@YA?AU?$tvec4@M$0A@@0@AEBU10@@Z DD imagerel $LN3
	DD	imagerel $LN3+41
	DD	imagerel $unwind$??$abs@M$0A@Utvec4@glm@@@glm@@YA?AU?$tvec4@M$0A@@0@AEBU10@@Z
pdata	ENDS
;	COMDAT pdata
pdata	SEGMENT
$pdata$??$lessThan@M$0A@Utvec4@glm@@@glm@@YA?AU?$tvec4@_N$0A@@0@AEBU?$tvec4@M$0A@@0@0@Z DD imagerel $LN9
	DD	imagerel $LN9+266
	DD	imagerel $unwind$??$lessThan@M$0A@Utvec4@glm@@@glm@@YA?AU?$tvec4@_N$0A@@0@AEBU?$tvec4@M$0A@@0@0@Z
pdata	ENDS
;	COMDAT pdata
pdata	SEGMENT
$pdata$??$?GM$0A@@glm@@YA?AU?$tvec3@M$0A@@0@AEBU10@0@Z DD imagerel $LN3
	DD	imagerel $LN3+120
	DD	imagerel $unwind$??$?GM$0A@@glm@@YA?AU?$tvec3@M$0A@@0@AEBU10@0@Z
pdata	ENDS
;	COMDAT pdata
pdata	SEGMENT
$pdata$??$abs@M$0A@Utvec3@glm@@@glm@@YA?AU?$tvec3@M$0A@@0@AEBU10@@Z DD imagerel $LN3
	DD	imagerel $LN3+41
	DD	imagerel $unwind$??$abs@M$0A@Utvec3@glm@@@glm@@YA?AU?$tvec3@M$0A@@0@AEBU10@@Z
pdata	ENDS
;	COMDAT pdata
pdata	SEGMENT
$pdata$??$lessThan@M$0A@Utvec3@glm@@@glm@@YA?AU?$tvec3@_N$0A@@0@AEBU?$tvec3@M$0A@@0@0@Z DD imagerel $LN9
	DD	imagerel $LN9+280
	DD	imagerel $unwind$??$lessThan@M$0A@Utvec3@glm@@@glm@@YA?AU?$tvec3@_N$0A@@0@AEBU?$tvec3@M$0A@@0@0@Z
pdata	ENDS
;	COMDAT pdata
pdata	SEGMENT
$pdata$??$?GM$0A@@glm@@YA?AU?$tvec1@M$0A@@0@AEBU10@0@Z DD imagerel $LN3
	DD	imagerel $LN3+62
	DD	imagerel $unwind$??$?GM$0A@@glm@@YA?AU?$tvec1@M$0A@@0@AEBU10@0@Z
pdata	ENDS
;	COMDAT pdata
pdata	SEGMENT
$pdata$??$abs@M$0A@Utvec1@glm@@@glm@@YA?AU?$tvec1@M$0A@@0@AEBU10@@Z DD imagerel $LN3
	DD	imagerel $LN3+41
	DD	imagerel $unwind$??$abs@M$0A@Utvec1@glm@@@glm@@YA?AU?$tvec1@M$0A@@0@AEBU10@@Z
pdata	ENDS
;	COMDAT pdata
pdata	SEGMENT
$pdata$??$lessThan@M$0A@Utvec1@glm@@@glm@@YA?AU?$tvec1@_N$0A@@0@AEBU?$tvec1@M$0A@@0@0@Z DD imagerel $LN9
	DD	imagerel $LN9+267
	DD	imagerel $unwind$??$lessThan@M$0A@Utvec1@glm@@@glm@@YA?AU?$tvec1@_N$0A@@0@AEBU?$tvec1@M$0A@@0@0@Z
pdata	ENDS
;	COMDAT pdata
pdata	SEGMENT
$pdata$??$?GM$0A@@glm@@YA?AU?$tvec2@M$0A@@0@AEBU10@0@Z DD imagerel $LN3
	DD	imagerel $LN3+82
	DD	imagerel $unwind$??$?GM$0A@@glm@@YA?AU?$tvec2@M$0A@@0@AEBU10@0@Z
pdata	ENDS
;	COMDAT pdata
pdata	SEGMENT
$pdata$??$abs@M$0A@Utvec2@glm@@@glm@@YA?AU?$tvec2@M$0A@@0@AEBU10@@Z DD imagerel $LN3
	DD	imagerel $LN3+41
	DD	imagerel $unwind$??$abs@M$0A@Utvec2@glm@@@glm@@YA?AU?$tvec2@M$0A@@0@AEBU10@@Z
pdata	ENDS
;	COMDAT pdata
pdata	SEGMENT
$pdata$??$lessThan@M$0A@Utvec2@glm@@@glm@@YA?AU?$tvec2@_N$0A@@0@AEBU?$tvec2@M$0A@@0@0@Z DD imagerel $LN9
	DD	imagerel $LN9+268
	DD	imagerel $unwind$??$lessThan@M$0A@Utvec2@glm@@@glm@@YA?AU?$tvec2@_N$0A@@0@AEBU?$tvec2@M$0A@@0@0@Z
pdata	ENDS
;	COMDAT pdata
pdata	SEGMENT
$pdata$??$?0G$0A@@?$tvec2@M$0A@@glm@@QEAA@AEBU?$tvec2@G$0A@@1@@Z DD imagerel $LN3
	DD	imagerel $LN3+62
	DD	imagerel $unwind$??$?0G$0A@@?$tvec2@M$0A@@glm@@QEAA@AEBU?$tvec2@G$0A@@1@@Z
pdata	ENDS
;	COMDAT pdata
pdata	SEGMENT
$pdata$??$?0F$0A@@?$tvec2@M$0A@@glm@@QEAA@AEBU?$tvec2@F$0A@@1@@Z DD imagerel $LN3
	DD	imagerel $LN3+62
	DD	imagerel $unwind$??$?0F$0A@@?$tvec2@M$0A@@glm@@QEAA@AEBU?$tvec2@F$0A@@1@@Z
pdata	ENDS
;	COMDAT pdata
pdata	SEGMENT
$pdata$??$_Emplace_back_with_unused_capacity@U?$tvec2@M$0A@@glm@@@?$vector@U?$tvec2@M$0A@@glm@@V?$allocator@U?$tvec2@M$0A@@glm@@@std@@@std@@AEAAAEAU?$tvec2@M$0A@@glm@@$$QEAU23@@Z DD imagerel $LN3
	DD	imagerel $LN3+135
	DD	imagerel $unwind$??$_Emplace_back_with_unused_capacity@U?$tvec2@M$0A@@glm@@@?$vector@U?$tvec2@M$0A@@glm@@V?$allocator@U?$tvec2@M$0A@@glm@@@std@@@std@@AEAAAEAU?$tvec2@M$0A@@glm@@$$QEAU23@@Z
pdata	ENDS
;	COMDAT pdata
pdata	SEGMENT
$pdata$??$_Emplace_reallocate@U?$tvec2@M$0A@@glm@@@?$vector@U?$tvec2@M$0A@@glm@@V?$allocator@U?$tvec2@M$0A@@glm@@@std@@@std@@AEAAPEAU?$tvec2@M$0A@@glm@@QEAU23@$$QEAU23@@Z DD imagerel $LN13
	DD	imagerel $LN13+519
	DD	imagerel $unwind$??$_Emplace_reallocate@U?$tvec2@M$0A@@glm@@@?$vector@U?$tvec2@M$0A@@glm@@V?$allocator@U?$tvec2@M$0A@@glm@@@std@@@std@@AEAAPEAU?$tvec2@M$0A@@glm@@QEAU23@$$QEAU23@@Z
pdata	ENDS
;	COMDAT pdata
pdata	SEGMENT
