; Listing generated by Microsoft (R) Optimizing Compiler Version 19.32.31329.0 

include listing.inc

INCLUDELIB MSVCRTD

PUBLIC	??_H@YAXPEAX_K1P6APEAX0@Z@Z			; `vector constructor iterator'
PUBLIC	?length@?$tvec4@M$0A@@glm@@SAHXZ		; glm::tvec4<float,0>::length
PUBLIC	??A?$tvec4@M$0A@@glm@@QEAAAEAMH@Z		; glm::tvec4<float,0>::operator[]
PUBLIC	??A?$tvec4@M$0A@@glm@@QEBAAEBMH@Z		; glm::tvec4<float,0>::operator[]
PUBLIC	??0?$tvec4@M$0A@@glm@@QEAA@XZ			; glm::tvec4<float,0>::tvec4<float,0>
PUBLIC	??0?$tvec4@M$0A@@glm@@QEAA@M@Z			; glm::tvec4<float,0>::tvec4<float,0>
PUBLIC	??0?$tvec4@M$0A@@glm@@QEAA@MMMM@Z		; glm::tvec4<float,0>::tvec4<float,0>
PUBLIC	?test_saturation@@YAHXZ				; test_saturation
PUBLIC	??$?0NNNN@?$tvec4@M$0A@@glm@@QEAA@NNNN@Z	; glm::tvec4<float,0>::tvec4<float,0><double,double,double,double>
PUBLIC	??$saturation@M$0A@@glm@@YA?AU?$tvec4@M$0A@@0@MAEBU10@@Z ; glm::saturation<float,0>
PUBLIC	main
PUBLIC	??$saturation@M@glm@@YA?AU?$tmat4x4@M$0A@@0@M@Z	; glm::saturation<float>
PUBLIC	??0?$tmat4x4@M$0A@@glm@@QEAA@AEBM@Z		; glm::tmat4x4<float,0>::tmat4x4<float,0>
PUBLIC	?length@?$tmat4x4@M$0A@@glm@@SAHXZ		; glm::tmat4x4<float,0>::length
PUBLIC	??A?$tmat4x4@M$0A@@glm@@QEAAAEAU?$tvec4@M$0A@@1@H@Z ; glm::tmat4x4<float,0>::operator[]
PUBLIC	??A?$tmat4x4@M$0A@@glm@@QEBAAEBU?$tvec4@M$0A@@1@H@Z ; glm::tmat4x4<float,0>::operator[]
PUBLIC	??$?DM$0A@@glm@@YA?AU?$tvec4@M$0A@@0@AEBU?$tmat4x4@M$0A@@0@AEBU10@@Z ; glm::operator*<float,0>
PUBLIC	?call@?$compute_vec4_mul@M$0A@$0A@@detail@glm@@SA?AU?$tvec4@M$0A@@3@AEBU43@0@Z ; glm::detail::compute_vec4_mul<float,0,0>::call
PUBLIC	??0?$tvec3@M$0A@@glm@@QEAA@MMM@Z		; glm::tvec3<float,0>::tvec3<float,0>
PUBLIC	??$?DM$0A@@glm@@YA?AU?$tvec3@M$0A@@0@MAEBU10@@Z	; glm::operator*<float,0>
PUBLIC	??$?DM$0A@@glm@@YA?AU?$tvec4@M$0A@@0@AEBU10@0@Z	; glm::operator*<float,0>
PUBLIC	??$?HM$0A@@glm@@YA?AU?$tvec4@M$0A@@0@AEBU10@0@Z	; glm::operator+<float,0>
PUBLIC	??$?0MHHH@?$tvec4@M$0A@@glm@@QEAA@MHHH@Z	; glm::tvec4<float,0>::tvec4<float,0><float,int,int,int>
PUBLIC	??$?0HMHH@?$tvec4@M$0A@@glm@@QEAA@HMHH@Z	; glm::tvec4<float,0>::tvec4<float,0><int,float,int,int>
PUBLIC	??$?0HHMH@?$tvec4@M$0A@@glm@@QEAA@HHMH@Z	; glm::tvec4<float,0>::tvec4<float,0><int,int,float,int>
PUBLIC	??$?0HHHM@?$tvec4@M$0A@@glm@@QEAA@HHHM@Z	; glm::tvec4<float,0>::tvec4<float,0><int,int,int,float>
PUBLIC	??$?XM@?$tvec4@M$0A@@glm@@QEAAAEAU01@AEBU01@@Z	; glm::tvec4<float,0>::operator*=<float>
PUBLIC	??$?YM@?$tvec4@M$0A@@glm@@QEAAAEAU01@AEBU01@@Z	; glm::tvec4<float,0>::operator+=<float>
PUBLIC	?call@?$compute_vec4_add@M$0A@$0A@@detail@glm@@SA?AU?$tvec4@M$0A@@3@AEBU43@0@Z ; glm::detail::compute_vec4_add<float,0,0>::call
PUBLIC	??_C@_1DK@BGNCJAPL@?$AAi?$AA?5?$AA?$DO?$AA?$DN?$AA?5?$AA0?$AA?5?$AA?$CG?$AA?$CG?$AA?5?$AAi?$AA?5?$AA?$DM?$AA?5?$AAt@ ; `string'
PUBLIC	??_C@_1LG@LAANPDHN@?$AAC?$AA?3?$AA?2?$AAU?$AAs?$AAe?$AAr?$AAs?$AA?2?$AAk?$AAs?$AAa?$AAr?$AAt?$AA?2@ ; `string'
PUBLIC	??_C@_1LK@BAPNPALB@?$AAC?$AA?3?$AA?2?$AAU?$AAs?$AAe?$AAr?$AAs?$AA?2?$AAk?$AAs?$AAa?$AAr?$AAt?$AA?2@ ; `string'
PUBLIC	??_C@_1CG@KOFHLCJL@?$AAi?$AA?5?$AA?$DM?$AA?5?$AAt?$AAh?$AAi?$AAs?$AA?9?$AA?$DO?$AAl?$AAe?$AAn?$AAg?$AAt@ ; `string'
PUBLIC	__real@3d93dd98
PUBLIC	__real@3e59b3d0
PUBLIC	__real@3f371759
PUBLIC	__real@3f800000
PUBLIC	__real@3fe0000000000000
PUBLIC	__real@3ff0000000000000
EXTRN	__imp__wassert:PROC
EXTRN	_RTC_CheckStackVars:PROC
EXTRN	_RTC_InitBase:PROC
EXTRN	_RTC_Shutdown:PROC
EXTRN	__GSHandlerCheck:PROC
EXTRN	__security_check_cookie:PROC
EXTRN	__security_cookie:QWORD
EXTRN	_fltused:DWORD
;	COMDAT pdata
pdata	SEGMENT
$pdata$??_H@YAXPEAX_K1P6APEAX0@Z@Z DD imagerel $LN7
	DD	imagerel $LN7+119
	DD	imagerel $unwind$??_H@YAXPEAX_K1P6APEAX0@Z@Z
pdata	ENDS
;	COMDAT pdata
pdata	SEGMENT
$pdata$?length@?$tvec4@M$0A@@glm@@SAHXZ DD imagerel $LN3
	DD	imagerel $LN3+9
	DD	imagerel $unwind$?length@?$tvec4@M$0A@@glm@@SAHXZ
pdata	ENDS
;	COMDAT pdata
pdata	SEGMENT
$pdata$??A?$tvec4@M$0A@@glm@@QEAAAEAMH@Z DD imagerel $LN5
	DD	imagerel $LN5+80
	DD	imagerel $unwind$??A?$tvec4@M$0A@@glm@@QEAAAEAMH@Z
pdata	ENDS
;	COMDAT pdata
pdata	SEGMENT
$pdata$??A?$tvec4@M$0A@@glm@@QEBAAEBMH@Z DD imagerel $LN5
	DD	imagerel $LN5+80
	DD	imagerel $unwind$??A?$tvec4@M$0A@@glm@@QEBAAEBMH@Z
pdata	ENDS
;	COMDAT pdata
pdata	SEGMENT
$pdata$??0?$tvec4@M$0A@@glm@@QEAA@XZ DD imagerel $LN3
	DD	imagerel $LN3+64
	DD	imagerel $unwind$??0?$tvec4@M$0A@@glm@@QEAA@XZ
pdata	ENDS
;	COMDAT pdata
pdata	SEGMENT
$pdata$??0?$tvec4@M$0A@@glm@@QEAA@M@Z DD imagerel $LN3
	DD	imagerel $LN3+82
	DD	imagerel $unwind$??0?$tvec4@M$0A@@glm@@QEAA@M@Z
pdata	ENDS
;	COMDAT pdata
pdata	SEGMENT
$pdata$??0?$tvec4@M$0A@@glm@@QEAA@MMMM@Z DD imagerel $LN3
	DD	imagerel $LN3+94
	DD	imagerel $unwind$??0?$tvec4@M$0A@@glm@@QEAA@MMMM@Z
pdata	ENDS
pdata	SEGMENT
$pdata$?test_saturation@@YAHXZ DD imagerel $LN3
	DD	imagerel $LN3+130
	DD	imagerel $unwind$?test_saturation@@YAHXZ
pdata	ENDS
;	COMDAT pdata
pdata	SEGMENT
$pdata$??$?0NNNN@?$tvec4@M$0A@@glm@@QEAA@NNNN@Z DD imagerel $LN3
	DD	imagerel $LN3+94
	DD	imagerel $unwind$??$?0NNNN@?$tvec4@M$0A@@glm@@QEAA@NNNN@Z
pdata	ENDS
;	COMDAT pdata
pdata	SEGMENT
$pdata$??$saturation@M$0A@@glm@@YA?AU?$tvec4@M$0A@@0@MAEBU10@@Z DD imagerel $LN3
	DD	imagerel $LN3+106
	DD	imagerel $unwind$??$saturation@M$0A@@glm@@YA?AU?$tvec4@M$0A@@0@MAEBU10@@Z
pdata	ENDS
pdata	SEGMENT
$pdata$main DD	imagerel $LN3
	DD	imagerel $LN3+41
	DD	imagerel $unwind$main
pdata	ENDS
;	COMDAT pdata
pdata	SEGMENT
$pdata$??$saturation@M@glm@@YA?AU?$tmat4x4@M$0A@@0@M@Z DD imagerel $LN3
	DD	imagerel $LN3+683
	DD	imagerel $unwind$??$saturation@M@glm@@YA?AU?$tmat4x4@M$0A@@0@M@Z
pdata	ENDS
;	COMDAT pdata
pdata	SEGMENT
$pdata$??0?$tmat4x4@M$0A@@glm@@QEAA@AEBM@Z DD imagerel $LN3
	DD	imagerel $LN3+331
	DD	imagerel $unwind$??0?$tmat4x4@M$0A@@glm@@QEAA@AEBM@Z
pdata	ENDS
;	COMDAT pdata
pdata	SEGMENT
$pdata$?length@?$tmat4x4@M$0A@@glm@@SAHXZ DD imagerel $LN3
	DD	imagerel $LN3+9
	DD	imagerel $unwind$?length@?$tmat4x4@M$0A@@glm@@SAHXZ
pdata	ENDS
;	COMDAT pdata
pdata	SEGMENT
$pdata$??A?$tmat4x4@M$0A@@glm@@QEAAAEAU?$tvec4@M$0A@@1@H@Z DD imagerel $LN4
	DD	imagerel $LN4+79
	DD	imagerel $unwind$??A?$tmat4x4@M$0A@@glm@@QEAAAEAU?$tvec4@M$0A@@1@H@Z
pdata	ENDS
;	COMDAT pdata
pdata	SEGMENT
$pdata$??A?$tmat4x4@M$0A@@glm@@QEBAAEBU?$tvec4@M$0A@@1@H@Z DD imagerel $LN4
	DD	imagerel $LN4+79
	DD	imagerel $unwind$??A?$tmat4x4@M$0A@@glm@@QEBAAEBU?$tvec4@M$0A@@1@H@Z
pdata	ENDS
;	COMDAT pdata
pdata	SEGMENT
$pdata$??$?DM$0A@@glm@@YA?AU?$tvec4@M$0A@@0@AEBU?$tmat4x4@M$0A@@0@AEBU10@@Z DD imagerel $LN3
	DD	imagerel $LN3+491
	DD	imagerel $unwind$??$?DM$0A@@glm@@YA?AU?$tvec4@M$0A@@0@AEBU?$tmat4x4@M$0A@@0@AEBU10@@Z
pdata	ENDS
;	COMDAT pdata
pdata	SEGMENT
$pdata$?call@?$compute_vec4_mul@M$0A@$0A@@detail@glm@@SA?AU?$tvec4@M$0A@@3@AEBU43@0@Z DD imagerel $LN3
	DD	imagerel $LN3+143
	DD	imagerel $unwind$?call@?$compute_vec4_mul@M$0A@$0A@@detail@glm@@SA?AU?$tvec4@M$0A@@3@AEBU43@0@Z
pdata	ENDS
;	COMDAT pdata
pdata	SEGMENT
$pdata$??0?$tvec3@M$0A@@glm@@QEAA@MMM@Z DD imagerel $LN3
	DD	imagerel $LN3+78
	DD	imagerel $unwind$??0?$tvec3@M$0A@@glm@@QEAA@MMM@Z
pdata	ENDS
;	COMDAT pdata
pdata	SEGMENT
$pdata$??$?DM$0A@@glm@@YA?AU?$tvec3@M$0A@@0@MAEBU10@@Z DD imagerel $LN3
	DD	imagerel $LN3+110
	DD	imagerel $unwind$??$?DM$0A@@glm@@YA?AU?$tvec3@M$0A@@0@MAEBU10@@Z
pdata	ENDS
;	COMDAT pdata
pdata	SEGMENT
$pdata$??$?DM$0A@@glm@@YA?AU?$tvec4@M$0A@@0@AEBU10@0@Z DD imagerel $LN3
	DD	imagerel $LN3+83
	DD	imagerel $unwind$??$?DM$0A@@glm@@YA?AU?$tvec4@M$0A@@0@AEBU10@0@Z
pdata	ENDS
;	COMDAT pdata
pdata	SEGMENT
$pdata$??$?HM$0A@@glm@@YA?AU?$tvec4@M$0A@@0@AEBU10@0@Z DD imagerel $LN3
	DD	imagerel $LN3+83
	DD	imagerel $unwind$??$?HM$0A@@glm@@YA?AU?$tvec4@M$0A@@0@AEBU10@0@Z
pdata	ENDS
;	COMDAT pdata
pdata	SEGMENT
$pdata$??$?0MHHH@?$tvec4@M$0A@@glm@@QEAA@MHHH@Z DD imagerel $LN3
	DD	imagerel $LN3+92
	DD	imagerel $unwind$??$?0MHHH@?$tvec4@M$0A@@glm@@QEAA@MHHH@Z
pdata	ENDS
;	COMDAT pdata
pdata	SEGMENT
$pdata$??$?0HMHH@?$tvec4@M$0A@@glm@@QEAA@HMHH@Z DD imagerel $LN3
	DD	imagerel $LN3+91
	DD	imagerel $unwind$??$?0HMHH@?$tvec4@M$0A@@glm@@QEAA@HMHH@Z
pdata	ENDS
;	COMDAT pdata
pdata	SEGMENT
$pdata$??$?0HHMH@?$tvec4@M$0A@@glm@@QEAA@HHMH@Z DD imagerel $LN3
	DD	imagerel $LN3+91
	DD	imagerel $unwind$??$?0HHMH@?$tvec4@M$0A@@glm@@QEAA@HHMH@Z
pdata	ENDS
;	COMDAT pdata
pdata	SEGMENT
$pdata$??$?0HHHM@?$tvec4@M$0A@@glm@@QEAA@HHHM@Z DD imagerel $LN3
	DD	imagerel $LN3+90
	DD	imagerel $unwind$??$?0HHHM@?$tvec4@M$0A@@glm@@QEAA@HHHM@Z
pdata	ENDS
;	COMDAT pdata
pdata	SEGMENT
$pdata$??$?XM@?$tvec4@M$0A@@glm@@QEAAAEAU01@AEBU01@@Z DD imagerel $LN3
	DD	imagerel $LN3+83
	DD	imagerel $unwind$??$?XM@?$tvec4@M$0A@@glm@@QEAAAEAU01@AEBU01@@Z
pdata	ENDS
;	COMDAT pdata
pdata	SEGMENT
$pdata$??$?YM@?$tvec4@M$0A@@glm@@QEAAAEAU01@AEBU01@@Z DD imagerel $LN3
	DD	imagerel $LN3+83
	DD	imagerel $unwind$??$?YM@?$tvec4@M$0A@@glm@@QEAAAEAU01@AEBU01@@Z
pdata	ENDS
;	COMDAT pdata
pdata	SEGMENT
$pdata$?call@?$compute_vec4_add@M$0A@$0A@@detail@glm@@SA?AU?$tvec4@M$0A@@3@AEBU43@0@Z DD imagerel $LN3
	DD	imagerel $LN3+143
	DD	imagerel $unwind$?call@?$compute_vec4_add@M$0A@$0A@@detail@glm@@SA?AU?$tvec4@M$0A@@3@AEBU43@0@Z
pdata	ENDS
;	COMDAT __real@3ff0000000000000
CONST	SEGMENT
__real@3ff0000000000000 DQ 03ff0000000000000r	; 1
CONST	ENDS
;	COMDAT __real@3fe0000000000000
CONST	SEGMENT
__real@3fe0000000000000 DQ 03fe0000000000000r	; 0.5
CONST	ENDS
;	COMDAT __real@3f800000
CONST	SEGMENT
__real@3f800000 DD 03f800000r			; 1
CONST	ENDS
;	COMDAT __real@3f371759
CONST	SEGMENT
__real@3f371759 DD 03f371759r			; 0.7152
CONST	ENDS
;	COMDAT __real@3e59b3d0
CONST	SEGMENT
__real@3e59b3d0 DD 03e59b3d0r			; 0.2126
CONST	ENDS
;	COMDAT __real@3d93dd98
CONST	SEGMENT
__real@3d93dd98 DD 03d93dd98r			; 0.0722
CONST	ENDS
;	COMDAT rtc$TMZ
rtc$TMZ	SEGMENT
_RTC_Shutdown.rtc$TMZ DQ FLAT:_RTC_Shutdown
rtc$TMZ	ENDS
;	COMDAT rtc$IMZ
rtc$IMZ	SEGMENT
_RTC_InitBase.rtc$IMZ DQ FLAT:_RTC_InitBase
rtc$IMZ	ENDS
;	COMDAT ??_C@_1CG@KOFHLCJL@?$AAi?$AA?5?$AA?$DM?$AA?5?$AAt?$AAh?$AAi?$AAs?$AA?9?$AA?$DO?$AAl?$AAe?$AAn?$AAg?$AAt@
CONST	SEGMENT
??_C@_1CG@KOFHLCJL@?$AAi?$AA?5?$AA?$DM?$AA?5?$AAt?$AAh?$AAi?$AAs?$AA?9?$AA?$DO?$AAl?$AAe?$AAn?$AAg?$AAt@ DB 'i'
	DB	00H, ' ', 00H, '<', 00H, ' ', 00H, 't', 00H, 'h', 00H, 'i', 00H
	DB	's', 00H, '-', 00H, '>', 00H, 'l', 00H, 'e', 00H, 'n', 00H, 'g'
	DB	00H, 't', 00H, 'h', 00H, '(', 00H, ')', 00H, 00H, 00H ; `string'
CONST	ENDS
;	COMDAT ??_C@_1LK@BAPNPALB@?$AAC?$AA?3?$AA?2?$AAU?$AAs?$AAe?$AAr?$AAs?$AA?2?$AAk?$AAs?$AAa?$AAr?$AAt?$AA?2@
CONST	SEGMENT
??_C@_1LK@BAPNPALB@?$AAC?$AA?3?$AA?2?$AAU?$AAs?$AAe?$AAr?$AAs?$AA?2?$AAk?$AAs?$AAa?$AAr?$AAt?$AA?2@ DB 'C'
	DB	00H, ':', 00H, '\', 00H, 'U', 00H, 's', 00H, 'e', 00H, 'r', 00H
	DB	's', 00H, '\', 00H, 'k', 00H, 's', 00H, 'a', 00H, 'r', 00H, 't'
	DB	00H, '\', 00H, 'O', 00H, 'n', 00H, 'e', 00H, 'D', 00H, 'r', 00H
	DB	'i', 00H, 'v', 00H, 'e', 00H, '\', 00H, 'D', 00H, 'e', 00H, 's'
	DB	00H, 'k', 00H, 't', 00H, 'o', 00H, 'p', 00H, '\', 00H, 'F', 00H
	DB	'l', 00H, 'a', 00H, 'p', 00H, 'p', 00H, 'y', 00H, 'B', 00H, 'i'
	DB	00H, 'r', 00H, 'd', 00H, '\', 00H, 'l', 00H, 'i', 00H, 'b', 00H
	DB	'r', 00H, 'a', 00H, 'r', 00H, 'i', 00H, 'e', 00H, 's', 00H, '\'
	DB	00H, 'e', 00H, 'x', 00H, 't', 00H, 'e', 00H, 'r', 00H, 'n', 00H
	DB	'a', 00H, 'l', 00H, '\', 00H, 'g', 00H, 'l', 00H, 'm', 00H, '\'
	DB	00H, 'g', 00H, 'l', 00H, 'm', 00H, '\', 00H, 'd', 00H, 'e', 00H
	DB	't', 00H, 'a', 00H, 'i', 00H, 'l', 00H, '\', 00H, 't', 00H, 'y'
	DB	00H, 'p', 00H, 'e', 00H, '_', 00H, 'm', 00H, 'a', 00H, 't', 00H
	DB	'4', 00H, 'x', 00H, '4', 00H, '.', 00H, 'i', 00H, 'n', 00H, 'l'
	DB	00H, 00H, 00H				; `string'
CONST	ENDS
;	COMDAT ??_C@_1LG@LAANPDHN@?$AAC?$AA?3?$AA?2?$AAU?$AAs?$AAe?$AAr?$AAs?$AA?2?$AAk?$AAs?$AAa?$AAr?$AAt?$AA?2@
CONST	SEGMENT
??_C@_1LG@LAANPDHN@?$AAC?$AA?3?$AA?2?$AAU?$AAs?$AAe?$AAr?$AAs?$AA?2?$AAk?$AAs?$AAa?$AAr?$AAt?$AA?2@ DB 'C'
	DB	00H, ':', 00H, '\', 00H, 'U', 00H, 's', 00H, 'e', 00H, 'r', 00H
	DB	's', 00H, '\', 00H, 'k', 00H, 's', 00H, 'a', 00H, 'r', 00H, 't'
	DB	00H, '\', 00H, 'O', 00H, 'n', 00H, 'e', 00H, 'D', 00H, 'r', 00H
	DB	'i', 00H, 'v', 00H, 'e', 00H, '\', 00H, 'D', 00H, 'e', 00H, 's'
	DB	00H, 'k', 00H, 't', 00H, 'o', 00H, 'p', 00H, '\', 00H, 'F', 00H
	DB	'l', 00H, 'a', 00H, 'p', 00H, 'p', 00H, 'y', 00H, 'B', 00H, 'i'
	DB	00H, 'r', 00H, 'd', 00H, '\', 00H, 'l', 00H, 'i', 00H, 'b', 00H
	DB	'r', 00H, 'a', 00H, 'r', 00H, 'i', 00H, 'e', 00H, 's', 00H, '\'
	DB	00H, 'e', 00H, 'x', 00H, 't', 00H, 'e', 00H, 'r', 00H, 'n', 00H
	DB	'a', 00H, 'l', 00H, '\', 00H, 'g', 00H, 'l', 00H, 'm', 00H, '\'
	DB	00H, 'g', 00H, 'l', 00H, 'm', 00H, '\', 00H, 'd', 00H, 'e', 00H
	DB	't', 00H, 'a', 00H, 'i', 00H, 'l', 00H, '\', 00H, 't', 00H, 'y'
	DB	00H, 'p', 00H, 'e', 00H, '_', 00H, 'v', 00H, 'e', 00H, 'c', 00H
	DB	'4', 00H, '.', 00H, 'i', 00H, 'n', 00H, 'l', 00H, 00H, 00H ; `string'
CONST	ENDS
;	COMDAT ??_C@_1DK@BGNCJAPL@?$AAi?$AA?5?$AA?$DO?$AA?$DN?$AA?5?$AA0?$AA?5?$AA?$CG?$AA?$CG?$AA?5?$AAi?$AA?5?$AA?$DM?$AA?5?$AAt@
CONST	SEGMENT
??_C@_1DK@BGNCJAPL@?$AAi?$AA?5?$AA?$DO?$AA?$DN?$AA?5?$AA0?$AA?5?$AA?$CG?$AA?$CG?$AA?5?$AAi?$AA?5?$AA?$DM?$AA?5?$AAt@ DB 'i'
	DB	00H, ' ', 00H, '>', 00H, '=', 00H, ' ', 00H, '0', 00H, ' ', 00H
	DB	'&', 00H, '&', 00H, ' ', 00H, 'i', 00H, ' ', 00H, '<', 00H, ' '
	DB	00H, 't', 00H, 'h', 00H, 'i', 00H, 's', 00H, '-', 00H, '>', 00H
	DB	'l', 00H, 'e', 00H, 'n', 00H, 'g', 00H, 't', 00H, 'h', 00H, '('
	DB	00H, ')', 00H, 00H, 00H			; `string'
CONST	ENDS
;	COMDAT xdata
xdata	SEGMENT
$unwind$?call@?$compute_vec4_add@M$0A@$0A@@detail@glm@@SA?AU?$tvec4@M$0A@@3@AEBU43@0@Z DD 021401H
	DD	070107214H
xdata	ENDS
;	COMDAT xdata
xdata	SEGMENT
$unwind$??$?YM@?$tvec4@M$0A@@glm@@QEAAAEAU01@AEBU01@@Z DD 031001H
	DD	0700c8210H
	DD	0600bH
xdata	ENDS
;	COMDAT xdata
xdata	SEGMENT
$unwind$??$?XM@?$tvec4@M$0A@@glm@@QEAAAEAU01@AEBU01@@Z DD 031001H
	DD	0700c8210H
	DD	0600bH
xdata	ENDS
;	COMDAT xdata
xdata	SEGMENT
$unwind$??$?0HHHM@?$tvec4@M$0A@@glm@@QEAA@HHHM@Z DD 011401H
	DD	07014H
xdata	ENDS
;	COMDAT xdata
xdata	SEGMENT
$unwind$??$?0HHMH@?$tvec4@M$0A@@glm@@QEAA@HHMH@Z DD 011501H
	DD	07015H
xdata	ENDS
;	COMDAT xdata
xdata	SEGMENT
$unwind$??$?0HMHH@?$tvec4@M$0A@@glm@@QEAA@HMHH@Z DD 011501H
	DD	07015H
xdata	ENDS
;	COMDAT xdata
xdata	SEGMENT
$unwind$??$?0MHHH@?$tvec4@M$0A@@glm@@QEAA@MHHH@Z DD 011601H
	DD	07016H
xdata	ENDS
;	COMDAT xdata
xdata	SEGMENT
$unwind$??$?HM$0A@@glm@@YA?AU?$tvec4@M$0A@@0@AEBU10@0@Z DD 031501H
	DD	070116215H
	DD	06010H
xdata	ENDS
;	COMDAT xdata
xdata	SEGMENT
$unwind$??$?DM$0A@@glm@@YA?AU?$tvec4@M$0A@@0@AEBU10@0@Z DD 031501H
	DD	070116215H
	DD	06010H
xdata	ENDS
;	COMDAT xdata
xdata	SEGMENT
$unwind$??$?DM$0A@@glm@@YA?AU?$tvec3@M$0A@@0@MAEBU10@@Z DD 021501H
	DD	070115215H
xdata	ENDS
;	COMDAT xdata
xdata	SEGMENT
$unwind$??0?$tvec3@M$0A@@glm@@QEAA@MMM@Z DD 011801H
	DD	07018H
xdata	ENDS
;	COMDAT xdata
xdata	SEGMENT
$unwind$?call@?$compute_vec4_mul@M$0A@$0A@@detail@glm@@SA?AU?$tvec4@M$0A@@3@AEBU43@0@Z DD 021401H
	DD	070107214H
xdata	ENDS
;	COMDAT xdata
xdata	SEGMENT
$unwind$??$?DM$0A@@glm@@YA?AU?$tvec4@M$0A@@0@AEBU?$tmat4x4@M$0A@@0@AEBU10@@Z DD 043101H
	DD	0470118H
	DD	060107011H
xdata	ENDS
;	COMDAT CONST
CONST	SEGMENT
??$?DM$0A@@glm@@YA?AU?$tvec4@M$0A@@0@AEBU?$tmat4x4@M$0A@@0@AEBU10@@Z$rtcName$0 DB 04dH ; glm::operator*<float,0>
	DB	06fH
	DB	076H
	DB	030H
	DB	00H
	ORG $+3
??$?DM$0A@@glm@@YA?AU?$tvec4@M$0A@@0@AEBU?$tmat4x4@M$0A@@0@AEBU10@@Z$rtcName$1 DB 04dH ; glm::operator*<float,0>
	DB	06fH
	DB	076H
	DB	031H
	DB	00H
	ORG $+3
??$?DM$0A@@glm@@YA?AU?$tvec4@M$0A@@0@AEBU?$tmat4x4@M$0A@@0@AEBU10@@Z$rtcName$2 DB 04dH ; glm::operator*<float,0>
	DB	075H
	DB	06cH
	DB	030H
	DB	00H
	ORG $+3
??$?DM$0A@@glm@@YA?AU?$tvec4@M$0A@@0@AEBU?$tmat4x4@M$0A@@0@AEBU10@@Z$rtcName$3 DB 04dH ; glm::operator*<float,0>
	DB	075H
	DB	06cH
	DB	031H
	DB	00H
	ORG $+3
??$?DM$0A@@glm@@YA?AU?$tvec4@M$0A@@0@AEBU?$tmat4x4@M$0A@@0@AEBU10@@Z$rtcName$4 DB 041H ; glm::operator*<float,0>
	DB	064H
	DB	064H
	DB	030H
	DB	00H
	ORG $+3
??$?DM$0A@@glm@@YA?AU?$tvec4@M$0A@@0@AEBU?$tmat4x4@M$0A@@0@AEBU10@@Z$rtcName$5 DB 04dH ; glm::operator*<float,0>
	DB	06fH
	DB	076H
	DB	032H
	DB	00H
	ORG $+3
??$?DM$0A@@glm@@YA?AU?$tvec4@M$0A@@0@AEBU?$tmat4x4@M$0A@@0@AEBU10@@Z$rtcName$6 DB 04dH ; glm::operator*<float,0>
	DB	06fH
	DB	076H
	DB	033H
	DB	00H
	ORG $+3
??$?DM$0A@@glm@@YA?AU?$tvec4@M$0A@@0@AEBU?$tmat4x4@M$0A@@0@AEBU10@@Z$rtcName$7 DB 04dH ; glm::operator*<float,0>
	DB	075H
	DB	06cH
	DB	032H
	DB	00H
	ORG $+3
??$?DM$0A@@glm@@YA?AU?$tvec4@M$0A@@0@AEBU?$tmat4x4@M$0A@@0@AEBU10@@Z$rtcName$8 DB 04dH ; glm::operator*<float,0>
	DB	075H
	DB	06cH
	DB	033H
	DB	00H
	ORG $+3
??$?DM$0A@@glm@@YA?AU?$tvec4@M$0A@@0@AEBU?$tmat4x4@M$0A@@0@AEBU10@@Z$rtcName$9 DB 041H ; glm::operator*<float,0>
	DB	064H
	DB	064H
	DB	031H
	DB	00H
	ORG $+3
??$?DM$0A@@glm@@YA?AU?$tvec4@M$0A@@0@AEBU?$tmat4x4@M$0A@@0@AEBU10@@Z$rtcName$10 DB 041H ; glm::operator*<float,0>
	DB	064H
	DB	064H
	DB	032H
	DB	00H
	ORG $+3
??$?DM$0A@@glm@@YA?AU?$tvec4@M$0A@@0@AEBU?$tmat4x4@M$0A@@0@AEBU10@@Z$rtcFrameData DD 0bH ; glm::operator*<float,0>
	DD	00H
	DQ	FLAT:??$?DM$0A@@glm@@YA?AU?$tvec4@M$0A@@0@AEBU?$tmat4x4@M$0A@@0@AEBU10@@Z$rtcVarDesc
	ORG $+8
??$?DM$0A@@glm@@YA?AU?$tvec4@M$0A@@0@AEBU?$tmat4x4@M$0A@@0@AEBU10@@Z$rtcVarDesc DD 0208H ; glm::operator*<float,0>
	DD	010H
	DQ	FLAT:??$?DM$0A@@glm@@YA?AU?$tvec4@M$0A@@0@AEBU?$tmat4x4@M$0A@@0@AEBU10@@Z$rtcName$10
	DD	01d8H
	DD	010H
	DQ	FLAT:??$?DM$0A@@glm@@YA?AU?$tvec4@M$0A@@0@AEBU?$tmat4x4@M$0A@@0@AEBU10@@Z$rtcName$9
	DD	01a8H
	DD	010H
	DQ	FLAT:??$?DM$0A@@glm@@YA?AU?$tvec4@M$0A@@0@AEBU?$tmat4x4@M$0A@@0@AEBU10@@Z$rtcName$8
	DD	0178H
	DD	010H
	DQ	FLAT:??$?DM$0A@@glm@@YA?AU?$tvec4@M$0A@@0@AEBU?$tmat4x4@M$0A@@0@AEBU10@@Z$rtcName$7
	DD	0148H
	DD	010H
	DQ	FLAT:??$?DM$0A@@glm@@YA?AU?$tvec4@M$0A@@0@AEBU?$tmat4x4@M$0A@@0@AEBU10@@Z$rtcName$6
	DD	0118H
	DD	010H
	DQ	FLAT:??$?DM$0A@@glm@@YA?AU?$tvec4@M$0A@@0@AEBU?$tmat4x4@M$0A@@0@AEBU10@@Z$rtcName$5
	DD	0e8H
	DD	010H
	DQ	FLAT:??$?DM$0A@@glm@@YA?AU?$tvec4@M$0A@@0@AEBU?$tmat4x4@M$0A@@0@AEBU10@@Z$rtcName$4
	DD	0b8H
	DD	010H
	DQ	FLAT:??$?DM$0A@@glm@@YA?AU?$tvec4@M$0A@@0@AEBU?$tmat4x4@M$0A@@0@AEBU10@@Z$rtcName$3
	DD	088H
	DD	010H
	DQ	FLAT:??$?DM$0A@@glm@@YA?AU?$tvec4@M$0A@@0@AEBU?$tmat4x4@M$0A@@0@AEBU10@@Z$rtcName$2
	DD	058H
	DD	010H
	DQ	FLAT:??$?DM$0A@@glm@@YA?AU?$tvec4@M$0A@@0@AEBU?$tmat4x4@M$0A@@0@AEBU10@@Z$rtcName$1
	DD	028H
	DD	010H
	DQ	FLAT:??$?DM$0A@@glm@@YA?AU?$tvec4@M$0A@@0@AEBU?$tmat4x4@M$0A@@0@AEBU10@@Z$rtcName$0
CONST	ENDS
;	COMDAT xdata
xdata	SEGMENT
$unwind$??A?$tmat4x4@M$0A@@glm@@QEBAAEBU?$tvec4@M$0A@@1@H@Z DD 020e01H
	DD	0700a320eH
xdata	ENDS
;	COMDAT xdata
xdata	SEGMENT
$unwind$??A?$tmat4x4@M$0A@@glm@@QEAAAEAU?$tvec4@M$0A@@1@H@Z DD 020e01H
	DD	0700a320eH
xdata	ENDS
;	COMDAT xdata
xdata	SEGMENT
$unwind$?length@?$tmat4x4@M$0A@@glm@@SAHXZ DD 010201H
	DD	07002H
xdata	ENDS
;	COMDAT xdata
xdata	SEGMENT
$unwind$??0?$tmat4x4@M$0A@@glm@@QEAA@AEBM@Z DD 031001H
	DD	0700ce210H
	DD	0600bH
xdata	ENDS
;	COMDAT voltbl
voltbl	SEGMENT
_volmd	DW	037H
	DW	0291H
voltbl	ENDS
;	COMDAT xdata
xdata	SEGMENT
$unwind$??$saturation@M@glm@@YA?AU?$tmat4x4@M$0A@@0@M@Z DD 043f19H
	DD	0210114H
	DD	0600c700dH
	DD	imagerel __GSHandlerCheck
	DD	0f0H
xdata	ENDS
;	COMDAT CONST
CONST	SEGMENT
??$saturation@M@glm@@YA?AU?$tmat4x4@M$0A@@0@M@Z$rtcName$0 DB 072H ; glm::saturation<float>
	DB	067H
	DB	062H
	DB	077H
	DB	00H
	ORG $+3
??$saturation@M@glm@@YA?AU?$tmat4x4@M$0A@@0@M@Z$rtcName$1 DB 063H ; glm::saturation<float>
	DB	06fH
	DB	06cH
	DB	00H
??$saturation@M@glm@@YA?AU?$tmat4x4@M$0A@@0@M@Z$rtcName$2 DB 072H ; glm::saturation<float>
	DB	065H
	DB	073H
	DB	075H
	DB	06cH
	DB	074H
	DB	00H
	ORG $+5
??$saturation@M@glm@@YA?AU?$tmat4x4@M$0A@@0@M@Z$rtcFrameData DD 03H ; glm::saturation<float>
	DD	00H
	DQ	FLAT:??$saturation@M@glm@@YA?AU?$tmat4x4@M$0A@@0@M@Z$rtcVarDesc
	ORG $+8
??$saturation@M@glm@@YA?AU?$tmat4x4@M$0A@@0@M@Z$rtcVarDesc DD 090H ; glm::saturation<float>
	DD	040H
	DQ	FLAT:??$saturation@M@glm@@YA?AU?$tmat4x4@M$0A@@0@M@Z$rtcName$2
	DD	058H
	DD	0cH
	DQ	FLAT:??$saturation@M@glm@@YA?AU?$tmat4x4@M$0A@@0@M@Z$rtcName$1
	DD	028H
	DD	0cH
	DQ	FLAT:??$saturation@M@glm@@YA?AU?$tmat4x4@M$0A@@0@M@Z$rtcName$0
CONST	ENDS
;	COMDAT voltbl
voltbl	SEGMENT
_volmd	DB	01fH
	DB	057H
voltbl	ENDS
;	COMDAT xdata
xdata	SEGMENT
$unwind$??$saturation@M$0A@@glm@@YA?AU?$tvec4@M$0A@@0@MAEBU10@@Z DD 022419H
	DD	07011d215H
	DD	imagerel __GSHandlerCheck
	DD	068H
xdata	ENDS
;	COMDAT xdata
xdata	SEGMENT
$unwind$??$?0NNNN@?$tvec4@M$0A@@glm@@QEAA@NNNN@Z DD 011801H
	DD	07018H
xdata	ENDS
xdata	SEGMENT
$unwind$?test_saturation@@YAHXZ DD 021a01H
	DD	07002f209H
$unwind$main DD	020601H
	DD	070025206H
xdata	ENDS
CONST	SEGMENT
?test_saturation@@YAHXZ$rtcName$0 DB 043H		; test_saturation
	DB	06fH
	DB	06cH
	DB	06fH
	DB	072H
	DB	00H
	ORG $+10
?test_saturation@@YAHXZ$rtcVarDesc DD 048H		; test_saturation
	DD	010H
	DQ	FLAT:?test_saturation@@YAHXZ$rtcName$0
	ORG $+48
?test_saturation@@YAHXZ$rtcFrameData DD 01H		; test_saturation
	DD	00H
	DQ	FLAT:?test_saturation@@YAHXZ$rtcVarDesc
CONST	ENDS
;	COMDAT xdata
xdata	SEGMENT
$unwind$??0?$tvec4@M$0A@@glm@@QEAA@MMMM@Z DD 011801H
	DD	07018H
xdata	ENDS
;	COMDAT xdata
xdata	SEGMENT
$unwind$??0?$tvec4@M$0A@@glm@@QEAA@M@Z DD 010c01H
	DD	0700cH
xdata	ENDS
;	COMDAT xdata
xdata	SEGMENT
$unwind$??0?$tvec4@M$0A@@glm@@QEAA@XZ DD 010601H
	DD	07006H
xdata	ENDS
;	COMDAT xdata
xdata	SEGMENT
$unwind$??A?$tvec4@M$0A@@glm@@QEBAAEBMH@Z DD 020e01H
	DD	0700a320eH
xdata	ENDS
;	COMDAT xdata
xdata	SEGMENT
$unwind$??A?$tvec4@M$0A@@glm@@QEAAAEAMH@Z DD 020e01H
	DD	0700a320eH
xdata	ENDS
;	COMDAT xdata
xdata	SEGMENT
$unwind$?length@?$tvec4@M$0A@@glm@@SAHXZ DD 010201H
	DD	07002H
xdata	ENDS
;	COMDAT xdata
xdata	SEGMENT
$unwind$??_H@YAXPEAX_K1P6APEAX0@Z@Z DD 021901H
	DD	070155219H
xdata	ENDS
; Function compile flags: /Odtp /RTCsu
; File C:\Users\ksart\OneDrive\Desktop\FlappyBird\libraries\external\glm\glm\detail\type_vec4.inl
;	COMDAT ?call@?$compute_vec4_add@M$0A@$0A@@detail@glm@@SA?AU?$tvec4@M$0A@@3@AEBU43@0@Z
_TEXT	SEGMENT
tv80 = 48
__$ReturnUdt$ = 80
a$ = 88
b$ = 96
?call@?$compute_vec4_add@M$0A@$0A@@detail@glm@@SA?AU?$tvec4@M$0A@@3@AEBU43@0@Z PROC ; glm::detail::compute_vec4_add<float,0,0>::call, COMDAT

; 41   : 		{

$LN3:
	mov	QWORD PTR [rsp+24], r8
	mov	QWORD PTR [rsp+16], rdx
	mov	QWORD PTR [rsp+8], rcx
	push	rdi
	sub	rsp, 64					; 00000040H

; 42   : 			return tvec4<T, P>(a.x + b.x, a.y + b.y, a.z + b.z, a.w + b.w);

	mov	rax, QWORD PTR a$[rsp]
	mov	rcx, QWORD PTR b$[rsp]
	movss	xmm0, DWORD PTR [rax+12]
	addss	xmm0, DWORD PTR [rcx+12]
	mov	rax, QWORD PTR a$[rsp]
	mov	rcx, QWORD PTR b$[rsp]
	movss	xmm1, DWORD PTR [rax+8]
	addss	xmm1, DWORD PTR [rcx+8]
	mov	rax, QWORD PTR a$[rsp]
	mov	rcx, QWORD PTR b$[rsp]
	movss	xmm2, DWORD PTR [rax+4]
	addss	xmm2, DWORD PTR [rcx+4]
	mov	rax, QWORD PTR a$[rsp]
	mov	rcx, QWORD PTR b$[rsp]
	movss	xmm3, DWORD PTR [rax]
	addss	xmm3, DWORD PTR [rcx]
	movss	DWORD PTR tv80[rsp], xmm3
	movss	DWORD PTR [rsp+32], xmm0
	movaps	xmm3, xmm1
	movss	xmm0, DWORD PTR tv80[rsp]
	movaps	xmm1, xmm0
	mov	rcx, QWORD PTR __$ReturnUdt$[rsp]
	call	??0?$tvec4@M$0A@@glm@@QEAA@MMMM@Z	; glm::tvec4<float,0>::tvec4<float,0>
	mov	rax, QWORD PTR __$ReturnUdt$[rsp]

; 43   : 		}

	add	rsp, 64					; 00000040H
	pop	rdi
	ret	0
?call@?$compute_vec4_add@M$0A@$0A@@detail@glm@@SA?AU?$tvec4@M$0A@@3@AEBU43@0@Z ENDP ; glm::detail::compute_vec4_add<float,0,0>::call
_TEXT	ENDS
; Function compile flags: /Odtp /RTCsu
; File C:\Users\ksart\OneDrive\Desktop\FlappyBird\libraries\external\glm\glm\detail\type_vec4.inl
;	COMDAT ??$?YM@?$tvec4@M$0A@@glm@@QEAAAEAU01@AEBU01@@Z
_TEXT	SEGMENT
$T1 = 32
$T2 = 48
this$ = 96
v$ = 104
??$?YM@?$tvec4@M$0A@@glm@@QEAAAEAU01@AEBU01@@Z PROC	; glm::tvec4<float,0>::operator+=<float>, COMDAT

; 383  : 	{

$LN3:
	mov	QWORD PTR [rsp+16], rdx
	mov	QWORD PTR [rsp+8], rcx
	push	rsi
	push	rdi
	sub	rsp, 72					; 00000048H

; 384  : 		return (*this = detail::compute_vec4_add<T, P, detail::is_aligned<P>::value>::call(*this, tvec4<T, P>(v)));

	lea	rax, QWORD PTR $T1[rsp]
	mov	rdi, rax
	mov	rsi, QWORD PTR v$[rsp]
	mov	ecx, 16
	rep movsb
	lea	r8, QWORD PTR $T1[rsp]
	mov	rdx, QWORD PTR this$[rsp]
	lea	rcx, QWORD PTR $T2[rsp]
	call	?call@?$compute_vec4_add@M$0A@$0A@@detail@glm@@SA?AU?$tvec4@M$0A@@3@AEBU43@0@Z ; glm::detail::compute_vec4_add<float,0,0>::call
	mov	rdi, QWORD PTR this$[rsp]
	mov	rsi, rax
	mov	ecx, 16
	rep movsb
	mov	rax, QWORD PTR this$[rsp]

; 385  : 	}

	add	rsp, 72					; 00000048H
	pop	rdi
	pop	rsi
	ret	0
??$?YM@?$tvec4@M$0A@@glm@@QEAAAEAU01@AEBU01@@Z ENDP	; glm::tvec4<float,0>::operator+=<float>
_TEXT	ENDS
; Function compile flags: /Odtp /RTCsu
; File C:\Users\ksart\OneDrive\Desktop\FlappyBird\libraries\external\glm\glm\detail\type_vec4.inl
;	COMDAT ??$?XM@?$tvec4@M$0A@@glm@@QEAAAEAU01@AEBU01@@Z
_TEXT	SEGMENT
$T1 = 32
$T2 = 48
this$ = 96
v$ = 104
??$?XM@?$tvec4@M$0A@@glm@@QEAAAEAU01@AEBU01@@Z PROC	; glm::tvec4<float,0>::operator*=<float>, COMDAT

; 425  : 	{

$LN3:
	mov	QWORD PTR [rsp+16], rdx
	mov	QWORD PTR [rsp+8], rcx
	push	rsi
	push	rdi
	sub	rsp, 72					; 00000048H

; 426  : 		return (*this = detail::compute_vec4_mul<T, P, detail::is_aligned<P>::value>::call(*this, tvec4<T, P>(v)));

	lea	rax, QWORD PTR $T1[rsp]
	mov	rdi, rax
	mov	rsi, QWORD PTR v$[rsp]
	mov	ecx, 16
	rep movsb
	lea	r8, QWORD PTR $T1[rsp]
	mov	rdx, QWORD PTR this$[rsp]
	lea	rcx, QWORD PTR $T2[rsp]
	call	?call@?$compute_vec4_mul@M$0A@$0A@@detail@glm@@SA?AU?$tvec4@M$0A@@3@AEBU43@0@Z ; glm::detail::compute_vec4_mul<float,0,0>::call
	mov	rdi, QWORD PTR this$[rsp]
	mov	rsi, rax
	mov	ecx, 16
	rep movsb
	mov	rax, QWORD PTR this$[rsp]

; 427  : 	}

	add	rsp, 72					; 00000048H
	pop	rdi
	pop	rsi
	ret	0
??$?XM@?$tvec4@M$0A@@glm@@QEAAAEAU01@AEBU01@@Z ENDP	; glm::tvec4<float,0>::operator*=<float>
_TEXT	ENDS
; Function compile flags: /Odtp /RTCsu
; File C:\Users\ksart\OneDrive\Desktop\FlappyBird\libraries\external\glm\glm\detail\type_vec4.inl
;	COMDAT ??$?0HHHM@?$tvec4@M$0A@@glm@@QEAA@HHHM@Z
_TEXT	SEGMENT
this$ = 16
a$ = 24
b$ = 32
c$ = 40
d$ = 48
??$?0HHHM@?$tvec4@M$0A@@glm@@QEAA@HHHM@Z PROC		; glm::tvec4<float,0>::tvec4<float,0><int,int,int,float>, COMDAT

; 204  : 	{}

$LN3:
	mov	DWORD PTR [rsp+32], r9d
	mov	DWORD PTR [rsp+24], r8d
	mov	DWORD PTR [rsp+16], edx
	mov	QWORD PTR [rsp+8], rcx
	push	rdi

; 200  : 		x(static_cast<T>(a)),

	cvtsi2ss xmm0, DWORD PTR a$[rsp]
	mov	rax, QWORD PTR this$[rsp]
	movss	DWORD PTR [rax], xmm0

; 201  : 		y(static_cast<T>(b)),

	cvtsi2ss xmm0, DWORD PTR b$[rsp]
	mov	rax, QWORD PTR this$[rsp]
	movss	DWORD PTR [rax+4], xmm0

; 202  : 		z(static_cast<T>(c)),

	cvtsi2ss xmm0, DWORD PTR c$[rsp]
	mov	rax, QWORD PTR this$[rsp]
	movss	DWORD PTR [rax+8], xmm0

; 203  : 		w(static_cast<T>(d))

	mov	rax, QWORD PTR this$[rsp]
	movss	xmm0, DWORD PTR d$[rsp]
	movss	DWORD PTR [rax+12], xmm0

; 204  : 	{}

	mov	rax, QWORD PTR this$[rsp]
	pop	rdi
	ret	0
??$?0HHHM@?$tvec4@M$0A@@glm@@QEAA@HHHM@Z ENDP		; glm::tvec4<float,0>::tvec4<float,0><int,int,int,float>
_TEXT	ENDS
; Function compile flags: /Odtp /RTCsu
; File C:\Users\ksart\OneDrive\Desktop\FlappyBird\libraries\external\glm\glm\detail\type_vec4.inl
;	COMDAT ??$?0HHMH@?$tvec4@M$0A@@glm@@QEAA@HHMH@Z
_TEXT	SEGMENT
this$ = 16
a$ = 24
b$ = 32
c$ = 40
d$ = 48
??$?0HHMH@?$tvec4@M$0A@@glm@@QEAA@HHMH@Z PROC		; glm::tvec4<float,0>::tvec4<float,0><int,int,float,int>, COMDAT

; 204  : 	{}

$LN3:
	movss	DWORD PTR [rsp+32], xmm3
	mov	DWORD PTR [rsp+24], r8d
	mov	DWORD PTR [rsp+16], edx
	mov	QWORD PTR [rsp+8], rcx
	push	rdi

; 200  : 		x(static_cast<T>(a)),

	cvtsi2ss xmm0, DWORD PTR a$[rsp]
	mov	rax, QWORD PTR this$[rsp]
	movss	DWORD PTR [rax], xmm0

; 201  : 		y(static_cast<T>(b)),

	cvtsi2ss xmm0, DWORD PTR b$[rsp]
	mov	rax, QWORD PTR this$[rsp]
	movss	DWORD PTR [rax+4], xmm0

; 202  : 		z(static_cast<T>(c)),

	mov	rax, QWORD PTR this$[rsp]
	movss	xmm0, DWORD PTR c$[rsp]
	movss	DWORD PTR [rax+8], xmm0

; 203  : 		w(static_cast<T>(d))

	cvtsi2ss xmm0, DWORD PTR d$[rsp]
	mov	rax, QWORD PTR this$[rsp]
	movss	DWORD PTR [rax+12], xmm0

; 204  : 	{}

	mov	rax, QWORD PTR this$[rsp]
	pop	rdi
	ret	0
??$?0HHMH@?$tvec4@M$0A@@glm@@QEAA@HHMH@Z ENDP		; glm::tvec4<float,0>::tvec4<float,0><int,int,float,int>
_TEXT	ENDS
; Function compile flags: /Odtp /RTCsu
; File C:\Users\ksart\OneDrive\Desktop\FlappyBird\libraries\external\glm\glm\detail\type_vec4.inl
;	COMDAT ??$?0HMHH@?$tvec4@M$0A@@glm@@QEAA@HMHH@Z
_TEXT	SEGMENT
this$ = 16
a$ = 24
b$ = 32
c$ = 40
d$ = 48
??$?0HMHH@?$tvec4@M$0A@@glm@@QEAA@HMHH@Z PROC		; glm::tvec4<float,0>::tvec4<float,0><int,float,int,int>, COMDAT

; 204  : 	{}

$LN3:
	mov	DWORD PTR [rsp+32], r9d
	movss	DWORD PTR [rsp+24], xmm2
	mov	DWORD PTR [rsp+16], edx
	mov	QWORD PTR [rsp+8], rcx
	push	rdi

; 200  : 		x(static_cast<T>(a)),

	cvtsi2ss xmm0, DWORD PTR a$[rsp]
	mov	rax, QWORD PTR this$[rsp]
	movss	DWORD PTR [rax], xmm0

; 201  : 		y(static_cast<T>(b)),

	mov	rax, QWORD PTR this$[rsp]
	movss	xmm0, DWORD PTR b$[rsp]
	movss	DWORD PTR [rax+4], xmm0

; 202  : 		z(static_cast<T>(c)),

	cvtsi2ss xmm0, DWORD PTR c$[rsp]
	mov	rax, QWORD PTR this$[rsp]
	movss	DWORD PTR [rax+8], xmm0

; 203  : 		w(static_cast<T>(d))

	cvtsi2ss xmm0, DWORD PTR d$[rsp]
	mov	rax, QWORD PTR this$[rsp]
	movss	DWORD PTR [rax+12], xmm0

; 204  : 	{}

	mov	rax, QWORD PTR this$[rsp]
	pop	rdi
	ret	0
??$?0HMHH@?$tvec4@M$0A@@glm@@QEAA@HMHH@Z ENDP		; glm::tvec4<float,0>::tvec4<float,0><int,float,int,int>
_TEXT	ENDS
; Function compile flags: /Odtp /RTCsu
; File C:\Users\ksart\OneDrive\Desktop\FlappyBird\libraries\external\glm\glm\detail\type_vec4.inl
;	COMDAT ??$?0MHHH@?$tvec4@M$0A@@glm@@QEAA@MHHH@Z
_TEXT	SEGMENT
this$ = 16
a$ = 24
b$ = 32
c$ = 40
d$ = 48
??$?0MHHH@?$tvec4@M$0A@@glm@@QEAA@MHHH@Z PROC		; glm::tvec4<float,0>::tvec4<float,0><float,int,int,int>, COMDAT

; 204  : 	{}

$LN3:
	mov	DWORD PTR [rsp+32], r9d
	mov	DWORD PTR [rsp+24], r8d
	movss	DWORD PTR [rsp+16], xmm1
	mov	QWORD PTR [rsp+8], rcx
	push	rdi

; 200  : 		x(static_cast<T>(a)),

	mov	rax, QWORD PTR this$[rsp]
	movss	xmm0, DWORD PTR a$[rsp]
	movss	DWORD PTR [rax], xmm0

; 201  : 		y(static_cast<T>(b)),

	cvtsi2ss xmm0, DWORD PTR b$[rsp]
	mov	rax, QWORD PTR this$[rsp]
	movss	DWORD PTR [rax+4], xmm0

; 202  : 		z(static_cast<T>(c)),

	cvtsi2ss xmm0, DWORD PTR c$[rsp]
	mov	rax, QWORD PTR this$[rsp]
	movss	DWORD PTR [rax+8], xmm0

; 203  : 		w(static_cast<T>(d))

	cvtsi2ss xmm0, DWORD PTR d$[rsp]
	mov	rax, QWORD PTR this$[rsp]
	movss	DWORD PTR [rax+12], xmm0

; 204  : 	{}

	mov	rax, QWORD PTR this$[rsp]
	pop	rdi
	ret	0
??$?0MHHH@?$tvec4@M$0A@@glm@@QEAA@MHHH@Z ENDP		; glm::tvec4<float,0>::tvec4<float,0><float,int,int,int>
_TEXT	ENDS
; Function compile flags: /Odtp /RTCsu
; File C:\Users\ksart\OneDrive\Desktop\FlappyBird\libraries\external\glm\glm\detail\type_vec4.inl
;	COMDAT ??$?HM$0A@@glm@@YA?AU?$tvec4@M$0A@@0@AEBU10@0@Z
_TEXT	SEGMENT
$T1 = 32
__$ReturnUdt$ = 80
v1$ = 88
v2$ = 96
??$?HM$0A@@glm@@YA?AU?$tvec4@M$0A@@0@AEBU10@0@Z PROC	; glm::operator+<float,0>, COMDAT

; 658  : 	{

$LN3:
	mov	QWORD PTR [rsp+24], r8
	mov	QWORD PTR [rsp+16], rdx
	mov	QWORD PTR [rsp+8], rcx
	push	rsi
	push	rdi
	sub	rsp, 56					; 00000038H

; 659  : 		return tvec4<T, P>(v1) += v2;

	lea	rax, QWORD PTR $T1[rsp]
	mov	rdi, rax
	mov	rsi, QWORD PTR v1$[rsp]
	mov	ecx, 16
	rep movsb
	mov	rdx, QWORD PTR v2$[rsp]
	lea	rcx, QWORD PTR $T1[rsp]
	call	??$?YM@?$tvec4@M$0A@@glm@@QEAAAEAU01@AEBU01@@Z ; glm::tvec4<float,0>::operator+=<float>
	mov	rdi, QWORD PTR __$ReturnUdt$[rsp]
	mov	rsi, rax
	mov	ecx, 16
	rep movsb
	mov	rax, QWORD PTR __$ReturnUdt$[rsp]

; 660  : 	}

	add	rsp, 56					; 00000038H
	pop	rdi
	pop	rsi
	ret	0
??$?HM$0A@@glm@@YA?AU?$tvec4@M$0A@@0@AEBU10@0@Z ENDP	; glm::operator+<float,0>
_TEXT	ENDS
; Function compile flags: /Odtp /RTCsu
; File C:\Users\ksart\OneDrive\Desktop\FlappyBird\libraries\external\glm\glm\detail\type_vec4.inl
;	COMDAT ??$?DM$0A@@glm@@YA?AU?$tvec4@M$0A@@0@AEBU10@0@Z
_TEXT	SEGMENT
$T1 = 32
__$ReturnUdt$ = 80
v1$ = 88
v2$ = 96
??$?DM$0A@@glm@@YA?AU?$tvec4@M$0A@@0@AEBU10@0@Z PROC	; glm::operator*<float,0>, COMDAT

; 718  : 	{

$LN3:
	mov	QWORD PTR [rsp+24], r8
	mov	QWORD PTR [rsp+16], rdx
	mov	QWORD PTR [rsp+8], rcx
	push	rsi
	push	rdi
	sub	rsp, 56					; 00000038H

; 719  : 		return tvec4<T, P>(v1) *= v2;

	lea	rax, QWORD PTR $T1[rsp]
	mov	rdi, rax
	mov	rsi, QWORD PTR v1$[rsp]
	mov	ecx, 16
	rep movsb
	mov	rdx, QWORD PTR v2$[rsp]
	lea	rcx, QWORD PTR $T1[rsp]
	call	??$?XM@?$tvec4@M$0A@@glm@@QEAAAEAU01@AEBU01@@Z ; glm::tvec4<float,0>::operator*=<float>
	mov	rdi, QWORD PTR __$ReturnUdt$[rsp]
	mov	rsi, rax
	mov	ecx, 16
	rep movsb
	mov	rax, QWORD PTR __$ReturnUdt$[rsp]

; 720  : 	}

	add	rsp, 56					; 00000038H
	pop	rdi
	pop	rsi
	ret	0
??$?DM$0A@@glm@@YA?AU?$tvec4@M$0A@@0@AEBU10@0@Z ENDP	; glm::operator*<float,0>
_TEXT	ENDS
; Function compile flags: /Odtp /RTCsu
; File C:\Users\ksart\OneDrive\Desktop\FlappyBird\libraries\external\glm\glm\detail\type_vec3.inl
;	COMDAT ??$?DM$0A@@glm@@YA?AU?$tvec3@M$0A@@0@MAEBU10@@Z
_TEXT	SEGMENT
tv73 = 32
__$ReturnUdt$ = 64
scalar$ = 72
v$ = 80
??$?DM$0A@@glm@@YA?AU?$tvec3@M$0A@@0@MAEBU10@@Z PROC	; glm::operator*<float,0>, COMDAT

; 646  : 	{

$LN3:
	mov	QWORD PTR [rsp+24], r8
	movss	DWORD PTR [rsp+16], xmm1
	mov	QWORD PTR [rsp+8], rcx
	push	rdi
	sub	rsp, 48					; 00000030H

; 647  : 		return tvec3<T, P>(

	mov	rax, QWORD PTR v$[rsp]
	movss	xmm0, DWORD PTR scalar$[rsp]
	mulss	xmm0, DWORD PTR [rax+8]
	mov	rax, QWORD PTR v$[rsp]
	movss	xmm1, DWORD PTR scalar$[rsp]
	mulss	xmm1, DWORD PTR [rax+4]
	mov	rax, QWORD PTR v$[rsp]
	movss	xmm2, DWORD PTR scalar$[rsp]
	mulss	xmm2, DWORD PTR [rax]
	movss	DWORD PTR tv73[rsp], xmm2
	movaps	xmm3, xmm0
	movaps	xmm2, xmm1
	movss	xmm0, DWORD PTR tv73[rsp]
	movaps	xmm1, xmm0
	mov	rcx, QWORD PTR __$ReturnUdt$[rsp]
	call	??0?$tvec3@M$0A@@glm@@QEAA@MMM@Z	; glm::tvec3<float,0>::tvec3<float,0>
	mov	rax, QWORD PTR __$ReturnUdt$[rsp]

; 648  : 			scalar * v.x,
; 649  : 			scalar * v.y,
; 650  : 			scalar * v.z);
; 651  : 	}

	add	rsp, 48					; 00000030H
	pop	rdi
	ret	0
??$?DM$0A@@glm@@YA?AU?$tvec3@M$0A@@0@MAEBU10@@Z ENDP	; glm::operator*<float,0>
_TEXT	ENDS
; Function compile flags: /Odtp /RTCsu
; File C:\Users\ksart\OneDrive\Desktop\FlappyBird\libraries\external\glm\glm\detail\type_vec3.inl
;	COMDAT ??0?$tvec3@M$0A@@glm@@QEAA@MMM@Z
_TEXT	SEGMENT
this$ = 16
a$ = 24
b$ = 32
c$ = 40
??0?$tvec3@M$0A@@glm@@QEAA@MMM@Z PROC			; glm::tvec3<float,0>::tvec3<float,0>, COMDAT

; 70   : 	{}

$LN3:
	movss	DWORD PTR [rsp+32], xmm3
	movss	DWORD PTR [rsp+24], xmm2
	movss	DWORD PTR [rsp+16], xmm1
	mov	QWORD PTR [rsp+8], rcx
	push	rdi

; 69   : 		: x(a), y(b), z(c)

	mov	rax, QWORD PTR this$[rsp]
	movss	xmm0, DWORD PTR a$[rsp]
	movss	DWORD PTR [rax], xmm0
	mov	rax, QWORD PTR this$[rsp]
	movss	xmm0, DWORD PTR b$[rsp]
	movss	DWORD PTR [rax+4], xmm0
	mov	rax, QWORD PTR this$[rsp]
	movss	xmm0, DWORD PTR c$[rsp]
	movss	DWORD PTR [rax+8], xmm0

; 70   : 	{}

	mov	rax, QWORD PTR this$[rsp]
	pop	rdi
	ret	0
??0?$tvec3@M$0A@@glm@@QEAA@MMM@Z ENDP			; glm::tvec3<float,0>::tvec3<float,0>
_TEXT	ENDS
; Function compile flags: /Odtp /RTCsu
; File C:\Users\ksart\OneDrive\Desktop\FlappyBird\libraries\external\glm\glm\detail\type_vec4.inl
;	COMDAT ?call@?$compute_vec4_mul@M$0A@$0A@@detail@glm@@SA?AU?$tvec4@M$0A@@3@AEBU43@0@Z
_TEXT	SEGMENT
tv80 = 48
__$ReturnUdt$ = 80
a$ = 88
b$ = 96
?call@?$compute_vec4_mul@M$0A@$0A@@detail@glm@@SA?AU?$tvec4@M$0A@@3@AEBU43@0@Z PROC ; glm::detail::compute_vec4_mul<float,0,0>::call, COMDAT

; 59   : 		{

$LN3:
	mov	QWORD PTR [rsp+24], r8
	mov	QWORD PTR [rsp+16], rdx
	mov	QWORD PTR [rsp+8], rcx
	push	rdi
	sub	rsp, 64					; 00000040H

; 60   : 			return tvec4<T, P>(a.x * b.x, a.y * b.y, a.z * b.z, a.w * b.w);

	mov	rax, QWORD PTR a$[rsp]
	mov	rcx, QWORD PTR b$[rsp]
	movss	xmm0, DWORD PTR [rax+12]
	mulss	xmm0, DWORD PTR [rcx+12]
	mov	rax, QWORD PTR a$[rsp]
	mov	rcx, QWORD PTR b$[rsp]
	movss	xmm1, DWORD PTR [rax+8]
	mulss	xmm1, DWORD PTR [rcx+8]
	mov	rax, QWORD PTR a$[rsp]
	mov	rcx, QWORD PTR b$[rsp]
	movss	xmm2, DWORD PTR [rax+4]
	mulss	xmm2, DWORD PTR [rcx+4]
	mov	rax, QWORD PTR a$[rsp]
	mov	rcx, QWORD PTR b$[rsp]
	movss	xmm3, DWORD PTR [rax]
	mulss	xmm3, DWORD PTR [rcx]
	movss	DWORD PTR tv80[rsp], xmm3
	movss	DWORD PTR [rsp+32], xmm0
	movaps	xmm3, xmm1
	movss	xmm0, DWORD PTR tv80[rsp]
	movaps	xmm1, xmm0
	mov	rcx, QWORD PTR __$ReturnUdt$[rsp]
	call	??0?$tvec4@M$0A@@glm@@QEAA@MMMM@Z	; glm::tvec4<float,0>::tvec4<float,0>
	mov	rax, QWORD PTR __$ReturnUdt$[rsp]

; 61   : 		}

	add	rsp, 64					; 00000040H
	pop	rdi
	ret	0
?call@?$compute_vec4_mul@M$0A@$0A@@detail@glm@@SA?AU?$tvec4@M$0A@@3@AEBU43@0@Z ENDP ; glm::detail::compute_vec4_mul<float,0,0>::call
_TEXT	ENDS
; Function compile flags: /Odtp /RTCsu
; File C:\Users\ksart\OneDrive\Desktop\FlappyBird\libraries\external\glm\glm\detail\type_mat4x4.inl
;	COMDAT ??$?DM$0A@@glm@@YA?AU?$tvec4@M$0A@@0@AEBU?$tmat4x4@M$0A@@0@AEBU10@@Z
_TEXT	SEGMENT
Mov0$ = 40
Mov1$ = 88
Mul0$ = 136
Mul1$ = 184
Add0$ = 232
Mov2$ = 280
Mov3$ = 328
Mul2$ = 376
Mul3$ = 424
Add1$ = 472
Add2$ = 520
__$ReturnUdt$ = 592
m$ = 600
v$ = 608
??$?DM$0A@@glm@@YA?AU?$tvec4@M$0A@@0@AEBU?$tmat4x4@M$0A@@0@AEBU10@@Z PROC ; glm::operator*<float,0>, COMDAT

; 506  : 	{

$LN3:
	mov	QWORD PTR [rsp+24], r8
	mov	QWORD PTR [rsp+16], rdx
	mov	QWORD PTR [rsp+8], rcx
	push	rsi
	push	rdi
	sub	rsp, 568				; 00000238H
	lea	rdi, QWORD PTR [rsp+32]
	mov	ecx, 134				; 00000086H
	mov	eax, -858993460				; ccccccccH
	rep stosd
	mov	rcx, QWORD PTR [rsp+592]

; 507  : /*
; 508  : 		__m128 v0 = _mm_shuffle_ps(v.data, v.data, _MM_SHUFFLE(0, 0, 0, 0));
; 509  : 		__m128 v1 = _mm_shuffle_ps(v.data, v.data, _MM_SHUFFLE(1, 1, 1, 1));
; 510  : 		__m128 v2 = _mm_shuffle_ps(v.data, v.data, _MM_SHUFFLE(2, 2, 2, 2));
; 511  : 		__m128 v3 = _mm_shuffle_ps(v.data, v.data, _MM_SHUFFLE(3, 3, 3, 3));
; 512  : 
; 513  : 		__m128 m0 = _mm_mul_ps(m[0].data, v0);
; 514  : 		__m128 m1 = _mm_mul_ps(m[1].data, v1);
; 515  : 		__m128 a0 = _mm_add_ps(m0, m1);
; 516  : 
; 517  : 		__m128 m2 = _mm_mul_ps(m[2].data, v2);
; 518  : 		__m128 m3 = _mm_mul_ps(m[3].data, v3);
; 519  : 		__m128 a1 = _mm_add_ps(m2, m3);
; 520  : 
; 521  : 		__m128 a2 = _mm_add_ps(a0, a1);
; 522  : 
; 523  : 		return typename tmat4x4<T, P>::col_type(a2);
; 524  : */
; 525  : 
; 526  : 		typename tmat4x4<T, P>::col_type const Mov0(v[0]);

	xor	edx, edx
	mov	rcx, QWORD PTR v$[rsp]
	call	??A?$tvec4@M$0A@@glm@@QEBAAEBMH@Z	; glm::tvec4<float,0>::operator[]
	movss	xmm1, DWORD PTR [rax]
	lea	rcx, QWORD PTR Mov0$[rsp]
	call	??0?$tvec4@M$0A@@glm@@QEAA@M@Z		; glm::tvec4<float,0>::tvec4<float,0>

; 527  : 		typename tmat4x4<T, P>::col_type const Mov1(v[1]);

	mov	edx, 1
	mov	rcx, QWORD PTR v$[rsp]
	call	??A?$tvec4@M$0A@@glm@@QEBAAEBMH@Z	; glm::tvec4<float,0>::operator[]
	movss	xmm1, DWORD PTR [rax]
	lea	rcx, QWORD PTR Mov1$[rsp]
	call	??0?$tvec4@M$0A@@glm@@QEAA@M@Z		; glm::tvec4<float,0>::tvec4<float,0>

; 528  : 		typename tmat4x4<T, P>::col_type const Mul0 = m[0] * Mov0;

	xor	edx, edx
	mov	rcx, QWORD PTR m$[rsp]
	call	??A?$tmat4x4@M$0A@@glm@@QEBAAEBU?$tvec4@M$0A@@1@H@Z ; glm::tmat4x4<float,0>::operator[]
	lea	r8, QWORD PTR Mov0$[rsp]
	mov	rdx, rax
	lea	rcx, QWORD PTR Mul0$[rsp]
	call	??$?DM$0A@@glm@@YA?AU?$tvec4@M$0A@@0@AEBU10@0@Z ; glm::operator*<float,0>

; 529  : 		typename tmat4x4<T, P>::col_type const Mul1 = m[1] * Mov1;

	mov	edx, 1
	mov	rcx, QWORD PTR m$[rsp]
	call	??A?$tmat4x4@M$0A@@glm@@QEBAAEBU?$tvec4@M$0A@@1@H@Z ; glm::tmat4x4<float,0>::operator[]
	lea	r8, QWORD PTR Mov1$[rsp]
	mov	rdx, rax
	lea	rcx, QWORD PTR Mul1$[rsp]
	call	??$?DM$0A@@glm@@YA?AU?$tvec4@M$0A@@0@AEBU10@0@Z ; glm::operator*<float,0>

; 530  : 		typename tmat4x4<T, P>::col_type const Add0 = Mul0 + Mul1;

	lea	r8, QWORD PTR Mul1$[rsp]
	lea	rdx, QWORD PTR Mul0$[rsp]
	lea	rcx, QWORD PTR Add0$[rsp]
	call	??$?HM$0A@@glm@@YA?AU?$tvec4@M$0A@@0@AEBU10@0@Z ; glm::operator+<float,0>

; 531  : 		typename tmat4x4<T, P>::col_type const Mov2(v[2]);

	mov	edx, 2
	mov	rcx, QWORD PTR v$[rsp]
	call	??A?$tvec4@M$0A@@glm@@QEBAAEBMH@Z	; glm::tvec4<float,0>::operator[]
	movss	xmm1, DWORD PTR [rax]
	lea	rcx, QWORD PTR Mov2$[rsp]
	call	??0?$tvec4@M$0A@@glm@@QEAA@M@Z		; glm::tvec4<float,0>::tvec4<float,0>

; 532  : 		typename tmat4x4<T, P>::col_type const Mov3(v[3]);

	mov	edx, 3
	mov	rcx, QWORD PTR v$[rsp]
	call	??A?$tvec4@M$0A@@glm@@QEBAAEBMH@Z	; glm::tvec4<float,0>::operator[]
	movss	xmm1, DWORD PTR [rax]
	lea	rcx, QWORD PTR Mov3$[rsp]
	call	??0?$tvec4@M$0A@@glm@@QEAA@M@Z		; glm::tvec4<float,0>::tvec4<float,0>

; 533  : 		typename tmat4x4<T, P>::col_type const Mul2 = m[2] * Mov2;

	mov	edx, 2
	mov	rcx, QWORD PTR m$[rsp]
	call	??A?$tmat4x4@M$0A@@glm@@QEBAAEBU?$tvec4@M$0A@@1@H@Z ; glm::tmat4x4<float,0>::operator[]
	lea	r8, QWORD PTR Mov2$[rsp]
	mov	rdx, rax
	lea	rcx, QWORD PTR Mul2$[rsp]
	call	??$?DM$0A@@glm@@YA?AU?$tvec4@M$0A@@0@AEBU10@0@Z ; glm::operator*<float,0>

; 534  : 		typename tmat4x4<T, P>::col_type const Mul3 = m[3] * Mov3;

	mov	edx, 3
	mov	rcx, QWORD PTR m$[rsp]
	call	??A?$tmat4x4@M$0A@@glm@@QEBAAEBU?$tvec4@M$0A@@1@H@Z ; glm::tmat4x4<float,0>::operator[]
	lea	r8, QWORD PTR Mov3$[rsp]
	mov	rdx, rax
	lea	rcx, QWORD PTR Mul3$[rsp]
	call	??$?DM$0A@@glm@@YA?AU?$tvec4@M$0A@@0@AEBU10@0@Z ; glm::operator*<float,0>

; 535  : 		typename tmat4x4<T, P>::col_type const Add1 = Mul2 + Mul3;

	lea	r8, QWORD PTR Mul3$[rsp]
	lea	rdx, QWORD PTR Mul2$[rsp]
	lea	rcx, QWORD PTR Add1$[rsp]
	call	??$?HM$0A@@glm@@YA?AU?$tvec4@M$0A@@0@AEBU10@0@Z ; glm::operator+<float,0>

; 536  : 		typename tmat4x4<T, P>::col_type const Add2 = Add0 + Add1;

	lea	r8, QWORD PTR Add1$[rsp]
	lea	rdx, QWORD PTR Add0$[rsp]
	lea	rcx, QWORD PTR Add2$[rsp]
	call	??$?HM$0A@@glm@@YA?AU?$tvec4@M$0A@@0@AEBU10@0@Z ; glm::operator+<float,0>

; 537  : 		return Add2;

	lea	rax, QWORD PTR Add2$[rsp]
	mov	rdi, QWORD PTR __$ReturnUdt$[rsp]
	mov	rsi, rax
	mov	ecx, 16
	rep movsb
	mov	rax, QWORD PTR __$ReturnUdt$[rsp]

; 538  : 
; 539  : /*
; 540  : 		return typename tmat4x4<T, P>::col_type(
; 541  : 			m[0][0] * v[0] + m[1][0] * v[1] + m[2][0] * v[2] + m[3][0] * v[3],
; 542  : 			m[0][1] * v[0] + m[1][1] * v[1] + m[2][1] * v[2] + m[3][1] * v[3],
; 543  : 			m[0][2] * v[0] + m[1][2] * v[1] + m[2][2] * v[2] + m[3][2] * v[3],
; 544  : 			m[0][3] * v[0] + m[1][3] * v[1] + m[2][3] * v[2] + m[3][3] * v[3]);
; 545  : */
; 546  : 	}

	mov	rdi, rax
	mov	rcx, rsp
	lea	rdx, OFFSET FLAT:??$?DM$0A@@glm@@YA?AU?$tvec4@M$0A@@0@AEBU?$tmat4x4@M$0A@@0@AEBU10@@Z$rtcFrameData
	call	_RTC_CheckStackVars
	mov	rax, rdi
	add	rsp, 568				; 00000238H
	pop	rdi
	pop	rsi
	ret	0
??$?DM$0A@@glm@@YA?AU?$tvec4@M$0A@@0@AEBU?$tmat4x4@M$0A@@0@AEBU10@@Z ENDP ; glm::operator*<float,0>
_TEXT	ENDS
; Function compile flags: /Odtp /RTCsu
; File C:\Users\ksart\OneDrive\Desktop\FlappyBird\libraries\external\glm\glm\detail\type_mat4x4.inl
;	COMDAT ??A?$tmat4x4@M$0A@@glm@@QEBAAEBU?$tvec4@M$0A@@1@H@Z
_TEXT	SEGMENT
this$ = 48
i$ = 56
??A?$tmat4x4@M$0A@@glm@@QEBAAEBU?$tvec4@M$0A@@1@H@Z PROC ; glm::tmat4x4<float,0>::operator[], COMDAT

; 248  : 	{

$LN4:
	mov	DWORD PTR [rsp+16], edx
	mov	QWORD PTR [rsp+8], rcx
	push	rdi
	sub	rsp, 32					; 00000020H

; 249  : 		assert(i < this->length());

	call	?length@?$tmat4x4@M$0A@@glm@@SAHXZ	; glm::tmat4x4<float,0>::length
	cmp	DWORD PTR i$[rsp], eax
	jl	SHORT $LN3@operator
	mov	r8d, 249				; 000000f9H
	lea	rdx, OFFSET FLAT:??_C@_1LK@BAPNPALB@?$AAC?$AA?3?$AA?2?$AAU?$AAs?$AAe?$AAr?$AAs?$AA?2?$AAk?$AAs?$AAa?$AAr?$AAt?$AA?2@
	lea	rcx, OFFSET FLAT:??_C@_1CG@KOFHLCJL@?$AAi?$AA?5?$AA?$DM?$AA?5?$AAt?$AAh?$AAi?$AAs?$AA?9?$AA?$DO?$AAl?$AAe?$AAn?$AAg?$AAt@
	call	QWORD PTR __imp__wassert
	xor	eax, eax
$LN3@operator:

; 250  : 		return this->value[i];

	movsxd	rax, DWORD PTR i$[rsp]
	imul	rax, rax, 16
	mov	rcx, QWORD PTR this$[rsp]
	add	rcx, rax
	mov	rax, rcx

; 251  : 	}

	add	rsp, 32					; 00000020H
	pop	rdi
	ret	0
??A?$tmat4x4@M$0A@@glm@@QEBAAEBU?$tvec4@M$0A@@1@H@Z ENDP ; glm::tmat4x4<float,0>::operator[]
_TEXT	ENDS
; Function compile flags: /Odtp /RTCsu
; File C:\Users\ksart\OneDrive\Desktop\FlappyBird\libraries\external\glm\glm\detail\type_mat4x4.inl
;	COMDAT ??A?$tmat4x4@M$0A@@glm@@QEAAAEAU?$tvec4@M$0A@@1@H@Z
_TEXT	SEGMENT
this$ = 48
i$ = 56
??A?$tmat4x4@M$0A@@glm@@QEAAAEAU?$tvec4@M$0A@@1@H@Z PROC ; glm::tmat4x4<float,0>::operator[], COMDAT

; 241  : 	{

$LN4:
	mov	DWORD PTR [rsp+16], edx
	mov	QWORD PTR [rsp+8], rcx
	push	rdi
	sub	rsp, 32					; 00000020H

; 242  : 		assert(i < this->length());

	call	?length@?$tmat4x4@M$0A@@glm@@SAHXZ	; glm::tmat4x4<float,0>::length
	cmp	DWORD PTR i$[rsp], eax
	jl	SHORT $LN3@operator
	mov	r8d, 242				; 000000f2H
	lea	rdx, OFFSET FLAT:??_C@_1LK@BAPNPALB@?$AAC?$AA?3?$AA?2?$AAU?$AAs?$AAe?$AAr?$AAs?$AA?2?$AAk?$AAs?$AAa?$AAr?$AAt?$AA?2@
	lea	rcx, OFFSET FLAT:??_C@_1CG@KOFHLCJL@?$AAi?$AA?5?$AA?$DM?$AA?5?$AAt?$AAh?$AAi?$AAs?$AA?9?$AA?$DO?$AAl?$AAe?$AAn?$AAg?$AAt@
	call	QWORD PTR __imp__wassert
	xor	eax, eax
$LN3@operator:

; 243  : 		return this->value[i];

	movsxd	rax, DWORD PTR i$[rsp]
	imul	rax, rax, 16
	mov	rcx, QWORD PTR this$[rsp]
	add	rcx, rax
	mov	rax, rcx

; 244  : 	}

	add	rsp, 32					; 00000020H
	pop	rdi
	ret	0
??A?$tmat4x4@M$0A@@glm@@QEAAAEAU?$tvec4@M$0A@@1@H@Z ENDP ; glm::tmat4x4<float,0>::operator[]
_TEXT	ENDS
; Function compile flags: /Odtp /RTCsu
; File C:\Users\ksart\OneDrive\Desktop\FlappyBird\libraries\external\glm\glm\detail\type_mat4x4.hpp
;	COMDAT ?length@?$tmat4x4@M$0A@@glm@@SAHXZ
_TEXT	SEGMENT
?length@?$tmat4x4@M$0A@@glm@@SAHXZ PROC			; glm::tmat4x4<float,0>::length, COMDAT

; 84   : 		GLM_FUNC_DECL static length_type length(){return 4;}

$LN3:
	push	rdi
	mov	eax, 4
	pop	rdi
	ret	0
?length@?$tmat4x4@M$0A@@glm@@SAHXZ ENDP			; glm::tmat4x4<float,0>::length
_TEXT	ENDS
; Function compile flags: /Odtp /RTCsu
; File C:\Users\ksart\OneDrive\Desktop\FlappyBird\libraries\external\glm\glm\detail\type_mat4x4.inl
;	COMDAT ??0?$tmat4x4@M$0A@@glm@@QEAA@AEBM@Z
_TEXT	SEGMENT
$T1 = 48
$T2 = 64
$T3 = 80
$T4 = 96
this$ = 144
s$ = 152
??0?$tmat4x4@M$0A@@glm@@QEAA@AEBM@Z PROC		; glm::tmat4x4<float,0>::tmat4x4<float,0>, COMDAT

; 50   : 	{

$LN3:
	mov	QWORD PTR [rsp+16], rdx
	mov	QWORD PTR [rsp+8], rcx
	push	rsi
	push	rdi
	sub	rsp, 120				; 00000078H
	mov	rax, QWORD PTR this$[rsp]
	lea	r9, OFFSET FLAT:??0?$tvec4@M$0A@@glm@@QEAA@XZ ; glm::tvec4<float,0>::tvec4<float,0>
	mov	r8d, 4
	mov	edx, 16
	mov	rcx, rax
	call	??_H@YAXPEAX_K1P6APEAX0@Z@Z

; 51   : 		this->value[0] = col_type(s, 0, 0, 0);

	mov	DWORD PTR [rsp+32], 0
	xor	r9d, r9d
	xor	r8d, r8d
	mov	rax, QWORD PTR s$[rsp]
	movss	xmm1, DWORD PTR [rax]
	lea	rcx, QWORD PTR $T1[rsp]
	call	??$?0MHHH@?$tvec4@M$0A@@glm@@QEAA@MHHH@Z ; glm::tvec4<float,0>::tvec4<float,0><float,int,int,int>
	mov	ecx, 16
	imul	rcx, rcx, 0
	mov	rdx, QWORD PTR this$[rsp]
	lea	rdi, QWORD PTR [rdx+rcx]
	mov	rsi, rax
	mov	ecx, 16
	rep movsb

; 52   : 		this->value[1] = col_type(0, s, 0, 0);

	mov	DWORD PTR [rsp+32], 0
	xor	r9d, r9d
	mov	rax, QWORD PTR s$[rsp]
	movss	xmm2, DWORD PTR [rax]
	xor	edx, edx
	lea	rcx, QWORD PTR $T2[rsp]
	call	??$?0HMHH@?$tvec4@M$0A@@glm@@QEAA@HMHH@Z ; glm::tvec4<float,0>::tvec4<float,0><int,float,int,int>
	mov	ecx, 16
	imul	rcx, rcx, 1
	mov	rdx, QWORD PTR this$[rsp]
	lea	rdi, QWORD PTR [rdx+rcx]
	mov	rsi, rax
	mov	ecx, 16
	rep movsb

; 53   : 		this->value[2] = col_type(0, 0, s, 0);

	mov	DWORD PTR [rsp+32], 0
	mov	rax, QWORD PTR s$[rsp]
	movss	xmm3, DWORD PTR [rax]
	xor	r8d, r8d
	xor	edx, edx
	lea	rcx, QWORD PTR $T3[rsp]
	call	??$?0HHMH@?$tvec4@M$0A@@glm@@QEAA@HHMH@Z ; glm::tvec4<float,0>::tvec4<float,0><int,int,float,int>
	mov	ecx, 16
	imul	rcx, rcx, 2
	mov	rdx, QWORD PTR this$[rsp]
	lea	rdi, QWORD PTR [rdx+rcx]
	mov	rsi, rax
	mov	ecx, 16
	rep movsb

; 54   : 		this->value[3] = col_type(0, 0, 0, s);

	mov	rax, QWORD PTR s$[rsp]
	movss	xmm0, DWORD PTR [rax]
	movss	DWORD PTR [rsp+32], xmm0
	xor	r9d, r9d
	xor	r8d, r8d
	xor	edx, edx
	lea	rcx, QWORD PTR $T4[rsp]
	call	??$?0HHHM@?$tvec4@M$0A@@glm@@QEAA@HHHM@Z ; glm::tvec4<float,0>::tvec4<float,0><int,int,int,float>
	mov	ecx, 16
	imul	rcx, rcx, 3
	mov	rdx, QWORD PTR this$[rsp]
	lea	rdi, QWORD PTR [rdx+rcx]
	mov	rsi, rax
	mov	ecx, 16
	rep movsb

; 55   : 	}

	mov	rax, QWORD PTR this$[rsp]
	add	rsp, 120				; 00000078H
	pop	rdi
	pop	rsi
	ret	0
??0?$tmat4x4@M$0A@@glm@@QEAA@AEBM@Z ENDP		; glm::tmat4x4<float,0>::tmat4x4<float,0>
_TEXT	ENDS
; Function compile flags: /Odtp /RTCsu
; File C:\Users\ksart\OneDrive\Desktop\FlappyBird\libraries\external\glm\glm\gtx\color_space.inl
;	COMDAT ??$saturation@M@glm@@YA?AU?$tmat4x4@M$0A@@0@M@Z
_TEXT	SEGMENT
rgbw$ = 40
col$ = 88
result$ = 144
$T6 = 224
tv81 = 228
tv138 = 232
tv163 = 236
__$ArrayPad$ = 240
__$ReturnUdt$ = 288
s$ = 296
??$saturation@M@glm@@YA?AU?$tmat4x4@M$0A@@0@M@Z PROC	; glm::saturation<float>, COMDAT

; 105  : 	{

$LN3:
	movss	DWORD PTR [rsp+16], xmm1
	mov	QWORD PTR [rsp+8], rcx
	push	rsi
	push	rdi
	sub	rsp, 264				; 00000108H
	lea	rdi, QWORD PTR [rsp+32]
	mov	ecx, 58					; 0000003aH
	mov	eax, -858993460				; ccccccccH
	rep stosd
	mov	rcx, QWORD PTR [rsp+288]
	mov	rax, QWORD PTR __security_cookie
	xor	rax, rsp
	mov	QWORD PTR __$ArrayPad$[rsp], rax

; 106  : 		tvec3<T, defaultp> rgbw = tvec3<T, defaultp>(T(0.2126), T(0.7152), T(0.0722));

	movss	xmm3, DWORD PTR __real@3d93dd98
	movss	xmm2, DWORD PTR __real@3f371759
	movss	xmm1, DWORD PTR __real@3e59b3d0
	lea	rcx, QWORD PTR rgbw$[rsp]
	call	??0?$tvec3@M$0A@@glm@@QEAA@MMM@Z	; glm::tvec3<float,0>::tvec3<float,0>

; 107  : 
; 108  : 		tvec3<T, defaultp> const col((T(1) - s) * rgbw);

	movss	xmm0, DWORD PTR __real@3f800000
	subss	xmm0, DWORD PTR s$[rsp]
	lea	r8, QWORD PTR rgbw$[rsp]
	movaps	xmm1, xmm0
	lea	rcx, QWORD PTR col$[rsp]
	call	??$?DM$0A@@glm@@YA?AU?$tvec3@M$0A@@0@MAEBU10@@Z ; glm::operator*<float,0>

; 109  : 
; 110  : 		tmat4x4<T, defaultp> result(T(1));

	movss	xmm0, DWORD PTR __real@3f800000
	movss	DWORD PTR $T6[rsp], xmm0
	lea	rdx, QWORD PTR $T6[rsp]
	lea	rcx, QWORD PTR result$[rsp]
	call	??0?$tmat4x4@M$0A@@glm@@QEAA@AEBM@Z	; glm::tmat4x4<float,0>::tmat4x4<float,0>

; 111  : 		result[0][0] = col.x + s;

	movss	xmm0, DWORD PTR col$[rsp]
	addss	xmm0, DWORD PTR s$[rsp]
	movss	DWORD PTR tv81[rsp], xmm0
	xor	edx, edx
	lea	rcx, QWORD PTR result$[rsp]
	call	??A?$tmat4x4@M$0A@@glm@@QEAAAEAU?$tvec4@M$0A@@1@H@Z ; glm::tmat4x4<float,0>::operator[]
	xor	edx, edx
	mov	rcx, rax
	call	??A?$tvec4@M$0A@@glm@@QEAAAEAMH@Z	; glm::tvec4<float,0>::operator[]
	movss	xmm0, DWORD PTR tv81[rsp]
	movss	DWORD PTR [rax], xmm0

; 112  : 		result[0][1] = col.x;

	xor	edx, edx
	lea	rcx, QWORD PTR result$[rsp]
	call	??A?$tmat4x4@M$0A@@glm@@QEAAAEAU?$tvec4@M$0A@@1@H@Z ; glm::tmat4x4<float,0>::operator[]
	mov	edx, 1
	mov	rcx, rax
	call	??A?$tvec4@M$0A@@glm@@QEAAAEAMH@Z	; glm::tvec4<float,0>::operator[]
	movss	xmm0, DWORD PTR col$[rsp]
	movss	DWORD PTR [rax], xmm0

; 113  : 		result[0][2] = col.x;

	xor	edx, edx
	lea	rcx, QWORD PTR result$[rsp]
	call	??A?$tmat4x4@M$0A@@glm@@QEAAAEAU?$tvec4@M$0A@@1@H@Z ; glm::tmat4x4<float,0>::operator[]
	mov	edx, 2
	mov	rcx, rax
	call	??A?$tvec4@M$0A@@glm@@QEAAAEAMH@Z	; glm::tvec4<float,0>::operator[]
	movss	xmm0, DWORD PTR col$[rsp]
	movss	DWORD PTR [rax], xmm0

; 114  : 		result[1][0] = col.y;

	mov	edx, 1
	lea	rcx, QWORD PTR result$[rsp]
	call	??A?$tmat4x4@M$0A@@glm@@QEAAAEAU?$tvec4@M$0A@@1@H@Z ; glm::tmat4x4<float,0>::operator[]
	xor	edx, edx
	mov	rcx, rax
	call	??A?$tvec4@M$0A@@glm@@QEAAAEAMH@Z	; glm::tvec4<float,0>::operator[]
	movss	xmm0, DWORD PTR col$[rsp+4]
	movss	DWORD PTR [rax], xmm0

; 115  : 		result[1][1] = col.y + s;

	movss	xmm0, DWORD PTR col$[rsp+4]
	addss	xmm0, DWORD PTR s$[rsp]
	movss	DWORD PTR tv138[rsp], xmm0
	mov	edx, 1
	lea	rcx, QWORD PTR result$[rsp]
	call	??A?$tmat4x4@M$0A@@glm@@QEAAAEAU?$tvec4@M$0A@@1@H@Z ; glm::tmat4x4<float,0>::operator[]
	mov	edx, 1
	mov	rcx, rax
	call	??A?$tvec4@M$0A@@glm@@QEAAAEAMH@Z	; glm::tvec4<float,0>::operator[]
	movss	xmm0, DWORD PTR tv138[rsp]
	movss	DWORD PTR [rax], xmm0

; 116  : 		result[1][2] = col.y;

	mov	edx, 1
	lea	rcx, QWORD PTR result$[rsp]
	call	??A?$tmat4x4@M$0A@@glm@@QEAAAEAU?$tvec4@M$0A@@1@H@Z ; glm::tmat4x4<float,0>::operator[]
	mov	edx, 2
	mov	rcx, rax
	call	??A?$tvec4@M$0A@@glm@@QEAAAEAMH@Z	; glm::tvec4<float,0>::operator[]
	movss	xmm0, DWORD PTR col$[rsp+4]
	movss	DWORD PTR [rax], xmm0

; 117  : 		result[2][0] = col.z;

	mov	edx, 2
	lea	rcx, QWORD PTR result$[rsp]
	call	??A?$tmat4x4@M$0A@@glm@@QEAAAEAU?$tvec4@M$0A@@1@H@Z ; glm::tmat4x4<float,0>::operator[]
	xor	edx, edx
	mov	rcx, rax
	call	??A?$tvec4@M$0A@@glm@@QEAAAEAMH@Z	; glm::tvec4<float,0>::operator[]
	movss	xmm0, DWORD PTR col$[rsp+8]
	movss	DWORD PTR [rax], xmm0

; 118  : 		result[2][1] = col.z;

	mov	edx, 2
	lea	rcx, QWORD PTR result$[rsp]
	call	??A?$tmat4x4@M$0A@@glm@@QEAAAEAU?$tvec4@M$0A@@1@H@Z ; glm::tmat4x4<float,0>::operator[]
	mov	edx, 1
	mov	rcx, rax
	call	??A?$tvec4@M$0A@@glm@@QEAAAEAMH@Z	; glm::tvec4<float,0>::operator[]
	movss	xmm0, DWORD PTR col$[rsp+8]
	movss	DWORD PTR [rax], xmm0

; 119  : 		result[2][2] = col.z + s;

	movss	xmm0, DWORD PTR col$[rsp+8]
	addss	xmm0, DWORD PTR s$[rsp]
	movss	DWORD PTR tv163[rsp], xmm0
	mov	edx, 2
	lea	rcx, QWORD PTR result$[rsp]
	call	??A?$tmat4x4@M$0A@@glm@@QEAAAEAU?$tvec4@M$0A@@1@H@Z ; glm::tmat4x4<float,0>::operator[]
	mov	edx, 2
	mov	rcx, rax
	call	??A?$tvec4@M$0A@@glm@@QEAAAEAMH@Z	; glm::tvec4<float,0>::operator[]
	movss	xmm0, DWORD PTR tv163[rsp]
	movss	DWORD PTR [rax], xmm0

; 120  : 		return result;

	lea	rax, QWORD PTR result$[rsp]
	mov	rdi, QWORD PTR __$ReturnUdt$[rsp]
	mov	rsi, rax
	mov	ecx, 64					; 00000040H
	rep movsb
	mov	rax, QWORD PTR __$ReturnUdt$[rsp]

; 121  : 	}

	mov	rdi, rax
	mov	rcx, rsp
	lea	rdx, OFFSET FLAT:??$saturation@M@glm@@YA?AU?$tmat4x4@M$0A@@0@M@Z$rtcFrameData
	call	_RTC_CheckStackVars
	mov	rax, rdi
	mov	rcx, QWORD PTR __$ArrayPad$[rsp]
	xor	rcx, rsp
	call	__security_check_cookie
	add	rsp, 264				; 00000108H
	pop	rdi
	pop	rsi
	ret	0
??$saturation@M@glm@@YA?AU?$tmat4x4@M$0A@@0@M@Z ENDP	; glm::saturation<float>
_TEXT	ENDS
; Function compile flags: /Odtp /RTCsu
; File C:\Users\ksart\OneDrive\Desktop\FlappyBird\libraries\external\glm\test\gtx\gtx_color_space.cpp
_TEXT	SEGMENT
Error$ = 32
main	PROC

; 13   : {

$LN3:
	push	rdi
	sub	rsp, 48					; 00000030H

; 14   : 	int Error(0);

	mov	DWORD PTR Error$[rsp], 0

; 15   : 
; 16   : 	Error += test_saturation();

	call	?test_saturation@@YAHXZ			; test_saturation
	mov	ecx, DWORD PTR Error$[rsp]
	add	ecx, eax
	mov	eax, ecx
	mov	DWORD PTR Error$[rsp], eax

; 17   : 
; 18   : 	return Error;

	mov	eax, DWORD PTR Error$[rsp]

; 19   : }

	add	rsp, 48					; 00000030H
	pop	rdi
	ret	0
main	ENDP
_TEXT	ENDS
; Function compile flags: /Odtp /RTCsu
; File C:\Users\ksart\OneDrive\Desktop\FlappyBird\libraries\external\glm\glm\gtx\color_space.inl
;	COMDAT ??$saturation@M$0A@@glm@@YA?AU?$tvec4@M$0A@@0@MAEBU10@@Z
_TEXT	SEGMENT
$T1 = 32
__$ArrayPad$ = 104
__$ReturnUdt$ = 128
s$ = 136
color$ = 144
??$saturation@M$0A@@glm@@YA?AU?$tvec4@M$0A@@0@MAEBU10@@Z PROC ; glm::saturation<float,0>, COMDAT

; 131  : 	{

$LN3:
	mov	QWORD PTR [rsp+24], r8
	movss	DWORD PTR [rsp+16], xmm1
	mov	QWORD PTR [rsp+8], rcx
	push	rdi
	sub	rsp, 112				; 00000070H
	mov	rax, QWORD PTR __security_cookie
	xor	rax, rsp
	mov	QWORD PTR __$ArrayPad$[rsp], rax

; 132  : 		return saturation(s) * color;

	movss	xmm1, DWORD PTR s$[rsp]
	lea	rcx, QWORD PTR $T1[rsp]
	call	??$saturation@M@glm@@YA?AU?$tmat4x4@M$0A@@0@M@Z ; glm::saturation<float>
	mov	r8, QWORD PTR color$[rsp]
	mov	rdx, rax
	mov	rcx, QWORD PTR __$ReturnUdt$[rsp]
	call	??$?DM$0A@@glm@@YA?AU?$tvec4@M$0A@@0@AEBU?$tmat4x4@M$0A@@0@AEBU10@@Z ; glm::operator*<float,0>
	mov	rax, QWORD PTR __$ReturnUdt$[rsp]

; 133  : 	}

	mov	rcx, QWORD PTR __$ArrayPad$[rsp]
	xor	rcx, rsp
	call	__security_check_cookie
	add	rsp, 112				; 00000070H
	pop	rdi
	ret	0
??$saturation@M$0A@@glm@@YA?AU?$tvec4@M$0A@@0@MAEBU10@@Z ENDP ; glm::saturation<float,0>
_TEXT	ENDS
; Function compile flags: /Odtp /RTCsu
; File C:\Users\ksart\OneDrive\Desktop\FlappyBird\libraries\external\glm\glm\detail\type_vec4.inl
;	COMDAT ??$?0NNNN@?$tvec4@M$0A@@glm@@QEAA@NNNN@Z
_TEXT	SEGMENT
this$ = 16
a$ = 24
b$ = 32
c$ = 40
d$ = 48
??$?0NNNN@?$tvec4@M$0A@@glm@@QEAA@NNNN@Z PROC		; glm::tvec4<float,0>::tvec4<float,0><double,double,double,double>, COMDAT

; 204  : 	{}

$LN3:
	movsd	QWORD PTR [rsp+32], xmm3
	movsd	QWORD PTR [rsp+24], xmm2
	movsd	QWORD PTR [rsp+16], xmm1
	mov	QWORD PTR [rsp+8], rcx
	push	rdi

; 200  : 		x(static_cast<T>(a)),

	cvtsd2ss xmm0, QWORD PTR a$[rsp]
	mov	rax, QWORD PTR this$[rsp]
	movss	DWORD PTR [rax], xmm0

; 201  : 		y(static_cast<T>(b)),

	cvtsd2ss xmm0, QWORD PTR b$[rsp]
	mov	rax, QWORD PTR this$[rsp]
	movss	DWORD PTR [rax+4], xmm0

; 202  : 		z(static_cast<T>(c)),

	cvtsd2ss xmm0, QWORD PTR c$[rsp]
	mov	rax, QWORD PTR this$[rsp]
	movss	DWORD PTR [rax+8], xmm0

; 203  : 		w(static_cast<T>(d))

	cvtsd2ss xmm0, QWORD PTR d$[rsp]
	mov	rax, QWORD PTR this$[rsp]
	movss	DWORD PTR [rax+12], xmm0

; 204  : 	{}

	mov	rax, QWORD PTR this$[rsp]
	pop	rdi
	ret	0
??$?0NNNN@?$tvec4@M$0A@@glm@@QEAA@NNNN@Z ENDP		; glm::tvec4<float,0>::tvec4<float,0><double,double,double,double>
_TEXT	ENDS
; Function compile flags: /Odtp /RTCsu
; File C:\Users\ksart\OneDrive\Desktop\FlappyBird\libraries\external\glm\test\gtx\gtx_color_space.cpp
_TEXT	SEGMENT
Error$ = 48
Color$ = 72
$T4 = 100
?test_saturation@@YAHXZ PROC				; test_saturation

; 4    : {

$LN3:
	push	rdi
	sub	rsp, 128				; 00000080H
	lea	rdi, QWORD PTR [rsp+48]
	mov	ecx, 20
	mov	eax, -858993460				; ccccccccH
	rep stosd

; 5    : 	int Error(0);

	mov	DWORD PTR Error$[rsp], 0

; 6    : 	
; 7    : 	glm::vec4 Color = glm::saturation(1.0f, glm::vec4(1.0, 0.5, 0.0, 1.0));

	movsd	xmm0, QWORD PTR __real@3ff0000000000000
	movsd	QWORD PTR [rsp+32], xmm0
	xorps	xmm3, xmm3
	movsd	xmm2, QWORD PTR __real@3fe0000000000000
	movsd	xmm1, QWORD PTR __real@3ff0000000000000
	lea	rcx, QWORD PTR $T4[rsp]
	call	??$?0NNNN@?$tvec4@M$0A@@glm@@QEAA@NNNN@Z ; glm::tvec4<float,0>::tvec4<float,0><double,double,double,double>
	mov	r8, rax
	movss	xmm1, DWORD PTR __real@3f800000
	lea	rcx, QWORD PTR Color$[rsp]
	call	??$saturation@M$0A@@glm@@YA?AU?$tvec4@M$0A@@0@MAEBU10@@Z ; glm::saturation<float,0>

; 8    : 
; 9    : 	return Error;

	mov	eax, DWORD PTR Error$[rsp]

; 10   : }

	mov	edi, eax
	mov	rcx, rsp
	lea	rdx, OFFSET FLAT:?test_saturation@@YAHXZ$rtcFrameData
	call	_RTC_CheckStackVars
	mov	eax, edi
	add	rsp, 128				; 00000080H
	pop	rdi
	ret	0
?test_saturation@@YAHXZ ENDP				; test_saturation
_TEXT	ENDS
; Function compile flags: /Odtp /RTCsu
; File C:\Users\ksart\OneDrive\Desktop\FlappyBird\libraries\external\glm\glm\detail\type_vec4.inl
;	COMDAT ??0?$tvec4@M$0A@@glm@@QEAA@MMMM@Z
_TEXT	SEGMENT
this$ = 16
a$ = 24
b$ = 32
c$ = 40
d$ = 48
??0?$tvec4@M$0A@@glm@@QEAA@MMMM@Z PROC			; glm::tvec4<float,0>::tvec4<float,0>, COMDAT

; 193  : 	{}

$LN3:
	movss	DWORD PTR [rsp+32], xmm3
	movss	DWORD PTR [rsp+24], xmm2
	movss	DWORD PTR [rsp+16], xmm1
	mov	QWORD PTR [rsp+8], rcx
	push	rdi

; 192  : 		: x(a), y(b), z(c), w(d)

	mov	rax, QWORD PTR this$[rsp]
	movss	xmm0, DWORD PTR a$[rsp]
	movss	DWORD PTR [rax], xmm0
	mov	rax, QWORD PTR this$[rsp]
	movss	xmm0, DWORD PTR b$[rsp]
	movss	DWORD PTR [rax+4], xmm0
	mov	rax, QWORD PTR this$[rsp]
	movss	xmm0, DWORD PTR c$[rsp]
	movss	DWORD PTR [rax+8], xmm0
	mov	rax, QWORD PTR this$[rsp]
	movss	xmm0, DWORD PTR d$[rsp]
	movss	DWORD PTR [rax+12], xmm0

; 193  : 	{}

	mov	rax, QWORD PTR this$[rsp]
	pop	rdi
	ret	0
??0?$tvec4@M$0A@@glm@@QEAA@MMMM@Z ENDP			; glm::tvec4<float,0>::tvec4<float,0>
_TEXT	ENDS
; Function compile flags: /Odtp /RTCsu
; File C:\Users\ksart\OneDrive\Desktop\FlappyBird\libraries\external\glm\glm\detail\type_vec4.inl
;	COMDAT ??0?$tvec4@M$0A@@glm@@QEAA@M@Z
_TEXT	SEGMENT
this$ = 16
scalar$ = 24
??0?$tvec4@M$0A@@glm@@QEAA@M@Z PROC			; glm::tvec4<float,0>::tvec4<float,0>, COMDAT

; 188  : 	{}

$LN3:
	movss	DWORD PTR [rsp+16], xmm1
	mov	QWORD PTR [rsp+8], rcx
	push	rdi

; 187  : 		: x(scalar), y(scalar), z(scalar), w(scalar)

	mov	rax, QWORD PTR this$[rsp]
	movss	xmm0, DWORD PTR scalar$[rsp]
	movss	DWORD PTR [rax], xmm0
	mov	rax, QWORD PTR this$[rsp]
	movss	xmm0, DWORD PTR scalar$[rsp]
	movss	DWORD PTR [rax+4], xmm0
	mov	rax, QWORD PTR this$[rsp]
	movss	xmm0, DWORD PTR scalar$[rsp]
	movss	DWORD PTR [rax+8], xmm0
	mov	rax, QWORD PTR this$[rsp]
	movss	xmm0, DWORD PTR scalar$[rsp]
	movss	DWORD PTR [rax+12], xmm0

; 188  : 	{}

	mov	rax, QWORD PTR this$[rsp]
	pop	rdi
	ret	0
??0?$tvec4@M$0A@@glm@@QEAA@M@Z ENDP			; glm::tvec4<float,0>::tvec4<float,0>
_TEXT	ENDS
; Function compile flags: /Odtp /RTCsu
; File C:\Users\ksart\OneDrive\Desktop\FlappyBird\libraries\external\glm\glm\detail\type_vec4.inl
;	COMDAT ??0?$tvec4@M$0A@@glm@@QEAA@XZ
_TEXT	SEGMENT
this$ = 16
??0?$tvec4@M$0A@@glm@@QEAA@XZ PROC			; glm::tvec4<float,0>::tvec4<float,0>, COMDAT

; 163  : 		{}

$LN3:
	mov	QWORD PTR [rsp+8], rcx
	push	rdi

; 161  : 				: x(0), y(0), z(0), w(0)

	mov	rax, QWORD PTR this$[rsp]
	xorps	xmm0, xmm0
	movss	DWORD PTR [rax], xmm0
	mov	rax, QWORD PTR this$[rsp]
	xorps	xmm0, xmm0
	movss	DWORD PTR [rax+4], xmm0
	mov	rax, QWORD PTR this$[rsp]
	xorps	xmm0, xmm0
	movss	DWORD PTR [rax+8], xmm0
	mov	rax, QWORD PTR this$[rsp]
	xorps	xmm0, xmm0
	movss	DWORD PTR [rax+12], xmm0

; 163  : 		{}

	mov	rax, QWORD PTR this$[rsp]
	pop	rdi
	ret	0
??0?$tvec4@M$0A@@glm@@QEAA@XZ ENDP			; glm::tvec4<float,0>::tvec4<float,0>
_TEXT	ENDS
; Function compile flags: /Odtp /RTCsu
; File C:\Users\ksart\OneDrive\Desktop\FlappyBird\libraries\external\glm\glm\detail\type_vec4.inl
;	COMDAT ??A?$tvec4@M$0A@@glm@@QEBAAEBMH@Z
_TEXT	SEGMENT
this$ = 48
i$ = 56
??A?$tvec4@M$0A@@glm@@QEBAAEBMH@Z PROC			; glm::tvec4<float,0>::operator[], COMDAT

; 336  : 	{

$LN5:
	mov	DWORD PTR [rsp+16], edx
	mov	QWORD PTR [rsp+8], rcx
	push	rdi
	sub	rsp, 32					; 00000020H

; 337  : 		assert(i >= 0 && i < this->length());

	cmp	DWORD PTR i$[rsp], 0
	jl	SHORT $LN3@operator
	call	?length@?$tvec4@M$0A@@glm@@SAHXZ	; glm::tvec4<float,0>::length
	cmp	DWORD PTR i$[rsp], eax
	jl	SHORT $LN4@operator
$LN3@operator:
	mov	r8d, 337				; 00000151H
	lea	rdx, OFFSET FLAT:??_C@_1LG@LAANPDHN@?$AAC?$AA?3?$AA?2?$AAU?$AAs?$AAe?$AAr?$AAs?$AA?2?$AAk?$AAs?$AAa?$AAr?$AAt?$AA?2@
	lea	rcx, OFFSET FLAT:??_C@_1DK@BGNCJAPL@?$AAi?$AA?5?$AA?$DO?$AA?$DN?$AA?5?$AA0?$AA?5?$AA?$CG?$AA?$CG?$AA?5?$AAi?$AA?5?$AA?$DM?$AA?5?$AAt@
	call	QWORD PTR __imp__wassert
	xor	eax, eax
$LN4@operator:

; 338  : 		return (&x)[i];

	movsxd	rax, DWORD PTR i$[rsp]
	mov	rcx, QWORD PTR this$[rsp]
	lea	rax, QWORD PTR [rcx+rax*4]

; 339  : 	}

	add	rsp, 32					; 00000020H
	pop	rdi
	ret	0
??A?$tvec4@M$0A@@glm@@QEBAAEBMH@Z ENDP			; glm::tvec4<float,0>::operator[]
_TEXT	ENDS
; Function compile flags: /Odtp /RTCsu
; File C:\Users\ksart\OneDrive\Desktop\FlappyBird\libraries\external\glm\glm\detail\type_vec4.inl
;	COMDAT ??A?$tvec4@M$0A@@glm@@QEAAAEAMH@Z
_TEXT	SEGMENT
this$ = 48
i$ = 56
??A?$tvec4@M$0A@@glm@@QEAAAEAMH@Z PROC			; glm::tvec4<float,0>::operator[], COMDAT

; 329  : 	{

$LN5:
	mov	DWORD PTR [rsp+16], edx
	mov	QWORD PTR [rsp+8], rcx
	push	rdi
	sub	rsp, 32					; 00000020H

; 330  : 		assert(i >= 0 && i < this->length());

	cmp	DWORD PTR i$[rsp], 0
	jl	SHORT $LN3@operator
	call	?length@?$tvec4@M$0A@@glm@@SAHXZ	; glm::tvec4<float,0>::length
	cmp	DWORD PTR i$[rsp], eax
	jl	SHORT $LN4@operator
$LN3@operator:
	mov	r8d, 330				; 0000014aH
	lea	rdx, OFFSET FLAT:??_C@_1LG@LAANPDHN@?$AAC?$AA?3?$AA?2?$AAU?$AAs?$AAe?$AAr?$AAs?$AA?2?$AAk?$AAs?$AAa?$AAr?$AAt?$AA?2@
	lea	rcx, OFFSET FLAT:??_C@_1DK@BGNCJAPL@?$AAi?$AA?5?$AA?$DO?$AA?$DN?$AA?5?$AA0?$AA?5?$AA?$CG?$AA?$CG?$AA?5?$AAi?$AA?5?$AA?$DM?$AA?5?$AAt@
	call	QWORD PTR __imp__wassert
	xor	eax, eax
$LN4@operator:

; 331  : 		return (&x)[i];

	movsxd	rax, DWORD PTR i$[rsp]
	mov	rcx, QWORD PTR this$[rsp]
	lea	rax, QWORD PTR [rcx+rax*4]

; 332  : 	}

	add	rsp, 32					; 00000020H
	pop	rdi
	ret	0
??A?$tvec4@M$0A@@glm@@QEAAAEAMH@Z ENDP			; glm::tvec4<float,0>::operator[]
_TEXT	ENDS
; Function compile flags: /Odtp /RTCsu
; File C:\Users\ksart\OneDrive\Desktop\FlappyBird\libraries\external\glm\glm\detail\type_vec4.hpp
;	COMDAT ?length@?$tvec4@M$0A@@glm@@SAHXZ
_TEXT	SEGMENT
?length@?$tvec4@M$0A@@glm@@SAHXZ PROC			; glm::tvec4<float,0>::length, COMDAT

; 85   : 		GLM_FUNC_DECL static length_type length(){return 4;}

$LN3:
	push	rdi
	mov	eax, 4
	pop	rdi
	ret	0
?length@?$tvec4@M$0A@@glm@@SAHXZ ENDP			; glm::tvec4<float,0>::length
_TEXT	ENDS
; Function compile flags: /Odtp /RTCsu
;	COMDAT ??_H@YAXPEAX_K1P6APEAX0@Z@Z
_TEXT	SEGMENT
tv66 = 32
tv67 = 40
__t$ = 64
__s$ = 72
__n$ = 80
__f$ = 88
??_H@YAXPEAX_K1P6APEAX0@Z@Z PROC			; `vector constructor iterator', COMDAT
$LN7:
	mov	QWORD PTR [rsp+32], r9
	mov	QWORD PTR [rsp+24], r8
	mov	QWORD PTR [rsp+16], rdx
	mov	QWORD PTR [rsp+8], rcx
	push	rdi
	sub	rsp, 48					; 00000030H
$LN2@vector:
	mov	rax, QWORD PTR __n$[rsp]
	mov	QWORD PTR tv66[rsp], rax
	mov	rax, QWORD PTR __n$[rsp]
	dec	rax
	mov	QWORD PTR __n$[rsp], rax
	cmp	QWORD PTR tv66[rsp], 0
	jbe	SHORT $LN5@vector
	mov	DWORD PTR tv67[rsp], 1
	jmp	SHORT $LN6@vector
$LN5@vector:
	mov	DWORD PTR tv67[rsp], 0
$LN6@vector:
	cmp	DWORD PTR tv67[rsp], 0
	je	SHORT $LN3@vector
	mov	rcx, QWORD PTR __t$[rsp]
	call	QWORD PTR __f$[rsp]
	mov	rax, QWORD PTR __s$[rsp]
	mov	rcx, QWORD PTR __t$[rsp]
	add	rcx, rax
	mov	rax, rcx
	mov	QWORD PTR __t$[rsp], rax
	jmp	SHORT $LN2@vector
$LN3@vector:
	add	rsp, 48					; 00000030H
	pop	rdi
	ret	0
??_H@YAXPEAX_K1P6APEAX0@Z@Z ENDP			; `vector constructor iterator'
_TEXT	ENDS
END
