; Listing generated by Microsoft (R) Optimizing Compiler Version 19.32.31329.0 

include listing.inc

INCLUDELIB MSVCRTD

CONST	SEGMENT
$SG82366 DB	'invalid argument', 00H
	ORG $+3
$SG82367 DB	'%s', 00H
	ORG $+1
$SG82371 DB	'"', 00H, 'i', 00H, 'n', 00H, 'v', 00H, 'a', 00H, 'l', 00H
	DB	'i', 00H, 'd', 00H, ' ', 00H, 'a', 00H, 'r', 00H, 'g', 00H, 'u'
	DB	00H, 'm', 00H, 'e', 00H, 'n', 00H, 't', 00H, '"', 00H, 00H, 00H
	ORG $+2
$SG82368 DB	'C:\Program Files\Microsoft Visual Studio\2022\Community\'
	DB	'VC\Tools\MSVC\14.32.31326\include\xmemory', 00H
	ORG $+2
$SG82370 DB	00H, 00H
	ORG $+10
$SG82369 DB	'C', 00H, ':', 00H, '\', 00H, 'P', 00H, 'r', 00H, 'o', 00H
	DB	'g', 00H, 'r', 00H, 'a', 00H, 'm', 00H, ' ', 00H, 'F', 00H, 'i'
	DB	00H, 'l', 00H, 'e', 00H, 's', 00H, '\', 00H, 'M', 00H, 'i', 00H
	DB	'c', 00H, 'r', 00H, 'o', 00H, 's', 00H, 'o', 00H, 'f', 00H, 't'
	DB	00H, ' ', 00H, 'V', 00H, 'i', 00H, 's', 00H, 'u', 00H, 'a', 00H
	DB	'l', 00H, ' ', 00H, 'S', 00H, 't', 00H, 'u', 00H, 'd', 00H, 'i'
	DB	00H, 'o', 00H, '\', 00H, '2', 00H, '0', 00H, '2', 00H, '2', 00H
	DB	'\', 00H, 'C', 00H, 'o', 00H, 'm', 00H, 'm', 00H, 'u', 00H, 'n'
	DB	00H, 'i', 00H, 't', 00H, 'y', 00H, '\', 00H, 'V', 00H, 'C', 00H
	DB	'\', 00H, 'T', 00H, 'o', 00H, 'o', 00H, 'l', 00H, 's', 00H, '\'
	DB	00H, 'M', 00H, 'S', 00H, 'V', 00H, 'C', 00H, '\', 00H, '1', 00H
	DB	'4', 00H, '.', 00H, '3', 00H, '2', 00H, '.', 00H, '3', 00H, '1'
	DB	00H, '3', 00H, '2', 00H, '6', 00H, '\', 00H, 'i', 00H, 'n', 00H
	DB	'c', 00H, 'l', 00H, 'u', 00H, 'd', 00H, 'e', 00H, '\', 00H, 'x'
	DB	00H, 'm', 00H, 'e', 00H, 'm', 00H, 'o', 00H, 'r', 00H, 'y', 00H
	DB	00H, 00H
CONST	ENDS
PUBLIC	?max@?$numeric_limits@_J@std@@SA_JXZ		; std::numeric_limits<__int64>::max
PUBLIC	??2@YAPEAX_KPEAX@Z				; operator new
PUBLIC	?length@?$tvec2@M$0A@@glm@@SAHXZ		; glm::tvec2<float,0>::length
PUBLIC	??A?$tvec2@M$0A@@glm@@QEBAAEBMH@Z		; glm::tvec2<float,0>::operator[]
PUBLIC	??0?$tvec2@M$0A@@glm@@QEAA@XZ			; glm::tvec2<float,0>::tvec2<float,0>
PUBLIC	?length@?$tvec2@G$0A@@glm@@SAHXZ		; glm::tvec2<unsigned short,0>::length
PUBLIC	??A?$tvec2@G$0A@@glm@@QEBAAEBGH@Z		; glm::tvec2<unsigned short,0>::operator[]
PUBLIC	??0?$tvec2@G$0A@@glm@@QEAA@XZ			; glm::tvec2<unsigned short,0>::tvec2<unsigned short,0>
PUBLIC	?length@?$tvec2@F$0A@@glm@@SAHXZ		; glm::tvec2<short,0>::length
PUBLIC	??A?$tvec2@F$0A@@glm@@QEBAAEBFH@Z		; glm::tvec2<short,0>::operator[]
PUBLIC	??0?$tvec2@F$0A@@glm@@QEAA@XZ			; glm::tvec2<short,0>::tvec2<short,0>
PUBLIC	?length@?$tvec4@M$0A@@glm@@SAHXZ		; glm::tvec4<float,0>::length
PUBLIC	??A?$tvec4@M$0A@@glm@@QEBAAEBMH@Z		; glm::tvec4<float,0>::operator[]
PUBLIC	??0?$tvec4@M$0A@@glm@@QEAA@XZ			; glm::tvec4<float,0>::tvec4<float,0>
PUBLIC	?length@?$tvec4@E$0A@@glm@@SAHXZ		; glm::tvec4<unsigned char,0>::length
PUBLIC	??A?$tvec4@E$0A@@glm@@QEBAAEBEH@Z		; glm::tvec4<unsigned char,0>::operator[]
PUBLIC	??0?$tvec4@E$0A@@glm@@QEAA@XZ			; glm::tvec4<unsigned char,0>::tvec4<unsigned char,0>
PUBLIC	?length@?$tvec4@C$0A@@glm@@SAHXZ		; glm::tvec4<signed char,0>::length
PUBLIC	??A?$tvec4@C$0A@@glm@@QEBAAEBCH@Z		; glm::tvec4<signed char,0>::operator[]
PUBLIC	??0?$tvec4@C$0A@@glm@@QEAA@XZ			; glm::tvec4<signed char,0>::tvec4<signed char,0>
PUBLIC	?length@?$tvec2@I$0A@@glm@@SAHXZ		; glm::tvec2<unsigned int,0>::length
PUBLIC	??A?$tvec2@I$0A@@glm@@QEBAAEBIH@Z		; glm::tvec2<unsigned int,0>::operator[]
PUBLIC	??0?$tvec2@I$0A@@glm@@QEAA@XZ			; glm::tvec2<unsigned int,0>::tvec2<unsigned int,0>
PUBLIC	??0exception@std@@QEAA@QEBDH@Z			; std::exception::exception
PUBLIC	??0exception@std@@QEAA@AEBV01@@Z		; std::exception::exception
PUBLIC	??1exception@std@@UEAA@XZ			; std::exception::~exception
PUBLIC	?what@exception@std@@UEBAPEBDXZ			; std::exception::what
PUBLIC	??_Gexception@std@@UEAAPEAXI@Z			; std::exception::`scalar deleting destructor'
PUBLIC	??0bad_alloc@std@@AEAA@QEBD@Z			; std::bad_alloc::bad_alloc
PUBLIC	??1bad_alloc@std@@UEAA@XZ			; std::bad_alloc::~bad_alloc
PUBLIC	??0bad_alloc@std@@QEAA@AEBV01@@Z		; std::bad_alloc::bad_alloc
PUBLIC	??_Gbad_alloc@std@@UEAAPEAXI@Z			; std::bad_alloc::`scalar deleting destructor'
PUBLIC	??0bad_array_new_length@std@@QEAA@XZ		; std::bad_array_new_length::bad_array_new_length
PUBLIC	??1bad_array_new_length@std@@UEAA@XZ		; std::bad_array_new_length::~bad_array_new_length
PUBLIC	??0bad_array_new_length@std@@QEAA@AEBV01@@Z	; std::bad_array_new_length::bad_array_new_length
PUBLIC	??_Gbad_array_new_length@std@@UEAAPEAXI@Z	; std::bad_array_new_length::`scalar deleting destructor'
PUBLIC	?_Throw_bad_array_new_length@std@@YAXXZ		; std::_Throw_bad_array_new_length
PUBLIC	?_Allocate@_Default_allocate_traits@std@@SAPEAX_K@Z ; std::_Default_allocate_traits::_Allocate
PUBLIC	?_Adjust_manually_vector_aligned@std@@YAXAEAPEAXAEA_K@Z ; std::_Adjust_manually_vector_aligned
PUBLIC	??0_Container_proxy@std@@QEAA@PEAU_Container_base12@1@@Z ; std::_Container_proxy::_Container_proxy
PUBLIC	??0_Container_base12@std@@QEAA@XZ		; std::_Container_base12::_Container_base12
PUBLIC	?_Orphan_all@_Container_base12@std@@QEAAXXZ	; std::_Container_base12::_Orphan_all
PUBLIC	?_Orphan_all_unlocked_v3@_Container_base12@std@@AEAAXXZ ; std::_Container_base12::_Orphan_all_unlocked_v3
PUBLIC	?_Orphan_all_locked_v3@_Container_base12@std@@AEAAXXZ ; std::_Container_base12::_Orphan_all_locked_v3
PUBLIC	?_Release@_Basic_container_proxy_ptr12@std@@QEAAXXZ ; std::_Basic_container_proxy_ptr12::_Release
PUBLIC	??0_Basic_container_proxy_ptr12@std@@IEAA@XZ	; std::_Basic_container_proxy_ptr12::_Basic_container_proxy_ptr12
PUBLIC	?length@?$tvec3@M$0A@@glm@@SAHXZ		; glm::tvec3<float,0>::length
PUBLIC	??A?$tvec3@M$0A@@glm@@QEBAAEBMH@Z		; glm::tvec3<float,0>::operator[]
PUBLIC	??0?$tvec3@M$0A@@glm@@QEAA@XZ			; glm::tvec3<float,0>::tvec3<float,0>
PUBLIC	?length@?$tvec2@N$0A@@glm@@SAHXZ		; glm::tvec2<double,0>::length
PUBLIC	??A?$tvec2@N$0A@@glm@@QEBAAEBNH@Z		; glm::tvec2<double,0>::operator[]
PUBLIC	??0?$tvec2@N$0A@@glm@@QEAA@XZ			; glm::tvec2<double,0>::tvec2<double,0>
PUBLIC	?length@?$tvec3@N$0A@@glm@@SAHXZ		; glm::tvec3<double,0>::length
PUBLIC	??A?$tvec3@N$0A@@glm@@QEBAAEBNH@Z		; glm::tvec3<double,0>::operator[]
PUBLIC	??0?$tvec3@N$0A@@glm@@QEAA@XZ			; glm::tvec3<double,0>::tvec3<double,0>
PUBLIC	?length@?$tvec4@N$0A@@glm@@SAHXZ		; glm::tvec4<double,0>::length
PUBLIC	??A?$tvec4@N$0A@@glm@@QEBAAEBNH@Z		; glm::tvec4<double,0>::operator[]
PUBLIC	??0?$tvec4@N$0A@@glm@@QEAA@XZ			; glm::tvec4<double,0>::tvec4<double,0>
PUBLIC	?length@?$tvec4@M$00@glm@@SAHXZ			; glm::tvec4<float,1>::length
PUBLIC	??A?$tvec4@M$00@glm@@QEBAAEBMH@Z		; glm::tvec4<float,1>::operator[]
PUBLIC	??$?0$0A@@?$tvec2@M$01@glm@@QEAA@AEBU?$tvec2@M$0A@@1@@Z ; glm::tvec2<float,2>::tvec2<float,2><0>
PUBLIC	??$?0$0A@@?$tvec2@M$00@glm@@QEAA@AEBU?$tvec2@M$0A@@1@@Z ; glm::tvec2<float,1>::tvec2<float,1><0>
PUBLIC	??$?0$01@?$tvec2@M$0A@@glm@@QEAA@AEBU?$tvec2@M$01@1@@Z ; glm::tvec2<float,0>::tvec2<float,0><2>
PUBLIC	??$equal@M$0A@Utvec2@glm@@@glm@@YA?AU?$tvec2@_N$0A@@0@AEBU?$tvec2@M$0A@@0@0@Z ; glm::equal<float,0,glm::tvec2>
PUBLIC	?length@?$tvec2@_N$0A@@glm@@SAHXZ		; glm::tvec2<bool,0>::length
PUBLIC	??A?$tvec2@_N$0A@@glm@@QEAAAEA_NH@Z		; glm::tvec2<bool,0>::operator[]
PUBLIC	??A?$tvec2@_N$0A@@glm@@QEBAAEB_NH@Z		; glm::tvec2<bool,0>::operator[]
PUBLIC	??0?$tvec2@_N$0A@@glm@@QEAA@W4ctor@1@@Z		; glm::tvec2<bool,0>::tvec2<bool,0>
PUBLIC	??$all@$0A@Utvec2@glm@@@glm@@YA_NAEBU?$tvec2@_N$0A@@0@@Z ; glm::all<0,glm::tvec2>
PUBLIC	??$?0$00@?$tvec2@M$0A@@glm@@QEAA@AEBU?$tvec2@M$00@1@@Z ; glm::tvec2<float,0>::tvec2<float,0><1>
PUBLIC	??$?0$0A@@?$tvec3@M$01@glm@@QEAA@AEBU?$tvec3@M$0A@@1@@Z ; glm::tvec3<float,2>::tvec3<float,2><0>
PUBLIC	??$?0$0A@@?$tvec3@M$00@glm@@QEAA@AEBU?$tvec3@M$0A@@1@@Z ; glm::tvec3<float,1>::tvec3<float,1><0>
PUBLIC	??$?0$01@?$tvec3@M$0A@@glm@@QEAA@AEBU?$tvec3@M$01@1@@Z ; glm::tvec3<float,0>::tvec3<float,0><2>
PUBLIC	??$equal@M$0A@Utvec3@glm@@@glm@@YA?AU?$tvec3@_N$0A@@0@AEBU?$tvec3@M$0A@@0@0@Z ; glm::equal<float,0,glm::tvec3>
PUBLIC	?length@?$tvec3@_N$0A@@glm@@SAHXZ		; glm::tvec3<bool,0>::length
PUBLIC	??A?$tvec3@_N$0A@@glm@@QEAAAEA_NH@Z		; glm::tvec3<bool,0>::operator[]
PUBLIC	??A?$tvec3@_N$0A@@glm@@QEBAAEB_NH@Z		; glm::tvec3<bool,0>::operator[]
PUBLIC	??0?$tvec3@_N$0A@@glm@@QEAA@W4ctor@1@@Z		; glm::tvec3<bool,0>::tvec3<bool,0>
PUBLIC	??$all@$0A@Utvec3@glm@@@glm@@YA_NAEBU?$tvec3@_N$0A@@0@@Z ; glm::all<0,glm::tvec3>
PUBLIC	??$?0$00@?$tvec3@M$0A@@glm@@QEAA@AEBU?$tvec3@M$00@1@@Z ; glm::tvec3<float,0>::tvec3<float,0><1>
PUBLIC	??$?0$0A@@?$tvec4@M$01@glm@@QEAA@AEBU?$tvec4@M$0A@@1@@Z ; glm::tvec4<float,2>::tvec4<float,2><0>
PUBLIC	??$?0$0A@@?$tvec4@M$00@glm@@QEAA@AEBU?$tvec4@M$0A@@1@@Z ; glm::tvec4<float,1>::tvec4<float,1><0>
PUBLIC	??$?0$01@?$tvec4@M$0A@@glm@@QEAA@AEBU?$tvec4@M$01@1@@Z ; glm::tvec4<float,0>::tvec4<float,0><2>
PUBLIC	??$equal@M$0A@Utvec4@glm@@@glm@@YA?AU?$tvec4@_N$0A@@0@AEBU?$tvec4@M$0A@@0@0@Z ; glm::equal<float,0,glm::tvec4>
PUBLIC	?length@?$tvec4@_N$0A@@glm@@SAHXZ		; glm::tvec4<bool,0>::length
PUBLIC	??A?$tvec4@_N$0A@@glm@@QEAAAEA_NH@Z		; glm::tvec4<bool,0>::operator[]
PUBLIC	??A?$tvec4@_N$0A@@glm@@QEBAAEB_NH@Z		; glm::tvec4<bool,0>::operator[]
PUBLIC	??0?$tvec4@_N$0A@@glm@@QEAA@W4ctor@1@@Z		; glm::tvec4<bool,0>::tvec4<bool,0>
PUBLIC	??$all@$0A@Utvec4@glm@@@glm@@YA_NAEBU?$tvec4@_N$0A@@0@@Z ; glm::all<0,glm::tvec4>
PUBLIC	??$?0$00@?$tvec4@M$0A@@glm@@QEAA@AEBU?$tvec4@M$00@1@@Z ; glm::tvec4<float,0>::tvec4<float,0><1>
PUBLIC	??$?0$0A@@?$tvec2@N$01@glm@@QEAA@AEBU?$tvec2@N$0A@@1@@Z ; glm::tvec2<double,2>::tvec2<double,2><0>
PUBLIC	??$?0$0A@@?$tvec2@N$00@glm@@QEAA@AEBU?$tvec2@N$0A@@1@@Z ; glm::tvec2<double,1>::tvec2<double,1><0>
PUBLIC	??$?0$01@?$tvec2@N$0A@@glm@@QEAA@AEBU?$tvec2@N$01@1@@Z ; glm::tvec2<double,0>::tvec2<double,0><2>
PUBLIC	??$equal@N$0A@Utvec2@glm@@@glm@@YA?AU?$tvec2@_N$0A@@0@AEBU?$tvec2@N$0A@@0@0@Z ; glm::equal<double,0,glm::tvec2>
PUBLIC	??$?0$00@?$tvec2@N$0A@@glm@@QEAA@AEBU?$tvec2@N$00@1@@Z ; glm::tvec2<double,0>::tvec2<double,0><1>
PUBLIC	??$?0$0A@@?$tvec3@N$01@glm@@QEAA@AEBU?$tvec3@N$0A@@1@@Z ; glm::tvec3<double,2>::tvec3<double,2><0>
PUBLIC	??$?0$0A@@?$tvec3@N$00@glm@@QEAA@AEBU?$tvec3@N$0A@@1@@Z ; glm::tvec3<double,1>::tvec3<double,1><0>
PUBLIC	??$?0$01@?$tvec3@N$0A@@glm@@QEAA@AEBU?$tvec3@N$01@1@@Z ; glm::tvec3<double,0>::tvec3<double,0><2>
PUBLIC	??$equal@N$0A@Utvec3@glm@@@glm@@YA?AU?$tvec3@_N$0A@@0@AEBU?$tvec3@N$0A@@0@0@Z ; glm::equal<double,0,glm::tvec3>
PUBLIC	??$?0$00@?$tvec3@N$0A@@glm@@QEAA@AEBU?$tvec3@N$00@1@@Z ; glm::tvec3<double,0>::tvec3<double,0><1>
PUBLIC	??$?0$0A@@?$tvec4@N$01@glm@@QEAA@AEBU?$tvec4@N$0A@@1@@Z ; glm::tvec4<double,2>::tvec4<double,2><0>
PUBLIC	??$?0$0A@@?$tvec4@N$00@glm@@QEAA@AEBU?$tvec4@N$0A@@1@@Z ; glm::tvec4<double,1>::tvec4<double,1><0>
PUBLIC	??$?0$01@?$tvec4@N$0A@@glm@@QEAA@AEBU?$tvec4@N$01@1@@Z ; glm::tvec4<double,0>::tvec4<double,0><2>
PUBLIC	??$equal@N$0A@Utvec4@glm@@@glm@@YA?AU?$tvec4@_N$0A@@0@AEBU?$tvec4@N$0A@@0@0@Z ; glm::equal<double,0,glm::tvec4>
PUBLIC	??$?0$00@?$tvec4@N$0A@@glm@@QEAA@AEBU?$tvec4@N$00@1@@Z ; glm::tvec4<double,0>::tvec4<double,0><1>
PUBLIC	?length@?$tvec2@C$0A@@glm@@SAHXZ		; glm::tvec2<signed char,0>::length
PUBLIC	??A?$tvec2@C$0A@@glm@@QEBAAEBCH@Z		; glm::tvec2<signed char,0>::operator[]
PUBLIC	??0?$tvec2@C$0A@@glm@@QEAA@XZ			; glm::tvec2<signed char,0>::tvec2<signed char,0>
PUBLIC	?length@?$tvec3@C$0A@@glm@@SAHXZ		; glm::tvec3<signed char,0>::length
PUBLIC	??A?$tvec3@C$0A@@glm@@QEBAAEBCH@Z		; glm::tvec3<signed char,0>::operator[]
PUBLIC	??0?$tvec3@C$0A@@glm@@QEAA@XZ			; glm::tvec3<signed char,0>::tvec3<signed char,0>
PUBLIC	?length@?$tvec3@F$0A@@glm@@SAHXZ		; glm::tvec3<short,0>::length
PUBLIC	??A?$tvec3@F$0A@@glm@@QEBAAEBFH@Z		; glm::tvec3<short,0>::operator[]
PUBLIC	??0?$tvec3@F$0A@@glm@@QEAA@XZ			; glm::tvec3<short,0>::tvec3<short,0>
PUBLIC	?length@?$tvec4@F$0A@@glm@@SAHXZ		; glm::tvec4<short,0>::length
PUBLIC	??A?$tvec4@F$0A@@glm@@QEBAAEBFH@Z		; glm::tvec4<short,0>::operator[]
PUBLIC	??0?$tvec4@F$0A@@glm@@QEAA@XZ			; glm::tvec4<short,0>::tvec4<short,0>
PUBLIC	?length@?$tvec2@H$0A@@glm@@SAHXZ		; glm::tvec2<int,0>::length
PUBLIC	??A?$tvec2@H$0A@@glm@@QEBAAEBHH@Z		; glm::tvec2<int,0>::operator[]
PUBLIC	??0?$tvec2@H$0A@@glm@@QEAA@XZ			; glm::tvec2<int,0>::tvec2<int,0>
PUBLIC	?length@?$tvec3@H$0A@@glm@@SAHXZ		; glm::tvec3<int,0>::length
PUBLIC	??A?$tvec3@H$0A@@glm@@QEBAAEBHH@Z		; glm::tvec3<int,0>::operator[]
PUBLIC	??0?$tvec3@H$0A@@glm@@QEAA@XZ			; glm::tvec3<int,0>::tvec3<int,0>
PUBLIC	?length@?$tvec4@H$0A@@glm@@SAHXZ		; glm::tvec4<int,0>::length
PUBLIC	??A?$tvec4@H$0A@@glm@@QEBAAEBHH@Z		; glm::tvec4<int,0>::operator[]
PUBLIC	??0?$tvec4@H$0A@@glm@@QEAA@XZ			; glm::tvec4<int,0>::tvec4<int,0>
PUBLIC	?length@?$tvec2@_J$0A@@glm@@SAHXZ		; glm::tvec2<__int64,0>::length
PUBLIC	??A?$tvec2@_J$0A@@glm@@QEBAAEB_JH@Z		; glm::tvec2<__int64,0>::operator[]
PUBLIC	??0?$tvec2@_J$0A@@glm@@QEAA@XZ			; glm::tvec2<__int64,0>::tvec2<__int64,0>
PUBLIC	?length@?$tvec3@_J$0A@@glm@@SAHXZ		; glm::tvec3<__int64,0>::length
PUBLIC	??A?$tvec3@_J$0A@@glm@@QEBAAEB_JH@Z		; glm::tvec3<__int64,0>::operator[]
PUBLIC	??0?$tvec3@_J$0A@@glm@@QEAA@XZ			; glm::tvec3<__int64,0>::tvec3<__int64,0>
PUBLIC	?length@?$tvec4@_J$0A@@glm@@SAHXZ		; glm::tvec4<__int64,0>::length
PUBLIC	??A?$tvec4@_J$0A@@glm@@QEBAAEB_JH@Z		; glm::tvec4<__int64,0>::operator[]
PUBLIC	??0?$tvec4@_J$0A@@glm@@QEAA@XZ			; glm::tvec4<__int64,0>::tvec4<__int64,0>
PUBLIC	??$?0$0A@@?$tvec2@C$01@glm@@QEAA@AEBU?$tvec2@C$0A@@1@@Z ; glm::tvec2<signed char,2>::tvec2<signed char,2><0>
PUBLIC	??$?0$0A@@?$tvec2@C$00@glm@@QEAA@AEBU?$tvec2@C$0A@@1@@Z ; glm::tvec2<signed char,1>::tvec2<signed char,1><0>
PUBLIC	??$?0$01@?$tvec2@C$0A@@glm@@QEAA@AEBU?$tvec2@C$01@1@@Z ; glm::tvec2<signed char,0>::tvec2<signed char,0><2>
PUBLIC	??$equal@C$0A@Utvec2@glm@@@glm@@YA?AU?$tvec2@_N$0A@@0@AEBU?$tvec2@C$0A@@0@0@Z ; glm::equal<signed char,0,glm::tvec2>
PUBLIC	??$?0$00@?$tvec2@C$0A@@glm@@QEAA@AEBU?$tvec2@C$00@1@@Z ; glm::tvec2<signed char,0>::tvec2<signed char,0><1>
PUBLIC	??$?0$0A@@?$tvec3@C$01@glm@@QEAA@AEBU?$tvec3@C$0A@@1@@Z ; glm::tvec3<signed char,2>::tvec3<signed char,2><0>
PUBLIC	??$?0$0A@@?$tvec3@C$00@glm@@QEAA@AEBU?$tvec3@C$0A@@1@@Z ; glm::tvec3<signed char,1>::tvec3<signed char,1><0>
PUBLIC	??$?0$01@?$tvec3@C$0A@@glm@@QEAA@AEBU?$tvec3@C$01@1@@Z ; glm::tvec3<signed char,0>::tvec3<signed char,0><2>
PUBLIC	??$equal@C$0A@Utvec3@glm@@@glm@@YA?AU?$tvec3@_N$0A@@0@AEBU?$tvec3@C$0A@@0@0@Z ; glm::equal<signed char,0,glm::tvec3>
PUBLIC	??$?0$00@?$tvec3@C$0A@@glm@@QEAA@AEBU?$tvec3@C$00@1@@Z ; glm::tvec3<signed char,0>::tvec3<signed char,0><1>
PUBLIC	??$?0$0A@@?$tvec4@C$01@glm@@QEAA@AEBU?$tvec4@C$0A@@1@@Z ; glm::tvec4<signed char,2>::tvec4<signed char,2><0>
PUBLIC	??$?0$0A@@?$tvec4@C$00@glm@@QEAA@AEBU?$tvec4@C$0A@@1@@Z ; glm::tvec4<signed char,1>::tvec4<signed char,1><0>
PUBLIC	??$?0$01@?$tvec4@C$0A@@glm@@QEAA@AEBU?$tvec4@C$01@1@@Z ; glm::tvec4<signed char,0>::tvec4<signed char,0><2>
PUBLIC	??$equal@C$0A@Utvec4@glm@@@glm@@YA?AU?$tvec4@_N$0A@@0@AEBU?$tvec4@C$0A@@0@0@Z ; glm::equal<signed char,0,glm::tvec4>
PUBLIC	??$?0$00@?$tvec4@C$0A@@glm@@QEAA@AEBU?$tvec4@C$00@1@@Z ; glm::tvec4<signed char,0>::tvec4<signed char,0><1>
PUBLIC	??$?0$0A@@?$tvec2@F$01@glm@@QEAA@AEBU?$tvec2@F$0A@@1@@Z ; glm::tvec2<short,2>::tvec2<short,2><0>
PUBLIC	??$?0$0A@@?$tvec2@F$00@glm@@QEAA@AEBU?$tvec2@F$0A@@1@@Z ; glm::tvec2<short,1>::tvec2<short,1><0>
PUBLIC	??$?0$01@?$tvec2@F$0A@@glm@@QEAA@AEBU?$tvec2@F$01@1@@Z ; glm::tvec2<short,0>::tvec2<short,0><2>
PUBLIC	??$equal@F$0A@Utvec2@glm@@@glm@@YA?AU?$tvec2@_N$0A@@0@AEBU?$tvec2@F$0A@@0@0@Z ; glm::equal<short,0,glm::tvec2>
PUBLIC	??$?0$00@?$tvec2@F$0A@@glm@@QEAA@AEBU?$tvec2@F$00@1@@Z ; glm::tvec2<short,0>::tvec2<short,0><1>
PUBLIC	??$?0$0A@@?$tvec3@F$01@glm@@QEAA@AEBU?$tvec3@F$0A@@1@@Z ; glm::tvec3<short,2>::tvec3<short,2><0>
PUBLIC	??$?0$0A@@?$tvec3@F$00@glm@@QEAA@AEBU?$tvec3@F$0A@@1@@Z ; glm::tvec3<short,1>::tvec3<short,1><0>
PUBLIC	??$?0$01@?$tvec3@F$0A@@glm@@QEAA@AEBU?$tvec3@F$01@1@@Z ; glm::tvec3<short,0>::tvec3<short,0><2>
PUBLIC	??$equal@F$0A@Utvec3@glm@@@glm@@YA?AU?$tvec3@_N$0A@@0@AEBU?$tvec3@F$0A@@0@0@Z ; glm::equal<short,0,glm::tvec3>
PUBLIC	??$?0$00@?$tvec3@F$0A@@glm@@QEAA@AEBU?$tvec3@F$00@1@@Z ; glm::tvec3<short,0>::tvec3<short,0><1>
PUBLIC	??$?0$0A@@?$tvec4@F$01@glm@@QEAA@AEBU?$tvec4@F$0A@@1@@Z ; glm::tvec4<short,2>::tvec4<short,2><0>
PUBLIC	??$?0$0A@@?$tvec4@F$00@glm@@QEAA@AEBU?$tvec4@F$0A@@1@@Z ; glm::tvec4<short,1>::tvec4<short,1><0>
PUBLIC	??$?0$01@?$tvec4@F$0A@@glm@@QEAA@AEBU?$tvec4@F$01@1@@Z ; glm::tvec4<short,0>::tvec4<short,0><2>
PUBLIC	??$equal@F$0A@Utvec4@glm@@@glm@@YA?AU?$tvec4@_N$0A@@0@AEBU?$tvec4@F$0A@@0@0@Z ; glm::equal<short,0,glm::tvec4>
PUBLIC	??$?0$00@?$tvec4@F$0A@@glm@@QEAA@AEBU?$tvec4@F$00@1@@Z ; glm::tvec4<short,0>::tvec4<short,0><1>
PUBLIC	??$?0$0A@@?$tvec2@H$01@glm@@QEAA@AEBU?$tvec2@H$0A@@1@@Z ; glm::tvec2<int,2>::tvec2<int,2><0>
PUBLIC	??$?0$0A@@?$tvec2@H$00@glm@@QEAA@AEBU?$tvec2@H$0A@@1@@Z ; glm::tvec2<int,1>::tvec2<int,1><0>
PUBLIC	??$?0$01@?$tvec2@H$0A@@glm@@QEAA@AEBU?$tvec2@H$01@1@@Z ; glm::tvec2<int,0>::tvec2<int,0><2>
PUBLIC	??$equal@H$0A@Utvec2@glm@@@glm@@YA?AU?$tvec2@_N$0A@@0@AEBU?$tvec2@H$0A@@0@0@Z ; glm::equal<int,0,glm::tvec2>
PUBLIC	??$?0$00@?$tvec2@H$0A@@glm@@QEAA@AEBU?$tvec2@H$00@1@@Z ; glm::tvec2<int,0>::tvec2<int,0><1>
PUBLIC	??$?0$0A@@?$tvec3@H$01@glm@@QEAA@AEBU?$tvec3@H$0A@@1@@Z ; glm::tvec3<int,2>::tvec3<int,2><0>
PUBLIC	??$?0$0A@@?$tvec3@H$00@glm@@QEAA@AEBU?$tvec3@H$0A@@1@@Z ; glm::tvec3<int,1>::tvec3<int,1><0>
PUBLIC	??$?0$01@?$tvec3@H$0A@@glm@@QEAA@AEBU?$tvec3@H$01@1@@Z ; glm::tvec3<int,0>::tvec3<int,0><2>
PUBLIC	??$equal@H$0A@Utvec3@glm@@@glm@@YA?AU?$tvec3@_N$0A@@0@AEBU?$tvec3@H$0A@@0@0@Z ; glm::equal<int,0,glm::tvec3>
PUBLIC	??$?0$00@?$tvec3@H$0A@@glm@@QEAA@AEBU?$tvec3@H$00@1@@Z ; glm::tvec3<int,0>::tvec3<int,0><1>
PUBLIC	??$?0$0A@@?$tvec4@H$01@glm@@QEAA@AEBU?$tvec4@H$0A@@1@@Z ; glm::tvec4<int,2>::tvec4<int,2><0>
PUBLIC	??$?0$0A@@?$tvec4@H$00@glm@@QEAA@AEBU?$tvec4@H$0A@@1@@Z ; glm::tvec4<int,1>::tvec4<int,1><0>
PUBLIC	??$?0$01@?$tvec4@H$0A@@glm@@QEAA@AEBU?$tvec4@H$01@1@@Z ; glm::tvec4<int,0>::tvec4<int,0><2>
PUBLIC	??$equal@H$0A@Utvec4@glm@@@glm@@YA?AU?$tvec4@_N$0A@@0@AEBU?$tvec4@H$0A@@0@0@Z ; glm::equal<int,0,glm::tvec4>
PUBLIC	??$?0$00@?$tvec4@H$0A@@glm@@QEAA@AEBU?$tvec4@H$00@1@@Z ; glm::tvec4<int,0>::tvec4<int,0><1>
PUBLIC	??$?0$0A@@?$tvec2@_J$01@glm@@QEAA@AEBU?$tvec2@_J$0A@@1@@Z ; glm::tvec2<__int64,2>::tvec2<__int64,2><0>
PUBLIC	??$?0$0A@@?$tvec2@_J$00@glm@@QEAA@AEBU?$tvec2@_J$0A@@1@@Z ; glm::tvec2<__int64,1>::tvec2<__int64,1><0>
PUBLIC	??$?0$01@?$tvec2@_J$0A@@glm@@QEAA@AEBU?$tvec2@_J$01@1@@Z ; glm::tvec2<__int64,0>::tvec2<__int64,0><2>
PUBLIC	??$equal@_J$0A@Utvec2@glm@@@glm@@YA?AU?$tvec2@_N$0A@@0@AEBU?$tvec2@_J$0A@@0@0@Z ; glm::equal<__int64,0,glm::tvec2>
PUBLIC	??$?0$00@?$tvec2@_J$0A@@glm@@QEAA@AEBU?$tvec2@_J$00@1@@Z ; glm::tvec2<__int64,0>::tvec2<__int64,0><1>
PUBLIC	??$?0$0A@@?$tvec3@_J$01@glm@@QEAA@AEBU?$tvec3@_J$0A@@1@@Z ; glm::tvec3<__int64,2>::tvec3<__int64,2><0>
PUBLIC	??$?0$0A@@?$tvec3@_J$00@glm@@QEAA@AEBU?$tvec3@_J$0A@@1@@Z ; glm::tvec3<__int64,1>::tvec3<__int64,1><0>
PUBLIC	??$?0$01@?$tvec3@_J$0A@@glm@@QEAA@AEBU?$tvec3@_J$01@1@@Z ; glm::tvec3<__int64,0>::tvec3<__int64,0><2>
PUBLIC	??$equal@_J$0A@Utvec3@glm@@@glm@@YA?AU?$tvec3@_N$0A@@0@AEBU?$tvec3@_J$0A@@0@0@Z ; glm::equal<__int64,0,glm::tvec3>
PUBLIC	??$?0$00@?$tvec3@_J$0A@@glm@@QEAA@AEBU?$tvec3@_J$00@1@@Z ; glm::tvec3<__int64,0>::tvec3<__int64,0><1>
PUBLIC	??$?0$0A@@?$tvec4@_J$01@glm@@QEAA@AEBU?$tvec4@_J$0A@@1@@Z ; glm::tvec4<__int64,2>::tvec4<__int64,2><0>
PUBLIC	??$?0$0A@@?$tvec4@_J$00@glm@@QEAA@AEBU?$tvec4@_J$0A@@1@@Z ; glm::tvec4<__int64,1>::tvec4<__int64,1><0>
PUBLIC	??$?0$01@?$tvec4@_J$0A@@glm@@QEAA@AEBU?$tvec4@_J$01@1@@Z ; glm::tvec4<__int64,0>::tvec4<__int64,0><2>
PUBLIC	??$equal@_J$0A@Utvec4@glm@@@glm@@YA?AU?$tvec4@_N$0A@@0@AEBU?$tvec4@_J$0A@@0@0@Z ; glm::equal<__int64,0,glm::tvec4>
PUBLIC	??$?0$00@?$tvec4@_J$0A@@glm@@QEAA@AEBU?$tvec4@_J$00@1@@Z ; glm::tvec4<__int64,0>::tvec4<__int64,0><1>
PUBLIC	?length@?$tvec2@E$0A@@glm@@SAHXZ		; glm::tvec2<unsigned char,0>::length
PUBLIC	??A?$tvec2@E$0A@@glm@@QEBAAEBEH@Z		; glm::tvec2<unsigned char,0>::operator[]
PUBLIC	??0?$tvec2@E$0A@@glm@@QEAA@XZ			; glm::tvec2<unsigned char,0>::tvec2<unsigned char,0>
PUBLIC	?length@?$tvec3@E$0A@@glm@@SAHXZ		; glm::tvec3<unsigned char,0>::length
PUBLIC	??A?$tvec3@E$0A@@glm@@QEBAAEBEH@Z		; glm::tvec3<unsigned char,0>::operator[]
PUBLIC	??0?$tvec3@E$0A@@glm@@QEAA@XZ			; glm::tvec3<unsigned char,0>::tvec3<unsigned char,0>
PUBLIC	?length@?$tvec3@G$0A@@glm@@SAHXZ		; glm::tvec3<unsigned short,0>::length
PUBLIC	??A?$tvec3@G$0A@@glm@@QEBAAEBGH@Z		; glm::tvec3<unsigned short,0>::operator[]
PUBLIC	??0?$tvec3@G$0A@@glm@@QEAA@XZ			; glm::tvec3<unsigned short,0>::tvec3<unsigned short,0>
PUBLIC	?length@?$tvec4@G$0A@@glm@@SAHXZ		; glm::tvec4<unsigned short,0>::length
PUBLIC	??A?$tvec4@G$0A@@glm@@QEBAAEBGH@Z		; glm::tvec4<unsigned short,0>::operator[]
PUBLIC	??0?$tvec4@G$0A@@glm@@QEAA@XZ			; glm::tvec4<unsigned short,0>::tvec4<unsigned short,0>
PUBLIC	?length@?$tvec3@I$0A@@glm@@SAHXZ		; glm::tvec3<unsigned int,0>::length
PUBLIC	??A?$tvec3@I$0A@@glm@@QEBAAEBIH@Z		; glm::tvec3<unsigned int,0>::operator[]
PUBLIC	??0?$tvec3@I$0A@@glm@@QEAA@XZ			; glm::tvec3<unsigned int,0>::tvec3<unsigned int,0>
PUBLIC	?length@?$tvec4@I$0A@@glm@@SAHXZ		; glm::tvec4<unsigned int,0>::length
PUBLIC	??A?$tvec4@I$0A@@glm@@QEBAAEBIH@Z		; glm::tvec4<unsigned int,0>::operator[]
PUBLIC	??0?$tvec4@I$0A@@glm@@QEAA@XZ			; glm::tvec4<unsigned int,0>::tvec4<unsigned int,0>
PUBLIC	?length@?$tvec2@_K$0A@@glm@@SAHXZ		; glm::tvec2<unsigned __int64,0>::length
PUBLIC	??A?$tvec2@_K$0A@@glm@@QEBAAEB_KH@Z		; glm::tvec2<unsigned __int64,0>::operator[]
PUBLIC	??0?$tvec2@_K$0A@@glm@@QEAA@XZ			; glm::tvec2<unsigned __int64,0>::tvec2<unsigned __int64,0>
PUBLIC	?length@?$tvec3@_K$0A@@glm@@SAHXZ		; glm::tvec3<unsigned __int64,0>::length
PUBLIC	??A?$tvec3@_K$0A@@glm@@QEBAAEB_KH@Z		; glm::tvec3<unsigned __int64,0>::operator[]
PUBLIC	??0?$tvec3@_K$0A@@glm@@QEAA@XZ			; glm::tvec3<unsigned __int64,0>::tvec3<unsigned __int64,0>
PUBLIC	?length@?$tvec4@_K$0A@@glm@@SAHXZ		; glm::tvec4<unsigned __int64,0>::length
PUBLIC	??A?$tvec4@_K$0A@@glm@@QEBAAEB_KH@Z		; glm::tvec4<unsigned __int64,0>::operator[]
PUBLIC	??0?$tvec4@_K$0A@@glm@@QEAA@XZ			; glm::tvec4<unsigned __int64,0>::tvec4<unsigned __int64,0>
PUBLIC	??$?0$0A@@?$tvec2@E$01@glm@@QEAA@AEBU?$tvec2@E$0A@@1@@Z ; glm::tvec2<unsigned char,2>::tvec2<unsigned char,2><0>
PUBLIC	??$?0$0A@@?$tvec2@E$00@glm@@QEAA@AEBU?$tvec2@E$0A@@1@@Z ; glm::tvec2<unsigned char,1>::tvec2<unsigned char,1><0>
PUBLIC	??$?0$01@?$tvec2@E$0A@@glm@@QEAA@AEBU?$tvec2@E$01@1@@Z ; glm::tvec2<unsigned char,0>::tvec2<unsigned char,0><2>
PUBLIC	??$equal@E$0A@Utvec2@glm@@@glm@@YA?AU?$tvec2@_N$0A@@0@AEBU?$tvec2@E$0A@@0@0@Z ; glm::equal<unsigned char,0,glm::tvec2>
PUBLIC	??$?0$00@?$tvec2@E$0A@@glm@@QEAA@AEBU?$tvec2@E$00@1@@Z ; glm::tvec2<unsigned char,0>::tvec2<unsigned char,0><1>
PUBLIC	??$?0$0A@@?$tvec3@E$01@glm@@QEAA@AEBU?$tvec3@E$0A@@1@@Z ; glm::tvec3<unsigned char,2>::tvec3<unsigned char,2><0>
PUBLIC	??$?0$0A@@?$tvec3@E$00@glm@@QEAA@AEBU?$tvec3@E$0A@@1@@Z ; glm::tvec3<unsigned char,1>::tvec3<unsigned char,1><0>
PUBLIC	??$?0$01@?$tvec3@E$0A@@glm@@QEAA@AEBU?$tvec3@E$01@1@@Z ; glm::tvec3<unsigned char,0>::tvec3<unsigned char,0><2>
PUBLIC	??$equal@E$0A@Utvec3@glm@@@glm@@YA?AU?$tvec3@_N$0A@@0@AEBU?$tvec3@E$0A@@0@0@Z ; glm::equal<unsigned char,0,glm::tvec3>
PUBLIC	??$?0$00@?$tvec3@E$0A@@glm@@QEAA@AEBU?$tvec3@E$00@1@@Z ; glm::tvec3<unsigned char,0>::tvec3<unsigned char,0><1>
PUBLIC	??$?0$0A@@?$tvec4@E$01@glm@@QEAA@AEBU?$tvec4@E$0A@@1@@Z ; glm::tvec4<unsigned char,2>::tvec4<unsigned char,2><0>
PUBLIC	??$?0$0A@@?$tvec4@E$00@glm@@QEAA@AEBU?$tvec4@E$0A@@1@@Z ; glm::tvec4<unsigned char,1>::tvec4<unsigned char,1><0>
PUBLIC	??$?0$01@?$tvec4@E$0A@@glm@@QEAA@AEBU?$tvec4@E$01@1@@Z ; glm::tvec4<unsigned char,0>::tvec4<unsigned char,0><2>
PUBLIC	??$equal@E$0A@Utvec4@glm@@@glm@@YA?AU?$tvec4@_N$0A@@0@AEBU?$tvec4@E$0A@@0@0@Z ; glm::equal<unsigned char,0,glm::tvec4>
PUBLIC	??$?0$00@?$tvec4@E$0A@@glm@@QEAA@AEBU?$tvec4@E$00@1@@Z ; glm::tvec4<unsigned char,0>::tvec4<unsigned char,0><1>
PUBLIC	??$?0$0A@@?$tvec2@G$01@glm@@QEAA@AEBU?$tvec2@G$0A@@1@@Z ; glm::tvec2<unsigned short,2>::tvec2<unsigned short,2><0>
PUBLIC	??$?0$0A@@?$tvec2@G$00@glm@@QEAA@AEBU?$tvec2@G$0A@@1@@Z ; glm::tvec2<unsigned short,1>::tvec2<unsigned short,1><0>
PUBLIC	??$?0$01@?$tvec2@G$0A@@glm@@QEAA@AEBU?$tvec2@G$01@1@@Z ; glm::tvec2<unsigned short,0>::tvec2<unsigned short,0><2>
PUBLIC	??$equal@G$0A@Utvec2@glm@@@glm@@YA?AU?$tvec2@_N$0A@@0@AEBU?$tvec2@G$0A@@0@0@Z ; glm::equal<unsigned short,0,glm::tvec2>
PUBLIC	??$?0$00@?$tvec2@G$0A@@glm@@QEAA@AEBU?$tvec2@G$00@1@@Z ; glm::tvec2<unsigned short,0>::tvec2<unsigned short,0><1>
PUBLIC	??$?0$0A@@?$tvec3@G$01@glm@@QEAA@AEBU?$tvec3@G$0A@@1@@Z ; glm::tvec3<unsigned short,2>::tvec3<unsigned short,2><0>
PUBLIC	??$?0$0A@@?$tvec3@G$00@glm@@QEAA@AEBU?$tvec3@G$0A@@1@@Z ; glm::tvec3<unsigned short,1>::tvec3<unsigned short,1><0>
PUBLIC	??$?0$01@?$tvec3@G$0A@@glm@@QEAA@AEBU?$tvec3@G$01@1@@Z ; glm::tvec3<unsigned short,0>::tvec3<unsigned short,0><2>
PUBLIC	??$equal@G$0A@Utvec3@glm@@@glm@@YA?AU?$tvec3@_N$0A@@0@AEBU?$tvec3@G$0A@@0@0@Z ; glm::equal<unsigned short,0,glm::tvec3>
PUBLIC	??$?0$00@?$tvec3@G$0A@@glm@@QEAA@AEBU?$tvec3@G$00@1@@Z ; glm::tvec3<unsigned short,0>::tvec3<unsigned short,0><1>
PUBLIC	??$?0$0A@@?$tvec4@G$01@glm@@QEAA@AEBU?$tvec4@G$0A@@1@@Z ; glm::tvec4<unsigned short,2>::tvec4<unsigned short,2><0>
PUBLIC	??$?0$0A@@?$tvec4@G$00@glm@@QEAA@AEBU?$tvec4@G$0A@@1@@Z ; glm::tvec4<unsigned short,1>::tvec4<unsigned short,1><0>
PUBLIC	??$?0$01@?$tvec4@G$0A@@glm@@QEAA@AEBU?$tvec4@G$01@1@@Z ; glm::tvec4<unsigned short,0>::tvec4<unsigned short,0><2>
PUBLIC	??$equal@G$0A@Utvec4@glm@@@glm@@YA?AU?$tvec4@_N$0A@@0@AEBU?$tvec4@G$0A@@0@0@Z ; glm::equal<unsigned short,0,glm::tvec4>
PUBLIC	??$?0$00@?$tvec4@G$0A@@glm@@QEAA@AEBU?$tvec4@G$00@1@@Z ; glm::tvec4<unsigned short,0>::tvec4<unsigned short,0><1>
PUBLIC	??$?0$0A@@?$tvec2@I$01@glm@@QEAA@AEBU?$tvec2@I$0A@@1@@Z ; glm::tvec2<unsigned int,2>::tvec2<unsigned int,2><0>
PUBLIC	??$?0$0A@@?$tvec2@I$00@glm@@QEAA@AEBU?$tvec2@I$0A@@1@@Z ; glm::tvec2<unsigned int,1>::tvec2<unsigned int,1><0>
PUBLIC	??$?0$01@?$tvec2@I$0A@@glm@@QEAA@AEBU?$tvec2@I$01@1@@Z ; glm::tvec2<unsigned int,0>::tvec2<unsigned int,0><2>
PUBLIC	??$equal@I$0A@Utvec2@glm@@@glm@@YA?AU?$tvec2@_N$0A@@0@AEBU?$tvec2@I$0A@@0@0@Z ; glm::equal<unsigned int,0,glm::tvec2>
PUBLIC	??$?0$00@?$tvec2@I$0A@@glm@@QEAA@AEBU?$tvec2@I$00@1@@Z ; glm::tvec2<unsigned int,0>::tvec2<unsigned int,0><1>
PUBLIC	??$?0$0A@@?$tvec3@I$01@glm@@QEAA@AEBU?$tvec3@I$0A@@1@@Z ; glm::tvec3<unsigned int,2>::tvec3<unsigned int,2><0>
PUBLIC	??$?0$0A@@?$tvec3@I$00@glm@@QEAA@AEBU?$tvec3@I$0A@@1@@Z ; glm::tvec3<unsigned int,1>::tvec3<unsigned int,1><0>
PUBLIC	??$?0$01@?$tvec3@I$0A@@glm@@QEAA@AEBU?$tvec3@I$01@1@@Z ; glm::tvec3<unsigned int,0>::tvec3<unsigned int,0><2>
PUBLIC	??$equal@I$0A@Utvec3@glm@@@glm@@YA?AU?$tvec3@_N$0A@@0@AEBU?$tvec3@I$0A@@0@0@Z ; glm::equal<unsigned int,0,glm::tvec3>
PUBLIC	??$?0$00@?$tvec3@I$0A@@glm@@QEAA@AEBU?$tvec3@I$00@1@@Z ; glm::tvec3<unsigned int,0>::tvec3<unsigned int,0><1>
PUBLIC	??$?0$0A@@?$tvec4@I$01@glm@@QEAA@AEBU?$tvec4@I$0A@@1@@Z ; glm::tvec4<unsigned int,2>::tvec4<unsigned int,2><0>
PUBLIC	??$?0$0A@@?$tvec4@I$00@glm@@QEAA@AEBU?$tvec4@I$0A@@1@@Z ; glm::tvec4<unsigned int,1>::tvec4<unsigned int,1><0>
PUBLIC	??$?0$01@?$tvec4@I$0A@@glm@@QEAA@AEBU?$tvec4@I$01@1@@Z ; glm::tvec4<unsigned int,0>::tvec4<unsigned int,0><2>
PUBLIC	??$equal@I$0A@Utvec4@glm@@@glm@@YA?AU?$tvec4@_N$0A@@0@AEBU?$tvec4@I$0A@@0@0@Z ; glm::equal<unsigned int,0,glm::tvec4>
PUBLIC	??$?0$00@?$tvec4@I$0A@@glm@@QEAA@AEBU?$tvec4@I$00@1@@Z ; glm::tvec4<unsigned int,0>::tvec4<unsigned int,0><1>
PUBLIC	??$?0$0A@@?$tvec2@_K$01@glm@@QEAA@AEBU?$tvec2@_K$0A@@1@@Z ; glm::tvec2<unsigned __int64,2>::tvec2<unsigned __int64,2><0>
PUBLIC	??$?0$0A@@?$tvec2@_K$00@glm@@QEAA@AEBU?$tvec2@_K$0A@@1@@Z ; glm::tvec2<unsigned __int64,1>::tvec2<unsigned __int64,1><0>
PUBLIC	??$?0$01@?$tvec2@_K$0A@@glm@@QEAA@AEBU?$tvec2@_K$01@1@@Z ; glm::tvec2<unsigned __int64,0>::tvec2<unsigned __int64,0><2>
PUBLIC	??$equal@_K$0A@Utvec2@glm@@@glm@@YA?AU?$tvec2@_N$0A@@0@AEBU?$tvec2@_K$0A@@0@0@Z ; glm::equal<unsigned __int64,0,glm::tvec2>
PUBLIC	??$?0$00@?$tvec2@_K$0A@@glm@@QEAA@AEBU?$tvec2@_K$00@1@@Z ; glm::tvec2<unsigned __int64,0>::tvec2<unsigned __int64,0><1>
PUBLIC	??$?0$0A@@?$tvec3@_K$01@glm@@QEAA@AEBU?$tvec3@_K$0A@@1@@Z ; glm::tvec3<unsigned __int64,2>::tvec3<unsigned __int64,2><0>
PUBLIC	??$?0$0A@@?$tvec3@_K$00@glm@@QEAA@AEBU?$tvec3@_K$0A@@1@@Z ; glm::tvec3<unsigned __int64,1>::tvec3<unsigned __int64,1><0>
PUBLIC	??$?0$01@?$tvec3@_K$0A@@glm@@QEAA@AEBU?$tvec3@_K$01@1@@Z ; glm::tvec3<unsigned __int64,0>::tvec3<unsigned __int64,0><2>
PUBLIC	??$equal@_K$0A@Utvec3@glm@@@glm@@YA?AU?$tvec3@_N$0A@@0@AEBU?$tvec3@_K$0A@@0@0@Z ; glm::equal<unsigned __int64,0,glm::tvec3>
PUBLIC	??$?0$00@?$tvec3@_K$0A@@glm@@QEAA@AEBU?$tvec3@_K$00@1@@Z ; glm::tvec3<unsigned __int64,0>::tvec3<unsigned __int64,0><1>
PUBLIC	??$?0$0A@@?$tvec4@_K$01@glm@@QEAA@AEBU?$tvec4@_K$0A@@1@@Z ; glm::tvec4<unsigned __int64,2>::tvec4<unsigned __int64,2><0>
PUBLIC	??$?0$0A@@?$tvec4@_K$00@glm@@QEAA@AEBU?$tvec4@_K$0A@@1@@Z ; glm::tvec4<unsigned __int64,1>::tvec4<unsigned __int64,1><0>
PUBLIC	??$?0$01@?$tvec4@_K$0A@@glm@@QEAA@AEBU?$tvec4@_K$01@1@@Z ; glm::tvec4<unsigned __int64,0>::tvec4<unsigned __int64,0><2>
PUBLIC	??$equal@_K$0A@Utvec4@glm@@@glm@@YA?AU?$tvec4@_N$0A@@0@AEBU?$tvec4@_K$0A@@0@0@Z ; glm::equal<unsigned __int64,0,glm::tvec4>
PUBLIC	??$?0$00@?$tvec4@_K$0A@@glm@@QEAA@AEBU?$tvec4@_K$00@1@@Z ; glm::tvec4<unsigned __int64,0>::tvec4<unsigned __int64,0><1>
PUBLIC	?length@?$tquat@M$0A@@glm@@SAHXZ		; glm::tquat<float,0>::length
PUBLIC	??A?$tquat@M$0A@@glm@@QEBAAEBMH@Z		; glm::tquat<float,0>::operator[]
PUBLIC	??0?$tquat@M$0A@@glm@@QEAA@XZ			; glm::tquat<float,0>::tquat<float,0>
PUBLIC	??$?0$0A@@?$tquat@M$01@glm@@QEAA@AEBU?$tquat@M$0A@@1@@Z ; glm::tquat<float,2>::tquat<float,2><0>
PUBLIC	??$?0$0A@@?$tquat@M$00@glm@@QEAA@AEBU?$tquat@M$0A@@1@@Z ; glm::tquat<float,1>::tquat<float,1><0>
PUBLIC	??$?0$01@?$tquat@M$0A@@glm@@QEAA@AEBU?$tquat@M$01@1@@Z ; glm::tquat<float,0>::tquat<float,0><2>
PUBLIC	??$?0$00@?$tquat@M$0A@@glm@@QEAA@AEBU?$tquat@M$00@1@@Z ; glm::tquat<float,0>::tquat<float,0><1>
PUBLIC	??$equal@M$0A@@glm@@YA?AU?$tvec4@_N$0A@@0@AEBU?$tquat@M$0A@@0@0@Z ; glm::equal<float,0>
PUBLIC	??$?0HHHH@?$tvec4@M$0A@@glm@@QEAA@HHHH@Z	; glm::tvec4<float,0>::tvec4<float,0><int,int,int,int>
PUBLIC	??$?0$00@?$tvec4@M$01@glm@@QEAA@AEBU?$tvec4@M$00@1@@Z ; glm::tvec4<float,2>::tvec4<float,2><1>
PUBLIC	??$?0$01@?$tvec4@M$00@glm@@QEAA@AEBU?$tvec4@M$01@1@@Z ; glm::tvec4<float,1>::tvec4<float,1><2>
PUBLIC	??$?0M$00@?$tvec4@H$0A@@glm@@QEAA@AEBU?$tvec4@M$00@1@@Z ; glm::tvec4<int,0>::tvec4<int,0><float,1>
PUBLIC	??$?0H$01@?$tvec3@H$0A@@glm@@QEAA@AEBU?$tvec4@H$01@1@@Z ; glm::tvec3<int,0>::tvec3<int,0><int,2>
PUBLIC	??$equal@M$00Utvec4@glm@@@glm@@YA?AU?$tvec4@_N$00@0@AEBU?$tvec4@M$00@0@0@Z ; glm::equal<float,1,glm::tvec4>
PUBLIC	?length@?$tvec4@_N$00@glm@@SAHXZ		; glm::tvec4<bool,1>::length
PUBLIC	??A?$tvec4@_N$00@glm@@QEAAAEA_NH@Z		; glm::tvec4<bool,1>::operator[]
PUBLIC	??A?$tvec4@_N$00@glm@@QEBAAEB_NH@Z		; glm::tvec4<bool,1>::operator[]
PUBLIC	??0?$tvec4@_N$00@glm@@QEAA@W4ctor@1@@Z		; glm::tvec4<bool,1>::tvec4<bool,1>
PUBLIC	??$all@$00Utvec4@glm@@@glm@@YA_NAEBU?$tvec4@_N$00@0@@Z ; glm::all<1,glm::tvec4>
PUBLIC	??0?$allocator@U?$tvec3@E$0A@@glm@@@std@@QEAA@XZ ; std::allocator<glm::tvec3<unsigned char,0> >::allocator<glm::tvec3<unsigned char,0> >
PUBLIC	?deallocate@?$allocator@U?$tvec3@E$0A@@glm@@@std@@QEAAXQEAU?$tvec3@E$0A@@glm@@_K@Z ; std::allocator<glm::tvec3<unsigned char,0> >::deallocate
PUBLIC	?allocate@?$allocator@U?$tvec3@E$0A@@glm@@@std@@QEAAPEAU?$tvec3@E$0A@@glm@@_K@Z ; std::allocator<glm::tvec3<unsigned char,0> >::allocate
PUBLIC	?max_size@?$_Default_allocator_traits@V?$allocator@U?$tvec3@E$0A@@glm@@@std@@@std@@SA_KAEBV?$allocator@U?$tvec3@E$0A@@glm@@@2@@Z ; std::_Default_allocator_traits<std::allocator<glm::tvec3<unsigned char,0> > >::max_size
PUBLIC	??0?$vector@U?$tvec3@E$0A@@glm@@V?$allocator@U?$tvec3@E$0A@@glm@@@std@@@std@@QEAA@_KAEBV?$allocator@U?$tvec3@E$0A@@glm@@@1@@Z ; std::vector<glm::tvec3<unsigned char,0>,std::allocator<glm::tvec3<unsigned char,0> > >::vector<glm::tvec3<unsigned char,0>,std::allocator<glm::tvec3<unsigned char,0> > >
PUBLIC	??1?$vector@U?$tvec3@E$0A@@glm@@V?$allocator@U?$tvec3@E$0A@@glm@@@std@@@std@@QEAA@XZ ; std::vector<glm::tvec3<unsigned char,0>,std::allocator<glm::tvec3<unsigned char,0> > >::~vector<glm::tvec3<unsigned char,0>,std::allocator<glm::tvec3<unsigned char,0> > >
PUBLIC	?size@?$vector@U?$tvec3@E$0A@@glm@@V?$allocator@U?$tvec3@E$0A@@glm@@@std@@@std@@QEBA_KXZ ; std::vector<glm::tvec3<unsigned char,0>,std::allocator<glm::tvec3<unsigned char,0> > >::size
PUBLIC	?max_size@?$vector@U?$tvec3@E$0A@@glm@@V?$allocator@U?$tvec3@E$0A@@glm@@@std@@@std@@QEBA_KXZ ; std::vector<glm::tvec3<unsigned char,0>,std::allocator<glm::tvec3<unsigned char,0> > >::max_size
PUBLIC	??A?$vector@U?$tvec3@E$0A@@glm@@V?$allocator@U?$tvec3@E$0A@@glm@@@std@@@std@@QEAAAEAU?$tvec3@E$0A@@glm@@_K@Z ; std::vector<glm::tvec3<unsigned char,0>,std::allocator<glm::tvec3<unsigned char,0> > >::operator[]
PUBLIC	?_Buy_raw@?$vector@U?$tvec3@E$0A@@glm@@V?$allocator@U?$tvec3@E$0A@@glm@@@std@@@std@@AEAAX_K@Z ; std::vector<glm::tvec3<unsigned char,0>,std::allocator<glm::tvec3<unsigned char,0> > >::_Buy_raw
PUBLIC	?_Buy_nonzero@?$vector@U?$tvec3@E$0A@@glm@@V?$allocator@U?$tvec3@E$0A@@glm@@@std@@@std@@AEAAX_K@Z ; std::vector<glm::tvec3<unsigned char,0>,std::allocator<glm::tvec3<unsigned char,0> > >::_Buy_nonzero
PUBLIC	?_Tidy@?$vector@U?$tvec3@E$0A@@glm@@V?$allocator@U?$tvec3@E$0A@@glm@@@std@@@std@@AEAAXXZ ; std::vector<glm::tvec3<unsigned char,0>,std::allocator<glm::tvec3<unsigned char,0> > >::_Tidy
PUBLIC	?_Xlength@?$vector@U?$tvec3@E$0A@@glm@@V?$allocator@U?$tvec3@E$0A@@glm@@@std@@@std@@CAXXZ ; std::vector<glm::tvec3<unsigned char,0>,std::allocator<glm::tvec3<unsigned char,0> > >::_Xlength
PUBLIC	?_Getal@?$vector@U?$tvec3@E$0A@@glm@@V?$allocator@U?$tvec3@E$0A@@glm@@@std@@@std@@AEAAAEAV?$allocator@U?$tvec3@E$0A@@glm@@@2@XZ ; std::vector<glm::tvec3<unsigned char,0>,std::allocator<glm::tvec3<unsigned char,0> > >::_Getal
PUBLIC	?_Getal@?$vector@U?$tvec3@E$0A@@glm@@V?$allocator@U?$tvec3@E$0A@@glm@@@std@@@std@@AEBAAEBV?$allocator@U?$tvec3@E$0A@@glm@@@2@XZ ; std::vector<glm::tvec3<unsigned char,0>,std::allocator<glm::tvec3<unsigned char,0> > >::_Getal
PUBLIC	??0?$_Vector_val@U?$_Simple_types@U?$tvec3@E$0A@@glm@@@std@@@std@@QEAA@XZ ; std::_Vector_val<std::_Simple_types<glm::tvec3<unsigned char,0> > >::_Vector_val<std::_Simple_types<glm::tvec3<unsigned char,0> > >
PUBLIC	?_Get_first@?$_Compressed_pair@V?$allocator@U?$tvec3@E$0A@@glm@@@std@@V?$_Vector_val@U?$_Simple_types@U?$tvec3@E$0A@@glm@@@std@@@2@$00@std@@QEAAAEAV?$allocator@U?$tvec3@E$0A@@glm@@@2@XZ ; std::_Compressed_pair<std::allocator<glm::tvec3<unsigned char,0> >,std::_Vector_val<std::_Simple_types<glm::tvec3<unsigned char,0> > >,1>::_Get_first
PUBLIC	?_Get_first@?$_Compressed_pair@V?$allocator@U?$tvec3@E$0A@@glm@@@std@@V?$_Vector_val@U?$_Simple_types@U?$tvec3@E$0A@@glm@@@std@@@2@$00@std@@QEBAAEBV?$allocator@U?$tvec3@E$0A@@glm@@@2@XZ ; std::_Compressed_pair<std::allocator<glm::tvec3<unsigned char,0> >,std::_Vector_val<std::_Simple_types<glm::tvec3<unsigned char,0> > >,1>::_Get_first
PUBLIC	??$?0HHH@?$tvec3@E$0A@@glm@@QEAA@HHH@Z		; glm::tvec3<unsigned char,0>::tvec3<unsigned char,0><int,int,int>
PUBLIC	??$?HE$0A@@glm@@YA?AU?$tvec3@E$0A@@0@AEBU10@0@Z	; glm::operator+<unsigned char,0>
PUBLIC	main
PUBLIC	?allocate@?$allocator@U_Container_proxy@std@@@std@@QEAAPEAU_Container_proxy@2@_K@Z ; std::allocator<std::_Container_proxy>::allocate
PUBLIC	??$?0U?$tvec3@E$0A@@glm@@@?$allocator@U_Container_proxy@std@@@std@@QEAA@AEBV?$allocator@U?$tvec3@E$0A@@glm@@@1@@Z ; std::allocator<std::_Container_proxy>::allocator<std::_Container_proxy><glm::tvec3<unsigned char,0> >
PUBLIC	??$exchange@PEAU_Container_proxy@std@@$$T@std@@YAPEAU_Container_proxy@0@AEAPEAU10@$$QEA$$T@Z ; std::exchange<std::_Container_proxy *,std::nullptr_t>
PUBLIC	??$_Delete_plain_internal@V?$allocator@U_Container_proxy@std@@@std@@@std@@YAXAEAV?$allocator@U_Container_proxy@std@@@0@QEAU_Container_proxy@0@@Z ; std::_Delete_plain_internal<std::allocator<std::_Container_proxy> >
PUBLIC	??$?0AEBV?$allocator@U?$tvec3@E$0A@@glm@@@std@@$$V@?$_Compressed_pair@V?$allocator@U?$tvec3@E$0A@@glm@@@std@@V?$_Vector_val@U?$_Simple_types@U?$tvec3@E$0A@@glm@@@std@@@2@$00@std@@QEAA@U_One_then_variadic_args_t@1@AEBV?$allocator@U?$tvec3@E$0A@@glm@@@1@@Z ; std::_Compressed_pair<std::allocator<glm::tvec3<unsigned char,0> >,std::_Vector_val<std::_Simple_types<glm::tvec3<unsigned char,0> > >,1>::_Compressed_pair<std::allocator<glm::tvec3<unsigned char,0> >,std::_Vector_val<std::_Simple_types<glm::tvec3<unsigned char,0> > >,1><std::allocator<glm::tvec3<unsigned char,0> > const &>
PUBLIC	??$_Construct_n@$$V@?$vector@U?$tvec3@E$0A@@glm@@V?$allocator@U?$tvec3@E$0A@@glm@@@std@@@std@@AEAAX_K@Z ; std::vector<glm::tvec3<unsigned char,0>,std::allocator<glm::tvec3<unsigned char,0> > >::_Construct_n<>
PUBLIC	??$_Destroy_range@V?$allocator@U?$tvec3@E$0A@@glm@@@std@@@std@@YAXPEAU?$tvec3@E$0A@@glm@@QEAU12@AEAV?$allocator@U?$tvec3@E$0A@@glm@@@0@@Z ; std::_Destroy_range<std::allocator<glm::tvec3<unsigned char,0> > >
PUBLIC	??$_Deallocate@$0BA@$0A@@std@@YAXPEAX_K@Z	; std::_Deallocate<16,0>
PUBLIC	??$_Deallocate_plain@V?$allocator@U_Container_proxy@std@@@std@@@std@@YAXAEAV?$allocator@U_Container_proxy@std@@@0@QEAU_Container_proxy@0@@Z ; std::_Deallocate_plain<std::allocator<std::_Container_proxy> >
PUBLIC	??$forward@AEBV?$allocator@U?$tvec3@E$0A@@glm@@@std@@@std@@YAAEBV?$allocator@U?$tvec3@E$0A@@glm@@@0@AEBV10@@Z ; std::forward<std::allocator<glm::tvec3<unsigned char,0> > const &>
PUBLIC	??0?$_Container_proxy_ptr12@V?$allocator@U_Container_proxy@std@@@std@@@std@@QEAA@AEAV?$allocator@U_Container_proxy@std@@@1@AEAU_Container_base12@1@@Z ; std::_Container_proxy_ptr12<std::allocator<std::_Container_proxy> >::_Container_proxy_ptr12<std::allocator<std::_Container_proxy> >
PUBLIC	??1?$_Container_proxy_ptr12@V?$allocator@U_Container_proxy@std@@@std@@@std@@QEAA@XZ ; std::_Container_proxy_ptr12<std::allocator<std::_Container_proxy> >::~_Container_proxy_ptr12<std::allocator<std::_Container_proxy> >
PUBLIC	??1?$_Tidy_guard@V?$vector@U?$tvec3@E$0A@@glm@@V?$allocator@U?$tvec3@E$0A@@glm@@@std@@@std@@@std@@QEAA@XZ ; std::_Tidy_guard<std::vector<glm::tvec3<unsigned char,0>,std::allocator<glm::tvec3<unsigned char,0> > > >::~_Tidy_guard<std::vector<glm::tvec3<unsigned char,0>,std::allocator<glm::tvec3<unsigned char,0> > > >
PUBLIC	??$_Uninitialized_value_construct_n@V?$allocator@U?$tvec3@E$0A@@glm@@@std@@@std@@YAPEAU?$tvec3@E$0A@@glm@@PEAU12@_KAEAV?$allocator@U?$tvec3@E$0A@@glm@@@0@@Z ; std::_Uninitialized_value_construct_n<std::allocator<glm::tvec3<unsigned char,0> > >
PUBLIC	??$_Unfancy@U_Container_proxy@std@@@std@@YAPEAU_Container_proxy@0@PEAU10@@Z ; std::_Unfancy<std::_Container_proxy>
PUBLIC	??$addressof@U_Container_base12@std@@@std@@YAPEAU_Container_base12@0@AEAU10@@Z ; std::addressof<std::_Container_base12>
PUBLIC	??$_Construct_in_place@U_Container_proxy@std@@PEAU_Container_base12@2@@std@@YAXAEAU_Container_proxy@0@$$QEAPEAU_Container_base12@0@@Z ; std::_Construct_in_place<std::_Container_proxy,std::_Container_base12 *>
PUBLIC	??$_Get_size_of_n@$0BA@@std@@YA_K_K@Z		; std::_Get_size_of_n<16>
PUBLIC	??$_Allocate@$0BA@U_Default_allocate_traits@std@@$0A@@std@@YAPEAX_K@Z ; std::_Allocate<16,std::_Default_allocate_traits,0>
PUBLIC	??$min@_K@std@@YAAEB_KAEB_K0@Z			; std::min<unsigned __int64>
PUBLIC	??$_Get_size_of_n@$02@std@@YA_K_K@Z		; std::_Get_size_of_n<3>
PUBLIC	?deallocate@?$_Default_allocator_traits@V?$allocator@U_Container_proxy@std@@@std@@@std@@SAXAEAV?$allocator@U_Container_proxy@std@@@2@QEAU_Container_proxy@2@_K@Z ; std::_Default_allocator_traits<std::allocator<std::_Container_proxy> >::deallocate
PUBLIC	??0?$_Uninitialized_backout_al@V?$allocator@U?$tvec3@E$0A@@glm@@@std@@@std@@QEAA@PEAU?$tvec3@E$0A@@glm@@AEAV?$allocator@U?$tvec3@E$0A@@glm@@@1@@Z ; std::_Uninitialized_backout_al<std::allocator<glm::tvec3<unsigned char,0> > >::_Uninitialized_backout_al<std::allocator<glm::tvec3<unsigned char,0> > >
PUBLIC	??1?$_Uninitialized_backout_al@V?$allocator@U?$tvec3@E$0A@@glm@@@std@@@std@@QEAA@XZ ; std::_Uninitialized_backout_al<std::allocator<glm::tvec3<unsigned char,0> > >::~_Uninitialized_backout_al<std::allocator<glm::tvec3<unsigned char,0> > >
PUBLIC	?_Release@?$_Uninitialized_backout_al@V?$allocator@U?$tvec3@E$0A@@glm@@@std@@@std@@QEAAPEAU?$tvec3@E$0A@@glm@@XZ ; std::_Uninitialized_backout_al<std::allocator<glm::tvec3<unsigned char,0> > >::_Release
PUBLIC	??$_Emplace_back@$$V@?$_Uninitialized_backout_al@V?$allocator@U?$tvec3@E$0A@@glm@@@std@@@std@@QEAAXXZ ; std::_Uninitialized_backout_al<std::allocator<glm::tvec3<unsigned char,0> > >::_Emplace_back<>
PUBLIC	??$addressof@U_Container_proxy@std@@@std@@YAPEAU_Container_proxy@0@AEAU10@@Z ; std::addressof<std::_Container_proxy>
PUBLIC	??$_Voidify_iter@PEAU_Container_proxy@std@@@std@@YAPEAXPEAU_Container_proxy@0@@Z ; std::_Voidify_iter<std::_Container_proxy *>
PUBLIC	??$forward@PEAU_Container_base12@std@@@std@@YA$$QEAPEAU_Container_base12@0@AEAPEAU10@@Z ; std::forward<std::_Container_base12 *>
PUBLIC	??$_Allocate_manually_vector_aligned@U_Default_allocate_traits@std@@@std@@YAPEAX_K@Z ; std::_Allocate_manually_vector_aligned<std::_Default_allocate_traits>
PUBLIC	??$_Unfancy@U?$tvec3@E$0A@@glm@@@std@@YAPEAU?$tvec3@E$0A@@glm@@PEAU12@@Z ; std::_Unfancy<glm::tvec3<unsigned char,0> >
PUBLIC	??$construct@U?$tvec3@E$0A@@glm@@$$V@?$_Default_allocator_traits@V?$allocator@U?$tvec3@E$0A@@glm@@@std@@@std@@SAXAEAV?$allocator@U?$tvec3@E$0A@@glm@@@1@QEAU?$tvec3@E$0A@@glm@@@Z ; std::_Default_allocator_traits<std::allocator<glm::tvec3<unsigned char,0> > >::construct<glm::tvec3<unsigned char,0> >
PUBLIC	??$_Voidify_iter@PEAU?$tvec3@E$0A@@glm@@@std@@YAPEAXPEAU?$tvec3@E$0A@@glm@@@Z ; std::_Voidify_iter<glm::tvec3<unsigned char,0> *>
PUBLIC	??_7exception@std@@6B@				; std::exception::`vftable'
PUBLIC	??_C@_0BC@EOODALEL@Unknown?5exception@		; `string'
PUBLIC	??_7bad_alloc@std@@6B@				; std::bad_alloc::`vftable'
PUBLIC	??_7bad_array_new_length@std@@6B@		; std::bad_array_new_length::`vftable'
PUBLIC	??_C@_0BF@KINCDENJ@bad?5array?5new?5length@	; `string'
PUBLIC	_TI3?AVbad_array_new_length@std@@
PUBLIC	_CTA3?AVbad_array_new_length@std@@
PUBLIC	??_R0?AVbad_array_new_length@std@@@8		; std::bad_array_new_length `RTTI Type Descriptor'
PUBLIC	_CT??_R0?AVbad_array_new_length@std@@@8??0bad_array_new_length@std@@QEAA@AEBV01@@Z24
PUBLIC	??_R0?AVbad_alloc@std@@@8			; std::bad_alloc `RTTI Type Descriptor'
PUBLIC	_CT??_R0?AVbad_alloc@std@@@8??0bad_alloc@std@@QEAA@AEBV01@@Z24
PUBLIC	??_R0?AVexception@std@@@8			; std::exception `RTTI Type Descriptor'
PUBLIC	_CT??_R0?AVexception@std@@@8??0exception@std@@QEAA@AEBV01@@Z24
PUBLIC	??_C@_0BB@FCMFBGOM@invalid?5argument@		; `string'
PUBLIC	??_C@_02DKCKIIND@?$CFs@				; `string'
PUBLIC	??_C@_0GC@DJFHHHKN@C?3?2Program?5Files?2Microsoft?5Visu@ ; `string'
PUBLIC	??_C@_1ME@GEFGDEOM@?$AAC?$AA?3?$AA?2?$AAP?$AAr?$AAo?$AAg?$AAr?$AAa?$AAm?$AA?5?$AAF?$AAi?$AAl?$AAe@ ; `string'
PUBLIC	??_C@_11LOCGONAA@@				; `string'
PUBLIC	??_C@_1CG@JNLFBNGN@?$AA?$CC?$AAi?$AAn?$AAv?$AAa?$AAl?$AAi?$AAd?$AA?5?$AAa?$AAr?$AAg?$AAu?$AAm?$AAe@ ; `string'
PUBLIC	??_C@_0BO@PFKOHNJC@vector?5subscript?5out?5of?5range@ ; `string'
PUBLIC	??_C@_0GB@GDCALCPO@C?3?2Program?5Files?2Microsoft?5Visu@ ; `string'
PUBLIC	??_C@_1MC@BJDJHFOD@?$AAC?$AA?3?$AA?2?$AAP?$AAr?$AAo?$AAg?$AAr?$AAa?$AAm?$AA?5?$AAF?$AAi?$AAl?$AAe@ ; `string'
PUBLIC	??_C@_1EA@LEKOKFNB@?$AA?$CC?$AAv?$AAe?$AAc?$AAt?$AAo?$AAr?$AA?5?$AAs?$AAu?$AAb?$AAs?$AAc?$AAr?$AAi@ ; `string'
PUBLIC	??_C@_0DG@KGHKKGBC@null?5pointer?5cannot?5point?5to?5a?5@ ; `string'
PUBLIC	??_C@_1HA@FACCKGGH@?$AA?$CC?$AAn?$AAu?$AAl?$AAl?$AA?5?$AAp?$AAo?$AAi?$AAn?$AAt?$AAe?$AAr?$AA?5?$AAc@ ; `string'
PUBLIC	??_C@_1LG@FPDAFGJN@?$AAC?$AA?3?$AA?2?$AAU?$AAs?$AAe?$AAr?$AAs?$AA?2?$AAk?$AAs?$AAa?$AAr?$AAt?$AA?2@ ; `string'
PUBLIC	??_C@_1DK@BGNCJAPL@?$AAi?$AA?5?$AA?$DO?$AA?$DN?$AA?5?$AA0?$AA?5?$AA?$CG?$AA?$CG?$AA?5?$AAi?$AA?5?$AA?$DM?$AA?5?$AAt@ ; `string'
PUBLIC	??_C@_1LG@LAANPDHN@?$AAC?$AA?3?$AA?2?$AAU?$AAs?$AAe?$AAr?$AAs?$AA?2?$AAk?$AAs?$AAa?$AAr?$AAt?$AA?2@ ; `string'
PUBLIC	??_C@_1NA@OPABFNEN@?$AAC?$AA?3?$AA?2?$AAU?$AAs?$AAe?$AAr?$AAs?$AA?2?$AAk?$AAs?$AAa?$AAr?$AAt?$AA?2@ ; `string'
PUBLIC	??_C@_1DC@HHLCGOLC@?$AAx?$AA?4?$AAl?$AAe?$AAn?$AAg?$AAt?$AAh?$AA?$CI?$AA?$CJ?$AA?5?$AA?$DN?$AA?$DN?$AA?5?$AAy@ ; `string'
PUBLIC	??_C@_0BA@FOIKENOD@vector?5too?5long@		; `string'
PUBLIC	??_C@_1LG@MEJFBKPC@?$AAC?$AA?3?$AA?2?$AAU?$AAs?$AAe?$AAr?$AAs?$AA?2?$AAk?$AAs?$AAa?$AAr?$AAt?$AA?2@ ; `string'
PUBLIC	??_C@_1LC@KEKMINFC@?$AAC?$AA?3?$AA?2?$AAU?$AAs?$AAe?$AAr?$AAs?$AA?2?$AAk?$AAs?$AAa?$AAr?$AAt?$AA?2@ ; `string'
PUBLIC	??_R4exception@std@@6B@				; std::exception::`RTTI Complete Object Locator'
PUBLIC	??_R3exception@std@@8				; std::exception::`RTTI Class Hierarchy Descriptor'
PUBLIC	??_R2exception@std@@8				; std::exception::`RTTI Base Class Array'
PUBLIC	??_R1A@?0A@EA@exception@std@@8			; std::exception::`RTTI Base Class Descriptor at (0,-1,0,64)'
PUBLIC	??_R4bad_alloc@std@@6B@				; std::bad_alloc::`RTTI Complete Object Locator'
PUBLIC	??_R3bad_alloc@std@@8				; std::bad_alloc::`RTTI Class Hierarchy Descriptor'
PUBLIC	??_R2bad_alloc@std@@8				; std::bad_alloc::`RTTI Base Class Array'
PUBLIC	??_R1A@?0A@EA@bad_alloc@std@@8			; std::bad_alloc::`RTTI Base Class Descriptor at (0,-1,0,64)'
PUBLIC	??_R4bad_array_new_length@std@@6B@		; std::bad_array_new_length::`RTTI Complete Object Locator'
PUBLIC	??_R3bad_array_new_length@std@@8		; std::bad_array_new_length::`RTTI Class Hierarchy Descriptor'
PUBLIC	??_R2bad_array_new_length@std@@8		; std::bad_array_new_length::`RTTI Base Class Array'
PUBLIC	??_R1A@?0A@EA@bad_array_new_length@std@@8	; std::bad_array_new_length::`RTTI Base Class Descriptor at (0,-1,0,64)'
PUBLIC	__real@3f800000
EXTRN	??2@YAPEAX_K@Z:PROC				; operator new
EXTRN	??3@YAXPEAX_K@Z:PROC				; operator delete
EXTRN	__imp__invalid_parameter:PROC
EXTRN	__imp__wassert:PROC
EXTRN	__imp__CrtDbgReport:PROC
EXTRN	__imp_??0_Lockit@std@@QEAA@H@Z:PROC
EXTRN	__imp_??1_Lockit@std@@QEAA@XZ:PROC
EXTRN	__std_exception_copy:PROC
EXTRN	__std_exception_destroy:PROC
EXTRN	??_Eexception@std@@UEAAPEAXI@Z:PROC		; std::exception::`vector deleting destructor'
EXTRN	??_Ebad_alloc@std@@UEAAPEAXI@Z:PROC		; std::bad_alloc::`vector deleting destructor'
EXTRN	??_Ebad_array_new_length@std@@UEAAPEAXI@Z:PROC	; std::bad_array_new_length::`vector deleting destructor'
EXTRN	?_Xlength_error@std@@YAXPEBD@Z:PROC		; std::_Xlength_error
EXTRN	_CxxThrowException:PROC
EXTRN	_RTC_CheckStackVars:PROC
EXTRN	_RTC_InitBase:PROC
EXTRN	_RTC_Shutdown:PROC
EXTRN	__CxxFrameHandler4:PROC
EXTRN	??_7type_info@@6B@:BYTE				; type_info::`vftable'
EXTRN	_fltused:DWORD
;	COMDAT pdata
pdata	SEGMENT
$pdata$?max@?$numeric_limits@_J@std@@SA_JXZ DD imagerel $LN3
	DD	imagerel $LN3+14
	DD	imagerel $unwind$?max@?$numeric_limits@_J@std@@SA_JXZ
pdata	ENDS
;	COMDAT pdata
pdata	SEGMENT
$pdata$??2@YAPEAX_KPEAX@Z DD imagerel $LN3
	DD	imagerel $LN3+18
	DD	imagerel $unwind$??2@YAPEAX_KPEAX@Z
pdata	ENDS
;	COMDAT pdata
pdata	SEGMENT
$pdata$?length@?$tvec2@M$0A@@glm@@SAHXZ DD imagerel $LN3
	DD	imagerel $LN3+9
	DD	imagerel $unwind$?length@?$tvec2@M$0A@@glm@@SAHXZ
pdata	ENDS
;	COMDAT pdata
pdata	SEGMENT
$pdata$??A?$tvec2@M$0A@@glm@@QEBAAEBMH@Z DD imagerel $LN5
	DD	imagerel $LN5+80
	DD	imagerel $unwind$??A?$tvec2@M$0A@@glm@@QEBAAEBMH@Z
pdata	ENDS
;	COMDAT pdata
pdata	SEGMENT
$pdata$??0?$tvec2@M$0A@@glm@@QEAA@XZ DD imagerel $LN3
	DD	imagerel $LN3+38
	DD	imagerel $unwind$??0?$tvec2@M$0A@@glm@@QEAA@XZ
pdata	ENDS
;	COMDAT pdata
pdata	SEGMENT
$pdata$?length@?$tvec2@G$0A@@glm@@SAHXZ DD imagerel $LN3
	DD	imagerel $LN3+9
	DD	imagerel $unwind$?length@?$tvec2@G$0A@@glm@@SAHXZ
pdata	ENDS
;	COMDAT pdata
pdata	SEGMENT
$pdata$??A?$tvec2@G$0A@@glm@@QEBAAEBGH@Z DD imagerel $LN5
	DD	imagerel $LN5+80
	DD	imagerel $unwind$??A?$tvec2@G$0A@@glm@@QEBAAEBGH@Z
pdata	ENDS
;	COMDAT pdata
pdata	SEGMENT
$pdata$??0?$tvec2@G$0A@@glm@@QEAA@XZ DD imagerel $LN3
	DD	imagerel $LN3+34
	DD	imagerel $unwind$??0?$tvec2@G$0A@@glm@@QEAA@XZ
pdata	ENDS
;	COMDAT pdata
pdata	SEGMENT
$pdata$?length@?$tvec2@F$0A@@glm@@SAHXZ DD imagerel $LN3
	DD	imagerel $LN3+9
	DD	imagerel $unwind$?length@?$tvec2@F$0A@@glm@@SAHXZ
pdata	ENDS
;	COMDAT pdata
pdata	SEGMENT
$pdata$??A?$tvec2@F$0A@@glm@@QEBAAEBFH@Z DD imagerel $LN5
	DD	imagerel $LN5+80
	DD	imagerel $unwind$??A?$tvec2@F$0A@@glm@@QEBAAEBFH@Z
pdata	ENDS
;	COMDAT pdata
pdata	SEGMENT
$pdata$??0?$tvec2@F$0A@@glm@@QEAA@XZ DD imagerel $LN3
	DD	imagerel $LN3+34
	DD	imagerel $unwind$??0?$tvec2@F$0A@@glm@@QEAA@XZ
pdata	ENDS
;	COMDAT pdata
pdata	SEGMENT
$pdata$?length@?$tvec4@M$0A@@glm@@SAHXZ DD imagerel $LN3
	DD	imagerel $LN3+9
	DD	imagerel $unwind$?length@?$tvec4@M$0A@@glm@@SAHXZ
pdata	ENDS
;	COMDAT pdata
pdata	SEGMENT
$pdata$??A?$tvec4@M$0A@@glm@@QEBAAEBMH@Z DD imagerel $LN5
	DD	imagerel $LN5+80
	DD	imagerel $unwind$??A?$tvec4@M$0A@@glm@@QEBAAEBMH@Z
pdata	ENDS
;	COMDAT pdata
pdata	SEGMENT
$pdata$??0?$tvec4@M$0A@@glm@@QEAA@XZ DD imagerel $LN3
	DD	imagerel $LN3+64
	DD	imagerel $unwind$??0?$tvec4@M$0A@@glm@@QEAA@XZ
pdata	ENDS
;	COMDAT pdata
pdata	SEGMENT
$pdata$?length@?$tvec4@E$0A@@glm@@SAHXZ DD imagerel $LN3
	DD	imagerel $LN3+9
	DD	imagerel $unwind$?length@?$tvec4@E$0A@@glm@@SAHXZ
pdata	ENDS
;	COMDAT pdata
pdata	SEGMENT
$pdata$??A?$tvec4@E$0A@@glm@@QEBAAEBEH@Z DD imagerel $LN5
	DD	imagerel $LN5+82
	DD	imagerel $unwind$??A?$tvec4@E$0A@@glm@@QEBAAEBEH@Z
pdata	ENDS
;	COMDAT pdata
pdata	SEGMENT
$pdata$??0?$tvec4@E$0A@@glm@@QEAA@XZ DD imagerel $LN3
	DD	imagerel $LN3+48
	DD	imagerel $unwind$??0?$tvec4@E$0A@@glm@@QEAA@XZ
pdata	ENDS
;	COMDAT pdata
pdata	SEGMENT
$pdata$?length@?$tvec4@C$0A@@glm@@SAHXZ DD imagerel $LN3
	DD	imagerel $LN3+9
	DD	imagerel $unwind$?length@?$tvec4@C$0A@@glm@@SAHXZ
pdata	ENDS
;	COMDAT pdata
pdata	SEGMENT
$pdata$??A?$tvec4@C$0A@@glm@@QEBAAEBCH@Z DD imagerel $LN5
	DD	imagerel $LN5+82
	DD	imagerel $unwind$??A?$tvec4@C$0A@@glm@@QEBAAEBCH@Z
pdata	ENDS
;	COMDAT pdata
pdata	SEGMENT
$pdata$??0?$tvec4@C$0A@@glm@@QEAA@XZ DD imagerel $LN3
	DD	imagerel $LN3+48
	DD	imagerel $unwind$??0?$tvec4@C$0A@@glm@@QEAA@XZ
pdata	ENDS
;	COMDAT pdata
pdata	SEGMENT
$pdata$?length@?$tvec2@I$0A@@glm@@SAHXZ DD imagerel $LN3
	DD	imagerel $LN3+9
	DD	imagerel $unwind$?length@?$tvec2@I$0A@@glm@@SAHXZ
pdata	ENDS
;	COMDAT pdata
pdata	SEGMENT
$pdata$??A?$tvec2@I$0A@@glm@@QEBAAEBIH@Z DD imagerel $LN5
	DD	imagerel $LN5+80
	DD	imagerel $unwind$??A?$tvec2@I$0A@@glm@@QEBAAEBIH@Z
pdata	ENDS
;	COMDAT pdata
pdata	SEGMENT
$pdata$??0?$tvec2@I$0A@@glm@@QEAA@XZ DD imagerel $LN3
	DD	imagerel $LN3+36
	DD	imagerel $unwind$??0?$tvec2@I$0A@@glm@@QEAA@XZ
pdata	ENDS
;	COMDAT pdata
pdata	SEGMENT
$pdata$??0exception@std@@QEAA@QEBDH@Z DD imagerel $LN3
	DD	imagerel $LN3+73
	DD	imagerel $unwind$??0exception@std@@QEAA@QEBDH@Z
pdata	ENDS
;	COMDAT pdata
pdata	SEGMENT
$pdata$??0exception@std@@QEAA@AEBV01@@Z DD imagerel $LN3
	DD	imagerel $LN3+88
	DD	imagerel $unwind$??0exception@std@@QEAA@AEBV01@@Z
pdata	ENDS
;	COMDAT pdata
pdata	SEGMENT
$pdata$??1exception@std@@UEAA@XZ DD imagerel $LN3
	DD	imagerel $LN3+48
	DD	imagerel $unwind$??1exception@std@@UEAA@XZ
pdata	ENDS
;	COMDAT pdata
pdata	SEGMENT
$pdata$?what@exception@std@@UEBAPEBDXZ DD imagerel $LN5
	DD	imagerel $LN5+58
	DD	imagerel $unwind$?what@exception@std@@UEBAPEBDXZ
pdata	ENDS
;	COMDAT pdata
pdata	SEGMENT
$pdata$??_Gexception@std@@UEAAPEAXI@Z DD imagerel $LN4
	DD	imagerel $LN4+61
	DD	imagerel $unwind$??_Gexception@std@@UEAAPEAXI@Z
pdata	ENDS
;	COMDAT pdata
pdata	SEGMENT
$pdata$??0bad_alloc@std@@AEAA@QEBD@Z DD imagerel $LN3
	DD	imagerel $LN3+62
	DD	imagerel $unwind$??0bad_alloc@std@@AEAA@QEBD@Z
pdata	ENDS
;	COMDAT pdata
pdata	SEGMENT
$pdata$??1bad_alloc@std@@UEAA@XZ DD imagerel $LN3
	DD	imagerel $LN3+26
	DD	imagerel $unwind$??1bad_alloc@std@@UEAA@XZ
pdata	ENDS
;	COMDAT pdata
pdata	SEGMENT
$pdata$??0bad_alloc@std@@QEAA@AEBV01@@Z DD imagerel $LN3
	DD	imagerel $LN3+56
	DD	imagerel $unwind$??0bad_alloc@std@@QEAA@AEBV01@@Z
pdata	ENDS
;	COMDAT pdata
pdata	SEGMENT
$pdata$??_Gbad_alloc@std@@UEAAPEAXI@Z DD imagerel $LN4
	DD	imagerel $LN4+61
	DD	imagerel $unwind$??_Gbad_alloc@std@@UEAAPEAXI@Z
pdata	ENDS
;	COMDAT pdata
pdata	SEGMENT
$pdata$??0bad_array_new_length@std@@QEAA@XZ DD imagerel $LN3
	DD	imagerel $LN3+53
	DD	imagerel $unwind$??0bad_array_new_length@std@@QEAA@XZ
pdata	ENDS
;	COMDAT pdata
pdata	SEGMENT
$pdata$??1bad_array_new_length@std@@UEAA@XZ DD imagerel $LN3
	DD	imagerel $LN3+26
	DD	imagerel $unwind$??1bad_array_new_length@std@@UEAA@XZ
pdata	ENDS
;	COMDAT pdata
pdata	SEGMENT
$pdata$??0bad_array_new_length@std@@QEAA@AEBV01@@Z DD imagerel $LN3
	DD	imagerel $LN3+56
	DD	imagerel $unwind$??0bad_array_new_length@std@@QEAA@AEBV01@@Z
pdata	ENDS
;	COMDAT pdata
pdata	SEGMENT
$pdata$??_Gbad_array_new_length@std@@UEAAPEAXI@Z DD imagerel $LN4
	DD	imagerel $LN4+61
	DD	imagerel $unwind$??_Gbad_array_new_length@std@@UEAAPEAXI@Z
pdata	ENDS
;	COMDAT pdata
pdata	SEGMENT
$pdata$?_Throw_bad_array_new_length@std@@YAXXZ DD imagerel $LN3
	DD	imagerel $LN3+39
	DD	imagerel $unwind$?_Throw_bad_array_new_length@std@@YAXXZ
pdata	ENDS
;	COMDAT pdata
pdata	SEGMENT
$pdata$?_Allocate@_Default_allocate_traits@std@@SAPEAX_K@Z DD imagerel $LN3
	DD	imagerel $LN3+26
	DD	imagerel $unwind$?_Allocate@_Default_allocate_traits@std@@SAPEAX_K@Z
pdata	ENDS
;	COMDAT pdata
pdata	SEGMENT
$pdata$?_Adjust_manually_vector_aligned@std@@YAXAEAPEAXAEA_K@Z DD imagerel $LN21
	DD	imagerel $LN21+404
	DD	imagerel $unwind$?_Adjust_manually_vector_aligned@std@@YAXAEAPEAXAEA_K@Z
pdata	ENDS
;	COMDAT pdata
pdata	SEGMENT
$pdata$??0_Container_proxy@std@@QEAA@PEAU_Container_base12@1@@Z DD imagerel $LN3
	DD	imagerel $LN3+44
	DD	imagerel $unwind$??0_Container_proxy@std@@QEAA@PEAU_Container_base12@1@@Z
pdata	ENDS
;	COMDAT pdata
pdata	SEGMENT
$pdata$??0_Container_base12@std@@QEAA@XZ DD imagerel $LN3
	DD	imagerel $LN3+25
	DD	imagerel $unwind$??0_Container_base12@std@@QEAA@XZ
pdata	ENDS
;	COMDAT pdata
pdata	SEGMENT
$pdata$?_Orphan_all@_Container_base12@std@@QEAAXXZ DD imagerel $LN3
	DD	imagerel $LN3+26
	DD	imagerel $unwind$?_Orphan_all@_Container_base12@std@@QEAAXXZ
pdata	ENDS
;	COMDAT pdata
pdata	SEGMENT
$pdata$?_Orphan_all_unlocked_v3@_Container_base12@std@@AEAAXXZ DD imagerel $LN7
	DD	imagerel $LN7+107
	DD	imagerel $unwind$?_Orphan_all_unlocked_v3@_Container_base12@std@@AEAAXXZ
pdata	ENDS
;	COMDAT pdata
pdata	SEGMENT
$pdata$?_Orphan_all_locked_v3@_Container_base12@std@@AEAAXXZ DD imagerel $LN3
	DD	imagerel $LN3+90
	DD	imagerel $unwind$?_Orphan_all_locked_v3@_Container_base12@std@@AEAAXXZ
pdata	ENDS
;	COMDAT pdata
pdata	SEGMENT
$pdata$?_Release@_Basic_container_proxy_ptr12@std@@QEAAXXZ DD imagerel $LN3
	DD	imagerel $LN3+20
	DD	imagerel $unwind$?_Release@_Basic_container_proxy_ptr12@std@@QEAAXXZ
pdata	ENDS
;	COMDAT pdata
pdata	SEGMENT
$pdata$??0_Basic_container_proxy_ptr12@std@@IEAA@XZ DD imagerel $LN3
	DD	imagerel $LN3+25
	DD	imagerel $unwind$??0_Basic_container_proxy_ptr12@std@@IEAA@XZ
pdata	ENDS
pdata	SEGMENT
$pdata$?test_scalar_size@@YAHXZ DD imagerel ?test_scalar_size@@YAHXZ
	DD	imagerel ?test_scalar_size@@YAHXZ+262
	DD	imagerel $unwind$?test_scalar_size@@YAHXZ
$pdata$?test_fvec_size@@YAHXZ DD imagerel ?test_fvec_size@@YAHXZ
	DD	imagerel ?test_fvec_size@@YAHXZ+166
	DD	imagerel $unwind$?test_fvec_size@@YAHXZ
pdata	ENDS
;	COMDAT pdata
pdata	SEGMENT
$pdata$?length@?$tvec3@M$0A@@glm@@SAHXZ DD imagerel $LN3
	DD	imagerel $LN3+9
	DD	imagerel $unwind$?length@?$tvec3@M$0A@@glm@@SAHXZ
pdata	ENDS
;	COMDAT pdata
pdata	SEGMENT
$pdata$??A?$tvec3@M$0A@@glm@@QEBAAEBMH@Z DD imagerel $LN5
	DD	imagerel $LN5+80
	DD	imagerel $unwind$??A?$tvec3@M$0A@@glm@@QEBAAEBMH@Z
pdata	ENDS
;	COMDAT pdata
pdata	SEGMENT
$pdata$??0?$tvec3@M$0A@@glm@@QEAA@XZ DD imagerel $LN3
	DD	imagerel $LN3+51
	DD	imagerel $unwind$??0?$tvec3@M$0A@@glm@@QEAA@XZ
pdata	ENDS
;	COMDAT pdata
pdata	SEGMENT
$pdata$?length@?$tvec2@N$0A@@glm@@SAHXZ DD imagerel $LN3
	DD	imagerel $LN3+9
	DD	imagerel $unwind$?length@?$tvec2@N$0A@@glm@@SAHXZ
pdata	ENDS
;	COMDAT pdata
pdata	SEGMENT
$pdata$??A?$tvec2@N$0A@@glm@@QEBAAEBNH@Z DD imagerel $LN5
	DD	imagerel $LN5+80
	DD	imagerel $unwind$??A?$tvec2@N$0A@@glm@@QEBAAEBNH@Z
pdata	ENDS
;	COMDAT pdata
pdata	SEGMENT
$pdata$??0?$tvec2@N$0A@@glm@@QEAA@XZ DD imagerel $LN3
	DD	imagerel $LN3+38
	DD	imagerel $unwind$??0?$tvec2@N$0A@@glm@@QEAA@XZ
pdata	ENDS
;	COMDAT pdata
pdata	SEGMENT
$pdata$?length@?$tvec3@N$0A@@glm@@SAHXZ DD imagerel $LN3
	DD	imagerel $LN3+9
	DD	imagerel $unwind$?length@?$tvec3@N$0A@@glm@@SAHXZ
pdata	ENDS
;	COMDAT pdata
pdata	SEGMENT
$pdata$??A?$tvec3@N$0A@@glm@@QEBAAEBNH@Z DD imagerel $LN5
	DD	imagerel $LN5+80
	DD	imagerel $unwind$??A?$tvec3@N$0A@@glm@@QEBAAEBNH@Z
pdata	ENDS
;	COMDAT pdata
pdata	SEGMENT
$pdata$??0?$tvec3@N$0A@@glm@@QEAA@XZ DD imagerel $LN3
	DD	imagerel $LN3+51
	DD	imagerel $unwind$??0?$tvec3@N$0A@@glm@@QEAA@XZ
pdata	ENDS
;	COMDAT pdata
pdata	SEGMENT
$pdata$?length@?$tvec4@N$0A@@glm@@SAHXZ DD imagerel $LN3
	DD	imagerel $LN3+9
	DD	imagerel $unwind$?length@?$tvec4@N$0A@@glm@@SAHXZ
pdata	ENDS
;	COMDAT pdata
pdata	SEGMENT
$pdata$??A?$tvec4@N$0A@@glm@@QEBAAEBNH@Z DD imagerel $LN5
	DD	imagerel $LN5+80
	DD	imagerel $unwind$??A?$tvec4@N$0A@@glm@@QEBAAEBNH@Z
pdata	ENDS
;	COMDAT pdata
pdata	SEGMENT
$pdata$??0?$tvec4@N$0A@@glm@@QEAA@XZ DD imagerel $LN3
	DD	imagerel $LN3+64
	DD	imagerel $unwind$??0?$tvec4@N$0A@@glm@@QEAA@XZ
pdata	ENDS
;	COMDAT pdata
pdata	SEGMENT
$pdata$?length@?$tvec4@M$00@glm@@SAHXZ DD imagerel $LN3
	DD	imagerel $LN3+9
	DD	imagerel $unwind$?length@?$tvec4@M$00@glm@@SAHXZ
pdata	ENDS
;	COMDAT pdata
pdata	SEGMENT
$pdata$??A?$tvec4@M$00@glm@@QEBAAEBMH@Z DD imagerel $LN5
	DD	imagerel $LN5+80
	DD	imagerel $unwind$??A?$tvec4@M$00@glm@@QEBAAEBMH@Z
pdata	ENDS
pdata	SEGMENT
$pdata$?test_fvec_precision@@YAHXZ DD imagerel ?test_fvec_precision@@YAHXZ
	DD	imagerel ?test_fvec_precision@@YAHXZ+1227
	DD	imagerel $unwind$?test_fvec_precision@@YAHXZ
pdata	ENDS
;	COMDAT pdata
pdata	SEGMENT
$pdata$??$?0$0A@@?$tvec2@M$01@glm@@QEAA@AEBU?$tvec2@M$0A@@1@@Z DD imagerel $LN3
	DD	imagerel $LN3+56
	DD	imagerel $unwind$??$?0$0A@@?$tvec2@M$01@glm@@QEAA@AEBU?$tvec2@M$0A@@1@@Z
pdata	ENDS
;	COMDAT pdata
pdata	SEGMENT
$pdata$??$?0$0A@@?$tvec2@M$00@glm@@QEAA@AEBU?$tvec2@M$0A@@1@@Z DD imagerel $LN3
	DD	imagerel $LN3+56
	DD	imagerel $unwind$??$?0$0A@@?$tvec2@M$00@glm@@QEAA@AEBU?$tvec2@M$0A@@1@@Z
pdata	ENDS
;	COMDAT pdata
pdata	SEGMENT
$pdata$??$?0$01@?$tvec2@M$0A@@glm@@QEAA@AEBU?$tvec2@M$01@1@@Z DD imagerel $LN3
	DD	imagerel $LN3+56
	DD	imagerel $unwind$??$?0$01@?$tvec2@M$0A@@glm@@QEAA@AEBU?$tvec2@M$01@1@@Z
pdata	ENDS
;	COMDAT pdata
pdata	SEGMENT
$pdata$??$equal@M$0A@Utvec2@glm@@@glm@@YA?AU?$tvec2@_N$0A@@0@AEBU?$tvec2@M$0A@@0@0@Z DD imagerel $LN9
	DD	imagerel $LN9+270
	DD	imagerel $unwind$??$equal@M$0A@Utvec2@glm@@@glm@@YA?AU?$tvec2@_N$0A@@0@AEBU?$tvec2@M$0A@@0@0@Z
pdata	ENDS
;	COMDAT pdata
pdata	SEGMENT
$pdata$?length@?$tvec2@_N$0A@@glm@@SAHXZ DD imagerel $LN3
	DD	imagerel $LN3+9
	DD	imagerel $unwind$?length@?$tvec2@_N$0A@@glm@@SAHXZ
pdata	ENDS
;	COMDAT pdata
pdata	SEGMENT
$pdata$??A?$tvec2@_N$0A@@glm@@QEAAAEA_NH@Z DD imagerel $LN5
	DD	imagerel $LN5+82
	DD	imagerel $unwind$??A?$tvec2@_N$0A@@glm@@QEAAAEA_NH@Z
pdata	ENDS
;	COMDAT pdata
pdata	SEGMENT
$pdata$??A?$tvec2@_N$0A@@glm@@QEBAAEB_NH@Z DD imagerel $LN5
	DD	imagerel $LN5+82
	DD	imagerel $unwind$??A?$tvec2@_N$0A@@glm@@QEBAAEB_NH@Z
pdata	ENDS
;	COMDAT pdata
pdata	SEGMENT
$pdata$??0?$tvec2@_N$0A@@glm@@QEAA@W4ctor@1@@Z DD imagerel $LN3
	DD	imagerel $LN3+17
	DD	imagerel $unwind$??0?$tvec2@_N$0A@@glm@@QEAA@W4ctor@1@@Z
pdata	ENDS
;	COMDAT pdata
pdata	SEGMENT
$pdata$??$all@$0A@Utvec2@glm@@@glm@@YA_NAEBU?$tvec2@_N$0A@@0@@Z DD imagerel $LN8
	DD	imagerel $LN8+116
	DD	imagerel $unwind$??$all@$0A@Utvec2@glm@@@glm@@YA_NAEBU?$tvec2@_N$0A@@0@@Z
pdata	ENDS
;	COMDAT pdata
pdata	SEGMENT
$pdata$??$?0$00@?$tvec2@M$0A@@glm@@QEAA@AEBU?$tvec2@M$00@1@@Z DD imagerel $LN3
	DD	imagerel $LN3+56
	DD	imagerel $unwind$??$?0$00@?$tvec2@M$0A@@glm@@QEAA@AEBU?$tvec2@M$00@1@@Z
pdata	ENDS
;	COMDAT pdata
pdata	SEGMENT
$pdata$??$?0$0A@@?$tvec3@M$01@glm@@QEAA@AEBU?$tvec3@M$0A@@1@@Z DD imagerel $LN3
	DD	imagerel $LN3+76
	DD	imagerel $unwind$??$?0$0A@@?$tvec3@M$01@glm@@QEAA@AEBU?$tvec3@M$0A@@1@@Z
pdata	ENDS
;	COMDAT pdata
pdata	SEGMENT
$pdata$??$?0$0A@@?$tvec3@M$00@glm@@QEAA@AEBU?$tvec3@M$0A@@1@@Z DD imagerel $LN3
	DD	imagerel $LN3+76
	DD	imagerel $unwind$??$?0$0A@@?$tvec3@M$00@glm@@QEAA@AEBU?$tvec3@M$0A@@1@@Z
pdata	ENDS
;	COMDAT pdata
pdata	SEGMENT
$pdata$??$?0$01@?$tvec3@M$0A@@glm@@QEAA@AEBU?$tvec3@M$01@1@@Z DD imagerel $LN3
	DD	imagerel $LN3+76
	DD	imagerel $unwind$??$?0$01@?$tvec3@M$0A@@glm@@QEAA@AEBU?$tvec3@M$01@1@@Z
pdata	ENDS
;	COMDAT pdata
pdata	SEGMENT
$pdata$??$equal@M$0A@Utvec3@glm@@@glm@@YA?AU?$tvec3@_N$0A@@0@AEBU?$tvec3@M$0A@@0@0@Z DD imagerel $LN9
	DD	imagerel $LN9+282
	DD	imagerel $unwind$??$equal@M$0A@Utvec3@glm@@@glm@@YA?AU?$tvec3@_N$0A@@0@AEBU?$tvec3@M$0A@@0@0@Z
pdata	ENDS
;	COMDAT pdata
pdata	SEGMENT
$pdata$?length@?$tvec3@_N$0A@@glm@@SAHXZ DD imagerel $LN3
	DD	imagerel $LN3+9
	DD	imagerel $unwind$?length@?$tvec3@_N$0A@@glm@@SAHXZ
pdata	ENDS
;	COMDAT pdata
pdata	SEGMENT
$pdata$??A?$tvec3@_N$0A@@glm@@QEAAAEA_NH@Z DD imagerel $LN5
	DD	imagerel $LN5+82
	DD	imagerel $unwind$??A?$tvec3@_N$0A@@glm@@QEAAAEA_NH@Z
pdata	ENDS
;	COMDAT pdata
pdata	SEGMENT
$pdata$??A?$tvec3@_N$0A@@glm@@QEBAAEB_NH@Z DD imagerel $LN5
	DD	imagerel $LN5+82
	DD	imagerel $unwind$??A?$tvec3@_N$0A@@glm@@QEBAAEB_NH@Z
pdata	ENDS
;	COMDAT pdata
pdata	SEGMENT
$pdata$??0?$tvec3@_N$0A@@glm@@QEAA@W4ctor@1@@Z DD imagerel $LN3
	DD	imagerel $LN3+17
	DD	imagerel $unwind$??0?$tvec3@_N$0A@@glm@@QEAA@W4ctor@1@@Z
pdata	ENDS
;	COMDAT pdata
pdata	SEGMENT
$pdata$??$all@$0A@Utvec3@glm@@@glm@@YA_NAEBU?$tvec3@_N$0A@@0@@Z DD imagerel $LN8
	DD	imagerel $LN8+116
	DD	imagerel $unwind$??$all@$0A@Utvec3@glm@@@glm@@YA_NAEBU?$tvec3@_N$0A@@0@@Z
pdata	ENDS
;	COMDAT pdata
pdata	SEGMENT
$pdata$??$?0$00@?$tvec3@M$0A@@glm@@QEAA@AEBU?$tvec3@M$00@1@@Z DD imagerel $LN3
	DD	imagerel $LN3+76
	DD	imagerel $unwind$??$?0$00@?$tvec3@M$0A@@glm@@QEAA@AEBU?$tvec3@M$00@1@@Z
pdata	ENDS
;	COMDAT pdata
pdata	SEGMENT
$pdata$??$?0$0A@@?$tvec4@M$01@glm@@QEAA@AEBU?$tvec4@M$0A@@1@@Z DD imagerel $LN3
	DD	imagerel $LN3+96
	DD	imagerel $unwind$??$?0$0A@@?$tvec4@M$01@glm@@QEAA@AEBU?$tvec4@M$0A@@1@@Z
pdata	ENDS
;	COMDAT pdata
pdata	SEGMENT
$pdata$??$?0$0A@@?$tvec4@M$00@glm@@QEAA@AEBU?$tvec4@M$0A@@1@@Z DD imagerel $LN3
	DD	imagerel $LN3+96
	DD	imagerel $unwind$??$?0$0A@@?$tvec4@M$00@glm@@QEAA@AEBU?$tvec4@M$0A@@1@@Z
pdata	ENDS
;	COMDAT pdata
pdata	SEGMENT
$pdata$??$?0$01@?$tvec4@M$0A@@glm@@QEAA@AEBU?$tvec4@M$01@1@@Z DD imagerel $LN3
	DD	imagerel $LN3+96
	DD	imagerel $unwind$??$?0$01@?$tvec4@M$0A@@glm@@QEAA@AEBU?$tvec4@M$01@1@@Z
pdata	ENDS
;	COMDAT pdata
pdata	SEGMENT
$pdata$??$equal@M$0A@Utvec4@glm@@@glm@@YA?AU?$tvec4@_N$0A@@0@AEBU?$tvec4@M$0A@@0@0@Z DD imagerel $LN9
	DD	imagerel $LN9+268
	DD	imagerel $unwind$??$equal@M$0A@Utvec4@glm@@@glm@@YA?AU?$tvec4@_N$0A@@0@AEBU?$tvec4@M$0A@@0@0@Z
pdata	ENDS
;	COMDAT pdata
pdata	SEGMENT
$pdata$?length@?$tvec4@_N$0A@@glm@@SAHXZ DD imagerel $LN3
	DD	imagerel $LN3+9
	DD	imagerel $unwind$?length@?$tvec4@_N$0A@@glm@@SAHXZ
pdata	ENDS
;	COMDAT pdata
pdata	SEGMENT
$pdata$??A?$tvec4@_N$0A@@glm@@QEAAAEA_NH@Z DD imagerel $LN5
	DD	imagerel $LN5+82
	DD	imagerel $unwind$??A?$tvec4@_N$0A@@glm@@QEAAAEA_NH@Z
pdata	ENDS
;	COMDAT pdata
pdata	SEGMENT
$pdata$??A?$tvec4@_N$0A@@glm@@QEBAAEB_NH@Z DD imagerel $LN5
	DD	imagerel $LN5+82
	DD	imagerel $unwind$??A?$tvec4@_N$0A@@glm@@QEBAAEB_NH@Z
pdata	ENDS
;	COMDAT pdata
pdata	SEGMENT
$pdata$??0?$tvec4@_N$0A@@glm@@QEAA@W4ctor@1@@Z DD imagerel $LN3
	DD	imagerel $LN3+17
	DD	imagerel $unwind$??0?$tvec4@_N$0A@@glm@@QEAA@W4ctor@1@@Z
pdata	ENDS
;	COMDAT pdata
pdata	SEGMENT
$pdata$??$all@$0A@Utvec4@glm@@@glm@@YA_NAEBU?$tvec4@_N$0A@@0@@Z DD imagerel $LN8
	DD	imagerel $LN8+116
	DD	imagerel $unwind$??$all@$0A@Utvec4@glm@@@glm@@YA_NAEBU?$tvec4@_N$0A@@0@@Z
pdata	ENDS
;	COMDAT pdata
pdata	SEGMENT
$pdata$??$?0$00@?$tvec4@M$0A@@glm@@QEAA@AEBU?$tvec4@M$00@1@@Z DD imagerel $LN3
	DD	imagerel $LN3+96
	DD	imagerel $unwind$??$?0$00@?$tvec4@M$0A@@glm@@QEAA@AEBU?$tvec4@M$00@1@@Z
pdata	ENDS
pdata	SEGMENT
$pdata$?test_dvec_precision@@YAHXZ DD imagerel ?test_dvec_precision@@YAHXZ
	DD	imagerel ?test_dvec_precision@@YAHXZ+1259
	DD	imagerel $unwind$?test_dvec_precision@@YAHXZ
pdata	ENDS
;	COMDAT pdata
pdata	SEGMENT
$pdata$??$?0$0A@@?$tvec2@N$01@glm@@QEAA@AEBU?$tvec2@N$0A@@1@@Z DD imagerel $LN3
	DD	imagerel $LN3+56
	DD	imagerel $unwind$??$?0$0A@@?$tvec2@N$01@glm@@QEAA@AEBU?$tvec2@N$0A@@1@@Z
pdata	ENDS
;	COMDAT pdata
pdata	SEGMENT
$pdata$??$?0$0A@@?$tvec2@N$00@glm@@QEAA@AEBU?$tvec2@N$0A@@1@@Z DD imagerel $LN3
	DD	imagerel $LN3+56
	DD	imagerel $unwind$??$?0$0A@@?$tvec2@N$00@glm@@QEAA@AEBU?$tvec2@N$0A@@1@@Z
pdata	ENDS
;	COMDAT pdata
pdata	SEGMENT
$pdata$??$?0$01@?$tvec2@N$0A@@glm@@QEAA@AEBU?$tvec2@N$01@1@@Z DD imagerel $LN3
	DD	imagerel $LN3+56
	DD	imagerel $unwind$??$?0$01@?$tvec2@N$0A@@glm@@QEAA@AEBU?$tvec2@N$01@1@@Z
pdata	ENDS
;	COMDAT pdata
pdata	SEGMENT
$pdata$??$equal@N$0A@Utvec2@glm@@@glm@@YA?AU?$tvec2@_N$0A@@0@AEBU?$tvec2@N$0A@@0@0@Z DD imagerel $LN9
	DD	imagerel $LN9+271
	DD	imagerel $unwind$??$equal@N$0A@Utvec2@glm@@@glm@@YA?AU?$tvec2@_N$0A@@0@AEBU?$tvec2@N$0A@@0@0@Z
pdata	ENDS
;	COMDAT pdata
pdata	SEGMENT
$pdata$??$?0$00@?$tvec2@N$0A@@glm@@QEAA@AEBU?$tvec2@N$00@1@@Z DD imagerel $LN3
	DD	imagerel $LN3+56
	DD	imagerel $unwind$??$?0$00@?$tvec2@N$0A@@glm@@QEAA@AEBU?$tvec2@N$00@1@@Z
pdata	ENDS
;	COMDAT pdata
pdata	SEGMENT
$pdata$??$?0$0A@@?$tvec3@N$01@glm@@QEAA@AEBU?$tvec3@N$0A@@1@@Z DD imagerel $LN3
	DD	imagerel $LN3+76
	DD	imagerel $unwind$??$?0$0A@@?$tvec3@N$01@glm@@QEAA@AEBU?$tvec3@N$0A@@1@@Z
pdata	ENDS
;	COMDAT pdata
pdata	SEGMENT
$pdata$??$?0$0A@@?$tvec3@N$00@glm@@QEAA@AEBU?$tvec3@N$0A@@1@@Z DD imagerel $LN3
	DD	imagerel $LN3+76
	DD	imagerel $unwind$??$?0$0A@@?$tvec3@N$00@glm@@QEAA@AEBU?$tvec3@N$0A@@1@@Z
pdata	ENDS
;	COMDAT pdata
pdata	SEGMENT
$pdata$??$?0$01@?$tvec3@N$0A@@glm@@QEAA@AEBU?$tvec3@N$01@1@@Z DD imagerel $LN3
	DD	imagerel $LN3+76
	DD	imagerel $unwind$??$?0$01@?$tvec3@N$0A@@glm@@QEAA@AEBU?$tvec3@N$01@1@@Z
pdata	ENDS
;	COMDAT pdata
pdata	SEGMENT
$pdata$??$equal@N$0A@Utvec3@glm@@@glm@@YA?AU?$tvec3@_N$0A@@0@AEBU?$tvec3@N$0A@@0@0@Z DD imagerel $LN9
	DD	imagerel $LN9+283
	DD	imagerel $unwind$??$equal@N$0A@Utvec3@glm@@@glm@@YA?AU?$tvec3@_N$0A@@0@AEBU?$tvec3@N$0A@@0@0@Z
pdata	ENDS
;	COMDAT pdata
pdata	SEGMENT
$pdata$??$?0$00@?$tvec3@N$0A@@glm@@QEAA@AEBU?$tvec3@N$00@1@@Z DD imagerel $LN3
	DD	imagerel $LN3+76
	DD	imagerel $unwind$??$?0$00@?$tvec3@N$0A@@glm@@QEAA@AEBU?$tvec3@N$00@1@@Z
pdata	ENDS
;	COMDAT pdata
pdata	SEGMENT
$pdata$??$?0$0A@@?$tvec4@N$01@glm@@QEAA@AEBU?$tvec4@N$0A@@1@@Z DD imagerel $LN3
	DD	imagerel $LN3+96
	DD	imagerel $unwind$??$?0$0A@@?$tvec4@N$01@glm@@QEAA@AEBU?$tvec4@N$0A@@1@@Z
pdata	ENDS
;	COMDAT pdata
pdata	SEGMENT
$pdata$??$?0$0A@@?$tvec4@N$00@glm@@QEAA@AEBU?$tvec4@N$0A@@1@@Z DD imagerel $LN3
	DD	imagerel $LN3+96
	DD	imagerel $unwind$??$?0$0A@@?$tvec4@N$00@glm@@QEAA@AEBU?$tvec4@N$0A@@1@@Z
pdata	ENDS
;	COMDAT pdata
pdata	SEGMENT
$pdata$??$?0$01@?$tvec4@N$0A@@glm@@QEAA@AEBU?$tvec4@N$01@1@@Z DD imagerel $LN3
	DD	imagerel $LN3+96
	DD	imagerel $unwind$??$?0$01@?$tvec4@N$0A@@glm@@QEAA@AEBU?$tvec4@N$01@1@@Z
pdata	ENDS
;	COMDAT pdata
pdata	SEGMENT
$pdata$??$equal@N$0A@Utvec4@glm@@@glm@@YA?AU?$tvec4@_N$0A@@0@AEBU?$tvec4@N$0A@@0@0@Z DD imagerel $LN9
	DD	imagerel $LN9+269
	DD	imagerel $unwind$??$equal@N$0A@Utvec4@glm@@@glm@@YA?AU?$tvec4@_N$0A@@0@AEBU?$tvec4@N$0A@@0@0@Z
pdata	ENDS
;	COMDAT pdata
pdata	SEGMENT
$pdata$??$?0$00@?$tvec4@N$0A@@glm@@QEAA@AEBU?$tvec4@N$00@1@@Z DD imagerel $LN3
	DD	imagerel $LN3+96
	DD	imagerel $unwind$??$?0$00@?$tvec4@N$0A@@glm@@QEAA@AEBU?$tvec4@N$00@1@@Z
pdata	ENDS
pdata	SEGMENT
$pdata$?test_ivec_size@@YAHXZ DD imagerel ?test_ivec_size@@YAHXZ
	DD	imagerel ?test_ivec_size@@YAHXZ+310
	DD	imagerel $unwind$?test_ivec_size@@YAHXZ
pdata	ENDS
;	COMDAT pdata
pdata	SEGMENT
$pdata$?length@?$tvec2@C$0A@@glm@@SAHXZ DD imagerel $LN3
	DD	imagerel $LN3+9
	DD	imagerel $unwind$?length@?$tvec2@C$0A@@glm@@SAHXZ
pdata	ENDS
;	COMDAT pdata
pdata	SEGMENT
$pdata$??A?$tvec2@C$0A@@glm@@QEBAAEBCH@Z DD imagerel $LN5
	DD	imagerel $LN5+82
	DD	imagerel $unwind$??A?$tvec2@C$0A@@glm@@QEBAAEBCH@Z
pdata	ENDS
;	COMDAT pdata
pdata	SEGMENT
$pdata$??0?$tvec2@C$0A@@glm@@QEAA@XZ DD imagerel $LN3
	DD	imagerel $LN3+30
	DD	imagerel $unwind$??0?$tvec2@C$0A@@glm@@QEAA@XZ
pdata	ENDS
;	COMDAT pdata
pdata	SEGMENT
$pdata$?length@?$tvec3@C$0A@@glm@@SAHXZ DD imagerel $LN3
	DD	imagerel $LN3+9
	DD	imagerel $unwind$?length@?$tvec3@C$0A@@glm@@SAHXZ
pdata	ENDS
;	COMDAT pdata
pdata	SEGMENT
$pdata$??A?$tvec3@C$0A@@glm@@QEBAAEBCH@Z DD imagerel $LN5
	DD	imagerel $LN5+82
	DD	imagerel $unwind$??A?$tvec3@C$0A@@glm@@QEBAAEBCH@Z
pdata	ENDS
;	COMDAT pdata
pdata	SEGMENT
$pdata$??0?$tvec3@C$0A@@glm@@QEAA@XZ DD imagerel $LN3
	DD	imagerel $LN3+39
	DD	imagerel $unwind$??0?$tvec3@C$0A@@glm@@QEAA@XZ
pdata	ENDS
;	COMDAT pdata
pdata	SEGMENT
$pdata$?length@?$tvec3@F$0A@@glm@@SAHXZ DD imagerel $LN3
	DD	imagerel $LN3+9
	DD	imagerel $unwind$?length@?$tvec3@F$0A@@glm@@SAHXZ
pdata	ENDS
;	COMDAT pdata
pdata	SEGMENT
$pdata$??A?$tvec3@F$0A@@glm@@QEBAAEBFH@Z DD imagerel $LN5
	DD	imagerel $LN5+80
	DD	imagerel $unwind$??A?$tvec3@F$0A@@glm@@QEBAAEBFH@Z
pdata	ENDS
;	COMDAT pdata
pdata	SEGMENT
$pdata$??0?$tvec3@F$0A@@glm@@QEAA@XZ DD imagerel $LN3
	DD	imagerel $LN3+45
	DD	imagerel $unwind$??0?$tvec3@F$0A@@glm@@QEAA@XZ
pdata	ENDS
;	COMDAT pdata
pdata	SEGMENT
$pdata$?length@?$tvec4@F$0A@@glm@@SAHXZ DD imagerel $LN3
	DD	imagerel $LN3+9
	DD	imagerel $unwind$?length@?$tvec4@F$0A@@glm@@SAHXZ
pdata	ENDS
;	COMDAT pdata
pdata	SEGMENT
$pdata$??A?$tvec4@F$0A@@glm@@QEBAAEBFH@Z DD imagerel $LN5
	DD	imagerel $LN5+80
	DD	imagerel $unwind$??A?$tvec4@F$0A@@glm@@QEBAAEBFH@Z
pdata	ENDS
;	COMDAT pdata
pdata	SEGMENT
$pdata$??0?$tvec4@F$0A@@glm@@QEAA@XZ DD imagerel $LN3
	DD	imagerel $LN3+56
	DD	imagerel $unwind$??0?$tvec4@F$0A@@glm@@QEAA@XZ
pdata	ENDS
;	COMDAT pdata
pdata	SEGMENT
$pdata$?length@?$tvec2@H$0A@@glm@@SAHXZ DD imagerel $LN3
	DD	imagerel $LN3+9
	DD	imagerel $unwind$?length@?$tvec2@H$0A@@glm@@SAHXZ
pdata	ENDS
;	COMDAT pdata
pdata	SEGMENT
$pdata$??A?$tvec2@H$0A@@glm@@QEBAAEBHH@Z DD imagerel $LN5
	DD	imagerel $LN5+80
	DD	imagerel $unwind$??A?$tvec2@H$0A@@glm@@QEBAAEBHH@Z
pdata	ENDS
;	COMDAT pdata
pdata	SEGMENT
$pdata$??0?$tvec2@H$0A@@glm@@QEAA@XZ DD imagerel $LN3
	DD	imagerel $LN3+36
	DD	imagerel $unwind$??0?$tvec2@H$0A@@glm@@QEAA@XZ
pdata	ENDS
;	COMDAT pdata
pdata	SEGMENT
$pdata$?length@?$tvec3@H$0A@@glm@@SAHXZ DD imagerel $LN3
	DD	imagerel $LN3+9
	DD	imagerel $unwind$?length@?$tvec3@H$0A@@glm@@SAHXZ
pdata	ENDS
;	COMDAT pdata
pdata	SEGMENT
$pdata$??A?$tvec3@H$0A@@glm@@QEBAAEBHH@Z DD imagerel $LN5
	DD	imagerel $LN5+80
	DD	imagerel $unwind$??A?$tvec3@H$0A@@glm@@QEBAAEBHH@Z
pdata	ENDS
;	COMDAT pdata
pdata	SEGMENT
$pdata$??0?$tvec3@H$0A@@glm@@QEAA@XZ DD imagerel $LN3
	DD	imagerel $LN3+48
	DD	imagerel $unwind$??0?$tvec3@H$0A@@glm@@QEAA@XZ
pdata	ENDS
;	COMDAT pdata
pdata	SEGMENT
$pdata$?length@?$tvec4@H$0A@@glm@@SAHXZ DD imagerel $LN3
	DD	imagerel $LN3+9
	DD	imagerel $unwind$?length@?$tvec4@H$0A@@glm@@SAHXZ
pdata	ENDS
;	COMDAT pdata
pdata	SEGMENT
$pdata$??A?$tvec4@H$0A@@glm@@QEBAAEBHH@Z DD imagerel $LN5
	DD	imagerel $LN5+80
	DD	imagerel $unwind$??A?$tvec4@H$0A@@glm@@QEBAAEBHH@Z
pdata	ENDS
;	COMDAT pdata
pdata	SEGMENT
$pdata$??0?$tvec4@H$0A@@glm@@QEAA@XZ DD imagerel $LN3
	DD	imagerel $LN3+60
	DD	imagerel $unwind$??0?$tvec4@H$0A@@glm@@QEAA@XZ
pdata	ENDS
;	COMDAT pdata
pdata	SEGMENT
$pdata$?length@?$tvec2@_J$0A@@glm@@SAHXZ DD imagerel $LN3
	DD	imagerel $LN3+9
	DD	imagerel $unwind$?length@?$tvec2@_J$0A@@glm@@SAHXZ
pdata	ENDS
;	COMDAT pdata
pdata	SEGMENT
$pdata$??A?$tvec2@_J$0A@@glm@@QEBAAEB_JH@Z DD imagerel $LN5
	DD	imagerel $LN5+80
	DD	imagerel $unwind$??A?$tvec2@_J$0A@@glm@@QEBAAEB_JH@Z
pdata	ENDS
;	COMDAT pdata
pdata	SEGMENT
$pdata$??0?$tvec2@_J$0A@@glm@@QEAA@XZ DD imagerel $LN3
	DD	imagerel $LN3+38
	DD	imagerel $unwind$??0?$tvec2@_J$0A@@glm@@QEAA@XZ
pdata	ENDS
;	COMDAT pdata
pdata	SEGMENT
$pdata$?length@?$tvec3@_J$0A@@glm@@SAHXZ DD imagerel $LN3
	DD	imagerel $LN3+9
	DD	imagerel $unwind$?length@?$tvec3@_J$0A@@glm@@SAHXZ
pdata	ENDS
;	COMDAT pdata
pdata	SEGMENT
$pdata$??A?$tvec3@_J$0A@@glm@@QEBAAEB_JH@Z DD imagerel $LN5
	DD	imagerel $LN5+80
	DD	imagerel $unwind$??A?$tvec3@_J$0A@@glm@@QEBAAEB_JH@Z
pdata	ENDS
;	COMDAT pdata
pdata	SEGMENT
$pdata$??0?$tvec3@_J$0A@@glm@@QEAA@XZ DD imagerel $LN3
	DD	imagerel $LN3+51
	DD	imagerel $unwind$??0?$tvec3@_J$0A@@glm@@QEAA@XZ
pdata	ENDS
;	COMDAT pdata
pdata	SEGMENT
$pdata$?length@?$tvec4@_J$0A@@glm@@SAHXZ DD imagerel $LN3
	DD	imagerel $LN3+9
	DD	imagerel $unwind$?length@?$tvec4@_J$0A@@glm@@SAHXZ
pdata	ENDS
;	COMDAT pdata
pdata	SEGMENT
$pdata$??A?$tvec4@_J$0A@@glm@@QEBAAEB_JH@Z DD imagerel $LN5
	DD	imagerel $LN5+80
	DD	imagerel $unwind$??A?$tvec4@_J$0A@@glm@@QEBAAEB_JH@Z
pdata	ENDS
;	COMDAT pdata
pdata	SEGMENT
$pdata$??0?$tvec4@_J$0A@@glm@@QEAA@XZ DD imagerel $LN3
	DD	imagerel $LN3+64
	DD	imagerel $unwind$??0?$tvec4@_J$0A@@glm@@QEAA@XZ
pdata	ENDS
pdata	SEGMENT
$pdata$?test_ivec_precision@@YAHXZ DD imagerel ?test_ivec_precision@@YAHXZ
	DD	imagerel ?test_ivec_precision@@YAHXZ+4769
	DD	imagerel $unwind$?test_ivec_precision@@YAHXZ
pdata	ENDS
;	COMDAT pdata
pdata	SEGMENT
$pdata$??$?0$0A@@?$tvec2@C$01@glm@@QEAA@AEBU?$tvec2@C$0A@@1@@Z DD imagerel $LN3
	DD	imagerel $LN3+50
	DD	imagerel $unwind$??$?0$0A@@?$tvec2@C$01@glm@@QEAA@AEBU?$tvec2@C$0A@@1@@Z
pdata	ENDS
;	COMDAT pdata
pdata	SEGMENT
$pdata$??$?0$0A@@?$tvec2@C$00@glm@@QEAA@AEBU?$tvec2@C$0A@@1@@Z DD imagerel $LN3
	DD	imagerel $LN3+50
	DD	imagerel $unwind$??$?0$0A@@?$tvec2@C$00@glm@@QEAA@AEBU?$tvec2@C$0A@@1@@Z
pdata	ENDS
;	COMDAT pdata
pdata	SEGMENT
$pdata$??$?0$01@?$tvec2@C$0A@@glm@@QEAA@AEBU?$tvec2@C$01@1@@Z DD imagerel $LN3
	DD	imagerel $LN3+50
	DD	imagerel $unwind$??$?0$01@?$tvec2@C$0A@@glm@@QEAA@AEBU?$tvec2@C$01@1@@Z
pdata	ENDS
;	COMDAT pdata
pdata	SEGMENT
$pdata$??$equal@C$0A@Utvec2@glm@@@glm@@YA?AU?$tvec2@_N$0A@@0@AEBU?$tvec2@C$0A@@0@0@Z DD imagerel $LN9
	DD	imagerel $LN9+267
	DD	imagerel $unwind$??$equal@C$0A@Utvec2@glm@@@glm@@YA?AU?$tvec2@_N$0A@@0@AEBU?$tvec2@C$0A@@0@0@Z
pdata	ENDS
;	COMDAT pdata
pdata	SEGMENT
$pdata$??$?0$00@?$tvec2@C$0A@@glm@@QEAA@AEBU?$tvec2@C$00@1@@Z DD imagerel $LN3
	DD	imagerel $LN3+50
	DD	imagerel $unwind$??$?0$00@?$tvec2@C$0A@@glm@@QEAA@AEBU?$tvec2@C$00@1@@Z
pdata	ENDS
;	COMDAT pdata
pdata	SEGMENT
$pdata$??$?0$0A@@?$tvec3@C$01@glm@@QEAA@AEBU?$tvec3@C$0A@@1@@Z DD imagerel $LN3
	DD	imagerel $LN3+67
	DD	imagerel $unwind$??$?0$0A@@?$tvec3@C$01@glm@@QEAA@AEBU?$tvec3@C$0A@@1@@Z
pdata	ENDS
;	COMDAT pdata
pdata	SEGMENT
$pdata$??$?0$0A@@?$tvec3@C$00@glm@@QEAA@AEBU?$tvec3@C$0A@@1@@Z DD imagerel $LN3
	DD	imagerel $LN3+67
	DD	imagerel $unwind$??$?0$0A@@?$tvec3@C$00@glm@@QEAA@AEBU?$tvec3@C$0A@@1@@Z
pdata	ENDS
;	COMDAT pdata
pdata	SEGMENT
$pdata$??$?0$01@?$tvec3@C$0A@@glm@@QEAA@AEBU?$tvec3@C$01@1@@Z DD imagerel $LN3
	DD	imagerel $LN3+67
	DD	imagerel $unwind$??$?0$01@?$tvec3@C$0A@@glm@@QEAA@AEBU?$tvec3@C$01@1@@Z
pdata	ENDS
;	COMDAT pdata
pdata	SEGMENT
$pdata$??$equal@C$0A@Utvec3@glm@@@glm@@YA?AU?$tvec3@_N$0A@@0@AEBU?$tvec3@C$0A@@0@0@Z DD imagerel $LN9
	DD	imagerel $LN9+279
	DD	imagerel $unwind$??$equal@C$0A@Utvec3@glm@@@glm@@YA?AU?$tvec3@_N$0A@@0@AEBU?$tvec3@C$0A@@0@0@Z
pdata	ENDS
;	COMDAT pdata
pdata	SEGMENT
$pdata$??$?0$00@?$tvec3@C$0A@@glm@@QEAA@AEBU?$tvec3@C$00@1@@Z DD imagerel $LN3
	DD	imagerel $LN3+67
	DD	imagerel $unwind$??$?0$00@?$tvec3@C$0A@@glm@@QEAA@AEBU?$tvec3@C$00@1@@Z
pdata	ENDS
;	COMDAT pdata
pdata	SEGMENT
$pdata$??$?0$0A@@?$tvec4@C$01@glm@@QEAA@AEBU?$tvec4@C$0A@@1@@Z DD imagerel $LN3
	DD	imagerel $LN3+84
	DD	imagerel $unwind$??$?0$0A@@?$tvec4@C$01@glm@@QEAA@AEBU?$tvec4@C$0A@@1@@Z
pdata	ENDS
;	COMDAT pdata
pdata	SEGMENT
$pdata$??$?0$0A@@?$tvec4@C$00@glm@@QEAA@AEBU?$tvec4@C$0A@@1@@Z DD imagerel $LN3
	DD	imagerel $LN3+84
	DD	imagerel $unwind$??$?0$0A@@?$tvec4@C$00@glm@@QEAA@AEBU?$tvec4@C$0A@@1@@Z
pdata	ENDS
;	COMDAT pdata
pdata	SEGMENT
$pdata$??$?0$01@?$tvec4@C$0A@@glm@@QEAA@AEBU?$tvec4@C$01@1@@Z DD imagerel $LN3
	DD	imagerel $LN3+84
	DD	imagerel $unwind$??$?0$01@?$tvec4@C$0A@@glm@@QEAA@AEBU?$tvec4@C$01@1@@Z
pdata	ENDS
;	COMDAT pdata
pdata	SEGMENT
$pdata$??$equal@C$0A@Utvec4@glm@@@glm@@YA?AU?$tvec4@_N$0A@@0@AEBU?$tvec4@C$0A@@0@0@Z DD imagerel $LN9
	DD	imagerel $LN9+265
	DD	imagerel $unwind$??$equal@C$0A@Utvec4@glm@@@glm@@YA?AU?$tvec4@_N$0A@@0@AEBU?$tvec4@C$0A@@0@0@Z
pdata	ENDS
;	COMDAT pdata
pdata	SEGMENT
$pdata$??$?0$00@?$tvec4@C$0A@@glm@@QEAA@AEBU?$tvec4@C$00@1@@Z DD imagerel $LN3
	DD	imagerel $LN3+84
	DD	imagerel $unwind$??$?0$00@?$tvec4@C$0A@@glm@@QEAA@AEBU?$tvec4@C$00@1@@Z
pdata	ENDS
;	COMDAT pdata
pdata	SEGMENT
$pdata$??$?0$0A@@?$tvec2@F$01@glm@@QEAA@AEBU?$tvec2@F$0A@@1@@Z DD imagerel $LN3
	DD	imagerel $LN3+52
	DD	imagerel $unwind$??$?0$0A@@?$tvec2@F$01@glm@@QEAA@AEBU?$tvec2@F$0A@@1@@Z
pdata	ENDS
;	COMDAT pdata
pdata	SEGMENT
$pdata$??$?0$0A@@?$tvec2@F$00@glm@@QEAA@AEBU?$tvec2@F$0A@@1@@Z DD imagerel $LN3
	DD	imagerel $LN3+52
	DD	imagerel $unwind$??$?0$0A@@?$tvec2@F$00@glm@@QEAA@AEBU?$tvec2@F$0A@@1@@Z
pdata	ENDS
;	COMDAT pdata
pdata	SEGMENT
$pdata$??$?0$01@?$tvec2@F$0A@@glm@@QEAA@AEBU?$tvec2@F$01@1@@Z DD imagerel $LN3
	DD	imagerel $LN3+52
	DD	imagerel $unwind$??$?0$01@?$tvec2@F$0A@@glm@@QEAA@AEBU?$tvec2@F$01@1@@Z
pdata	ENDS
;	COMDAT pdata
pdata	SEGMENT
$pdata$??$equal@F$0A@Utvec2@glm@@@glm@@YA?AU?$tvec2@_N$0A@@0@AEBU?$tvec2@F$0A@@0@0@Z DD imagerel $LN9
	DD	imagerel $LN9+267
	DD	imagerel $unwind$??$equal@F$0A@Utvec2@glm@@@glm@@YA?AU?$tvec2@_N$0A@@0@AEBU?$tvec2@F$0A@@0@0@Z
pdata	ENDS
;	COMDAT pdata
pdata	SEGMENT
$pdata$??$?0$00@?$tvec2@F$0A@@glm@@QEAA@AEBU?$tvec2@F$00@1@@Z DD imagerel $LN3
	DD	imagerel $LN3+52
	DD	imagerel $unwind$??$?0$00@?$tvec2@F$0A@@glm@@QEAA@AEBU?$tvec2@F$00@1@@Z
pdata	ENDS
;	COMDAT pdata
pdata	SEGMENT
$pdata$??$?0$0A@@?$tvec3@F$01@glm@@QEAA@AEBU?$tvec3@F$0A@@1@@Z DD imagerel $LN3
	DD	imagerel $LN3+70
	DD	imagerel $unwind$??$?0$0A@@?$tvec3@F$01@glm@@QEAA@AEBU?$tvec3@F$0A@@1@@Z
pdata	ENDS
;	COMDAT pdata
pdata	SEGMENT
$pdata$??$?0$0A@@?$tvec3@F$00@glm@@QEAA@AEBU?$tvec3@F$0A@@1@@Z DD imagerel $LN3
	DD	imagerel $LN3+70
	DD	imagerel $unwind$??$?0$0A@@?$tvec3@F$00@glm@@QEAA@AEBU?$tvec3@F$0A@@1@@Z
pdata	ENDS
;	COMDAT pdata
pdata	SEGMENT
$pdata$??$?0$01@?$tvec3@F$0A@@glm@@QEAA@AEBU?$tvec3@F$01@1@@Z DD imagerel $LN3
	DD	imagerel $LN3+70
	DD	imagerel $unwind$??$?0$01@?$tvec3@F$0A@@glm@@QEAA@AEBU?$tvec3@F$01@1@@Z
pdata	ENDS
;	COMDAT pdata
pdata	SEGMENT
$pdata$??$equal@F$0A@Utvec3@glm@@@glm@@YA?AU?$tvec3@_N$0A@@0@AEBU?$tvec3@F$0A@@0@0@Z DD imagerel $LN9
	DD	imagerel $LN9+279
	DD	imagerel $unwind$??$equal@F$0A@Utvec3@glm@@@glm@@YA?AU?$tvec3@_N$0A@@0@AEBU?$tvec3@F$0A@@0@0@Z
pdata	ENDS
;	COMDAT pdata
pdata	SEGMENT
$pdata$??$?0$00@?$tvec3@F$0A@@glm@@QEAA@AEBU?$tvec3@F$00@1@@Z DD imagerel $LN3
	DD	imagerel $LN3+70
	DD	imagerel $unwind$??$?0$00@?$tvec3@F$0A@@glm@@QEAA@AEBU?$tvec3@F$00@1@@Z
pdata	ENDS
;	COMDAT pdata
pdata	SEGMENT
$pdata$??$?0$0A@@?$tvec4@F$01@glm@@QEAA@AEBU?$tvec4@F$0A@@1@@Z DD imagerel $LN3
	DD	imagerel $LN3+88
	DD	imagerel $unwind$??$?0$0A@@?$tvec4@F$01@glm@@QEAA@AEBU?$tvec4@F$0A@@1@@Z
pdata	ENDS
;	COMDAT pdata
pdata	SEGMENT
$pdata$??$?0$0A@@?$tvec4@F$00@glm@@QEAA@AEBU?$tvec4@F$0A@@1@@Z DD imagerel $LN3
	DD	imagerel $LN3+88
	DD	imagerel $unwind$??$?0$0A@@?$tvec4@F$00@glm@@QEAA@AEBU?$tvec4@F$0A@@1@@Z
pdata	ENDS
;	COMDAT pdata
pdata	SEGMENT
$pdata$??$?0$01@?$tvec4@F$0A@@glm@@QEAA@AEBU?$tvec4@F$01@1@@Z DD imagerel $LN3
	DD	imagerel $LN3+88
	DD	imagerel $unwind$??$?0$01@?$tvec4@F$0A@@glm@@QEAA@AEBU?$tvec4@F$01@1@@Z
pdata	ENDS
;	COMDAT pdata
pdata	SEGMENT
$pdata$??$equal@F$0A@Utvec4@glm@@@glm@@YA?AU?$tvec4@_N$0A@@0@AEBU?$tvec4@F$0A@@0@0@Z DD imagerel $LN9
	DD	imagerel $LN9+265
	DD	imagerel $unwind$??$equal@F$0A@Utvec4@glm@@@glm@@YA?AU?$tvec4@_N$0A@@0@AEBU?$tvec4@F$0A@@0@0@Z
pdata	ENDS
;	COMDAT pdata
pdata	SEGMENT
$pdata$??$?0$00@?$tvec4@F$0A@@glm@@QEAA@AEBU?$tvec4@F$00@1@@Z DD imagerel $LN3
	DD	imagerel $LN3+88
	DD	imagerel $unwind$??$?0$00@?$tvec4@F$0A@@glm@@QEAA@AEBU?$tvec4@F$00@1@@Z
pdata	ENDS
;	COMDAT pdata
pdata	SEGMENT
$pdata$??$?0$0A@@?$tvec2@H$01@glm@@QEAA@AEBU?$tvec2@H$0A@@1@@Z DD imagerel $LN3
	DD	imagerel $LN3+48
	DD	imagerel $unwind$??$?0$0A@@?$tvec2@H$01@glm@@QEAA@AEBU?$tvec2@H$0A@@1@@Z
pdata	ENDS
;	COMDAT pdata
pdata	SEGMENT
$pdata$??$?0$0A@@?$tvec2@H$00@glm@@QEAA@AEBU?$tvec2@H$0A@@1@@Z DD imagerel $LN3
	DD	imagerel $LN3+48
	DD	imagerel $unwind$??$?0$0A@@?$tvec2@H$00@glm@@QEAA@AEBU?$tvec2@H$0A@@1@@Z
pdata	ENDS
;	COMDAT pdata
pdata	SEGMENT
$pdata$??$?0$01@?$tvec2@H$0A@@glm@@QEAA@AEBU?$tvec2@H$01@1@@Z DD imagerel $LN3
	DD	imagerel $LN3+48
	DD	imagerel $unwind$??$?0$01@?$tvec2@H$0A@@glm@@QEAA@AEBU?$tvec2@H$01@1@@Z
pdata	ENDS
;	COMDAT pdata
pdata	SEGMENT
$pdata$??$equal@H$0A@Utvec2@glm@@@glm@@YA?AU?$tvec2@_N$0A@@0@AEBU?$tvec2@H$0A@@0@0@Z DD imagerel $LN9
	DD	imagerel $LN9+265
	DD	imagerel $unwind$??$equal@H$0A@Utvec2@glm@@@glm@@YA?AU?$tvec2@_N$0A@@0@AEBU?$tvec2@H$0A@@0@0@Z
pdata	ENDS
;	COMDAT pdata
pdata	SEGMENT
$pdata$??$?0$00@?$tvec2@H$0A@@glm@@QEAA@AEBU?$tvec2@H$00@1@@Z DD imagerel $LN3
	DD	imagerel $LN3+48
	DD	imagerel $unwind$??$?0$00@?$tvec2@H$0A@@glm@@QEAA@AEBU?$tvec2@H$00@1@@Z
pdata	ENDS
;	COMDAT pdata
pdata	SEGMENT
$pdata$??$?0$0A@@?$tvec3@H$01@glm@@QEAA@AEBU?$tvec3@H$0A@@1@@Z DD imagerel $LN3
	DD	imagerel $LN3+64
	DD	imagerel $unwind$??$?0$0A@@?$tvec3@H$01@glm@@QEAA@AEBU?$tvec3@H$0A@@1@@Z
pdata	ENDS
;	COMDAT pdata
pdata	SEGMENT
$pdata$??$?0$0A@@?$tvec3@H$00@glm@@QEAA@AEBU?$tvec3@H$0A@@1@@Z DD imagerel $LN3
	DD	imagerel $LN3+64
	DD	imagerel $unwind$??$?0$0A@@?$tvec3@H$00@glm@@QEAA@AEBU?$tvec3@H$0A@@1@@Z
pdata	ENDS
;	COMDAT pdata
pdata	SEGMENT
$pdata$??$?0$01@?$tvec3@H$0A@@glm@@QEAA@AEBU?$tvec3@H$01@1@@Z DD imagerel $LN3
	DD	imagerel $LN3+64
	DD	imagerel $unwind$??$?0$01@?$tvec3@H$0A@@glm@@QEAA@AEBU?$tvec3@H$01@1@@Z
pdata	ENDS
;	COMDAT pdata
pdata	SEGMENT
$pdata$??$equal@H$0A@Utvec3@glm@@@glm@@YA?AU?$tvec3@_N$0A@@0@AEBU?$tvec3@H$0A@@0@0@Z DD imagerel $LN9
	DD	imagerel $LN9+277
	DD	imagerel $unwind$??$equal@H$0A@Utvec3@glm@@@glm@@YA?AU?$tvec3@_N$0A@@0@AEBU?$tvec3@H$0A@@0@0@Z
pdata	ENDS
;	COMDAT pdata
pdata	SEGMENT
$pdata$??$?0$00@?$tvec3@H$0A@@glm@@QEAA@AEBU?$tvec3@H$00@1@@Z DD imagerel $LN3
	DD	imagerel $LN3+64
	DD	imagerel $unwind$??$?0$00@?$tvec3@H$0A@@glm@@QEAA@AEBU?$tvec3@H$00@1@@Z
pdata	ENDS
;	COMDAT pdata
pdata	SEGMENT
$pdata$??$?0$0A@@?$tvec4@H$01@glm@@QEAA@AEBU?$tvec4@H$0A@@1@@Z DD imagerel $LN3
	DD	imagerel $LN3+80
	DD	imagerel $unwind$??$?0$0A@@?$tvec4@H$01@glm@@QEAA@AEBU?$tvec4@H$0A@@1@@Z
pdata	ENDS
;	COMDAT pdata
pdata	SEGMENT
$pdata$??$?0$0A@@?$tvec4@H$00@glm@@QEAA@AEBU?$tvec4@H$0A@@1@@Z DD imagerel $LN3
	DD	imagerel $LN3+80
	DD	imagerel $unwind$??$?0$0A@@?$tvec4@H$00@glm@@QEAA@AEBU?$tvec4@H$0A@@1@@Z
pdata	ENDS
;	COMDAT pdata
pdata	SEGMENT
$pdata$??$?0$01@?$tvec4@H$0A@@glm@@QEAA@AEBU?$tvec4@H$01@1@@Z DD imagerel $LN3
	DD	imagerel $LN3+80
	DD	imagerel $unwind$??$?0$01@?$tvec4@H$0A@@glm@@QEAA@AEBU?$tvec4@H$01@1@@Z
pdata	ENDS
;	COMDAT pdata
pdata	SEGMENT
$pdata$??$equal@H$0A@Utvec4@glm@@@glm@@YA?AU?$tvec4@_N$0A@@0@AEBU?$tvec4@H$0A@@0@0@Z DD imagerel $LN9
	DD	imagerel $LN9+263
	DD	imagerel $unwind$??$equal@H$0A@Utvec4@glm@@@glm@@YA?AU?$tvec4@_N$0A@@0@AEBU?$tvec4@H$0A@@0@0@Z
pdata	ENDS
;	COMDAT pdata
pdata	SEGMENT
$pdata$??$?0$00@?$tvec4@H$0A@@glm@@QEAA@AEBU?$tvec4@H$00@1@@Z DD imagerel $LN3
	DD	imagerel $LN3+80
	DD	imagerel $unwind$??$?0$00@?$tvec4@H$0A@@glm@@QEAA@AEBU?$tvec4@H$00@1@@Z
pdata	ENDS
;	COMDAT pdata
pdata	SEGMENT
$pdata$??$?0$0A@@?$tvec2@_J$01@glm@@QEAA@AEBU?$tvec2@_J$0A@@1@@Z DD imagerel $LN3
	DD	imagerel $LN3+52
	DD	imagerel $unwind$??$?0$0A@@?$tvec2@_J$01@glm@@QEAA@AEBU?$tvec2@_J$0A@@1@@Z
pdata	ENDS
;	COMDAT pdata
pdata	SEGMENT
$pdata$??$?0$0A@@?$tvec2@_J$00@glm@@QEAA@AEBU?$tvec2@_J$0A@@1@@Z DD imagerel $LN3
	DD	imagerel $LN3+52
	DD	imagerel $unwind$??$?0$0A@@?$tvec2@_J$00@glm@@QEAA@AEBU?$tvec2@_J$0A@@1@@Z
pdata	ENDS
;	COMDAT pdata
pdata	SEGMENT
$pdata$??$?0$01@?$tvec2@_J$0A@@glm@@QEAA@AEBU?$tvec2@_J$01@1@@Z DD imagerel $LN3
	DD	imagerel $LN3+52
	DD	imagerel $unwind$??$?0$01@?$tvec2@_J$0A@@glm@@QEAA@AEBU?$tvec2@_J$01@1@@Z
pdata	ENDS
;	COMDAT pdata
pdata	SEGMENT
$pdata$??$equal@_J$0A@Utvec2@glm@@@glm@@YA?AU?$tvec2@_N$0A@@0@AEBU?$tvec2@_J$0A@@0@0@Z DD imagerel $LN9
	DD	imagerel $LN9+267
	DD	imagerel $unwind$??$equal@_J$0A@Utvec2@glm@@@glm@@YA?AU?$tvec2@_N$0A@@0@AEBU?$tvec2@_J$0A@@0@0@Z
pdata	ENDS
;	COMDAT pdata
pdata	SEGMENT
$pdata$??$?0$00@?$tvec2@_J$0A@@glm@@QEAA@AEBU?$tvec2@_J$00@1@@Z DD imagerel $LN3
	DD	imagerel $LN3+52
	DD	imagerel $unwind$??$?0$00@?$tvec2@_J$0A@@glm@@QEAA@AEBU?$tvec2@_J$00@1@@Z
pdata	ENDS
;	COMDAT pdata
pdata	SEGMENT
$pdata$??$?0$0A@@?$tvec3@_J$01@glm@@QEAA@AEBU?$tvec3@_J$0A@@1@@Z DD imagerel $LN3
	DD	imagerel $LN3+70
	DD	imagerel $unwind$??$?0$0A@@?$tvec3@_J$01@glm@@QEAA@AEBU?$tvec3@_J$0A@@1@@Z
pdata	ENDS
;	COMDAT pdata
pdata	SEGMENT
$pdata$??$?0$0A@@?$tvec3@_J$00@glm@@QEAA@AEBU?$tvec3@_J$0A@@1@@Z DD imagerel $LN3
	DD	imagerel $LN3+70
	DD	imagerel $unwind$??$?0$0A@@?$tvec3@_J$00@glm@@QEAA@AEBU?$tvec3@_J$0A@@1@@Z
pdata	ENDS
;	COMDAT pdata
pdata	SEGMENT
$pdata$??$?0$01@?$tvec3@_J$0A@@glm@@QEAA@AEBU?$tvec3@_J$01@1@@Z DD imagerel $LN3
	DD	imagerel $LN3+70
	DD	imagerel $unwind$??$?0$01@?$tvec3@_J$0A@@glm@@QEAA@AEBU?$tvec3@_J$01@1@@Z
pdata	ENDS
;	COMDAT pdata
pdata	SEGMENT
$pdata$??$equal@_J$0A@Utvec3@glm@@@glm@@YA?AU?$tvec3@_N$0A@@0@AEBU?$tvec3@_J$0A@@0@0@Z DD imagerel $LN9
	DD	imagerel $LN9+279
	DD	imagerel $unwind$??$equal@_J$0A@Utvec3@glm@@@glm@@YA?AU?$tvec3@_N$0A@@0@AEBU?$tvec3@_J$0A@@0@0@Z
pdata	ENDS
;	COMDAT pdata
pdata	SEGMENT
$pdata$??$?0$00@?$tvec3@_J$0A@@glm@@QEAA@AEBU?$tvec3@_J$00@1@@Z DD imagerel $LN3
	DD	imagerel $LN3+70
	DD	imagerel $unwind$??$?0$00@?$tvec3@_J$0A@@glm@@QEAA@AEBU?$tvec3@_J$00@1@@Z
pdata	ENDS
;	COMDAT pdata
pdata	SEGMENT
$pdata$??$?0$0A@@?$tvec4@_J$01@glm@@QEAA@AEBU?$tvec4@_J$0A@@1@@Z DD imagerel $LN3
	DD	imagerel $LN3+88
	DD	imagerel $unwind$??$?0$0A@@?$tvec4@_J$01@glm@@QEAA@AEBU?$tvec4@_J$0A@@1@@Z
pdata	ENDS
;	COMDAT pdata
pdata	SEGMENT
$pdata$??$?0$0A@@?$tvec4@_J$00@glm@@QEAA@AEBU?$tvec4@_J$0A@@1@@Z DD imagerel $LN3
	DD	imagerel $LN3+88
	DD	imagerel $unwind$??$?0$0A@@?$tvec4@_J$00@glm@@QEAA@AEBU?$tvec4@_J$0A@@1@@Z
pdata	ENDS
;	COMDAT pdata
pdata	SEGMENT
$pdata$??$?0$01@?$tvec4@_J$0A@@glm@@QEAA@AEBU?$tvec4@_J$01@1@@Z DD imagerel $LN3
	DD	imagerel $LN3+88
	DD	imagerel $unwind$??$?0$01@?$tvec4@_J$0A@@glm@@QEAA@AEBU?$tvec4@_J$01@1@@Z
pdata	ENDS
;	COMDAT pdata
pdata	SEGMENT
$pdata$??$equal@_J$0A@Utvec4@glm@@@glm@@YA?AU?$tvec4@_N$0A@@0@AEBU?$tvec4@_J$0A@@0@0@Z DD imagerel $LN9
	DD	imagerel $LN9+265
	DD	imagerel $unwind$??$equal@_J$0A@Utvec4@glm@@@glm@@YA?AU?$tvec4@_N$0A@@0@AEBU?$tvec4@_J$0A@@0@0@Z
pdata	ENDS
;	COMDAT pdata
pdata	SEGMENT
$pdata$??$?0$00@?$tvec4@_J$0A@@glm@@QEAA@AEBU?$tvec4@_J$00@1@@Z DD imagerel $LN3
	DD	imagerel $LN3+88
	DD	imagerel $unwind$??$?0$00@?$tvec4@_J$0A@@glm@@QEAA@AEBU?$tvec4@_J$00@1@@Z
pdata	ENDS
pdata	SEGMENT
$pdata$?test_uvec_size@@YAHXZ DD imagerel ?test_uvec_size@@YAHXZ
	DD	imagerel ?test_uvec_size@@YAHXZ+310
	DD	imagerel $unwind$?test_uvec_size@@YAHXZ
pdata	ENDS
;	COMDAT pdata
pdata	SEGMENT
$pdata$?length@?$tvec2@E$0A@@glm@@SAHXZ DD imagerel $LN3
	DD	imagerel $LN3+9
	DD	imagerel $unwind$?length@?$tvec2@E$0A@@glm@@SAHXZ
pdata	ENDS
;	COMDAT pdata
pdata	SEGMENT
$pdata$??A?$tvec2@E$0A@@glm@@QEBAAEBEH@Z DD imagerel $LN5
	DD	imagerel $LN5+82
	DD	imagerel $unwind$??A?$tvec2@E$0A@@glm@@QEBAAEBEH@Z
pdata	ENDS
;	COMDAT pdata
pdata	SEGMENT
$pdata$??0?$tvec2@E$0A@@glm@@QEAA@XZ DD imagerel $LN3
	DD	imagerel $LN3+30
	DD	imagerel $unwind$??0?$tvec2@E$0A@@glm@@QEAA@XZ
pdata	ENDS
;	COMDAT pdata
pdata	SEGMENT
$pdata$?length@?$tvec3@E$0A@@glm@@SAHXZ DD imagerel $LN3
	DD	imagerel $LN3+9
	DD	imagerel $unwind$?length@?$tvec3@E$0A@@glm@@SAHXZ
pdata	ENDS
;	COMDAT pdata
pdata	SEGMENT
$pdata$??A?$tvec3@E$0A@@glm@@QEBAAEBEH@Z DD imagerel $LN5
	DD	imagerel $LN5+82
	DD	imagerel $unwind$??A?$tvec3@E$0A@@glm@@QEBAAEBEH@Z
pdata	ENDS
;	COMDAT pdata
pdata	SEGMENT
$pdata$??0?$tvec3@E$0A@@glm@@QEAA@XZ DD imagerel $LN3
	DD	imagerel $LN3+39
	DD	imagerel $unwind$??0?$tvec3@E$0A@@glm@@QEAA@XZ
pdata	ENDS
;	COMDAT pdata
pdata	SEGMENT
$pdata$?length@?$tvec3@G$0A@@glm@@SAHXZ DD imagerel $LN3
	DD	imagerel $LN3+9
	DD	imagerel $unwind$?length@?$tvec3@G$0A@@glm@@SAHXZ
pdata	ENDS
;	COMDAT pdata
pdata	SEGMENT
$pdata$??A?$tvec3@G$0A@@glm@@QEBAAEBGH@Z DD imagerel $LN5
	DD	imagerel $LN5+80
	DD	imagerel $unwind$??A?$tvec3@G$0A@@glm@@QEBAAEBGH@Z
pdata	ENDS
;	COMDAT pdata
pdata	SEGMENT
$pdata$??0?$tvec3@G$0A@@glm@@QEAA@XZ DD imagerel $LN3
	DD	imagerel $LN3+45
	DD	imagerel $unwind$??0?$tvec3@G$0A@@glm@@QEAA@XZ
pdata	ENDS
;	COMDAT pdata
pdata	SEGMENT
$pdata$?length@?$tvec4@G$0A@@glm@@SAHXZ DD imagerel $LN3
	DD	imagerel $LN3+9
	DD	imagerel $unwind$?length@?$tvec4@G$0A@@glm@@SAHXZ
pdata	ENDS
;	COMDAT pdata
pdata	SEGMENT
$pdata$??A?$tvec4@G$0A@@glm@@QEBAAEBGH@Z DD imagerel $LN5
	DD	imagerel $LN5+80
	DD	imagerel $unwind$??A?$tvec4@G$0A@@glm@@QEBAAEBGH@Z
pdata	ENDS
;	COMDAT pdata
pdata	SEGMENT
$pdata$??0?$tvec4@G$0A@@glm@@QEAA@XZ DD imagerel $LN3
	DD	imagerel $LN3+56
	DD	imagerel $unwind$??0?$tvec4@G$0A@@glm@@QEAA@XZ
pdata	ENDS
;	COMDAT pdata
pdata	SEGMENT
$pdata$?length@?$tvec3@I$0A@@glm@@SAHXZ DD imagerel $LN3
	DD	imagerel $LN3+9
	DD	imagerel $unwind$?length@?$tvec3@I$0A@@glm@@SAHXZ
pdata	ENDS
;	COMDAT pdata
pdata	SEGMENT
$pdata$??A?$tvec3@I$0A@@glm@@QEBAAEBIH@Z DD imagerel $LN5
	DD	imagerel $LN5+80
	DD	imagerel $unwind$??A?$tvec3@I$0A@@glm@@QEBAAEBIH@Z
pdata	ENDS
;	COMDAT pdata
pdata	SEGMENT
$pdata$??0?$tvec3@I$0A@@glm@@QEAA@XZ DD imagerel $LN3
	DD	imagerel $LN3+48
	DD	imagerel $unwind$??0?$tvec3@I$0A@@glm@@QEAA@XZ
pdata	ENDS
;	COMDAT pdata
pdata	SEGMENT
$pdata$?length@?$tvec4@I$0A@@glm@@SAHXZ DD imagerel $LN3
	DD	imagerel $LN3+9
	DD	imagerel $unwind$?length@?$tvec4@I$0A@@glm@@SAHXZ
pdata	ENDS
;	COMDAT pdata
pdata	SEGMENT
$pdata$??A?$tvec4@I$0A@@glm@@QEBAAEBIH@Z DD imagerel $LN5
	DD	imagerel $LN5+80
	DD	imagerel $unwind$??A?$tvec4@I$0A@@glm@@QEBAAEBIH@Z
pdata	ENDS
;	COMDAT pdata
pdata	SEGMENT
$pdata$??0?$tvec4@I$0A@@glm@@QEAA@XZ DD imagerel $LN3
	DD	imagerel $LN3+60
	DD	imagerel $unwind$??0?$tvec4@I$0A@@glm@@QEAA@XZ
pdata	ENDS
;	COMDAT pdata
pdata	SEGMENT
$pdata$?length@?$tvec2@_K$0A@@glm@@SAHXZ DD imagerel $LN3
	DD	imagerel $LN3+9
	DD	imagerel $unwind$?length@?$tvec2@_K$0A@@glm@@SAHXZ
pdata	ENDS
;	COMDAT pdata
pdata	SEGMENT
$pdata$??A?$tvec2@_K$0A@@glm@@QEBAAEB_KH@Z DD imagerel $LN5
	DD	imagerel $LN5+80
	DD	imagerel $unwind$??A?$tvec2@_K$0A@@glm@@QEBAAEB_KH@Z
pdata	ENDS
;	COMDAT pdata
pdata	SEGMENT
$pdata$??0?$tvec2@_K$0A@@glm@@QEAA@XZ DD imagerel $LN3
	DD	imagerel $LN3+38
	DD	imagerel $unwind$??0?$tvec2@_K$0A@@glm@@QEAA@XZ
pdata	ENDS
;	COMDAT pdata
pdata	SEGMENT
$pdata$?length@?$tvec3@_K$0A@@glm@@SAHXZ DD imagerel $LN3
	DD	imagerel $LN3+9
	DD	imagerel $unwind$?length@?$tvec3@_K$0A@@glm@@SAHXZ
pdata	ENDS
;	COMDAT pdata
pdata	SEGMENT
$pdata$??A?$tvec3@_K$0A@@glm@@QEBAAEB_KH@Z DD imagerel $LN5
	DD	imagerel $LN5+80
	DD	imagerel $unwind$??A?$tvec3@_K$0A@@glm@@QEBAAEB_KH@Z
pdata	ENDS
;	COMDAT pdata
pdata	SEGMENT
$pdata$??0?$tvec3@_K$0A@@glm@@QEAA@XZ DD imagerel $LN3
	DD	imagerel $LN3+51
	DD	imagerel $unwind$??0?$tvec3@_K$0A@@glm@@QEAA@XZ
pdata	ENDS
;	COMDAT pdata
pdata	SEGMENT
$pdata$?length@?$tvec4@_K$0A@@glm@@SAHXZ DD imagerel $LN3
	DD	imagerel $LN3+9
	DD	imagerel $unwind$?length@?$tvec4@_K$0A@@glm@@SAHXZ
pdata	ENDS
;	COMDAT pdata
pdata	SEGMENT
$pdata$??A?$tvec4@_K$0A@@glm@@QEBAAEB_KH@Z DD imagerel $LN5
	DD	imagerel $LN5+80
	DD	imagerel $unwind$??A?$tvec4@_K$0A@@glm@@QEBAAEB_KH@Z
pdata	ENDS
;	COMDAT pdata
pdata	SEGMENT
$pdata$??0?$tvec4@_K$0A@@glm@@QEAA@XZ DD imagerel $LN3
	DD	imagerel $LN3+64
	DD	imagerel $unwind$??0?$tvec4@_K$0A@@glm@@QEAA@XZ
pdata	ENDS
pdata	SEGMENT
$pdata$?test_uvec_precision@@YAHXZ DD imagerel ?test_uvec_precision@@YAHXZ
	DD	imagerel ?test_uvec_precision@@YAHXZ+4769
	DD	imagerel $unwind$?test_uvec_precision@@YAHXZ
pdata	ENDS
;	COMDAT pdata
pdata	SEGMENT
$pdata$??$?0$0A@@?$tvec2@E$01@glm@@QEAA@AEBU?$tvec2@E$0A@@1@@Z DD imagerel $LN3
	DD	imagerel $LN3+50
	DD	imagerel $unwind$??$?0$0A@@?$tvec2@E$01@glm@@QEAA@AEBU?$tvec2@E$0A@@1@@Z
pdata	ENDS
;	COMDAT pdata
pdata	SEGMENT
$pdata$??$?0$0A@@?$tvec2@E$00@glm@@QEAA@AEBU?$tvec2@E$0A@@1@@Z DD imagerel $LN3
	DD	imagerel $LN3+50
	DD	imagerel $unwind$??$?0$0A@@?$tvec2@E$00@glm@@QEAA@AEBU?$tvec2@E$0A@@1@@Z
pdata	ENDS
;	COMDAT pdata
pdata	SEGMENT
$pdata$??$?0$01@?$tvec2@E$0A@@glm@@QEAA@AEBU?$tvec2@E$01@1@@Z DD imagerel $LN3
	DD	imagerel $LN3+50
	DD	imagerel $unwind$??$?0$01@?$tvec2@E$0A@@glm@@QEAA@AEBU?$tvec2@E$01@1@@Z
pdata	ENDS
;	COMDAT pdata
pdata	SEGMENT
$pdata$??$equal@E$0A@Utvec2@glm@@@glm@@YA?AU?$tvec2@_N$0A@@0@AEBU?$tvec2@E$0A@@0@0@Z DD imagerel $LN9
	DD	imagerel $LN9+267
	DD	imagerel $unwind$??$equal@E$0A@Utvec2@glm@@@glm@@YA?AU?$tvec2@_N$0A@@0@AEBU?$tvec2@E$0A@@0@0@Z
pdata	ENDS
;	COMDAT pdata
pdata	SEGMENT
$pdata$??$?0$00@?$tvec2@E$0A@@glm@@QEAA@AEBU?$tvec2@E$00@1@@Z DD imagerel $LN3
	DD	imagerel $LN3+50
	DD	imagerel $unwind$??$?0$00@?$tvec2@E$0A@@glm@@QEAA@AEBU?$tvec2@E$00@1@@Z
pdata	ENDS
;	COMDAT pdata
pdata	SEGMENT
$pdata$??$?0$0A@@?$tvec3@E$01@glm@@QEAA@AEBU?$tvec3@E$0A@@1@@Z DD imagerel $LN3
	DD	imagerel $LN3+67
	DD	imagerel $unwind$??$?0$0A@@?$tvec3@E$01@glm@@QEAA@AEBU?$tvec3@E$0A@@1@@Z
pdata	ENDS
;	COMDAT pdata
pdata	SEGMENT
$pdata$??$?0$0A@@?$tvec3@E$00@glm@@QEAA@AEBU?$tvec3@E$0A@@1@@Z DD imagerel $LN3
	DD	imagerel $LN3+67
	DD	imagerel $unwind$??$?0$0A@@?$tvec3@E$00@glm@@QEAA@AEBU?$tvec3@E$0A@@1@@Z
pdata	ENDS
;	COMDAT pdata
pdata	SEGMENT
$pdata$??$?0$01@?$tvec3@E$0A@@glm@@QEAA@AEBU?$tvec3@E$01@1@@Z DD imagerel $LN3
	DD	imagerel $LN3+67
	DD	imagerel $unwind$??$?0$01@?$tvec3@E$0A@@glm@@QEAA@AEBU?$tvec3@E$01@1@@Z
pdata	ENDS
;	COMDAT pdata
pdata	SEGMENT
$pdata$??$equal@E$0A@Utvec3@glm@@@glm@@YA?AU?$tvec3@_N$0A@@0@AEBU?$tvec3@E$0A@@0@0@Z DD imagerel $LN9
	DD	imagerel $LN9+279
	DD	imagerel $unwind$??$equal@E$0A@Utvec3@glm@@@glm@@YA?AU?$tvec3@_N$0A@@0@AEBU?$tvec3@E$0A@@0@0@Z
pdata	ENDS
;	COMDAT pdata
pdata	SEGMENT
$pdata$??$?0$00@?$tvec3@E$0A@@glm@@QEAA@AEBU?$tvec3@E$00@1@@Z DD imagerel $LN3
	DD	imagerel $LN3+67
	DD	imagerel $unwind$??$?0$00@?$tvec3@E$0A@@glm@@QEAA@AEBU?$tvec3@E$00@1@@Z
pdata	ENDS
;	COMDAT pdata
pdata	SEGMENT
$pdata$??$?0$0A@@?$tvec4@E$01@glm@@QEAA@AEBU?$tvec4@E$0A@@1@@Z DD imagerel $LN3
	DD	imagerel $LN3+84
	DD	imagerel $unwind$??$?0$0A@@?$tvec4@E$01@glm@@QEAA@AEBU?$tvec4@E$0A@@1@@Z
pdata	ENDS
;	COMDAT pdata
pdata	SEGMENT
$pdata$??$?0$0A@@?$tvec4@E$00@glm@@QEAA@AEBU?$tvec4@E$0A@@1@@Z DD imagerel $LN3
	DD	imagerel $LN3+84
	DD	imagerel $unwind$??$?0$0A@@?$tvec4@E$00@glm@@QEAA@AEBU?$tvec4@E$0A@@1@@Z
pdata	ENDS
;	COMDAT pdata
pdata	SEGMENT
$pdata$??$?0$01@?$tvec4@E$0A@@glm@@QEAA@AEBU?$tvec4@E$01@1@@Z DD imagerel $LN3
	DD	imagerel $LN3+84
	DD	imagerel $unwind$??$?0$01@?$tvec4@E$0A@@glm@@QEAA@AEBU?$tvec4@E$01@1@@Z
pdata	ENDS
;	COMDAT pdata
pdata	SEGMENT
$pdata$??$equal@E$0A@Utvec4@glm@@@glm@@YA?AU?$tvec4@_N$0A@@0@AEBU?$tvec4@E$0A@@0@0@Z DD imagerel $LN9
	DD	imagerel $LN9+265
	DD	imagerel $unwind$??$equal@E$0A@Utvec4@glm@@@glm@@YA?AU?$tvec4@_N$0A@@0@AEBU?$tvec4@E$0A@@0@0@Z
pdata	ENDS
;	COMDAT pdata
pdata	SEGMENT
$pdata$??$?0$00@?$tvec4@E$0A@@glm@@QEAA@AEBU?$tvec4@E$00@1@@Z DD imagerel $LN3
	DD	imagerel $LN3+84
	DD	imagerel $unwind$??$?0$00@?$tvec4@E$0A@@glm@@QEAA@AEBU?$tvec4@E$00@1@@Z
pdata	ENDS
;	COMDAT pdata
pdata	SEGMENT
$pdata$??$?0$0A@@?$tvec2@G$01@glm@@QEAA@AEBU?$tvec2@G$0A@@1@@Z DD imagerel $LN3
	DD	imagerel $LN3+52
	DD	imagerel $unwind$??$?0$0A@@?$tvec2@G$01@glm@@QEAA@AEBU?$tvec2@G$0A@@1@@Z
pdata	ENDS
;	COMDAT pdata
pdata	SEGMENT
$pdata$??$?0$0A@@?$tvec2@G$00@glm@@QEAA@AEBU?$tvec2@G$0A@@1@@Z DD imagerel $LN3
	DD	imagerel $LN3+52
	DD	imagerel $unwind$??$?0$0A@@?$tvec2@G$00@glm@@QEAA@AEBU?$tvec2@G$0A@@1@@Z
pdata	ENDS
;	COMDAT pdata
pdata	SEGMENT
$pdata$??$?0$01@?$tvec2@G$0A@@glm@@QEAA@AEBU?$tvec2@G$01@1@@Z DD imagerel $LN3
	DD	imagerel $LN3+52
	DD	imagerel $unwind$??$?0$01@?$tvec2@G$0A@@glm@@QEAA@AEBU?$tvec2@G$01@1@@Z
pdata	ENDS
;	COMDAT pdata
pdata	SEGMENT
$pdata$??$equal@G$0A@Utvec2@glm@@@glm@@YA?AU?$tvec2@_N$0A@@0@AEBU?$tvec2@G$0A@@0@0@Z DD imagerel $LN9
	DD	imagerel $LN9+267
	DD	imagerel $unwind$??$equal@G$0A@Utvec2@glm@@@glm@@YA?AU?$tvec2@_N$0A@@0@AEBU?$tvec2@G$0A@@0@0@Z
pdata	ENDS
;	COMDAT pdata
pdata	SEGMENT
$pdata$??$?0$00@?$tvec2@G$0A@@glm@@QEAA@AEBU?$tvec2@G$00@1@@Z DD imagerel $LN3
	DD	imagerel $LN3+52
	DD	imagerel $unwind$??$?0$00@?$tvec2@G$0A@@glm@@QEAA@AEBU?$tvec2@G$00@1@@Z
pdata	ENDS
;	COMDAT pdata
pdata	SEGMENT
$pdata$??$?0$0A@@?$tvec3@G$01@glm@@QEAA@AEBU?$tvec3@G$0A@@1@@Z DD imagerel $LN3
	DD	imagerel $LN3+70
	DD	imagerel $unwind$??$?0$0A@@?$tvec3@G$01@glm@@QEAA@AEBU?$tvec3@G$0A@@1@@Z
pdata	ENDS
;	COMDAT pdata
pdata	SEGMENT
$pdata$??$?0$0A@@?$tvec3@G$00@glm@@QEAA@AEBU?$tvec3@G$0A@@1@@Z DD imagerel $LN3
	DD	imagerel $LN3+70
	DD	imagerel $unwind$??$?0$0A@@?$tvec3@G$00@glm@@QEAA@AEBU?$tvec3@G$0A@@1@@Z
pdata	ENDS
;	COMDAT pdata
pdata	SEGMENT
$pdata$??$?0$01@?$tvec3@G$0A@@glm@@QEAA@AEBU?$tvec3@G$01@1@@Z DD imagerel $LN3
	DD	imagerel $LN3+70
	DD	imagerel $unwind$??$?0$01@?$tvec3@G$0A@@glm@@QEAA@AEBU?$tvec3@G$01@1@@Z
pdata	ENDS
;	COMDAT pdata
pdata	SEGMENT
$pdata$??$equal@G$0A@Utvec3@glm@@@glm@@YA?AU?$tvec3@_N$0A@@0@AEBU?$tvec3@G$0A@@0@0@Z DD imagerel $LN9
	DD	imagerel $LN9+279
	DD	imagerel $unwind$??$equal@G$0A@Utvec3@glm@@@glm@@YA?AU?$tvec3@_N$0A@@0@AEBU?$tvec3@G$0A@@0@0@Z
pdata	ENDS
;	COMDAT pdata
pdata	SEGMENT
$pdata$??$?0$00@?$tvec3@G$0A@@glm@@QEAA@AEBU?$tvec3@G$00@1@@Z DD imagerel $LN3
	DD	imagerel $LN3+70
	DD	imagerel $unwind$??$?0$00@?$tvec3@G$0A@@glm@@QEAA@AEBU?$tvec3@G$00@1@@Z
pdata	ENDS
;	COMDAT pdata
pdata	SEGMENT
$pdata$??$?0$0A@@?$tvec4@G$01@glm@@QEAA@AEBU?$tvec4@G$0A@@1@@Z DD imagerel $LN3
	DD	imagerel $LN3+88
	DD	imagerel $unwind$??$?0$0A@@?$tvec4@G$01@glm@@QEAA@AEBU?$tvec4@G$0A@@1@@Z
pdata	ENDS
;	COMDAT pdata
pdata	SEGMENT
$pdata$??$?0$0A@@?$tvec4@G$00@glm@@QEAA@AEBU?$tvec4@G$0A@@1@@Z DD imagerel $LN3
	DD	imagerel $LN3+88
	DD	imagerel $unwind$??$?0$0A@@?$tvec4@G$00@glm@@QEAA@AEBU?$tvec4@G$0A@@1@@Z
pdata	ENDS
;	COMDAT pdata
pdata	SEGMENT
$pdata$??$?0$01@?$tvec4@G$0A@@glm@@QEAA@AEBU?$tvec4@G$01@1@@Z DD imagerel $LN3
	DD	imagerel $LN3+88
	DD	imagerel $unwind$??$?0$01@?$tvec4@G$0A@@glm@@QEAA@AEBU?$tvec4@G$01@1@@Z
pdata	ENDS
;	COMDAT pdata
pdata	SEGMENT
$pdata$??$equal@G$0A@Utvec4@glm@@@glm@@YA?AU?$tvec4@_N$0A@@0@AEBU?$tvec4@G$0A@@0@0@Z DD imagerel $LN9
	DD	imagerel $LN9+265
	DD	imagerel $unwind$??$equal@G$0A@Utvec4@glm@@@glm@@YA?AU?$tvec4@_N$0A@@0@AEBU?$tvec4@G$0A@@0@0@Z
pdata	ENDS
;	COMDAT pdata
pdata	SEGMENT
$pdata$??$?0$00@?$tvec4@G$0A@@glm@@QEAA@AEBU?$tvec4@G$00@1@@Z DD imagerel $LN3
	DD	imagerel $LN3+88
	DD	imagerel $unwind$??$?0$00@?$tvec4@G$0A@@glm@@QEAA@AEBU?$tvec4@G$00@1@@Z
pdata	ENDS
;	COMDAT pdata
pdata	SEGMENT
$pdata$??$?0$0A@@?$tvec2@I$01@glm@@QEAA@AEBU?$tvec2@I$0A@@1@@Z DD imagerel $LN3
	DD	imagerel $LN3+48
	DD	imagerel $unwind$??$?0$0A@@?$tvec2@I$01@glm@@QEAA@AEBU?$tvec2@I$0A@@1@@Z
pdata	ENDS
;	COMDAT pdata
pdata	SEGMENT
$pdata$??$?0$0A@@?$tvec2@I$00@glm@@QEAA@AEBU?$tvec2@I$0A@@1@@Z DD imagerel $LN3
	DD	imagerel $LN3+48
	DD	imagerel $unwind$??$?0$0A@@?$tvec2@I$00@glm@@QEAA@AEBU?$tvec2@I$0A@@1@@Z
pdata	ENDS
;	COMDAT pdata
pdata	SEGMENT
$pdata$??$?0$01@?$tvec2@I$0A@@glm@@QEAA@AEBU?$tvec2@I$01@1@@Z DD imagerel $LN3
	DD	imagerel $LN3+48
	DD	imagerel $unwind$??$?0$01@?$tvec2@I$0A@@glm@@QEAA@AEBU?$tvec2@I$01@1@@Z
pdata	ENDS
;	COMDAT pdata
pdata	SEGMENT
$pdata$??$equal@I$0A@Utvec2@glm@@@glm@@YA?AU?$tvec2@_N$0A@@0@AEBU?$tvec2@I$0A@@0@0@Z DD imagerel $LN9
	DD	imagerel $LN9+265
	DD	imagerel $unwind$??$equal@I$0A@Utvec2@glm@@@glm@@YA?AU?$tvec2@_N$0A@@0@AEBU?$tvec2@I$0A@@0@0@Z
pdata	ENDS
;	COMDAT pdata
pdata	SEGMENT
$pdata$??$?0$00@?$tvec2@I$0A@@glm@@QEAA@AEBU?$tvec2@I$00@1@@Z DD imagerel $LN3
	DD	imagerel $LN3+48
	DD	imagerel $unwind$??$?0$00@?$tvec2@I$0A@@glm@@QEAA@AEBU?$tvec2@I$00@1@@Z
pdata	ENDS
;	COMDAT pdata
pdata	SEGMENT
$pdata$??$?0$0A@@?$tvec3@I$01@glm@@QEAA@AEBU?$tvec3@I$0A@@1@@Z DD imagerel $LN3
	DD	imagerel $LN3+64
	DD	imagerel $unwind$??$?0$0A@@?$tvec3@I$01@glm@@QEAA@AEBU?$tvec3@I$0A@@1@@Z
pdata	ENDS
;	COMDAT pdata
pdata	SEGMENT
$pdata$??$?0$0A@@?$tvec3@I$00@glm@@QEAA@AEBU?$tvec3@I$0A@@1@@Z DD imagerel $LN3
	DD	imagerel $LN3+64
	DD	imagerel $unwind$??$?0$0A@@?$tvec3@I$00@glm@@QEAA@AEBU?$tvec3@I$0A@@1@@Z
pdata	ENDS
;	COMDAT pdata
pdata	SEGMENT
$pdata$??$?0$01@?$tvec3@I$0A@@glm@@QEAA@AEBU?$tvec3@I$01@1@@Z DD imagerel $LN3
	DD	imagerel $LN3+64
	DD	imagerel $unwind$??$?0$01@?$tvec3@I$0A@@glm@@QEAA@AEBU?$tvec3@I$01@1@@Z
pdata	ENDS
;	COMDAT pdata
pdata	SEGMENT
$pdata$??$equal@I$0A@Utvec3@glm@@@glm@@YA?AU?$tvec3@_N$0A@@0@AEBU?$tvec3@I$0A@@0@0@Z DD imagerel $LN9
	DD	imagerel $LN9+277
	DD	imagerel $unwind$??$equal@I$0A@Utvec3@glm@@@glm@@YA?AU?$tvec3@_N$0A@@0@AEBU?$tvec3@I$0A@@0@0@Z
pdata	ENDS
;	COMDAT pdata
pdata	SEGMENT
$pdata$??$?0$00@?$tvec3@I$0A@@glm@@QEAA@AEBU?$tvec3@I$00@1@@Z DD imagerel $LN3
	DD	imagerel $LN3+64
	DD	imagerel $unwind$??$?0$00@?$tvec3@I$0A@@glm@@QEAA@AEBU?$tvec3@I$00@1@@Z
pdata	ENDS
;	COMDAT pdata
pdata	SEGMENT
$pdata$??$?0$0A@@?$tvec4@I$01@glm@@QEAA@AEBU?$tvec4@I$0A@@1@@Z DD imagerel $LN3
	DD	imagerel $LN3+80
	DD	imagerel $unwind$??$?0$0A@@?$tvec4@I$01@glm@@QEAA@AEBU?$tvec4@I$0A@@1@@Z
pdata	ENDS
;	COMDAT pdata
pdata	SEGMENT
$pdata$??$?0$0A@@?$tvec4@I$00@glm@@QEAA@AEBU?$tvec4@I$0A@@1@@Z DD imagerel $LN3
	DD	imagerel $LN3+80
	DD	imagerel $unwind$??$?0$0A@@?$tvec4@I$00@glm@@QEAA@AEBU?$tvec4@I$0A@@1@@Z
pdata	ENDS
;	COMDAT pdata
pdata	SEGMENT
$pdata$??$?0$01@?$tvec4@I$0A@@glm@@QEAA@AEBU?$tvec4@I$01@1@@Z DD imagerel $LN3
	DD	imagerel $LN3+80
	DD	imagerel $unwind$??$?0$01@?$tvec4@I$0A@@glm@@QEAA@AEBU?$tvec4@I$01@1@@Z
pdata	ENDS
;	COMDAT pdata
pdata	SEGMENT
$pdata$??$equal@I$0A@Utvec4@glm@@@glm@@YA?AU?$tvec4@_N$0A@@0@AEBU?$tvec4@I$0A@@0@0@Z DD imagerel $LN9
	DD	imagerel $LN9+263
	DD	imagerel $unwind$??$equal@I$0A@Utvec4@glm@@@glm@@YA?AU?$tvec4@_N$0A@@0@AEBU?$tvec4@I$0A@@0@0@Z
pdata	ENDS
;	COMDAT pdata
pdata	SEGMENT
$pdata$??$?0$00@?$tvec4@I$0A@@glm@@QEAA@AEBU?$tvec4@I$00@1@@Z DD imagerel $LN3
	DD	imagerel $LN3+80
	DD	imagerel $unwind$??$?0$00@?$tvec4@I$0A@@glm@@QEAA@AEBU?$tvec4@I$00@1@@Z
pdata	ENDS
;	COMDAT pdata
pdata	SEGMENT
$pdata$??$?0$0A@@?$tvec2@_K$01@glm@@QEAA@AEBU?$tvec2@_K$0A@@1@@Z DD imagerel $LN3
	DD	imagerel $LN3+52
	DD	imagerel $unwind$??$?0$0A@@?$tvec2@_K$01@glm@@QEAA@AEBU?$tvec2@_K$0A@@1@@Z
pdata	ENDS
;	COMDAT pdata
pdata	SEGMENT
$pdata$??$?0$0A@@?$tvec2@_K$00@glm@@QEAA@AEBU?$tvec2@_K$0A@@1@@Z DD imagerel $LN3
	DD	imagerel $LN3+52
	DD	imagerel $unwind$??$?0$0A@@?$tvec2@_K$00@glm@@QEAA@AEBU?$tvec2@_K$0A@@1@@Z
pdata	ENDS
;	COMDAT pdata
pdata	SEGMENT
$pdata$??$?0$01@?$tvec2@_K$0A@@glm@@QEAA@AEBU?$tvec2@_K$01@1@@Z DD imagerel $LN3
	DD	imagerel $LN3+52
	DD	imagerel $unwind$??$?0$01@?$tvec2@_K$0A@@glm@@QEAA@AEBU?$tvec2@_K$01@1@@Z
pdata	ENDS
;	COMDAT pdata
pdata	SEGMENT
$pdata$??$equal@_K$0A@Utvec2@glm@@@glm@@YA?AU?$tvec2@_N$0A@@0@AEBU?$tvec2@_K$0A@@0@0@Z DD imagerel $LN9
	DD	imagerel $LN9+267
	DD	imagerel $unwind$??$equal@_K$0A@Utvec2@glm@@@glm@@YA?AU?$tvec2@_N$0A@@0@AEBU?$tvec2@_K$0A@@0@0@Z
pdata	ENDS
;	COMDAT pdata
pdata	SEGMENT
$pdata$??$?0$00@?$tvec2@_K$0A@@glm@@QEAA@AEBU?$tvec2@_K$00@1@@Z DD imagerel $LN3
	DD	imagerel $LN3+52
	DD	imagerel $unwind$??$?0$00@?$tvec2@_K$0A@@glm@@QEAA@AEBU?$tvec2@_K$00@1@@Z
pdata	ENDS
;	COMDAT pdata
pdata	SEGMENT
$pdata$??$?0$0A@@?$tvec3@_K$01@glm@@QEAA@AEBU?$tvec3@_K$0A@@1@@Z DD imagerel $LN3
	DD	imagerel $LN3+70
	DD	imagerel $unwind$??$?0$0A@@?$tvec3@_K$01@glm@@QEAA@AEBU?$tvec3@_K$0A@@1@@Z
pdata	ENDS
;	COMDAT pdata
pdata	SEGMENT
$pdata$??$?0$0A@@?$tvec3@_K$00@glm@@QEAA@AEBU?$tvec3@_K$0A@@1@@Z DD imagerel $LN3
	DD	imagerel $LN3+70
	DD	imagerel $unwind$??$?0$0A@@?$tvec3@_K$00@glm@@QEAA@AEBU?$tvec3@_K$0A@@1@@Z
pdata	ENDS
;	COMDAT pdata
pdata	SEGMENT
$pdata$??$?0$01@?$tvec3@_K$0A@@glm@@QEAA@AEBU?$tvec3@_K$01@1@@Z DD imagerel $LN3
	DD	imagerel $LN3+70
	DD	imagerel $unwind$??$?0$01@?$tvec3@_K$0A@@glm@@QEAA@AEBU?$tvec3@_K$01@1@@Z
pdata	ENDS
;	COMDAT pdata
pdata	SEGMENT
$pdata$??$equal@_K$0A@Utvec3@glm@@@glm@@YA?AU?$tvec3@_N$0A@@0@AEBU?$tvec3@_K$0A@@0@0@Z DD imagerel $LN9
	DD	imagerel $LN9+279
	DD	imagerel $unwind$??$equal@_K$0A@Utvec3@glm@@@glm@@YA?AU?$tvec3@_N$0A@@0@AEBU?$tvec3@_K$0A@@0@0@Z
pdata	ENDS
;	COMDAT pdata
pdata	SEGMENT
$pdata$??$?0$00@?$tvec3@_K$0A@@glm@@QEAA@AEBU?$tvec3@_K$00@1@@Z DD imagerel $LN3
	DD	imagerel $LN3+70
	DD	imagerel $unwind$??$?0$00@?$tvec3@_K$0A@@glm@@QEAA@AEBU?$tvec3@_K$00@1@@Z
pdata	ENDS
;	COMDAT pdata
pdata	SEGMENT
$pdata$??$?0$0A@@?$tvec4@_K$01@glm@@QEAA@AEBU?$tvec4@_K$0A@@1@@Z DD imagerel $LN3
	DD	imagerel $LN3+88
	DD	imagerel $unwind$??$?0$0A@@?$tvec4@_K$01@glm@@QEAA@AEBU?$tvec4@_K$0A@@1@@Z
pdata	ENDS
;	COMDAT pdata
pdata	SEGMENT
$pdata$??$?0$0A@@?$tvec4@_K$00@glm@@QEAA@AEBU?$tvec4@_K$0A@@1@@Z DD imagerel $LN3
	DD	imagerel $LN3+88
	DD	imagerel $unwind$??$?0$0A@@?$tvec4@_K$00@glm@@QEAA@AEBU?$tvec4@_K$0A@@1@@Z
pdata	ENDS
;	COMDAT pdata
pdata	SEGMENT
$pdata$??$?0$01@?$tvec4@_K$0A@@glm@@QEAA@AEBU?$tvec4@_K$01@1@@Z DD imagerel $LN3
	DD	imagerel $LN3+88
	DD	imagerel $unwind$??$?0$01@?$tvec4@_K$0A@@glm@@QEAA@AEBU?$tvec4@_K$01@1@@Z
pdata	ENDS
;	COMDAT pdata
pdata	SEGMENT
$pdata$??$equal@_K$0A@Utvec4@glm@@@glm@@YA?AU?$tvec4@_N$0A@@0@AEBU?$tvec4@_K$0A@@0@0@Z DD imagerel $LN9
	DD	imagerel $LN9+265
	DD	imagerel $unwind$??$equal@_K$0A@Utvec4@glm@@@glm@@YA?AU?$tvec4@_N$0A@@0@AEBU?$tvec4@_K$0A@@0@0@Z
pdata	ENDS
;	COMDAT pdata
pdata	SEGMENT
$pdata$??$?0$00@?$tvec4@_K$0A@@glm@@QEAA@AEBU?$tvec4@_K$00@1@@Z DD imagerel $LN3
	DD	imagerel $LN3+88
	DD	imagerel $unwind$??$?0$00@?$tvec4@_K$0A@@glm@@QEAA@AEBU?$tvec4@_K$00@1@@Z
pdata	ENDS
pdata	SEGMENT
$pdata$?test_fmat_size@@YAHXZ DD imagerel ?test_fmat_size@@YAHXZ
	DD	imagerel ?test_fmat_size@@YAHXZ+886
	DD	imagerel $unwind$?test_fmat_size@@YAHXZ
$pdata$?test_dmat_size@@YAHXZ DD imagerel ?test_dmat_size@@YAHXZ
	DD	imagerel ?test_dmat_size@@YAHXZ+310
	DD	imagerel $unwind$?test_dmat_size@@YAHXZ
$pdata$?test_quat_size@@YAHXZ DD imagerel ?test_quat_size@@YAHXZ
	DD	imagerel ?test_quat_size@@YAHXZ+70
	DD	imagerel $unwind$?test_quat_size@@YAHXZ
pdata	ENDS
;	COMDAT pdata
pdata	SEGMENT
$pdata$?length@?$tquat@M$0A@@glm@@SAHXZ DD imagerel $LN3
	DD	imagerel $LN3+9
	DD	imagerel $unwind$?length@?$tquat@M$0A@@glm@@SAHXZ
pdata	ENDS
;	COMDAT pdata
pdata	SEGMENT
$pdata$??A?$tquat@M$0A@@glm@@QEBAAEBMH@Z DD imagerel $LN5
	DD	imagerel $LN5+80
	DD	imagerel $unwind$??A?$tquat@M$0A@@glm@@QEBAAEBMH@Z
pdata	ENDS
;	COMDAT pdata
pdata	SEGMENT
$pdata$??0?$tquat@M$0A@@glm@@QEAA@XZ DD imagerel $LN3
	DD	imagerel $LN3+69
	DD	imagerel $unwind$??0?$tquat@M$0A@@glm@@QEAA@XZ
pdata	ENDS
pdata	SEGMENT
$pdata$?test_quat_precision@@YAHXZ DD imagerel ?test_quat_precision@@YAHXZ
	DD	imagerel ?test_quat_precision@@YAHXZ+457
	DD	imagerel $unwind$?test_quat_precision@@YAHXZ
pdata	ENDS
;	COMDAT pdata
pdata	SEGMENT
$pdata$??$?0$0A@@?$tquat@M$01@glm@@QEAA@AEBU?$tquat@M$0A@@1@@Z DD imagerel $LN3
	DD	imagerel $LN3+96
	DD	imagerel $unwind$??$?0$0A@@?$tquat@M$01@glm@@QEAA@AEBU?$tquat@M$0A@@1@@Z
pdata	ENDS
;	COMDAT pdata
pdata	SEGMENT
$pdata$??$?0$0A@@?$tquat@M$00@glm@@QEAA@AEBU?$tquat@M$0A@@1@@Z DD imagerel $LN3
	DD	imagerel $LN3+96
	DD	imagerel $unwind$??$?0$0A@@?$tquat@M$00@glm@@QEAA@AEBU?$tquat@M$0A@@1@@Z
pdata	ENDS
;	COMDAT pdata
pdata	SEGMENT
$pdata$??$?0$01@?$tquat@M$0A@@glm@@QEAA@AEBU?$tquat@M$01@1@@Z DD imagerel $LN3
	DD	imagerel $LN3+96
	DD	imagerel $unwind$??$?0$01@?$tquat@M$0A@@glm@@QEAA@AEBU?$tquat@M$01@1@@Z
pdata	ENDS
;	COMDAT pdata
pdata	SEGMENT
$pdata$??$?0$00@?$tquat@M$0A@@glm@@QEAA@AEBU?$tquat@M$00@1@@Z DD imagerel $LN3
	DD	imagerel $LN3+96
	DD	imagerel $unwind$??$?0$00@?$tquat@M$0A@@glm@@QEAA@AEBU?$tquat@M$00@1@@Z
pdata	ENDS
;	COMDAT pdata
pdata	SEGMENT
$pdata$??$equal@M$0A@@glm@@YA?AU?$tvec4@_N$0A@@0@AEBU?$tquat@M$0A@@0@0@Z DD imagerel $LN8
	DD	imagerel $LN8+218
	DD	imagerel $unwind$??$equal@M$0A@@glm@@YA?AU?$tvec4@_N$0A@@0@AEBU?$tquat@M$0A@@0@0@Z
pdata	ENDS
pdata	SEGMENT
$pdata$?test_fvec_conversion@@YAHXZ DD imagerel ?test_fvec_conversion@@YAHXZ
	DD	imagerel ?test_fvec_conversion@@YAHXZ+349
	DD	imagerel $unwind$?test_fvec_conversion@@YAHXZ
pdata	ENDS
;	COMDAT pdata
pdata	SEGMENT
$pdata$??$?0HHHH@?$tvec4@M$0A@@glm@@QEAA@HHHH@Z DD imagerel $LN3
	DD	imagerel $LN3+90
	DD	imagerel $unwind$??$?0HHHH@?$tvec4@M$0A@@glm@@QEAA@HHHH@Z
pdata	ENDS
;	COMDAT pdata
pdata	SEGMENT
$pdata$??$?0$00@?$tvec4@M$01@glm@@QEAA@AEBU?$tvec4@M$00@1@@Z DD imagerel $LN3
	DD	imagerel $LN3+96
	DD	imagerel $unwind$??$?0$00@?$tvec4@M$01@glm@@QEAA@AEBU?$tvec4@M$00@1@@Z
pdata	ENDS
;	COMDAT pdata
pdata	SEGMENT
$pdata$??$?0$01@?$tvec4@M$00@glm@@QEAA@AEBU?$tvec4@M$01@1@@Z DD imagerel $LN3
	DD	imagerel $LN3+96
	DD	imagerel $unwind$??$?0$01@?$tvec4@M$00@glm@@QEAA@AEBU?$tvec4@M$01@1@@Z
pdata	ENDS
;	COMDAT pdata
pdata	SEGMENT
$pdata$??$?0M$00@?$tvec4@H$0A@@glm@@QEAA@AEBU?$tvec4@M$00@1@@Z DD imagerel $LN3
	DD	imagerel $LN3+88
	DD	imagerel $unwind$??$?0M$00@?$tvec4@H$0A@@glm@@QEAA@AEBU?$tvec4@M$00@1@@Z
pdata	ENDS
;	COMDAT pdata
pdata	SEGMENT
$pdata$??$?0H$01@?$tvec3@H$0A@@glm@@QEAA@AEBU?$tvec4@H$01@1@@Z DD imagerel $LN3
	DD	imagerel $LN3+64
	DD	imagerel $unwind$??$?0H$01@?$tvec3@H$0A@@glm@@QEAA@AEBU?$tvec4@H$01@1@@Z
pdata	ENDS
;	COMDAT pdata
pdata	SEGMENT
$pdata$??$equal@M$00Utvec4@glm@@@glm@@YA?AU?$tvec4@_N$00@0@AEBU?$tvec4@M$00@0@0@Z DD imagerel $LN9
	DD	imagerel $LN9+268
	DD	imagerel $unwind$??$equal@M$00Utvec4@glm@@@glm@@YA?AU?$tvec4@_N$00@0@AEBU?$tvec4@M$00@0@0@Z
pdata	ENDS
;	COMDAT pdata
pdata	SEGMENT
$pdata$?length@?$tvec4@_N$00@glm@@SAHXZ DD imagerel $LN3
	DD	imagerel $LN3+9
	DD	imagerel $unwind$?length@?$tvec4@_N$00@glm@@SAHXZ
pdata	ENDS
;	COMDAT pdata
pdata	SEGMENT
$pdata$??A?$tvec4@_N$00@glm@@QEAAAEA_NH@Z DD imagerel $LN5
	DD	imagerel $LN5+82
	DD	imagerel $unwind$??A?$tvec4@_N$00@glm@@QEAAAEA_NH@Z
pdata	ENDS
;	COMDAT pdata
pdata	SEGMENT
$pdata$??A?$tvec4@_N$00@glm@@QEBAAEB_NH@Z DD imagerel $LN5
	DD	imagerel $LN5+82
	DD	imagerel $unwind$??A?$tvec4@_N$00@glm@@QEBAAEB_NH@Z
pdata	ENDS
;	COMDAT pdata
pdata	SEGMENT
$pdata$??0?$tvec4@_N$00@glm@@QEAA@W4ctor@1@@Z DD imagerel $LN3
	DD	imagerel $LN3+17
	DD	imagerel $unwind$??0?$tvec4@_N$00@glm@@QEAA@W4ctor@1@@Z
pdata	ENDS
;	COMDAT pdata
pdata	SEGMENT
$pdata$??$all@$00Utvec4@glm@@@glm@@YA_NAEBU?$tvec4@_N$00@0@@Z DD imagerel $LN8
	DD	imagerel $LN8+116
	DD	imagerel $unwind$??$all@$00Utvec4@glm@@@glm@@YA_NAEBU?$tvec4@_N$00@0@@Z
pdata	ENDS
pdata	SEGMENT
$pdata$?test_openmp@@YAHXZ DD imagerel ?test_openmp@@YAHXZ
	DD	imagerel ?test_openmp@@YAHXZ+634
	DD	imagerel $unwind$?test_openmp@@YAHXZ
pdata	ENDS
pdata	SEGMENT
$pdata$?dtor$0@?0??test_openmp@@YAHXZ@4HA DD imagerel ?dtor$0@?0??test_openmp@@YAHXZ@4HA
	DD	imagerel ?dtor$0@?0??test_openmp@@YAHXZ@4HA+35
	DD	imagerel $unwind$?dtor$0@?0??test_openmp@@YAHXZ@4HA
$pdata$?dtor$1@?0??test_openmp@@YAHXZ@4HA DD imagerel ?dtor$1@?0??test_openmp@@YAHXZ@4HA
	DD	imagerel ?dtor$1@?0??test_openmp@@YAHXZ@4HA+35
	DD	imagerel $unwind$?dtor$1@?0??test_openmp@@YAHXZ@4HA
$pdata$?dtor$2@?0??test_openmp@@YAHXZ@4HA DD imagerel ?dtor$2@?0??test_openmp@@YAHXZ@4HA
	DD	imagerel ?dtor$2@?0??test_openmp@@YAHXZ@4HA+38
	DD	imagerel $unwind$?dtor$2@?0??test_openmp@@YAHXZ@4HA
pdata	ENDS
;	COMDAT pdata
pdata	SEGMENT
$pdata$??0?$allocator@U?$tvec3@E$0A@@glm@@@std@@QEAA@XZ DD imagerel $LN3
	DD	imagerel $LN3+13
	DD	imagerel $unwind$??0?$allocator@U?$tvec3@E$0A@@glm@@@std@@QEAA@XZ
pdata	ENDS
;	COMDAT pdata
pdata	SEGMENT
$pdata$?deallocate@?$allocator@U?$tvec3@E$0A@@glm@@@std@@QEAAXQEAU?$tvec3@E$0A@@glm@@_K@Z DD imagerel $LN13
	DD	imagerel $LN13+180
	DD	imagerel $unwind$?deallocate@?$allocator@U?$tvec3@E$0A@@glm@@@std@@QEAAXQEAU?$tvec3@E$0A@@glm@@_K@Z
pdata	ENDS
;	COMDAT pdata
pdata	SEGMENT
$pdata$?allocate@?$allocator@U?$tvec3@E$0A@@glm@@@std@@QEAAPEAU?$tvec3@E$0A@@glm@@_K@Z DD imagerel $LN3
	DD	imagerel $LN3+39
	DD	imagerel $unwind$?allocate@?$allocator@U?$tvec3@E$0A@@glm@@@std@@QEAAPEAU?$tvec3@E$0A@@glm@@_K@Z
pdata	ENDS
;	COMDAT pdata
pdata	SEGMENT
$pdata$?max_size@?$_Default_allocator_traits@V?$allocator@U?$tvec3@E$0A@@glm@@@std@@@std@@SA_KAEBV?$allocator@U?$tvec3@E$0A@@glm@@@2@@Z DD imagerel $LN3
	DD	imagerel $LN3+18
	DD	imagerel $unwind$?max_size@?$_Default_allocator_traits@V?$allocator@U?$tvec3@E$0A@@glm@@@std@@@std@@SA_KAEBV?$allocator@U?$tvec3@E$0A@@glm@@@2@@Z
pdata	ENDS
;	COMDAT pdata
pdata	SEGMENT
$pdata$??0?$vector@U?$tvec3@E$0A@@glm@@V?$allocator@U?$tvec3@E$0A@@glm@@@std@@@std@@QEAA@_KAEBV?$allocator@U?$tvec3@E$0A@@glm@@@1@@Z DD imagerel $LN3
	DD	imagerel $LN3+69
	DD	imagerel $unwind$??0?$vector@U?$tvec3@E$0A@@glm@@V?$allocator@U?$tvec3@E$0A@@glm@@@std@@@std@@QEAA@_KAEBV?$allocator@U?$tvec3@E$0A@@glm@@@1@@Z
pdata	ENDS
;	COMDAT pdata
pdata	SEGMENT
$pdata$??1?$vector@U?$tvec3@E$0A@@glm@@V?$allocator@U?$tvec3@E$0A@@glm@@@std@@@std@@QEAA@XZ DD imagerel $LN3
	DD	imagerel $LN3+136
	DD	imagerel $unwind$??1?$vector@U?$tvec3@E$0A@@glm@@V?$allocator@U?$tvec3@E$0A@@glm@@@std@@@std@@QEAA@XZ
pdata	ENDS
;	COMDAT pdata
pdata	SEGMENT
$pdata$?size@?$vector@U?$tvec3@E$0A@@glm@@V?$allocator@U?$tvec3@E$0A@@glm@@@std@@@std@@QEBA_KXZ DD imagerel $LN3
	DD	imagerel $LN3+54
	DD	imagerel $unwind$?size@?$vector@U?$tvec3@E$0A@@glm@@V?$allocator@U?$tvec3@E$0A@@glm@@@std@@@std@@QEBA_KXZ
pdata	ENDS
;	COMDAT pdata
pdata	SEGMENT
$pdata$?max_size@?$vector@U?$tvec3@E$0A@@glm@@V?$allocator@U?$tvec3@E$0A@@glm@@@std@@@std@@QEBA_KXZ DD imagerel $LN3
	DD	imagerel $LN3+67
	DD	imagerel $unwind$?max_size@?$vector@U?$tvec3@E$0A@@glm@@V?$allocator@U?$tvec3@E$0A@@glm@@@std@@@std@@QEBA_KXZ
pdata	ENDS
;	COMDAT pdata
pdata	SEGMENT
$pdata$??A?$vector@U?$tvec3@E$0A@@glm@@V?$allocator@U?$tvec3@E$0A@@glm@@@std@@@std@@QEAAAEAU?$tvec3@E$0A@@glm@@_K@Z DD imagerel $LN12
	DD	imagerel $LN12+203
	DD	imagerel $unwind$??A?$vector@U?$tvec3@E$0A@@glm@@V?$allocator@U?$tvec3@E$0A@@glm@@@std@@@std@@QEAAAEAU?$tvec3@E$0A@@glm@@_K@Z
pdata	ENDS
;	COMDAT pdata
pdata	SEGMENT
$pdata$?_Buy_raw@?$vector@U?$tvec3@E$0A@@glm@@V?$allocator@U?$tvec3@E$0A@@glm@@@std@@@std@@AEAAX_K@Z DD imagerel $LN3
	DD	imagerel $LN3+152
	DD	imagerel $unwind$?_Buy_raw@?$vector@U?$tvec3@E$0A@@glm@@V?$allocator@U?$tvec3@E$0A@@glm@@@std@@@std@@AEAAX_K@Z
pdata	ENDS
;	COMDAT pdata
pdata	SEGMENT
$pdata$?_Buy_nonzero@?$vector@U?$tvec3@E$0A@@glm@@V?$allocator@U?$tvec3@E$0A@@glm@@@std@@@std@@AEAAX_K@Z DD imagerel $LN4
	DD	imagerel $LN4+58
	DD	imagerel $unwind$?_Buy_nonzero@?$vector@U?$tvec3@E$0A@@glm@@V?$allocator@U?$tvec3@E$0A@@glm@@@std@@@std@@AEAAX_K@Z
pdata	ENDS
;	COMDAT pdata
pdata	SEGMENT
$pdata$?_Tidy@?$vector@U?$tvec3@E$0A@@glm@@V?$allocator@U?$tvec3@E$0A@@glm@@@std@@@std@@AEAAXXZ DD imagerel $LN4
	DD	imagerel $LN4+216
	DD	imagerel $unwind$?_Tidy@?$vector@U?$tvec3@E$0A@@glm@@V?$allocator@U?$tvec3@E$0A@@glm@@@std@@@std@@AEAAXXZ
pdata	ENDS
;	COMDAT pdata
pdata	SEGMENT
$pdata$?_Xlength@?$vector@U?$tvec3@E$0A@@glm@@V?$allocator@U?$tvec3@E$0A@@glm@@@std@@@std@@CAXXZ DD imagerel $LN3
	DD	imagerel $LN3+24
	DD	imagerel $unwind$?_Xlength@?$vector@U?$tvec3@E$0A@@glm@@V?$allocator@U?$tvec3@E$0A@@glm@@@std@@@std@@CAXXZ
pdata	ENDS
;	COMDAT pdata
pdata	SEGMENT
$pdata$?_Getal@?$vector@U?$tvec3@E$0A@@glm@@V?$allocator@U?$tvec3@E$0A@@glm@@@std@@@std@@AEAAAEAV?$allocator@U?$tvec3@E$0A@@glm@@@2@XZ DD imagerel $LN3
	DD	imagerel $LN3+29
	DD	imagerel $unwind$?_Getal@?$vector@U?$tvec3@E$0A@@glm@@V?$allocator@U?$tvec3@E$0A@@glm@@@std@@@std@@AEAAAEAV?$allocator@U?$tvec3@E$0A@@glm@@@2@XZ
pdata	ENDS
;	COMDAT pdata
pdata	SEGMENT
$pdata$?_Getal@?$vector@U?$tvec3@E$0A@@glm@@V?$allocator@U?$tvec3@E$0A@@glm@@@std@@@std@@AEBAAEBV?$allocator@U?$tvec3@E$0A@@glm@@@2@XZ DD imagerel $LN3
	DD	imagerel $LN3+29
	DD	imagerel $unwind$?_Getal@?$vector@U?$tvec3@E$0A@@glm@@V?$allocator@U?$tvec3@E$0A@@glm@@@std@@@std@@AEBAAEBV?$allocator@U?$tvec3@E$0A@@glm@@@2@XZ
pdata	ENDS
;	COMDAT pdata
pdata	SEGMENT
$pdata$??0?$_Vector_val@U?$_Simple_types@U?$tvec3@E$0A@@glm@@@std@@@std@@QEAA@XZ DD imagerel $LN3
	DD	imagerel $LN3+70
	DD	imagerel $unwind$??0?$_Vector_val@U?$_Simple_types@U?$tvec3@E$0A@@glm@@@std@@@std@@QEAA@XZ
pdata	ENDS
;	COMDAT pdata
pdata	SEGMENT
$pdata$?_Get_first@?$_Compressed_pair@V?$allocator@U?$tvec3@E$0A@@glm@@@std@@V?$_Vector_val@U?$_Simple_types@U?$tvec3@E$0A@@glm@@@std@@@2@$00@std@@QEAAAEAV?$allocator@U?$tvec3@E$0A@@glm@@@2@XZ DD imagerel $LN3
	DD	imagerel $LN3+13
	DD	imagerel $unwind$?_Get_first@?$_Compressed_pair@V?$allocator@U?$tvec3@E$0A@@glm@@@std@@V?$_Vector_val@U?$_Simple_types@U?$tvec3@E$0A@@glm@@@std@@@2@$00@std@@QEAAAEAV?$allocator@U?$tvec3@E$0A@@glm@@@2@XZ
pdata	ENDS
;	COMDAT pdata
pdata	SEGMENT
$pdata$?_Get_first@?$_Compressed_pair@V?$allocator@U?$tvec3@E$0A@@glm@@@std@@V?$_Vector_val@U?$_Simple_types@U?$tvec3@E$0A@@glm@@@std@@@2@$00@std@@QEBAAEBV?$allocator@U?$tvec3@E$0A@@glm@@@2@XZ DD imagerel $LN3
	DD	imagerel $LN3+13
	DD	imagerel $unwind$?_Get_first@?$_Compressed_pair@V?$allocator@U?$tvec3@E$0A@@glm@@@std@@V?$_Vector_val@U?$_Simple_types@U?$tvec3@E$0A@@glm@@@std@@@2@$00@std@@QEBAAEBV?$allocator@U?$tvec3@E$0A@@glm@@@2@XZ
pdata	ENDS
;	COMDAT pdata
pdata	SEGMENT
$pdata$??$?0HHH@?$tvec3@E$0A@@glm@@QEAA@HHH@Z DD imagerel $LN3
	DD	imagerel $LN3+65
	DD	imagerel $unwind$??$?0HHH@?$tvec3@E$0A@@glm@@QEAA@HHH@Z
pdata	ENDS
;	COMDAT pdata
pdata	SEGMENT
$pdata$??$?HE$0A@@glm@@YA?AU?$tvec3@E$0A@@0@AEBU10@0@Z DD imagerel $LN3
	DD	imagerel $LN3+107
	DD	imagerel $unwind$??$?HE$0A@@glm@@YA?AU?$tvec3@E$0A@@0@AEBU10@0@Z
pdata	ENDS
pdata	SEGMENT
$pdata$main DD	imagerel $LN3
	DD	imagerel $LN3+262
	DD	imagerel $unwind$main
pdata	ENDS
;	COMDAT pdata
pdata	SEGMENT
$pdata$?allocate@?$allocator@U_Container_proxy@std@@@std@@QEAAPEAU_Container_proxy@2@_K@Z DD imagerel $LN3
	DD	imagerel $LN3+39
	DD	imagerel $unwind$?allocate@?$allocator@U_Container_proxy@std@@@std@@QEAAPEAU_Container_proxy@2@_K@Z
pdata	ENDS
;	COMDAT pdata
pdata	SEGMENT
$pdata$??$?0U?$tvec3@E$0A@@glm@@@?$allocator@U_Container_proxy@std@@@std@@QEAA@AEBV?$allocator@U?$tvec3@E$0A@@glm@@@1@@Z DD imagerel $LN3
	DD	imagerel $LN3+18
	DD	imagerel $unwind$??$?0U?$tvec3@E$0A@@glm@@@?$allocator@U_Container_proxy@std@@@std@@QEAA@AEBV?$allocator@U?$tvec3@E$0A@@glm@@@1@@Z
pdata	ENDS
;	COMDAT pdata
pdata	SEGMENT
$pdata$??$exchange@PEAU_Container_proxy@std@@$$T@std@@YAPEAU_Container_proxy@0@AEAPEAU10@$$QEA$$T@Z DD imagerel $LN3
	DD	imagerel $LN3+53
	DD	imagerel $unwind$??$exchange@PEAU_Container_proxy@std@@$$T@std@@YAPEAU_Container_proxy@0@AEAPEAU10@$$QEA$$T@Z
pdata	ENDS
;	COMDAT pdata
pdata	SEGMENT
$pdata$??$_Delete_plain_internal@V?$allocator@U_Container_proxy@std@@@std@@@std@@YAXAEAV?$allocator@U_Container_proxy@std@@@0@QEAU_Container_proxy@0@@Z DD imagerel $LN3
	DD	imagerel $LN3+36
	DD	imagerel $unwind$??$_Delete_plain_internal@V?$allocator@U_Container_proxy@std@@@std@@@std@@YAXAEAV?$allocator@U_Container_proxy@std@@@0@QEAU_Container_proxy@0@@Z
pdata	ENDS
;	COMDAT pdata
pdata	SEGMENT
$pdata$??$?0AEBV?$allocator@U?$tvec3@E$0A@@glm@@@std@@$$V@?$_Compressed_pair@V?$allocator@U?$tvec3@E$0A@@glm@@@std@@V?$_Vector_val@U?$_Simple_types@U?$tvec3@E$0A@@glm@@@std@@@2@$00@std@@QEAA@U_One_then_variadic_args_t@1@AEBV?$allocator@U?$tvec3@E$0A@@glm@@@1@@Z DD imagerel $LN3
	DD	imagerel $LN3+53
	DD	imagerel $unwind$??$?0AEBV?$allocator@U?$tvec3@E$0A@@glm@@@std@@$$V@?$_Compressed_pair@V?$allocator@U?$tvec3@E$0A@@glm@@@std@@V?$_Vector_val@U?$_Simple_types@U?$tvec3@E$0A@@glm@@@std@@@2@$00@std@@QEAA@U_One_then_variadic_args_t@1@AEBV?$allocator@U?$tvec3@E$0A@@glm@@@1@@Z
pdata	ENDS
;	COMDAT pdata
pdata	SEGMENT
$pdata$??$_Construct_n@$$V@?$vector@U?$tvec3@E$0A@@glm@@V?$allocator@U?$tvec3@E$0A@@glm@@@std@@@std@@AEAAX_K@Z DD imagerel $LN6
	DD	imagerel $LN6+274
	DD	imagerel $unwind$??$_Construct_n@$$V@?$vector@U?$tvec3@E$0A@@glm@@V?$allocator@U?$tvec3@E$0A@@glm@@@std@@@std@@AEAAX_K@Z
pdata	ENDS
;	COMDAT pdata
pdata	SEGMENT
$pdata$?dtor$0@?0???$_Construct_n@$$V@?$vector@U?$tvec3@E$0A@@glm@@V?$allocator@U?$tvec3@E$0A@@glm@@@std@@@std@@AEAAX_K@Z@4HA DD imagerel ?dtor$0@?0???$_Construct_n@$$V@?$vector@U?$tvec3@E$0A@@glm@@V?$allocator@U?$tvec3@E$0A@@glm@@@std@@@std@@AEAAX_K@Z@4HA
	DD	imagerel ?dtor$0@?0???$_Construct_n@$$V@?$vector@U?$tvec3@E$0A@@glm@@V?$allocator@U?$tvec3@E$0A@@glm@@@std@@@std@@AEAAX_K@Z@4HA+35
	DD	imagerel $unwind$?dtor$0@?0???$_Construct_n@$$V@?$vector@U?$tvec3@E$0A@@glm@@V?$allocator@U?$tvec3@E$0A@@glm@@@std@@@std@@AEAAX_K@Z@4HA
pdata	ENDS
;	COMDAT pdata
pdata	SEGMENT
$pdata$?dtor$1@?0???$_Construct_n@$$V@?$vector@U?$tvec3@E$0A@@glm@@V?$allocator@U?$tvec3@E$0A@@glm@@@std@@@std@@AEAAX_K@Z@4HA DD imagerel ?dtor$1@?0???$_Construct_n@$$V@?$vector@U?$tvec3@E$0A@@glm@@V?$allocator@U?$tvec3@E$0A@@glm@@@std@@@std@@AEAAX_K@Z@4HA
	DD	imagerel ?dtor$1@?0???$_Construct_n@$$V@?$vector@U?$tvec3@E$0A@@glm@@V?$allocator@U?$tvec3@E$0A@@glm@@@std@@@std@@AEAAX_K@Z@4HA+38
	DD	imagerel $unwind$?dtor$1@?0???$_Construct_n@$$V@?$vector@U?$tvec3@E$0A@@glm@@V?$allocator@U?$tvec3@E$0A@@glm@@@std@@@std@@AEAAX_K@Z@4HA
pdata	ENDS
;	COMDAT pdata
pdata	SEGMENT
$pdata$??$_Destroy_range@V?$allocator@U?$tvec3@E$0A@@glm@@@std@@@std@@YAXPEAU?$tvec3@E$0A@@glm@@QEAU12@AEAV?$allocator@U?$tvec3@E$0A@@glm@@@0@@Z DD imagerel $LN3
	DD	imagerel $LN3+18
	DD	imagerel $unwind$??$_Destroy_range@V?$allocator@U?$tvec3@E$0A@@glm@@@std@@@std@@YAXPEAU?$tvec3@E$0A@@glm@@QEAU12@AEAV?$allocator@U?$tvec3@E$0A@@glm@@@0@@Z
pdata	ENDS
;	COMDAT pdata
pdata	SEGMENT
$pdata$??$_Deallocate@$0BA@$0A@@std@@YAXPEAX_K@Z DD imagerel $LN4
	DD	imagerel $LN4+63
	DD	imagerel $unwind$??$_Deallocate@$0BA@$0A@@std@@YAXPEAX_K@Z
pdata	ENDS
;	COMDAT pdata
pdata	SEGMENT
$pdata$??$_Deallocate_plain@V?$allocator@U_Container_proxy@std@@@std@@@std@@YAXAEAV?$allocator@U_Container_proxy@std@@@0@QEAU_Container_proxy@0@@Z DD imagerel $LN3
	DD	imagerel $LN3+43
	DD	imagerel $unwind$??$_Deallocate_plain@V?$allocator@U_Container_proxy@std@@@std@@@std@@YAXAEAV?$allocator@U_Container_proxy@std@@@0@QEAU_Container_proxy@0@@Z
pdata	ENDS
;	COMDAT pdata
pdata	SEGMENT
$pdata$??$forward@AEBV?$allocator@U?$tvec3@E$0A@@glm@@@std@@@std@@YAAEBV?$allocator@U?$tvec3@E$0A@@glm@@@0@AEBV10@@Z DD imagerel $LN3
	DD	imagerel $LN3+13
	DD	imagerel $unwind$??$forward@AEBV?$allocator@U?$tvec3@E$0A@@glm@@@std@@@std@@YAAEBV?$allocator@U?$tvec3@E$0A@@glm@@@0@AEBV10@@Z
pdata	ENDS
;	COMDAT pdata
pdata	SEGMENT
$pdata$??0?$_Container_proxy_ptr12@V?$allocator@U_Container_proxy@std@@@std@@@std@@QEAA@AEAV?$allocator@U_Container_proxy@std@@@1@AEAU_Container_base12@1@@Z DD imagerel $LN3
	DD	imagerel $LN3+135
	DD	imagerel $unwind$??0?$_Container_proxy_ptr12@V?$allocator@U_Container_proxy@std@@@std@@@std@@QEAA@AEAV?$allocator@U_Container_proxy@std@@@1@AEAU_Container_base12@1@@Z
pdata	ENDS
;	COMDAT pdata
pdata	SEGMENT
$pdata$??1?$_Container_proxy_ptr12@V?$allocator@U_Container_proxy@std@@@std@@@std@@QEAA@XZ DD imagerel $LN4
	DD	imagerel $LN4+49
	DD	imagerel $unwind$??1?$_Container_proxy_ptr12@V?$allocator@U_Container_proxy@std@@@std@@@std@@QEAA@XZ
pdata	ENDS
;	COMDAT pdata
pdata	SEGMENT
$pdata$??1?$_Tidy_guard@V?$vector@U?$tvec3@E$0A@@glm@@V?$allocator@U?$tvec3@E$0A@@glm@@@std@@@std@@@std@@QEAA@XZ DD imagerel $LN4
	DD	imagerel $LN4+40
	DD	imagerel $unwind$??1?$_Tidy_guard@V?$vector@U?$tvec3@E$0A@@glm@@V?$allocator@U?$tvec3@E$0A@@glm@@@std@@@std@@@std@@QEAA@XZ
pdata	ENDS
;	COMDAT pdata
pdata	SEGMENT
$pdata$??$_Uninitialized_value_construct_n@V?$allocator@U?$tvec3@E$0A@@glm@@@std@@@std@@YAPEAU?$tvec3@E$0A@@glm@@PEAU12@_KAEAV?$allocator@U?$tvec3@E$0A@@glm@@@0@@Z DD imagerel $LN7
	DD	imagerel $LN7+155
	DD	imagerel $unwind$??$_Uninitialized_value_construct_n@V?$allocator@U?$tvec3@E$0A@@glm@@@std@@@std@@YAPEAU?$tvec3@E$0A@@glm@@PEAU12@_KAEAV?$allocator@U?$tvec3@E$0A@@glm@@@0@@Z
pdata	ENDS
;	COMDAT pdata
pdata	SEGMENT
$pdata$?dtor$0@?0???$_Uninitialized_value_construct_n@V?$allocator@U?$tvec3@E$0A@@glm@@@std@@@std@@YAPEAU?$tvec3@E$0A@@glm@@PEAU12@_KAEAV?$allocator@U?$tvec3@E$0A@@glm@@@0@@Z@4HA DD imagerel ?dtor$0@?0???$_Uninitialized_value_construct_n@V?$allocator@U?$tvec3@E$0A@@glm@@@std@@@std@@YAPEAU?$tvec3@E$0A@@glm@@PEAU12@_KAEAV?$allocator@U?$tvec3@E$0A@@glm@@@0@@Z@4HA
	DD	imagerel ?dtor$0@?0???$_Uninitialized_value_construct_n@V?$allocator@U?$tvec3@E$0A@@glm@@@std@@@std@@YAPEAU?$tvec3@E$0A@@glm@@PEAU12@_KAEAV?$allocator@U?$tvec3@E$0A@@glm@@@0@@Z@4HA+35
	DD	imagerel $unwind$?dtor$0@?0???$_Uninitialized_value_construct_n@V?$allocator@U?$tvec3@E$0A@@glm@@@std@@@std@@YAPEAU?$tvec3@E$0A@@glm@@PEAU12@_KAEAV?$allocator@U?$tvec3@E$0A@@glm@@@0@@Z@4HA
pdata	ENDS
;	COMDAT pdata
pdata	SEGMENT
$pdata$??$_Unfancy@U_Container_proxy@std@@@std@@YAPEAU_Container_proxy@0@PEAU10@@Z DD imagerel $LN3
	DD	imagerel $LN3+13
	DD	imagerel $unwind$??$_Unfancy@U_Container_proxy@std@@@std@@YAPEAU_Container_proxy@0@PEAU10@@Z
pdata	ENDS
;	COMDAT pdata
pdata	SEGMENT
$pdata$??$addressof@U_Container_base12@std@@@std@@YAPEAU_Container_base12@0@AEAU10@@Z DD imagerel $LN3
	DD	imagerel $LN3+13
	DD	imagerel $unwind$??$addressof@U_Container_base12@std@@@std@@YAPEAU_Container_base12@0@AEAU10@@Z
pdata	ENDS
;	COMDAT pdata
pdata	SEGMENT
$pdata$??$_Construct_in_place@U_Container_proxy@std@@PEAU_Container_base12@2@@std@@YAXAEAU_Container_proxy@0@$$QEAPEAU_Container_base12@0@@Z DD imagerel $LN3
	DD	imagerel $LN3+80
	DD	imagerel $unwind$??$_Construct_in_place@U_Container_proxy@std@@PEAU_Container_base12@2@@std@@YAXAEAU_Container_proxy@0@$$QEAPEAU_Container_base12@0@@Z
pdata	ENDS
;	COMDAT pdata
pdata	SEGMENT
$pdata$??$_Get_size_of_n@$0BA@@std@@YA_K_K@Z DD imagerel $LN4
	DD	imagerel $LN4+64
	DD	imagerel $unwind$??$_Get_size_of_n@$0BA@@std@@YA_K_K@Z
pdata	ENDS
;	COMDAT pdata
pdata	SEGMENT
$pdata$??$_Allocate@$0BA@U_Default_allocate_traits@std@@$0A@@std@@YAPEAX_K@Z DD imagerel $LN5
	DD	imagerel $LN5+61
	DD	imagerel $unwind$??$_Allocate@$0BA@U_Default_allocate_traits@std@@$0A@@std@@YAPEAX_K@Z
pdata	ENDS
;	COMDAT pdata
pdata	SEGMENT
$pdata$??$min@_K@std@@YAAEB_KAEB_K0@Z DD imagerel $LN5
	DD	imagerel $LN5+74
	DD	imagerel $unwind$??$min@_K@std@@YAAEB_KAEB_K0@Z
pdata	ENDS
;	COMDAT pdata
pdata	SEGMENT
$pdata$??$_Get_size_of_n@$02@std@@YA_K_K@Z DD imagerel $LN4
	DD	imagerel $LN4+64
	DD	imagerel $unwind$??$_Get_size_of_n@$02@std@@YA_K_K@Z
pdata	ENDS
;	COMDAT pdata
pdata	SEGMENT
$pdata$?deallocate@?$_Default_allocator_traits@V?$allocator@U_Container_proxy@std@@@std@@@std@@SAXAEAV?$allocator@U_Container_proxy@std@@@2@QEAU_Container_proxy@2@_K@Z DD imagerel $LN3
	DD	imagerel $LN3+45
	DD	imagerel $unwind$?deallocate@?$_Default_allocator_traits@V?$allocator@U_Container_proxy@std@@@std@@@std@@SAXAEAV?$allocator@U_Container_proxy@std@@@2@QEAU_Container_proxy@2@_K@Z
pdata	ENDS
;	COMDAT pdata
pdata	SEGMENT
$pdata$??0?$_Uninitialized_backout_al@V?$allocator@U?$tvec3@E$0A@@glm@@@std@@@std@@QEAA@PEAU?$tvec3@E$0A@@glm@@AEAV?$allocator@U?$tvec3@E$0A@@glm@@@1@@Z DD imagerel $LN3
	DD	imagerel $LN3+64
	DD	imagerel $unwind$??0?$_Uninitialized_backout_al@V?$allocator@U?$tvec3@E$0A@@glm@@@std@@@std@@QEAA@PEAU?$tvec3@E$0A@@glm@@AEAV?$allocator@U?$tvec3@E$0A@@glm@@@1@@Z
pdata	ENDS
;	COMDAT pdata
pdata	SEGMENT
$pdata$??1?$_Uninitialized_backout_al@V?$allocator@U?$tvec3@E$0A@@glm@@@std@@@std@@QEAA@XZ DD imagerel $LN3
	DD	imagerel $LN3+47
	DD	imagerel $unwind$??1?$_Uninitialized_backout_al@V?$allocator@U?$tvec3@E$0A@@glm@@@std@@@std@@QEAA@XZ
pdata	ENDS
;	COMDAT pdata
pdata	SEGMENT
$pdata$?_Release@?$_Uninitialized_backout_al@V?$allocator@U?$tvec3@E$0A@@glm@@@std@@@std@@QEAAPEAU?$tvec3@E$0A@@glm@@XZ DD imagerel $LN3
	DD	imagerel $LN3+34
	DD	imagerel $unwind$?_Release@?$_Uninitialized_backout_al@V?$allocator@U?$tvec3@E$0A@@glm@@@std@@@std@@QEAAPEAU?$tvec3@E$0A@@glm@@XZ
pdata	ENDS
;	COMDAT pdata
pdata	SEGMENT
$pdata$??$_Emplace_back@$$V@?$_Uninitialized_backout_al@V?$allocator@U?$tvec3@E$0A@@glm@@@std@@@std@@QEAAXXZ DD imagerel $LN3
	DD	imagerel $LN3+69
	DD	imagerel $unwind$??$_Emplace_back@$$V@?$_Uninitialized_backout_al@V?$allocator@U?$tvec3@E$0A@@glm@@@std@@@std@@QEAAXXZ
pdata	ENDS
;	COMDAT pdata
pdata	SEGMENT
$pdata$??$addressof@U_Container_proxy@std@@@std@@YAPEAU_Container_proxy@0@AEAU10@@Z DD imagerel $LN3
	DD	imagerel $LN3+13
	DD	imagerel $unwind$??$addressof@U_Container_proxy@std@@@std@@YAPEAU_Container_proxy@0@AEAU10@@Z
pdata	ENDS
;	COMDAT pdata
pdata	SEGMENT
$pdata$??$_Voidify_iter@PEAU_Container_proxy@std@@@std@@YAPEAXPEAU_Container_proxy@0@@Z DD imagerel $LN3
	DD	imagerel $LN3+13
	DD	imagerel $unwind$??$_Voidify_iter@PEAU_Container_proxy@std@@@std@@YAPEAXPEAU_Container_proxy@0@@Z
pdata	ENDS
;	COMDAT pdata
pdata	SEGMENT
$pdata$??$forward@PEAU_Container_base12@std@@@std@@YA$$QEAPEAU_Container_base12@0@AEAPEAU10@@Z DD imagerel $LN3
	DD	imagerel $LN3+13
	DD	imagerel $unwind$??$forward@PEAU_Container_base12@std@@@std@@YA$$QEAPEAU_Container_base12@0@AEAPEAU10@@Z
pdata	ENDS
;	COMDAT pdata
pdata	SEGMENT
$pdata$??$_Allocate_manually_vector_aligned@U_Default_allocate_traits@std@@@std@@YAPEAX_K@Z DD imagerel $LN13
	DD	imagerel $LN13+259
	DD	imagerel $unwind$??$_Allocate_manually_vector_aligned@U_Default_allocate_traits@std@@@std@@YAPEAX_K@Z
pdata	ENDS
;	COMDAT pdata
pdata	SEGMENT
$pdata$??$_Unfancy@U?$tvec3@E$0A@@glm@@@std@@YAPEAU?$tvec3@E$0A@@glm@@PEAU12@@Z DD imagerel $LN3
	DD	imagerel $LN3+13
	DD	imagerel $unwind$??$_Unfancy@U?$tvec3@E$0A@@glm@@@std@@YAPEAU?$tvec3@E$0A@@glm@@PEAU12@@Z
pdata	ENDS
;	COMDAT pdata
pdata	SEGMENT
$pdata$??$construct@U?$tvec3@E$0A@@glm@@$$V@?$_Default_allocator_traits@V?$allocator@U?$tvec3@E$0A@@glm@@@std@@@std@@SAXAEAV?$allocator@U?$tvec3@E$0A@@glm@@@1@QEAU?$tvec3@E$0A@@glm@@@Z DD imagerel $LN3
	DD	imagerel $LN3+59
	DD	imagerel $unwind$??$construct@U?$tvec3@E$0A@@glm@@$$V@?$_Default_allocator_traits@V?$allocator@U?$tvec3@E$0A@@glm@@@std@@@std@@SAXAEAV?$allocator@U?$tvec3@E$0A@@glm@@@1@QEAU?$tvec3@E$0A@@glm@@@Z
pdata	ENDS
;	COMDAT pdata
pdata	SEGMENT
$pdata$??$_Voidify_iter@PEAU?$tvec3@E$0A@@glm@@@std@@YAPEAXPEAU?$tvec3@E$0A@@glm@@@Z DD imagerel $LN3
	DD	imagerel $LN3+13
	DD	imagerel $unwind$??$_Voidify_iter@PEAU?$tvec3@E$0A@@glm@@@std@@YAPEAXPEAU?$tvec3@E$0A@@glm@@@Z
pdata	ENDS
;	COMDAT __real@3f800000
CONST	SEGMENT
__real@3f800000 DD 03f800000r			; 1
CONST	ENDS
;	COMDAT rtc$TMZ
rtc$TMZ	SEGMENT
_RTC_Shutdown.rtc$TMZ DQ FLAT:_RTC_Shutdown
rtc$TMZ	ENDS
;	COMDAT rtc$IMZ
rtc$IMZ	SEGMENT
_RTC_InitBase.rtc$IMZ DQ FLAT:_RTC_InitBase
rtc$IMZ	ENDS
;	COMDAT ??_R1A@?0A@EA@bad_array_new_length@std@@8
rdata$r	SEGMENT
??_R1A@?0A@EA@bad_array_new_length@std@@8 DD imagerel ??_R0?AVbad_array_new_length@std@@@8 ; std::bad_array_new_length::`RTTI Base Class Descriptor at (0,-1,0,64)'
	DD	02H
	DD	00H
	DD	0ffffffffH
	DD	00H
	DD	040H
	DD	imagerel ??_R3bad_array_new_length@std@@8
rdata$r	ENDS
;	COMDAT ??_R2bad_array_new_length@std@@8
rdata$r	SEGMENT
??_R2bad_array_new_length@std@@8 DD imagerel ??_R1A@?0A@EA@bad_array_new_length@std@@8 ; std::bad_array_new_length::`RTTI Base Class Array'
	DD	imagerel ??_R1A@?0A@EA@bad_alloc@std@@8
	DD	imagerel ??_R1A@?0A@EA@exception@std@@8
	ORG $+3
rdata$r	ENDS
;	COMDAT ??_R3bad_array_new_length@std@@8
rdata$r	SEGMENT
??_R3bad_array_new_length@std@@8 DD 00H			; std::bad_array_new_length::`RTTI Class Hierarchy Descriptor'
	DD	00H
	DD	03H
	DD	imagerel ??_R2bad_array_new_length@std@@8
rdata$r	ENDS
;	COMDAT ??_R4bad_array_new_length@std@@6B@
rdata$r	SEGMENT
??_R4bad_array_new_length@std@@6B@ DD 01H		; std::bad_array_new_length::`RTTI Complete Object Locator'
	DD	00H
	DD	00H
	DD	imagerel ??_R0?AVbad_array_new_length@std@@@8
	DD	imagerel ??_R3bad_array_new_length@std@@8
	DD	imagerel ??_R4bad_array_new_length@std@@6B@
rdata$r	ENDS
;	COMDAT ??_R1A@?0A@EA@bad_alloc@std@@8
rdata$r	SEGMENT
??_R1A@?0A@EA@bad_alloc@std@@8 DD imagerel ??_R0?AVbad_alloc@std@@@8 ; std::bad_alloc::`RTTI Base Class Descriptor at (0,-1,0,64)'
	DD	01H
	DD	00H
	DD	0ffffffffH
	DD	00H
	DD	040H
	DD	imagerel ??_R3bad_alloc@std@@8
rdata$r	ENDS
;	COMDAT ??_R2bad_alloc@std@@8
rdata$r	SEGMENT
??_R2bad_alloc@std@@8 DD imagerel ??_R1A@?0A@EA@bad_alloc@std@@8 ; std::bad_alloc::`RTTI Base Class Array'
	DD	imagerel ??_R1A@?0A@EA@exception@std@@8
	ORG $+3
rdata$r	ENDS
;	COMDAT ??_R3bad_alloc@std@@8
rdata$r	SEGMENT
??_R3bad_alloc@std@@8 DD 00H				; std::bad_alloc::`RTTI Class Hierarchy Descriptor'
	DD	00H
	DD	02H
	DD	imagerel ??_R2bad_alloc@std@@8
rdata$r	ENDS
;	COMDAT ??_R4bad_alloc@std@@6B@
rdata$r	SEGMENT
??_R4bad_alloc@std@@6B@ DD 01H				; std::bad_alloc::`RTTI Complete Object Locator'
	DD	00H
	DD	00H
	DD	imagerel ??_R0?AVbad_alloc@std@@@8
	DD	imagerel ??_R3bad_alloc@std@@8
	DD	imagerel ??_R4bad_alloc@std@@6B@
rdata$r	ENDS
;	COMDAT ??_R1A@?0A@EA@exception@std@@8
rdata$r	SEGMENT
??_R1A@?0A@EA@exception@std@@8 DD imagerel ??_R0?AVexception@std@@@8 ; std::exception::`RTTI Base Class Descriptor at (0,-1,0,64)'
	DD	00H
	DD	00H
	DD	0ffffffffH
	DD	00H
	DD	040H
	DD	imagerel ??_R3exception@std@@8
rdata$r	ENDS
;	COMDAT ??_R2exception@std@@8
rdata$r	SEGMENT
??_R2exception@std@@8 DD imagerel ??_R1A@?0A@EA@exception@std@@8 ; std::exception::`RTTI Base Class Array'
	ORG $+3
rdata$r	ENDS
;	COMDAT ??_R3exception@std@@8
rdata$r	SEGMENT
??_R3exception@std@@8 DD 00H				; std::exception::`RTTI Class Hierarchy Descriptor'
	DD	00H
	DD	01H
	DD	imagerel ??_R2exception@std@@8
rdata$r	ENDS
;	COMDAT ??_R4exception@std@@6B@
rdata$r	SEGMENT
??_R4exception@std@@6B@ DD 01H				; std::exception::`RTTI Complete Object Locator'
	DD	00H
	DD	00H
	DD	imagerel ??_R0?AVexception@std@@@8
	DD	imagerel ??_R3exception@std@@8
	DD	imagerel ??_R4exception@std@@6B@
rdata$r	ENDS
;	COMDAT ??_C@_1LC@KEKMINFC@?$AAC?$AA?3?$AA?2?$AAU?$AAs?$AAe?$AAr?$AAs?$AA?2?$AAk?$AAs?$AAa?$AAr?$AAt?$AA?2@
CONST	SEGMENT
??_C@_1LC@KEKMINFC@?$AAC?$AA?3?$AA?2?$AAU?$AAs?$AAe?$AAr?$AAs?$AA?2?$AAk?$AAs?$AAa?$AAr?$AAt?$AA?2@ DB 'C'
	DB	00H, ':', 00H, '\', 00H, 'U', 00H, 's', 00H, 'e', 00H, 'r', 00H
	DB	's', 00H, '\', 00H, 'k', 00H, 's', 00H, 'a', 00H, 'r', 00H, 't'
	DB	00H, '\', 00H, 'O', 00H, 'n', 00H, 'e', 00H, 'D', 00H, 'r', 00H
	DB	'i', 00H, 'v', 00H, 'e', 00H, '\', 00H, 'D', 00H, 'e', 00H, 's'
	DB	00H, 'k', 00H, 't', 00H, 'o', 00H, 'p', 00H, '\', 00H, 'F', 00H
	DB	'l', 00H, 'a', 00H, 'p', 00H, 'p', 00H, 'y', 00H, 'B', 00H, 'i'
	DB	00H, 'r', 00H, 'd', 00H, '\', 00H, 'l', 00H, 'i', 00H, 'b', 00H
	DB	'r', 00H, 'a', 00H, 'r', 00H, 'i', 00H, 'e', 00H, 's', 00H, '\'
	DB	00H, 'e', 00H, 'x', 00H, 't', 00H, 'e', 00H, 'r', 00H, 'n', 00H
	DB	'a', 00H, 'l', 00H, '\', 00H, 'g', 00H, 'l', 00H, 'm', 00H, '\'
	DB	00H, 'g', 00H, 'l', 00H, 'm', 00H, '\', 00H, 'g', 00H, 't', 00H
	DB	'c', 00H, '\', 00H, 'q', 00H, 'u', 00H, 'a', 00H, 't', 00H, 'e'
	DB	00H, 'r', 00H, 'n', 00H, 'i', 00H, 'o', 00H, 'n', 00H, '.', 00H
	DB	'i', 00H, 'n', 00H, 'l', 00H, 00H, 00H	; `string'
CONST	ENDS
;	COMDAT ??_C@_1LG@MEJFBKPC@?$AAC?$AA?3?$AA?2?$AAU?$AAs?$AAe?$AAr?$AAs?$AA?2?$AAk?$AAs?$AAa?$AAr?$AAt?$AA?2@
CONST	SEGMENT
??_C@_1LG@MEJFBKPC@?$AAC?$AA?3?$AA?2?$AAU?$AAs?$AAe?$AAr?$AAs?$AA?2?$AAk?$AAs?$AAa?$AAr?$AAt?$AA?2@ DB 'C'
	DB	00H, ':', 00H, '\', 00H, 'U', 00H, 's', 00H, 'e', 00H, 'r', 00H
	DB	's', 00H, '\', 00H, 'k', 00H, 's', 00H, 'a', 00H, 'r', 00H, 't'
	DB	00H, '\', 00H, 'O', 00H, 'n', 00H, 'e', 00H, 'D', 00H, 'r', 00H
	DB	'i', 00H, 'v', 00H, 'e', 00H, '\', 00H, 'D', 00H, 'e', 00H, 's'
	DB	00H, 'k', 00H, 't', 00H, 'o', 00H, 'p', 00H, '\', 00H, 'F', 00H
	DB	'l', 00H, 'a', 00H, 'p', 00H, 'p', 00H, 'y', 00H, 'B', 00H, 'i'
	DB	00H, 'r', 00H, 'd', 00H, '\', 00H, 'l', 00H, 'i', 00H, 'b', 00H
	DB	'r', 00H, 'a', 00H, 'r', 00H, 'i', 00H, 'e', 00H, 's', 00H, '\'
	DB	00H, 'e', 00H, 'x', 00H, 't', 00H, 'e', 00H, 'r', 00H, 'n', 00H
	DB	'a', 00H, 'l', 00H, '\', 00H, 'g', 00H, 'l', 00H, 'm', 00H, '\'
	DB	00H, 'g', 00H, 'l', 00H, 'm', 00H, '\', 00H, 'd', 00H, 'e', 00H
	DB	't', 00H, 'a', 00H, 'i', 00H, 'l', 00H, '\', 00H, 't', 00H, 'y'
	DB	00H, 'p', 00H, 'e', 00H, '_', 00H, 'v', 00H, 'e', 00H, 'c', 00H
	DB	'3', 00H, '.', 00H, 'i', 00H, 'n', 00H, 'l', 00H, 00H, 00H ; `string'
CONST	ENDS
;	COMDAT ??_C@_0BA@FOIKENOD@vector?5too?5long@
CONST	SEGMENT
??_C@_0BA@FOIKENOD@vector?5too?5long@ DB 'vector too long', 00H ; `string'
CONST	ENDS
;	COMDAT ??_C@_1DC@HHLCGOLC@?$AAx?$AA?4?$AAl?$AAe?$AAn?$AAg?$AAt?$AAh?$AA?$CI?$AA?$CJ?$AA?5?$AA?$DN?$AA?$DN?$AA?5?$AAy@
CONST	SEGMENT
??_C@_1DC@HHLCGOLC@?$AAx?$AA?4?$AAl?$AAe?$AAn?$AAg?$AAt?$AAh?$AA?$CI?$AA?$CJ?$AA?5?$AA?$DN?$AA?$DN?$AA?5?$AAy@ DB 'x'
	DB	00H, '.', 00H, 'l', 00H, 'e', 00H, 'n', 00H, 'g', 00H, 't', 00H
	DB	'h', 00H, '(', 00H, ')', 00H, ' ', 00H, '=', 00H, '=', 00H, ' '
	DB	00H, 'y', 00H, '.', 00H, 'l', 00H, 'e', 00H, 'n', 00H, 'g', 00H
	DB	't', 00H, 'h', 00H, '(', 00H, ')', 00H, 00H, 00H ; `string'
CONST	ENDS
;	COMDAT ??_C@_1NA@OPABFNEN@?$AAC?$AA?3?$AA?2?$AAU?$AAs?$AAe?$AAr?$AAs?$AA?2?$AAk?$AAs?$AAa?$AAr?$AAt?$AA?2@
CONST	SEGMENT
??_C@_1NA@OPABFNEN@?$AAC?$AA?3?$AA?2?$AAU?$AAs?$AAe?$AAr?$AAs?$AA?2?$AAk?$AAs?$AAa?$AAr?$AAt?$AA?2@ DB 'C'
	DB	00H, ':', 00H, '\', 00H, 'U', 00H, 's', 00H, 'e', 00H, 'r', 00H
	DB	's', 00H, '\', 00H, 'k', 00H, 's', 00H, 'a', 00H, 'r', 00H, 't'
	DB	00H, '\', 00H, 'O', 00H, 'n', 00H, 'e', 00H, 'D', 00H, 'r', 00H
	DB	'i', 00H, 'v', 00H, 'e', 00H, '\', 00H, 'D', 00H, 'e', 00H, 's'
	DB	00H, 'k', 00H, 't', 00H, 'o', 00H, 'p', 00H, '\', 00H, 'F', 00H
	DB	'l', 00H, 'a', 00H, 'p', 00H, 'p', 00H, 'y', 00H, 'B', 00H, 'i'
	DB	00H, 'r', 00H, 'd', 00H, '\', 00H, 'l', 00H, 'i', 00H, 'b', 00H
	DB	'r', 00H, 'a', 00H, 'r', 00H, 'i', 00H, 'e', 00H, 's', 00H, '\'
	DB	00H, 'e', 00H, 'x', 00H, 't', 00H, 'e', 00H, 'r', 00H, 'n', 00H
	DB	'a', 00H, 'l', 00H, '\', 00H, 'g', 00H, 'l', 00H, 'm', 00H, '\'
	DB	00H, 'g', 00H, 'l', 00H, 'm', 00H, '\', 00H, 'd', 00H, 'e', 00H
	DB	't', 00H, 'a', 00H, 'i', 00H, 'l', 00H, '\', 00H, 'f', 00H, 'u'
	DB	00H, 'n', 00H, 'c', 00H, '_', 00H, 'v', 00H, 'e', 00H, 'c', 00H
	DB	't', 00H, 'o', 00H, 'r', 00H, '_', 00H, 'r', 00H, 'e', 00H, 'l'
	DB	00H, 'a', 00H, 't', 00H, 'i', 00H, 'o', 00H, 'n', 00H, 'a', 00H
	DB	'l', 00H, '.', 00H, 'i', 00H, 'n', 00H, 'l', 00H, 00H, 00H ; `string'
CONST	ENDS
;	COMDAT ??_C@_1LG@LAANPDHN@?$AAC?$AA?3?$AA?2?$AAU?$AAs?$AAe?$AAr?$AAs?$AA?2?$AAk?$AAs?$AAa?$AAr?$AAt?$AA?2@
CONST	SEGMENT
??_C@_1LG@LAANPDHN@?$AAC?$AA?3?$AA?2?$AAU?$AAs?$AAe?$AAr?$AAs?$AA?2?$AAk?$AAs?$AAa?$AAr?$AAt?$AA?2@ DB 'C'
	DB	00H, ':', 00H, '\', 00H, 'U', 00H, 's', 00H, 'e', 00H, 'r', 00H
	DB	's', 00H, '\', 00H, 'k', 00H, 's', 00H, 'a', 00H, 'r', 00H, 't'
	DB	00H, '\', 00H, 'O', 00H, 'n', 00H, 'e', 00H, 'D', 00H, 'r', 00H
	DB	'i', 00H, 'v', 00H, 'e', 00H, '\', 00H, 'D', 00H, 'e', 00H, 's'
	DB	00H, 'k', 00H, 't', 00H, 'o', 00H, 'p', 00H, '\', 00H, 'F', 00H
	DB	'l', 00H, 'a', 00H, 'p', 00H, 'p', 00H, 'y', 00H, 'B', 00H, 'i'
	DB	00H, 'r', 00H, 'd', 00H, '\', 00H, 'l', 00H, 'i', 00H, 'b', 00H
	DB	'r', 00H, 'a', 00H, 'r', 00H, 'i', 00H, 'e', 00H, 's', 00H, '\'
	DB	00H, 'e', 00H, 'x', 00H, 't', 00H, 'e', 00H, 'r', 00H, 'n', 00H
	DB	'a', 00H, 'l', 00H, '\', 00H, 'g', 00H, 'l', 00H, 'm', 00H, '\'
	DB	00H, 'g', 00H, 'l', 00H, 'm', 00H, '\', 00H, 'd', 00H, 'e', 00H
	DB	't', 00H, 'a', 00H, 'i', 00H, 'l', 00H, '\', 00H, 't', 00H, 'y'
	DB	00H, 'p', 00H, 'e', 00H, '_', 00H, 'v', 00H, 'e', 00H, 'c', 00H
	DB	'4', 00H, '.', 00H, 'i', 00H, 'n', 00H, 'l', 00H, 00H, 00H ; `string'
CONST	ENDS
;	COMDAT ??_C@_1DK@BGNCJAPL@?$AAi?$AA?5?$AA?$DO?$AA?$DN?$AA?5?$AA0?$AA?5?$AA?$CG?$AA?$CG?$AA?5?$AAi?$AA?5?$AA?$DM?$AA?5?$AAt@
CONST	SEGMENT
??_C@_1DK@BGNCJAPL@?$AAi?$AA?5?$AA?$DO?$AA?$DN?$AA?5?$AA0?$AA?5?$AA?$CG?$AA?$CG?$AA?5?$AAi?$AA?5?$AA?$DM?$AA?5?$AAt@ DB 'i'
	DB	00H, ' ', 00H, '>', 00H, '=', 00H, ' ', 00H, '0', 00H, ' ', 00H
	DB	'&', 00H, '&', 00H, ' ', 00H, 'i', 00H, ' ', 00H, '<', 00H, ' '
	DB	00H, 't', 00H, 'h', 00H, 'i', 00H, 's', 00H, '-', 00H, '>', 00H
	DB	'l', 00H, 'e', 00H, 'n', 00H, 'g', 00H, 't', 00H, 'h', 00H, '('
	DB	00H, ')', 00H, 00H, 00H			; `string'
CONST	ENDS
;	COMDAT ??_C@_1LG@FPDAFGJN@?$AAC?$AA?3?$AA?2?$AAU?$AAs?$AAe?$AAr?$AAs?$AA?2?$AAk?$AAs?$AAa?$AAr?$AAt?$AA?2@
CONST	SEGMENT
??_C@_1LG@FPDAFGJN@?$AAC?$AA?3?$AA?2?$AAU?$AAs?$AAe?$AAr?$AAs?$AA?2?$AAk?$AAs?$AAa?$AAr?$AAt?$AA?2@ DB 'C'
	DB	00H, ':', 00H, '\', 00H, 'U', 00H, 's', 00H, 'e', 00H, 'r', 00H
	DB	's', 00H, '\', 00H, 'k', 00H, 's', 00H, 'a', 00H, 'r', 00H, 't'
	DB	00H, '\', 00H, 'O', 00H, 'n', 00H, 'e', 00H, 'D', 00H, 'r', 00H
	DB	'i', 00H, 'v', 00H, 'e', 00H, '\', 00H, 'D', 00H, 'e', 00H, 's'
	DB	00H, 'k', 00H, 't', 00H, 'o', 00H, 'p', 00H, '\', 00H, 'F', 00H
	DB	'l', 00H, 'a', 00H, 'p', 00H, 'p', 00H, 'y', 00H, 'B', 00H, 'i'
	DB	00H, 'r', 00H, 'd', 00H, '\', 00H, 'l', 00H, 'i', 00H, 'b', 00H
	DB	'r', 00H, 'a', 00H, 'r', 00H, 'i', 00H, 'e', 00H, 's', 00H, '\'
	DB	00H, 'e', 00H, 'x', 00H, 't', 00H, 'e', 00H, 'r', 00H, 'n', 00H
	DB	'a', 00H, 'l', 00H, '\', 00H, 'g', 00H, 'l', 00H, 'm', 00H, '\'
	DB	00H, 'g', 00H, 'l', 00H, 'm', 00H, '\', 00H, 'd', 00H, 'e', 00H
	DB	't', 00H, 'a', 00H, 'i', 00H, 'l', 00H, '\', 00H, 't', 00H, 'y'
	DB	00H, 'p', 00H, 'e', 00H, '_', 00H, 'v', 00H, 'e', 00H, 'c', 00H
	DB	'2', 00H, '.', 00H, 'i', 00H, 'n', 00H, 'l', 00H, 00H, 00H ; `string'
CONST	ENDS
;	COMDAT ??_C@_1HA@FACCKGGH@?$AA?$CC?$AAn?$AAu?$AAl?$AAl?$AA?5?$AAp?$AAo?$AAi?$AAn?$AAt?$AAe?$AAr?$AA?5?$AAc@
CONST	SEGMENT
??_C@_1HA@FACCKGGH@?$AA?$CC?$AAn?$AAu?$AAl?$AAl?$AA?5?$AAp?$AAo?$AAi?$AAn?$AAt?$AAe?$AAr?$AA?5?$AAc@ DB '"'
	DB	00H, 'n', 00H, 'u', 00H, 'l', 00H, 'l', 00H, ' ', 00H, 'p', 00H
	DB	'o', 00H, 'i', 00H, 'n', 00H, 't', 00H, 'e', 00H, 'r', 00H, ' '
	DB	00H, 'c', 00H, 'a', 00H, 'n', 00H, 'n', 00H, 'o', 00H, 't', 00H
	DB	' ', 00H, 'p', 00H, 'o', 00H, 'i', 00H, 'n', 00H, 't', 00H, ' '
	DB	00H, 't', 00H, 'o', 00H, ' ', 00H, 'a', 00H, ' ', 00H, 'b', 00H
	DB	'l', 00H, 'o', 00H, 'c', 00H, 'k', 00H, ' ', 00H, 'o', 00H, 'f'
	DB	00H, ' ', 00H, 'n', 00H, 'o', 00H, 'n', 00H, '-', 00H, 'z', 00H
	DB	'e', 00H, 'r', 00H, 'o', 00H, ' ', 00H, 's', 00H, 'i', 00H, 'z'
	DB	00H, 'e', 00H, '"', 00H, 00H, 00H		; `string'
CONST	ENDS
;	COMDAT ??_C@_0DG@KGHKKGBC@null?5pointer?5cannot?5point?5to?5a?5@
CONST	SEGMENT
??_C@_0DG@KGHKKGBC@null?5pointer?5cannot?5point?5to?5a?5@ DB 'null pointe'
	DB	'r cannot point to a block of non-zero size', 00H ; `string'
CONST	ENDS
;	COMDAT ??_C@_1EA@LEKOKFNB@?$AA?$CC?$AAv?$AAe?$AAc?$AAt?$AAo?$AAr?$AA?5?$AAs?$AAu?$AAb?$AAs?$AAc?$AAr?$AAi@
CONST	SEGMENT
??_C@_1EA@LEKOKFNB@?$AA?$CC?$AAv?$AAe?$AAc?$AAt?$AAo?$AAr?$AA?5?$AAs?$AAu?$AAb?$AAs?$AAc?$AAr?$AAi@ DB '"'
	DB	00H, 'v', 00H, 'e', 00H, 'c', 00H, 't', 00H, 'o', 00H, 'r', 00H
	DB	' ', 00H, 's', 00H, 'u', 00H, 'b', 00H, 's', 00H, 'c', 00H, 'r'
	DB	00H, 'i', 00H, 'p', 00H, 't', 00H, ' ', 00H, 'o', 00H, 'u', 00H
	DB	't', 00H, ' ', 00H, 'o', 00H, 'f', 00H, ' ', 00H, 'r', 00H, 'a'
	DB	00H, 'n', 00H, 'g', 00H, 'e', 00H, '"', 00H, 00H, 00H ; `string'
CONST	ENDS
;	COMDAT ??_C@_1MC@BJDJHFOD@?$AAC?$AA?3?$AA?2?$AAP?$AAr?$AAo?$AAg?$AAr?$AAa?$AAm?$AA?5?$AAF?$AAi?$AAl?$AAe@
CONST	SEGMENT
??_C@_1MC@BJDJHFOD@?$AAC?$AA?3?$AA?2?$AAP?$AAr?$AAo?$AAg?$AAr?$AAa?$AAm?$AA?5?$AAF?$AAi?$AAl?$AAe@ DB 'C'
	DB	00H, ':', 00H, '\', 00H, 'P', 00H, 'r', 00H, 'o', 00H, 'g', 00H
	DB	'r', 00H, 'a', 00H, 'm', 00H, ' ', 00H, 'F', 00H, 'i', 00H, 'l'
	DB	00H, 'e', 00H, 's', 00H, '\', 00H, 'M', 00H, 'i', 00H, 'c', 00H
	DB	'r', 00H, 'o', 00H, 's', 00H, 'o', 00H, 'f', 00H, 't', 00H, ' '
	DB	00H, 'V', 00H, 'i', 00H, 's', 00H, 'u', 00H, 'a', 00H, 'l', 00H
	DB	' ', 00H, 'S', 00H, 't', 00H, 'u', 00H, 'd', 00H, 'i', 00H, 'o'
	DB	00H, '\', 00H, '2', 00H, '0', 00H, '2', 00H, '2', 00H, '\', 00H
	DB	'C', 00H, 'o', 00H, 'm', 00H, 'm', 00H, 'u', 00H, 'n', 00H, 'i'
	DB	00H, 't', 00H, 'y', 00H, '\', 00H, 'V', 00H, 'C', 00H, '\', 00H
	DB	'T', 00H, 'o', 00H, 'o', 00H, 'l', 00H, 's', 00H, '\', 00H, 'M'
	DB	00H, 'S', 00H, 'V', 00H, 'C', 00H, '\', 00H, '1', 00H, '4', 00H
	DB	'.', 00H, '3', 00H, '2', 00H, '.', 00H, '3', 00H, '1', 00H, '3'
	DB	00H, '2', 00H, '6', 00H, '\', 00H, 'i', 00H, 'n', 00H, 'c', 00H
	DB	'l', 00H, 'u', 00H, 'd', 00H, 'e', 00H, '\', 00H, 'v', 00H, 'e'
	DB	00H, 'c', 00H, 't', 00H, 'o', 00H, 'r', 00H, 00H, 00H ; `string'
CONST	ENDS
;	COMDAT ??_C@_0GB@GDCALCPO@C?3?2Program?5Files?2Microsoft?5Visu@
CONST	SEGMENT
??_C@_0GB@GDCALCPO@C?3?2Program?5Files?2Microsoft?5Visu@ DB 'C:\Program F'
	DB	'iles\Microsoft Visual Studio\2022\Community\VC\Tools\MSVC\14.'
	DB	'32.31326\include\vector', 00H		; `string'
CONST	ENDS
;	COMDAT ??_C@_0BO@PFKOHNJC@vector?5subscript?5out?5of?5range@
CONST	SEGMENT
??_C@_0BO@PFKOHNJC@vector?5subscript?5out?5of?5range@ DB 'vector subscrip'
	DB	't out of range', 00H			; `string'
CONST	ENDS
;	COMDAT ??_C@_1CG@JNLFBNGN@?$AA?$CC?$AAi?$AAn?$AAv?$AAa?$AAl?$AAi?$AAd?$AA?5?$AAa?$AAr?$AAg?$AAu?$AAm?$AAe@
CONST	SEGMENT
??_C@_1CG@JNLFBNGN@?$AA?$CC?$AAi?$AAn?$AAv?$AAa?$AAl?$AAi?$AAd?$AA?5?$AAa?$AAr?$AAg?$AAu?$AAm?$AAe@ DB '"'
	DB	00H, 'i', 00H, 'n', 00H, 'v', 00H, 'a', 00H, 'l', 00H, 'i', 00H
	DB	'd', 00H, ' ', 00H, 'a', 00H, 'r', 00H, 'g', 00H, 'u', 00H, 'm'
	DB	00H, 'e', 00H, 'n', 00H, 't', 00H, '"', 00H, 00H, 00H ; `string'
CONST	ENDS
;	COMDAT ??_C@_11LOCGONAA@@
CONST	SEGMENT
??_C@_11LOCGONAA@@ DB 00H, 00H				; `string'
CONST	ENDS
;	COMDAT ??_C@_1ME@GEFGDEOM@?$AAC?$AA?3?$AA?2?$AAP?$AAr?$AAo?$AAg?$AAr?$AAa?$AAm?$AA?5?$AAF?$AAi?$AAl?$AAe@
CONST	SEGMENT
??_C@_1ME@GEFGDEOM@?$AAC?$AA?3?$AA?2?$AAP?$AAr?$AAo?$AAg?$AAr?$AAa?$AAm?$AA?5?$AAF?$AAi?$AAl?$AAe@ DB 'C'
	DB	00H, ':', 00H, '\', 00H, 'P', 00H, 'r', 00H, 'o', 00H, 'g', 00H
	DB	'r', 00H, 'a', 00H, 'm', 00H, ' ', 00H, 'F', 00H, 'i', 00H, 'l'
	DB	00H, 'e', 00H, 's', 00H, '\', 00H, 'M', 00H, 'i', 00H, 'c', 00H
	DB	'r', 00H, 'o', 00H, 's', 00H, 'o', 00H, 'f', 00H, 't', 00H, ' '
	DB	00H, 'V', 00H, 'i', 00H, 's', 00H, 'u', 00H, 'a', 00H, 'l', 00H
	DB	' ', 00H, 'S', 00H, 't', 00H, 'u', 00H, 'd', 00H, 'i', 00H, 'o'
	DB	00H, '\', 00H, '2', 00H, '0', 00H, '2', 00H, '2', 00H, '\', 00H
	DB	'C', 00H, 'o', 00H, 'm', 00H, 'm', 00H, 'u', 00H, 'n', 00H, 'i'
	DB	00H, 't', 00H, 'y', 00H, '\', 00H, 'V', 00H, 'C', 00H, '\', 00H
	DB	'T', 00H, 'o', 00H, 'o', 00H, 'l', 00H, 's', 00H, '\', 00H, 'M'
	DB	00H, 'S', 00H, 'V', 00H, 'C', 00H, '\', 00H, '1', 00H, '4', 00H
	DB	'.', 00H, '3', 00H, '2', 00H, '.', 00H, '3', 00H, '1', 00H, '3'
	DB	00H, '2', 00H, '6', 00H, '\', 00H, 'i', 00H, 'n', 00H, 'c', 00H
	DB	'l', 00H, 'u', 00H, 'd', 00H, 'e', 00H, '\', 00H, 'x', 00H, 'm'
	DB	00H, 'e', 00H, 'm', 00H, 'o', 00H, 'r', 00H, 'y', 00H, 00H, 00H ; `string'
CONST	ENDS
;	COMDAT ??_C@_0GC@DJFHHHKN@C?3?2Program?5Files?2Microsoft?5Visu@
CONST	SEGMENT
??_C@_0GC@DJFHHHKN@C?3?2Program?5Files?2Microsoft?5Visu@ DB 'C:\Program F'
	DB	'iles\Microsoft Visual Studio\2022\Community\VC\Tools\MSVC\14.'
	DB	'32.31326\include\xmemory', 00H		; `string'
CONST	ENDS
;	COMDAT ??_C@_02DKCKIIND@?$CFs@
CONST	SEGMENT
??_C@_02DKCKIIND@?$CFs@ DB '%s', 00H			; `string'
CONST	ENDS
;	COMDAT ??_C@_0BB@FCMFBGOM@invalid?5argument@
CONST	SEGMENT
??_C@_0BB@FCMFBGOM@invalid?5argument@ DB 'invalid argument', 00H ; `string'
CONST	ENDS
;	COMDAT _CT??_R0?AVexception@std@@@8??0exception@std@@QEAA@AEBV01@@Z24
xdata$x	SEGMENT
_CT??_R0?AVexception@std@@@8??0exception@std@@QEAA@AEBV01@@Z24 DD 00H
	DD	imagerel ??_R0?AVexception@std@@@8
	DD	00H
	DD	0ffffffffH
	ORG $+4
	DD	018H
	DD	imagerel ??0exception@std@@QEAA@AEBV01@@Z
xdata$x	ENDS
;	COMDAT ??_R0?AVexception@std@@@8
data$r	SEGMENT
??_R0?AVexception@std@@@8 DQ FLAT:??_7type_info@@6B@	; std::exception `RTTI Type Descriptor'
	DQ	0000000000000000H
	DB	'.?AVexception@std@@', 00H
data$r	ENDS
;	COMDAT _CT??_R0?AVbad_alloc@std@@@8??0bad_alloc@std@@QEAA@AEBV01@@Z24
xdata$x	SEGMENT
_CT??_R0?AVbad_alloc@std@@@8??0bad_alloc@std@@QEAA@AEBV01@@Z24 DD 010H
	DD	imagerel ??_R0?AVbad_alloc@std@@@8
	DD	00H
	DD	0ffffffffH
	ORG $+4
	DD	018H
	DD	imagerel ??0bad_alloc@std@@QEAA@AEBV01@@Z
xdata$x	ENDS
;	COMDAT ??_R0?AVbad_alloc@std@@@8
data$r	SEGMENT
??_R0?AVbad_alloc@std@@@8 DQ FLAT:??_7type_info@@6B@	; std::bad_alloc `RTTI Type Descriptor'
	DQ	0000000000000000H
	DB	'.?AVbad_alloc@std@@', 00H
data$r	ENDS
;	COMDAT _CT??_R0?AVbad_array_new_length@std@@@8??0bad_array_new_length@std@@QEAA@AEBV01@@Z24
xdata$x	SEGMENT
_CT??_R0?AVbad_array_new_length@std@@@8??0bad_array_new_length@std@@QEAA@AEBV01@@Z24 DD 00H
	DD	imagerel ??_R0?AVbad_array_new_length@std@@@8
	DD	00H
	DD	0ffffffffH
	ORG $+4
	DD	018H
	DD	imagerel ??0bad_array_new_length@std@@QEAA@AEBV01@@Z
xdata$x	ENDS
;	COMDAT ??_R0?AVbad_array_new_length@std@@@8
data$r	SEGMENT
??_R0?AVbad_array_new_length@std@@@8 DQ FLAT:??_7type_info@@6B@ ; std::bad_array_new_length `RTTI Type Descriptor'
	DQ	0000000000000000H
	DB	'.?AVbad_array_new_length@std@@', 00H
data$r	ENDS
;	COMDAT _CTA3?AVbad_array_new_length@std@@
xdata$x	SEGMENT
_CTA3?AVbad_array_new_length@std@@ DD 03H
	DD	imagerel _CT??_R0?AVbad_array_new_length@std@@@8??0bad_array_new_length@std@@QEAA@AEBV01@@Z24
	DD	imagerel _CT??_R0?AVbad_alloc@std@@@8??0bad_alloc@std@@QEAA@AEBV01@@Z24
	DD	imagerel _CT??_R0?AVexception@std@@@8??0exception@std@@QEAA@AEBV01@@Z24
xdata$x	ENDS
;	COMDAT _TI3?AVbad_array_new_length@std@@
xdata$x	SEGMENT
_TI3?AVbad_array_new_length@std@@ DD 00H
	DD	imagerel ??1bad_array_new_length@std@@UEAA@XZ
	DD	00H
	DD	imagerel _CTA3?AVbad_array_new_length@std@@
xdata$x	ENDS
;	COMDAT ??_C@_0BF@KINCDENJ@bad?5array?5new?5length@
CONST	SEGMENT
??_C@_0BF@KINCDENJ@bad?5array?5new?5length@ DB 'bad array new length', 00H ; `string'
CONST	ENDS
;	COMDAT ??_7bad_array_new_length@std@@6B@
CONST	SEGMENT
??_7bad_array_new_length@std@@6B@ DQ FLAT:??_R4bad_array_new_length@std@@6B@ ; std::bad_array_new_length::`vftable'
	DQ	FLAT:??_Ebad_array_new_length@std@@UEAAPEAXI@Z
	DQ	FLAT:?what@exception@std@@UEBAPEBDXZ
CONST	ENDS
;	COMDAT ??_7bad_alloc@std@@6B@
CONST	SEGMENT
??_7bad_alloc@std@@6B@ DQ FLAT:??_R4bad_alloc@std@@6B@	; std::bad_alloc::`vftable'
	DQ	FLAT:??_Ebad_alloc@std@@UEAAPEAXI@Z
	DQ	FLAT:?what@exception@std@@UEBAPEBDXZ
CONST	ENDS
;	COMDAT ??_C@_0BC@EOODALEL@Unknown?5exception@
CONST	SEGMENT
??_C@_0BC@EOODALEL@Unknown?5exception@ DB 'Unknown exception', 00H ; `string'
CONST	ENDS
;	COMDAT ??_7exception@std@@6B@
CONST	SEGMENT
??_7exception@std@@6B@ DQ FLAT:??_R4exception@std@@6B@	; std::exception::`vftable'
	DQ	FLAT:??_Eexception@std@@UEAAPEAXI@Z
	DQ	FLAT:?what@exception@std@@UEBAPEBDXZ
CONST	ENDS
;	COMDAT xdata
xdata	SEGMENT
$unwind$??$_Voidify_iter@PEAU?$tvec3@E$0A@@glm@@@std@@YAPEAXPEAU?$tvec3@E$0A@@glm@@@Z DD 010601H
	DD	07006H
xdata	ENDS
;	COMDAT xdata
xdata	SEGMENT
$unwind$??$construct@U?$tvec3@E$0A@@glm@@$$V@?$_Default_allocator_traits@V?$allocator@U?$tvec3@E$0A@@glm@@@std@@@std@@SAXAEAV?$allocator@U?$tvec3@E$0A@@glm@@@1@QEAU?$tvec3@E$0A@@glm@@@Z DD 020f01H
	DD	0700b520fH
xdata	ENDS
;	COMDAT xdata
xdata	SEGMENT
$unwind$??$_Unfancy@U?$tvec3@E$0A@@glm@@@std@@YAPEAU?$tvec3@E$0A@@glm@@PEAU12@@Z DD 010601H
	DD	07006H
xdata	ENDS
;	COMDAT xdata
xdata	SEGMENT
$unwind$??$_Allocate_manually_vector_aligned@U_Default_allocate_traits@std@@@std@@YAPEAX_K@Z DD 020a01H
	DD	07006920aH
xdata	ENDS
;	COMDAT xdata
xdata	SEGMENT
$unwind$??$forward@PEAU_Container_base12@std@@@std@@YA$$QEAPEAU_Container_base12@0@AEAPEAU10@@Z DD 010601H
	DD	07006H
xdata	ENDS
;	COMDAT xdata
xdata	SEGMENT
$unwind$??$_Voidify_iter@PEAU_Container_proxy@std@@@std@@YAPEAXPEAU_Container_proxy@0@@Z DD 010601H
	DD	07006H
xdata	ENDS
;	COMDAT xdata
xdata	SEGMENT
$unwind$??$addressof@U_Container_proxy@std@@@std@@YAPEAU_Container_proxy@0@AEAU10@@Z DD 010601H
	DD	07006H
xdata	ENDS
;	COMDAT xdata
xdata	SEGMENT
$unwind$??$_Emplace_back@$$V@?$_Uninitialized_backout_al@V?$allocator@U?$tvec3@E$0A@@glm@@@std@@@std@@QEAAXXZ DD 020a01H
	DD	07006320aH
xdata	ENDS
;	COMDAT xdata
xdata	SEGMENT
$unwind$?_Release@?$_Uninitialized_backout_al@V?$allocator@U?$tvec3@E$0A@@glm@@@std@@@std@@QEAAPEAU?$tvec3@E$0A@@glm@@XZ DD 010601H
	DD	07006H
xdata	ENDS
;	COMDAT xdata
xdata	SEGMENT
$unwind$??1?$_Uninitialized_backout_al@V?$allocator@U?$tvec3@E$0A@@glm@@@std@@@std@@QEAA@XZ DD 020a01H
	DD	07006320aH
xdata	ENDS
;	COMDAT xdata
xdata	SEGMENT
$unwind$??0?$_Uninitialized_backout_al@V?$allocator@U?$tvec3@E$0A@@glm@@@std@@@std@@QEAA@PEAU?$tvec3@E$0A@@glm@@AEAV?$allocator@U?$tvec3@E$0A@@glm@@@1@@Z DD 011001H
	DD	07010H
xdata	ENDS
;	COMDAT xdata
xdata	SEGMENT
$unwind$?deallocate@?$_Default_allocator_traits@V?$allocator@U_Container_proxy@std@@@std@@@std@@SAXAEAV?$allocator@U_Container_proxy@std@@@2@QEAU_Container_proxy@2@_K@Z DD 021401H
	DD	070103214H
xdata	ENDS
;	COMDAT xdata
xdata	SEGMENT
$unwind$??$_Get_size_of_n@$02@std@@YA_K_K@Z DD 020a01H
	DD	07006520aH
xdata	ENDS
;	COMDAT xdata
xdata	SEGMENT
$unwind$??$min@_K@std@@YAAEB_KAEB_K0@Z DD 020f01H
	DD	0700b120fH
xdata	ENDS
;	COMDAT xdata
xdata	SEGMENT
$unwind$??$_Allocate@$0BA@U_Default_allocate_traits@std@@$0A@@std@@YAPEAX_K@Z DD 020a01H
	DD	07006320aH
xdata	ENDS
;	COMDAT xdata
xdata	SEGMENT
$unwind$??$_Get_size_of_n@$0BA@@std@@YA_K_K@Z DD 020a01H
	DD	07006520aH
xdata	ENDS
;	COMDAT xdata
xdata	SEGMENT
$unwind$??$_Construct_in_place@U_Container_proxy@std@@PEAU_Container_base12@2@@std@@YAXAEAU_Container_proxy@0@$$QEAPEAU_Container_base12@0@@Z DD 020f01H
	DD	0700b520fH
xdata	ENDS
;	COMDAT xdata
xdata	SEGMENT
$unwind$??$addressof@U_Container_base12@std@@@std@@YAPEAU_Container_base12@0@AEAU10@@Z DD 010601H
	DD	07006H
xdata	ENDS
;	COMDAT xdata
xdata	SEGMENT
$unwind$??$_Unfancy@U_Container_proxy@std@@@std@@YAPEAU_Container_proxy@0@PEAU10@@Z DD 010601H
	DD	07006H
xdata	ENDS
;	COMDAT voltbl
voltbl	SEGMENT
_volmd	DB	00H
	DB	05H
voltbl	ENDS
;	COMDAT xdata
xdata	SEGMENT
$unwind$?dtor$0@?0???$_Uninitialized_value_construct_n@V?$allocator@U?$tvec3@E$0A@@glm@@@std@@@std@@YAPEAU?$tvec3@E$0A@@glm@@PEAU12@_KAEAV?$allocator@U?$tvec3@E$0A@@glm@@@0@@Z@4HA DD 031001H
	DD	0700c4210H
	DD	0500bH
xdata	ENDS
;	COMDAT xdata
xdata	SEGMENT
$ip2state$??$_Uninitialized_value_construct_n@V?$allocator@U?$tvec3@E$0A@@glm@@@std@@@std@@YAPEAU?$tvec3@E$0A@@glm@@PEAU12@_KAEAV?$allocator@U?$tvec3@E$0A@@glm@@@0@@Z DB 06H
	DB	00H
	DB	00H
	DB	'~'
	DB	02H
	DB	'd'
	DB	00H
xdata	ENDS
;	COMDAT xdata
xdata	SEGMENT
$stateUnwindMap$??$_Uninitialized_value_construct_n@V?$allocator@U?$tvec3@E$0A@@glm@@@std@@@std@@YAPEAU?$tvec3@E$0A@@glm@@PEAU12@_KAEAV?$allocator@U?$tvec3@E$0A@@glm@@@0@@Z DB 02H
	DB	0eH
	DD	imagerel ?dtor$0@?0???$_Uninitialized_value_construct_n@V?$allocator@U?$tvec3@E$0A@@glm@@@std@@@std@@YAPEAU?$tvec3@E$0A@@glm@@PEAU12@_KAEAV?$allocator@U?$tvec3@E$0A@@glm@@@0@@Z@4HA
xdata	ENDS
;	COMDAT xdata
xdata	SEGMENT
$cppxdata$??$_Uninitialized_value_construct_n@V?$allocator@U?$tvec3@E$0A@@glm@@@std@@@std@@YAPEAU?$tvec3@E$0A@@glm@@PEAU12@_KAEAV?$allocator@U?$tvec3@E$0A@@glm@@@0@@Z DB 028H
	DD	imagerel $stateUnwindMap$??$_Uninitialized_value_construct_n@V?$allocator@U?$tvec3@E$0A@@glm@@@std@@@std@@YAPEAU?$tvec3@E$0A@@glm@@PEAU12@_KAEAV?$allocator@U?$tvec3@E$0A@@glm@@@0@@Z
	DD	imagerel $ip2state$??$_Uninitialized_value_construct_n@V?$allocator@U?$tvec3@E$0A@@glm@@@std@@@std@@YAPEAU?$tvec3@E$0A@@glm@@PEAU12@_KAEAV?$allocator@U?$tvec3@E$0A@@glm@@@0@@Z
xdata	ENDS
;	COMDAT xdata
xdata	SEGMENT
$unwind$??$_Uninitialized_value_construct_n@V?$allocator@U?$tvec3@E$0A@@glm@@@std@@@std@@YAPEAU?$tvec3@E$0A@@glm@@PEAU12@_KAEAV?$allocator@U?$tvec3@E$0A@@glm@@@0@@Z DD 022a11H
	DD	070109214H
	DD	imagerel __CxxFrameHandler4
	DD	imagerel $cppxdata$??$_Uninitialized_value_construct_n@V?$allocator@U?$tvec3@E$0A@@glm@@@std@@@std@@YAPEAU?$tvec3@E$0A@@glm@@PEAU12@_KAEAV?$allocator@U?$tvec3@E$0A@@glm@@@0@@Z
xdata	ENDS
;	COMDAT CONST
CONST	SEGMENT
??$_Uninitialized_value_construct_n@V?$allocator@U?$tvec3@E$0A@@glm@@@std@@@std@@YAPEAU?$tvec3@E$0A@@glm@@PEAU12@_KAEAV?$allocator@U?$tvec3@E$0A@@glm@@@0@@Z$rtcName$0 DB 05fH ; std::_Uninitialized_value_construct_n<std::allocator<glm::tvec3<unsigned char,0> > >
	DB	042H
	DB	061H
	DB	063H
	DB	06bH
	DB	06fH
	DB	075H
	DB	074H
	DB	00H
	ORG $+7
??$_Uninitialized_value_construct_n@V?$allocator@U?$tvec3@E$0A@@glm@@@std@@@std@@YAPEAU?$tvec3@E$0A@@glm@@PEAU12@_KAEAV?$allocator@U?$tvec3@E$0A@@glm@@@0@@Z$rtcVarDesc DD 028H ; std::_Uninitialized_value_construct_n<std::allocator<glm::tvec3<unsigned char,0> > >
	DD	018H
	DQ	FLAT:??$_Uninitialized_value_construct_n@V?$allocator@U?$tvec3@E$0A@@glm@@@std@@@std@@YAPEAU?$tvec3@E$0A@@glm@@PEAU12@_KAEAV?$allocator@U?$tvec3@E$0A@@glm@@@0@@Z$rtcName$0
	ORG $+48
??$_Uninitialized_value_construct_n@V?$allocator@U?$tvec3@E$0A@@glm@@@std@@@std@@YAPEAU?$tvec3@E$0A@@glm@@PEAU12@_KAEAV?$allocator@U?$tvec3@E$0A@@glm@@@0@@Z$rtcFrameData DD 01H ; std::_Uninitialized_value_construct_n<std::allocator<glm::tvec3<unsigned char,0> > >
	DD	00H
	DQ	FLAT:??$_Uninitialized_value_construct_n@V?$allocator@U?$tvec3@E$0A@@glm@@@std@@@std@@YAPEAU?$tvec3@E$0A@@glm@@PEAU12@_KAEAV?$allocator@U?$tvec3@E$0A@@glm@@@0@@Z$rtcVarDesc
CONST	ENDS
;	COMDAT xdata
xdata	SEGMENT
$unwind$??1?$_Tidy_guard@V?$vector@U?$tvec3@E$0A@@glm@@V?$allocator@U?$tvec3@E$0A@@glm@@@std@@@std@@@std@@QEAA@XZ DD 020a01H
	DD	07006320aH
xdata	ENDS
;	COMDAT xdata
xdata	SEGMENT
$unwind$??1?$_Container_proxy_ptr12@V?$allocator@U_Container_proxy@std@@@std@@@std@@QEAA@XZ DD 020a01H
	DD	07006320aH
xdata	ENDS
;	COMDAT xdata
xdata	SEGMENT
$unwind$??0?$_Container_proxy_ptr12@V?$allocator@U_Container_proxy@std@@@std@@@std@@QEAA@AEAV?$allocator@U_Container_proxy@std@@@1@AEAU_Container_base12@1@@Z DD 021401H
	DD	070105214H
xdata	ENDS
;	COMDAT xdata
xdata	SEGMENT
$unwind$??$forward@AEBV?$allocator@U?$tvec3@E$0A@@glm@@@std@@@std@@YAAEBV?$allocator@U?$tvec3@E$0A@@glm@@@0@AEBV10@@Z DD 010601H
	DD	07006H
xdata	ENDS
;	COMDAT xdata
xdata	SEGMENT
$ip2state$??$_Deallocate_plain@V?$allocator@U_Container_proxy@std@@@std@@@std@@YAXAEAV?$allocator@U_Container_proxy@std@@@0@QEAU_Container_proxy@0@@Z DB 02H
	DB	00H
	DB	00H
xdata	ENDS
;	COMDAT xdata
xdata	SEGMENT
$cppxdata$??$_Deallocate_plain@V?$allocator@U_Container_proxy@std@@@std@@@std@@YAXAEAV?$allocator@U_Container_proxy@std@@@0@QEAU_Container_proxy@0@@Z DB 060H
	DD	imagerel $ip2state$??$_Deallocate_plain@V?$allocator@U_Container_proxy@std@@@std@@@std@@YAXAEAV?$allocator@U_Container_proxy@std@@@0@QEAU_Container_proxy@0@@Z
xdata	ENDS
;	COMDAT xdata
xdata	SEGMENT
$unwind$??$_Deallocate_plain@V?$allocator@U_Container_proxy@std@@@std@@@std@@YAXAEAV?$allocator@U_Container_proxy@std@@@0@QEAU_Container_proxy@0@@Z DD 020f19H
	DD	0700b320fH
	DD	imagerel __CxxFrameHandler4
	DD	imagerel $cppxdata$??$_Deallocate_plain@V?$allocator@U_Container_proxy@std@@@std@@@std@@YAXAEAV?$allocator@U_Container_proxy@std@@@0@QEAU_Container_proxy@0@@Z
xdata	ENDS
;	COMDAT xdata
xdata	SEGMENT
$ip2state$??$_Deallocate@$0BA@$0A@@std@@YAXPEAX_K@Z DB 02H
	DB	00H
	DB	00H
xdata	ENDS
;	COMDAT xdata
xdata	SEGMENT
$cppxdata$??$_Deallocate@$0BA@$0A@@std@@YAXPEAX_K@Z DB 060H
	DD	imagerel $ip2state$??$_Deallocate@$0BA@$0A@@std@@YAXPEAX_K@Z
xdata	ENDS
;	COMDAT xdata
xdata	SEGMENT
$unwind$??$_Deallocate@$0BA@$0A@@std@@YAXPEAX_K@Z DD 020f19H
	DD	0700b320fH
	DD	imagerel __CxxFrameHandler4
	DD	imagerel $cppxdata$??$_Deallocate@$0BA@$0A@@std@@YAXPEAX_K@Z
xdata	ENDS
;	COMDAT xdata
xdata	SEGMENT
$unwind$??$_Destroy_range@V?$allocator@U?$tvec3@E$0A@@glm@@@std@@@std@@YAXPEAU?$tvec3@E$0A@@glm@@QEAU12@AEAV?$allocator@U?$tvec3@E$0A@@glm@@@0@@Z DD 011001H
	DD	07010H
xdata	ENDS
;	COMDAT voltbl
voltbl	SEGMENT
_volmd	DB	00H
	DB	05H
voltbl	ENDS
;	COMDAT voltbl
voltbl	SEGMENT
_volmd	DB	00H
	DB	05H
voltbl	ENDS
;	COMDAT xdata
xdata	SEGMENT
$unwind$?dtor$1@?0???$_Construct_n@$$V@?$vector@U?$tvec3@E$0A@@glm@@V?$allocator@U?$tvec3@E$0A@@glm@@@std@@@std@@AEAAX_K@Z@4HA DD 031001H
	DD	0700c4210H
	DD	0500bH
xdata	ENDS
;	COMDAT xdata
xdata	SEGMENT
$unwind$?dtor$0@?0???$_Construct_n@$$V@?$vector@U?$tvec3@E$0A@@glm@@V?$allocator@U?$tvec3@E$0A@@glm@@@std@@@std@@AEAAX_K@Z@4HA DD 031001H
	DD	0700c4210H
	DD	0500bH
xdata	ENDS
;	COMDAT xdata
xdata	SEGMENT
$ip2state$??$_Construct_n@$$V@?$vector@U?$tvec3@E$0A@@glm@@V?$allocator@U?$tvec3@E$0A@@glm@@@std@@@std@@AEAAX_K@Z DB 0aH
	DB	00H
	DB	00H
	DB	0f0H
	DB	02H
	DB	'`'
	DB	04H
	DB	'`'
	DB	02H
	DB	'0'
	DB	00H
xdata	ENDS
;	COMDAT xdata
xdata	SEGMENT
$stateUnwindMap$??$_Construct_n@$$V@?$vector@U?$tvec3@E$0A@@glm@@V?$allocator@U?$tvec3@E$0A@@glm@@@std@@@std@@AEAAX_K@Z DB 04H
	DB	0eH
	DD	imagerel ?dtor$0@?0???$_Construct_n@$$V@?$vector@U?$tvec3@E$0A@@glm@@V?$allocator@U?$tvec3@E$0A@@glm@@@std@@@std@@AEAAX_K@Z@4HA
	DB	02eH
	DD	imagerel ?dtor$1@?0???$_Construct_n@$$V@?$vector@U?$tvec3@E$0A@@glm@@V?$allocator@U?$tvec3@E$0A@@glm@@@std@@@std@@AEAAX_K@Z@4HA
xdata	ENDS
;	COMDAT xdata
xdata	SEGMENT
$cppxdata$??$_Construct_n@$$V@?$vector@U?$tvec3@E$0A@@glm@@V?$allocator@U?$tvec3@E$0A@@glm@@@std@@@std@@AEAAX_K@Z DB 028H
	DD	imagerel $stateUnwindMap$??$_Construct_n@$$V@?$vector@U?$tvec3@E$0A@@glm@@V?$allocator@U?$tvec3@E$0A@@glm@@@std@@@std@@AEAAX_K@Z
	DD	imagerel $ip2state$??$_Construct_n@$$V@?$vector@U?$tvec3@E$0A@@glm@@V?$allocator@U?$tvec3@E$0A@@glm@@@std@@@std@@AEAAX_K@Z
xdata	ENDS
;	COMDAT xdata
xdata	SEGMENT
$unwind$??$_Construct_n@$$V@?$vector@U?$tvec3@E$0A@@glm@@V?$allocator@U?$tvec3@E$0A@@glm@@@std@@@std@@AEAAX_K@Z DD 032b11H
	DD	0140112H
	DD	0700bH
	DD	imagerel __CxxFrameHandler4
	DD	imagerel $cppxdata$??$_Construct_n@$$V@?$vector@U?$tvec3@E$0A@@glm@@V?$allocator@U?$tvec3@E$0A@@glm@@@std@@@std@@AEAAX_K@Z
xdata	ENDS
;	COMDAT CONST
CONST	SEGMENT
??$_Construct_n@$$V@?$vector@U?$tvec3@E$0A@@glm@@V?$allocator@U?$tvec3@E$0A@@glm@@@std@@@std@@AEAAX_K@Z$rtcName$0 DB 024H ; std::vector<glm::tvec3<unsigned char,0>,std::allocator<glm::tvec3<unsigned char,0> > >::_Construct_n<>
	DB	053H
	DB	032H
	DB	00H
??$_Construct_n@$$V@?$vector@U?$tvec3@E$0A@@glm@@V?$allocator@U?$tvec3@E$0A@@glm@@@std@@@std@@AEAAX_K@Z$rtcName$1 DB 05fH ; std::vector<glm::tvec3<unsigned char,0>,std::allocator<glm::tvec3<unsigned char,0> > >::_Construct_n<>
	DB	050H
	DB	072H
	DB	06fH
	DB	078H
	DB	079H
	DB	00H
	ORG $+1
??$_Construct_n@$$V@?$vector@U?$tvec3@E$0A@@glm@@V?$allocator@U?$tvec3@E$0A@@glm@@@std@@@std@@AEAAX_K@Z$rtcName$2 DB 05fH ; std::vector<glm::tvec3<unsigned char,0>,std::allocator<glm::tvec3<unsigned char,0> > >::_Construct_n<>
	DB	047H
	DB	075H
	DB	061H
	DB	072H
	DB	064H
	DB	00H
	ORG $+13
??$_Construct_n@$$V@?$vector@U?$tvec3@E$0A@@glm@@V?$allocator@U?$tvec3@E$0A@@glm@@@std@@@std@@AEAAX_K@Z$rtcVarDesc DD 088H ; std::vector<glm::tvec3<unsigned char,0>,std::allocator<glm::tvec3<unsigned char,0> > >::_Construct_n<>
	DD	08H
	DQ	FLAT:??$_Construct_n@$$V@?$vector@U?$tvec3@E$0A@@glm@@V?$allocator@U?$tvec3@E$0A@@glm@@@std@@@std@@AEAAX_K@Z$rtcName$2
	DD	058H
	DD	010H
	DQ	FLAT:??$_Construct_n@$$V@?$vector@U?$tvec3@E$0A@@glm@@V?$allocator@U?$tvec3@E$0A@@glm@@@std@@@std@@AEAAX_K@Z$rtcName$1
	DD	034H
	DD	01H
	DQ	FLAT:??$_Construct_n@$$V@?$vector@U?$tvec3@E$0A@@glm@@V?$allocator@U?$tvec3@E$0A@@glm@@@std@@@std@@AEAAX_K@Z$rtcName$0
	ORG $+144
??$_Construct_n@$$V@?$vector@U?$tvec3@E$0A@@glm@@V?$allocator@U?$tvec3@E$0A@@glm@@@std@@@std@@AEAAX_K@Z$rtcFrameData DD 03H ; std::vector<glm::tvec3<unsigned char,0>,std::allocator<glm::tvec3<unsigned char,0> > >::_Construct_n<>
	DD	00H
	DQ	FLAT:??$_Construct_n@$$V@?$vector@U?$tvec3@E$0A@@glm@@V?$allocator@U?$tvec3@E$0A@@glm@@@std@@@std@@AEAAX_K@Z$rtcVarDesc
CONST	ENDS
;	COMDAT xdata
xdata	SEGMENT
$unwind$??$?0AEBV?$allocator@U?$tvec3@E$0A@@glm@@@std@@$$V@?$_Compressed_pair@V?$allocator@U?$tvec3@E$0A@@glm@@@std@@V?$_Vector_val@U?$_Simple_types@U?$tvec3@E$0A@@glm@@@std@@@2@$00@std@@QEAA@U_One_then_variadic_args_t@1@AEBV?$allocator@U?$tvec3@E$0A@@glm@@@1@@Z DD 021301H
	DD	0700f3213H
xdata	ENDS
;	COMDAT xdata
xdata	SEGMENT
$unwind$??$_Delete_plain_internal@V?$allocator@U_Container_proxy@std@@@std@@@std@@YAXAEAV?$allocator@U_Container_proxy@std@@@0@QEAU_Container_proxy@0@@Z DD 020f01H
	DD	0700b320fH
xdata	ENDS
;	COMDAT xdata
xdata	SEGMENT
$unwind$??$exchange@PEAU_Container_proxy@std@@$$T@std@@YAPEAU_Container_proxy@0@AEAPEAU10@$$QEA$$T@Z DD 020f01H
	DD	0700b120fH
xdata	ENDS
;	COMDAT xdata
xdata	SEGMENT
$unwind$??$?0U?$tvec3@E$0A@@glm@@@?$allocator@U_Container_proxy@std@@@std@@QEAA@AEBV?$allocator@U?$tvec3@E$0A@@glm@@@1@@Z DD 010b01H
	DD	0700bH
xdata	ENDS
;	COMDAT xdata
xdata	SEGMENT
$unwind$?allocate@?$allocator@U_Container_proxy@std@@@std@@QEAAPEAU_Container_proxy@2@_K@Z DD 020f01H
	DD	0700b320fH
xdata	ENDS
;	COMDAT xdata
xdata	SEGMENT
$unwind$??$?HE$0A@@glm@@YA?AU?$tvec3@E$0A@@0@AEBU10@0@Z DD 021401H
	DD	070103214H
xdata	ENDS
;	COMDAT xdata
xdata	SEGMENT
$unwind$??$?0HHH@?$tvec3@E$0A@@glm@@QEAA@HHH@Z DD 011401H
	DD	07014H
xdata	ENDS
;	COMDAT xdata
xdata	SEGMENT
$unwind$?_Get_first@?$_Compressed_pair@V?$allocator@U?$tvec3@E$0A@@glm@@@std@@V?$_Vector_val@U?$_Simple_types@U?$tvec3@E$0A@@glm@@@std@@@2@$00@std@@QEBAAEBV?$allocator@U?$tvec3@E$0A@@glm@@@2@XZ DD 010601H
	DD	07006H
xdata	ENDS
;	COMDAT xdata
xdata	SEGMENT
$unwind$?_Get_first@?$_Compressed_pair@V?$allocator@U?$tvec3@E$0A@@glm@@@std@@V?$_Vector_val@U?$_Simple_types@U?$tvec3@E$0A@@glm@@@std@@@2@$00@std@@QEAAAEAV?$allocator@U?$tvec3@E$0A@@glm@@@2@XZ DD 010601H
	DD	07006H
xdata	ENDS
;	COMDAT xdata
xdata	SEGMENT
$unwind$??0?$_Vector_val@U?$_Simple_types@U?$tvec3@E$0A@@glm@@@std@@@std@@QEAA@XZ DD 020a01H
	DD	07006320aH
xdata	ENDS
;	COMDAT xdata
xdata	SEGMENT
$unwind$?_Getal@?$vector@U?$tvec3@E$0A@@glm@@V?$allocator@U?$tvec3@E$0A@@glm@@@std@@@std@@AEBAAEBV?$allocator@U?$tvec3@E$0A@@glm@@@2@XZ DD 020a01H
	DD	07006320aH
xdata	ENDS
;	COMDAT xdata
xdata	SEGMENT
$unwind$?_Getal@?$vector@U?$tvec3@E$0A@@glm@@V?$allocator@U?$tvec3@E$0A@@glm@@@std@@@std@@AEAAAEAV?$allocator@U?$tvec3@E$0A@@glm@@@2@XZ DD 020a01H
	DD	07006320aH
xdata	ENDS
;	COMDAT xdata
xdata	SEGMENT
$unwind$?_Xlength@?$vector@U?$tvec3@E$0A@@glm@@V?$allocator@U?$tvec3@E$0A@@glm@@@std@@@std@@CAXXZ DD 020601H
	DD	070023206H
xdata	ENDS
;	COMDAT xdata
xdata	SEGMENT
$ip2state$?_Tidy@?$vector@U?$tvec3@E$0A@@glm@@V?$allocator@U?$tvec3@E$0A@@glm@@@std@@@std@@AEAAXXZ DB 02H
	DB	00H
	DB	00H
xdata	ENDS
;	COMDAT xdata
xdata	SEGMENT
$cppxdata$?_Tidy@?$vector@U?$tvec3@E$0A@@glm@@V?$allocator@U?$tvec3@E$0A@@glm@@@std@@@std@@AEAAXXZ DB 060H
	DD	imagerel $ip2state$?_Tidy@?$vector@U?$tvec3@E$0A@@glm@@V?$allocator@U?$tvec3@E$0A@@glm@@@std@@@std@@AEAAXXZ
xdata	ENDS
;	COMDAT xdata
xdata	SEGMENT
$unwind$?_Tidy@?$vector@U?$tvec3@E$0A@@glm@@V?$allocator@U?$tvec3@E$0A@@glm@@@std@@@std@@AEAAXXZ DD 020a19H
	DD	07006920aH
	DD	imagerel __CxxFrameHandler4
	DD	imagerel $cppxdata$?_Tidy@?$vector@U?$tvec3@E$0A@@glm@@V?$allocator@U?$tvec3@E$0A@@glm@@@std@@@std@@AEAAXXZ
xdata	ENDS
;	COMDAT xdata
xdata	SEGMENT
$unwind$?_Buy_nonzero@?$vector@U?$tvec3@E$0A@@glm@@V?$allocator@U?$tvec3@E$0A@@glm@@@std@@@std@@AEAAX_K@Z DD 020f01H
	DD	0700b320fH
xdata	ENDS
;	COMDAT xdata
xdata	SEGMENT
$unwind$?_Buy_raw@?$vector@U?$tvec3@E$0A@@glm@@V?$allocator@U?$tvec3@E$0A@@glm@@@std@@@std@@AEAAX_K@Z DD 020f01H
	DD	0700b920fH
xdata	ENDS
;	COMDAT xdata
xdata	SEGMENT
$unwind$??A?$vector@U?$tvec3@E$0A@@glm@@V?$allocator@U?$tvec3@E$0A@@glm@@@std@@@std@@QEAAAEAU?$tvec3@E$0A@@glm@@_K@Z DD 020f01H
	DD	0700b720fH
xdata	ENDS
;	COMDAT xdata
xdata	SEGMENT
$unwind$?max_size@?$vector@U?$tvec3@E$0A@@glm@@V?$allocator@U?$tvec3@E$0A@@glm@@@std@@@std@@QEBA_KXZ DD 020a01H
	DD	07006520aH
xdata	ENDS
;	COMDAT xdata
xdata	SEGMENT
$unwind$?size@?$vector@U?$tvec3@E$0A@@glm@@V?$allocator@U?$tvec3@E$0A@@glm@@@std@@@std@@QEBA_KXZ DD 020a01H
	DD	07006120aH
xdata	ENDS
;	COMDAT xdata
xdata	SEGMENT
$unwind$??1?$vector@U?$tvec3@E$0A@@glm@@V?$allocator@U?$tvec3@E$0A@@glm@@@std@@@std@@QEAA@XZ DD 022001H
	DD	07006920aH
xdata	ENDS
;	COMDAT CONST
CONST	SEGMENT
??1?$vector@U?$tvec3@E$0A@@glm@@V?$allocator@U?$tvec3@E$0A@@glm@@@std@@@std@@QEAA@XZ$rtcName$0 DB 024H ; std::vector<glm::tvec3<unsigned char,0>,std::allocator<glm::tvec3<unsigned char,0> > >::~vector<glm::tvec3<unsigned char,0>,std::allocator<glm::tvec3<unsigned char,0> > >
	DB	053H
	DB	031H
	DB	00H
	ORG $+12
??1?$vector@U?$tvec3@E$0A@@glm@@V?$allocator@U?$tvec3@E$0A@@glm@@@std@@@std@@QEAA@XZ$rtcVarDesc DD 034H ; std::vector<glm::tvec3<unsigned char,0>,std::allocator<glm::tvec3<unsigned char,0> > >::~vector<glm::tvec3<unsigned char,0>,std::allocator<glm::tvec3<unsigned char,0> > >
	DD	01H
	DQ	FLAT:??1?$vector@U?$tvec3@E$0A@@glm@@V?$allocator@U?$tvec3@E$0A@@glm@@@std@@@std@@QEAA@XZ$rtcName$0
	ORG $+48
??1?$vector@U?$tvec3@E$0A@@glm@@V?$allocator@U?$tvec3@E$0A@@glm@@@std@@@std@@QEAA@XZ$rtcFrameData DD 01H ; std::vector<glm::tvec3<unsigned char,0>,std::allocator<glm::tvec3<unsigned char,0> > >::~vector<glm::tvec3<unsigned char,0>,std::allocator<glm::tvec3<unsigned char,0> > >
	DD	00H
	DQ	FLAT:??1?$vector@U?$tvec3@E$0A@@glm@@V?$allocator@U?$tvec3@E$0A@@glm@@@std@@@std@@QEAA@XZ$rtcVarDesc
CONST	ENDS
;	COMDAT xdata
xdata	SEGMENT
$unwind$??0?$vector@U?$tvec3@E$0A@@glm@@V?$allocator@U?$tvec3@E$0A@@glm@@@std@@@std@@QEAA@_KAEBV?$allocator@U?$tvec3@E$0A@@glm@@@1@@Z DD 021401H
	DD	070105214H
xdata	ENDS
;	COMDAT xdata
xdata	SEGMENT
$unwind$?max_size@?$_Default_allocator_traits@V?$allocator@U?$tvec3@E$0A@@glm@@@std@@@std@@SA_KAEBV?$allocator@U?$tvec3@E$0A@@glm@@@2@@Z DD 010601H
	DD	07006H
xdata	ENDS
;	COMDAT xdata
xdata	SEGMENT
$unwind$?allocate@?$allocator@U?$tvec3@E$0A@@glm@@@std@@QEAAPEAU?$tvec3@E$0A@@glm@@_K@Z DD 020f01H
	DD	0700b320fH
xdata	ENDS
;	COMDAT xdata
xdata	SEGMENT
$unwind$?deallocate@?$allocator@U?$tvec3@E$0A@@glm@@@std@@QEAAXQEAU?$tvec3@E$0A@@glm@@_K@Z DD 021401H
	DD	070105214H
xdata	ENDS
;	COMDAT xdata
xdata	SEGMENT
$unwind$??0?$allocator@U?$tvec3@E$0A@@glm@@@std@@QEAA@XZ DD 010601H
	DD	07006H
xdata	ENDS
voltbl	SEGMENT
_volmd	DD	0ffffffffH
	DDSymXIndex: 	FLAT:?dtor$2@?0??test_openmp@@YAHXZ@4HA
	DD	00H
	DD	05H
_volmd	DD	0ffffffffH
	DDSymXIndex: 	FLAT:?dtor$1@?0??test_openmp@@YAHXZ@4HA
	DD	00H
	DD	05H
_volmd	DD	0ffffffffH
	DDSymXIndex: 	FLAT:?dtor$0@?0??test_openmp@@YAHXZ@4HA
	DD	00H
	DD	05H
voltbl	ENDS
;	COMDAT xdata
xdata	SEGMENT
$unwind$??$all@$00Utvec4@glm@@@glm@@YA_NAEBU?$tvec4@_N$00@0@@Z DD 020a01H
	DD	07006520aH
xdata	ENDS
;	COMDAT xdata
xdata	SEGMENT
$unwind$??0?$tvec4@_N$00@glm@@QEAA@W4ctor@1@@Z DD 010a01H
	DD	0700aH
xdata	ENDS
;	COMDAT xdata
xdata	SEGMENT
$unwind$??A?$tvec4@_N$00@glm@@QEBAAEB_NH@Z DD 020e01H
	DD	0700a320eH
xdata	ENDS
;	COMDAT xdata
xdata	SEGMENT
$unwind$??A?$tvec4@_N$00@glm@@QEAAAEA_NH@Z DD 020e01H
	DD	0700a320eH
xdata	ENDS
;	COMDAT xdata
xdata	SEGMENT
$unwind$?length@?$tvec4@_N$00@glm@@SAHXZ DD 010201H
	DD	07002H
xdata	ENDS
;	COMDAT xdata
xdata	SEGMENT
$unwind$??$equal@M$00Utvec4@glm@@@glm@@YA?AU?$tvec4@_N$00@0@AEBU?$tvec4@M$00@0@0@Z DD 022a01H
	DD	070109214H
xdata	ENDS
;	COMDAT CONST
CONST	SEGMENT
??$equal@M$00Utvec4@glm@@@glm@@YA?AU?$tvec4@_N$00@0@AEBU?$tvec4@M$00@0@0@Z$rtcName$0 DB 052H ; glm::equal<float,1,glm::tvec4>
	DB	065H
	DB	073H
	DB	075H
	DB	06cH
	DB	074H
	DB	00H
	ORG $+9
??$equal@M$00Utvec4@glm@@@glm@@YA?AU?$tvec4@_N$00@0@AEBU?$tvec4@M$00@0@0@Z$rtcVarDesc DD 024H ; glm::equal<float,1,glm::tvec4>
	DD	04H
	DQ	FLAT:??$equal@M$00Utvec4@glm@@@glm@@YA?AU?$tvec4@_N$00@0@AEBU?$tvec4@M$00@0@0@Z$rtcName$0
	ORG $+48
??$equal@M$00Utvec4@glm@@@glm@@YA?AU?$tvec4@_N$00@0@AEBU?$tvec4@M$00@0@0@Z$rtcFrameData DD 01H ; glm::equal<float,1,glm::tvec4>
	DD	00H
	DQ	FLAT:??$equal@M$00Utvec4@glm@@@glm@@YA?AU?$tvec4@_N$00@0@AEBU?$tvec4@M$00@0@0@Z$rtcVarDesc
CONST	ENDS
;	COMDAT xdata
xdata	SEGMENT
$unwind$??$?0H$01@?$tvec3@H$0A@@glm@@QEAA@AEBU?$tvec4@H$01@1@@Z DD 010b01H
	DD	0700bH
xdata	ENDS
;	COMDAT xdata
xdata	SEGMENT
$unwind$??$?0M$00@?$tvec4@H$0A@@glm@@QEAA@AEBU?$tvec4@M$00@1@@Z DD 010b01H
	DD	0700bH
xdata	ENDS
;	COMDAT xdata
xdata	SEGMENT
$unwind$??$?0$01@?$tvec4@M$00@glm@@QEAA@AEBU?$tvec4@M$01@1@@Z DD 010b01H
	DD	0700bH
xdata	ENDS
;	COMDAT xdata
xdata	SEGMENT
$unwind$??$?0$00@?$tvec4@M$01@glm@@QEAA@AEBU?$tvec4@M$00@1@@Z DD 010b01H
	DD	0700bH
xdata	ENDS
;	COMDAT xdata
xdata	SEGMENT
$unwind$??$?0HHHH@?$tvec4@M$0A@@glm@@QEAA@HHHH@Z DD 011401H
	DD	07014H
xdata	ENDS
;	COMDAT xdata
xdata	SEGMENT
$unwind$??$equal@M$0A@@glm@@YA?AU?$tvec4@_N$0A@@0@AEBU?$tquat@M$0A@@0@0@Z DD 022a01H
	DD	070109214H
xdata	ENDS
;	COMDAT CONST
CONST	SEGMENT
??$equal@M$0A@@glm@@YA?AU?$tvec4@_N$0A@@0@AEBU?$tquat@M$0A@@0@0@Z$rtcName$0 DB 052H ; glm::equal<float,0>
	DB	065H
	DB	073H
	DB	075H
	DB	06cH
	DB	074H
	DB	00H
	ORG $+9
??$equal@M$0A@@glm@@YA?AU?$tvec4@_N$0A@@0@AEBU?$tquat@M$0A@@0@0@Z$rtcVarDesc DD 024H ; glm::equal<float,0>
	DD	04H
	DQ	FLAT:??$equal@M$0A@@glm@@YA?AU?$tvec4@_N$0A@@0@AEBU?$tquat@M$0A@@0@0@Z$rtcName$0
	ORG $+48
??$equal@M$0A@@glm@@YA?AU?$tvec4@_N$0A@@0@AEBU?$tquat@M$0A@@0@0@Z$rtcFrameData DD 01H ; glm::equal<float,0>
	DD	00H
	DQ	FLAT:??$equal@M$0A@@glm@@YA?AU?$tvec4@_N$0A@@0@AEBU?$tquat@M$0A@@0@0@Z$rtcVarDesc
CONST	ENDS
;	COMDAT xdata
xdata	SEGMENT
$unwind$??$?0$00@?$tquat@M$0A@@glm@@QEAA@AEBU?$tquat@M$00@1@@Z DD 010b01H
	DD	0700bH
xdata	ENDS
;	COMDAT xdata
xdata	SEGMENT
$unwind$??$?0$01@?$tquat@M$0A@@glm@@QEAA@AEBU?$tquat@M$01@1@@Z DD 010b01H
	DD	0700bH
xdata	ENDS
;	COMDAT xdata
xdata	SEGMENT
$unwind$??$?0$0A@@?$tquat@M$00@glm@@QEAA@AEBU?$tquat@M$0A@@1@@Z DD 010b01H
	DD	0700bH
xdata	ENDS
;	COMDAT xdata
xdata	SEGMENT
$unwind$??$?0$0A@@?$tquat@M$01@glm@@QEAA@AEBU?$tquat@M$0A@@1@@Z DD 010b01H
	DD	0700bH
xdata	ENDS
;	COMDAT xdata
xdata	SEGMENT
$unwind$??0?$tquat@M$0A@@glm@@QEAA@XZ DD 010601H
	DD	07006H
xdata	ENDS
;	COMDAT xdata
xdata	SEGMENT
$unwind$??A?$tquat@M$0A@@glm@@QEBAAEBMH@Z DD 020e01H
	DD	0700a320eH
xdata	ENDS
;	COMDAT xdata
xdata	SEGMENT
$unwind$?length@?$tquat@M$0A@@glm@@SAHXZ DD 010201H
	DD	07002H
xdata	ENDS
;	COMDAT xdata
xdata	SEGMENT
$unwind$??$?0$00@?$tvec4@_K$0A@@glm@@QEAA@AEBU?$tvec4@_K$00@1@@Z DD 010b01H
	DD	0700bH
xdata	ENDS
;	COMDAT xdata
xdata	SEGMENT
$unwind$??$equal@_K$0A@Utvec4@glm@@@glm@@YA?AU?$tvec4@_N$0A@@0@AEBU?$tvec4@_K$0A@@0@0@Z DD 022a01H
	DD	070109214H
xdata	ENDS
;	COMDAT CONST
CONST	SEGMENT
??$equal@_K$0A@Utvec4@glm@@@glm@@YA?AU?$tvec4@_N$0A@@0@AEBU?$tvec4@_K$0A@@0@0@Z$rtcName$0 DB 052H ; glm::equal<unsigned __int64,0,glm::tvec4>
	DB	065H
	DB	073H
	DB	075H
	DB	06cH
	DB	074H
	DB	00H
	ORG $+9
??$equal@_K$0A@Utvec4@glm@@@glm@@YA?AU?$tvec4@_N$0A@@0@AEBU?$tvec4@_K$0A@@0@0@Z$rtcVarDesc DD 024H ; glm::equal<unsigned __int64,0,glm::tvec4>
	DD	04H
	DQ	FLAT:??$equal@_K$0A@Utvec4@glm@@@glm@@YA?AU?$tvec4@_N$0A@@0@AEBU?$tvec4@_K$0A@@0@0@Z$rtcName$0
	ORG $+48
??$equal@_K$0A@Utvec4@glm@@@glm@@YA?AU?$tvec4@_N$0A@@0@AEBU?$tvec4@_K$0A@@0@0@Z$rtcFrameData DD 01H ; glm::equal<unsigned __int64,0,glm::tvec4>
	DD	00H
	DQ	FLAT:??$equal@_K$0A@Utvec4@glm@@@glm@@YA?AU?$tvec4@_N$0A@@0@AEBU?$tvec4@_K$0A@@0@0@Z$rtcVarDesc
CONST	ENDS
;	COMDAT xdata
xdata	SEGMENT
$unwind$??$?0$01@?$tvec4@_K$0A@@glm@@QEAA@AEBU?$tvec4@_K$01@1@@Z DD 010b01H
	DD	0700bH
xdata	ENDS
;	COMDAT xdata
xdata	SEGMENT
$unwind$??$?0$0A@@?$tvec4@_K$00@glm@@QEAA@AEBU?$tvec4@_K$0A@@1@@Z DD 010b01H
	DD	0700bH
xdata	ENDS
;	COMDAT xdata
xdata	SEGMENT
$unwind$??$?0$0A@@?$tvec4@_K$01@glm@@QEAA@AEBU?$tvec4@_K$0A@@1@@Z DD 010b01H
	DD	0700bH
xdata	ENDS
;	COMDAT xdata
xdata	SEGMENT
$unwind$??$?0$00@?$tvec3@_K$0A@@glm@@QEAA@AEBU?$tvec3@_K$00@1@@Z DD 010b01H
	DD	0700bH
xdata	ENDS
;	COMDAT xdata
xdata	SEGMENT
$unwind$??$equal@_K$0A@Utvec3@glm@@@glm@@YA?AU?$tvec3@_N$0A@@0@AEBU?$tvec3@_K$0A@@0@0@Z DD 032b01H
	DD	07011a215H
	DD	06010H
xdata	ENDS
;	COMDAT CONST
CONST	SEGMENT
??$equal@_K$0A@Utvec3@glm@@@glm@@YA?AU?$tvec3@_N$0A@@0@AEBU?$tvec3@_K$0A@@0@0@Z$rtcName$0 DB 052H ; glm::equal<unsigned __int64,0,glm::tvec3>
	DB	065H
	DB	073H
	DB	075H
	DB	06cH
	DB	074H
	DB	00H
	ORG $+9
??$equal@_K$0A@Utvec3@glm@@@glm@@YA?AU?$tvec3@_N$0A@@0@AEBU?$tvec3@_K$0A@@0@0@Z$rtcVarDesc DD 024H ; glm::equal<unsigned __int64,0,glm::tvec3>
	DD	03H
	DQ	FLAT:??$equal@_K$0A@Utvec3@glm@@@glm@@YA?AU?$tvec3@_N$0A@@0@AEBU?$tvec3@_K$0A@@0@0@Z$rtcName$0
	ORG $+48
??$equal@_K$0A@Utvec3@glm@@@glm@@YA?AU?$tvec3@_N$0A@@0@AEBU?$tvec3@_K$0A@@0@0@Z$rtcFrameData DD 01H ; glm::equal<unsigned __int64,0,glm::tvec3>
	DD	00H
	DQ	FLAT:??$equal@_K$0A@Utvec3@glm@@@glm@@YA?AU?$tvec3@_N$0A@@0@AEBU?$tvec3@_K$0A@@0@0@Z$rtcVarDesc
CONST	ENDS
;	COMDAT xdata
xdata	SEGMENT
$unwind$??$?0$01@?$tvec3@_K$0A@@glm@@QEAA@AEBU?$tvec3@_K$01@1@@Z DD 010b01H
	DD	0700bH
xdata	ENDS
;	COMDAT xdata
xdata	SEGMENT
$unwind$??$?0$0A@@?$tvec3@_K$00@glm@@QEAA@AEBU?$tvec3@_K$0A@@1@@Z DD 010b01H
	DD	0700bH
xdata	ENDS
;	COMDAT xdata
xdata	SEGMENT
$unwind$??$?0$0A@@?$tvec3@_K$01@glm@@QEAA@AEBU?$tvec3@_K$0A@@1@@Z DD 010b01H
	DD	0700bH
xdata	ENDS
;	COMDAT xdata
xdata	SEGMENT
$unwind$??$?0$00@?$tvec2@_K$0A@@glm@@QEAA@AEBU?$tvec2@_K$00@1@@Z DD 010b01H
	DD	0700bH
xdata	ENDS
;	COMDAT xdata
xdata	SEGMENT
$unwind$??$equal@_K$0A@Utvec2@glm@@@glm@@YA?AU?$tvec2@_N$0A@@0@AEBU?$tvec2@_K$0A@@0@0@Z DD 022a01H
	DD	070109214H
xdata	ENDS
;	COMDAT CONST
CONST	SEGMENT
??$equal@_K$0A@Utvec2@glm@@@glm@@YA?AU?$tvec2@_N$0A@@0@AEBU?$tvec2@_K$0A@@0@0@Z$rtcName$0 DB 052H ; glm::equal<unsigned __int64,0,glm::tvec2>
	DB	065H
	DB	073H
	DB	075H
	DB	06cH
	DB	074H
	DB	00H
	ORG $+9
??$equal@_K$0A@Utvec2@glm@@@glm@@YA?AU?$tvec2@_N$0A@@0@AEBU?$tvec2@_K$0A@@0@0@Z$rtcVarDesc DD 024H ; glm::equal<unsigned __int64,0,glm::tvec2>
	DD	02H
	DQ	FLAT:??$equal@_K$0A@Utvec2@glm@@@glm@@YA?AU?$tvec2@_N$0A@@0@AEBU?$tvec2@_K$0A@@0@0@Z$rtcName$0
	ORG $+48
??$equal@_K$0A@Utvec2@glm@@@glm@@YA?AU?$tvec2@_N$0A@@0@AEBU?$tvec2@_K$0A@@0@0@Z$rtcFrameData DD 01H ; glm::equal<unsigned __int64,0,glm::tvec2>
	DD	00H
	DQ	FLAT:??$equal@_K$0A@Utvec2@glm@@@glm@@YA?AU?$tvec2@_N$0A@@0@AEBU?$tvec2@_K$0A@@0@0@Z$rtcVarDesc
CONST	ENDS
;	COMDAT xdata
xdata	SEGMENT
$unwind$??$?0$01@?$tvec2@_K$0A@@glm@@QEAA@AEBU?$tvec2@_K$01@1@@Z DD 010b01H
	DD	0700bH
xdata	ENDS
;	COMDAT xdata
xdata	SEGMENT
$unwind$??$?0$0A@@?$tvec2@_K$00@glm@@QEAA@AEBU?$tvec2@_K$0A@@1@@Z DD 010b01H
	DD	0700bH
xdata	ENDS
;	COMDAT xdata
xdata	SEGMENT
$unwind$??$?0$0A@@?$tvec2@_K$01@glm@@QEAA@AEBU?$tvec2@_K$0A@@1@@Z DD 010b01H
	DD	0700bH
xdata	ENDS
;	COMDAT xdata
xdata	SEGMENT
$unwind$??$?0$00@?$tvec4@I$0A@@glm@@QEAA@AEBU?$tvec4@I$00@1@@Z DD 010b01H
	DD	0700bH
xdata	ENDS
;	COMDAT xdata
xdata	SEGMENT
$unwind$??$equal@I$0A@Utvec4@glm@@@glm@@YA?AU?$tvec4@_N$0A@@0@AEBU?$tvec4@I$0A@@0@0@Z DD 022a01H
	DD	070109214H
xdata	ENDS
;	COMDAT CONST
CONST	SEGMENT
??$equal@I$0A@Utvec4@glm@@@glm@@YA?AU?$tvec4@_N$0A@@0@AEBU?$tvec4@I$0A@@0@0@Z$rtcName$0 DB 052H ; glm::equal<unsigned int,0,glm::tvec4>
	DB	065H
	DB	073H
	DB	075H
	DB	06cH
	DB	074H
	DB	00H
	ORG $+9
??$equal@I$0A@Utvec4@glm@@@glm@@YA?AU?$tvec4@_N$0A@@0@AEBU?$tvec4@I$0A@@0@0@Z$rtcVarDesc DD 024H ; glm::equal<unsigned int,0,glm::tvec4>
	DD	04H
	DQ	FLAT:??$equal@I$0A@Utvec4@glm@@@glm@@YA?AU?$tvec4@_N$0A@@0@AEBU?$tvec4@I$0A@@0@0@Z$rtcName$0
	ORG $+48
??$equal@I$0A@Utvec4@glm@@@glm@@YA?AU?$tvec4@_N$0A@@0@AEBU?$tvec4@I$0A@@0@0@Z$rtcFrameData DD 01H ; glm::equal<unsigned int,0,glm::tvec4>
	DD	00H
	DQ	FLAT:??$equal@I$0A@Utvec4@glm@@@glm@@YA?AU?$tvec4@_N$0A@@0@AEBU?$tvec4@I$0A@@0@0@Z$rtcVarDesc
CONST	ENDS
;	COMDAT xdata
xdata	SEGMENT
$unwind$??$?0$01@?$tvec4@I$0A@@glm@@QEAA@AEBU?$tvec4@I$01@1@@Z DD 010b01H
	DD	0700bH
xdata	ENDS
;	COMDAT xdata
xdata	SEGMENT
$unwind$??$?0$0A@@?$tvec4@I$00@glm@@QEAA@AEBU?$tvec4@I$0A@@1@@Z DD 010b01H
	DD	0700bH
xdata	ENDS
;	COMDAT xdata
xdata	SEGMENT
$unwind$??$?0$0A@@?$tvec4@I$01@glm@@QEAA@AEBU?$tvec4@I$0A@@1@@Z DD 010b01H
	DD	0700bH
xdata	ENDS
;	COMDAT xdata
xdata	SEGMENT
$unwind$??$?0$00@?$tvec3@I$0A@@glm@@QEAA@AEBU?$tvec3@I$00@1@@Z DD 010b01H
	DD	0700bH
xdata	ENDS
;	COMDAT xdata
xdata	SEGMENT
$unwind$??$equal@I$0A@Utvec3@glm@@@glm@@YA?AU?$tvec3@_N$0A@@0@AEBU?$tvec3@I$0A@@0@0@Z DD 032b01H
	DD	07011a215H
	DD	06010H
xdata	ENDS
;	COMDAT CONST
CONST	SEGMENT
??$equal@I$0A@Utvec3@glm@@@glm@@YA?AU?$tvec3@_N$0A@@0@AEBU?$tvec3@I$0A@@0@0@Z$rtcName$0 DB 052H ; glm::equal<unsigned int,0,glm::tvec3>
	DB	065H
	DB	073H
	DB	075H
	DB	06cH
	DB	074H
	DB	00H
	ORG $+9
??$equal@I$0A@Utvec3@glm@@@glm@@YA?AU?$tvec3@_N$0A@@0@AEBU?$tvec3@I$0A@@0@0@Z$rtcVarDesc DD 024H ; glm::equal<unsigned int,0,glm::tvec3>
	DD	03H
	DQ	FLAT:??$equal@I$0A@Utvec3@glm@@@glm@@YA?AU?$tvec3@_N$0A@@0@AEBU?$tvec3@I$0A@@0@0@Z$rtcName$0
	ORG $+48
??$equal@I$0A@Utvec3@glm@@@glm@@YA?AU?$tvec3@_N$0A@@0@AEBU?$tvec3@I$0A@@0@0@Z$rtcFrameData DD 01H ; glm::equal<unsigned int,0,glm::tvec3>
	DD	00H
	DQ	FLAT:??$equal@I$0A@Utvec3@glm@@@glm@@YA?AU?$tvec3@_N$0A@@0@AEBU?$tvec3@I$0A@@0@0@Z$rtcVarDesc
CONST	ENDS
;	COMDAT xdata
xdata	SEGMENT
$unwind$??$?0$01@?$tvec3@I$0A@@glm@@QEAA@AEBU?$tvec3@I$01@1@@Z DD 010b01H
	DD	0700bH
xdata	ENDS
;	COMDAT xdata
xdata	SEGMENT
$unwind$??$?0$0A@@?$tvec3@I$00@glm@@QEAA@AEBU?$tvec3@I$0A@@1@@Z DD 010b01H
	DD	0700bH
xdata	ENDS
;	COMDAT xdata
xdata	SEGMENT
$unwind$??$?0$0A@@?$tvec3@I$01@glm@@QEAA@AEBU?$tvec3@I$0A@@1@@Z DD 010b01H
	DD	0700bH
xdata	ENDS
;	COMDAT xdata
xdata	SEGMENT
$unwind$??$?0$00@?$tvec2@I$0A@@glm@@QEAA@AEBU?$tvec2@I$00@1@@Z DD 010b01H
	DD	0700bH
xdata	ENDS
;	COMDAT xdata
xdata	SEGMENT
$unwind$??$equal@I$0A@Utvec2@glm@@@glm@@YA?AU?$tvec2@_N$0A@@0@AEBU?$tvec2@I$0A@@0@0@Z DD 022a01H
	DD	070109214H
xdata	ENDS
;	COMDAT CONST
CONST	SEGMENT
??$equal@I$0A@Utvec2@glm@@@glm@@YA?AU?$tvec2@_N$0A@@0@AEBU?$tvec2@I$0A@@0@0@Z$rtcName$0 DB 052H ; glm::equal<unsigned int,0,glm::tvec2>
	DB	065H
	DB	073H
	DB	075H
	DB	06cH
	DB	074H
	DB	00H
	ORG $+9
??$equal@I$0A@Utvec2@glm@@@glm@@YA?AU?$tvec2@_N$0A@@0@AEBU?$tvec2@I$0A@@0@0@Z$rtcVarDesc DD 024H ; glm::equal<unsigned int,0,glm::tvec2>
	DD	02H
	DQ	FLAT:??$equal@I$0A@Utvec2@glm@@@glm@@YA?AU?$tvec2@_N$0A@@0@AEBU?$tvec2@I$0A@@0@0@Z$rtcName$0
	ORG $+48
??$equal@I$0A@Utvec2@glm@@@glm@@YA?AU?$tvec2@_N$0A@@0@AEBU?$tvec2@I$0A@@0@0@Z$rtcFrameData DD 01H ; glm::equal<unsigned int,0,glm::tvec2>
	DD	00H
	DQ	FLAT:??$equal@I$0A@Utvec2@glm@@@glm@@YA?AU?$tvec2@_N$0A@@0@AEBU?$tvec2@I$0A@@0@0@Z$rtcVarDesc
CONST	ENDS
;	COMDAT xdata
xdata	SEGMENT
$unwind$??$?0$01@?$tvec2@I$0A@@glm@@QEAA@AEBU?$tvec2@I$01@1@@Z DD 010b01H
	DD	0700bH
xdata	ENDS
;	COMDAT xdata
xdata	SEGMENT
$unwind$??$?0$0A@@?$tvec2@I$00@glm@@QEAA@AEBU?$tvec2@I$0A@@1@@Z DD 010b01H
	DD	0700bH
xdata	ENDS
;	COMDAT xdata
xdata	SEGMENT
$unwind$??$?0$0A@@?$tvec2@I$01@glm@@QEAA@AEBU?$tvec2@I$0A@@1@@Z DD 010b01H
	DD	0700bH
xdata	ENDS
;	COMDAT xdata
xdata	SEGMENT
$unwind$??$?0$00@?$tvec4@G$0A@@glm@@QEAA@AEBU?$tvec4@G$00@1@@Z DD 010b01H
	DD	0700bH
xdata	ENDS
;	COMDAT xdata
xdata	SEGMENT
$unwind$??$equal@G$0A@Utvec4@glm@@@glm@@YA?AU?$tvec4@_N$0A@@0@AEBU?$tvec4@G$0A@@0@0@Z DD 022a01H
	DD	070109214H
xdata	ENDS
;	COMDAT CONST
CONST	SEGMENT
??$equal@G$0A@Utvec4@glm@@@glm@@YA?AU?$tvec4@_N$0A@@0@AEBU?$tvec4@G$0A@@0@0@Z$rtcName$0 DB 052H ; glm::equal<unsigned short,0,glm::tvec4>
	DB	065H
	DB	073H
	DB	075H
	DB	06cH
	DB	074H
	DB	00H
	ORG $+9
??$equal@G$0A@Utvec4@glm@@@glm@@YA?AU?$tvec4@_N$0A@@0@AEBU?$tvec4@G$0A@@0@0@Z$rtcVarDesc DD 024H ; glm::equal<unsigned short,0,glm::tvec4>
	DD	04H
	DQ	FLAT:??$equal@G$0A@Utvec4@glm@@@glm@@YA?AU?$tvec4@_N$0A@@0@AEBU?$tvec4@G$0A@@0@0@Z$rtcName$0
	ORG $+48
??$equal@G$0A@Utvec4@glm@@@glm@@YA?AU?$tvec4@_N$0A@@0@AEBU?$tvec4@G$0A@@0@0@Z$rtcFrameData DD 01H ; glm::equal<unsigned short,0,glm::tvec4>
	DD	00H
	DQ	FLAT:??$equal@G$0A@Utvec4@glm@@@glm@@YA?AU?$tvec4@_N$0A@@0@AEBU?$tvec4@G$0A@@0@0@Z$rtcVarDesc
CONST	ENDS
;	COMDAT xdata
xdata	SEGMENT
$unwind$??$?0$01@?$tvec4@G$0A@@glm@@QEAA@AEBU?$tvec4@G$01@1@@Z DD 010b01H
	DD	0700bH
xdata	ENDS
;	COMDAT xdata
xdata	SEGMENT
$unwind$??$?0$0A@@?$tvec4@G$00@glm@@QEAA@AEBU?$tvec4@G$0A@@1@@Z DD 010b01H
	DD	0700bH
xdata	ENDS
;	COMDAT xdata
xdata	SEGMENT
$unwind$??$?0$0A@@?$tvec4@G$01@glm@@QEAA@AEBU?$tvec4@G$0A@@1@@Z DD 010b01H
	DD	0700bH
xdata	ENDS
;	COMDAT xdata
xdata	SEGMENT
$unwind$??$?0$00@?$tvec3@G$0A@@glm@@QEAA@AEBU?$tvec3@G$00@1@@Z DD 010b01H
	DD	0700bH
xdata	ENDS
;	COMDAT xdata
xdata	SEGMENT
$unwind$??$equal@G$0A@Utvec3@glm@@@glm@@YA?AU?$tvec3@_N$0A@@0@AEBU?$tvec3@G$0A@@0@0@Z DD 032b01H
	DD	07011a215H
	DD	06010H
xdata	ENDS
;	COMDAT CONST
CONST	SEGMENT
??$equal@G$0A@Utvec3@glm@@@glm@@YA?AU?$tvec3@_N$0A@@0@AEBU?$tvec3@G$0A@@0@0@Z$rtcName$0 DB 052H ; glm::equal<unsigned short,0,glm::tvec3>
	DB	065H
	DB	073H
	DB	075H
	DB	06cH
	DB	074H
	DB	00H
	ORG $+9
??$equal@G$0A@Utvec3@glm@@@glm@@YA?AU?$tvec3@_N$0A@@0@AEBU?$tvec3@G$0A@@0@0@Z$rtcVarDesc DD 024H ; glm::equal<unsigned short,0,glm::tvec3>
	DD	03H
	DQ	FLAT:??$equal@G$0A@Utvec3@glm@@@glm@@YA?AU?$tvec3@_N$0A@@0@AEBU?$tvec3@G$0A@@0@0@Z$rtcName$0
	ORG $+48
??$equal@G$0A@Utvec3@glm@@@glm@@YA?AU?$tvec3@_N$0A@@0@AEBU?$tvec3@G$0A@@0@0@Z$rtcFrameData DD 01H ; glm::equal<unsigned short,0,glm::tvec3>
	DD	00H
	DQ	FLAT:??$equal@G$0A@Utvec3@glm@@@glm@@YA?AU?$tvec3@_N$0A@@0@AEBU?$tvec3@G$0A@@0@0@Z$rtcVarDesc
CONST	ENDS
;	COMDAT xdata
xdata	SEGMENT
$unwind$??$?0$01@?$tvec3@G$0A@@glm@@QEAA@AEBU?$tvec3@G$01@1@@Z DD 010b01H
	DD	0700bH
xdata	ENDS
;	COMDAT xdata
xdata	SEGMENT
$unwind$??$?0$0A@@?$tvec3@G$00@glm@@QEAA@AEBU?$tvec3@G$0A@@1@@Z DD 010b01H
	DD	0700bH
xdata	ENDS
;	COMDAT xdata
xdata	SEGMENT
$unwind$??$?0$0A@@?$tvec3@G$01@glm@@QEAA@AEBU?$tvec3@G$0A@@1@@Z DD 010b01H
	DD	0700bH
xdata	ENDS
;	COMDAT xdata
xdata	SEGMENT
$unwind$??$?0$00@?$tvec2@G$0A@@glm@@QEAA@AEBU?$tvec2@G$00@1@@Z DD 010b01H
	DD	0700bH
xdata	ENDS
;	COMDAT xdata
xdata	SEGMENT
$unwind$??$equal@G$0A@Utvec2@glm@@@glm@@YA?AU?$tvec2@_N$0A@@0@AEBU?$tvec2@G$0A@@0@0@Z DD 022a01H
	DD	070109214H
xdata	ENDS
;	COMDAT CONST
CONST	SEGMENT
??$equal@G$0A@Utvec2@glm@@@glm@@YA?AU?$tvec2@_N$0A@@0@AEBU?$tvec2@G$0A@@0@0@Z$rtcName$0 DB 052H ; glm::equal<unsigned short,0,glm::tvec2>
	DB	065H
	DB	073H
	DB	075H
	DB	06cH
	DB	074H
	DB	00H
	ORG $+9
??$equal@G$0A@Utvec2@glm@@@glm@@YA?AU?$tvec2@_N$0A@@0@AEBU?$tvec2@G$0A@@0@0@Z$rtcVarDesc DD 024H ; glm::equal<unsigned short,0,glm::tvec2>
	DD	02H
	DQ	FLAT:??$equal@G$0A@Utvec2@glm@@@glm@@YA?AU?$tvec2@_N$0A@@0@AEBU?$tvec2@G$0A@@0@0@Z$rtcName$0
	ORG $+48
??$equal@G$0A@Utvec2@glm@@@glm@@YA?AU?$tvec2@_N$0A@@0@AEBU?$tvec2@G$0A@@0@0@Z$rtcFrameData DD 01H ; glm::equal<unsigned short,0,glm::tvec2>
	DD	00H
	DQ	FLAT:??$equal@G$0A@Utvec2@glm@@@glm@@YA?AU?$tvec2@_N$0A@@0@AEBU?$tvec2@G$0A@@0@0@Z$rtcVarDesc
CONST	ENDS
;	COMDAT xdata
xdata	SEGMENT
$unwind$??$?0$01@?$tvec2@G$0A@@glm@@QEAA@AEBU?$tvec2@G$01@1@@Z DD 010b01H
	DD	0700bH
xdata	ENDS
;	COMDAT xdata
xdata	SEGMENT
$unwind$??$?0$0A@@?$tvec2@G$00@glm@@QEAA@AEBU?$tvec2@G$0A@@1@@Z DD 010b01H
	DD	0700bH
xdata	ENDS
;	COMDAT xdata
xdata	SEGMENT
$unwind$??$?0$0A@@?$tvec2@G$01@glm@@QEAA@AEBU?$tvec2@G$0A@@1@@Z DD 010b01H
	DD	0700bH
xdata	ENDS
;	COMDAT xdata
xdata	SEGMENT
$unwind$??$?0$00@?$tvec4@E$0A@@glm@@QEAA@AEBU?$tvec4@E$00@1@@Z DD 010b01H
	DD	0700bH
xdata	ENDS
;	COMDAT xdata
xdata	SEGMENT
$unwind$??$equal@E$0A@Utvec4@glm@@@glm@@YA?AU?$tvec4@_N$0A@@0@AEBU?$tvec4@E$0A@@0@0@Z DD 022a01H
	DD	070109214H
xdata	ENDS
;	COMDAT CONST
CONST	SEGMENT
??$equal@E$0A@Utvec4@glm@@@glm@@YA?AU?$tvec4@_N$0A@@0@AEBU?$tvec4@E$0A@@0@0@Z$rtcName$0 DB 052H ; glm::equal<unsigned char,0,glm::tvec4>
	DB	065H
	DB	073H
	DB	075H
	DB	06cH
	DB	074H
	DB	00H
	ORG $+9
??$equal@E$0A@Utvec4@glm@@@glm@@YA?AU?$tvec4@_N$0A@@0@AEBU?$tvec4@E$0A@@0@0@Z$rtcVarDesc DD 024H ; glm::equal<unsigned char,0,glm::tvec4>
	DD	04H
	DQ	FLAT:??$equal@E$0A@Utvec4@glm@@@glm@@YA?AU?$tvec4@_N$0A@@0@AEBU?$tvec4@E$0A@@0@0@Z$rtcName$0
	ORG $+48
??$equal@E$0A@Utvec4@glm@@@glm@@YA?AU?$tvec4@_N$0A@@0@AEBU?$tvec4@E$0A@@0@0@Z$rtcFrameData DD 01H ; glm::equal<unsigned char,0,glm::tvec4>
	DD	00H
	DQ	FLAT:??$equal@E$0A@Utvec4@glm@@@glm@@YA?AU?$tvec4@_N$0A@@0@AEBU?$tvec4@E$0A@@0@0@Z$rtcVarDesc
CONST	ENDS
;	COMDAT xdata
xdata	SEGMENT
$unwind$??$?0$01@?$tvec4@E$0A@@glm@@QEAA@AEBU?$tvec4@E$01@1@@Z DD 010b01H
	DD	0700bH
xdata	ENDS
;	COMDAT xdata
xdata	SEGMENT
$unwind$??$?0$0A@@?$tvec4@E$00@glm@@QEAA@AEBU?$tvec4@E$0A@@1@@Z DD 010b01H
	DD	0700bH
xdata	ENDS
;	COMDAT xdata
xdata	SEGMENT
$unwind$??$?0$0A@@?$tvec4@E$01@glm@@QEAA@AEBU?$tvec4@E$0A@@1@@Z DD 010b01H
	DD	0700bH
xdata	ENDS
;	COMDAT xdata
xdata	SEGMENT
$unwind$??$?0$00@?$tvec3@E$0A@@glm@@QEAA@AEBU?$tvec3@E$00@1@@Z DD 010b01H
	DD	0700bH
xdata	ENDS
;	COMDAT xdata
xdata	SEGMENT
$unwind$??$equal@E$0A@Utvec3@glm@@@glm@@YA?AU?$tvec3@_N$0A@@0@AEBU?$tvec3@E$0A@@0@0@Z DD 032b01H
	DD	07011a215H
	DD	06010H
xdata	ENDS
;	COMDAT CONST
CONST	SEGMENT
??$equal@E$0A@Utvec3@glm@@@glm@@YA?AU?$tvec3@_N$0A@@0@AEBU?$tvec3@E$0A@@0@0@Z$rtcName$0 DB 052H ; glm::equal<unsigned char,0,glm::tvec3>
	DB	065H
	DB	073H
	DB	075H
	DB	06cH
	DB	074H
	DB	00H
	ORG $+9
??$equal@E$0A@Utvec3@glm@@@glm@@YA?AU?$tvec3@_N$0A@@0@AEBU?$tvec3@E$0A@@0@0@Z$rtcVarDesc DD 024H ; glm::equal<unsigned char,0,glm::tvec3>
	DD	03H
	DQ	FLAT:??$equal@E$0A@Utvec3@glm@@@glm@@YA?AU?$tvec3@_N$0A@@0@AEBU?$tvec3@E$0A@@0@0@Z$rtcName$0
	ORG $+48
??$equal@E$0A@Utvec3@glm@@@glm@@YA?AU?$tvec3@_N$0A@@0@AEBU?$tvec3@E$0A@@0@0@Z$rtcFrameData DD 01H ; glm::equal<unsigned char,0,glm::tvec3>
	DD	00H
	DQ	FLAT:??$equal@E$0A@Utvec3@glm@@@glm@@YA?AU?$tvec3@_N$0A@@0@AEBU?$tvec3@E$0A@@0@0@Z$rtcVarDesc
CONST	ENDS
;	COMDAT xdata
xdata	SEGMENT
$unwind$??$?0$01@?$tvec3@E$0A@@glm@@QEAA@AEBU?$tvec3@E$01@1@@Z DD 010b01H
	DD	0700bH
xdata	ENDS
;	COMDAT xdata
xdata	SEGMENT
$unwind$??$?0$0A@@?$tvec3@E$00@glm@@QEAA@AEBU?$tvec3@E$0A@@1@@Z DD 010b01H
	DD	0700bH
xdata	ENDS
;	COMDAT xdata
xdata	SEGMENT
$unwind$??$?0$0A@@?$tvec3@E$01@glm@@QEAA@AEBU?$tvec3@E$0A@@1@@Z DD 010b01H
	DD	0700bH
xdata	ENDS
;	COMDAT xdata
xdata	SEGMENT
$unwind$??$?0$00@?$tvec2@E$0A@@glm@@QEAA@AEBU?$tvec2@E$00@1@@Z DD 010b01H
	DD	0700bH
xdata	ENDS
;	COMDAT xdata
xdata	SEGMENT
$unwind$??$equal@E$0A@Utvec2@glm@@@glm@@YA?AU?$tvec2@_N$0A@@0@AEBU?$tvec2@E$0A@@0@0@Z DD 022a01H
	DD	070109214H
xdata	ENDS
;	COMDAT CONST
CONST	SEGMENT
??$equal@E$0A@Utvec2@glm@@@glm@@YA?AU?$tvec2@_N$0A@@0@AEBU?$tvec2@E$0A@@0@0@Z$rtcName$0 DB 052H ; glm::equal<unsigned char,0,glm::tvec2>
	DB	065H
	DB	073H
	DB	075H
	DB	06cH
	DB	074H
	DB	00H
	ORG $+9
??$equal@E$0A@Utvec2@glm@@@glm@@YA?AU?$tvec2@_N$0A@@0@AEBU?$tvec2@E$0A@@0@0@Z$rtcVarDesc DD 024H ; glm::equal<unsigned char,0,glm::tvec2>
	DD	02H
	DQ	FLAT:??$equal@E$0A@Utvec2@glm@@@glm@@YA?AU?$tvec2@_N$0A@@0@AEBU?$tvec2@E$0A@@0@0@Z$rtcName$0
	ORG $+48
??$equal@E$0A@Utvec2@glm@@@glm@@YA?AU?$tvec2@_N$0A@@0@AEBU?$tvec2@E$0A@@0@0@Z$rtcFrameData DD 01H ; glm::equal<unsigned char,0,glm::tvec2>
	DD	00H
	DQ	FLAT:??$equal@E$0A@Utvec2@glm@@@glm@@YA?AU?$tvec2@_N$0A@@0@AEBU?$tvec2@E$0A@@0@0@Z$rtcVarDesc
CONST	ENDS
;	COMDAT xdata
xdata	SEGMENT
$unwind$??$?0$01@?$tvec2@E$0A@@glm@@QEAA@AEBU?$tvec2@E$01@1@@Z DD 010b01H
	DD	0700bH
xdata	ENDS
;	COMDAT xdata
xdata	SEGMENT
$unwind$??$?0$0A@@?$tvec2@E$00@glm@@QEAA@AEBU?$tvec2@E$0A@@1@@Z DD 010b01H
	DD	0700bH
xdata	ENDS
;	COMDAT xdata
xdata	SEGMENT
$unwind$??$?0$0A@@?$tvec2@E$01@glm@@QEAA@AEBU?$tvec2@E$0A@@1@@Z DD 010b01H
	DD	0700bH
xdata	ENDS
;	COMDAT xdata
xdata	SEGMENT
$unwind$??0?$tvec4@_K$0A@@glm@@QEAA@XZ DD 010601H
	DD	07006H
xdata	ENDS
;	COMDAT xdata
xdata	SEGMENT
$unwind$??A?$tvec4@_K$0A@@glm@@QEBAAEB_KH@Z DD 020e01H
	DD	0700a320eH
xdata	ENDS
;	COMDAT xdata
xdata	SEGMENT
$unwind$?length@?$tvec4@_K$0A@@glm@@SAHXZ DD 010201H
	DD	07002H
xdata	ENDS
;	COMDAT xdata
xdata	SEGMENT
$unwind$??0?$tvec3@_K$0A@@glm@@QEAA@XZ DD 010601H
	DD	07006H
xdata	ENDS
;	COMDAT xdata
xdata	SEGMENT
$unwind$??A?$tvec3@_K$0A@@glm@@QEBAAEB_KH@Z DD 020e01H
	DD	0700a320eH
xdata	ENDS
;	COMDAT xdata
xdata	SEGMENT
$unwind$?length@?$tvec3@_K$0A@@glm@@SAHXZ DD 010201H
	DD	07002H
xdata	ENDS
;	COMDAT xdata
xdata	SEGMENT
$unwind$??0?$tvec2@_K$0A@@glm@@QEAA@XZ DD 010601H
	DD	07006H
xdata	ENDS
;	COMDAT xdata
xdata	SEGMENT
$unwind$??A?$tvec2@_K$0A@@glm@@QEBAAEB_KH@Z DD 020e01H
	DD	0700a320eH
xdata	ENDS
;	COMDAT xdata
xdata	SEGMENT
$unwind$?length@?$tvec2@_K$0A@@glm@@SAHXZ DD 010201H
	DD	07002H
xdata	ENDS
;	COMDAT xdata
xdata	SEGMENT
$unwind$??0?$tvec4@I$0A@@glm@@QEAA@XZ DD 010601H
	DD	07006H
xdata	ENDS
;	COMDAT xdata
xdata	SEGMENT
$unwind$??A?$tvec4@I$0A@@glm@@QEBAAEBIH@Z DD 020e01H
	DD	0700a320eH
xdata	ENDS
;	COMDAT xdata
xdata	SEGMENT
$unwind$?length@?$tvec4@I$0A@@glm@@SAHXZ DD 010201H
	DD	07002H
xdata	ENDS
;	COMDAT xdata
xdata	SEGMENT
$unwind$??0?$tvec3@I$0A@@glm@@QEAA@XZ DD 010601H
	DD	07006H
xdata	ENDS
;	COMDAT xdata
xdata	SEGMENT
$unwind$??A?$tvec3@I$0A@@glm@@QEBAAEBIH@Z DD 020e01H
	DD	0700a320eH
xdata	ENDS
;	COMDAT xdata
xdata	SEGMENT
$unwind$?length@?$tvec3@I$0A@@glm@@SAHXZ DD 010201H
	DD	07002H
xdata	ENDS
;	COMDAT xdata
xdata	SEGMENT
$unwind$??0?$tvec4@G$0A@@glm@@QEAA@XZ DD 010601H
	DD	07006H
xdata	ENDS
;	COMDAT xdata
xdata	SEGMENT
$unwind$??A?$tvec4@G$0A@@glm@@QEBAAEBGH@Z DD 020e01H
	DD	0700a320eH
xdata	ENDS
;	COMDAT xdata
xdata	SEGMENT
$unwind$?length@?$tvec4@G$0A@@glm@@SAHXZ DD 010201H
	DD	07002H
xdata	ENDS
;	COMDAT xdata
xdata	SEGMENT
$unwind$??0?$tvec3@G$0A@@glm@@QEAA@XZ DD 010601H
	DD	07006H
xdata	ENDS
;	COMDAT xdata
xdata	SEGMENT
$unwind$??A?$tvec3@G$0A@@glm@@QEBAAEBGH@Z DD 020e01H
	DD	0700a320eH
xdata	ENDS
;	COMDAT xdata
xdata	SEGMENT
$unwind$?length@?$tvec3@G$0A@@glm@@SAHXZ DD 010201H
	DD	07002H
xdata	ENDS
;	COMDAT xdata
xdata	SEGMENT
$unwind$??0?$tvec3@E$0A@@glm@@QEAA@XZ DD 010601H
	DD	07006H
xdata	ENDS
;	COMDAT xdata
xdata	SEGMENT
$unwind$??A?$tvec3@E$0A@@glm@@QEBAAEBEH@Z DD 020e01H
	DD	0700a320eH
xdata	ENDS
;	COMDAT xdata
xdata	SEGMENT
$unwind$?length@?$tvec3@E$0A@@glm@@SAHXZ DD 010201H
	DD	07002H
xdata	ENDS
;	COMDAT xdata
xdata	SEGMENT
$unwind$??0?$tvec2@E$0A@@glm@@QEAA@XZ DD 010601H
	DD	07006H
xdata	ENDS
;	COMDAT xdata
xdata	SEGMENT
$unwind$??A?$tvec2@E$0A@@glm@@QEBAAEBEH@Z DD 020e01H
	DD	0700a320eH
xdata	ENDS
;	COMDAT xdata
xdata	SEGMENT
$unwind$?length@?$tvec2@E$0A@@glm@@SAHXZ DD 010201H
	DD	07002H
xdata	ENDS
;	COMDAT xdata
xdata	SEGMENT
$unwind$??$?0$00@?$tvec4@_J$0A@@glm@@QEAA@AEBU?$tvec4@_J$00@1@@Z DD 010b01H
	DD	0700bH
xdata	ENDS
;	COMDAT xdata
xdata	SEGMENT
$unwind$??$equal@_J$0A@Utvec4@glm@@@glm@@YA?AU?$tvec4@_N$0A@@0@AEBU?$tvec4@_J$0A@@0@0@Z DD 022a01H
	DD	070109214H
xdata	ENDS
;	COMDAT CONST
CONST	SEGMENT
??$equal@_J$0A@Utvec4@glm@@@glm@@YA?AU?$tvec4@_N$0A@@0@AEBU?$tvec4@_J$0A@@0@0@Z$rtcName$0 DB 052H ; glm::equal<__int64,0,glm::tvec4>
	DB	065H
	DB	073H
	DB	075H
	DB	06cH
	DB	074H
	DB	00H
	ORG $+9
??$equal@_J$0A@Utvec4@glm@@@glm@@YA?AU?$tvec4@_N$0A@@0@AEBU?$tvec4@_J$0A@@0@0@Z$rtcVarDesc DD 024H ; glm::equal<__int64,0,glm::tvec4>
	DD	04H
	DQ	FLAT:??$equal@_J$0A@Utvec4@glm@@@glm@@YA?AU?$tvec4@_N$0A@@0@AEBU?$tvec4@_J$0A@@0@0@Z$rtcName$0
	ORG $+48
??$equal@_J$0A@Utvec4@glm@@@glm@@YA?AU?$tvec4@_N$0A@@0@AEBU?$tvec4@_J$0A@@0@0@Z$rtcFrameData DD 01H ; glm::equal<__int64,0,glm::tvec4>
	DD	00H
	DQ	FLAT:??$equal@_J$0A@Utvec4@glm@@@glm@@YA?AU?$tvec4@_N$0A@@0@AEBU?$tvec4@_J$0A@@0@0@Z$rtcVarDesc
CONST	ENDS
;	COMDAT xdata
xdata	SEGMENT
$unwind$??$?0$01@?$tvec4@_J$0A@@glm@@QEAA@AEBU?$tvec4@_J$01@1@@Z DD 010b01H
	DD	0700bH
xdata	ENDS
;	COMDAT xdata
xdata	SEGMENT
$unwind$??$?0$0A@@?$tvec4@_J$00@glm@@QEAA@AEBU?$tvec4@_J$0A@@1@@Z DD 010b01H
	DD	0700bH
xdata	ENDS
;	COMDAT xdata
xdata	SEGMENT
$unwind$??$?0$0A@@?$tvec4@_J$01@glm@@QEAA@AEBU?$tvec4@_J$0A@@1@@Z DD 010b01H
	DD	0700bH
xdata	ENDS
;	COMDAT xdata
xdata	SEGMENT
$unwind$??$?0$00@?$tvec3@_J$0A@@glm@@QEAA@AEBU?$tvec3@_J$00@1@@Z DD 010b01H
	DD	0700bH
xdata	ENDS
;	COMDAT xdata
xdata	SEGMENT
$unwind$??$equal@_J$0A@Utvec3@glm@@@glm@@YA?AU?$tvec3@_N$0A@@0@AEBU?$tvec3@_J$0A@@0@0@Z DD 032b01H
	DD	07011a215H
	DD	06010H
xdata	ENDS
;	COMDAT CONST
CONST	SEGMENT
??$equal@_J$0A@Utvec3@glm@@@glm@@YA?AU?$tvec3@_N$0A@@0@AEBU?$tvec3@_J$0A@@0@0@Z$rtcName$0 DB 052H ; glm::equal<__int64,0,glm::tvec3>
	DB	065H
	DB	073H
	DB	075H
	DB	06cH
	DB	074H
	DB	00H
	ORG $+9
??$equal@_J$0A@Utvec3@glm@@@glm@@YA?AU?$tvec3@_N$0A@@0@AEBU?$tvec3@_J$0A@@0@0@Z$rtcVarDesc DD 024H ; glm::equal<__int64,0,glm::tvec3>
	DD	03H
	DQ	FLAT:??$equal@_J$0A@Utvec3@glm@@@glm@@YA?AU?$tvec3@_N$0A@@0@AEBU?$tvec3@_J$0A@@0@0@Z$rtcName$0
	ORG $+48
??$equal@_J$0A@Utvec3@glm@@@glm@@YA?AU?$tvec3@_N$0A@@0@AEBU?$tvec3@_J$0A@@0@0@Z$rtcFrameData DD 01H ; glm::equal<__int64,0,glm::tvec3>
	DD	00H
	DQ	FLAT:??$equal@_J$0A@Utvec3@glm@@@glm@@YA?AU?$tvec3@_N$0A@@0@AEBU?$tvec3@_J$0A@@0@0@Z$rtcVarDesc
CONST	ENDS
;	COMDAT xdata
xdata	SEGMENT
$unwind$??$?0$01@?$tvec3@_J$0A@@glm@@QEAA@AEBU?$tvec3@_J$01@1@@Z DD 010b01H
	DD	0700bH
xdata	ENDS
;	COMDAT xdata
xdata	SEGMENT
$unwind$??$?0$0A@@?$tvec3@_J$00@glm@@QEAA@AEBU?$tvec3@_J$0A@@1@@Z DD 010b01H
	DD	0700bH
xdata	ENDS
;	COMDAT xdata
xdata	SEGMENT
$unwind$??$?0$0A@@?$tvec3@_J$01@glm@@QEAA@AEBU?$tvec3@_J$0A@@1@@Z DD 010b01H
	DD	0700bH
xdata	ENDS
;	COMDAT xdata
xdata	SEGMENT
$unwind$??$?0$00@?$tvec2@_J$0A@@glm@@QEAA@AEBU?$tvec2@_J$00@1@@Z DD 010b01H
	DD	0700bH
xdata	ENDS
;	COMDAT xdata
xdata	SEGMENT
$unwind$??$equal@_J$0A@Utvec2@glm@@@glm@@YA?AU?$tvec2@_N$0A@@0@AEBU?$tvec2@_J$0A@@0@0@Z DD 022a01H
	DD	070109214H
xdata	ENDS
;	COMDAT CONST
CONST	SEGMENT
??$equal@_J$0A@Utvec2@glm@@@glm@@YA?AU?$tvec2@_N$0A@@0@AEBU?$tvec2@_J$0A@@0@0@Z$rtcName$0 DB 052H ; glm::equal<__int64,0,glm::tvec2>
	DB	065H
	DB	073H
	DB	075H
	DB	06cH
	DB	074H
	DB	00H
	ORG $+9
??$equal@_J$0A@Utvec2@glm@@@glm@@YA?AU?$tvec2@_N$0A@@0@AEBU?$tvec2@_J$0A@@0@0@Z$rtcVarDesc DD 024H ; glm::equal<__int64,0,glm::tvec2>
	DD	02H
	DQ	FLAT:??$equal@_J$0A@Utvec2@glm@@@glm@@YA?AU?$tvec2@_N$0A@@0@AEBU?$tvec2@_J$0A@@0@0@Z$rtcName$0
	ORG $+48
??$equal@_J$0A@Utvec2@glm@@@glm@@YA?AU?$tvec2@_N$0A@@0@AEBU?$tvec2@_J$0A@@0@0@Z$rtcFrameData DD 01H ; glm::equal<__int64,0,glm::tvec2>
	DD	00H
	DQ	FLAT:??$equal@_J$0A@Utvec2@glm@@@glm@@YA?AU?$tvec2@_N$0A@@0@AEBU?$tvec2@_J$0A@@0@0@Z$rtcVarDesc
CONST	ENDS
;	COMDAT xdata
xdata	SEGMENT
$unwind$??$?0$01@?$tvec2@_J$0A@@glm@@QEAA@AEBU?$tvec2@_J$01@1@@Z DD 010b01H
	DD	0700bH
xdata	ENDS
;	COMDAT xdata
xdata	SEGMENT
$unwind$??$?0$0A@@?$tvec2@_J$00@glm@@QEAA@AEBU?$tvec2@_J$0A@@1@@Z DD 010b01H
	DD	0700bH
xdata	ENDS
;	COMDAT xdata
xdata	SEGMENT
$unwind$??$?0$0A@@?$tvec2@_J$01@glm@@QEAA@AEBU?$tvec2@_J$0A@@1@@Z DD 010b01H
	DD	0700bH
xdata	ENDS
;	COMDAT xdata
xdata	SEGMENT
$unwind$??$?0$00@?$tvec4@H$0A@@glm@@QEAA@AEBU?$tvec4@H$00@1@@Z DD 010b01H
	DD	0700bH
xdata	ENDS
;	COMDAT xdata
xdata	SEGMENT
$unwind$??$equal@H$0A@Utvec4@glm@@@glm@@YA?AU?$tvec4@_N$0A@@0@AEBU?$tvec4@H$0A@@0@0@Z DD 022a01H
	DD	070109214H
xdata	ENDS
;	COMDAT CONST
CONST	SEGMENT
??$equal@H$0A@Utvec4@glm@@@glm@@YA?AU?$tvec4@_N$0A@@0@AEBU?$tvec4@H$0A@@0@0@Z$rtcName$0 DB 052H ; glm::equal<int,0,glm::tvec4>
	DB	065H
	DB	073H
	DB	075H
	DB	06cH
	DB	074H
	DB	00H
	ORG $+9
??$equal@H$0A@Utvec4@glm@@@glm@@YA?AU?$tvec4@_N$0A@@0@AEBU?$tvec4@H$0A@@0@0@Z$rtcVarDesc DD 024H ; glm::equal<int,0,glm::tvec4>
	DD	04H
	DQ	FLAT:??$equal@H$0A@Utvec4@glm@@@glm@@YA?AU?$tvec4@_N$0A@@0@AEBU?$tvec4@H$0A@@0@0@Z$rtcName$0
	ORG $+48
??$equal@H$0A@Utvec4@glm@@@glm@@YA?AU?$tvec4@_N$0A@@0@AEBU?$tvec4@H$0A@@0@0@Z$rtcFrameData DD 01H ; glm::equal<int,0,glm::tvec4>
	DD	00H
	DQ	FLAT:??$equal@H$0A@Utvec4@glm@@@glm@@YA?AU?$tvec4@_N$0A@@0@AEBU?$tvec4@H$0A@@0@0@Z$rtcVarDesc
CONST	ENDS
;	COMDAT xdata
xdata	SEGMENT
$unwind$??$?0$01@?$tvec4@H$0A@@glm@@QEAA@AEBU?$tvec4@H$01@1@@Z DD 010b01H
	DD	0700bH
xdata	ENDS
;	COMDAT xdata
xdata	SEGMENT
$unwind$??$?0$0A@@?$tvec4@H$00@glm@@QEAA@AEBU?$tvec4@H$0A@@1@@Z DD 010b01H
	DD	0700bH
xdata	ENDS
;	COMDAT xdata
xdata	SEGMENT
$unwind$??$?0$0A@@?$tvec4@H$01@glm@@QEAA@AEBU?$tvec4@H$0A@@1@@Z DD 010b01H
	DD	0700bH
xdata	ENDS
;	COMDAT xdata
xdata	SEGMENT
$unwind$??$?0$00@?$tvec3@H$0A@@glm@@QEAA@AEBU?$tvec3@H$00@1@@Z DD 010b01H
	DD	0700bH
xdata	ENDS
;	COMDAT xdata
xdata	SEGMENT
$unwind$??$equal@H$0A@Utvec3@glm@@@glm@@YA?AU?$tvec3@_N$0A@@0@AEBU?$tvec3@H$0A@@0@0@Z DD 032b01H
	DD	07011a215H
	DD	06010H
xdata	ENDS
;	COMDAT CONST
CONST	SEGMENT
??$equal@H$0A@Utvec3@glm@@@glm@@YA?AU?$tvec3@_N$0A@@0@AEBU?$tvec3@H$0A@@0@0@Z$rtcName$0 DB 052H ; glm::equal<int,0,glm::tvec3>
	DB	065H
	DB	073H
	DB	075H
	DB	06cH
	DB	074H
	DB	00H
	ORG $+9
??$equal@H$0A@Utvec3@glm@@@glm@@YA?AU?$tvec3@_N$0A@@0@AEBU?$tvec3@H$0A@@0@0@Z$rtcVarDesc DD 024H ; glm::equal<int,0,glm::tvec3>
	DD	03H
	DQ	FLAT:??$equal@H$0A@Utvec3@glm@@@glm@@YA?AU?$tvec3@_N$0A@@0@AEBU?$tvec3@H$0A@@0@0@Z$rtcName$0
	ORG $+48
??$equal@H$0A@Utvec3@glm@@@glm@@YA?AU?$tvec3@_N$0A@@0@AEBU?$tvec3@H$0A@@0@0@Z$rtcFrameData DD 01H ; glm::equal<int,0,glm::tvec3>
	DD	00H
	DQ	FLAT:??$equal@H$0A@Utvec3@glm@@@glm@@YA?AU?$tvec3@_N$0A@@0@AEBU?$tvec3@H$0A@@0@0@Z$rtcVarDesc
CONST	ENDS
;	COMDAT xdata
xdata	SEGMENT
$unwind$??$?0$01@?$tvec3@H$0A@@glm@@QEAA@AEBU?$tvec3@H$01@1@@Z DD 010b01H
	DD	0700bH
xdata	ENDS
;	COMDAT xdata
xdata	SEGMENT
$unwind$??$?0$0A@@?$tvec3@H$00@glm@@QEAA@AEBU?$tvec3@H$0A@@1@@Z DD 010b01H
	DD	0700bH
xdata	ENDS
;	COMDAT xdata
xdata	SEGMENT
$unwind$??$?0$0A@@?$tvec3@H$01@glm@@QEAA@AEBU?$tvec3@H$0A@@1@@Z DD 010b01H
	DD	0700bH
xdata	ENDS
;	COMDAT xdata
xdata	SEGMENT
$unwind$??$?0$00@?$tvec2@H$0A@@glm@@QEAA@AEBU?$tvec2@H$00@1@@Z DD 010b01H
	DD	0700bH
xdata	ENDS
;	COMDAT xdata
xdata	SEGMENT
$unwind$??$equal@H$0A@Utvec2@glm@@@glm@@YA?AU?$tvec2@_N$0A@@0@AEBU?$tvec2@H$0A@@0@0@Z DD 022a01H
	DD	070109214H
xdata	ENDS
;	COMDAT CONST
CONST	SEGMENT
??$equal@H$0A@Utvec2@glm@@@glm@@YA?AU?$tvec2@_N$0A@@0@AEBU?$tvec2@H$0A@@0@0@Z$rtcName$0 DB 052H ; glm::equal<int,0,glm::tvec2>
	DB	065H
	DB	073H
	DB	075H
	DB	06cH
	DB	074H
	DB	00H
	ORG $+9
??$equal@H$0A@Utvec2@glm@@@glm@@YA?AU?$tvec2@_N$0A@@0@AEBU?$tvec2@H$0A@@0@0@Z$rtcVarDesc DD 024H ; glm::equal<int,0,glm::tvec2>
	DD	02H
	DQ	FLAT:??$equal@H$0A@Utvec2@glm@@@glm@@YA?AU?$tvec2@_N$0A@@0@AEBU?$tvec2@H$0A@@0@0@Z$rtcName$0
	ORG $+48
??$equal@H$0A@Utvec2@glm@@@glm@@YA?AU?$tvec2@_N$0A@@0@AEBU?$tvec2@H$0A@@0@0@Z$rtcFrameData DD 01H ; glm::equal<int,0,glm::tvec2>
	DD	00H
	DQ	FLAT:??$equal@H$0A@Utvec2@glm@@@glm@@YA?AU?$tvec2@_N$0A@@0@AEBU?$tvec2@H$0A@@0@0@Z$rtcVarDesc
CONST	ENDS
;	COMDAT xdata
xdata	SEGMENT
$unwind$??$?0$01@?$tvec2@H$0A@@glm@@QEAA@AEBU?$tvec2@H$01@1@@Z DD 010b01H
	DD	0700bH
xdata	ENDS
;	COMDAT xdata
xdata	SEGMENT
$unwind$??$?0$0A@@?$tvec2@H$00@glm@@QEAA@AEBU?$tvec2@H$0A@@1@@Z DD 010b01H
	DD	0700bH
xdata	ENDS
;	COMDAT xdata
xdata	SEGMENT
$unwind$??$?0$0A@@?$tvec2@H$01@glm@@QEAA@AEBU?$tvec2@H$0A@@1@@Z DD 010b01H
	DD	0700bH
xdata	ENDS
;	COMDAT xdata
xdata	SEGMENT
$unwind$??$?0$00@?$tvec4@F$0A@@glm@@QEAA@AEBU?$tvec4@F$00@1@@Z DD 010b01H
	DD	0700bH
xdata	ENDS
;	COMDAT xdata
xdata	SEGMENT
$unwind$??$equal@F$0A@Utvec4@glm@@@glm@@YA?AU?$tvec4@_N$0A@@0@AEBU?$tvec4@F$0A@@0@0@Z DD 022a01H
	DD	070109214H
xdata	ENDS
;	COMDAT CONST
CONST	SEGMENT
??$equal@F$0A@Utvec4@glm@@@glm@@YA?AU?$tvec4@_N$0A@@0@AEBU?$tvec4@F$0A@@0@0@Z$rtcName$0 DB 052H ; glm::equal<short,0,glm::tvec4>
	DB	065H
	DB	073H
	DB	075H
	DB	06cH
	DB	074H
	DB	00H
	ORG $+9
??$equal@F$0A@Utvec4@glm@@@glm@@YA?AU?$tvec4@_N$0A@@0@AEBU?$tvec4@F$0A@@0@0@Z$rtcVarDesc DD 024H ; glm::equal<short,0,glm::tvec4>
	DD	04H
	DQ	FLAT:??$equal@F$0A@Utvec4@glm@@@glm@@YA?AU?$tvec4@_N$0A@@0@AEBU?$tvec4@F$0A@@0@0@Z$rtcName$0
	ORG $+48
??$equal@F$0A@Utvec4@glm@@@glm@@YA?AU?$tvec4@_N$0A@@0@AEBU?$tvec4@F$0A@@0@0@Z$rtcFrameData DD 01H ; glm::equal<short,0,glm::tvec4>
	DD	00H
	DQ	FLAT:??$equal@F$0A@Utvec4@glm@@@glm@@YA?AU?$tvec4@_N$0A@@0@AEBU?$tvec4@F$0A@@0@0@Z$rtcVarDesc
CONST	ENDS
;	COMDAT xdata
xdata	SEGMENT
$unwind$??$?0$01@?$tvec4@F$0A@@glm@@QEAA@AEBU?$tvec4@F$01@1@@Z DD 010b01H
	DD	0700bH
xdata	ENDS
;	COMDAT xdata
xdata	SEGMENT
$unwind$??$?0$0A@@?$tvec4@F$00@glm@@QEAA@AEBU?$tvec4@F$0A@@1@@Z DD 010b01H
	DD	0700bH
xdata	ENDS
;	COMDAT xdata
xdata	SEGMENT
$unwind$??$?0$0A@@?$tvec4@F$01@glm@@QEAA@AEBU?$tvec4@F$0A@@1@@Z DD 010b01H
	DD	0700bH
xdata	ENDS
;	COMDAT xdata
xdata	SEGMENT
$unwind$??$?0$00@?$tvec3@F$0A@@glm@@QEAA@AEBU?$tvec3@F$00@1@@Z DD 010b01H
	DD	0700bH
xdata	ENDS
;	COMDAT xdata
xdata	SEGMENT
$unwind$??$equal@F$0A@Utvec3@glm@@@glm@@YA?AU?$tvec3@_N$0A@@0@AEBU?$tvec3@F$0A@@0@0@Z DD 032b01H
	DD	07011a215H
	DD	06010H
xdata	ENDS
;	COMDAT CONST
CONST	SEGMENT
??$equal@F$0A@Utvec3@glm@@@glm@@YA?AU?$tvec3@_N$0A@@0@AEBU?$tvec3@F$0A@@0@0@Z$rtcName$0 DB 052H ; glm::equal<short,0,glm::tvec3>
	DB	065H
	DB	073H
	DB	075H
	DB	06cH
	DB	074H
	DB	00H
	ORG $+9
??$equal@F$0A@Utvec3@glm@@@glm@@YA?AU?$tvec3@_N$0A@@0@AEBU?$tvec3@F$0A@@0@0@Z$rtcVarDesc DD 024H ; glm::equal<short,0,glm::tvec3>
	DD	03H
	DQ	FLAT:??$equal@F$0A@Utvec3@glm@@@glm@@YA?AU?$tvec3@_N$0A@@0@AEBU?$tvec3@F$0A@@0@0@Z$rtcName$0
	ORG $+48
??$equal@F$0A@Utvec3@glm@@@glm@@YA?AU?$tvec3@_N$0A@@0@AEBU?$tvec3@F$0A@@0@0@Z$rtcFrameData DD 01H ; glm::equal<short,0,glm::tvec3>
	DD	00H
	DQ	FLAT:??$equal@F$0A@Utvec3@glm@@@glm@@YA?AU?$tvec3@_N$0A@@0@AEBU?$tvec3@F$0A@@0@0@Z$rtcVarDesc
CONST	ENDS
;	COMDAT xdata
xdata	SEGMENT
$unwind$??$?0$01@?$tvec3@F$0A@@glm@@QEAA@AEBU?$tvec3@F$01@1@@Z DD 010b01H
	DD	0700bH
xdata	ENDS
;	COMDAT xdata
xdata	SEGMENT
$unwind$??$?0$0A@@?$tvec3@F$00@glm@@QEAA@AEBU?$tvec3@F$0A@@1@@Z DD 010b01H
	DD	0700bH
xdata	ENDS
;	COMDAT xdata
xdata	SEGMENT
$unwind$??$?0$0A@@?$tvec3@F$01@glm@@QEAA@AEBU?$tvec3@F$0A@@1@@Z DD 010b01H
	DD	0700bH
xdata	ENDS
;	COMDAT xdata
xdata	SEGMENT
$unwind$??$?0$00@?$tvec2@F$0A@@glm@@QEAA@AEBU?$tvec2@F$00@1@@Z DD 010b01H
	DD	0700bH
xdata	ENDS
;	COMDAT xdata
xdata	SEGMENT
$unwind$??$equal@F$0A@Utvec2@glm@@@glm@@YA?AU?$tvec2@_N$0A@@0@AEBU?$tvec2@F$0A@@0@0@Z DD 022a01H
	DD	070109214H
xdata	ENDS
;	COMDAT CONST
CONST	SEGMENT
??$equal@F$0A@Utvec2@glm@@@glm@@YA?AU?$tvec2@_N$0A@@0@AEBU?$tvec2@F$0A@@0@0@Z$rtcName$0 DB 052H ; glm::equal<short,0,glm::tvec2>
	DB	065H
	DB	073H
	DB	075H
	DB	06cH
	DB	074H
	DB	00H
	ORG $+9
??$equal@F$0A@Utvec2@glm@@@glm@@YA?AU?$tvec2@_N$0A@@0@AEBU?$tvec2@F$0A@@0@0@Z$rtcVarDesc DD 024H ; glm::equal<short,0,glm::tvec2>
	DD	02H
	DQ	FLAT:??$equal@F$0A@Utvec2@glm@@@glm@@YA?AU?$tvec2@_N$0A@@0@AEBU?$tvec2@F$0A@@0@0@Z$rtcName$0
	ORG $+48
??$equal@F$0A@Utvec2@glm@@@glm@@YA?AU?$tvec2@_N$0A@@0@AEBU?$tvec2@F$0A@@0@0@Z$rtcFrameData DD 01H ; glm::equal<short,0,glm::tvec2>
	DD	00H
	DQ	FLAT:??$equal@F$0A@Utvec2@glm@@@glm@@YA?AU?$tvec2@_N$0A@@0@AEBU?$tvec2@F$0A@@0@0@Z$rtcVarDesc
CONST	ENDS
;	COMDAT xdata
xdata	SEGMENT
$unwind$??$?0$01@?$tvec2@F$0A@@glm@@QEAA@AEBU?$tvec2@F$01@1@@Z DD 010b01H
	DD	0700bH
xdata	ENDS
;	COMDAT xdata
xdata	SEGMENT
$unwind$??$?0$0A@@?$tvec2@F$00@glm@@QEAA@AEBU?$tvec2@F$0A@@1@@Z DD 010b01H
	DD	0700bH
xdata	ENDS
;	COMDAT xdata
xdata	SEGMENT
$unwind$??$?0$0A@@?$tvec2@F$01@glm@@QEAA@AEBU?$tvec2@F$0A@@1@@Z DD 010b01H
	DD	0700bH
xdata	ENDS
;	COMDAT xdata
xdata	SEGMENT
$unwind$??$?0$00@?$tvec4@C$0A@@glm@@QEAA@AEBU?$tvec4@C$00@1@@Z DD 010b01H
	DD	0700bH
xdata	ENDS
;	COMDAT xdata
xdata	SEGMENT
$unwind$??$equal@C$0A@Utvec4@glm@@@glm@@YA?AU?$tvec4@_N$0A@@0@AEBU?$tvec4@C$0A@@0@0@Z DD 022a01H
	DD	070109214H
xdata	ENDS
;	COMDAT CONST
CONST	SEGMENT
??$equal@C$0A@Utvec4@glm@@@glm@@YA?AU?$tvec4@_N$0A@@0@AEBU?$tvec4@C$0A@@0@0@Z$rtcName$0 DB 052H ; glm::equal<signed char,0,glm::tvec4>
	DB	065H
	DB	073H
	DB	075H
	DB	06cH
	DB	074H
	DB	00H
	ORG $+9
??$equal@C$0A@Utvec4@glm@@@glm@@YA?AU?$tvec4@_N$0A@@0@AEBU?$tvec4@C$0A@@0@0@Z$rtcVarDesc DD 024H ; glm::equal<signed char,0,glm::tvec4>
	DD	04H
	DQ	FLAT:??$equal@C$0A@Utvec4@glm@@@glm@@YA?AU?$tvec4@_N$0A@@0@AEBU?$tvec4@C$0A@@0@0@Z$rtcName$0
	ORG $+48
??$equal@C$0A@Utvec4@glm@@@glm@@YA?AU?$tvec4@_N$0A@@0@AEBU?$tvec4@C$0A@@0@0@Z$rtcFrameData DD 01H ; glm::equal<signed char,0,glm::tvec4>
	DD	00H
	DQ	FLAT:??$equal@C$0A@Utvec4@glm@@@glm@@YA?AU?$tvec4@_N$0A@@0@AEBU?$tvec4@C$0A@@0@0@Z$rtcVarDesc
CONST	ENDS
;	COMDAT xdata
xdata	SEGMENT
$unwind$??$?0$01@?$tvec4@C$0A@@glm@@QEAA@AEBU?$tvec4@C$01@1@@Z DD 010b01H
	DD	0700bH
xdata	ENDS
;	COMDAT xdata
xdata	SEGMENT
$unwind$??$?0$0A@@?$tvec4@C$00@glm@@QEAA@AEBU?$tvec4@C$0A@@1@@Z DD 010b01H
	DD	0700bH
xdata	ENDS
;	COMDAT xdata
xdata	SEGMENT
$unwind$??$?0$0A@@?$tvec4@C$01@glm@@QEAA@AEBU?$tvec4@C$0A@@1@@Z DD 010b01H
	DD	0700bH
xdata	ENDS
;	COMDAT xdata
xdata	SEGMENT
$unwind$??$?0$00@?$tvec3@C$0A@@glm@@QEAA@AEBU?$tvec3@C$00@1@@Z DD 010b01H
	DD	0700bH
xdata	ENDS
;	COMDAT xdata
xdata	SEGMENT
$unwind$??$equal@C$0A@Utvec3@glm@@@glm@@YA?AU?$tvec3@_N$0A@@0@AEBU?$tvec3@C$0A@@0@0@Z DD 032b01H
	DD	07011a215H
	DD	06010H
xdata	ENDS
;	COMDAT CONST
CONST	SEGMENT
??$equal@C$0A@Utvec3@glm@@@glm@@YA?AU?$tvec3@_N$0A@@0@AEBU?$tvec3@C$0A@@0@0@Z$rtcName$0 DB 052H ; glm::equal<signed char,0,glm::tvec3>
	DB	065H
	DB	073H
	DB	075H
	DB	06cH
	DB	074H
	DB	00H
	ORG $+9
??$equal@C$0A@Utvec3@glm@@@glm@@YA?AU?$tvec3@_N$0A@@0@AEBU?$tvec3@C$0A@@0@0@Z$rtcVarDesc DD 024H ; glm::equal<signed char,0,glm::tvec3>
	DD	03H
	DQ	FLAT:??$equal@C$0A@Utvec3@glm@@@glm@@YA?AU?$tvec3@_N$0A@@0@AEBU?$tvec3@C$0A@@0@0@Z$rtcName$0
	ORG $+48
??$equal@C$0A@Utvec3@glm@@@glm@@YA?AU?$tvec3@_N$0A@@0@AEBU?$tvec3@C$0A@@0@0@Z$rtcFrameData DD 01H ; glm::equal<signed char,0,glm::tvec3>
	DD	00H
	DQ	FLAT:??$equal@C$0A@Utvec3@glm@@@glm@@YA?AU?$tvec3@_N$0A@@0@AEBU?$tvec3@C$0A@@0@0@Z$rtcVarDesc
CONST	ENDS
;	COMDAT xdata
xdata	SEGMENT
$unwind$??$?0$01@?$tvec3@C$0A@@glm@@QEAA@AEBU?$tvec3@C$01@1@@Z DD 010b01H
	DD	0700bH
xdata	ENDS
;	COMDAT xdata
xdata	SEGMENT
$unwind$??$?0$0A@@?$tvec3@C$00@glm@@QEAA@AEBU?$tvec3@C$0A@@1@@Z DD 010b01H
	DD	0700bH
xdata	ENDS
;	COMDAT xdata
xdata	SEGMENT
$unwind$??$?0$0A@@?$tvec3@C$01@glm@@QEAA@AEBU?$tvec3@C$0A@@1@@Z DD 010b01H
	DD	0700bH
xdata	ENDS
;	COMDAT xdata
xdata	SEGMENT
$unwind$??$?0$00@?$tvec2@C$0A@@glm@@QEAA@AEBU?$tvec2@C$00@1@@Z DD 010b01H
	DD	0700bH
xdata	ENDS
;	COMDAT xdata
xdata	SEGMENT
$unwind$??$equal@C$0A@Utvec2@glm@@@glm@@YA?AU?$tvec2@_N$0A@@0@AEBU?$tvec2@C$0A@@0@0@Z DD 022a01H
	DD	070109214H
xdata	ENDS
;	COMDAT CONST
CONST	SEGMENT
??$equal@C$0A@Utvec2@glm@@@glm@@YA?AU?$tvec2@_N$0A@@0@AEBU?$tvec2@C$0A@@0@0@Z$rtcName$0 DB 052H ; glm::equal<signed char,0,glm::tvec2>
	DB	065H
	DB	073H
	DB	075H
	DB	06cH
	DB	074H
	DB	00H
	ORG $+9
??$equal@C$0A@Utvec2@glm@@@glm@@YA?AU?$tvec2@_N$0A@@0@AEBU?$tvec2@C$0A@@0@0@Z$rtcVarDesc DD 024H ; glm::equal<signed char,0,glm::tvec2>
	DD	02H
	DQ	FLAT:??$equal@C$0A@Utvec2@glm@@@glm@@YA?AU?$tvec2@_N$0A@@0@AEBU?$tvec2@C$0A@@0@0@Z$rtcName$0
	ORG $+48
??$equal@C$0A@Utvec2@glm@@@glm@@YA?AU?$tvec2@_N$0A@@0@AEBU?$tvec2@C$0A@@0@0@Z$rtcFrameData DD 01H ; glm::equal<signed char,0,glm::tvec2>
	DD	00H
	DQ	FLAT:??$equal@C$0A@Utvec2@glm@@@glm@@YA?AU?$tvec2@_N$0A@@0@AEBU?$tvec2@C$0A@@0@0@Z$rtcVarDesc
CONST	ENDS
;	COMDAT xdata
xdata	SEGMENT
$unwind$??$?0$01@?$tvec2@C$0A@@glm@@QEAA@AEBU?$tvec2@C$01@1@@Z DD 010b01H
	DD	0700bH
xdata	ENDS
;	COMDAT xdata
xdata	SEGMENT
$unwind$??$?0$0A@@?$tvec2@C$00@glm@@QEAA@AEBU?$tvec2@C$0A@@1@@Z DD 010b01H
	DD	0700bH
xdata	ENDS
;	COMDAT xdata
xdata	SEGMENT
$unwind$??$?0$0A@@?$tvec2@C$01@glm@@QEAA@AEBU?$tvec2@C$0A@@1@@Z DD 010b01H
	DD	0700bH
xdata	ENDS
;	COMDAT xdata
xdata	SEGMENT
$unwind$??0?$tvec4@_J$0A@@glm@@QEAA@XZ DD 010601H
	DD	07006H
xdata	ENDS
;	COMDAT xdata
xdata	SEGMENT
$unwind$??A?$tvec4@_J$0A@@glm@@QEBAAEB_JH@Z DD 020e01H
	DD	0700a320eH
xdata	ENDS
;	COMDAT xdata
xdata	SEGMENT
$unwind$?length@?$tvec4@_J$0A@@glm@@SAHXZ DD 010201H
	DD	07002H
xdata	ENDS
;	COMDAT xdata
xdata	SEGMENT
$unwind$??0?$tvec3@_J$0A@@glm@@QEAA@XZ DD 010601H
	DD	07006H
xdata	ENDS
;	COMDAT xdata
xdata	SEGMENT
$unwind$??A?$tvec3@_J$0A@@glm@@QEBAAEB_JH@Z DD 020e01H
	DD	0700a320eH
xdata	ENDS
;	COMDAT xdata
xdata	SEGMENT
$unwind$?length@?$tvec3@_J$0A@@glm@@SAHXZ DD 010201H
	DD	07002H
xdata	ENDS
;	COMDAT xdata
xdata	SEGMENT
$unwind$??0?$tvec2@_J$0A@@glm@@QEAA@XZ DD 010601H
	DD	07006H
xdata	ENDS
;	COMDAT xdata
xdata	SEGMENT
$unwind$??A?$tvec2@_J$0A@@glm@@QEBAAEB_JH@Z DD 020e01H
	DD	0700a320eH
xdata	ENDS
;	COMDAT xdata
xdata	SEGMENT
$unwind$?length@?$tvec2@_J$0A@@glm@@SAHXZ DD 010201H
	DD	07002H
xdata	ENDS
;	COMDAT xdata
xdata	SEGMENT
$unwind$??0?$tvec4@H$0A@@glm@@QEAA@XZ DD 010601H
	DD	07006H
xdata	ENDS
;	COMDAT xdata
xdata	SEGMENT
$unwind$??A?$tvec4@H$0A@@glm@@QEBAAEBHH@Z DD 020e01H
	DD	0700a320eH
xdata	ENDS
;	COMDAT xdata
xdata	SEGMENT
$unwind$?length@?$tvec4@H$0A@@glm@@SAHXZ DD 010201H
	DD	07002H
xdata	ENDS
;	COMDAT xdata
xdata	SEGMENT
$unwind$??0?$tvec3@H$0A@@glm@@QEAA@XZ DD 010601H
	DD	07006H
xdata	ENDS
;	COMDAT xdata
xdata	SEGMENT
$unwind$??A?$tvec3@H$0A@@glm@@QEBAAEBHH@Z DD 020e01H
	DD	0700a320eH
xdata	ENDS
;	COMDAT xdata
xdata	SEGMENT
$unwind$?length@?$tvec3@H$0A@@glm@@SAHXZ DD 010201H
	DD	07002H
xdata	ENDS
;	COMDAT xdata
xdata	SEGMENT
$unwind$??0?$tvec2@H$0A@@glm@@QEAA@XZ DD 010601H
	DD	07006H
xdata	ENDS
;	COMDAT xdata
xdata	SEGMENT
$unwind$??A?$tvec2@H$0A@@glm@@QEBAAEBHH@Z DD 020e01H
	DD	0700a320eH
xdata	ENDS
;	COMDAT xdata
xdata	SEGMENT
$unwind$?length@?$tvec2@H$0A@@glm@@SAHXZ DD 010201H
	DD	07002H
xdata	ENDS
;	COMDAT xdata
xdata	SEGMENT
$unwind$??0?$tvec4@F$0A@@glm@@QEAA@XZ DD 010601H
	DD	07006H
xdata	ENDS
;	COMDAT xdata
xdata	SEGMENT
$unwind$??A?$tvec4@F$0A@@glm@@QEBAAEBFH@Z DD 020e01H
	DD	0700a320eH
xdata	ENDS
;	COMDAT xdata
xdata	SEGMENT
$unwind$?length@?$tvec4@F$0A@@glm@@SAHXZ DD 010201H
	DD	07002H
xdata	ENDS
;	COMDAT xdata
xdata	SEGMENT
$unwind$??0?$tvec3@F$0A@@glm@@QEAA@XZ DD 010601H
	DD	07006H
xdata	ENDS
;	COMDAT xdata
xdata	SEGMENT
$unwind$??A?$tvec3@F$0A@@glm@@QEBAAEBFH@Z DD 020e01H
	DD	0700a320eH
xdata	ENDS
;	COMDAT xdata
xdata	SEGMENT
$unwind$?length@?$tvec3@F$0A@@glm@@SAHXZ DD 010201H
	DD	07002H
xdata	ENDS
;	COMDAT xdata
xdata	SEGMENT
$unwind$??0?$tvec3@C$0A@@glm@@QEAA@XZ DD 010601H
	DD	07006H
xdata	ENDS
;	COMDAT xdata
xdata	SEGMENT
$unwind$??A?$tvec3@C$0A@@glm@@QEBAAEBCH@Z DD 020e01H
	DD	0700a320eH
xdata	ENDS
;	COMDAT xdata
xdata	SEGMENT
$unwind$?length@?$tvec3@C$0A@@glm@@SAHXZ DD 010201H
	DD	07002H
xdata	ENDS
;	COMDAT xdata
xdata	SEGMENT
$unwind$??0?$tvec2@C$0A@@glm@@QEAA@XZ DD 010601H
	DD	07006H
xdata	ENDS
;	COMDAT xdata
xdata	SEGMENT
$unwind$??A?$tvec2@C$0A@@glm@@QEBAAEBCH@Z DD 020e01H
	DD	0700a320eH
xdata	ENDS
;	COMDAT xdata
xdata	SEGMENT
$unwind$?length@?$tvec2@C$0A@@glm@@SAHXZ DD 010201H
	DD	07002H
xdata	ENDS
;	COMDAT xdata
xdata	SEGMENT
$unwind$??$?0$00@?$tvec4@N$0A@@glm@@QEAA@AEBU?$tvec4@N$00@1@@Z DD 010b01H
	DD	0700bH
xdata	ENDS
;	COMDAT xdata
xdata	SEGMENT
$unwind$??$equal@N$0A@Utvec4@glm@@@glm@@YA?AU?$tvec4@_N$0A@@0@AEBU?$tvec4@N$0A@@0@0@Z DD 022a01H
	DD	070109214H
xdata	ENDS
;	COMDAT CONST
CONST	SEGMENT
??$equal@N$0A@Utvec4@glm@@@glm@@YA?AU?$tvec4@_N$0A@@0@AEBU?$tvec4@N$0A@@0@0@Z$rtcName$0 DB 052H ; glm::equal<double,0,glm::tvec4>
	DB	065H
	DB	073H
	DB	075H
	DB	06cH
	DB	074H
	DB	00H
	ORG $+9
??$equal@N$0A@Utvec4@glm@@@glm@@YA?AU?$tvec4@_N$0A@@0@AEBU?$tvec4@N$0A@@0@0@Z$rtcVarDesc DD 024H ; glm::equal<double,0,glm::tvec4>
	DD	04H
	DQ	FLAT:??$equal@N$0A@Utvec4@glm@@@glm@@YA?AU?$tvec4@_N$0A@@0@AEBU?$tvec4@N$0A@@0@0@Z$rtcName$0
	ORG $+48
??$equal@N$0A@Utvec4@glm@@@glm@@YA?AU?$tvec4@_N$0A@@0@AEBU?$tvec4@N$0A@@0@0@Z$rtcFrameData DD 01H ; glm::equal<double,0,glm::tvec4>
	DD	00H
	DQ	FLAT:??$equal@N$0A@Utvec4@glm@@@glm@@YA?AU?$tvec4@_N$0A@@0@AEBU?$tvec4@N$0A@@0@0@Z$rtcVarDesc
CONST	ENDS
;	COMDAT xdata
xdata	SEGMENT
$unwind$??$?0$01@?$tvec4@N$0A@@glm@@QEAA@AEBU?$tvec4@N$01@1@@Z DD 010b01H
	DD	0700bH
xdata	ENDS
;	COMDAT xdata
xdata	SEGMENT
$unwind$??$?0$0A@@?$tvec4@N$00@glm@@QEAA@AEBU?$tvec4@N$0A@@1@@Z DD 010b01H
	DD	0700bH
xdata	ENDS
;	COMDAT xdata
xdata	SEGMENT
$unwind$??$?0$0A@@?$tvec4@N$01@glm@@QEAA@AEBU?$tvec4@N$0A@@1@@Z DD 010b01H
	DD	0700bH
xdata	ENDS
;	COMDAT xdata
xdata	SEGMENT
$unwind$??$?0$00@?$tvec3@N$0A@@glm@@QEAA@AEBU?$tvec3@N$00@1@@Z DD 010b01H
	DD	0700bH
xdata	ENDS
;	COMDAT xdata
xdata	SEGMENT
$unwind$??$equal@N$0A@Utvec3@glm@@@glm@@YA?AU?$tvec3@_N$0A@@0@AEBU?$tvec3@N$0A@@0@0@Z DD 032b01H
	DD	07011a215H
	DD	06010H
xdata	ENDS
;	COMDAT CONST
CONST	SEGMENT
??$equal@N$0A@Utvec3@glm@@@glm@@YA?AU?$tvec3@_N$0A@@0@AEBU?$tvec3@N$0A@@0@0@Z$rtcName$0 DB 052H ; glm::equal<double,0,glm::tvec3>
	DB	065H
	DB	073H
	DB	075H
	DB	06cH
	DB	074H
	DB	00H
	ORG $+9
??$equal@N$0A@Utvec3@glm@@@glm@@YA?AU?$tvec3@_N$0A@@0@AEBU?$tvec3@N$0A@@0@0@Z$rtcVarDesc DD 024H ; glm::equal<double,0,glm::tvec3>
	DD	03H
	DQ	FLAT:??$equal@N$0A@Utvec3@glm@@@glm@@YA?AU?$tvec3@_N$0A@@0@AEBU?$tvec3@N$0A@@0@0@Z$rtcName$0
	ORG $+48
??$equal@N$0A@Utvec3@glm@@@glm@@YA?AU?$tvec3@_N$0A@@0@AEBU?$tvec3@N$0A@@0@0@Z$rtcFrameData DD 01H ; glm::equal<double,0,glm::tvec3>
	DD	00H
	DQ	FLAT:??$equal@N$0A@Utvec3@glm@@@glm@@YA?AU?$tvec3@_N$0A@@0@AEBU?$tvec3@N$0A@@0@0@Z$rtcVarDesc
CONST	ENDS
;	COMDAT xdata
xdata	SEGMENT
$unwind$??$?0$01@?$tvec3@N$0A@@glm@@QEAA@AEBU?$tvec3@N$01@1@@Z DD 010b01H
	DD	0700bH
xdata	ENDS
;	COMDAT xdata
xdata	SEGMENT
$unwind$??$?0$0A@@?$tvec3@N$00@glm@@QEAA@AEBU?$tvec3@N$0A@@1@@Z DD 010b01H
	DD	0700bH
xdata	ENDS
;	COMDAT xdata
xdata	SEGMENT
$unwind$??$?0$0A@@?$tvec3@N$01@glm@@QEAA@AEBU?$tvec3@N$0A@@1@@Z DD 010b01H
	DD	0700bH
xdata	ENDS
;	COMDAT xdata
xdata	SEGMENT
$unwind$??$?0$00@?$tvec2@N$0A@@glm@@QEAA@AEBU?$tvec2@N$00@1@@Z DD 010b01H
	DD	0700bH
xdata	ENDS
;	COMDAT xdata
xdata	SEGMENT
$unwind$??$equal@N$0A@Utvec2@glm@@@glm@@YA?AU?$tvec2@_N$0A@@0@AEBU?$tvec2@N$0A@@0@0@Z DD 022a01H
	DD	070109214H
xdata	ENDS
;	COMDAT CONST
CONST	SEGMENT
??$equal@N$0A@Utvec2@glm@@@glm@@YA?AU?$tvec2@_N$0A@@0@AEBU?$tvec2@N$0A@@0@0@Z$rtcName$0 DB 052H ; glm::equal<double,0,glm::tvec2>
	DB	065H
	DB	073H
	DB	075H
	DB	06cH
	DB	074H
	DB	00H
	ORG $+9
??$equal@N$0A@Utvec2@glm@@@glm@@YA?AU?$tvec2@_N$0A@@0@AEBU?$tvec2@N$0A@@0@0@Z$rtcVarDesc DD 024H ; glm::equal<double,0,glm::tvec2>
	DD	02H
	DQ	FLAT:??$equal@N$0A@Utvec2@glm@@@glm@@YA?AU?$tvec2@_N$0A@@0@AEBU?$tvec2@N$0A@@0@0@Z$rtcName$0
	ORG $+48
??$equal@N$0A@Utvec2@glm@@@glm@@YA?AU?$tvec2@_N$0A@@0@AEBU?$tvec2@N$0A@@0@0@Z$rtcFrameData DD 01H ; glm::equal<double,0,glm::tvec2>
	DD	00H
	DQ	FLAT:??$equal@N$0A@Utvec2@glm@@@glm@@YA?AU?$tvec2@_N$0A@@0@AEBU?$tvec2@N$0A@@0@0@Z$rtcVarDesc
CONST	ENDS
;	COMDAT xdata
xdata	SEGMENT
$unwind$??$?0$01@?$tvec2@N$0A@@glm@@QEAA@AEBU?$tvec2@N$01@1@@Z DD 010b01H
	DD	0700bH
xdata	ENDS
;	COMDAT xdata
xdata	SEGMENT
$unwind$??$?0$0A@@?$tvec2@N$00@glm@@QEAA@AEBU?$tvec2@N$0A@@1@@Z DD 010b01H
	DD	0700bH
xdata	ENDS
;	COMDAT xdata
xdata	SEGMENT
$unwind$??$?0$0A@@?$tvec2@N$01@glm@@QEAA@AEBU?$tvec2@N$0A@@1@@Z DD 010b01H
	DD	0700bH
xdata	ENDS
;	COMDAT xdata
xdata	SEGMENT
$unwind$??$?0$00@?$tvec4@M$0A@@glm@@QEAA@AEBU?$tvec4@M$00@1@@Z DD 010b01H
	DD	0700bH
xdata	ENDS
;	COMDAT xdata
xdata	SEGMENT
$unwind$??$all@$0A@Utvec4@glm@@@glm@@YA_NAEBU?$tvec4@_N$0A@@0@@Z DD 020a01H
	DD	07006520aH
xdata	ENDS
;	COMDAT xdata
xdata	SEGMENT
$unwind$??0?$tvec4@_N$0A@@glm@@QEAA@W4ctor@1@@Z DD 010a01H
	DD	0700aH
xdata	ENDS
;	COMDAT xdata
xdata	SEGMENT
$unwind$??A?$tvec4@_N$0A@@glm@@QEBAAEB_NH@Z DD 020e01H
	DD	0700a320eH
xdata	ENDS
;	COMDAT xdata
xdata	SEGMENT
$unwind$??A?$tvec4@_N$0A@@glm@@QEAAAEA_NH@Z DD 020e01H
	DD	0700a320eH
xdata	ENDS
;	COMDAT xdata
xdata	SEGMENT
$unwind$?length@?$tvec4@_N$0A@@glm@@SAHXZ DD 010201H
	DD	07002H
xdata	ENDS
;	COMDAT xdata
xdata	SEGMENT
$unwind$??$equal@M$0A@Utvec4@glm@@@glm@@YA?AU?$tvec4@_N$0A@@0@AEBU?$tvec4@M$0A@@0@0@Z DD 022a01H
	DD	070109214H
xdata	ENDS
;	COMDAT CONST
CONST	SEGMENT
??$equal@M$0A@Utvec4@glm@@@glm@@YA?AU?$tvec4@_N$0A@@0@AEBU?$tvec4@M$0A@@0@0@Z$rtcName$0 DB 052H ; glm::equal<float,0,glm::tvec4>
	DB	065H
	DB	073H
	DB	075H
	DB	06cH
	DB	074H
	DB	00H
	ORG $+9
??$equal@M$0A@Utvec4@glm@@@glm@@YA?AU?$tvec4@_N$0A@@0@AEBU?$tvec4@M$0A@@0@0@Z$rtcVarDesc DD 024H ; glm::equal<float,0,glm::tvec4>
	DD	04H
	DQ	FLAT:??$equal@M$0A@Utvec4@glm@@@glm@@YA?AU?$tvec4@_N$0A@@0@AEBU?$tvec4@M$0A@@0@0@Z$rtcName$0
	ORG $+48
??$equal@M$0A@Utvec4@glm@@@glm@@YA?AU?$tvec4@_N$0A@@0@AEBU?$tvec4@M$0A@@0@0@Z$rtcFrameData DD 01H ; glm::equal<float,0,glm::tvec4>
	DD	00H
	DQ	FLAT:??$equal@M$0A@Utvec4@glm@@@glm@@YA?AU?$tvec4@_N$0A@@0@AEBU?$tvec4@M$0A@@0@0@Z$rtcVarDesc
CONST	ENDS
;	COMDAT xdata
xdata	SEGMENT
$unwind$??$?0$01@?$tvec4@M$0A@@glm@@QEAA@AEBU?$tvec4@M$01@1@@Z DD 010b01H
	DD	0700bH
xdata	ENDS
;	COMDAT xdata
xdata	SEGMENT
$unwind$??$?0$0A@@?$tvec4@M$00@glm@@QEAA@AEBU?$tvec4@M$0A@@1@@Z DD 010b01H
	DD	0700bH
xdata	ENDS
;	COMDAT xdata
xdata	SEGMENT
$unwind$??$?0$0A@@?$tvec4@M$01@glm@@QEAA@AEBU?$tvec4@M$0A@@1@@Z DD 010b01H
	DD	0700bH
xdata	ENDS
;	COMDAT xdata
xdata	SEGMENT
$unwind$??$?0$00@?$tvec3@M$0A@@glm@@QEAA@AEBU?$tvec3@M$00@1@@Z DD 010b01H
	DD	0700bH
xdata	ENDS
;	COMDAT xdata
xdata	SEGMENT
$unwind$??$all@$0A@Utvec3@glm@@@glm@@YA_NAEBU?$tvec3@_N$0A@@0@@Z DD 020a01H
	DD	07006520aH
xdata	ENDS
;	COMDAT xdata
xdata	SEGMENT
$unwind$??0?$tvec3@_N$0A@@glm@@QEAA@W4ctor@1@@Z DD 010a01H
	DD	0700aH
xdata	ENDS
;	COMDAT xdata
xdata	SEGMENT
$unwind$??A?$tvec3@_N$0A@@glm@@QEBAAEB_NH@Z DD 020e01H
	DD	0700a320eH
xdata	ENDS
;	COMDAT xdata
xdata	SEGMENT
$unwind$??A?$tvec3@_N$0A@@glm@@QEAAAEA_NH@Z DD 020e01H
	DD	0700a320eH
xdata	ENDS
;	COMDAT xdata
xdata	SEGMENT
$unwind$?length@?$tvec3@_N$0A@@glm@@SAHXZ DD 010201H
	DD	07002H
xdata	ENDS
;	COMDAT xdata
xdata	SEGMENT
$unwind$??$equal@M$0A@Utvec3@glm@@@glm@@YA?AU?$tvec3@_N$0A@@0@AEBU?$tvec3@M$0A@@0@0@Z DD 032b01H
	DD	07011a215H
	DD	06010H
xdata	ENDS
;	COMDAT CONST
CONST	SEGMENT
??$equal@M$0A@Utvec3@glm@@@glm@@YA?AU?$tvec3@_N$0A@@0@AEBU?$tvec3@M$0A@@0@0@Z$rtcName$0 DB 052H ; glm::equal<float,0,glm::tvec3>
	DB	065H
	DB	073H
	DB	075H
	DB	06cH
	DB	074H
	DB	00H
	ORG $+9
??$equal@M$0A@Utvec3@glm@@@glm@@YA?AU?$tvec3@_N$0A@@0@AEBU?$tvec3@M$0A@@0@0@Z$rtcVarDesc DD 024H ; glm::equal<float,0,glm::tvec3>
	DD	03H
	DQ	FLAT:??$equal@M$0A@Utvec3@glm@@@glm@@YA?AU?$tvec3@_N$0A@@0@AEBU?$tvec3@M$0A@@0@0@Z$rtcName$0
	ORG $+48
??$equal@M$0A@Utvec3@glm@@@glm@@YA?AU?$tvec3@_N$0A@@0@AEBU?$tvec3@M$0A@@0@0@Z$rtcFrameData DD 01H ; glm::equal<float,0,glm::tvec3>
	DD	00H
	DQ	FLAT:??$equal@M$0A@Utvec3@glm@@@glm@@YA?AU?$tvec3@_N$0A@@0@AEBU?$tvec3@M$0A@@0@0@Z$rtcVarDesc
CONST	ENDS
;	COMDAT xdata
xdata	SEGMENT
$unwind$??$?0$01@?$tvec3@M$0A@@glm@@QEAA@AEBU?$tvec3@M$01@1@@Z DD 010b01H
	DD	0700bH
xdata	ENDS
;	COMDAT xdata
xdata	SEGMENT
$unwind$??$?0$0A@@?$tvec3@M$00@glm@@QEAA@AEBU?$tvec3@M$0A@@1@@Z DD 010b01H
	DD	0700bH
xdata	ENDS
;	COMDAT xdata
xdata	SEGMENT
$unwind$??$?0$0A@@?$tvec3@M$01@glm@@QEAA@AEBU?$tvec3@M$0A@@1@@Z DD 010b01H
	DD	0700bH
xdata	ENDS
;	COMDAT xdata
xdata	SEGMENT
$unwind$??$?0$00@?$tvec2@M$0A@@glm@@QEAA@AEBU?$tvec2@M$00@1@@Z DD 010b01H
	DD	0700bH
xdata	ENDS
;	COMDAT xdata
xdata	SEGMENT
$unwind$??$all@$0A@Utvec2@glm@@@glm@@YA_NAEBU?$tvec2@_N$0A@@0@@Z DD 020a01H
	DD	07006520aH
xdata	ENDS
;	COMDAT xdata
xdata	SEGMENT
$unwind$??0?$tvec2@_N$0A@@glm@@QEAA@W4ctor@1@@Z DD 010a01H
	DD	0700aH
xdata	ENDS
;	COMDAT xdata
xdata	SEGMENT
$unwind$??A?$tvec2@_N$0A@@glm@@QEBAAEB_NH@Z DD 020e01H
	DD	0700a320eH
xdata	ENDS
;	COMDAT xdata
xdata	SEGMENT
$unwind$??A?$tvec2@_N$0A@@glm@@QEAAAEA_NH@Z DD 020e01H
	DD	0700a320eH
xdata	ENDS
;	COMDAT xdata
xdata	SEGMENT
$unwind$?length@?$tvec2@_N$0A@@glm@@SAHXZ DD 010201H
	DD	07002H
xdata	ENDS
;	COMDAT xdata
xdata	SEGMENT
$unwind$??$equal@M$0A@Utvec2@glm@@@glm@@YA?AU?$tvec2@_N$0A@@0@AEBU?$tvec2@M$0A@@0@0@Z DD 022a01H
	DD	070109214H
xdata	ENDS
;	COMDAT CONST
CONST	SEGMENT
??$equal@M$0A@Utvec2@glm@@@glm@@YA?AU?$tvec2@_N$0A@@0@AEBU?$tvec2@M$0A@@0@0@Z$rtcName$0 DB 052H ; glm::equal<float,0,glm::tvec2>
	DB	065H
	DB	073H
	DB	075H
	DB	06cH
	DB	074H
	DB	00H
	ORG $+9
??$equal@M$0A@Utvec2@glm@@@glm@@YA?AU?$tvec2@_N$0A@@0@AEBU?$tvec2@M$0A@@0@0@Z$rtcVarDesc DD 024H ; glm::equal<float,0,glm::tvec2>
	DD	02H
	DQ	FLAT:??$equal@M$0A@Utvec2@glm@@@glm@@YA?AU?$tvec2@_N$0A@@0@AEBU?$tvec2@M$0A@@0@0@Z$rtcName$0
	ORG $+48
??$equal@M$0A@Utvec2@glm@@@glm@@YA?AU?$tvec2@_N$0A@@0@AEBU?$tvec2@M$0A@@0@0@Z$rtcFrameData DD 01H ; glm::equal<float,0,glm::tvec2>
	DD	00H
	DQ	FLAT:??$equal@M$0A@Utvec2@glm@@@glm@@YA?AU?$tvec2@_N$0A@@0@AEBU?$tvec2@M$0A@@0@0@Z$rtcVarDesc
CONST	ENDS
;	COMDAT xdata
xdata	SEGMENT
$unwind$??$?0$01@?$tvec2@M$0A@@glm@@QEAA@AEBU?$tvec2@M$01@1@@Z DD 010b01H
	DD	0700bH
xdata	ENDS
;	COMDAT xdata
xdata	SEGMENT
$unwind$??$?0$0A@@?$tvec2@M$00@glm@@QEAA@AEBU?$tvec2@M$0A@@1@@Z DD 010b01H
	DD	0700bH
xdata	ENDS
;	COMDAT xdata
xdata	SEGMENT
$unwind$??$?0$0A@@?$tvec2@M$01@glm@@QEAA@AEBU?$tvec2@M$0A@@1@@Z DD 010b01H
	DD	0700bH
xdata	ENDS
CONST	SEGMENT
?test_fvec_precision@@YAHXZ$rtcName$0 DB 076H		; test_fvec_precision
	DB	031H
	DB	00H
	ORG $+1
?test_fvec_precision@@YAHXZ$rtcName$1 DB 076H		; test_fvec_precision
	DB	032H
	DB	00H
	ORG $+1
?test_fvec_precision@@YAHXZ$rtcName$2 DB 076H		; test_fvec_precision
	DB	033H
	DB	00H
	ORG $+1
?test_fvec_precision@@YAHXZ$rtcName$3 DB 076H		; test_fvec_precision
	DB	034H
	DB	00H
	ORG $+1
?test_fvec_precision@@YAHXZ$rtcName$4 DB 076H		; test_fvec_precision
	DB	031H
	DB	00H
	ORG $+1
?test_fvec_precision@@YAHXZ$rtcName$5 DB 076H		; test_fvec_precision
	DB	032H
	DB	00H
	ORG $+1
?test_fvec_precision@@YAHXZ$rtcName$6 DB 076H		; test_fvec_precision
	DB	033H
	DB	00H
	ORG $+1
?test_fvec_precision@@YAHXZ$rtcName$7 DB 076H		; test_fvec_precision
	DB	034H
	DB	00H
	ORG $+1
?test_fvec_precision@@YAHXZ$rtcName$8 DB 076H		; test_fvec_precision
	DB	031H
	DB	00H
	ORG $+1
?test_fvec_precision@@YAHXZ$rtcName$9 DB 076H		; test_fvec_precision
	DB	032H
	DB	00H
	ORG $+1
?test_fvec_precision@@YAHXZ$rtcName$10 DB 076H		; test_fvec_precision
	DB	033H
	DB	00H
	ORG $+1
?test_fvec_precision@@YAHXZ$rtcName$11 DB 076H		; test_fvec_precision
	DB	034H
	DB	00H
	ORG $+5
?test_fvec_precision@@YAHXZ$rtcFrameData DD 0cH		; test_fvec_precision
	DD	00H
	DQ	FLAT:?test_fvec_precision@@YAHXZ$rtcVarDesc
?test_dvec_precision@@YAHXZ$rtcName$0 DB 076H		; test_dvec_precision
	DB	031H
	DB	00H
	ORG $+5
?test_fvec_precision@@YAHXZ$rtcVarDesc DD 0208H		; test_fvec_precision
	DD	010H
	DQ	FLAT:?test_fvec_precision@@YAHXZ$rtcName$11
	DD	01d8H
	DD	010H
	DQ	FLAT:?test_fvec_precision@@YAHXZ$rtcName$10
	DD	01a8H
	DD	010H
	DQ	FLAT:?test_fvec_precision@@YAHXZ$rtcName$9
	DD	0178H
	DD	010H
	DQ	FLAT:?test_fvec_precision@@YAHXZ$rtcName$8
	DD	0148H
	DD	0cH
	DQ	FLAT:?test_fvec_precision@@YAHXZ$rtcName$7
	DD	0118H
	DD	0cH
	DQ	FLAT:?test_fvec_precision@@YAHXZ$rtcName$6
	DD	0e8H
	DD	0cH
	DQ	FLAT:?test_fvec_precision@@YAHXZ$rtcName$5
	DD	0b8H
	DD	0cH
	DQ	FLAT:?test_fvec_precision@@YAHXZ$rtcName$4
	DD	098H
	DD	08H
	DQ	FLAT:?test_fvec_precision@@YAHXZ$rtcName$3
	DD	078H
	DD	08H
	DQ	FLAT:?test_fvec_precision@@YAHXZ$rtcName$2
	DD	058H
	DD	08H
	DQ	FLAT:?test_fvec_precision@@YAHXZ$rtcName$1
	DD	038H
	DD	08H
	DQ	FLAT:?test_fvec_precision@@YAHXZ$rtcName$0
	ORG $+576
?test_dvec_precision@@YAHXZ$rtcName$1 DB 076H		; test_dvec_precision
	DB	032H
	DB	00H
	ORG $+1
?test_dvec_precision@@YAHXZ$rtcName$2 DB 076H		; test_dvec_precision
	DB	033H
	DB	00H
	ORG $+1
?test_dvec_precision@@YAHXZ$rtcName$3 DB 076H		; test_dvec_precision
	DB	034H
	DB	00H
	ORG $+1
?test_dvec_precision@@YAHXZ$rtcName$4 DB 076H		; test_dvec_precision
	DB	031H
	DB	00H
	ORG $+1
?test_dvec_precision@@YAHXZ$rtcName$5 DB 076H		; test_dvec_precision
	DB	032H
	DB	00H
	ORG $+1
?test_dvec_precision@@YAHXZ$rtcName$6 DB 076H		; test_dvec_precision
	DB	033H
	DB	00H
	ORG $+1
?test_dvec_precision@@YAHXZ$rtcName$7 DB 076H		; test_dvec_precision
	DB	034H
	DB	00H
	ORG $+1
?test_dvec_precision@@YAHXZ$rtcName$8 DB 076H		; test_dvec_precision
	DB	031H
	DB	00H
	ORG $+1
?test_dvec_precision@@YAHXZ$rtcName$9 DB 076H		; test_dvec_precision
	DB	032H
	DB	00H
	ORG $+1
?test_dvec_precision@@YAHXZ$rtcName$10 DB 076H		; test_dvec_precision
	DB	033H
	DB	00H
	ORG $+1
?test_dvec_precision@@YAHXZ$rtcName$11 DB 076H		; test_dvec_precision
	DB	034H
	DB	00H
	ORG $+5
?test_dvec_precision@@YAHXZ$rtcVarDesc DD 0278H		; test_dvec_precision
	DD	020H
	DQ	FLAT:?test_dvec_precision@@YAHXZ$rtcName$11
	DD	0238H
	DD	020H
	DQ	FLAT:?test_dvec_precision@@YAHXZ$rtcName$10
	DD	01f8H
	DD	020H
	DQ	FLAT:?test_dvec_precision@@YAHXZ$rtcName$9
	DD	01b8H
	DD	020H
	DQ	FLAT:?test_dvec_precision@@YAHXZ$rtcName$8
	DD	0188H
	DD	018H
	DQ	FLAT:?test_dvec_precision@@YAHXZ$rtcName$7
	DD	0158H
	DD	018H
	DQ	FLAT:?test_dvec_precision@@YAHXZ$rtcName$6
	DD	0128H
	DD	018H
	DQ	FLAT:?test_dvec_precision@@YAHXZ$rtcName$5
	DD	0f8H
	DD	018H
	DQ	FLAT:?test_dvec_precision@@YAHXZ$rtcName$4
	DD	0c8H
	DD	010H
	DQ	FLAT:?test_dvec_precision@@YAHXZ$rtcName$3
	DD	098H
	DD	010H
	DQ	FLAT:?test_dvec_precision@@YAHXZ$rtcName$2
	DD	068H
	DD	010H
	DQ	FLAT:?test_dvec_precision@@YAHXZ$rtcName$1
	DD	038H
	DD	010H
	DQ	FLAT:?test_dvec_precision@@YAHXZ$rtcName$0
	ORG $+576
?test_dvec_precision@@YAHXZ$rtcFrameData DD 0cH		; test_dvec_precision
	DD	00H
	DQ	FLAT:?test_dvec_precision@@YAHXZ$rtcVarDesc
?test_ivec_precision@@YAHXZ$rtcName$0 DB 076H		; test_ivec_precision
	DB	031H
	DB	00H
	ORG $+1
?test_ivec_precision@@YAHXZ$rtcName$1 DB 076H		; test_ivec_precision
	DB	032H
	DB	00H
	ORG $+1
?test_ivec_precision@@YAHXZ$rtcName$2 DB 076H		; test_ivec_precision
	DB	033H
	DB	00H
	ORG $+1
?test_ivec_precision@@YAHXZ$rtcName$3 DB 076H		; test_ivec_precision
	DB	034H
	DB	00H
	ORG $+1
?test_ivec_precision@@YAHXZ$rtcName$4 DB 076H		; test_ivec_precision
	DB	031H
	DB	00H
	ORG $+1
?test_ivec_precision@@YAHXZ$rtcName$5 DB 076H		; test_ivec_precision
	DB	032H
	DB	00H
	ORG $+1
?test_ivec_precision@@YAHXZ$rtcName$6 DB 076H		; test_ivec_precision
	DB	033H
	DB	00H
	ORG $+1
?test_ivec_precision@@YAHXZ$rtcName$7 DB 076H		; test_ivec_precision
	DB	034H
	DB	00H
	ORG $+1
?test_ivec_precision@@YAHXZ$rtcName$8 DB 076H		; test_ivec_precision
	DB	031H
	DB	00H
	ORG $+1
?test_ivec_precision@@YAHXZ$rtcName$9 DB 076H		; test_ivec_precision
	DB	032H
	DB	00H
	ORG $+1
?test_ivec_precision@@YAHXZ$rtcName$10 DB 076H		; test_ivec_precision
	DB	033H
	DB	00H
	ORG $+1
?test_ivec_precision@@YAHXZ$rtcName$11 DB 076H		; test_ivec_precision
	DB	034H
	DB	00H
	ORG $+1
?test_ivec_precision@@YAHXZ$rtcName$12 DB 076H		; test_ivec_precision
	DB	031H
	DB	00H
	ORG $+1
?test_ivec_precision@@YAHXZ$rtcName$13 DB 076H		; test_ivec_precision
	DB	032H
	DB	00H
	ORG $+1
?test_ivec_precision@@YAHXZ$rtcName$14 DB 076H		; test_ivec_precision
	DB	033H
	DB	00H
	ORG $+1
?test_ivec_precision@@YAHXZ$rtcName$15 DB 076H		; test_ivec_precision
	DB	034H
	DB	00H
	ORG $+1
?test_ivec_precision@@YAHXZ$rtcName$16 DB 076H		; test_ivec_precision
	DB	031H
	DB	00H
	ORG $+1
?test_ivec_precision@@YAHXZ$rtcName$17 DB 076H		; test_ivec_precision
	DB	032H
	DB	00H
	ORG $+1
?test_ivec_precision@@YAHXZ$rtcName$18 DB 076H		; test_ivec_precision
	DB	033H
	DB	00H
	ORG $+1
?test_ivec_precision@@YAHXZ$rtcName$19 DB 076H		; test_ivec_precision
	DB	034H
	DB	00H
	ORG $+1
?test_ivec_precision@@YAHXZ$rtcName$20 DB 076H		; test_ivec_precision
	DB	031H
	DB	00H
	ORG $+1
?test_ivec_precision@@YAHXZ$rtcName$21 DB 076H		; test_ivec_precision
	DB	032H
	DB	00H
	ORG $+1
?test_ivec_precision@@YAHXZ$rtcName$22 DB 076H		; test_ivec_precision
	DB	033H
	DB	00H
	ORG $+1
?test_ivec_precision@@YAHXZ$rtcName$23 DB 076H		; test_ivec_precision
	DB	034H
	DB	00H
	ORG $+1
?test_ivec_precision@@YAHXZ$rtcName$24 DB 076H		; test_ivec_precision
	DB	031H
	DB	00H
	ORG $+1
?test_ivec_precision@@YAHXZ$rtcName$25 DB 076H		; test_ivec_precision
	DB	032H
	DB	00H
	ORG $+1
?test_ivec_precision@@YAHXZ$rtcName$26 DB 076H		; test_ivec_precision
	DB	033H
	DB	00H
	ORG $+1
?test_ivec_precision@@YAHXZ$rtcName$27 DB 076H		; test_ivec_precision
	DB	034H
	DB	00H
	ORG $+1
?test_ivec_precision@@YAHXZ$rtcName$28 DB 076H		; test_ivec_precision
	DB	031H
	DB	00H
	ORG $+1
?test_ivec_precision@@YAHXZ$rtcName$29 DB 076H		; test_ivec_precision
	DB	032H
	DB	00H
	ORG $+1
?test_ivec_precision@@YAHXZ$rtcName$30 DB 076H		; test_ivec_precision
	DB	033H
	DB	00H
	ORG $+1
?test_ivec_precision@@YAHXZ$rtcName$31 DB 076H		; test_ivec_precision
	DB	034H
	DB	00H
	ORG $+1
?test_ivec_precision@@YAHXZ$rtcName$32 DB 076H		; test_ivec_precision
	DB	031H
	DB	00H
	ORG $+1
?test_ivec_precision@@YAHXZ$rtcName$33 DB 076H		; test_ivec_precision
	DB	032H
	DB	00H
	ORG $+1
?test_ivec_precision@@YAHXZ$rtcName$34 DB 076H		; test_ivec_precision
	DB	033H
	DB	00H
	ORG $+1
?test_ivec_precision@@YAHXZ$rtcName$35 DB 076H		; test_ivec_precision
	DB	034H
	DB	00H
	ORG $+1
?test_ivec_precision@@YAHXZ$rtcName$36 DB 076H		; test_ivec_precision
	DB	031H
	DB	00H
	ORG $+1
?test_ivec_precision@@YAHXZ$rtcName$37 DB 076H		; test_ivec_precision
	DB	032H
	DB	00H
	ORG $+1
?test_ivec_precision@@YAHXZ$rtcName$38 DB 076H		; test_ivec_precision
	DB	033H
	DB	00H
	ORG $+1
?test_ivec_precision@@YAHXZ$rtcName$39 DB 076H		; test_ivec_precision
	DB	034H
	DB	00H
	ORG $+1
?test_ivec_precision@@YAHXZ$rtcName$40 DB 076H		; test_ivec_precision
	DB	031H
	DB	00H
	ORG $+1
?test_ivec_precision@@YAHXZ$rtcName$41 DB 076H		; test_ivec_precision
	DB	032H
	DB	00H
	ORG $+1
?test_ivec_precision@@YAHXZ$rtcName$42 DB 076H		; test_ivec_precision
	DB	033H
	DB	00H
	ORG $+1
?test_ivec_precision@@YAHXZ$rtcName$43 DB 076H		; test_ivec_precision
	DB	034H
	DB	00H
	ORG $+1
?test_ivec_precision@@YAHXZ$rtcName$44 DB 076H		; test_ivec_precision
	DB	031H
	DB	00H
	ORG $+1
?test_ivec_precision@@YAHXZ$rtcName$45 DB 076H		; test_ivec_precision
	DB	032H
	DB	00H
	ORG $+1
?test_ivec_precision@@YAHXZ$rtcName$46 DB 076H		; test_ivec_precision
	DB	033H
	DB	00H
	ORG $+1
?test_ivec_precision@@YAHXZ$rtcName$47 DB 076H		; test_ivec_precision
	DB	034H
	DB	00H
	ORG $+1
?test_ivec_precision@@YAHXZ$rtcVarDesc DD 0778H		; test_ivec_precision
	DD	020H
	DQ	FLAT:?test_ivec_precision@@YAHXZ$rtcName$47
	DD	0738H
	DD	020H
	DQ	FLAT:?test_ivec_precision@@YAHXZ$rtcName$46
	DD	06f8H
	DD	020H
	DQ	FLAT:?test_ivec_precision@@YAHXZ$rtcName$45
	DD	06b8H
	DD	020H
	DQ	FLAT:?test_ivec_precision@@YAHXZ$rtcName$44
	DD	0688H
	DD	018H
	DQ	FLAT:?test_ivec_precision@@YAHXZ$rtcName$43
	DD	0658H
	DD	018H
	DQ	FLAT:?test_ivec_precision@@YAHXZ$rtcName$42
	DD	0628H
	DD	018H
	DQ	FLAT:?test_ivec_precision@@YAHXZ$rtcName$41
	DD	05f8H
	DD	018H
	DQ	FLAT:?test_ivec_precision@@YAHXZ$rtcName$40
	DD	05c8H
	DD	010H
	DQ	FLAT:?test_ivec_precision@@YAHXZ$rtcName$39
	DD	0598H
	DD	010H
	DQ	FLAT:?test_ivec_precision@@YAHXZ$rtcName$38
	DD	0568H
	DD	010H
	DQ	FLAT:?test_ivec_precision@@YAHXZ$rtcName$37
	DD	0538H
	DD	010H
	DQ	FLAT:?test_ivec_precision@@YAHXZ$rtcName$36
	DD	0508H
	DD	010H
	DQ	FLAT:?test_ivec_precision@@YAHXZ$rtcName$35
	DD	04d8H
	DD	010H
	DQ	FLAT:?test_ivec_precision@@YAHXZ$rtcName$34
	DD	04a8H
	DD	010H
	DQ	FLAT:?test_ivec_precision@@YAHXZ$rtcName$33
	DD	0478H
	DD	010H
	DQ	FLAT:?test_ivec_precision@@YAHXZ$rtcName$32
	DD	0448H
	DD	0cH
	DQ	FLAT:?test_ivec_precision@@YAHXZ$rtcName$31
	DD	0418H
	DD	0cH
	DQ	FLAT:?test_ivec_precision@@YAHXZ$rtcName$30
	DD	03e8H
	DD	0cH
	DQ	FLAT:?test_ivec_precision@@YAHXZ$rtcName$29
	DD	03b8H
	DD	0cH
	DQ	FLAT:?test_ivec_precision@@YAHXZ$rtcName$28
	DD	0398H
	DD	08H
	DQ	FLAT:?test_ivec_precision@@YAHXZ$rtcName$27
	DD	0378H
	DD	08H
	DQ	FLAT:?test_ivec_precision@@YAHXZ$rtcName$26
	DD	0358H
	DD	08H
	DQ	FLAT:?test_ivec_precision@@YAHXZ$rtcName$25
	DD	0338H
	DD	08H
	DQ	FLAT:?test_ivec_precision@@YAHXZ$rtcName$24
	DD	0318H
	DD	08H
	DQ	FLAT:?test_ivec_precision@@YAHXZ$rtcName$23
	DD	02f8H
	DD	08H
	DQ	FLAT:?test_ivec_precision@@YAHXZ$rtcName$22
	DD	02d8H
	DD	08H
	DQ	FLAT:?test_ivec_precision@@YAHXZ$rtcName$21
	DD	02b8H
	DD	08H
	DQ	FLAT:?test_ivec_precision@@YAHXZ$rtcName$20
	DD	0294H
	DD	06H
	DQ	FLAT:?test_ivec_precision@@YAHXZ$rtcName$19
	DD	0274H
	DD	06H
	DQ	FLAT:?test_ivec_precision@@YAHXZ$rtcName$18
	DD	0254H
	DD	06H
	DQ	FLAT:?test_ivec_precision@@YAHXZ$rtcName$17
	DD	0234H
	DD	06H
	DQ	FLAT:?test_ivec_precision@@YAHXZ$rtcName$16
	DD	0214H
	DD	04H
	DQ	FLAT:?test_ivec_precision@@YAHXZ$rtcName$15
	DD	01f4H
	DD	04H
	DQ	FLAT:?test_ivec_precision@@YAHXZ$rtcName$14
	DD	01d4H
	DD	04H
	DQ	FLAT:?test_ivec_precision@@YAHXZ$rtcName$13
	DD	01b4H
	DD	04H
	DQ	FLAT:?test_ivec_precision@@YAHXZ$rtcName$12
	DD	0194H
	DD	04H
	DQ	FLAT:?test_ivec_precision@@YAHXZ$rtcName$11
	DD	0174H
	DD	04H
	DQ	FLAT:?test_ivec_precision@@YAHXZ$rtcName$10
	DD	0154H
	DD	04H
	DQ	FLAT:?test_ivec_precision@@YAHXZ$rtcName$9
	DD	0134H
	DD	04H
	DQ	FLAT:?test_ivec_precision@@YAHXZ$rtcName$8
	DD	0114H
	DD	03H
	DQ	FLAT:?test_ivec_precision@@YAHXZ$rtcName$7
	DD	0f4H
	DD	03H
	DQ	FLAT:?test_ivec_precision@@YAHXZ$rtcName$6
	DD	0d4H
	DD	03H
	DQ	FLAT:?test_ivec_precision@@YAHXZ$rtcName$5
	DD	0b4H
	DD	03H
	DQ	FLAT:?test_ivec_precision@@YAHXZ$rtcName$4
	DD	094H
	DD	02H
	DQ	FLAT:?test_ivec_precision@@YAHXZ$rtcName$3
	DD	074H
	DD	02H
	DQ	FLAT:?test_ivec_precision@@YAHXZ$rtcName$2
	DD	054H
	DD	02H
	DQ	FLAT:?test_ivec_precision@@YAHXZ$rtcName$1
	DD	034H
	DD	02H
	DQ	FLAT:?test_ivec_precision@@YAHXZ$rtcName$0
	ORG $+2304
?test_ivec_precision@@YAHXZ$rtcFrameData DD 030H	; test_ivec_precision
	DD	00H
	DQ	FLAT:?test_ivec_precision@@YAHXZ$rtcVarDesc
?test_uvec_precision@@YAHXZ$rtcName$0 DB 076H		; test_uvec_precision
	DB	031H
	DB	00H
	ORG $+1
?test_uvec_precision@@YAHXZ$rtcName$1 DB 076H		; test_uvec_precision
	DB	032H
	DB	00H
	ORG $+1
?test_uvec_precision@@YAHXZ$rtcName$2 DB 076H		; test_uvec_precision
	DB	033H
	DB	00H
	ORG $+1
?test_uvec_precision@@YAHXZ$rtcName$3 DB 076H		; test_uvec_precision
	DB	034H
	DB	00H
	ORG $+1
?test_uvec_precision@@YAHXZ$rtcName$4 DB 076H		; test_uvec_precision
	DB	031H
	DB	00H
	ORG $+1
?test_uvec_precision@@YAHXZ$rtcName$5 DB 076H		; test_uvec_precision
	DB	032H
	DB	00H
	ORG $+1
?test_uvec_precision@@YAHXZ$rtcName$6 DB 076H		; test_uvec_precision
	DB	033H
	DB	00H
	ORG $+1
?test_uvec_precision@@YAHXZ$rtcName$7 DB 076H		; test_uvec_precision
	DB	034H
	DB	00H
	ORG $+1
?test_uvec_precision@@YAHXZ$rtcName$8 DB 076H		; test_uvec_precision
	DB	031H
	DB	00H
	ORG $+1
?test_uvec_precision@@YAHXZ$rtcName$9 DB 076H		; test_uvec_precision
	DB	032H
	DB	00H
	ORG $+1
?test_uvec_precision@@YAHXZ$rtcName$10 DB 076H		; test_uvec_precision
	DB	033H
	DB	00H
	ORG $+1
?test_uvec_precision@@YAHXZ$rtcName$11 DB 076H		; test_uvec_precision
	DB	034H
	DB	00H
	ORG $+1
?test_uvec_precision@@YAHXZ$rtcName$12 DB 076H		; test_uvec_precision
	DB	031H
	DB	00H
	ORG $+1
?test_uvec_precision@@YAHXZ$rtcName$13 DB 076H		; test_uvec_precision
	DB	032H
	DB	00H
	ORG $+1
?test_uvec_precision@@YAHXZ$rtcName$14 DB 076H		; test_uvec_precision
	DB	033H
	DB	00H
	ORG $+1
?test_uvec_precision@@YAHXZ$rtcName$15 DB 076H		; test_uvec_precision
	DB	034H
	DB	00H
	ORG $+1
?test_uvec_precision@@YAHXZ$rtcName$16 DB 076H		; test_uvec_precision
	DB	031H
	DB	00H
	ORG $+1
?test_uvec_precision@@YAHXZ$rtcName$17 DB 076H		; test_uvec_precision
	DB	032H
	DB	00H
	ORG $+1
?test_uvec_precision@@YAHXZ$rtcName$18 DB 076H		; test_uvec_precision
	DB	033H
	DB	00H
	ORG $+1
?test_uvec_precision@@YAHXZ$rtcName$19 DB 076H		; test_uvec_precision
	DB	034H
	DB	00H
	ORG $+1
?test_uvec_precision@@YAHXZ$rtcName$20 DB 076H		; test_uvec_precision
	DB	031H
	DB	00H
	ORG $+1
?test_uvec_precision@@YAHXZ$rtcName$21 DB 076H		; test_uvec_precision
	DB	032H
	DB	00H
	ORG $+1
?test_uvec_precision@@YAHXZ$rtcName$22 DB 076H		; test_uvec_precision
	DB	033H
	DB	00H
	ORG $+1
?test_uvec_precision@@YAHXZ$rtcName$23 DB 076H		; test_uvec_precision
	DB	034H
	DB	00H
	ORG $+1
?test_uvec_precision@@YAHXZ$rtcName$24 DB 076H		; test_uvec_precision
	DB	031H
	DB	00H
	ORG $+1
?test_uvec_precision@@YAHXZ$rtcName$25 DB 076H		; test_uvec_precision
	DB	032H
	DB	00H
	ORG $+1
?test_uvec_precision@@YAHXZ$rtcName$26 DB 076H		; test_uvec_precision
	DB	033H
	DB	00H
	ORG $+1
?test_uvec_precision@@YAHXZ$rtcName$27 DB 076H		; test_uvec_precision
	DB	034H
	DB	00H
	ORG $+1
?test_uvec_precision@@YAHXZ$rtcName$28 DB 076H		; test_uvec_precision
	DB	031H
	DB	00H
	ORG $+1
?test_uvec_precision@@YAHXZ$rtcName$29 DB 076H		; test_uvec_precision
	DB	032H
	DB	00H
	ORG $+1
?test_uvec_precision@@YAHXZ$rtcName$30 DB 076H		; test_uvec_precision
	DB	033H
	DB	00H
	ORG $+1
?test_uvec_precision@@YAHXZ$rtcName$31 DB 076H		; test_uvec_precision
	DB	034H
	DB	00H
	ORG $+1
?test_uvec_precision@@YAHXZ$rtcName$32 DB 076H		; test_uvec_precision
	DB	031H
	DB	00H
	ORG $+1
?test_uvec_precision@@YAHXZ$rtcName$33 DB 076H		; test_uvec_precision
	DB	032H
	DB	00H
	ORG $+1
?test_uvec_precision@@YAHXZ$rtcName$34 DB 076H		; test_uvec_precision
	DB	033H
	DB	00H
	ORG $+1
?test_uvec_precision@@YAHXZ$rtcName$35 DB 076H		; test_uvec_precision
	DB	034H
	DB	00H
	ORG $+1
?test_uvec_precision@@YAHXZ$rtcName$36 DB 076H		; test_uvec_precision
	DB	031H
	DB	00H
	ORG $+1
?test_uvec_precision@@YAHXZ$rtcName$37 DB 076H		; test_uvec_precision
	DB	032H
	DB	00H
	ORG $+1
?test_uvec_precision@@YAHXZ$rtcName$38 DB 076H		; test_uvec_precision
	DB	033H
	DB	00H
	ORG $+1
?test_uvec_precision@@YAHXZ$rtcName$39 DB 076H		; test_uvec_precision
	DB	034H
	DB	00H
	ORG $+1
?test_uvec_precision@@YAHXZ$rtcName$40 DB 076H		; test_uvec_precision
	DB	031H
	DB	00H
	ORG $+1
?test_uvec_precision@@YAHXZ$rtcName$41 DB 076H		; test_uvec_precision
	DB	032H
	DB	00H
	ORG $+1
?test_uvec_precision@@YAHXZ$rtcName$42 DB 076H		; test_uvec_precision
	DB	033H
	DB	00H
	ORG $+1
?test_uvec_precision@@YAHXZ$rtcName$43 DB 076H		; test_uvec_precision
	DB	034H
	DB	00H
	ORG $+1
?test_uvec_precision@@YAHXZ$rtcName$44 DB 076H		; test_uvec_precision
	DB	031H
	DB	00H
	ORG $+1
?test_uvec_precision@@YAHXZ$rtcName$45 DB 076H		; test_uvec_precision
	DB	032H
	DB	00H
	ORG $+1
?test_uvec_precision@@YAHXZ$rtcName$46 DB 076H		; test_uvec_precision
	DB	033H
	DB	00H
	ORG $+1
?test_uvec_precision@@YAHXZ$rtcName$47 DB 076H		; test_uvec_precision
	DB	034H
	DB	00H
	ORG $+1
?test_uvec_precision@@YAHXZ$rtcVarDesc DD 0778H		; test_uvec_precision
	DD	020H
	DQ	FLAT:?test_uvec_precision@@YAHXZ$rtcName$47
	DD	0738H
	DD	020H
	DQ	FLAT:?test_uvec_precision@@YAHXZ$rtcName$46
	DD	06f8H
	DD	020H
	DQ	FLAT:?test_uvec_precision@@YAHXZ$rtcName$45
	DD	06b8H
	DD	020H
	DQ	FLAT:?test_uvec_precision@@YAHXZ$rtcName$44
	DD	0688H
	DD	018H
	DQ	FLAT:?test_uvec_precision@@YAHXZ$rtcName$43
	DD	0658H
	DD	018H
	DQ	FLAT:?test_uvec_precision@@YAHXZ$rtcName$42
	DD	0628H
	DD	018H
	DQ	FLAT:?test_uvec_precision@@YAHXZ$rtcName$41
	DD	05f8H
	DD	018H
	DQ	FLAT:?test_uvec_precision@@YAHXZ$rtcName$40
	DD	05c8H
	DD	010H
	DQ	FLAT:?test_uvec_precision@@YAHXZ$rtcName$39
	DD	0598H
	DD	010H
	DQ	FLAT:?test_uvec_precision@@YAHXZ$rtcName$38
	DD	0568H
	DD	010H
	DQ	FLAT:?test_uvec_precision@@YAHXZ$rtcName$37
	DD	0538H
	DD	010H
	DQ	FLAT:?test_uvec_precision@@YAHXZ$rtcName$36
	DD	0508H
	DD	010H
	DQ	FLAT:?test_uvec_precision@@YAHXZ$rtcName$35
	DD	04d8H
	DD	010H
	DQ	FLAT:?test_uvec_precision@@YAHXZ$rtcName$34
	DD	04a8H
	DD	010H
	DQ	FLAT:?test_uvec_precision@@YAHXZ$rtcName$33
	DD	0478H
	DD	010H
	DQ	FLAT:?test_uvec_precision@@YAHXZ$rtcName$32
	DD	0448H
	DD	0cH
	DQ	FLAT:?test_uvec_precision@@YAHXZ$rtcName$31
	DD	0418H
	DD	0cH
	DQ	FLAT:?test_uvec_precision@@YAHXZ$rtcName$30
	DD	03e8H
	DD	0cH
	DQ	FLAT:?test_uvec_precision@@YAHXZ$rtcName$29
	DD	03b8H
	DD	0cH
	DQ	FLAT:?test_uvec_precision@@YAHXZ$rtcName$28
	DD	0398H
	DD	08H
	DQ	FLAT:?test_uvec_precision@@YAHXZ$rtcName$27
	DD	0378H
	DD	08H
	DQ	FLAT:?test_uvec_precision@@YAHXZ$rtcName$26
	DD	0358H
	DD	08H
	DQ	FLAT:?test_uvec_precision@@YAHXZ$rtcName$25
	DD	0338H
	DD	08H
	DQ	FLAT:?test_uvec_precision@@YAHXZ$rtcName$24
	DD	0318H
	DD	08H
	DQ	FLAT:?test_uvec_precision@@YAHXZ$rtcName$23
	DD	02f8H
	DD	08H
	DQ	FLAT:?test_uvec_precision@@YAHXZ$rtcName$22
	DD	02d8H
	DD	08H
	DQ	FLAT:?test_uvec_precision@@YAHXZ$rtcName$21
	DD	02b8H
	DD	08H
	DQ	FLAT:?test_uvec_precision@@YAHXZ$rtcName$20
	DD	0294H
	DD	06H
	DQ	FLAT:?test_uvec_precision@@YAHXZ$rtcName$19
	DD	0274H
	DD	06H
	DQ	FLAT:?test_uvec_precision@@YAHXZ$rtcName$18
	DD	0254H
	DD	06H
	DQ	FLAT:?test_uvec_precision@@YAHXZ$rtcName$17
	DD	0234H
	DD	06H
	DQ	FLAT:?test_uvec_precision@@YAHXZ$rtcName$16
	DD	0214H
	DD	04H
	DQ	FLAT:?test_uvec_precision@@YAHXZ$rtcName$15
	DD	01f4H
	DD	04H
	DQ	FLAT:?test_uvec_precision@@YAHXZ$rtcName$14
	DD	01d4H
	DD	04H
	DQ	FLAT:?test_uvec_precision@@YAHXZ$rtcName$13
	DD	01b4H
	DD	04H
	DQ	FLAT:?test_uvec_precision@@YAHXZ$rtcName$12
	DD	0194H
	DD	04H
	DQ	FLAT:?test_uvec_precision@@YAHXZ$rtcName$11
	DD	0174H
	DD	04H
	DQ	FLAT:?test_uvec_precision@@YAHXZ$rtcName$10
	DD	0154H
	DD	04H
	DQ	FLAT:?test_uvec_precision@@YAHXZ$rtcName$9
	DD	0134H
	DD	04H
	DQ	FLAT:?test_uvec_precision@@YAHXZ$rtcName$8
	DD	0114H
	DD	03H
	DQ	FLAT:?test_uvec_precision@@YAHXZ$rtcName$7
	DD	0f4H
	DD	03H
	DQ	FLAT:?test_uvec_precision@@YAHXZ$rtcName$6
	DD	0d4H
	DD	03H
	DQ	FLAT:?test_uvec_precision@@YAHXZ$rtcName$5
	DD	0b4H
	DD	03H
	DQ	FLAT:?test_uvec_precision@@YAHXZ$rtcName$4
	DD	094H
	DD	02H
	DQ	FLAT:?test_uvec_precision@@YAHXZ$rtcName$3
	DD	074H
	DD	02H
	DQ	FLAT:?test_uvec_precision@@YAHXZ$rtcName$2
	DD	054H
	DD	02H
	DQ	FLAT:?test_uvec_precision@@YAHXZ$rtcName$1
	DD	034H
	DD	02H
	DQ	FLAT:?test_uvec_precision@@YAHXZ$rtcName$0
	ORG $+2304
?test_uvec_precision@@YAHXZ$rtcFrameData DD 030H	; test_uvec_precision
	DD	00H
	DQ	FLAT:?test_uvec_precision@@YAHXZ$rtcVarDesc
?test_quat_precision@@YAHXZ$rtcName$0 DB 071H		; test_quat_precision
	DB	031H
	DB	00H
	ORG $+1
?test_quat_precision@@YAHXZ$rtcName$1 DB 071H		; test_quat_precision
	DB	041H
	DB	00H
	ORG $+1
?test_quat_precision@@YAHXZ$rtcName$2 DB 071H		; test_quat_precision
	DB	042H
	DB	00H
	ORG $+1
?test_quat_precision@@YAHXZ$rtcName$3 DB 071H		; test_quat_precision
	DB	043H
	DB	00H
	ORG $+1
?test_quat_precision@@YAHXZ$rtcName$4 DB 071H		; test_quat_precision
	DB	032H
	DB	00H
	ORG $+1
?test_quat_precision@@YAHXZ$rtcName$5 DB 071H		; test_quat_precision
	DB	033H
	DB	00H
	ORG $+1
?test_quat_precision@@YAHXZ$rtcName$6 DB 071H		; test_quat_precision
	DB	034H
	DB	00H
	ORG $+5
?test_quat_precision@@YAHXZ$rtcVarDesc DD 0158H		; test_quat_precision
	DD	010H
	DQ	FLAT:?test_quat_precision@@YAHXZ$rtcName$6
	DD	0128H
	DD	010H
	DQ	FLAT:?test_quat_precision@@YAHXZ$rtcName$5
	DD	0f8H
	DD	010H
	DQ	FLAT:?test_quat_precision@@YAHXZ$rtcName$4
	DD	0c8H
	DD	010H
	DQ	FLAT:?test_quat_precision@@YAHXZ$rtcName$3
	DD	098H
	DD	010H
	DQ	FLAT:?test_quat_precision@@YAHXZ$rtcName$2
	DD	068H
	DD	010H
	DQ	FLAT:?test_quat_precision@@YAHXZ$rtcName$1
	DD	038H
	DD	010H
	DQ	FLAT:?test_quat_precision@@YAHXZ$rtcName$0
	ORG $+336
?test_quat_precision@@YAHXZ$rtcFrameData DD 07H		; test_quat_precision
	DD	00H
	DQ	FLAT:?test_quat_precision@@YAHXZ$rtcVarDesc
?test_fvec_conversion@@YAHXZ$rtcName$0 DB 061H		; test_fvec_conversion
	DB	00H
	ORG $+2
?test_fvec_conversion@@YAHXZ$rtcName$1 DB 062H		; test_fvec_conversion
	DB	00H
	ORG $+2
?test_fvec_conversion@@YAHXZ$rtcName$2 DB 063H		; test_fvec_conversion
	DB	00H
	ORG $+2
?test_fvec_conversion@@YAHXZ$rtcName$3 DB 064H		; test_fvec_conversion
	DB	00H
	ORG $+2
?test_fvec_conversion@@YAHXZ$rtcName$4 DB 065H		; test_fvec_conversion
	DB	00H
	ORG $+2
?test_fvec_conversion@@YAHXZ$rtcName$5 DB 066H		; test_fvec_conversion
	DB	00H
	ORG $+2
?test_fvec_conversion@@YAHXZ$rtcFrameData DD 06H	; test_fvec_conversion
	DD	00H
	DQ	FLAT:?test_fvec_conversion@@YAHXZ$rtcVarDesc
?test_openmp@@YAHXZ$rtcName$0 DB 056H			; test_openmp
	DB	065H
	DB	063H
	DB	074H
	DB	06fH
	DB	072H
	DB	041H
	DB	00H
?test_fvec_conversion@@YAHXZ$rtcVarDesc DD 0138H	; test_fvec_conversion
	DD	0cH
	DQ	FLAT:?test_fvec_conversion@@YAHXZ$rtcName$5
	DD	0108H
	DD	010H
	DQ	FLAT:?test_fvec_conversion@@YAHXZ$rtcName$4
	DD	0d8H
	DD	010H
	DQ	FLAT:?test_fvec_conversion@@YAHXZ$rtcName$3
	DD	0a8H
	DD	010H
	DQ	FLAT:?test_fvec_conversion@@YAHXZ$rtcName$2
	DD	078H
	DD	010H
	DQ	FLAT:?test_fvec_conversion@@YAHXZ$rtcName$1
	DD	048H
	DD	010H
	DQ	FLAT:?test_fvec_conversion@@YAHXZ$rtcName$0
	ORG $+288
?test_openmp@@YAHXZ$rtcName$1 DB 056H			; test_openmp
	DB	065H
	DB	063H
	DB	074H
	DB	06fH
	DB	072H
	DB	042H
	DB	00H
?test_openmp@@YAHXZ$rtcName$2 DB 056H			; test_openmp
	DB	065H
	DB	063H
	DB	074H
	DB	06fH
	DB	072H
	DB	043H
	DB	00H
?test_openmp@@YAHXZ$rtcVarDesc DD 0a8H			; test_openmp
	DD	020H
	DQ	FLAT:?test_openmp@@YAHXZ$rtcName$2
	DD	068H
	DD	020H
	DQ	FLAT:?test_openmp@@YAHXZ$rtcName$1
	DD	028H
	DD	020H
	DQ	FLAT:?test_openmp@@YAHXZ$rtcName$0
	ORG $+144
?test_openmp@@YAHXZ$rtcFrameData DD 03H			; test_openmp
	DD	00H
	DQ	FLAT:?test_openmp@@YAHXZ$rtcVarDesc
CONST	ENDS
;	COMDAT xdata
xdata	SEGMENT
$unwind$??A?$tvec4@M$00@glm@@QEBAAEBMH@Z DD 020e01H
	DD	0700a320eH
xdata	ENDS
;	COMDAT xdata
xdata	SEGMENT
$unwind$?length@?$tvec4@M$00@glm@@SAHXZ DD 010201H
	DD	07002H
xdata	ENDS
;	COMDAT xdata
xdata	SEGMENT
$unwind$??0?$tvec4@N$0A@@glm@@QEAA@XZ DD 010601H
	DD	07006H
xdata	ENDS
;	COMDAT xdata
xdata	SEGMENT
$unwind$??A?$tvec4@N$0A@@glm@@QEBAAEBNH@Z DD 020e01H
	DD	0700a320eH
xdata	ENDS
;	COMDAT xdata
xdata	SEGMENT
$unwind$?length@?$tvec4@N$0A@@glm@@SAHXZ DD 010201H
	DD	07002H
xdata	ENDS
;	COMDAT xdata
xdata	SEGMENT
$unwind$??0?$tvec3@N$0A@@glm@@QEAA@XZ DD 010601H
	DD	07006H
xdata	ENDS
;	COMDAT xdata
xdata	SEGMENT
$unwind$??A?$tvec3@N$0A@@glm@@QEBAAEBNH@Z DD 020e01H
	DD	0700a320eH
xdata	ENDS
;	COMDAT xdata
xdata	SEGMENT
$unwind$?length@?$tvec3@N$0A@@glm@@SAHXZ DD 010201H
	DD	07002H
xdata	ENDS
;	COMDAT xdata
xdata	SEGMENT
$unwind$??0?$tvec2@N$0A@@glm@@QEAA@XZ DD 010601H
	DD	07006H
xdata	ENDS
;	COMDAT xdata
xdata	SEGMENT
$unwind$??A?$tvec2@N$0A@@glm@@QEBAAEBNH@Z DD 020e01H
	DD	0700a320eH
xdata	ENDS
;	COMDAT xdata
xdata	SEGMENT
$unwind$?length@?$tvec2@N$0A@@glm@@SAHXZ DD 010201H
	DD	07002H
xdata	ENDS
;	COMDAT xdata
xdata	SEGMENT
$unwind$??0?$tvec3@M$0A@@glm@@QEAA@XZ DD 010601H
	DD	07006H
xdata	ENDS
;	COMDAT xdata
xdata	SEGMENT
$unwind$??A?$tvec3@M$0A@@glm@@QEBAAEBMH@Z DD 020e01H
	DD	0700a320eH
xdata	ENDS
;	COMDAT xdata
xdata	SEGMENT
$unwind$?length@?$tvec3@M$0A@@glm@@SAHXZ DD 010201H
	DD	07002H
xdata	ENDS
xdata	SEGMENT
$unwind$?test_scalar_size@@YAHXZ DD 020601H
	DD	070021206H
$unwind$?test_fvec_size@@YAHXZ DD 020601H
	DD	070021206H
$unwind$?test_fvec_precision@@YAHXZ DD 041b01H
	DD	05d010aH
	DD	060027003H
$unwind$?test_dvec_precision@@YAHXZ DD 041b01H
	DD	07f010aH
	DD	060027003H
$unwind$?test_ivec_size@@YAHXZ DD 020601H
	DD	070021206H
$unwind$?test_ivec_precision@@YAHXZ DD 041b01H
	DD	014f010aH
	DD	060027003H
$unwind$?test_uvec_size@@YAHXZ DD 020601H
	DD	070021206H
$unwind$?test_uvec_precision@@YAHXZ DD 041b01H
	DD	014f010aH
	DD	060027003H
$unwind$?test_fmat_size@@YAHXZ DD 020601H
	DD	070021206H
$unwind$?test_dmat_size@@YAHXZ DD 020601H
	DD	070021206H
$unwind$?test_quat_size@@YAHXZ DD 020601H
	DD	070021206H
$unwind$?test_quat_precision@@YAHXZ DD 041b01H
	DD	033010aH
	DD	060027003H
$unwind$?test_fvec_conversion@@YAHXZ DD 031a01H
	DD	0320109H
	DD	07002H
$unwind$?test_openmp@@YAHXZ DD 041b11H
	DD	025010aH
	DD	060027003H
	DD	imagerel __CxxFrameHandler4
	DD	imagerel $cppxdata$?test_openmp@@YAHXZ
$cppxdata$?test_openmp@@YAHXZ DB 028H
	DD	imagerel $stateUnwindMap$?test_openmp@@YAHXZ
	DD	imagerel $ip2state$?test_openmp@@YAHXZ
$stateUnwindMap$?test_openmp@@YAHXZ DB 06H
	DB	0eH
	DD	imagerel ?dtor$0@?0??test_openmp@@YAHXZ@4HA
	DB	02eH
	DD	imagerel ?dtor$1@?0??test_openmp@@YAHXZ@4HA
	DB	02eH
	DD	imagerel ?dtor$2@?0??test_openmp@@YAHXZ@4HA
$ip2state$?test_openmp@@YAHXZ DB 0eH
	DB	00H
	DB	00H
	DB	'v'
	DB	02H
	DB	'@'
	DB	04H
	DB	'F'
	DB	06H
	DB	0d5H, 06H
	DB	04H
	DB	01cH
	DB	02H
	DB	016H
	DB	00H
	ORG $+3
$unwind$?dtor$0@?0??test_openmp@@YAHXZ@4HA DD 031001H
	DD	0700c4210H
	DD	0500bH
$unwind$?dtor$1@?0??test_openmp@@YAHXZ@4HA DD 031001H
	DD	0700c4210H
	DD	0500bH
$unwind$?dtor$2@?0??test_openmp@@YAHXZ@4HA DD 031001H
	DD	0700c4210H
	DD	0500bH
$unwind$main DD	020601H
	DD	070025206H
xdata	ENDS
;	COMDAT xdata
xdata	SEGMENT
$unwind$??0_Basic_container_proxy_ptr12@std@@IEAA@XZ DD 010601H
	DD	07006H
xdata	ENDS
;	COMDAT xdata
xdata	SEGMENT
$unwind$?_Release@_Basic_container_proxy_ptr12@std@@QEAAXXZ DD 010601H
	DD	07006H
xdata	ENDS
;	COMDAT xdata
xdata	SEGMENT
$unwind$?_Orphan_all_locked_v3@_Container_base12@std@@AEAAXXZ DD 022001H
	DD	07006720aH
xdata	ENDS
;	COMDAT CONST
CONST	SEGMENT
?_Orphan_all_locked_v3@_Container_base12@std@@AEAAXXZ$rtcName$0 DB 05fH ; std::_Container_base12::_Orphan_all_locked_v3
	DB	04cH
	DB	06fH
	DB	063H
	DB	06bH
	DB	00H
	ORG $+10
?_Orphan_all_locked_v3@_Container_base12@std@@AEAAXXZ$rtcVarDesc DD 024H ; std::_Container_base12::_Orphan_all_locked_v3
	DD	04H
	DQ	FLAT:?_Orphan_all_locked_v3@_Container_base12@std@@AEAAXXZ$rtcName$0
	ORG $+48
?_Orphan_all_locked_v3@_Container_base12@std@@AEAAXXZ$rtcFrameData DD 01H ; std::_Container_base12::_Orphan_all_locked_v3
	DD	00H
	DQ	FLAT:?_Orphan_all_locked_v3@_Container_base12@std@@AEAAXXZ$rtcVarDesc
CONST	ENDS
;	COMDAT xdata
xdata	SEGMENT
$unwind$?_Orphan_all_unlocked_v3@_Container_base12@std@@AEAAXXZ DD 020a01H
	DD	07006120aH
xdata	ENDS
;	COMDAT xdata
xdata	SEGMENT
$unwind$?_Orphan_all@_Container_base12@std@@QEAAXXZ DD 020a01H
	DD	07006320aH
xdata	ENDS
;	COMDAT xdata
xdata	SEGMENT
$unwind$??0_Container_base12@std@@QEAA@XZ DD 010601H
	DD	07006H
xdata	ENDS
;	COMDAT xdata
xdata	SEGMENT
$unwind$??0_Container_proxy@std@@QEAA@PEAU_Container_base12@1@@Z DD 010b01H
	DD	0700bH
xdata	ENDS
;	COMDAT xdata
xdata	SEGMENT
$unwind$?_Adjust_manually_vector_aligned@std@@YAXAEAPEAXAEA_K@Z DD 020f01H
	DD	0700b920fH
xdata	ENDS
;	COMDAT xdata
xdata	SEGMENT
$unwind$?_Allocate@_Default_allocate_traits@std@@SAPEAX_K@Z DD 020a01H
	DD	07006320aH
xdata	ENDS
;	COMDAT xdata
xdata	SEGMENT
$unwind$?_Throw_bad_array_new_length@std@@YAXXZ DD 020601H
	DD	070027206H
xdata	ENDS
;	COMDAT xdata
xdata	SEGMENT
$unwind$??_Gbad_array_new_length@std@@UEAAPEAXI@Z DD 020e01H
	DD	0700a320eH
xdata	ENDS
;	COMDAT xdata
xdata	SEGMENT
