; Listing generated by Microsoft (R) Optimizing Compiler Version 19.32.31329.0 

include listing.inc

INCLUDELIB MSVCRTD

CONST	SEGMENT
$SG57551 DB	'mask[mix]: %d', 0aH, 00H
	ORG $+1
$SG57552 DB	'mask[loop]: %d', 0aH, 00H
$SG57553 DB	'mask[default]: %d', 0aH, 00H
	ORG $+1
$SG63126 DB	'%s', 00H
	ORG $+1
$SG57554 DB	'mask[zero]: %d', 0aH, 00H
$SG57555 DB	'mask[half]: %d', 0aH, 00H
$SG60103 DB	'glm::bitfieldInterleave Time %d clocks', 0aH, 00H
$SG58389 DB	'C', 00H, ':', 00H, '\', 00H, 'U', 00H, 's', 00H, 'e', 00H
	DB	'r', 00H, 's', 00H, '\', 00H, 'k', 00H, 's', 00H, 'a', 00H, 'r'
	DB	00H, 't', 00H, '\', 00H, 'O', 00H, 'n', 00H, 'e', 00H, 'D', 00H
	DB	'r', 00H, 'i', 00H, 'v', 00H, 'e', 00H, '\', 00H, 'D', 00H, 'e'
	DB	00H, 's', 00H, 'k', 00H, 't', 00H, 'o', 00H, 'p', 00H, '\', 00H
	DB	'F', 00H, 'l', 00H, 'a', 00H, 'p', 00H, 'p', 00H, 'y', 00H, 'B'
	DB	00H, 'i', 00H, 'r', 00H, 'd', 00H, '\', 00H, 'l', 00H, 'i', 00H
	DB	'b', 00H, 'r', 00H, 'a', 00H, 'r', 00H, 'i', 00H, 'e', 00H, 's'
	DB	00H, '\', 00H, 'e', 00H, 'x', 00H, 't', 00H, 'e', 00H, 'r', 00H
	DB	'n', 00H, 'a', 00H, 'l', 00H, '\', 00H, 'g', 00H, 'l', 00H, 'm'
	DB	00H, '\', 00H, 't', 00H, 'e', 00H, 's', 00H, 't', 00H, '\', 00H
	DB	'g', 00H, 't', 00H, 'c', 00H, '\', 00H, 'g', 00H, 't', 00H, 'c'
	DB	00H, '_', 00H, 'b', 00H, 'i', 00H, 't', 00H, 'f', 00H, 'i', 00H
	DB	'e', 00H, 'l', 00H, 'd', 00H, '.', 00H, 'c', 00H, 'p', 00H, 'p'
	DB	00H, 00H, 00H
$SG58390 DB	'A', 00H, ' ', 00H, '=', 00H, '=', 00H, ' ', 00H, 'B', 00H
	DB	00H, 00H
	ORG $+2
$SG60104 DB	'fastBitfieldInterleave Time %d clocks', 0aH, 00H
	ORG $+1
$SG58391 DB	'C', 00H, ':', 00H, '\', 00H, 'U', 00H, 's', 00H, 'e', 00H
	DB	'r', 00H, 's', 00H, '\', 00H, 'k', 00H, 's', 00H, 'a', 00H, 'r'
	DB	00H, 't', 00H, '\', 00H, 'O', 00H, 'n', 00H, 'e', 00H, 'D', 00H
	DB	'r', 00H, 'i', 00H, 'v', 00H, 'e', 00H, '\', 00H, 'D', 00H, 'e'
	DB	00H, 's', 00H, 'k', 00H, 't', 00H, 'o', 00H, 'p', 00H, '\', 00H
	DB	'F', 00H, 'l', 00H, 'a', 00H, 'p', 00H, 'p', 00H, 'y', 00H, 'B'
	DB	00H, 'i', 00H, 'r', 00H, 'd', 00H, '\', 00H, 'l', 00H, 'i', 00H
	DB	'b', 00H, 'r', 00H, 'a', 00H, 'r', 00H, 'i', 00H, 'e', 00H, 's'
	DB	00H, '\', 00H, 'e', 00H, 'x', 00H, 't', 00H, 'e', 00H, 'r', 00H
	DB	'n', 00H, 'a', 00H, 'l', 00H, '\', 00H, 'g', 00H, 'l', 00H, 'm'
	DB	00H, '\', 00H, 't', 00H, 'e', 00H, 's', 00H, 't', 00H, '\', 00H
	DB	'g', 00H, 't', 00H, 'c', 00H, '\', 00H, 'g', 00H, 't', 00H, 'c'
	DB	00H, '_', 00H, 'b', 00H, 'i', 00H, 't', 00H, 'f', 00H, 'i', 00H
	DB	'e', 00H, 'l', 00H, 'd', 00H, '.', 00H, 'c', 00H, 'p', 00H, 'p'
	DB	00H, 00H, 00H
$SG58392 DB	'A', 00H, ' ', 00H, '=', 00H, '=', 00H, ' ', 00H, 'D', 00H
	DB	00H, 00H
	ORG $+2
$SG60106 DB	'sseBitfieldInterleave Time %d clocks', 0aH, 00H
	ORG $+2
$SG58393 DB	'C', 00H, ':', 00H, '\', 00H, 'U', 00H, 's', 00H, 'e', 00H
	DB	'r', 00H, 's', 00H, '\', 00H, 'k', 00H, 's', 00H, 'a', 00H, 'r'
	DB	00H, 't', 00H, '\', 00H, 'O', 00H, 'n', 00H, 'e', 00H, 'D', 00H
	DB	'r', 00H, 'i', 00H, 'v', 00H, 'e', 00H, '\', 00H, 'D', 00H, 'e'
	DB	00H, 's', 00H, 'k', 00H, 't', 00H, 'o', 00H, 'p', 00H, '\', 00H
	DB	'F', 00H, 'l', 00H, 'a', 00H, 'p', 00H, 'p', 00H, 'y', 00H, 'B'
	DB	00H, 'i', 00H, 'r', 00H, 'd', 00H, '\', 00H, 'l', 00H, 'i', 00H
	DB	'b', 00H, 'r', 00H, 'a', 00H, 'r', 00H, 'i', 00H, 'e', 00H, 's'
	DB	00H, '\', 00H, 'e', 00H, 'x', 00H, 't', 00H, 'e', 00H, 'r', 00H
	DB	'n', 00H, 'a', 00H, 'l', 00H, '\', 00H, 'g', 00H, 'l', 00H, 'm'
	DB	00H, '\', 00H, 't', 00H, 'e', 00H, 's', 00H, 't', 00H, '\', 00H
	DB	'g', 00H, 't', 00H, 'c', 00H, '\', 00H, 'g', 00H, 't', 00H, 'c'
	DB	00H, '_', 00H, 'b', 00H, 'i', 00H, 't', 00H, 'f', 00H, 'i', 00H
	DB	'e', 00H, 'l', 00H, 'd', 00H, '.', 00H, 'c', 00H, 'p', 00H, 'p'
	DB	00H, 00H, 00H
$SG58394 DB	'A', 00H, ' ', 00H, '=', 00H, '=', 00H, ' ', 00H, 'E', 00H
	DB	00H, 00H
	ORG $+2
$SG60107 DB	'sseUnalignedBitfieldInterleave Time %d clocks', 0aH, 00H
	ORG $+1
$SG60108 DB	'glm::detail::bitfieldInterleave Time %d clocks', 0aH, 00H
$SG63125 DB	'invalid argument', 00H
	ORG $+7
$SG58395 DB	'C', 00H, ':', 00H, '\', 00H, 'U', 00H, 's', 00H, 'e', 00H
	DB	'r', 00H, 's', 00H, '\', 00H, 'k', 00H, 's', 00H, 'a', 00H, 'r'
	DB	00H, 't', 00H, '\', 00H, 'O', 00H, 'n', 00H, 'e', 00H, 'D', 00H
	DB	'r', 00H, 'i', 00H, 'v', 00H, 'e', 00H, '\', 00H, 'D', 00H, 'e'
	DB	00H, 's', 00H, 'k', 00H, 't', 00H, 'o', 00H, 'p', 00H, '\', 00H
	DB	'F', 00H, 'l', 00H, 'a', 00H, 'p', 00H, 'p', 00H, 'y', 00H, 'B'
	DB	00H, 'i', 00H, 'r', 00H, 'd', 00H, '\', 00H, 'l', 00H, 'i', 00H
	DB	'b', 00H, 'r', 00H, 'a', 00H, 'r', 00H, 'i', 00H, 'e', 00H, 's'
	DB	00H, '\', 00H, 'e', 00H, 'x', 00H, 't', 00H, 'e', 00H, 'r', 00H
	DB	'n', 00H, 'a', 00H, 'l', 00H, '\', 00H, 'g', 00H, 'l', 00H, 'm'
	DB	00H, '\', 00H, 't', 00H, 'e', 00H, 's', 00H, 't', 00H, '\', 00H
	DB	'g', 00H, 't', 00H, 'c', 00H, '\', 00H, 'g', 00H, 't', 00H, 'c'
	DB	00H, '_', 00H, 'b', 00H, 'i', 00H, 't', 00H, 'f', 00H, 'i', 00H
	DB	'e', 00H, 'l', 00H, 'd', 00H, '.', 00H, 'c', 00H, 'p', 00H, 'p'
	DB	00H, 00H, 00H
$SG58396 DB	'A', 00H, ' ', 00H, '=', 00H, '=', 00H, ' ', 00H, 'F', 00H
	DB	00H, 00H
	ORG $+2
$SG63130 DB	'"', 00H, 'i', 00H, 'n', 00H, 'v', 00H, 'a', 00H, 'l', 00H
	DB	'i', 00H, 'd', 00H, ' ', 00H, 'a', 00H, 'r', 00H, 'g', 00H, 'u'
	DB	00H, 'm', 00H, 'e', 00H, 'n', 00H, 't', 00H, '"', 00H, 00H, 00H
	ORG $+2
$SG58397 DB	'C', 00H, ':', 00H, '\', 00H, 'U', 00H, 's', 00H, 'e', 00H
	DB	'r', 00H, 's', 00H, '\', 00H, 'k', 00H, 's', 00H, 'a', 00H, 'r'
	DB	00H, 't', 00H, '\', 00H, 'O', 00H, 'n', 00H, 'e', 00H, 'D', 00H
	DB	'r', 00H, 'i', 00H, 'v', 00H, 'e', 00H, '\', 00H, 'D', 00H, 'e'
	DB	00H, 's', 00H, 'k', 00H, 't', 00H, 'o', 00H, 'p', 00H, '\', 00H
	DB	'F', 00H, 'l', 00H, 'a', 00H, 'p', 00H, 'p', 00H, 'y', 00H, 'B'
	DB	00H, 'i', 00H, 'r', 00H, 'd', 00H, '\', 00H, 'l', 00H, 'i', 00H
	DB	'b', 00H, 'r', 00H, 'a', 00H, 'r', 00H, 'i', 00H, 'e', 00H, 's'
	DB	00H, '\', 00H, 'e', 00H, 'x', 00H, 't', 00H, 'e', 00H, 'r', 00H
	DB	'n', 00H, 'a', 00H, 'l', 00H, '\', 00H, 'g', 00H, 'l', 00H, 'm'
	DB	00H, '\', 00H, 't', 00H, 'e', 00H, 's', 00H, 't', 00H, '\', 00H
	DB	'g', 00H, 't', 00H, 'c', 00H, '\', 00H, 'g', 00H, 't', 00H, 'c'
	DB	00H, '_', 00H, 'b', 00H, 'i', 00H, 't', 00H, 'f', 00H, 'i', 00H
	DB	'e', 00H, 'l', 00H, 'd', 00H, '.', 00H, 'c', 00H, 'p', 00H, 'p'
	DB	00H, 00H, 00H
$SG58398 DB	'A', 00H, ' ', 00H, '=', 00H, '=', 00H, ' ', 00H, 'R', 00H
	DB	'e', 00H, 's', 00H, 'u', 00H, 'l', 00H, 't', 00H, '[', 00H, '0'
	DB	00H, ']', 00H, 00H, 00H
	ORG $+10
$SG58399 DB	'C', 00H, ':', 00H, '\', 00H, 'U', 00H, 's', 00H, 'e', 00H
	DB	'r', 00H, 's', 00H, '\', 00H, 'k', 00H, 's', 00H, 'a', 00H, 'r'
	DB	00H, 't', 00H, '\', 00H, 'O', 00H, 'n', 00H, 'e', 00H, 'D', 00H
	DB	'r', 00H, 'i', 00H, 'v', 00H, 'e', 00H, '\', 00H, 'D', 00H, 'e'
	DB	00H, 's', 00H, 'k', 00H, 't', 00H, 'o', 00H, 'p', 00H, '\', 00H
	DB	'F', 00H, 'l', 00H, 'a', 00H, 'p', 00H, 'p', 00H, 'y', 00H, 'B'
	DB	00H, 'i', 00H, 'r', 00H, 'd', 00H, '\', 00H, 'l', 00H, 'i', 00H
	DB	'b', 00H, 'r', 00H, 'a', 00H, 'r', 00H, 'i', 00H, 'e', 00H, 's'
	DB	00H, '\', 00H, 'e', 00H, 'x', 00H, 't', 00H, 'e', 00H, 'r', 00H
	DB	'n', 00H, 'a', 00H, 'l', 00H, '\', 00H, 'g', 00H, 'l', 00H, 'm'
	DB	00H, '\', 00H, 't', 00H, 'e', 00H, 's', 00H, 't', 00H, '\', 00H
	DB	'g', 00H, 't', 00H, 'c', 00H, '\', 00H, 'g', 00H, 't', 00H, 'c'
	DB	00H, '_', 00H, 'b', 00H, 'i', 00H, 't', 00H, 'f', 00H, 'i', 00H
	DB	'e', 00H, 'l', 00H, 'd', 00H, '.', 00H, 'c', 00H, 'p', 00H, 'p'
	DB	00H, 00H, 00H
$SG58400 DB	'D', 00H, ' ', 00H, '=', 00H, '=', 00H, ' ', 00H, 'E', 00H
	DB	00H, 00H
	ORG $+10
$SG58401 DB	'C', 00H, ':', 00H, '\', 00H, 'U', 00H, 's', 00H, 'e', 00H
	DB	'r', 00H, 's', 00H, '\', 00H, 'k', 00H, 's', 00H, 'a', 00H, 'r'
	DB	00H, 't', 00H, '\', 00H, 'O', 00H, 'n', 00H, 'e', 00H, 'D', 00H
	DB	'r', 00H, 'i', 00H, 'v', 00H, 'e', 00H, '\', 00H, 'D', 00H, 'e'
	DB	00H, 's', 00H, 'k', 00H, 't', 00H, 'o', 00H, 'p', 00H, '\', 00H
	DB	'F', 00H, 'l', 00H, 'a', 00H, 'p', 00H, 'p', 00H, 'y', 00H, 'B'
	DB	00H, 'i', 00H, 'r', 00H, 'd', 00H, '\', 00H, 'l', 00H, 'i', 00H
	DB	'b', 00H, 'r', 00H, 'a', 00H, 'r', 00H, 'i', 00H, 'e', 00H, 's'
	DB	00H, '\', 00H, 'e', 00H, 'x', 00H, 't', 00H, 'e', 00H, 'r', 00H
	DB	'n', 00H, 'a', 00H, 'l', 00H, '\', 00H, 'g', 00H, 'l', 00H, 'm'
	DB	00H, '\', 00H, 't', 00H, 'e', 00H, 's', 00H, 't', 00H, '\', 00H
	DB	'g', 00H, 't', 00H, 'c', 00H, '\', 00H, 'g', 00H, 't', 00H, 'c'
	DB	00H, '_', 00H, 'b', 00H, 'i', 00H, 't', 00H, 'f', 00H, 'i', 00H
	DB	'e', 00H, 'l', 00H, 'd', 00H, '.', 00H, 'c', 00H, 'p', 00H, 'p'
	DB	00H, 00H, 00H
$SG58402 DB	'D', 00H, ' ', 00H, '=', 00H, '=', 00H, ' ', 00H, 'F', 00H
	DB	00H, 00H
	ORG $+2
$SG60105 DB	'interleaveBitfieldInterleave Time %d clocks', 0aH, 00H
	ORG $+3
$SG60109 DB	'_mm_bit_interleave_si128 Time %d clocks', 0aH, 00H
	ORG $+3
$SG63129 DB	00H, 00H
	ORG $+10
$SG63127 DB	'C:\Program Files\Microsoft Visual Studio\2022\Community\'
	DB	'VC\Tools\MSVC\14.32.31326\include\xmemory', 00H
	ORG $+14
$SG63128 DB	'C', 00H, ':', 00H, '\', 00H, 'P', 00H, 'r', 00H, 'o', 00H
	DB	'g', 00H, 'r', 00H, 'a', 00H, 'm', 00H, ' ', 00H, 'F', 00H, 'i'
	DB	00H, 'l', 00H, 'e', 00H, 's', 00H, '\', 00H, 'M', 00H, 'i', 00H
	DB	'c', 00H, 'r', 00H, 'o', 00H, 's', 00H, 'o', 00H, 'f', 00H, 't'
	DB	00H, ' ', 00H, 'V', 00H, 'i', 00H, 's', 00H, 'u', 00H, 'a', 00H
	DB	'l', 00H, ' ', 00H, 'S', 00H, 't', 00H, 'u', 00H, 'd', 00H, 'i'
	DB	00H, 'o', 00H, '\', 00H, '2', 00H, '0', 00H, '2', 00H, '2', 00H
	DB	'\', 00H, 'C', 00H, 'o', 00H, 'm', 00H, 'm', 00H, 'u', 00H, 'n'
	DB	00H, 'i', 00H, 't', 00H, 'y', 00H, '\', 00H, 'V', 00H, 'C', 00H
	DB	'\', 00H, 'T', 00H, 'o', 00H, 'o', 00H, 'l', 00H, 's', 00H, '\'
	DB	00H, 'M', 00H, 'S', 00H, 'V', 00H, 'C', 00H, '\', 00H, '1', 00H
	DB	'4', 00H, '.', 00H, '3', 00H, '2', 00H, '.', 00H, '3', 00H, '1'
	DB	00H, '3', 00H, '2', 00H, '6', 00H, '\', 00H, 'i', 00H, 'n', 00H
	DB	'c', 00H, 'l', 00H, 'u', 00H, 'd', 00H, 'e', 00H, '\', 00H, 'x'
	DB	00H, 'm', 00H, 'e', 00H, 'm', 00H, 'o', 00H, 'r', 00H, 'y', 00H
	DB	00H, 00H
CONST	ENDS
PUBLIC	__local_stdio_printf_options
PUBLIC	_vfprintf_l
PUBLIC	printf
PUBLIC	?max@?$numeric_limits@_J@std@@SA_JXZ		; std::numeric_limits<__int64>::max
PUBLIC	?bitfieldInterleave@glm@@YAFCC@Z		; glm::bitfieldInterleave
PUBLIC	?bitfieldInterleave@glm@@YAGEE@Z		; glm::bitfieldInterleave
PUBLIC	?bitfieldInterleave@glm@@YAHFF@Z		; glm::bitfieldInterleave
PUBLIC	?bitfieldInterleave@glm@@YAIGG@Z		; glm::bitfieldInterleave
PUBLIC	?bitfieldInterleave@glm@@YA_JHH@Z		; glm::bitfieldInterleave
PUBLIC	?bitfieldInterleave@glm@@YA_KII@Z		; glm::bitfieldInterleave
PUBLIC	?bitfieldInterleave@glm@@YA_KGGG@Z		; glm::bitfieldInterleave
PUBLIC	?bitfieldInterleave@glm@@YA_KIII@Z		; glm::bitfieldInterleave
PUBLIC	?bitfieldInterleave@glm@@YA_KGGGG@Z		; glm::bitfieldInterleave
PUBLIC	?glm_i128_interleave@@YA?AT__m128i@@T1@@Z	; glm_i128_interleave
PUBLIC	??$bitfieldInterleave@EG@detail@glm@@YAGEE@Z	; glm::detail::bitfieldInterleave<unsigned char,unsigned short>
PUBLIC	??$bitfieldInterleave@GI@detail@glm@@YAIGG@Z	; glm::detail::bitfieldInterleave<unsigned short,unsigned int>
PUBLIC	??$bitfieldInterleave@I_K@detail@glm@@YA_KII@Z	; glm::detail::bitfieldInterleave<unsigned int,unsigned __int64>
PUBLIC	??$bitfieldInterleave@I_K@detail@glm@@YA_KIII@Z	; glm::detail::bitfieldInterleave<unsigned int,unsigned __int64>
PUBLIC	??$bitfieldInterleave@G_K@detail@glm@@YA_KGGGG@Z ; glm::detail::bitfieldInterleave<unsigned short,unsigned __int64>
PUBLIC	??2@YAPEAX_KPEAX@Z				; operator new
PUBLIC	??0?$tvec2@I$0A@@glm@@QEAA@XZ			; glm::tvec2<unsigned int,0>::tvec2<unsigned int,0>
PUBLIC	??0?$tvec2@I$0A@@glm@@QEAA@II@Z			; glm::tvec2<unsigned int,0>::tvec2<unsigned int,0>
PUBLIC	??0exception@std@@QEAA@QEBDH@Z			; std::exception::exception
PUBLIC	??0exception@std@@QEAA@AEBV01@@Z		; std::exception::exception
PUBLIC	??1exception@std@@UEAA@XZ			; std::exception::~exception
PUBLIC	?what@exception@std@@UEBAPEBDXZ			; std::exception::what
PUBLIC	??_Gexception@std@@UEAAPEAXI@Z			; std::exception::`scalar deleting destructor'
PUBLIC	??0bad_alloc@std@@AEAA@QEBD@Z			; std::bad_alloc::bad_alloc
PUBLIC	??1bad_alloc@std@@UEAA@XZ			; std::bad_alloc::~bad_alloc
PUBLIC	??0bad_alloc@std@@QEAA@AEBV01@@Z		; std::bad_alloc::bad_alloc
PUBLIC	??_Gbad_alloc@std@@UEAAPEAXI@Z			; std::bad_alloc::`scalar deleting destructor'
PUBLIC	??0bad_array_new_length@std@@QEAA@XZ		; std::bad_array_new_length::bad_array_new_length
PUBLIC	??1bad_array_new_length@std@@UEAA@XZ		; std::bad_array_new_length::~bad_array_new_length
PUBLIC	??0bad_array_new_length@std@@QEAA@AEBV01@@Z	; std::bad_array_new_length::bad_array_new_length
PUBLIC	??_Gbad_array_new_length@std@@UEAAPEAXI@Z	; std::bad_array_new_length::`scalar deleting destructor'
PUBLIC	?_Throw_bad_array_new_length@std@@YAXXZ		; std::_Throw_bad_array_new_length
PUBLIC	?_Allocate@_Default_allocate_traits@std@@SAPEAX_K@Z ; std::_Default_allocate_traits::_Allocate
PUBLIC	?_Adjust_manually_vector_aligned@std@@YAXAEAPEAXAEA_K@Z ; std::_Adjust_manually_vector_aligned
PUBLIC	??0_Container_proxy@std@@QEAA@PEAU_Container_base12@1@@Z ; std::_Container_proxy::_Container_proxy
PUBLIC	??0_Container_base12@std@@QEAA@XZ		; std::_Container_base12::_Container_base12
PUBLIC	?_Orphan_all@_Container_base12@std@@QEAAXXZ	; std::_Container_base12::_Orphan_all
PUBLIC	?_Orphan_all_unlocked_v3@_Container_base12@std@@AEAAXXZ ; std::_Container_base12::_Orphan_all_unlocked_v3
PUBLIC	?_Orphan_all_locked_v3@_Container_base12@std@@AEAAXXZ ; std::_Container_base12::_Orphan_all_locked_v3
PUBLIC	?_Release@_Basic_container_proxy_ptr12@std@@QEAAXXZ ; std::_Basic_container_proxy_ptr12::_Release
PUBLIC	??0_Basic_container_proxy_ptr12@std@@IEAA@XZ	; std::_Basic_container_proxy_ptr12::_Basic_container_proxy_ptr12
PUBLIC	?mask_zero@mask@@YAHH@Z				; mask::mask_zero
PUBLIC	?mask_mix@mask@@YAHH@Z				; mask::mask_mix
PUBLIC	?mask_half@mask@@YAHH@Z				; mask::mask_half
PUBLIC	?mask_loop@mask@@YAHH@Z				; mask::mask_loop
PUBLIC	?perf@mask@@YAHXZ				; mask::perf
PUBLIC	??0?$allocator@H@std@@QEAA@XZ			; std::allocator<int>::allocator<int>
PUBLIC	?deallocate@?$allocator@H@std@@QEAAXQEAH_K@Z	; std::allocator<int>::deallocate
PUBLIC	?allocate@?$allocator@H@std@@QEAAPEAH_K@Z	; std::allocator<int>::allocate
PUBLIC	?max_size@?$_Default_allocator_traits@V?$allocator@H@std@@@std@@SA_KAEBV?$allocator@H@2@@Z ; std::_Default_allocator_traits<std::allocator<int> >::max_size
PUBLIC	??0?$vector@HV?$allocator@H@std@@@std@@QEAA@XZ	; std::vector<int,std::allocator<int> >::vector<int,std::allocator<int> >
PUBLIC	??1?$vector@HV?$allocator@H@std@@@std@@QEAA@XZ	; std::vector<int,std::allocator<int> >::~vector<int,std::allocator<int> >
PUBLIC	?resize@?$vector@HV?$allocator@H@std@@@std@@QEAAX_K@Z ; std::vector<int,std::allocator<int> >::resize
PUBLIC	?max_size@?$vector@HV?$allocator@H@std@@@std@@QEBA_KXZ ; std::vector<int,std::allocator<int> >::max_size
PUBLIC	?capacity@?$vector@HV?$allocator@H@std@@@std@@QEBA_KXZ ; std::vector<int,std::allocator<int> >::capacity
PUBLIC	??A?$vector@HV?$allocator@H@std@@@std@@QEAAAEAH_K@Z ; std::vector<int,std::allocator<int> >::operator[]
PUBLIC	?_Calculate_growth@?$vector@HV?$allocator@H@std@@@std@@AEBA_K_K@Z ; std::vector<int,std::allocator<int> >::_Calculate_growth
PUBLIC	?_Change_array@?$vector@HV?$allocator@H@std@@@std@@AEAAXQEAH_K1@Z ; std::vector<int,std::allocator<int> >::_Change_array
PUBLIC	?_Tidy@?$vector@HV?$allocator@H@std@@@std@@AEAAXXZ ; std::vector<int,std::allocator<int> >::_Tidy
PUBLIC	?_Xlength@?$vector@HV?$allocator@H@std@@@std@@CAXXZ ; std::vector<int,std::allocator<int> >::_Xlength
PUBLIC	?_Orphan_range_unlocked@?$vector@HV?$allocator@H@std@@@std@@AEBAXPEAH0@Z ; std::vector<int,std::allocator<int> >::_Orphan_range_unlocked
PUBLIC	?_Orphan_range_locked@?$vector@HV?$allocator@H@std@@@std@@AEBAXPEAH0@Z ; std::vector<int,std::allocator<int> >::_Orphan_range_locked
PUBLIC	?_Orphan_range@?$vector@HV?$allocator@H@std@@@std@@AEBAXPEAH0@Z ; std::vector<int,std::allocator<int> >::_Orphan_range
PUBLIC	?_Getal@?$vector@HV?$allocator@H@std@@@std@@AEAAAEAV?$allocator@H@2@XZ ; std::vector<int,std::allocator<int> >::_Getal
PUBLIC	?_Getal@?$vector@HV?$allocator@H@std@@@std@@AEBAAEBV?$allocator@H@2@XZ ; std::vector<int,std::allocator<int> >::_Getal
PUBLIC	??0?$_Vector_val@U?$_Simple_types@H@std@@@std@@QEAA@XZ ; std::_Vector_val<std::_Simple_types<int> >::_Vector_val<std::_Simple_types<int> >
PUBLIC	?_Get_first@?$_Compressed_pair@V?$allocator@H@std@@V?$_Vector_val@U?$_Simple_types@H@std@@@2@$00@std@@QEAAAEAV?$allocator@H@2@XZ ; std::_Compressed_pair<std::allocator<int>,std::_Vector_val<std::_Simple_types<int> >,1>::_Get_first
PUBLIC	?_Get_first@?$_Compressed_pair@V?$allocator@H@std@@V?$_Vector_val@U?$_Simple_types@H@std@@@2@$00@std@@QEBAAEBV?$allocator@H@2@XZ ; std::_Compressed_pair<std::allocator<int>,std::_Vector_val<std::_Simple_types<int> >,1>::_Get_first
PUBLIC	??$mask@H@glm@@YAHH@Z				; glm::mask<int>
PUBLIC	?test_uint@mask@@YAHXZ				; mask::test_uint
PUBLIC	??$mask@I@glm@@YAII@Z				; glm::mask<unsigned int>
PUBLIC	?test_uvec4@mask@@YAHXZ				; mask::test_uvec4
PUBLIC	?length@?$tvec4@H$0A@@glm@@SAHXZ		; glm::tvec4<int,0>::length
PUBLIC	??A?$tvec4@H$0A@@glm@@QEBAAEBHH@Z		; glm::tvec4<int,0>::operator[]
PUBLIC	??0?$tvec4@H$0A@@glm@@QEAA@H@Z			; glm::tvec4<int,0>::tvec4<int,0>
PUBLIC	??0?$tvec4@H$0A@@glm@@QEAA@HHHH@Z		; glm::tvec4<int,0>::tvec4<int,0>
PUBLIC	??$mask@H$0A@Utvec4@glm@@@glm@@YA?AU?$tvec4@H$0A@@0@AEBU10@@Z ; glm::mask<int,0,glm::tvec4>
PUBLIC	??$equal@H$0A@Utvec4@glm@@@glm@@YA?AU?$tvec4@_N$0A@@0@AEBU?$tvec4@H$0A@@0@0@Z ; glm::equal<int,0,glm::tvec4>
PUBLIC	?length@?$tvec4@_N$0A@@glm@@SAHXZ		; glm::tvec4<bool,0>::length
PUBLIC	??A?$tvec4@_N$0A@@glm@@QEAAAEA_NH@Z		; glm::tvec4<bool,0>::operator[]
PUBLIC	??A?$tvec4@_N$0A@@glm@@QEBAAEB_NH@Z		; glm::tvec4<bool,0>::operator[]
PUBLIC	??0?$tvec4@_N$0A@@glm@@QEAA@W4ctor@1@@Z		; glm::tvec4<bool,0>::tvec4<bool,0>
PUBLIC	??$all@$0A@Utvec4@glm@@@glm@@YA_NAEBU?$tvec4@_N$0A@@0@@Z ; glm::all<0,glm::tvec4>
PUBLIC	?test@mask@@YAHXZ				; mask::test
PUBLIC	?test@bitfieldInterleave3@@YAHXZ		; bitfieldInterleave3::test
PUBLIC	??$refBitfieldInterleave@G_K@bitfieldInterleave3@@YA_KGGG@Z ; bitfieldInterleave3::refBitfieldInterleave<unsigned short,unsigned __int64>
PUBLIC	?test@bitfieldInterleave4@@YAHXZ		; bitfieldInterleave4::test
PUBLIC	??$loopBitfieldInterleave@G_K@bitfieldInterleave4@@YA_KGGGG@Z ; bitfieldInterleave4::loopBitfieldInterleave<unsigned short,unsigned __int64>
PUBLIC	?fastBitfieldInterleave@bitfieldInterleave@@YA_KII@Z ; bitfieldInterleave::fastBitfieldInterleave
PUBLIC	?interleaveBitfieldInterleave@bitfieldInterleave@@YA_KII@Z ; bitfieldInterleave::interleaveBitfieldInterleave
PUBLIC	?sseBitfieldInterleave@bitfieldInterleave@@YA_KII@Z ; bitfieldInterleave::sseBitfieldInterleave
PUBLIC	?sseUnalignedBitfieldInterleave@bitfieldInterleave@@YA_KII@Z ; bitfieldInterleave::sseUnalignedBitfieldInterleave
PUBLIC	?test@bitfieldInterleave@@YAHXZ			; bitfieldInterleave::test
PUBLIC	?perf@bitfieldInterleave@@YAHXZ			; bitfieldInterleave::perf
PUBLIC	??0?$allocator@_K@std@@QEAA@XZ			; std::allocator<unsigned __int64>::allocator<unsigned __int64>
PUBLIC	?deallocate@?$allocator@_K@std@@QEAAXQEA_K_K@Z	; std::allocator<unsigned __int64>::deallocate
PUBLIC	?allocate@?$allocator@_K@std@@QEAAPEA_K_K@Z	; std::allocator<unsigned __int64>::allocate
PUBLIC	?max_size@?$_Default_allocator_traits@V?$allocator@_K@std@@@std@@SA_KAEBV?$allocator@_K@2@@Z ; std::_Default_allocator_traits<std::allocator<unsigned __int64> >::max_size
PUBLIC	??0?$vector@_KV?$allocator@_K@std@@@std@@QEAA@_KAEBV?$allocator@_K@1@@Z ; std::vector<unsigned __int64,std::allocator<unsigned __int64> >::vector<unsigned __int64,std::allocator<unsigned __int64> >
PUBLIC	??1?$vector@_KV?$allocator@_K@std@@@std@@QEAA@XZ ; std::vector<unsigned __int64,std::allocator<unsigned __int64> >::~vector<unsigned __int64,std::allocator<unsigned __int64> >
PUBLIC	?size@?$vector@_KV?$allocator@_K@std@@@std@@QEBA_KXZ ; std::vector<unsigned __int64,std::allocator<unsigned __int64> >::size
PUBLIC	?max_size@?$vector@_KV?$allocator@_K@std@@@std@@QEBA_KXZ ; std::vector<unsigned __int64,std::allocator<unsigned __int64> >::max_size
PUBLIC	??A?$vector@_KV?$allocator@_K@std@@@std@@QEAAAEA_K_K@Z ; std::vector<unsigned __int64,std::allocator<unsigned __int64> >::operator[]
PUBLIC	?_Buy_raw@?$vector@_KV?$allocator@_K@std@@@std@@AEAAX_K@Z ; std::vector<unsigned __int64,std::allocator<unsigned __int64> >::_Buy_raw
PUBLIC	?_Buy_nonzero@?$vector@_KV?$allocator@_K@std@@@std@@AEAAX_K@Z ; std::vector<unsigned __int64,std::allocator<unsigned __int64> >::_Buy_nonzero
PUBLIC	?_Tidy@?$vector@_KV?$allocator@_K@std@@@std@@AEAAXXZ ; std::vector<unsigned __int64,std::allocator<unsigned __int64> >::_Tidy
PUBLIC	?_Xlength@?$vector@_KV?$allocator@_K@std@@@std@@CAXXZ ; std::vector<unsigned __int64,std::allocator<unsigned __int64> >::_Xlength
PUBLIC	?_Getal@?$vector@_KV?$allocator@_K@std@@@std@@AEAAAEAV?$allocator@_K@2@XZ ; std::vector<unsigned __int64,std::allocator<unsigned __int64> >::_Getal
PUBLIC	?_Getal@?$vector@_KV?$allocator@_K@std@@@std@@AEBAAEBV?$allocator@_K@2@XZ ; std::vector<unsigned __int64,std::allocator<unsigned __int64> >::_Getal
PUBLIC	??0?$_Vector_val@U?$_Simple_types@_K@std@@@std@@QEAA@XZ ; std::_Vector_val<std::_Simple_types<unsigned __int64> >::_Vector_val<std::_Simple_types<unsigned __int64> >
PUBLIC	?_Get_first@?$_Compressed_pair@V?$allocator@_K@std@@V?$_Vector_val@U?$_Simple_types@_K@std@@@2@$00@std@@QEAAAEAV?$allocator@_K@2@XZ ; std::_Compressed_pair<std::allocator<unsigned __int64>,std::_Vector_val<std::_Simple_types<unsigned __int64> >,1>::_Get_first
PUBLIC	?_Get_first@?$_Compressed_pair@V?$allocator@_K@std@@V?$_Vector_val@U?$_Simple_types@_K@std@@@2@$00@std@@QEBAAEBV?$allocator@_K@2@XZ ; std::_Compressed_pair<std::allocator<unsigned __int64>,std::_Vector_val<std::_Simple_types<unsigned __int64> >,1>::_Get_first
PUBLIC	??0?$allocator@U?$tvec2@I$0A@@glm@@@std@@QEAA@XZ ; std::allocator<glm::tvec2<unsigned int,0> >::allocator<glm::tvec2<unsigned int,0> >
PUBLIC	?deallocate@?$allocator@U?$tvec2@I$0A@@glm@@@std@@QEAAXQEAU?$tvec2@I$0A@@glm@@_K@Z ; std::allocator<glm::tvec2<unsigned int,0> >::deallocate
PUBLIC	?allocate@?$allocator@U?$tvec2@I$0A@@glm@@@std@@QEAAPEAU?$tvec2@I$0A@@glm@@_K@Z ; std::allocator<glm::tvec2<unsigned int,0> >::allocate
PUBLIC	?max_size@?$_Default_allocator_traits@V?$allocator@U?$tvec2@I$0A@@glm@@@std@@@std@@SA_KAEBV?$allocator@U?$tvec2@I$0A@@glm@@@2@@Z ; std::_Default_allocator_traits<std::allocator<glm::tvec2<unsigned int,0> > >::max_size
PUBLIC	??0?$vector@U?$tvec2@I$0A@@glm@@V?$allocator@U?$tvec2@I$0A@@glm@@@std@@@std@@QEAA@_KAEBV?$allocator@U?$tvec2@I$0A@@glm@@@1@@Z ; std::vector<glm::tvec2<unsigned int,0>,std::allocator<glm::tvec2<unsigned int,0> > >::vector<glm::tvec2<unsigned int,0>,std::allocator<glm::tvec2<unsigned int,0> > >
PUBLIC	??1?$vector@U?$tvec2@I$0A@@glm@@V?$allocator@U?$tvec2@I$0A@@glm@@@std@@@std@@QEAA@XZ ; std::vector<glm::tvec2<unsigned int,0>,std::allocator<glm::tvec2<unsigned int,0> > >::~vector<glm::tvec2<unsigned int,0>,std::allocator<glm::tvec2<unsigned int,0> > >
PUBLIC	?size@?$vector@U?$tvec2@I$0A@@glm@@V?$allocator@U?$tvec2@I$0A@@glm@@@std@@@std@@QEBA_KXZ ; std::vector<glm::tvec2<unsigned int,0>,std::allocator<glm::tvec2<unsigned int,0> > >::size
PUBLIC	?max_size@?$vector@U?$tvec2@I$0A@@glm@@V?$allocator@U?$tvec2@I$0A@@glm@@@std@@@std@@QEBA_KXZ ; std::vector<glm::tvec2<unsigned int,0>,std::allocator<glm::tvec2<unsigned int,0> > >::max_size
PUBLIC	??A?$vector@U?$tvec2@I$0A@@glm@@V?$allocator@U?$tvec2@I$0A@@glm@@@std@@@std@@QEAAAEAU?$tvec2@I$0A@@glm@@_K@Z ; std::vector<glm::tvec2<unsigned int,0>,std::allocator<glm::tvec2<unsigned int,0> > >::operator[]
PUBLIC	?_Buy_raw@?$vector@U?$tvec2@I$0A@@glm@@V?$allocator@U?$tvec2@I$0A@@glm@@@std@@@std@@AEAAX_K@Z ; std::vector<glm::tvec2<unsigned int,0>,std::allocator<glm::tvec2<unsigned int,0> > >::_Buy_raw
PUBLIC	?_Buy_nonzero@?$vector@U?$tvec2@I$0A@@glm@@V?$allocator@U?$tvec2@I$0A@@glm@@@std@@@std@@AEAAX_K@Z ; std::vector<glm::tvec2<unsigned int,0>,std::allocator<glm::tvec2<unsigned int,0> > >::_Buy_nonzero
PUBLIC	?_Tidy@?$vector@U?$tvec2@I$0A@@glm@@V?$allocator@U?$tvec2@I$0A@@glm@@@std@@@std@@AEAAXXZ ; std::vector<glm::tvec2<unsigned int,0>,std::allocator<glm::tvec2<unsigned int,0> > >::_Tidy
PUBLIC	?_Xlength@?$vector@U?$tvec2@I$0A@@glm@@V?$allocator@U?$tvec2@I$0A@@glm@@@std@@@std@@CAXXZ ; std::vector<glm::tvec2<unsigned int,0>,std::allocator<glm::tvec2<unsigned int,0> > >::_Xlength
PUBLIC	?_Getal@?$vector@U?$tvec2@I$0A@@glm@@V?$allocator@U?$tvec2@I$0A@@glm@@@std@@@std@@AEAAAEAV?$allocator@U?$tvec2@I$0A@@glm@@@2@XZ ; std::vector<glm::tvec2<unsigned int,0>,std::allocator<glm::tvec2<unsigned int,0> > >::_Getal
PUBLIC	?_Getal@?$vector@U?$tvec2@I$0A@@glm@@V?$allocator@U?$tvec2@I$0A@@glm@@@std@@@std@@AEBAAEBV?$allocator@U?$tvec2@I$0A@@glm@@@2@XZ ; std::vector<glm::tvec2<unsigned int,0>,std::allocator<glm::tvec2<unsigned int,0> > >::_Getal
PUBLIC	??0?$_Vector_val@U?$_Simple_types@U?$tvec2@I$0A@@glm@@@std@@@std@@QEAA@XZ ; std::_Vector_val<std::_Simple_types<glm::tvec2<unsigned int,0> > >::_Vector_val<std::_Simple_types<glm::tvec2<unsigned int,0> > >
PUBLIC	?_Get_first@?$_Compressed_pair@V?$allocator@U?$tvec2@I$0A@@glm@@@std@@V?$_Vector_val@U?$_Simple_types@U?$tvec2@I$0A@@glm@@@std@@@2@$00@std@@QEAAAEAV?$allocator@U?$tvec2@I$0A@@glm@@@2@XZ ; std::_Compressed_pair<std::allocator<glm::tvec2<unsigned int,0> >,std::_Vector_val<std::_Simple_types<glm::tvec2<unsigned int,0> > >,1>::_Get_first
PUBLIC	?_Get_first@?$_Compressed_pair@V?$allocator@U?$tvec2@I$0A@@glm@@@std@@V?$_Vector_val@U?$_Simple_types@U?$tvec2@I$0A@@glm@@@std@@@2@$00@std@@QEBAAEBV?$allocator@U?$tvec2@I$0A@@glm@@@2@XZ ; std::_Compressed_pair<std::allocator<glm::tvec2<unsigned int,0> >,std::_Vector_val<std::_Simple_types<glm::tvec2<unsigned int,0> > >,1>::_Get_first
PUBLIC	??0?$allocator@T__m128i@@@std@@QEAA@XZ		; std::allocator<__m128i>::allocator<__m128i>
PUBLIC	?deallocate@?$allocator@T__m128i@@@std@@QEAAXQEAT__m128i@@_K@Z ; std::allocator<__m128i>::deallocate
PUBLIC	?allocate@?$allocator@T__m128i@@@std@@QEAAPEAT__m128i@@_K@Z ; std::allocator<__m128i>::allocate
PUBLIC	?max_size@?$_Default_allocator_traits@V?$allocator@T__m128i@@@std@@@std@@SA_KAEBV?$allocator@T__m128i@@@2@@Z ; std::_Default_allocator_traits<std::allocator<__m128i> >::max_size
PUBLIC	??0?$vector@T__m128i@@V?$allocator@T__m128i@@@std@@@std@@QEAA@XZ ; std::vector<__m128i,std::allocator<__m128i> >::vector<__m128i,std::allocator<__m128i> >
PUBLIC	??1?$vector@T__m128i@@V?$allocator@T__m128i@@@std@@@std@@QEAA@XZ ; std::vector<__m128i,std::allocator<__m128i> >::~vector<__m128i,std::allocator<__m128i> >
PUBLIC	?resize@?$vector@T__m128i@@V?$allocator@T__m128i@@@std@@@std@@QEAAX_K@Z ; std::vector<__m128i,std::allocator<__m128i> >::resize
PUBLIC	?size@?$vector@T__m128i@@V?$allocator@T__m128i@@@std@@@std@@QEBA_KXZ ; std::vector<__m128i,std::allocator<__m128i> >::size
PUBLIC	?max_size@?$vector@T__m128i@@V?$allocator@T__m128i@@@std@@@std@@QEBA_KXZ ; std::vector<__m128i,std::allocator<__m128i> >::max_size
PUBLIC	?capacity@?$vector@T__m128i@@V?$allocator@T__m128i@@@std@@@std@@QEBA_KXZ ; std::vector<__m128i,std::allocator<__m128i> >::capacity
PUBLIC	??A?$vector@T__m128i@@V?$allocator@T__m128i@@@std@@@std@@QEAAAEAT__m128i@@_K@Z ; std::vector<__m128i,std::allocator<__m128i> >::operator[]
PUBLIC	?_Calculate_growth@?$vector@T__m128i@@V?$allocator@T__m128i@@@std@@@std@@AEBA_K_K@Z ; std::vector<__m128i,std::allocator<__m128i> >::_Calculate_growth
PUBLIC	?_Change_array@?$vector@T__m128i@@V?$allocator@T__m128i@@@std@@@std@@AEAAXQEAT__m128i@@_K1@Z ; std::vector<__m128i,std::allocator<__m128i> >::_Change_array
PUBLIC	?_Tidy@?$vector@T__m128i@@V?$allocator@T__m128i@@@std@@@std@@AEAAXXZ ; std::vector<__m128i,std::allocator<__m128i> >::_Tidy
PUBLIC	?_Xlength@?$vector@T__m128i@@V?$allocator@T__m128i@@@std@@@std@@CAXXZ ; std::vector<__m128i,std::allocator<__m128i> >::_Xlength
PUBLIC	?_Orphan_range_unlocked@?$vector@T__m128i@@V?$allocator@T__m128i@@@std@@@std@@AEBAXPEAT__m128i@@0@Z ; std::vector<__m128i,std::allocator<__m128i> >::_Orphan_range_unlocked
PUBLIC	?_Orphan_range_locked@?$vector@T__m128i@@V?$allocator@T__m128i@@@std@@@std@@AEBAXPEAT__m128i@@0@Z ; std::vector<__m128i,std::allocator<__m128i> >::_Orphan_range_locked
PUBLIC	?_Orphan_range@?$vector@T__m128i@@V?$allocator@T__m128i@@@std@@@std@@AEBAXPEAT__m128i@@0@Z ; std::vector<__m128i,std::allocator<__m128i> >::_Orphan_range
PUBLIC	?_Getal@?$vector@T__m128i@@V?$allocator@T__m128i@@@std@@@std@@AEAAAEAV?$allocator@T__m128i@@@2@XZ ; std::vector<__m128i,std::allocator<__m128i> >::_Getal
PUBLIC	?_Getal@?$vector@T__m128i@@V?$allocator@T__m128i@@@std@@@std@@AEBAAEBV?$allocator@T__m128i@@@2@XZ ; std::vector<__m128i,std::allocator<__m128i> >::_Getal
PUBLIC	??0?$_Vector_val@U?$_Simple_types@T__m128i@@@std@@@std@@QEAA@XZ ; std::_Vector_val<std::_Simple_types<__m128i> >::_Vector_val<std::_Simple_types<__m128i> >
PUBLIC	?_Get_first@?$_Compressed_pair@V?$allocator@T__m128i@@@std@@V?$_Vector_val@U?$_Simple_types@T__m128i@@@std@@@2@$00@std@@QEAAAEAV?$allocator@T__m128i@@@2@XZ ; std::_Compressed_pair<std::allocator<__m128i>,std::_Vector_val<std::_Simple_types<__m128i> >,1>::_Get_first
PUBLIC	?_Get_first@?$_Compressed_pair@V?$allocator@T__m128i@@@std@@V?$_Vector_val@U?$_Simple_types@T__m128i@@@std@@@2@$00@std@@QEBAAEBV?$allocator@T__m128i@@@2@XZ ; std::_Compressed_pair<std::allocator<__m128i>,std::_Vector_val<std::_Simple_types<__m128i> >,1>::_Get_first
PUBLIC	main
PUBLIC	??$_Resize@U_Value_init_tag@std@@@?$vector@T__m128i@@V?$allocator@T__m128i@@@std@@@std@@AEAAX_KAEBU_Value_init_tag@1@@Z ; std::vector<__m128i,std::allocator<__m128i> >::_Resize<std::_Value_init_tag>
PUBLIC	?allocate@?$allocator@U_Container_proxy@std@@@std@@QEAAPEAU_Container_proxy@2@_K@Z ; std::allocator<std::_Container_proxy>::allocate
PUBLIC	??$?0T__m128i@@@?$allocator@U_Container_proxy@std@@@std@@QEAA@AEBV?$allocator@T__m128i@@@1@@Z ; std::allocator<std::_Container_proxy>::allocator<std::_Container_proxy><__m128i>
PUBLIC	??$exchange@PEAU_Container_proxy@std@@$$T@std@@YAPEAU_Container_proxy@0@AEAPEAU10@$$QEA$$T@Z ; std::exchange<std::_Container_proxy *,std::nullptr_t>
PUBLIC	??$_Delete_plain_internal@V?$allocator@U_Container_proxy@std@@@std@@@std@@YAXAEAV?$allocator@U_Container_proxy@std@@@0@QEAU_Container_proxy@0@@Z ; std::_Delete_plain_internal<std::allocator<std::_Container_proxy> >
PUBLIC	??$?0$$V@?$_Compressed_pair@V?$allocator@T__m128i@@@std@@V?$_Vector_val@U?$_Simple_types@T__m128i@@@std@@@2@$00@std@@QEAA@U_Zero_then_variadic_args_t@1@@Z ; std::_Compressed_pair<std::allocator<__m128i>,std::_Vector_val<std::_Simple_types<__m128i> >,1>::_Compressed_pair<std::allocator<__m128i>,std::_Vector_val<std::_Simple_types<__m128i> >,1><>
PUBLIC	??$_Alloc_proxy@V?$allocator@U_Container_proxy@std@@@std@@@_Container_base12@std@@QEAAX$$QEAV?$allocator@U_Container_proxy@std@@@1@@Z ; std::_Container_base12::_Alloc_proxy<std::allocator<std::_Container_proxy> >
PUBLIC	??$?0U?$tvec2@I$0A@@glm@@@?$allocator@U_Container_proxy@std@@@std@@QEAA@AEBV?$allocator@U?$tvec2@I$0A@@glm@@@1@@Z ; std::allocator<std::_Container_proxy>::allocator<std::_Container_proxy><glm::tvec2<unsigned int,0> >
PUBLIC	??$?0AEBV?$allocator@U?$tvec2@I$0A@@glm@@@std@@$$V@?$_Compressed_pair@V?$allocator@U?$tvec2@I$0A@@glm@@@std@@V?$_Vector_val@U?$_Simple_types@U?$tvec2@I$0A@@glm@@@std@@@2@$00@std@@QEAA@U_One_then_variadic_args_t@1@AEBV?$allocator@U?$tvec2@I$0A@@glm@@@1@@Z ; std::_Compressed_pair<std::allocator<glm::tvec2<unsigned int,0> >,std::_Vector_val<std::_Simple_types<glm::tvec2<unsigned int,0> > >,1>::_Compressed_pair<std::allocator<glm::tvec2<unsigned int,0> >,std::_Vector_val<std::_Simple_types<glm::tvec2<unsigned int,0> > >,1><std::allocator<glm::tvec2<unsigned int,0> > const &>
PUBLIC	??$_Construct_n@$$V@?$vector@U?$tvec2@I$0A@@glm@@V?$allocator@U?$tvec2@I$0A@@glm@@@std@@@std@@AEAAX_K@Z ; std::vector<glm::tvec2<unsigned int,0>,std::allocator<glm::tvec2<unsigned int,0> > >::_Construct_n<>
PUBLIC	??$?0_K@?$allocator@U_Container_proxy@std@@@std@@QEAA@AEBV?$allocator@_K@1@@Z ; std::allocator<std::_Container_proxy>::allocator<std::_Container_proxy><unsigned __int64>
PUBLIC	??$?0AEBV?$allocator@_K@std@@$$V@?$_Compressed_pair@V?$allocator@_K@std@@V?$_Vector_val@U?$_Simple_types@_K@std@@@2@$00@std@@QEAA@U_One_then_variadic_args_t@1@AEBV?$allocator@_K@1@@Z ; std::_Compressed_pair<std::allocator<unsigned __int64>,std::_Vector_val<std::_Simple_types<unsigned __int64> >,1>::_Compressed_pair<std::allocator<unsigned __int64>,std::_Vector_val<std::_Simple_types<unsigned __int64> >,1><std::allocator<unsigned __int64> const &>
PUBLIC	??$_Construct_n@$$V@?$vector@_KV?$allocator@_K@std@@@std@@AEAAX_K@Z ; std::vector<unsigned __int64,std::allocator<unsigned __int64> >::_Construct_n<>
PUBLIC	??$_Resize@U_Value_init_tag@std@@@?$vector@HV?$allocator@H@std@@@std@@AEAAX_KAEBU_Value_init_tag@1@@Z ; std::vector<int,std::allocator<int> >::_Resize<std::_Value_init_tag>
PUBLIC	??$?0H@?$allocator@U_Container_proxy@std@@@std@@QEAA@AEBV?$allocator@H@1@@Z ; std::allocator<std::_Container_proxy>::allocator<std::_Container_proxy><int>
PUBLIC	??$?0$$V@?$_Compressed_pair@V?$allocator@H@std@@V?$_Vector_val@U?$_Simple_types@H@std@@@2@$00@std@@QEAA@U_Zero_then_variadic_args_t@1@@Z ; std::_Compressed_pair<std::allocator<int>,std::_Vector_val<std::_Simple_types<int> >,1>::_Compressed_pair<std::allocator<int>,std::_Vector_val<std::_Simple_types<int> >,1><>
PUBLIC	??$_Destroy_range@V?$allocator@T__m128i@@@std@@@std@@YAXPEAT__m128i@@QEAT1@AEAV?$allocator@T__m128i@@@0@@Z ; std::_Destroy_range<std::allocator<__m128i> >
PUBLIC	??$_Destroy_range@V?$allocator@U?$tvec2@I$0A@@glm@@@std@@@std@@YAXPEAU?$tvec2@I$0A@@glm@@QEAU12@AEAV?$allocator@U?$tvec2@I$0A@@glm@@@0@@Z ; std::_Destroy_range<std::allocator<glm::tvec2<unsigned int,0> > >
PUBLIC	??$_Destroy_range@V?$allocator@_K@std@@@std@@YAXPEA_KQEA_KAEAV?$allocator@_K@0@@Z ; std::_Destroy_range<std::allocator<unsigned __int64> >
PUBLIC	??$_Destroy_range@V?$allocator@H@std@@@std@@YAXPEAHQEAHAEAV?$allocator@H@0@@Z ; std::_Destroy_range<std::allocator<int> >
PUBLIC	??$_Deallocate@$0BA@$0A@@std@@YAXPEAX_K@Z	; std::_Deallocate<16,0>
PUBLIC	?call@?$functor1@HH$0A@Utvec4@glm@@@detail@glm@@SA?AU?$tvec4@H$0A@@3@P6AHH@ZAEBU43@@Z ; glm::detail::functor1<int,int,0,glm::tvec4>::call
PUBLIC	??$_Resize_reallocate@U_Value_init_tag@std@@@?$vector@T__m128i@@V?$allocator@T__m128i@@@std@@@std@@AEAAX_KAEBU_Value_init_tag@1@@Z ; std::vector<__m128i,std::allocator<__m128i> >::_Resize_reallocate<std::_Value_init_tag>
PUBLIC	??$_Uninitialized_value_construct_n@V?$allocator@T__m128i@@@std@@@std@@YAPEAT__m128i@@PEAT1@_KAEAV?$allocator@T__m128i@@@0@@Z ; std::_Uninitialized_value_construct_n<std::allocator<__m128i> >
PUBLIC	??$_Deallocate_plain@V?$allocator@U_Container_proxy@std@@@std@@@std@@YAXAEAV?$allocator@U_Container_proxy@std@@@0@QEAU_Container_proxy@0@@Z ; std::_Deallocate_plain<std::allocator<std::_Container_proxy> >
PUBLIC	??$_Unfancy@U_Container_proxy@std@@@std@@YAPEAU_Container_proxy@0@PEAU10@@Z ; std::_Unfancy<std::_Container_proxy>
PUBLIC	??$_Construct_in_place@U_Container_proxy@std@@PEAU_Container_base12@2@@std@@YAXAEAU_Container_proxy@0@$$QEAPEAU_Container_base12@0@@Z ; std::_Construct_in_place<std::_Container_proxy,std::_Container_base12 *>
PUBLIC	??$forward@AEBV?$allocator@U?$tvec2@I$0A@@glm@@@std@@@std@@YAAEBV?$allocator@U?$tvec2@I$0A@@glm@@@0@AEBV10@@Z ; std::forward<std::allocator<glm::tvec2<unsigned int,0> > const &>
PUBLIC	??0?$_Container_proxy_ptr12@V?$allocator@U_Container_proxy@std@@@std@@@std@@QEAA@AEAV?$allocator@U_Container_proxy@std@@@1@AEAU_Container_base12@1@@Z ; std::_Container_proxy_ptr12<std::allocator<std::_Container_proxy> >::_Container_proxy_ptr12<std::allocator<std::_Container_proxy> >
PUBLIC	??1?$_Container_proxy_ptr12@V?$allocator@U_Container_proxy@std@@@std@@@std@@QEAA@XZ ; std::_Container_proxy_ptr12<std::allocator<std::_Container_proxy> >::~_Container_proxy_ptr12<std::allocator<std::_Container_proxy> >
PUBLIC	??1?$_Tidy_guard@V?$vector@U?$tvec2@I$0A@@glm@@V?$allocator@U?$tvec2@I$0A@@glm@@@std@@@std@@@std@@QEAA@XZ ; std::_Tidy_guard<std::vector<glm::tvec2<unsigned int,0>,std::allocator<glm::tvec2<unsigned int,0> > > >::~_Tidy_guard<std::vector<glm::tvec2<unsigned int,0>,std::allocator<glm::tvec2<unsigned int,0> > > >
PUBLIC	??$_Uninitialized_value_construct_n@V?$allocator@U?$tvec2@I$0A@@glm@@@std@@@std@@YAPEAU?$tvec2@I$0A@@glm@@PEAU12@_KAEAV?$allocator@U?$tvec2@I$0A@@glm@@@0@@Z ; std::_Uninitialized_value_construct_n<std::allocator<glm::tvec2<unsigned int,0> > >
PUBLIC	??$forward@AEBV?$allocator@_K@std@@@std@@YAAEBV?$allocator@_K@0@AEBV10@@Z ; std::forward<std::allocator<unsigned __int64> const &>
PUBLIC	??1?$_Tidy_guard@V?$vector@_KV?$allocator@_K@std@@@std@@@std@@QEAA@XZ ; std::_Tidy_guard<std::vector<unsigned __int64,std::allocator<unsigned __int64> > >::~_Tidy_guard<std::vector<unsigned __int64,std::allocator<unsigned __int64> > >
PUBLIC	??$_Uninitialized_value_construct_n@V?$allocator@_K@std@@@std@@YAPEA_KPEA_K_KAEAV?$allocator@_K@0@@Z ; std::_Uninitialized_value_construct_n<std::allocator<unsigned __int64> >
PUBLIC	??$_Resize_reallocate@U_Value_init_tag@std@@@?$vector@HV?$allocator@H@std@@@std@@AEAAX_KAEBU_Value_init_tag@1@@Z ; std::vector<int,std::allocator<int> >::_Resize_reallocate<std::_Value_init_tag>
PUBLIC	??$_Uninitialized_value_construct_n@V?$allocator@H@std@@@std@@YAPEAHPEAH_KAEAV?$allocator@H@0@@Z ; std::_Uninitialized_value_construct_n<std::allocator<int> >
PUBLIC	??$addressof@U_Container_base12@std@@@std@@YAPEAU_Container_base12@0@AEAU10@@Z ; std::addressof<std::_Container_base12>
PUBLIC	??$_Get_size_of_n@$0BA@@std@@YA_K_K@Z		; std::_Get_size_of_n<16>
PUBLIC	??$_Allocate@$0BA@U_Default_allocate_traits@std@@$0A@@std@@YAPEAX_K@Z ; std::_Allocate<16,std::_Default_allocate_traits,0>
PUBLIC	??$min@_K@std@@YAAEB_KAEB_K0@Z			; std::min<unsigned __int64>
PUBLIC	??$_Get_size_of_n@$07@std@@YA_K_K@Z		; std::_Get_size_of_n<8>
PUBLIC	??$_Uninitialized_move@PEAT__m128i@@V?$allocator@T__m128i@@@std@@@std@@YAPEAT__m128i@@QEAT1@0PEAT1@AEAV?$allocator@T__m128i@@@0@@Z ; std::_Uninitialized_move<__m128i *,std::allocator<__m128i> >
PUBLIC	??0?$_Uninitialized_backout_al@V?$allocator@T__m128i@@@std@@@std@@QEAA@PEAT__m128i@@AEAV?$allocator@T__m128i@@@1@@Z ; std::_Uninitialized_backout_al<std::allocator<__m128i> >::_Uninitialized_backout_al<std::allocator<__m128i> >
PUBLIC	??1?$_Uninitialized_backout_al@V?$allocator@T__m128i@@@std@@@std@@QEAA@XZ ; std::_Uninitialized_backout_al<std::allocator<__m128i> >::~_Uninitialized_backout_al<std::allocator<__m128i> >
PUBLIC	?_Release@?$_Uninitialized_backout_al@V?$allocator@T__m128i@@@std@@@std@@QEAAPEAT__m128i@@XZ ; std::_Uninitialized_backout_al<std::allocator<__m128i> >::_Release
PUBLIC	??$_Emplace_back@$$V@?$_Uninitialized_backout_al@V?$allocator@T__m128i@@@std@@@std@@QEAAXXZ ; std::_Uninitialized_backout_al<std::allocator<__m128i> >::_Emplace_back<>
PUBLIC	?deallocate@?$_Default_allocator_traits@V?$allocator@U_Container_proxy@std@@@std@@@std@@SAXAEAV?$allocator@U_Container_proxy@std@@@2@QEAU_Container_proxy@2@_K@Z ; std::_Default_allocator_traits<std::allocator<std::_Container_proxy> >::deallocate
PUBLIC	??$addressof@U_Container_proxy@std@@@std@@YAPEAU_Container_proxy@0@AEAU10@@Z ; std::addressof<std::_Container_proxy>
PUBLIC	??$_Voidify_iter@PEAU_Container_proxy@std@@@std@@YAPEAXPEAU_Container_proxy@0@@Z ; std::_Voidify_iter<std::_Container_proxy *>
PUBLIC	??$forward@PEAU_Container_base12@std@@@std@@YA$$QEAPEAU_Container_base12@0@AEAPEAU10@@Z ; std::forward<std::_Container_base12 *>
PUBLIC	??0?$_Uninitialized_backout_al@V?$allocator@U?$tvec2@I$0A@@glm@@@std@@@std@@QEAA@PEAU?$tvec2@I$0A@@glm@@AEAV?$allocator@U?$tvec2@I$0A@@glm@@@1@@Z ; std::_Uninitialized_backout_al<std::allocator<glm::tvec2<unsigned int,0> > >::_Uninitialized_backout_al<std::allocator<glm::tvec2<unsigned int,0> > >
PUBLIC	??1?$_Uninitialized_backout_al@V?$allocator@U?$tvec2@I$0A@@glm@@@std@@@std@@QEAA@XZ ; std::_Uninitialized_backout_al<std::allocator<glm::tvec2<unsigned int,0> > >::~_Uninitialized_backout_al<std::allocator<glm::tvec2<unsigned int,0> > >
PUBLIC	?_Release@?$_Uninitialized_backout_al@V?$allocator@U?$tvec2@I$0A@@glm@@@std@@@std@@QEAAPEAU?$tvec2@I$0A@@glm@@XZ ; std::_Uninitialized_backout_al<std::allocator<glm::tvec2<unsigned int,0> > >::_Release
PUBLIC	??$_Emplace_back@$$V@?$_Uninitialized_backout_al@V?$allocator@U?$tvec2@I$0A@@glm@@@std@@@std@@QEAAXXZ ; std::_Uninitialized_backout_al<std::allocator<glm::tvec2<unsigned int,0> > >::_Emplace_back<>
PUBLIC	??$_Unfancy@_K@std@@YAPEA_KPEA_K@Z		; std::_Unfancy<unsigned __int64>
PUBLIC	??$_Zero_range@PEA_K@std@@YAPEA_KQEA_K0@Z	; std::_Zero_range<unsigned __int64 *>
PUBLIC	??0?$_Uninitialized_backout_al@V?$allocator@_K@std@@@std@@QEAA@PEA_KAEAV?$allocator@_K@1@@Z ; std::_Uninitialized_backout_al<std::allocator<unsigned __int64> >::_Uninitialized_backout_al<std::allocator<unsigned __int64> >
PUBLIC	??1?$_Uninitialized_backout_al@V?$allocator@_K@std@@@std@@QEAA@XZ ; std::_Uninitialized_backout_al<std::allocator<unsigned __int64> >::~_Uninitialized_backout_al<std::allocator<unsigned __int64> >
PUBLIC	?_Release@?$_Uninitialized_backout_al@V?$allocator@_K@std@@@std@@QEAAPEA_KXZ ; std::_Uninitialized_backout_al<std::allocator<unsigned __int64> >::_Release
PUBLIC	??$_Emplace_back@$$V@?$_Uninitialized_backout_al@V?$allocator@_K@std@@@std@@QEAAXXZ ; std::_Uninitialized_backout_al<std::allocator<unsigned __int64> >::_Emplace_back<>
PUBLIC	??$_Uninitialized_move@PEAHV?$allocator@H@std@@@std@@YAPEAHQEAH0PEAHAEAV?$allocator@H@0@@Z ; std::_Uninitialized_move<int *,std::allocator<int> >
PUBLIC	??$_Unfancy@H@std@@YAPEAHPEAH@Z			; std::_Unfancy<int>
PUBLIC	??$_Zero_range@PEAH@std@@YAPEAHQEAH0@Z		; std::_Zero_range<int *>
PUBLIC	??0?$_Uninitialized_backout_al@V?$allocator@H@std@@@std@@QEAA@PEAHAEAV?$allocator@H@1@@Z ; std::_Uninitialized_backout_al<std::allocator<int> >::_Uninitialized_backout_al<std::allocator<int> >
PUBLIC	??1?$_Uninitialized_backout_al@V?$allocator@H@std@@@std@@QEAA@XZ ; std::_Uninitialized_backout_al<std::allocator<int> >::~_Uninitialized_backout_al<std::allocator<int> >
PUBLIC	?_Release@?$_Uninitialized_backout_al@V?$allocator@H@std@@@std@@QEAAPEAHXZ ; std::_Uninitialized_backout_al<std::allocator<int> >::_Release
PUBLIC	??$_Emplace_back@$$V@?$_Uninitialized_backout_al@V?$allocator@H@std@@@std@@QEAAXXZ ; std::_Uninitialized_backout_al<std::allocator<int> >::_Emplace_back<>
PUBLIC	??$_Allocate_manually_vector_aligned@U_Default_allocate_traits@std@@@std@@YAPEAX_K@Z ; std::_Allocate_manually_vector_aligned<std::_Default_allocate_traits>
PUBLIC	??$_Get_size_of_n@$03@std@@YA_K_K@Z		; std::_Get_size_of_n<4>
PUBLIC	??$_Get_unwrapped@AEBQEAT__m128i@@@std@@YA?A_TAEBQEAT__m128i@@@Z ; std::_Get_unwrapped<__m128i * const &>
PUBLIC	??$move@AEAT__m128i@@@std@@YA$$QEAT__m128i@@AEAT1@@Z ; std::move<__m128i &>
PUBLIC	??$_Unfancy@T__m128i@@@std@@YAPEAT__m128i@@PEAT1@@Z ; std::_Unfancy<__m128i>
PUBLIC	??$_Copy_memmove@PEAT__m128i@@PEAT1@@std@@YAPEAT__m128i@@PEAT1@00@Z ; std::_Copy_memmove<__m128i *,__m128i *>
PUBLIC	??$_Emplace_back@T__m128i@@@?$_Uninitialized_backout_al@V?$allocator@T__m128i@@@std@@@std@@QEAAX$$QEAT__m128i@@@Z ; std::_Uninitialized_backout_al<std::allocator<__m128i> >::_Emplace_back<__m128i>
PUBLIC	??$construct@T__m128i@@$$V@?$_Default_allocator_traits@V?$allocator@T__m128i@@@std@@@std@@SAXAEAV?$allocator@T__m128i@@@1@QEAT__m128i@@@Z ; std::_Default_allocator_traits<std::allocator<__m128i> >::construct<__m128i>
PUBLIC	??$_Unfancy@U?$tvec2@I$0A@@glm@@@std@@YAPEAU?$tvec2@I$0A@@glm@@PEAU12@@Z ; std::_Unfancy<glm::tvec2<unsigned int,0> >
PUBLIC	??$construct@U?$tvec2@I$0A@@glm@@$$V@?$_Default_allocator_traits@V?$allocator@U?$tvec2@I$0A@@glm@@@std@@@std@@SAXAEAV?$allocator@U?$tvec2@I$0A@@glm@@@1@QEAU?$tvec2@I$0A@@glm@@@Z ; std::_Default_allocator_traits<std::allocator<glm::tvec2<unsigned int,0> > >::construct<glm::tvec2<unsigned int,0> >
PUBLIC	??$_To_address@PEA_K@std@@YA?A_PAEBQEA_K@Z	; std::_To_address<unsigned __int64 *>
PUBLIC	??$construct@_K$$V@?$_Default_allocator_traits@V?$allocator@_K@std@@@std@@SAXAEAV?$allocator@_K@1@QEA_K@Z ; std::_Default_allocator_traits<std::allocator<unsigned __int64> >::construct<unsigned __int64>
PUBLIC	??$_Get_unwrapped@AEBQEAH@std@@YA?A_TAEBQEAH@Z	; std::_Get_unwrapped<int * const &>
PUBLIC	??$move@AEAH@std@@YA$$QEAHAEAH@Z		; std::move<int &>
PUBLIC	??$_Copy_memmove@PEAHPEAH@std@@YAPEAHPEAH00@Z	; std::_Copy_memmove<int *,int *>
PUBLIC	??$_Emplace_back@H@?$_Uninitialized_backout_al@V?$allocator@H@std@@@std@@QEAAX$$QEAH@Z ; std::_Uninitialized_backout_al<std::allocator<int> >::_Emplace_back<int>
PUBLIC	??$_To_address@PEAH@std@@YA?A_PAEBQEAH@Z	; std::_To_address<int *>
PUBLIC	??$construct@H$$V@?$_Default_allocator_traits@V?$allocator@H@std@@@std@@SAXAEAV?$allocator@H@1@QEAH@Z ; std::_Default_allocator_traits<std::allocator<int> >::construct<int>
PUBLIC	??$_To_address@PEAT__m128i@@@std@@YA?A_PAEBQEAT__m128i@@@Z ; std::_To_address<__m128i *>
PUBLIC	??$forward@T__m128i@@@std@@YA$$QEAT__m128i@@AEAT1@@Z ; std::forward<__m128i>
PUBLIC	??$construct@T__m128i@@T1@@?$_Default_allocator_traits@V?$allocator@T__m128i@@@std@@@std@@SAXAEAV?$allocator@T__m128i@@@1@QEAT__m128i@@$$QEAT3@@Z ; std::_Default_allocator_traits<std::allocator<__m128i> >::construct<__m128i,__m128i>
PUBLIC	??$_Voidify_iter@PEAT__m128i@@@std@@YAPEAXPEAT__m128i@@@Z ; std::_Voidify_iter<__m128i *>
PUBLIC	??$_Voidify_iter@PEAU?$tvec2@I$0A@@glm@@@std@@YAPEAXPEAU?$tvec2@I$0A@@glm@@@Z ; std::_Voidify_iter<glm::tvec2<unsigned int,0> *>
PUBLIC	??$_Voidify_iter@PEA_K@std@@YAPEAXPEA_K@Z	; std::_Voidify_iter<unsigned __int64 *>
PUBLIC	??$forward@H@std@@YA$$QEAHAEAH@Z		; std::forward<int>
PUBLIC	??$construct@HH@?$_Default_allocator_traits@V?$allocator@H@std@@@std@@SAXAEAV?$allocator@H@1@QEAH$$QEAH@Z ; std::_Default_allocator_traits<std::allocator<int> >::construct<int,int>
PUBLIC	??$_Voidify_iter@PEAH@std@@YAPEAXPEAH@Z		; std::_Voidify_iter<int *>
PUBLIC	?_OptionsStorage@?1??__local_stdio_printf_options@@9@4_KA ; `__local_stdio_printf_options'::`2'::_OptionsStorage
PUBLIC	??_7exception@std@@6B@				; std::exception::`vftable'
PUBLIC	??_C@_0BC@EOODALEL@Unknown?5exception@		; `string'
PUBLIC	??_7bad_alloc@std@@6B@				; std::bad_alloc::`vftable'
PUBLIC	??_7bad_array_new_length@std@@6B@		; std::bad_array_new_length::`vftable'
PUBLIC	??_C@_0BF@KINCDENJ@bad?5array?5new?5length@	; `string'
PUBLIC	_TI3?AVbad_array_new_length@std@@
PUBLIC	_CTA3?AVbad_array_new_length@std@@
PUBLIC	??_R0?AVbad_array_new_length@std@@@8		; std::bad_array_new_length `RTTI Type Descriptor'
PUBLIC	_CT??_R0?AVbad_array_new_length@std@@@8??0bad_array_new_length@std@@QEAA@AEBV01@@Z24
PUBLIC	??_R0?AVbad_alloc@std@@@8			; std::bad_alloc `RTTI Type Descriptor'
PUBLIC	_CT??_R0?AVbad_alloc@std@@@8??0bad_alloc@std@@QEAA@AEBV01@@Z24
PUBLIC	??_R0?AVexception@std@@@8			; std::exception `RTTI Type Descriptor'
PUBLIC	_CT??_R0?AVexception@std@@@8??0exception@std@@QEAA@AEBV01@@Z24
PUBLIC	??_C@_0BB@FCMFBGOM@invalid?5argument@		; `string'
PUBLIC	??_C@_02DKCKIIND@?$CFs@				; `string'
PUBLIC	??_C@_0GC@DJFHHHKN@C?3?2Program?5Files?2Microsoft?5Visu@ ; `string'
PUBLIC	??_C@_1ME@GEFGDEOM@?$AAC?$AA?3?$AA?2?$AAP?$AAr?$AAo?$AAg?$AAr?$AAa?$AAm?$AA?5?$AAF?$AAi?$AAl?$AAe@ ; `string'
PUBLIC	??_C@_11LOCGONAA@@				; `string'
PUBLIC	??_C@_1CG@JNLFBNGN@?$AA?$CC?$AAi?$AAn?$AAv?$AAa?$AAl?$AAi?$AAd?$AA?5?$AAa?$AAr?$AAg?$AAu?$AAm?$AAe@ ; `string'
PUBLIC	??_C@_0BO@PFKOHNJC@vector?5subscript?5out?5of?5range@ ; `string'
PUBLIC	??_C@_0GB@GDCALCPO@C?3?2Program?5Files?2Microsoft?5Visu@ ; `string'
PUBLIC	??_C@_1MC@BJDJHFOD@?$AAC?$AA?3?$AA?2?$AAP?$AAr?$AAo?$AAg?$AAr?$AAa?$AAm?$AA?5?$AAF?$AAi?$AAl?$AAe@ ; `string'
PUBLIC	??_C@_1EA@LEKOKFNB@?$AA?$CC?$AAv?$AAe?$AAc?$AAt?$AAo?$AAr?$AA?5?$AAs?$AAu?$AAb?$AAs?$AAc?$AAr?$AAi@ ; `string'
PUBLIC	??_C@_0DG@KGHKKGBC@null?5pointer?5cannot?5point?5to?5a?5@ ; `string'
PUBLIC	??_C@_1HA@FACCKGGH@?$AA?$CC?$AAn?$AAu?$AAl?$AAl?$AA?5?$AAp?$AAo?$AAi?$AAn?$AAt?$AAe?$AAr?$AA?5?$AAc@ ; `string'
PUBLIC	??_C@_1DK@BGNCJAPL@?$AAi?$AA?5?$AA?$DO?$AA?$DN?$AA?5?$AA0?$AA?5?$AA?$CG?$AA?$CG?$AA?5?$AAi?$AA?5?$AA?$DM?$AA?5?$AAt@ ; `string'
PUBLIC	??_C@_1LG@LAANPDHN@?$AAC?$AA?3?$AA?2?$AAU?$AAs?$AAe?$AAr?$AAs?$AA?2?$AAk?$AAs?$AAa?$AAr?$AAt?$AA?2@ ; `string'
PUBLIC	??_C@_1NA@OPABFNEN@?$AAC?$AA?3?$AA?2?$AAU?$AAs?$AAe?$AAr?$AAs?$AA?2?$AAk?$AAs?$AAa?$AAr?$AAt?$AA?2@ ; `string'
PUBLIC	??_C@_1DC@HHLCGOLC@?$AAx?$AA?4?$AAl?$AAe?$AAn?$AAg?$AAt?$AAh?$AA?$CI?$AA?$CJ?$AA?5?$AA?$DN?$AA?$DN?$AA?5?$AAy@ ; `string'
PUBLIC	??_C@_0BA@FOIKENOD@vector?5too?5long@		; `string'
PUBLIC	??_R4exception@std@@6B@				; std::exception::`RTTI Complete Object Locator'
PUBLIC	??_R3exception@std@@8				; std::exception::`RTTI Class Hierarchy Descriptor'
PUBLIC	??_R2exception@std@@8				; std::exception::`RTTI Base Class Array'
PUBLIC	??_R1A@?0A@EA@exception@std@@8			; std::exception::`RTTI Base Class Descriptor at (0,-1,0,64)'
PUBLIC	??_R4bad_alloc@std@@6B@				; std::bad_alloc::`RTTI Complete Object Locator'
PUBLIC	??_R3bad_alloc@std@@8				; std::bad_alloc::`RTTI Class Hierarchy Descriptor'
PUBLIC	??_R2bad_alloc@std@@8				; std::bad_alloc::`RTTI Base Class Array'
PUBLIC	??_R1A@?0A@EA@bad_alloc@std@@8			; std::bad_alloc::`RTTI Base Class Descriptor at (0,-1,0,64)'
PUBLIC	??_R4bad_array_new_length@std@@6B@		; std::bad_array_new_length::`RTTI Complete Object Locator'
PUBLIC	??_R3bad_array_new_length@std@@8		; std::bad_array_new_length::`RTTI Class Hierarchy Descriptor'
PUBLIC	??_R2bad_array_new_length@std@@8		; std::bad_array_new_length::`RTTI Base Class Array'
PUBLIC	??_R1A@?0A@EA@bad_array_new_length@std@@8	; std::bad_array_new_length::`RTTI Base Class Descriptor at (0,-1,0,64)'
PUBLIC	__xmm@00000000000000000000000000000000
PUBLIC	__xmm@0000ffff0000ffff0000ffff0000ffff
PUBLIC	__xmm@00ff00ff00ff00ff00ff00ff00ff00ff
PUBLIC	__xmm@0f0f0f0f0f0f0f0f0f0f0f0f0f0f0f0f
PUBLIC	__xmm@33333333333333333333333333333333
PUBLIC	__xmm@55555555555555555555555555555555
EXTRN	??2@YAPEAX_K@Z:PROC				; operator new
EXTRN	??3@YAXPEAX_K@Z:PROC				; operator delete
EXTRN	__imp__invalid_parameter:PROC
EXTRN	__imp__wassert:PROC
EXTRN	__imp___acrt_iob_func:PROC
EXTRN	__imp___stdio_common_vfprintf:PROC
EXTRN	memmove:PROC
EXTRN	memset:PROC
EXTRN	__imp__CrtDbgReport:PROC
EXTRN	__imp_??0_Lockit@std@@QEAA@H@Z:PROC
EXTRN	__imp_??1_Lockit@std@@QEAA@XZ:PROC
EXTRN	__imp_clock:PROC
EXTRN	__std_exception_copy:PROC
EXTRN	__std_exception_destroy:PROC
EXTRN	??_Eexception@std@@UEAAPEAXI@Z:PROC		; std::exception::`vector deleting destructor'
EXTRN	??_Ebad_alloc@std@@UEAAPEAXI@Z:PROC		; std::bad_alloc::`vector deleting destructor'
EXTRN	??_Ebad_array_new_length@std@@UEAAPEAXI@Z:PROC	; std::bad_array_new_length::`vector deleting destructor'
EXTRN	?_Xlength_error@std@@YAXPEBD@Z:PROC		; std::_Xlength_error
EXTRN	_CxxThrowException:PROC
EXTRN	_RTC_CheckStackVars:PROC
EXTRN	_RTC_InitBase:PROC
EXTRN	_RTC_Shutdown:PROC
EXTRN	__CxxFrameHandler4:PROC
EXTRN	__GSHandlerCheck:PROC
EXTRN	__security_check_cookie:PROC
EXTRN	??_7type_info@@6B@:BYTE				; type_info::`vftable'
EXTRN	__security_cookie:QWORD
;	COMDAT ?_OptionsStorage@?1??__local_stdio_printf_options@@9@4_KA
_BSS	SEGMENT
?_OptionsStorage@?1??__local_stdio_printf_options@@9@4_KA DQ 01H DUP (?) ; `__local_stdio_printf_options'::`2'::_OptionsStorage
_BSS	ENDS
;	COMDAT pdata
pdata	SEGMENT
$pdata$__local_stdio_printf_options DD imagerel $LN3
	DD	imagerel $LN3+11
	DD	imagerel $unwind$__local_stdio_printf_options
pdata	ENDS
;	COMDAT pdata
pdata	SEGMENT
$pdata$_vfprintf_l DD imagerel $LN3
	DD	imagerel $LN3+70
	DD	imagerel $unwind$_vfprintf_l
pdata	ENDS
;	COMDAT pdata
pdata	SEGMENT
$pdata$printf DD imagerel $LN3
	DD	imagerel $LN3+131
	DD	imagerel $unwind$printf
pdata	ENDS
;	COMDAT pdata
pdata	SEGMENT
$pdata$?max@?$numeric_limits@_J@std@@SA_JXZ DD imagerel $LN3
	DD	imagerel $LN3+14
	DD	imagerel $unwind$?max@?$numeric_limits@_J@std@@SA_JXZ
pdata	ENDS
;	COMDAT pdata
pdata	SEGMENT
$pdata$?bitfieldInterleave@glm@@YAFCC@Z DD imagerel $LN3
	DD	imagerel $LN3+118
	DD	imagerel $unwind$?bitfieldInterleave@glm@@YAFCC@Z
pdata	ENDS
;	COMDAT pdata
pdata	SEGMENT
$pdata$?bitfieldInterleave@glm@@YAGEE@Z DD imagerel $LN3
	DD	imagerel $LN3+34
	DD	imagerel $unwind$?bitfieldInterleave@glm@@YAGEE@Z
pdata	ENDS
;	COMDAT pdata
pdata	SEGMENT
$pdata$?bitfieldInterleave@glm@@YAHFF@Z DD imagerel $LN3
	DD	imagerel $LN3+120
	DD	imagerel $unwind$?bitfieldInterleave@glm@@YAHFF@Z
pdata	ENDS
;	COMDAT pdata
pdata	SEGMENT
$pdata$?bitfieldInterleave@glm@@YAIGG@Z DD imagerel $LN3
	DD	imagerel $LN3+36
	DD	imagerel $unwind$?bitfieldInterleave@glm@@YAIGG@Z
pdata	ENDS
;	COMDAT pdata
pdata	SEGMENT
$pdata$?bitfieldInterleave@glm@@YA_JHH@Z DD imagerel $LN3
	DD	imagerel $LN3+115
	DD	imagerel $unwind$?bitfieldInterleave@glm@@YA_JHH@Z
pdata	ENDS
;	COMDAT pdata
pdata	SEGMENT
$pdata$?bitfieldInterleave@glm@@YA_KII@Z DD imagerel $LN3
	DD	imagerel $LN3+32
	DD	imagerel $unwind$?bitfieldInterleave@glm@@YA_KII@Z
pdata	ENDS
;	COMDAT pdata
pdata	SEGMENT
$pdata$?bitfieldInterleave@glm@@YA_KGGG@Z DD imagerel $LN3
	DD	imagerel $LN3+62
	DD	imagerel $unwind$?bitfieldInterleave@glm@@YA_KGGG@Z
pdata	ENDS
;	COMDAT pdata
pdata	SEGMENT
$pdata$?bitfieldInterleave@glm@@YA_KIII@Z DD imagerel $LN3
	DD	imagerel $LN3+42
	DD	imagerel $unwind$?bitfieldInterleave@glm@@YA_KIII@Z
pdata	ENDS
;	COMDAT pdata
pdata	SEGMENT
$pdata$?bitfieldInterleave@glm@@YA_KGGGG@Z DD imagerel $LN3
	DD	imagerel $LN3+60
	DD	imagerel $unwind$?bitfieldInterleave@glm@@YA_KGGGG@Z
pdata	ENDS
;	COMDAT pdata
pdata	SEGMENT
$pdata$?glm_i128_interleave@@YA?AT__m128i@@T1@@Z DD imagerel $LN3
	DD	imagerel $LN3+967
	DD	imagerel $unwind$?glm_i128_interleave@@YA?AT__m128i@@T1@@Z
pdata	ENDS
;	COMDAT pdata
pdata	SEGMENT
$pdata$??$bitfieldInterleave@EG@detail@glm@@YAGEE@Z DD imagerel $LN3
	DD	imagerel $LN3+190
	DD	imagerel $unwind$??$bitfieldInterleave@EG@detail@glm@@YAGEE@Z
pdata	ENDS
;	COMDAT pdata
pdata	SEGMENT
$pdata$??$bitfieldInterleave@GI@detail@glm@@YAIGG@Z DD imagerel $LN3
	DD	imagerel $LN3+197
	DD	imagerel $unwind$??$bitfieldInterleave@GI@detail@glm@@YAIGG@Z
pdata	ENDS
;	COMDAT pdata
pdata	SEGMENT
$pdata$??$bitfieldInterleave@I_K@detail@glm@@YA_KII@Z DD imagerel $LN3
	DD	imagerel $LN3+357
	DD	imagerel $unwind$??$bitfieldInterleave@I_K@detail@glm@@YA_KII@Z
pdata	ENDS
;	COMDAT pdata
pdata	SEGMENT
$pdata$??$bitfieldInterleave@I_K@detail@glm@@YA_KIII@Z DD imagerel $LN3
	DD	imagerel $LN3+545
	DD	imagerel $unwind$??$bitfieldInterleave@I_K@detail@glm@@YA_KIII@Z
pdata	ENDS
;	COMDAT pdata
pdata	SEGMENT
$pdata$??$bitfieldInterleave@G_K@detail@glm@@YA_KGGGG@Z DD imagerel $LN3
	DD	imagerel $LN3+614
	DD	imagerel $unwind$??$bitfieldInterleave@G_K@detail@glm@@YA_KGGGG@Z
pdata	ENDS
;	COMDAT pdata
pdata	SEGMENT
$pdata$??2@YAPEAX_KPEAX@Z DD imagerel $LN3
	DD	imagerel $LN3+18
	DD	imagerel $unwind$??2@YAPEAX_KPEAX@Z
pdata	ENDS
;	COMDAT pdata
pdata	SEGMENT
$pdata$??0?$tvec2@I$0A@@glm@@QEAA@XZ DD imagerel $LN3
	DD	imagerel $LN3+36
	DD	imagerel $unwind$??0?$tvec2@I$0A@@glm@@QEAA@XZ
pdata	ENDS
;	COMDAT pdata
pdata	SEGMENT
$pdata$??0?$tvec2@I$0A@@glm@@QEAA@II@Z DD imagerel $LN3
	DD	imagerel $LN3+45
	DD	imagerel $unwind$??0?$tvec2@I$0A@@glm@@QEAA@II@Z
pdata	ENDS
;	COMDAT pdata
pdata	SEGMENT
$pdata$??0exception@std@@QEAA@QEBDH@Z DD imagerel $LN3
	DD	imagerel $LN3+73
	DD	imagerel $unwind$??0exception@std@@QEAA@QEBDH@Z
pdata	ENDS
;	COMDAT pdata
pdata	SEGMENT
$pdata$??0exception@std@@QEAA@AEBV01@@Z DD imagerel $LN3
	DD	imagerel $LN3+88
	DD	imagerel $unwind$??0exception@std@@QEAA@AEBV01@@Z
pdata	ENDS
;	COMDAT pdata
pdata	SEGMENT
$pdata$??1exception@std@@UEAA@XZ DD imagerel $LN3
	DD	imagerel $LN3+48
	DD	imagerel $unwind$??1exception@std@@UEAA@XZ
pdata	ENDS
;	COMDAT pdata
pdata	SEGMENT
$pdata$?what@exception@std@@UEBAPEBDXZ DD imagerel $LN5
	DD	imagerel $LN5+58
	DD	imagerel $unwind$?what@exception@std@@UEBAPEBDXZ
pdata	ENDS
;	COMDAT pdata
pdata	SEGMENT
$pdata$??_Gexception@std@@UEAAPEAXI@Z DD imagerel $LN4
	DD	imagerel $LN4+61
	DD	imagerel $unwind$??_Gexception@std@@UEAAPEAXI@Z
pdata	ENDS
;	COMDAT pdata
pdata	SEGMENT
$pdata$??0bad_alloc@std@@AEAA@QEBD@Z DD imagerel $LN3
	DD	imagerel $LN3+62
	DD	imagerel $unwind$??0bad_alloc@std@@AEAA@QEBD@Z
pdata	ENDS
;	COMDAT pdata
pdata	SEGMENT
$pdata$??1bad_alloc@std@@UEAA@XZ DD imagerel $LN3
	DD	imagerel $LN3+26
	DD	imagerel $unwind$??1bad_alloc@std@@UEAA@XZ
pdata	ENDS
;	COMDAT pdata
pdata	SEGMENT
$pdata$??0bad_alloc@std@@QEAA@AEBV01@@Z DD imagerel $LN3
	DD	imagerel $LN3+56
	DD	imagerel $unwind$??0bad_alloc@std@@QEAA@AEBV01@@Z
pdata	ENDS
;	COMDAT pdata
pdata	SEGMENT
$pdata$??_Gbad_alloc@std@@UEAAPEAXI@Z DD imagerel $LN4
	DD	imagerel $LN4+61
	DD	imagerel $unwind$??_Gbad_alloc@std@@UEAAPEAXI@Z
pdata	ENDS
;	COMDAT pdata
pdata	SEGMENT
$pdata$??0bad_array_new_length@std@@QEAA@XZ DD imagerel $LN3
	DD	imagerel $LN3+53
	DD	imagerel $unwind$??0bad_array_new_length@std@@QEAA@XZ
pdata	ENDS
;	COMDAT pdata
pdata	SEGMENT
$pdata$??1bad_array_new_length@std@@UEAA@XZ DD imagerel $LN3
	DD	imagerel $LN3+26
	DD	imagerel $unwind$??1bad_array_new_length@std@@UEAA@XZ
pdata	ENDS
;	COMDAT pdata
pdata	SEGMENT
$pdata$??0bad_array_new_length@std@@QEAA@AEBV01@@Z DD imagerel $LN3
	DD	imagerel $LN3+56
	DD	imagerel $unwind$??0bad_array_new_length@std@@QEAA@AEBV01@@Z
pdata	ENDS
;	COMDAT pdata
pdata	SEGMENT
$pdata$??_Gbad_array_new_length@std@@UEAAPEAXI@Z DD imagerel $LN4
	DD	imagerel $LN4+61
	DD	imagerel $unwind$??_Gbad_array_new_length@std@@UEAAPEAXI@Z
pdata	ENDS
;	COMDAT pdata
pdata	SEGMENT
$pdata$?_Throw_bad_array_new_length@std@@YAXXZ DD imagerel $LN3
	DD	imagerel $LN3+39
	DD	imagerel $unwind$?_Throw_bad_array_new_length@std@@YAXXZ
pdata	ENDS
;	COMDAT pdata
pdata	SEGMENT
$pdata$?_Allocate@_Default_allocate_traits@std@@SAPEAX_K@Z DD imagerel $LN3
	DD	imagerel $LN3+26
	DD	imagerel $unwind$?_Allocate@_Default_allocate_traits@std@@SAPEAX_K@Z
pdata	ENDS
;	COMDAT pdata
pdata	SEGMENT
$pdata$?_Adjust_manually_vector_aligned@std@@YAXAEAPEAXAEA_K@Z DD imagerel $LN21
	DD	imagerel $LN21+404
	DD	imagerel $unwind$?_Adjust_manually_vector_aligned@std@@YAXAEAPEAXAEA_K@Z
pdata	ENDS
;	COMDAT pdata
pdata	SEGMENT
$pdata$??0_Container_proxy@std@@QEAA@PEAU_Container_base12@1@@Z DD imagerel $LN3
	DD	imagerel $LN3+44
	DD	imagerel $unwind$??0_Container_proxy@std@@QEAA@PEAU_Container_base12@1@@Z
pdata	ENDS
;	COMDAT pdata
pdata	SEGMENT
$pdata$??0_Container_base12@std@@QEAA@XZ DD imagerel $LN3
	DD	imagerel $LN3+25
	DD	imagerel $unwind$??0_Container_base12@std@@QEAA@XZ
pdata	ENDS
;	COMDAT pdata
pdata	SEGMENT
$pdata$?_Orphan_all@_Container_base12@std@@QEAAXXZ DD imagerel $LN3
	DD	imagerel $LN3+26
	DD	imagerel $unwind$?_Orphan_all@_Container_base12@std@@QEAAXXZ
pdata	ENDS
;	COMDAT pdata
pdata	SEGMENT
$pdata$?_Orphan_all_unlocked_v3@_Container_base12@std@@AEAAXXZ DD imagerel $LN7
	DD	imagerel $LN7+107
	DD	imagerel $unwind$?_Orphan_all_unlocked_v3@_Container_base12@std@@AEAAXXZ
pdata	ENDS
;	COMDAT pdata
pdata	SEGMENT
$pdata$?_Orphan_all_locked_v3@_Container_base12@std@@AEAAXXZ DD imagerel $LN3
	DD	imagerel $LN3+90
	DD	imagerel $unwind$?_Orphan_all_locked_v3@_Container_base12@std@@AEAAXXZ
pdata	ENDS
;	COMDAT pdata
pdata	SEGMENT
$pdata$?_Release@_Basic_container_proxy_ptr12@std@@QEAAXXZ DD imagerel $LN3
	DD	imagerel $LN3+20
	DD	imagerel $unwind$?_Release@_Basic_container_proxy_ptr12@std@@QEAAXXZ
pdata	ENDS
;	COMDAT pdata
pdata	SEGMENT
$pdata$??0_Basic_container_proxy_ptr12@std@@IEAA@XZ DD imagerel $LN3
	DD	imagerel $LN3+25
	DD	imagerel $unwind$??0_Basic_container_proxy_ptr12@std@@IEAA@XZ
pdata	ENDS
;	COMDAT pdata
pdata	SEGMENT
$pdata$?mask_zero@mask@@YAHH@Z DD imagerel $LN3
	DD	imagerel $LN3+37
	DD	imagerel $unwind$?mask_zero@mask@@YAHH@Z
pdata	ENDS
;	COMDAT pdata
pdata	SEGMENT
$pdata$?mask_mix@mask@@YAHH@Z DD imagerel $LN5
	DD	imagerel $LN5+65
	DD	imagerel $unwind$?mask_mix@mask@@YAHH@Z
pdata	ENDS
;	COMDAT pdata
pdata	SEGMENT
$pdata$?mask_half@mask@@YAHH@Z DD imagerel $LN3
	DD	imagerel $LN3+95
	DD	imagerel $unwind$?mask_half@mask@@YAHH@Z
pdata	ENDS
;	COMDAT pdata
pdata	SEGMENT
$pdata$?mask_loop@mask@@YAHH@Z DD imagerel $LN6
	DD	imagerel $LN6+89
	DD	imagerel $unwind$?mask_loop@mask@@YAHH@Z
pdata	ENDS
pdata	SEGMENT
$pdata$?perf@mask@@YAHXZ DD imagerel $LN25
	DD	imagerel $LN25+1120
	DD	imagerel $unwind$?perf@mask@@YAHXZ
pdata	ENDS
pdata	SEGMENT
$pdata$?dtor$0@?0??perf@mask@@YAHXZ@4HA DD imagerel ?dtor$0@?0??perf@mask@@YAHXZ@4HA
	DD	imagerel ?dtor$0@?0??perf@mask@@YAHXZ@4HA+35
	DD	imagerel $unwind$?dtor$0@?0??perf@mask@@YAHXZ@4HA
$pdata$?dtor$1@?0??perf@mask@@YAHXZ@4HA DD imagerel ?dtor$1@?0??perf@mask@@YAHXZ@4HA
	DD	imagerel ?dtor$1@?0??perf@mask@@YAHXZ@4HA+35
	DD	imagerel $unwind$?dtor$1@?0??perf@mask@@YAHXZ@4HA
$pdata$?dtor$2@?0??perf@mask@@YAHXZ@4HA DD imagerel ?dtor$2@?0??perf@mask@@YAHXZ@4HA
	DD	imagerel ?dtor$2@?0??perf@mask@@YAHXZ@4HA+38
	DD	imagerel $unwind$?dtor$2@?0??perf@mask@@YAHXZ@4HA
$pdata$?dtor$3@?0??perf@mask@@YAHXZ@4HA DD imagerel ?dtor$3@?0??perf@mask@@YAHXZ@4HA
	DD	imagerel ?dtor$3@?0??perf@mask@@YAHXZ@4HA+38
	DD	imagerel $unwind$?dtor$3@?0??perf@mask@@YAHXZ@4HA
$pdata$?dtor$4@?0??perf@mask@@YAHXZ@4HA DD imagerel ?dtor$4@?0??perf@mask@@YAHXZ@4HA
	DD	imagerel ?dtor$4@?0??perf@mask@@YAHXZ@4HA+38
	DD	imagerel $unwind$?dtor$4@?0??perf@mask@@YAHXZ@4HA
pdata	ENDS
;	COMDAT pdata
pdata	SEGMENT
$pdata$??0?$allocator@H@std@@QEAA@XZ DD imagerel $LN3
	DD	imagerel $LN3+13
	DD	imagerel $unwind$??0?$allocator@H@std@@QEAA@XZ
pdata	ENDS
;	COMDAT pdata
pdata	SEGMENT
$pdata$?deallocate@?$allocator@H@std@@QEAAXQEAH_K@Z DD imagerel $LN13
	DD	imagerel $LN13+183
	DD	imagerel $unwind$?deallocate@?$allocator@H@std@@QEAAXQEAH_K@Z
pdata	ENDS
;	COMDAT pdata
pdata	SEGMENT
$pdata$?allocate@?$allocator@H@std@@QEAAPEAH_K@Z DD imagerel $LN3
	DD	imagerel $LN3+39
	DD	imagerel $unwind$?allocate@?$allocator@H@std@@QEAAPEAH_K@Z
pdata	ENDS
;	COMDAT pdata
pdata	SEGMENT
$pdata$?max_size@?$_Default_allocator_traits@V?$allocator@H@std@@@std@@SA_KAEBV?$allocator@H@2@@Z DD imagerel $LN3
	DD	imagerel $LN3+18
	DD	imagerel $unwind$?max_size@?$_Default_allocator_traits@V?$allocator@H@std@@@std@@SA_KAEBV?$allocator@H@2@@Z
pdata	ENDS
;	COMDAT pdata
pdata	SEGMENT
$pdata$??0?$vector@HV?$allocator@H@std@@@std@@QEAA@XZ DD imagerel $LN3
	DD	imagerel $LN3+75
	DD	imagerel $unwind$??0?$vector@HV?$allocator@H@std@@@std@@QEAA@XZ
pdata	ENDS
;	COMDAT pdata
pdata	SEGMENT
$pdata$??1?$vector@HV?$allocator@H@std@@@std@@QEAA@XZ DD imagerel $LN3
	DD	imagerel $LN3+136
	DD	imagerel $unwind$??1?$vector@HV?$allocator@H@std@@@std@@QEAA@XZ
pdata	ENDS
;	COMDAT pdata
pdata	SEGMENT
$pdata$?resize@?$vector@HV?$allocator@H@std@@@std@@QEAAX_K@Z DD imagerel $LN3
	DD	imagerel $LN3+41
	DD	imagerel $unwind$?resize@?$vector@HV?$allocator@H@std@@@std@@QEAAX_K@Z
pdata	ENDS
;	COMDAT pdata
pdata	SEGMENT
$pdata$?max_size@?$vector@HV?$allocator@H@std@@@std@@QEBA_KXZ DD imagerel $LN3
	DD	imagerel $LN3+67
	DD	imagerel $unwind$?max_size@?$vector@HV?$allocator@H@std@@@std@@QEBA_KXZ
pdata	ENDS
;	COMDAT pdata
pdata	SEGMENT
$pdata$?capacity@?$vector@HV?$allocator@H@std@@@std@@QEBA_KXZ DD imagerel $LN3
	DD	imagerel $LN3+48
	DD	imagerel $unwind$?capacity@?$vector@HV?$allocator@H@std@@@std@@QEBA_KXZ
pdata	ENDS
;	COMDAT pdata
pdata	SEGMENT
$pdata$??A?$vector@HV?$allocator@H@std@@@std@@QEAAAEAH_K@Z DD imagerel $LN12
	DD	imagerel $LN12+200
	DD	imagerel $unwind$??A?$vector@HV?$allocator@H@std@@@std@@QEAAAEAH_K@Z
pdata	ENDS
;	COMDAT pdata
pdata	SEGMENT
$pdata$?_Calculate_growth@?$vector@HV?$allocator@H@std@@@std@@AEBA_K_K@Z DD imagerel $LN5
	DD	imagerel $LN5+146
	DD	imagerel $unwind$?_Calculate_growth@?$vector@HV?$allocator@H@std@@@std@@AEBA_K_K@Z
pdata	ENDS
;	COMDAT pdata
pdata	SEGMENT
$pdata$?_Change_array@?$vector@HV?$allocator@H@std@@@std@@AEAAXQEAH_K1@Z DD imagerel $LN4
	DD	imagerel $LN4+246
	DD	imagerel $unwind$?_Change_array@?$vector@HV?$allocator@H@std@@@std@@AEAAXQEAH_K1@Z
pdata	ENDS
;	COMDAT pdata
pdata	SEGMENT
$pdata$?_Tidy@?$vector@HV?$allocator@H@std@@@std@@AEAAXXZ DD imagerel $LN4
	DD	imagerel $LN4+210
	DD	imagerel $unwind$?_Tidy@?$vector@HV?$allocator@H@std@@@std@@AEAAXXZ
pdata	ENDS
;	COMDAT pdata
pdata	SEGMENT
$pdata$?_Xlength@?$vector@HV?$allocator@H@std@@@std@@CAXXZ DD imagerel $LN3
	DD	imagerel $LN3+24
	DD	imagerel $unwind$?_Xlength@?$vector@HV?$allocator@H@std@@@std@@CAXXZ
pdata	ENDS
;	COMDAT pdata
pdata	SEGMENT
$pdata$?_Orphan_range_unlocked@?$vector@HV?$allocator@H@std@@@std@@AEBAXPEAH0@Z DD imagerel $LN8
	DD	imagerel $LN8+161
	DD	imagerel $unwind$?_Orphan_range_unlocked@?$vector@HV?$allocator@H@std@@@std@@AEBAXPEAH0@Z
pdata	ENDS
;	COMDAT pdata
pdata	SEGMENT
$pdata$?_Orphan_range_locked@?$vector@HV?$allocator@H@std@@@std@@AEBAXPEAH0@Z DD imagerel $LN4
	DD	imagerel $LN4+112
	DD	imagerel $unwind$?_Orphan_range_locked@?$vector@HV?$allocator@H@std@@@std@@AEBAXPEAH0@Z
pdata	ENDS
;	COMDAT pdata
pdata	SEGMENT
$pdata$?dtor$0@?0??_Orphan_range_locked@?$vector@HV?$allocator@H@std@@@std@@AEBAXPEAH0@Z@4HA DD imagerel ?dtor$0@?0??_Orphan_range_locked@?$vector@HV?$allocator@H@std@@@std@@AEBAXPEAH0@Z@4HA
	DD	imagerel ?dtor$0@?0??_Orphan_range_locked@?$vector@HV?$allocator@H@std@@@std@@AEBAXPEAH0@Z@4HA+36
	DD	imagerel $unwind$?dtor$0@?0??_Orphan_range_locked@?$vector@HV?$allocator@H@std@@@std@@AEBAXPEAH0@Z@4HA
pdata	ENDS
;	COMDAT pdata
pdata	SEGMENT
$pdata$?_Orphan_range@?$vector@HV?$allocator@H@std@@@std@@AEBAXPEAH0@Z DD imagerel $LN3
	DD	imagerel $LN3+46
	DD	imagerel $unwind$?_Orphan_range@?$vector@HV?$allocator@H@std@@@std@@AEBAXPEAH0@Z
pdata	ENDS
;	COMDAT pdata
pdata	SEGMENT
$pdata$?_Getal@?$vector@HV?$allocator@H@std@@@std@@AEAAAEAV?$allocator@H@2@XZ DD imagerel $LN3
	DD	imagerel $LN3+29
	DD	imagerel $unwind$?_Getal@?$vector@HV?$allocator@H@std@@@std@@AEAAAEAV?$allocator@H@2@XZ
pdata	ENDS
;	COMDAT pdata
pdata	SEGMENT
$pdata$?_Getal@?$vector@HV?$allocator@H@std@@@std@@AEBAAEBV?$allocator@H@2@XZ DD imagerel $LN3
	DD	imagerel $LN3+29
	DD	imagerel $unwind$?_Getal@?$vector@HV?$allocator@H@std@@@std@@AEBAAEBV?$allocator@H@2@XZ
pdata	ENDS
;	COMDAT pdata
pdata	SEGMENT
$pdata$??0?$_Vector_val@U?$_Simple_types@H@std@@@std@@QEAA@XZ DD imagerel $LN3
	DD	imagerel $LN3+70
	DD	imagerel $unwind$??0?$_Vector_val@U?$_Simple_types@H@std@@@std@@QEAA@XZ
pdata	ENDS
;	COMDAT pdata
pdata	SEGMENT
$pdata$?_Get_first@?$_Compressed_pair@V?$allocator@H@std@@V?$_Vector_val@U?$_Simple_types@H@std@@@2@$00@std@@QEAAAEAV?$allocator@H@2@XZ DD imagerel $LN3
	DD	imagerel $LN3+13
	DD	imagerel $unwind$?_Get_first@?$_Compressed_pair@V?$allocator@H@std@@V?$_Vector_val@U?$_Simple_types@H@std@@@2@$00@std@@QEAAAEAV?$allocator@H@2@XZ
pdata	ENDS
;	COMDAT pdata
pdata	SEGMENT
$pdata$?_Get_first@?$_Compressed_pair@V?$allocator@H@std@@V?$_Vector_val@U?$_Simple_types@H@std@@@2@$00@std@@QEBAAEBV?$allocator@H@2@XZ DD imagerel $LN3
	DD	imagerel $LN3+13
	DD	imagerel $unwind$?_Get_first@?$_Compressed_pair@V?$allocator@H@std@@V?$_Vector_val@U?$_Simple_types@H@std@@@2@$00@std@@QEBAAEBV?$allocator@H@2@XZ
pdata	ENDS
;	COMDAT pdata
pdata	SEGMENT
$pdata$??$mask@H@glm@@YAHH@Z DD imagerel $LN5
	DD	imagerel $LN5+65
	DD	imagerel $unwind$??$mask@H@glm@@YAHH@Z
pdata	ENDS
pdata	SEGMENT
$pdata$?test_uint@mask@@YAHXZ DD imagerel $LN23
	DD	imagerel $LN23+690
	DD	imagerel $unwind$?test_uint@mask@@YAHXZ
pdata	ENDS
;	COMDAT pdata
pdata	SEGMENT
$pdata$??$mask@I@glm@@YAII@Z DD imagerel $LN5
	DD	imagerel $LN5+64
	DD	imagerel $unwind$??$mask@I@glm@@YAII@Z
pdata	ENDS
pdata	SEGMENT
$pdata$?test_uvec4@mask@@YAHXZ DD imagerel $LN8
	DD	imagerel $LN8+505
	DD	imagerel $unwind$?test_uvec4@mask@@YAHXZ
pdata	ENDS
;	COMDAT pdata
pdata	SEGMENT
$pdata$?length@?$tvec4@H$0A@@glm@@SAHXZ DD imagerel $LN3
	DD	imagerel $LN3+9
	DD	imagerel $unwind$?length@?$tvec4@H$0A@@glm@@SAHXZ
pdata	ENDS
;	COMDAT pdata
pdata	SEGMENT
$pdata$??A?$tvec4@H$0A@@glm@@QEBAAEBHH@Z DD imagerel $LN5
	DD	imagerel $LN5+80
	DD	imagerel $unwind$??A?$tvec4@H$0A@@glm@@QEBAAEBHH@Z
pdata	ENDS
;	COMDAT pdata
pdata	SEGMENT
$pdata$??0?$tvec4@H$0A@@glm@@QEAA@H@Z DD imagerel $LN3
	DD	imagerel $LN3+64
	DD	imagerel $unwind$??0?$tvec4@H$0A@@glm@@QEAA@H@Z
pdata	ENDS
;	COMDAT pdata
pdata	SEGMENT
$pdata$??0?$tvec4@H$0A@@glm@@QEAA@HHHH@Z DD imagerel $LN3
	DD	imagerel $LN3+74
	DD	imagerel $unwind$??0?$tvec4@H$0A@@glm@@QEAA@HHHH@Z
pdata	ENDS
;	COMDAT pdata
pdata	SEGMENT
$pdata$??$mask@H$0A@Utvec4@glm@@@glm@@YA?AU?$tvec4@H$0A@@0@AEBU10@@Z DD imagerel $LN3
	DD	imagerel $LN3+48
	DD	imagerel $unwind$??$mask@H$0A@Utvec4@glm@@@glm@@YA?AU?$tvec4@H$0A@@0@AEBU10@@Z
pdata	ENDS
;	COMDAT pdata
pdata	SEGMENT
$pdata$??$equal@H$0A@Utvec4@glm@@@glm@@YA?AU?$tvec4@_N$0A@@0@AEBU?$tvec4@H$0A@@0@0@Z DD imagerel $LN9
	DD	imagerel $LN9+263
	DD	imagerel $unwind$??$equal@H$0A@Utvec4@glm@@@glm@@YA?AU?$tvec4@_N$0A@@0@AEBU?$tvec4@H$0A@@0@0@Z
pdata	ENDS
;	COMDAT pdata
pdata	SEGMENT
$pdata$?length@?$tvec4@_N$0A@@glm@@SAHXZ DD imagerel $LN3
	DD	imagerel $LN3+9
	DD	imagerel $unwind$?length@?$tvec4@_N$0A@@glm@@SAHXZ
pdata	ENDS
;	COMDAT pdata
pdata	SEGMENT
$pdata$??A?$tvec4@_N$0A@@glm@@QEAAAEA_NH@Z DD imagerel $LN5
	DD	imagerel $LN5+82
	DD	imagerel $unwind$??A?$tvec4@_N$0A@@glm@@QEAAAEA_NH@Z
pdata	ENDS
;	COMDAT pdata
pdata	SEGMENT
$pdata$??A?$tvec4@_N$0A@@glm@@QEBAAEB_NH@Z DD imagerel $LN5
	DD	imagerel $LN5+82
	DD	imagerel $unwind$??A?$tvec4@_N$0A@@glm@@QEBAAEB_NH@Z
pdata	ENDS
;	COMDAT pdata
pdata	SEGMENT
$pdata$??0?$tvec4@_N$0A@@glm@@QEAA@W4ctor@1@@Z DD imagerel $LN3
	DD	imagerel $LN3+17
	DD	imagerel $unwind$??0?$tvec4@_N$0A@@glm@@QEAA@W4ctor@1@@Z
pdata	ENDS
;	COMDAT pdata
pdata	SEGMENT
$pdata$??$all@$0A@Utvec4@glm@@@glm@@YA_NAEBU?$tvec4@_N$0A@@0@@Z DD imagerel $LN8
	DD	imagerel $LN8+116
	DD	imagerel $unwind$??$all@$0A@Utvec4@glm@@@glm@@YA_NAEBU?$tvec4@_N$0A@@0@@Z
pdata	ENDS
pdata	SEGMENT
$pdata$?test@mask@@YAHXZ DD imagerel $LN3
	DD	imagerel $LN3+58
	DD	imagerel $unwind$?test@mask@@YAHXZ
$pdata$?test@bitfieldInterleave3@@YAHXZ DD imagerel $LN14
	DD	imagerel $LN14+280
	DD	imagerel $unwind$?test@bitfieldInterleave3@@YAHXZ
pdata	ENDS
;	COMDAT pdata
pdata	SEGMENT
$pdata$??$refBitfieldInterleave@G_K@bitfieldInterleave3@@YA_KGGG@Z DD imagerel $LN6
	DD	imagerel $LN6+231
	DD	imagerel $unwind$??$refBitfieldInterleave@G_K@bitfieldInterleave3@@YA_KGGG@Z
pdata	ENDS
pdata	SEGMENT
$pdata$?test@bitfieldInterleave4@@YAHXZ DD imagerel $LN17
	DD	imagerel $LN17+350
	DD	imagerel $unwind$?test@bitfieldInterleave4@@YAHXZ
pdata	ENDS
;	COMDAT pdata
pdata	SEGMENT
$pdata$??$loopBitfieldInterleave@G_K@bitfieldInterleave4@@YA_KGGGG@Z DD imagerel $LN6
	DD	imagerel $LN6+448
	DD	imagerel $unwind$??$loopBitfieldInterleave@G_K@bitfieldInterleave4@@YA_KGGGG@Z
pdata	ENDS
;	COMDAT pdata
pdata	SEGMENT
$pdata$?fastBitfieldInterleave@bitfieldInterleave@@YA_KII@Z DD imagerel $LN3
	DD	imagerel $LN3+357
	DD	imagerel $unwind$?fastBitfieldInterleave@bitfieldInterleave@@YA_KII@Z
pdata	ENDS
;	COMDAT pdata
pdata	SEGMENT
$pdata$?interleaveBitfieldInterleave@bitfieldInterleave@@YA_KII@Z DD imagerel $LN3
	DD	imagerel $LN3+357
	DD	imagerel $unwind$?interleaveBitfieldInterleave@bitfieldInterleave@@YA_KII@Z
pdata	ENDS
;	COMDAT pdata
pdata	SEGMENT
$pdata$?sseBitfieldInterleave@bitfieldInterleave@@YA_KII@Z DD imagerel $LN3
	DD	imagerel $LN3+1149
	DD	imagerel $unwind$?sseBitfieldInterleave@bitfieldInterleave@@YA_KII@Z
pdata	ENDS
;	COMDAT pdata
pdata	SEGMENT
$pdata$?sseUnalignedBitfieldInterleave@bitfieldInterleave@@YA_KII@Z DD imagerel $LN3
	DD	imagerel $LN3+1149
	DD	imagerel $unwind$?sseUnalignedBitfieldInterleave@bitfieldInterleave@@YA_KII@Z
pdata	ENDS
pdata	SEGMENT
$pdata$?test@bitfieldInterleave@@YAHXZ DD imagerel $LN22
	DD	imagerel $LN22+920
	DD	imagerel $unwind$?test@bitfieldInterleave@@YAHXZ
$pdata$?perf@bitfieldInterleave@@YAHXZ DD imagerel $LN34
	DD	imagerel $LN34+2160
	DD	imagerel $unwind$?perf@bitfieldInterleave@@YAHXZ
pdata	ENDS
pdata	SEGMENT
$pdata$?dtor$0@?0??perf@bitfieldInterleave@@YAHXZ@4HA DD imagerel ?dtor$0@?0??perf@bitfieldInterleave@@YAHXZ@4HA
	DD	imagerel ?dtor$0@?0??perf@bitfieldInterleave@@YAHXZ@4HA+35
	DD	imagerel $unwind$?dtor$0@?0??perf@bitfieldInterleave@@YAHXZ@4HA
$pdata$?dtor$1@?0??perf@bitfieldInterleave@@YAHXZ@4HA DD imagerel ?dtor$1@?0??perf@bitfieldInterleave@@YAHXZ@4HA
	DD	imagerel ?dtor$1@?0??perf@bitfieldInterleave@@YAHXZ@4HA+35
	DD	imagerel $unwind$?dtor$1@?0??perf@bitfieldInterleave@@YAHXZ@4HA
$pdata$?dtor$2@?0??perf@bitfieldInterleave@@YAHXZ@4HA DD imagerel ?dtor$2@?0??perf@bitfieldInterleave@@YAHXZ@4HA
	DD	imagerel ?dtor$2@?0??perf@bitfieldInterleave@@YAHXZ@4HA+38
	DD	imagerel $unwind$?dtor$2@?0??perf@bitfieldInterleave@@YAHXZ@4HA
$pdata$?dtor$3@?0??perf@bitfieldInterleave@@YAHXZ@4HA DD imagerel ?dtor$3@?0??perf@bitfieldInterleave@@YAHXZ@4HA
	DD	imagerel ?dtor$3@?0??perf@bitfieldInterleave@@YAHXZ@4HA+38
	DD	imagerel $unwind$?dtor$3@?0??perf@bitfieldInterleave@@YAHXZ@4HA
pdata	ENDS
;	COMDAT pdata
pdata	SEGMENT
$pdata$??0?$allocator@_K@std@@QEAA@XZ DD imagerel $LN3
	DD	imagerel $LN3+13
	DD	imagerel $unwind$??0?$allocator@_K@std@@QEAA@XZ
pdata	ENDS
;	COMDAT pdata
pdata	SEGMENT
$pdata$?deallocate@?$allocator@_K@std@@QEAAXQEA_K_K@Z DD imagerel $LN13
	DD	imagerel $LN13+183
	DD	imagerel $unwind$?deallocate@?$allocator@_K@std@@QEAAXQEA_K_K@Z
pdata	ENDS
;	COMDAT pdata
pdata	SEGMENT
$pdata$?allocate@?$allocator@_K@std@@QEAAPEA_K_K@Z DD imagerel $LN3
	DD	imagerel $LN3+39
	DD	imagerel $unwind$?allocate@?$allocator@_K@std@@QEAAPEA_K_K@Z
pdata	ENDS
;	COMDAT pdata
pdata	SEGMENT
$pdata$?max_size@?$_Default_allocator_traits@V?$allocator@_K@std@@@std@@SA_KAEBV?$allocator@_K@2@@Z DD imagerel $LN3
	DD	imagerel $LN3+18
	DD	imagerel $unwind$?max_size@?$_Default_allocator_traits@V?$allocator@_K@std@@@std@@SA_KAEBV?$allocator@_K@2@@Z
pdata	ENDS
;	COMDAT pdata
pdata	SEGMENT
$pdata$??0?$vector@_KV?$allocator@_K@std@@@std@@QEAA@_KAEBV?$allocator@_K@1@@Z DD imagerel $LN3
	DD	imagerel $LN3+69
	DD	imagerel $unwind$??0?$vector@_KV?$allocator@_K@std@@@std@@QEAA@_KAEBV?$allocator@_K@1@@Z
pdata	ENDS
;	COMDAT pdata
pdata	SEGMENT
$pdata$??1?$vector@_KV?$allocator@_K@std@@@std@@QEAA@XZ DD imagerel $LN3
	DD	imagerel $LN3+136
	DD	imagerel $unwind$??1?$vector@_KV?$allocator@_K@std@@@std@@QEAA@XZ
pdata	ENDS
;	COMDAT pdata
pdata	SEGMENT
$pdata$?size@?$vector@_KV?$allocator@_K@std@@@std@@QEBA_KXZ DD imagerel $LN3
	DD	imagerel $LN3+48
	DD	imagerel $unwind$?size@?$vector@_KV?$allocator@_K@std@@@std@@QEBA_KXZ
pdata	ENDS
;	COMDAT pdata
pdata	SEGMENT
$pdata$?max_size@?$vector@_KV?$allocator@_K@std@@@std@@QEBA_KXZ DD imagerel $LN3
	DD	imagerel $LN3+67
	DD	imagerel $unwind$?max_size@?$vector@_KV?$allocator@_K@std@@@std@@QEBA_KXZ
pdata	ENDS
;	COMDAT pdata
pdata	SEGMENT
$pdata$??A?$vector@_KV?$allocator@_K@std@@@std@@QEAAAEA_K_K@Z DD imagerel $LN12
	DD	imagerel $LN12+200
	DD	imagerel $unwind$??A?$vector@_KV?$allocator@_K@std@@@std@@QEAAAEA_K_K@Z
pdata	ENDS
;	COMDAT pdata
pdata	SEGMENT
$pdata$?_Buy_raw@?$vector@_KV?$allocator@_K@std@@@std@@AEAAX_K@Z DD imagerel $LN3
	DD	imagerel $LN3+149
	DD	imagerel $unwind$?_Buy_raw@?$vector@_KV?$allocator@_K@std@@@std@@AEAAX_K@Z
pdata	ENDS
;	COMDAT pdata
pdata	SEGMENT
$pdata$?_Buy_nonzero@?$vector@_KV?$allocator@_K@std@@@std@@AEAAX_K@Z DD imagerel $LN4
	DD	imagerel $LN4+58
	DD	imagerel $unwind$?_Buy_nonzero@?$vector@_KV?$allocator@_K@std@@@std@@AEAAX_K@Z
pdata	ENDS
;	COMDAT pdata
pdata	SEGMENT
$pdata$?_Tidy@?$vector@_KV?$allocator@_K@std@@@std@@AEAAXXZ DD imagerel $LN4
	DD	imagerel $LN4+210
	DD	imagerel $unwind$?_Tidy@?$vector@_KV?$allocator@_K@std@@@std@@AEAAXXZ
pdata	ENDS
;	COMDAT pdata
pdata	SEGMENT
$pdata$?_Xlength@?$vector@_KV?$allocator@_K@std@@@std@@CAXXZ DD imagerel $LN3
	DD	imagerel $LN3+24
	DD	imagerel $unwind$?_Xlength@?$vector@_KV?$allocator@_K@std@@@std@@CAXXZ
pdata	ENDS
;	COMDAT pdata
pdata	SEGMENT
$pdata$?_Getal@?$vector@_KV?$allocator@_K@std@@@std@@AEAAAEAV?$allocator@_K@2@XZ DD imagerel $LN3
	DD	imagerel $LN3+29
	DD	imagerel $unwind$?_Getal@?$vector@_KV?$allocator@_K@std@@@std@@AEAAAEAV?$allocator@_K@2@XZ
pdata	ENDS
;	COMDAT pdata
pdata	SEGMENT
$pdata$?_Getal@?$vector@_KV?$allocator@_K@std@@@std@@AEBAAEBV?$allocator@_K@2@XZ DD imagerel $LN3
	DD	imagerel $LN3+29
	DD	imagerel $unwind$?_Getal@?$vector@_KV?$allocator@_K@std@@@std@@AEBAAEBV?$allocator@_K@2@XZ
pdata	ENDS
;	COMDAT pdata
pdata	SEGMENT
$pdata$??0?$_Vector_val@U?$_Simple_types@_K@std@@@std@@QEAA@XZ DD imagerel $LN3
	DD	imagerel $LN3+70
	DD	imagerel $unwind$??0?$_Vector_val@U?$_Simple_types@_K@std@@@std@@QEAA@XZ
pdata	ENDS
;	COMDAT pdata
pdata	SEGMENT
$pdata$?_Get_first@?$_Compressed_pair@V?$allocator@_K@std@@V?$_Vector_val@U?$_Simple_types@_K@std@@@2@$00@std@@QEAAAEAV?$allocator@_K@2@XZ DD imagerel $LN3
	DD	imagerel $LN3+13
	DD	imagerel $unwind$?_Get_first@?$_Compressed_pair@V?$allocator@_K@std@@V?$_Vector_val@U?$_Simple_types@_K@std@@@2@$00@std@@QEAAAEAV?$allocator@_K@2@XZ
pdata	ENDS
;	COMDAT pdata
pdata	SEGMENT
$pdata$?_Get_first@?$_Compressed_pair@V?$allocator@_K@std@@V?$_Vector_val@U?$_Simple_types@_K@std@@@2@$00@std@@QEBAAEBV?$allocator@_K@2@XZ DD imagerel $LN3
	DD	imagerel $LN3+13
	DD	imagerel $unwind$?_Get_first@?$_Compressed_pair@V?$allocator@_K@std@@V?$_Vector_val@U?$_Simple_types@_K@std@@@2@$00@std@@QEBAAEBV?$allocator@_K@2@XZ
pdata	ENDS
;	COMDAT pdata
pdata	SEGMENT
$pdata$??0?$allocator@U?$tvec2@I$0A@@glm@@@std@@QEAA@XZ DD imagerel $LN3
	DD	imagerel $LN3+13
	DD	imagerel $unwind$??0?$allocator@U?$tvec2@I$0A@@glm@@@std@@QEAA@XZ
pdata	ENDS
;	COMDAT pdata
pdata	SEGMENT
$pdata$?deallocate@?$allocator@U?$tvec2@I$0A@@glm@@@std@@QEAAXQEAU?$tvec2@I$0A@@glm@@_K@Z DD imagerel $LN13
	DD	imagerel $LN13+183
	DD	imagerel $unwind$?deallocate@?$allocator@U?$tvec2@I$0A@@glm@@@std@@QEAAXQEAU?$tvec2@I$0A@@glm@@_K@Z
pdata	ENDS
;	COMDAT pdata
pdata	SEGMENT
$pdata$?allocate@?$allocator@U?$tvec2@I$0A@@glm@@@std@@QEAAPEAU?$tvec2@I$0A@@glm@@_K@Z DD imagerel $LN3
	DD	imagerel $LN3+39
	DD	imagerel $unwind$?allocate@?$allocator@U?$tvec2@I$0A@@glm@@@std@@QEAAPEAU?$tvec2@I$0A@@glm@@_K@Z
pdata	ENDS
;	COMDAT pdata
pdata	SEGMENT
$pdata$?max_size@?$_Default_allocator_traits@V?$allocator@U?$tvec2@I$0A@@glm@@@std@@@std@@SA_KAEBV?$allocator@U?$tvec2@I$0A@@glm@@@2@@Z DD imagerel $LN3
	DD	imagerel $LN3+18
	DD	imagerel $unwind$?max_size@?$_Default_allocator_traits@V?$allocator@U?$tvec2@I$0A@@glm@@@std@@@std@@SA_KAEBV?$allocator@U?$tvec2@I$0A@@glm@@@2@@Z
pdata	ENDS
;	COMDAT pdata
pdata	SEGMENT
$pdata$??0?$vector@U?$tvec2@I$0A@@glm@@V?$allocator@U?$tvec2@I$0A@@glm@@@std@@@std@@QEAA@_KAEBV?$allocator@U?$tvec2@I$0A@@glm@@@1@@Z DD imagerel $LN3
	DD	imagerel $LN3+69
	DD	imagerel $unwind$??0?$vector@U?$tvec2@I$0A@@glm@@V?$allocator@U?$tvec2@I$0A@@glm@@@std@@@std@@QEAA@_KAEBV?$allocator@U?$tvec2@I$0A@@glm@@@1@@Z
pdata	ENDS
;	COMDAT pdata
pdata	SEGMENT
$pdata$??1?$vector@U?$tvec2@I$0A@@glm@@V?$allocator@U?$tvec2@I$0A@@glm@@@std@@@std@@QEAA@XZ DD imagerel $LN3
	DD	imagerel $LN3+136
	DD	imagerel $unwind$??1?$vector@U?$tvec2@I$0A@@glm@@V?$allocator@U?$tvec2@I$0A@@glm@@@std@@@std@@QEAA@XZ
pdata	ENDS
;	COMDAT pdata
pdata	SEGMENT
$pdata$?size@?$vector@U?$tvec2@I$0A@@glm@@V?$allocator@U?$tvec2@I$0A@@glm@@@std@@@std@@QEBA_KXZ DD imagerel $LN3
	DD	imagerel $LN3+48
	DD	imagerel $unwind$?size@?$vector@U?$tvec2@I$0A@@glm@@V?$allocator@U?$tvec2@I$0A@@glm@@@std@@@std@@QEBA_KXZ
pdata	ENDS
;	COMDAT pdata
pdata	SEGMENT
$pdata$?max_size@?$vector@U?$tvec2@I$0A@@glm@@V?$allocator@U?$tvec2@I$0A@@glm@@@std@@@std@@QEBA_KXZ DD imagerel $LN3
	DD	imagerel $LN3+67
	DD	imagerel $unwind$?max_size@?$vector@U?$tvec2@I$0A@@glm@@V?$allocator@U?$tvec2@I$0A@@glm@@@std@@@std@@QEBA_KXZ
pdata	ENDS
;	COMDAT pdata
pdata	SEGMENT
$pdata$??A?$vector@U?$tvec2@I$0A@@glm@@V?$allocator@U?$tvec2@I$0A@@glm@@@std@@@std@@QEAAAEAU?$tvec2@I$0A@@glm@@_K@Z DD imagerel $LN12
	DD	imagerel $LN12+200
	DD	imagerel $unwind$??A?$vector@U?$tvec2@I$0A@@glm@@V?$allocator@U?$tvec2@I$0A@@glm@@@std@@@std@@QEAAAEAU?$tvec2@I$0A@@glm@@_K@Z
pdata	ENDS
;	COMDAT pdata
pdata	SEGMENT
$pdata$?_Buy_raw@?$vector@U?$tvec2@I$0A@@glm@@V?$allocator@U?$tvec2@I$0A@@glm@@@std@@@std@@AEAAX_K@Z DD imagerel $LN3
	DD	imagerel $LN3+149
	DD	imagerel $unwind$?_Buy_raw@?$vector@U?$tvec2@I$0A@@glm@@V?$allocator@U?$tvec2@I$0A@@glm@@@std@@@std@@AEAAX_K@Z
pdata	ENDS
;	COMDAT pdata
pdata	SEGMENT
$pdata$?_Buy_nonzero@?$vector@U?$tvec2@I$0A@@glm@@V?$allocator@U?$tvec2@I$0A@@glm@@@std@@@std@@AEAAX_K@Z DD imagerel $LN4
	DD	imagerel $LN4+58
	DD	imagerel $unwind$?_Buy_nonzero@?$vector@U?$tvec2@I$0A@@glm@@V?$allocator@U?$tvec2@I$0A@@glm@@@std@@@std@@AEAAX_K@Z
pdata	ENDS
;	COMDAT pdata
pdata	SEGMENT
$pdata$?_Tidy@?$vector@U?$tvec2@I$0A@@glm@@V?$allocator@U?$tvec2@I$0A@@glm@@@std@@@std@@AEAAXXZ DD imagerel $LN4
	DD	imagerel $LN4+210
	DD	imagerel $unwind$?_Tidy@?$vector@U?$tvec2@I$0A@@glm@@V?$allocator@U?$tvec2@I$0A@@glm@@@std@@@std@@AEAAXXZ
pdata	ENDS
;	COMDAT pdata
pdata	SEGMENT
$pdata$?_Xlength@?$vector@U?$tvec2@I$0A@@glm@@V?$allocator@U?$tvec2@I$0A@@glm@@@std@@@std@@CAXXZ DD imagerel $LN3
	DD	imagerel $LN3+24
	DD	imagerel $unwind$?_Xlength@?$vector@U?$tvec2@I$0A@@glm@@V?$allocator@U?$tvec2@I$0A@@glm@@@std@@@std@@CAXXZ
pdata	ENDS
;	COMDAT pdata
pdata	SEGMENT
$pdata$?_Getal@?$vector@U?$tvec2@I$0A@@glm@@V?$allocator@U?$tvec2@I$0A@@glm@@@std@@@std@@AEAAAEAV?$allocator@U?$tvec2@I$0A@@glm@@@2@XZ DD imagerel $LN3
	DD	imagerel $LN3+29
	DD	imagerel $unwind$?_Getal@?$vector@U?$tvec2@I$0A@@glm@@V?$allocator@U?$tvec2@I$0A@@glm@@@std@@@std@@AEAAAEAV?$allocator@U?$tvec2@I$0A@@glm@@@2@XZ
pdata	ENDS
;	COMDAT pdata
pdata	SEGMENT
$pdata$?_Getal@?$vector@U?$tvec2@I$0A@@glm@@V?$allocator@U?$tvec2@I$0A@@glm@@@std@@@std@@AEBAAEBV?$allocator@U?$tvec2@I$0A@@glm@@@2@XZ DD imagerel $LN3
	DD	imagerel $LN3+29
	DD	imagerel $unwind$?_Getal@?$vector@U?$tvec2@I$0A@@glm@@V?$allocator@U?$tvec2@I$0A@@glm@@@std@@@std@@AEBAAEBV?$allocator@U?$tvec2@I$0A@@glm@@@2@XZ
pdata	ENDS
;	COMDAT pdata
pdata	SEGMENT
$pdata$??0?$_Vector_val@U?$_Simple_types@U?$tvec2@I$0A@@glm@@@std@@@std@@QEAA@XZ DD imagerel $LN3
	DD	imagerel $LN3+70
	DD	imagerel $unwind$??0?$_Vector_val@U?$_Simple_types@U?$tvec2@I$0A@@glm@@@std@@@std@@QEAA@XZ
pdata	ENDS
;	COMDAT pdata
pdata	SEGMENT
$pdata$?_Get_first@?$_Compressed_pair@V?$allocator@U?$tvec2@I$0A@@glm@@@std@@V?$_Vector_val@U?$_Simple_types@U?$tvec2@I$0A@@glm@@@std@@@2@$00@std@@QEAAAEAV?$allocator@U?$tvec2@I$0A@@glm@@@2@XZ DD imagerel $LN3
	DD	imagerel $LN3+13
	DD	imagerel $unwind$?_Get_first@?$_Compressed_pair@V?$allocator@U?$tvec2@I$0A@@glm@@@std@@V?$_Vector_val@U?$_Simple_types@U?$tvec2@I$0A@@glm@@@std@@@2@$00@std@@QEAAAEAV?$allocator@U?$tvec2@I$0A@@glm@@@2@XZ
pdata	ENDS
;	COMDAT pdata
pdata	SEGMENT
$pdata$?_Get_first@?$_Compressed_pair@V?$allocator@U?$tvec2@I$0A@@glm@@@std@@V?$_Vector_val@U?$_Simple_types@U?$tvec2@I$0A@@glm@@@std@@@2@$00@std@@QEBAAEBV?$allocator@U?$tvec2@I$0A@@glm@@@2@XZ DD imagerel $LN3
	DD	imagerel $LN3+13
	DD	imagerel $unwind$?_Get_first@?$_Compressed_pair@V?$allocator@U?$tvec2@I$0A@@glm@@@std@@V?$_Vector_val@U?$_Simple_types@U?$tvec2@I$0A@@glm@@@std@@@2@$00@std@@QEBAAEBV?$allocator@U?$tvec2@I$0A@@glm@@@2@XZ
pdata	ENDS
;	COMDAT pdata
pdata	SEGMENT
$pdata$??0?$allocator@T__m128i@@@std@@QEAA@XZ DD imagerel $LN3
	DD	imagerel $LN3+13
	DD	imagerel $unwind$??0?$allocator@T__m128i@@@std@@QEAA@XZ
pdata	ENDS
;	COMDAT pdata
pdata	SEGMENT
$pdata$?deallocate@?$allocator@T__m128i@@@std@@QEAAXQEAT__m128i@@_K@Z DD imagerel $LN13
	DD	imagerel $LN13+180
	DD	imagerel $unwind$?deallocate@?$allocator@T__m128i@@@std@@QEAAXQEAT__m128i@@_K@Z
pdata	ENDS
;	COMDAT pdata
pdata	SEGMENT
$pdata$?allocate@?$allocator@T__m128i@@@std@@QEAAPEAT__m128i@@_K@Z DD imagerel $LN3
	DD	imagerel $LN3+39
	DD	imagerel $unwind$?allocate@?$allocator@T__m128i@@@std@@QEAAPEAT__m128i@@_K@Z
pdata	ENDS
;	COMDAT pdata
pdata	SEGMENT
$pdata$?max_size@?$_Default_allocator_traits@V?$allocator@T__m128i@@@std@@@std@@SA_KAEBV?$allocator@T__m128i@@@2@@Z DD imagerel $LN3
	DD	imagerel $LN3+18
	DD	imagerel $unwind$?max_size@?$_Default_allocator_traits@V?$allocator@T__m128i@@@std@@@std@@SA_KAEBV?$allocator@T__m128i@@@2@@Z
pdata	ENDS
;	COMDAT pdata
pdata	SEGMENT
$pdata$??0?$vector@T__m128i@@V?$allocator@T__m128i@@@std@@@std@@QEAA@XZ DD imagerel $LN3
	DD	imagerel $LN3+75
	DD	imagerel $unwind$??0?$vector@T__m128i@@V?$allocator@T__m128i@@@std@@@std@@QEAA@XZ
pdata	ENDS
;	COMDAT pdata
pdata	SEGMENT
$pdata$??1?$vector@T__m128i@@V?$allocator@T__m128i@@@std@@@std@@QEAA@XZ DD imagerel $LN3
	DD	imagerel $LN3+136
	DD	imagerel $unwind$??1?$vector@T__m128i@@V?$allocator@T__m128i@@@std@@@std@@QEAA@XZ
pdata	ENDS
;	COMDAT pdata
pdata	SEGMENT
$pdata$?resize@?$vector@T__m128i@@V?$allocator@T__m128i@@@std@@@std@@QEAAX_K@Z DD imagerel $LN3
	DD	imagerel $LN3+41
	DD	imagerel $unwind$?resize@?$vector@T__m128i@@V?$allocator@T__m128i@@@std@@@std@@QEAAX_K@Z
pdata	ENDS
;	COMDAT pdata
pdata	SEGMENT
$pdata$?size@?$vector@T__m128i@@V?$allocator@T__m128i@@@std@@@std@@QEBA_KXZ DD imagerel $LN3
	DD	imagerel $LN3+48
	DD	imagerel $unwind$?size@?$vector@T__m128i@@V?$allocator@T__m128i@@@std@@@std@@QEBA_KXZ
pdata	ENDS
;	COMDAT pdata
pdata	SEGMENT
$pdata$?max_size@?$vector@T__m128i@@V?$allocator@T__m128i@@@std@@@std@@QEBA_KXZ DD imagerel $LN3
	DD	imagerel $LN3+67
	DD	imagerel $unwind$?max_size@?$vector@T__m128i@@V?$allocator@T__m128i@@@std@@@std@@QEBA_KXZ
pdata	ENDS
;	COMDAT pdata
pdata	SEGMENT
$pdata$?capacity@?$vector@T__m128i@@V?$allocator@T__m128i@@@std@@@std@@QEBA_KXZ DD imagerel $LN3
	DD	imagerel $LN3+48
	DD	imagerel $unwind$?capacity@?$vector@T__m128i@@V?$allocator@T__m128i@@@std@@@std@@QEBA_KXZ
pdata	ENDS
;	COMDAT pdata
pdata	SEGMENT
$pdata$??A?$vector@T__m128i@@V?$allocator@T__m128i@@@std@@@std@@QEAAAEAT__m128i@@_K@Z DD imagerel $LN12
	DD	imagerel $LN12+197
	DD	imagerel $unwind$??A?$vector@T__m128i@@V?$allocator@T__m128i@@@std@@@std@@QEAAAEAT__m128i@@_K@Z
pdata	ENDS
;	COMDAT pdata
pdata	SEGMENT
$pdata$?_Calculate_growth@?$vector@T__m128i@@V?$allocator@T__m128i@@@std@@@std@@AEBA_K_K@Z DD imagerel $LN5
	DD	imagerel $LN5+146
	DD	imagerel $unwind$?_Calculate_growth@?$vector@T__m128i@@V?$allocator@T__m128i@@@std@@@std@@AEBA_K_K@Z
pdata	ENDS
;	COMDAT pdata
pdata	SEGMENT
$pdata$?_Change_array@?$vector@T__m128i@@V?$allocator@T__m128i@@@std@@@std@@AEAAXQEAT__m128i@@_K1@Z DD imagerel $LN4
	DD	imagerel $LN4+252
	DD	imagerel $unwind$?_Change_array@?$vector@T__m128i@@V?$allocator@T__m128i@@@std@@@std@@AEAAXQEAT__m128i@@_K1@Z
pdata	ENDS
;	COMDAT pdata
pdata	SEGMENT
$pdata$?_Tidy@?$vector@T__m128i@@V?$allocator@T__m128i@@@std@@@std@@AEAAXXZ DD imagerel $LN4
	DD	imagerel $LN4+210
	DD	imagerel $unwind$?_Tidy@?$vector@T__m128i@@V?$allocator@T__m128i@@@std@@@std@@AEAAXXZ
pdata	ENDS
;	COMDAT pdata
pdata	SEGMENT
$pdata$?_Xlength@?$vector@T__m128i@@V?$allocator@T__m128i@@@std@@@std@@CAXXZ DD imagerel $LN3
	DD	imagerel $LN3+24
	DD	imagerel $unwind$?_Xlength@?$vector@T__m128i@@V?$allocator@T__m128i@@@std@@@std@@CAXXZ
pdata	ENDS
;	COMDAT pdata
pdata	SEGMENT
$pdata$?_Orphan_range_unlocked@?$vector@T__m128i@@V?$allocator@T__m128i@@@std@@@std@@AEBAXPEAT__m128i@@0@Z DD imagerel $LN8
	DD	imagerel $LN8+161
	DD	imagerel $unwind$?_Orphan_range_unlocked@?$vector@T__m128i@@V?$allocator@T__m128i@@@std@@@std@@AEBAXPEAT__m128i@@0@Z
pdata	ENDS
;	COMDAT pdata
pdata	SEGMENT
$pdata$?_Orphan_range_locked@?$vector@T__m128i@@V?$allocator@T__m128i@@@std@@@std@@AEBAXPEAT__m128i@@0@Z DD imagerel $LN4
	DD	imagerel $LN4+112
	DD	imagerel $unwind$?_Orphan_range_locked@?$vector@T__m128i@@V?$allocator@T__m128i@@@std@@@std@@AEBAXPEAT__m128i@@0@Z
pdata	ENDS
;	COMDAT pdata
pdata	SEGMENT
$pdata$?dtor$0@?0??_Orphan_range_locked@?$vector@T__m128i@@V?$allocator@T__m128i@@@std@@@std@@AEBAXPEAT__m128i@@0@Z@4HA DD imagerel ?dtor$0@?0??_Orphan_range_locked@?$vector@T__m128i@@V?$allocator@T__m128i@@@std@@@std@@AEBAXPEAT__m128i@@0@Z@4HA
	DD	imagerel ?dtor$0@?0??_Orphan_range_locked@?$vector@T__m128i@@V?$allocator@T__m128i@@@std@@@std@@AEBAXPEAT__m128i@@0@Z@4HA+36
	DD	imagerel $unwind$?dtor$0@?0??_Orphan_range_locked@?$vector@T__m128i@@V?$allocator@T__m128i@@@std@@@std@@AEBAXPEAT__m128i@@0@Z@4HA
pdata	ENDS
;	COMDAT pdata
pdata	SEGMENT
$pdata$?_Orphan_range@?$vector@T__m128i@@V?$allocator@T__m128i@@@std@@@std@@AEBAXPEAT__m128i@@0@Z DD imagerel $LN3
	DD	imagerel $LN3+46
	DD	imagerel $unwind$?_Orphan_range@?$vector@T__m128i@@V?$allocator@T__m128i@@@std@@@std@@AEBAXPEAT__m128i@@0@Z
pdata	ENDS
;	COMDAT pdata
pdata	SEGMENT
$pdata$?_Getal@?$vector@T__m128i@@V?$allocator@T__m128i@@@std@@@std@@AEAAAEAV?$allocator@T__m128i@@@2@XZ DD imagerel $LN3
	DD	imagerel $LN3+29
	DD	imagerel $unwind$?_Getal@?$vector@T__m128i@@V?$allocator@T__m128i@@@std@@@std@@AEAAAEAV?$allocator@T__m128i@@@2@XZ
pdata	ENDS
;	COMDAT pdata
pdata	SEGMENT
$pdata$?_Getal@?$vector@T__m128i@@V?$allocator@T__m128i@@@std@@@std@@AEBAAEBV?$allocator@T__m128i@@@2@XZ DD imagerel $LN3
	DD	imagerel $LN3+29
	DD	imagerel $unwind$?_Getal@?$vector@T__m128i@@V?$allocator@T__m128i@@@std@@@std@@AEBAAEBV?$allocator@T__m128i@@@2@XZ
pdata	ENDS
;	COMDAT pdata
pdata	SEGMENT
$pdata$??0?$_Vector_val@U?$_Simple_types@T__m128i@@@std@@@std@@QEAA@XZ DD imagerel $LN3
	DD	imagerel $LN3+70
	DD	imagerel $unwind$??0?$_Vector_val@U?$_Simple_types@T__m128i@@@std@@@std@@QEAA@XZ
pdata	ENDS
;	COMDAT pdata
pdata	SEGMENT
$pdata$?_Get_first@?$_Compressed_pair@V?$allocator@T__m128i@@@std@@V?$_Vector_val@U?$_Simple_types@T__m128i@@@std@@@2@$00@std@@QEAAAEAV?$allocator@T__m128i@@@2@XZ DD imagerel $LN3
	DD	imagerel $LN3+13
	DD	imagerel $unwind$?_Get_first@?$_Compressed_pair@V?$allocator@T__m128i@@@std@@V?$_Vector_val@U?$_Simple_types@T__m128i@@@std@@@2@$00@std@@QEAAAEAV?$allocator@T__m128i@@@2@XZ
pdata	ENDS
;	COMDAT pdata
pdata	SEGMENT
$pdata$?_Get_first@?$_Compressed_pair@V?$allocator@T__m128i@@@std@@V?$_Vector_val@U?$_Simple_types@T__m128i@@@std@@@2@$00@std@@QEBAAEBV?$allocator@T__m128i@@@2@XZ DD imagerel $LN3
	DD	imagerel $LN3+13
	DD	imagerel $unwind$?_Get_first@?$_Compressed_pair@V?$allocator@T__m128i@@@std@@V?$_Vector_val@U?$_Simple_types@T__m128i@@@std@@@2@$00@std@@QEBAAEBV?$allocator@T__m128i@@@2@XZ
pdata	ENDS
pdata	SEGMENT
$pdata$main DD	imagerel $LN3
	DD	imagerel $LN3+92
	DD	imagerel $unwind$main
pdata	ENDS
;	COMDAT pdata
pdata	SEGMENT
$pdata$??$_Resize@U_Value_init_tag@std@@@?$vector@T__m128i@@V?$allocator@T__m128i@@@std@@@std@@AEAAX_KAEBU_Value_init_tag@1@@Z DD imagerel $LN6
	DD	imagerel $LN6+359
	DD	imagerel $unwind$??$_Resize@U_Value_init_tag@std@@@?$vector@T__m128i@@V?$allocator@T__m128i@@@std@@@std@@AEAAX_KAEBU_Value_init_tag@1@@Z
pdata	ENDS
;	COMDAT pdata
pdata	SEGMENT
$pdata$?allocate@?$allocator@U_Container_proxy@std@@@std@@QEAAPEAU_Container_proxy@2@_K@Z DD imagerel $LN3
	DD	imagerel $LN3+39
	DD	imagerel $unwind$?allocate@?$allocator@U_Container_proxy@std@@@std@@QEAAPEAU_Container_proxy@2@_K@Z
pdata	ENDS
;	COMDAT pdata
pdata	SEGMENT
$pdata$??$?0T__m128i@@@?$allocator@U_Container_proxy@std@@@std@@QEAA@AEBV?$allocator@T__m128i@@@1@@Z DD imagerel $LN3
	DD	imagerel $LN3+18
	DD	imagerel $unwind$??$?0T__m128i@@@?$allocator@U_Container_proxy@std@@@std@@QEAA@AEBV?$allocator@T__m128i@@@1@@Z
pdata	ENDS
;	COMDAT pdata
pdata	SEGMENT
$pdata$??$exchange@PEAU_Container_proxy@std@@$$T@std@@YAPEAU_Container_proxy@0@AEAPEAU10@$$QEA$$T@Z DD imagerel $LN3
	DD	imagerel $LN3+53
	DD	imagerel $unwind$??$exchange@PEAU_Container_proxy@std@@$$T@std@@YAPEAU_Container_proxy@0@AEAPEAU10@$$QEA$$T@Z
pdata	ENDS
;	COMDAT pdata
pdata	SEGMENT
$pdata$??$_Delete_plain_internal@V?$allocator@U_Container_proxy@std@@@std@@@std@@YAXAEAV?$allocator@U_Container_proxy@std@@@0@QEAU_Container_proxy@0@@Z DD imagerel $LN3
	DD	imagerel $LN3+36
	DD	imagerel $unwind$??$_Delete_plain_internal@V?$allocator@U_Container_proxy@std@@@std@@@std@@YAXAEAV?$allocator@U_Container_proxy@std@@@0@QEAU_Container_proxy@0@@Z
pdata	ENDS
;	COMDAT pdata
pdata	SEGMENT
$pdata$??$?0$$V@?$_Compressed_pair@V?$allocator@T__m128i@@@std@@V?$_Vector_val@U?$_Simple_types@T__m128i@@@std@@@2@$00@std@@QEAA@U_Zero_then_variadic_args_t@1@@Z DD imagerel $LN3
	DD	imagerel $LN3+48
	DD	imagerel $unwind$??$?0$$V@?$_Compressed_pair@V?$allocator@T__m128i@@@std@@V?$_Vector_val@U?$_Simple_types@T__m128i@@@std@@@2@$00@std@@QEAA@U_Zero_then_variadic_args_t@1@@Z
pdata	ENDS
;	COMDAT pdata
pdata	SEGMENT
$pdata$??$_Alloc_proxy@V?$allocator@U_Container_proxy@std@@@std@@@_Container_base12@std@@QEAAX$$QEAV?$allocator@U_Container_proxy@std@@@1@@Z DD imagerel $LN3
	DD	imagerel $LN3+100
	DD	imagerel $unwind$??$_Alloc_proxy@V?$allocator@U_Container_proxy@std@@@std@@@_Container_base12@std@@QEAAX$$QEAV?$allocator@U_Container_proxy@std@@@1@@Z
pdata	ENDS
;	COMDAT pdata
pdata	SEGMENT
$pdata$??$?0U?$tvec2@I$0A@@glm@@@?$allocator@U_Container_proxy@std@@@std@@QEAA@AEBV?$allocator@U?$tvec2@I$0A@@glm@@@1@@Z DD imagerel $LN3
	DD	imagerel $LN3+18
	DD	imagerel $unwind$??$?0U?$tvec2@I$0A@@glm@@@?$allocator@U_Container_proxy@std@@@std@@QEAA@AEBV?$allocator@U?$tvec2@I$0A@@glm@@@1@@Z
pdata	ENDS
;	COMDAT pdata
pdata	SEGMENT
$pdata$??$?0AEBV?$allocator@U?$tvec2@I$0A@@glm@@@std@@$$V@?$_Compressed_pair@V?$allocator@U?$tvec2@I$0A@@glm@@@std@@V?$_Vector_val@U?$_Simple_types@U?$tvec2@I$0A@@glm@@@std@@@2@$00@std@@QEAA@U_One_then_variadic_args_t@1@AEBV?$allocator@U?$tvec2@I$0A@@glm@@@1@@Z DD imagerel $LN3
	DD	imagerel $LN3+53
	DD	imagerel $unwind$??$?0AEBV?$allocator@U?$tvec2@I$0A@@glm@@@std@@$$V@?$_Compressed_pair@V?$allocator@U?$tvec2@I$0A@@glm@@@std@@V?$_Vector_val@U?$_Simple_types@U?$tvec2@I$0A@@glm@@@std@@@2@$00@std@@QEAA@U_One_then_variadic_args_t@1@AEBV?$allocator@U?$tvec2@I$0A@@glm@@@1@@Z
pdata	ENDS
;	COMDAT pdata
pdata	SEGMENT
$pdata$??$_Construct_n@$$V@?$vector@U?$tvec2@I$0A@@glm@@V?$allocator@U?$tvec2@I$0A@@glm@@@std@@@std@@AEAAX_K@Z DD imagerel $LN6
	DD	imagerel $LN6+274
	DD	imagerel $unwind$??$_Construct_n@$$V@?$vector@U?$tvec2@I$0A@@glm@@V?$allocator@U?$tvec2@I$0A@@glm@@@std@@@std@@AEAAX_K@Z
pdata	ENDS
;	COMDAT pdata
pdata	SEGMENT
$pdata$?dtor$0@?0???$_Construct_n@$$V@?$vector@U?$tvec2@I$0A@@glm@@V?$allocator@U?$tvec2@I$0A@@glm@@@std@@@std@@AEAAX_K@Z@4HA DD imagerel ?dtor$0@?0???$_Construct_n@$$V@?$vector@U?$tvec2@I$0A@@glm@@V?$allocator@U?$tvec2@I$0A@@glm@@@std@@@std@@AEAAX_K@Z@4HA
	DD	imagerel ?dtor$0@?0???$_Construct_n@$$V@?$vector@U?$tvec2@I$0A@@glm@@V?$allocator@U?$tvec2@I$0A@@glm@@@std@@@std@@AEAAX_K@Z@4HA+35
	DD	imagerel $unwind$?dtor$0@?0???$_Construct_n@$$V@?$vector@U?$tvec2@I$0A@@glm@@V?$allocator@U?$tvec2@I$0A@@glm@@@std@@@std@@AEAAX_K@Z@4HA
pdata	ENDS
;	COMDAT pdata
pdata	SEGMENT
$pdata$?dtor$1@?0???$_Construct_n@$$V@?$vector@U?$tvec2@I$0A@@glm@@V?$allocator@U?$tvec2@I$0A@@glm@@@std@@@std@@AEAAX_K@Z@4HA DD imagerel ?dtor$1@?0???$_Construct_n@$$V@?$vector@U?$tvec2@I$0A@@glm@@V?$allocator@U?$tvec2@I$0A@@glm@@@std@@@std@@AEAAX_K@Z@4HA
	DD	imagerel ?dtor$1@?0???$_Construct_n@$$V@?$vector@U?$tvec2@I$0A@@glm@@V?$allocator@U?$tvec2@I$0A@@glm@@@std@@@std@@AEAAX_K@Z@4HA+38
	DD	imagerel $unwind$?dtor$1@?0???$_Construct_n@$$V@?$vector@U?$tvec2@I$0A@@glm@@V?$allocator@U?$tvec2@I$0A@@glm@@@std@@@std@@AEAAX_K@Z@4HA
pdata	ENDS
;	COMDAT pdata
pdata	SEGMENT
$pdata$??$?0_K@?$allocator@U_Container_proxy@std@@@std@@QEAA@AEBV?$allocator@_K@1@@Z DD imagerel $LN3
	DD	imagerel $LN3+18
	DD	imagerel $unwind$??$?0_K@?$allocator@U_Container_proxy@std@@@std@@QEAA@AEBV?$allocator@_K@1@@Z
pdata	ENDS
;	COMDAT pdata
pdata	SEGMENT
$pdata$??$?0AEBV?$allocator@_K@std@@$$V@?$_Compressed_pair@V?$allocator@_K@std@@V?$_Vector_val@U?$_Simple_types@_K@std@@@2@$00@std@@QEAA@U_One_then_variadic_args_t@1@AEBV?$allocator@_K@1@@Z DD imagerel $LN3
	DD	imagerel $LN3+53
	DD	imagerel $unwind$??$?0AEBV?$allocator@_K@std@@$$V@?$_Compressed_pair@V?$allocator@_K@std@@V?$_Vector_val@U?$_Simple_types@_K@std@@@2@$00@std@@QEAA@U_One_then_variadic_args_t@1@AEBV?$allocator@_K@1@@Z
pdata	ENDS
;	COMDAT pdata
pdata	SEGMENT
$pdata$??$_Construct_n@$$V@?$vector@_KV?$allocator@_K@std@@@std@@AEAAX_K@Z DD imagerel $LN6
	DD	imagerel $LN6+274
	DD	imagerel $unwind$??$_Construct_n@$$V@?$vector@_KV?$allocator@_K@std@@@std@@AEAAX_K@Z
pdata	ENDS
;	COMDAT pdata
pdata	SEGMENT
$pdata$?dtor$0@?0???$_Construct_n@$$V@?$vector@_KV?$allocator@_K@std@@@std@@AEAAX_K@Z@4HA DD imagerel ?dtor$0@?0???$_Construct_n@$$V@?$vector@_KV?$allocator@_K@std@@@std@@AEAAX_K@Z@4HA
	DD	imagerel ?dtor$0@?0???$_Construct_n@$$V@?$vector@_KV?$allocator@_K@std@@@std@@AEAAX_K@Z@4HA+35
	DD	imagerel $unwind$?dtor$0@?0???$_Construct_n@$$V@?$vector@_KV?$allocator@_K@std@@@std@@AEAAX_K@Z@4HA
pdata	ENDS
;	COMDAT pdata
pdata	SEGMENT
$pdata$?dtor$1@?0???$_Construct_n@$$V@?$vector@_KV?$allocator@_K@std@@@std@@AEAAX_K@Z@4HA DD imagerel ?dtor$1@?0???$_Construct_n@$$V@?$vector@_KV?$allocator@_K@std@@@std@@AEAAX_K@Z@4HA
	DD	imagerel ?dtor$1@?0???$_Construct_n@$$V@?$vector@_KV?$allocator@_K@std@@@std@@AEAAX_K@Z@4HA+38
	DD	imagerel $unwind$?dtor$1@?0???$_Construct_n@$$V@?$vector@_KV?$allocator@_K@std@@@std@@AEAAX_K@Z@4HA
pdata	ENDS
;	COMDAT pdata
pdata	SEGMENT
$pdata$??$_Resize@U_Value_init_tag@std@@@?$vector@HV?$allocator@H@std@@@std@@AEAAX_KAEBU_Value_init_tag@1@@Z DD imagerel $LN6
	DD	imagerel $LN6+362
	DD	imagerel $unwind$??$_Resize@U_Value_init_tag@std@@@?$vector@HV?$allocator@H@std@@@std@@AEAAX_KAEBU_Value_init_tag@1@@Z
pdata	ENDS
;	COMDAT pdata
pdata	SEGMENT
$pdata$??$?0H@?$allocator@U_Container_proxy@std@@@std@@QEAA@AEBV?$allocator@H@1@@Z DD imagerel $LN3
	DD	imagerel $LN3+18
	DD	imagerel $unwind$??$?0H@?$allocator@U_Container_proxy@std@@@std@@QEAA@AEBV?$allocator@H@1@@Z
pdata	ENDS
;	COMDAT pdata
pdata	SEGMENT
$pdata$??$?0$$V@?$_Compressed_pair@V?$allocator@H@std@@V?$_Vector_val@U?$_Simple_types@H@std@@@2@$00@std@@QEAA@U_Zero_then_variadic_args_t@1@@Z DD imagerel $LN3
	DD	imagerel $LN3+48
	DD	imagerel $unwind$??$?0$$V@?$_Compressed_pair@V?$allocator@H@std@@V?$_Vector_val@U?$_Simple_types@H@std@@@2@$00@std@@QEAA@U_Zero_then_variadic_args_t@1@@Z
pdata	ENDS
;	COMDAT pdata
pdata	SEGMENT
$pdata$??$_Destroy_range@V?$allocator@T__m128i@@@std@@@std@@YAXPEAT__m128i@@QEAT1@AEAV?$allocator@T__m128i@@@0@@Z DD imagerel $LN3
	DD	imagerel $LN3+18
	DD	imagerel $unwind$??$_Destroy_range@V?$allocator@T__m128i@@@std@@@std@@YAXPEAT__m128i@@QEAT1@AEAV?$allocator@T__m128i@@@0@@Z
pdata	ENDS
;	COMDAT pdata
pdata	SEGMENT
$pdata$??$_Destroy_range@V?$allocator@U?$tvec2@I$0A@@glm@@@std@@@std@@YAXPEAU?$tvec2@I$0A@@glm@@QEAU12@AEAV?$allocator@U?$tvec2@I$0A@@glm@@@0@@Z DD imagerel $LN3
	DD	imagerel $LN3+18
	DD	imagerel $unwind$??$_Destroy_range@V?$allocator@U?$tvec2@I$0A@@glm@@@std@@@std@@YAXPEAU?$tvec2@I$0A@@glm@@QEAU12@AEAV?$allocator@U?$tvec2@I$0A@@glm@@@0@@Z
pdata	ENDS
;	COMDAT pdata
pdata	SEGMENT
$pdata$??$_Destroy_range@V?$allocator@_K@std@@@std@@YAXPEA_KQEA_KAEAV?$allocator@_K@0@@Z DD imagerel $LN3
	DD	imagerel $LN3+18
	DD	imagerel $unwind$??$_Destroy_range@V?$allocator@_K@std@@@std@@YAXPEA_KQEA_KAEAV?$allocator@_K@0@@Z
pdata	ENDS
;	COMDAT pdata
pdata	SEGMENT
$pdata$??$_Destroy_range@V?$allocator@H@std@@@std@@YAXPEAHQEAHAEAV?$allocator@H@0@@Z DD imagerel $LN3
	DD	imagerel $LN3+18
	DD	imagerel $unwind$??$_Destroy_range@V?$allocator@H@std@@@std@@YAXPEAHQEAHAEAV?$allocator@H@0@@Z
pdata	ENDS
;	COMDAT pdata
pdata	SEGMENT
$pdata$??$_Deallocate@$0BA@$0A@@std@@YAXPEAX_K@Z DD imagerel $LN4
	DD	imagerel $LN4+63
	DD	imagerel $unwind$??$_Deallocate@$0BA@$0A@@std@@YAXPEAX_K@Z
pdata	ENDS
;	COMDAT pdata
pdata	SEGMENT
$pdata$?call@?$functor1@HH$0A@Utvec4@glm@@@detail@glm@@SA?AU?$tvec4@H$0A@@3@P6AHH@ZAEBU43@@Z DD imagerel $LN3
	DD	imagerel $LN3+124
	DD	imagerel $unwind$?call@?$functor1@HH$0A@Utvec4@glm@@@detail@glm@@SA?AU?$tvec4@H$0A@@3@P6AHH@ZAEBU43@@Z
pdata	ENDS
;	COMDAT pdata
pdata	SEGMENT
$pdata$??$_Resize_reallocate@U_Value_init_tag@std@@@?$vector@T__m128i@@V?$allocator@T__m128i@@@std@@@std@@AEAAX_KAEBU_Value_init_tag@1@@Z DD imagerel $LN11
	DD	imagerel $LN11+336
	DD	imagerel $unwind$??$_Resize_reallocate@U_Value_init_tag@std@@@?$vector@T__m128i@@V?$allocator@T__m128i@@@std@@@std@@AEAAX_KAEBU_Value_init_tag@1@@Z
pdata	ENDS
;	COMDAT pdata
pdata	SEGMENT
$pdata$?catch$0@?0???$_Resize_reallocate@U_Value_init_tag@std@@@?$vector@T__m128i@@V?$allocator@T__m128i@@@std@@@std@@AEAAX_KAEBU_Value_init_tag@1@@Z@4HA DD imagerel ?catch$0@?0???$_Resize_reallocate@U_Value_init_tag@std@@@?$vector@T__m128i@@V?$allocator@T__m128i@@@std@@@std@@AEAAX_KAEBU_Value_init_tag@1@@Z@4HA
	DD	imagerel ?catch$0@?0???$_Resize_reallocate@U_Value_init_tag@std@@@?$vector@T__m128i@@V?$allocator@T__m128i@@@std@@@std@@AEAAX_KAEBU_Value_init_tag@1@@Z@4HA+78
	DD	imagerel $unwind$?catch$0@?0???$_Resize_reallocate@U_Value_init_tag@std@@@?$vector@T__m128i@@V?$allocator@T__m128i@@@std@@@std@@AEAAX_KAEBU_Value_init_tag@1@@Z@4HA
pdata	ENDS
;	COMDAT pdata
pdata	SEGMENT
$pdata$??$_Uninitialized_value_construct_n@V?$allocator@T__m128i@@@std@@@std@@YAPEAT__m128i@@PEAT1@_KAEAV?$allocator@T__m128i@@@0@@Z DD imagerel $LN7
	DD	imagerel $LN7+155
	DD	imagerel $unwind$??$_Uninitialized_value_construct_n@V?$allocator@T__m128i@@@std@@@std@@YAPEAT__m128i@@PEAT1@_KAEAV?$allocator@T__m128i@@@0@@Z
pdata	ENDS
;	COMDAT pdata
pdata	SEGMENT
$pdata$?dtor$0@?0???$_Uninitialized_value_construct_n@V?$allocator@T__m128i@@@std@@@std@@YAPEAT__m128i@@PEAT1@_KAEAV?$allocator@T__m128i@@@0@@Z@4HA DD imagerel ?dtor$0@?0???$_Uninitialized_value_construct_n@V?$allocator@T__m128i@@@std@@@std@@YAPEAT__m128i@@PEAT1@_KAEAV?$allocator@T__m128i@@@0@@Z@4HA
	DD	imagerel ?dtor$0@?0???$_Uninitialized_value_construct_n@V?$allocator@T__m128i@@@std@@@std@@YAPEAT__m128i@@PEAT1@_KAEAV?$allocator@T__m128i@@@0@@Z@4HA+35
	DD	imagerel $unwind$?dtor$0@?0???$_Uninitialized_value_construct_n@V?$allocator@T__m128i@@@std@@@std@@YAPEAT__m128i@@PEAT1@_KAEAV?$allocator@T__m128i@@@0@@Z@4HA
pdata	ENDS
;	COMDAT pdata
pdata	SEGMENT
$pdata$??$_Deallocate_plain@V?$allocator@U_Container_proxy@std@@@std@@@std@@YAXAEAV?$allocator@U_Container_proxy@std@@@0@QEAU_Container_proxy@0@@Z DD imagerel $LN3
	DD	imagerel $LN3+43
	DD	imagerel $unwind$??$_Deallocate_plain@V?$allocator@U_Container_proxy@std@@@std@@@std@@YAXAEAV?$allocator@U_Container_proxy@std@@@0@QEAU_Container_proxy@0@@Z
pdata	ENDS
;	COMDAT pdata
pdata	SEGMENT
$pdata$??$_Unfancy@U_Container_proxy@std@@@std@@YAPEAU_Container_proxy@0@PEAU10@@Z DD imagerel $LN3
	DD	imagerel $LN3+13
	DD	imagerel $unwind$??$_Unfancy@U_Container_proxy@std@@@std@@YAPEAU_Container_proxy@0@PEAU10@@Z
pdata	ENDS
;	COMDAT pdata
pdata	SEGMENT
$pdata$??$_Construct_in_place@U_Container_proxy@std@@PEAU_Container_base12@2@@std@@YAXAEAU_Container_proxy@0@$$QEAPEAU_Container_base12@0@@Z DD imagerel $LN3
	DD	imagerel $LN3+80
	DD	imagerel $unwind$??$_Construct_in_place@U_Container_proxy@std@@PEAU_Container_base12@2@@std@@YAXAEAU_Container_proxy@0@$$QEAPEAU_Container_base12@0@@Z
pdata	ENDS
;	COMDAT pdata
pdata	SEGMENT
$pdata$??$forward@AEBV?$allocator@U?$tvec2@I$0A@@glm@@@std@@@std@@YAAEBV?$allocator@U?$tvec2@I$0A@@glm@@@0@AEBV10@@Z DD imagerel $LN3
	DD	imagerel $LN3+13
	DD	imagerel $unwind$??$forward@AEBV?$allocator@U?$tvec2@I$0A@@glm@@@std@@@std@@YAAEBV?$allocator@U?$tvec2@I$0A@@glm@@@0@AEBV10@@Z
pdata	ENDS
;	COMDAT pdata
pdata	SEGMENT
$pdata$??0?$_Container_proxy_ptr12@V?$allocator@U_Container_proxy@std@@@std@@@std@@QEAA@AEAV?$allocator@U_Container_proxy@std@@@1@AEAU_Container_base12@1@@Z DD imagerel $LN3
	DD	imagerel $LN3+135
	DD	imagerel $unwind$??0?$_Container_proxy_ptr12@V?$allocator@U_Container_proxy@std@@@std@@@std@@QEAA@AEAV?$allocator@U_Container_proxy@std@@@1@AEAU_Container_base12@1@@Z
pdata	ENDS
;	COMDAT pdata
pdata	SEGMENT
$pdata$??1?$_Container_proxy_ptr12@V?$allocator@U_Container_proxy@std@@@std@@@std@@QEAA@XZ DD imagerel $LN4
	DD	imagerel $LN4+49
	DD	imagerel $unwind$??1?$_Container_proxy_ptr12@V?$allocator@U_Container_proxy@std@@@std@@@std@@QEAA@XZ
pdata	ENDS
;	COMDAT pdata
pdata	SEGMENT
$pdata$??1?$_Tidy_guard@V?$vector@U?$tvec2@I$0A@@glm@@V?$allocator@U?$tvec2@I$0A@@glm@@@std@@@std@@@std@@QEAA@XZ DD imagerel $LN4
	DD	imagerel $LN4+40
	DD	imagerel $unwind$??1?$_Tidy_guard@V?$vector@U?$tvec2@I$0A@@glm@@V?$allocator@U?$tvec2@I$0A@@glm@@@std@@@std@@@std@@QEAA@XZ
pdata	ENDS
;	COMDAT pdata
pdata	SEGMENT
$pdata$??$_Uninitialized_value_construct_n@V?$allocator@U?$tvec2@I$0A@@glm@@@std@@@std@@YAPEAU?$tvec2@I$0A@@glm@@PEAU12@_KAEAV?$allocator@U?$tvec2@I$0A@@glm@@@0@@Z DD imagerel $LN7
	DD	imagerel $LN7+155
	DD	imagerel $unwind$??$_Uninitialized_value_construct_n@V?$allocator@U?$tvec2@I$0A@@glm@@@std@@@std@@YAPEAU?$tvec2@I$0A@@glm@@PEAU12@_KAEAV?$allocator@U?$tvec2@I$0A@@glm@@@0@@Z
pdata	ENDS
;	COMDAT pdata
pdata	SEGMENT
$pdata$?dtor$0@?0???$_Uninitialized_value_construct_n@V?$allocator@U?$tvec2@I$0A@@glm@@@std@@@std@@YAPEAU?$tvec2@I$0A@@glm@@PEAU12@_KAEAV?$allocator@U?$tvec2@I$0A@@glm@@@0@@Z@4HA DD imagerel ?dtor$0@?0???$_Uninitialized_value_construct_n@V?$allocator@U?$tvec2@I$0A@@glm@@@std@@@std@@YAPEAU?$tvec2@I$0A@@glm@@PEAU12@_KAEAV?$allocator@U?$tvec2@I$0A@@glm@@@0@@Z@4HA
	DD	imagerel ?dtor$0@?0???$_Uninitialized_value_construct_n@V?$allocator@U?$tvec2@I$0A@@glm@@@std@@@std@@YAPEAU?$tvec2@I$0A@@glm@@PEAU12@_KAEAV?$allocator@U?$tvec2@I$0A@@glm@@@0@@Z@4HA+35
	DD	imagerel $unwind$?dtor$0@?0???$_Uninitialized_value_construct_n@V?$allocator@U?$tvec2@I$0A@@glm@@@std@@@std@@YAPEAU?$tvec2@I$0A@@glm@@PEAU12@_KAEAV?$allocator@U?$tvec2@I$0A@@glm@@@0@@Z@4HA
pdata	ENDS
;	COMDAT pdata
pdata	SEGMENT
$pdata$??$forward@AEBV?$allocator@_K@std@@@std@@YAAEBV?$allocator@_K@0@AEBV10@@Z DD imagerel $LN3
	DD	imagerel $LN3+13
	DD	imagerel $unwind$??$forward@AEBV?$allocator@_K@std@@@std@@YAAEBV?$allocator@_K@0@AEBV10@@Z
pdata	ENDS
;	COMDAT pdata
pdata	SEGMENT
$pdata$??1?$_Tidy_guard@V?$vector@_KV?$allocator@_K@std@@@std@@@std@@QEAA@XZ DD imagerel $LN4
	DD	imagerel $LN4+40
	DD	imagerel $unwind$??1?$_Tidy_guard@V?$vector@_KV?$allocator@_K@std@@@std@@@std@@QEAA@XZ
pdata	ENDS
;	COMDAT pdata
pdata	SEGMENT
$pdata$??$_Uninitialized_value_construct_n@V?$allocator@_K@std@@@std@@YAPEA_KPEA_K_KAEAV?$allocator@_K@0@@Z DD imagerel $LN7
	DD	imagerel $LN7+215
	DD	imagerel $unwind$??$_Uninitialized_value_construct_n@V?$allocator@_K@std@@@std@@YAPEA_KPEA_K_KAEAV?$allocator@_K@0@@Z
pdata	ENDS
;	COMDAT pdata
pdata	SEGMENT
$pdata$?dtor$0@?0???$_Uninitialized_value_construct_n@V?$allocator@_K@std@@@std@@YAPEA_KPEA_K_KAEAV?$allocator@_K@0@@Z@4HA DD imagerel ?dtor$0@?0???$_Uninitialized_value_construct_n@V?$allocator@_K@std@@@std@@YAPEA_KPEA_K_KAEAV?$allocator@_K@0@@Z@4HA
	DD	imagerel ?dtor$0@?0???$_Uninitialized_value_construct_n@V?$allocator@_K@std@@@std@@YAPEA_KPEA_K_KAEAV?$allocator@_K@0@@Z@4HA+35
	DD	imagerel $unwind$?dtor$0@?0???$_Uninitialized_value_construct_n@V?$allocator@_K@std@@@std@@YAPEA_KPEA_K_KAEAV?$allocator@_K@0@@Z@4HA
pdata	ENDS
;	COMDAT pdata
pdata	SEGMENT
$pdata$??$_Resize_reallocate@U_Value_init_tag@std@@@?$vector@HV?$allocator@H@std@@@std@@AEAAX_KAEBU_Value_init_tag@1@@Z DD imagerel $LN11
	DD	imagerel $LN11+333
	DD	imagerel $unwind$??$_Resize_reallocate@U_Value_init_tag@std@@@?$vector@HV?$allocator@H@std@@@std@@AEAAX_KAEBU_Value_init_tag@1@@Z
pdata	ENDS
;	COMDAT pdata
pdata	SEGMENT
$pdata$?catch$0@?0???$_Resize_reallocate@U_Value_init_tag@std@@@?$vector@HV?$allocator@H@std@@@std@@AEAAX_KAEBU_Value_init_tag@1@@Z@4HA DD imagerel ?catch$0@?0???$_Resize_reallocate@U_Value_init_tag@std@@@?$vector@HV?$allocator@H@std@@@std@@AEAAX_KAEBU_Value_init_tag@1@@Z@4HA
	DD	imagerel ?catch$0@?0???$_Resize_reallocate@U_Value_init_tag@std@@@?$vector@HV?$allocator@H@std@@@std@@AEAAX_KAEBU_Value_init_tag@1@@Z@4HA+78
	DD	imagerel $unwind$?catch$0@?0???$_Resize_reallocate@U_Value_init_tag@std@@@?$vector@HV?$allocator@H@std@@@std@@AEAAX_KAEBU_Value_init_tag@1@@Z@4HA
pdata	ENDS
;	COMDAT pdata
pdata	SEGMENT
$pdata$??$_Uninitialized_value_construct_n@V?$allocator@H@std@@@std@@YAPEAHPEAH_KAEAV?$allocator@H@0@@Z DD imagerel $LN7
	DD	imagerel $LN7+215
	DD	imagerel $unwind$??$_Uninitialized_value_construct_n@V?$allocator@H@std@@@std@@YAPEAHPEAH_KAEAV?$allocator@H@0@@Z
pdata	ENDS
;	COMDAT pdata
pdata	SEGMENT
$pdata$?dtor$0@?0???$_Uninitialized_value_construct_n@V?$allocator@H@std@@@std@@YAPEAHPEAH_KAEAV?$allocator@H@0@@Z@4HA DD imagerel ?dtor$0@?0???$_Uninitialized_value_construct_n@V?$allocator@H@std@@@std@@YAPEAHPEAH_KAEAV?$allocator@H@0@@Z@4HA
	DD	imagerel ?dtor$0@?0???$_Uninitialized_value_construct_n@V?$allocator@H@std@@@std@@YAPEAHPEAH_KAEAV?$allocator@H@0@@Z@4HA+35
	DD	imagerel $unwind$?dtor$0@?0???$_Uninitialized_value_construct_n@V?$allocator@H@std@@@std@@YAPEAHPEAH_KAEAV?$allocator@H@0@@Z@4HA
pdata	ENDS
;	COMDAT pdata
pdata	SEGMENT
$pdata$??$addressof@U_Container_base12@std@@@std@@YAPEAU_Container_base12@0@AEAU10@@Z DD imagerel $LN3
	DD	imagerel $LN3+13
	DD	imagerel $unwind$??$addressof@U_Container_base12@std@@@std@@YAPEAU_Container_base12@0@AEAU10@@Z
pdata	ENDS
;	COMDAT pdata
pdata	SEGMENT
$pdata$??$_Get_size_of_n@$0BA@@std@@YA_K_K@Z DD imagerel $LN4
	DD	imagerel $LN4+64
	DD	imagerel $unwind$??$_Get_size_of_n@$0BA@@std@@YA_K_K@Z
pdata	ENDS
;	COMDAT pdata
pdata	SEGMENT
$pdata$??$_Allocate@$0BA@U_Default_allocate_traits@std@@$0A@@std@@YAPEAX_K@Z DD imagerel $LN5
	DD	imagerel $LN5+61
	DD	imagerel $unwind$??$_Allocate@$0BA@U_Default_allocate_traits@std@@$0A@@std@@YAPEAX_K@Z
pdata	ENDS
;	COMDAT pdata
pdata	SEGMENT
$pdata$??$min@_K@std@@YAAEB_KAEB_K0@Z DD imagerel $LN5
	DD	imagerel $LN5+74
	DD	imagerel $unwind$??$min@_K@std@@YAAEB_KAEB_K0@Z
pdata	ENDS
;	COMDAT pdata
pdata	SEGMENT
$pdata$??$_Get_size_of_n@$07@std@@YA_K_K@Z DD imagerel $LN4
	DD	imagerel $LN4+67
	DD	imagerel $unwind$??$_Get_size_of_n@$07@std@@YA_K_K@Z
pdata	ENDS
;	COMDAT pdata
pdata	SEGMENT
$pdata$??$_Uninitialized_move@PEAT__m128i@@V?$allocator@T__m128i@@@std@@@std@@YAPEAT__m128i@@QEAT1@0PEAT1@AEAV?$allocator@T__m128i@@@0@@Z DD imagerel $LN7
	DD	imagerel $LN7+284
	DD	imagerel $unwind$??$_Uninitialized_move@PEAT__m128i@@V?$allocator@T__m128i@@@std@@@std@@YAPEAT__m128i@@QEAT1@0PEAT1@AEAV?$allocator@T__m128i@@@0@@Z
pdata	ENDS
;	COMDAT pdata
pdata	SEGMENT
$pdata$?dtor$0@?0???$_Uninitialized_move@PEAT__m128i@@V?$allocator@T__m128i@@@std@@@std@@YAPEAT__m128i@@QEAT1@0PEAT1@AEAV?$allocator@T__m128i@@@0@@Z@4HA DD imagerel ?dtor$0@?0???$_Uninitialized_move@PEAT__m128i@@V?$allocator@T__m128i@@@std@@@std@@YAPEAT__m128i@@QEAT1@0PEAT1@AEAV?$allocator@T__m128i@@@0@@Z@4HA
	DD	imagerel ?dtor$0@?0???$_Uninitialized_move@PEAT__m128i@@V?$allocator@T__m128i@@@std@@@std@@YAPEAT__m128i@@QEAT1@0PEAT1@AEAV?$allocator@T__m128i@@@0@@Z@4HA+35
	DD	imagerel $unwind$?dtor$0@?0???$_Uninitialized_move@PEAT__m128i@@V?$allocator@T__m128i@@@std@@@std@@YAPEAT__m128i@@QEAT1@0PEAT1@AEAV?$allocator@T__m128i@@@0@@Z@4HA
pdata	ENDS
;	COMDAT pdata
pdata	SEGMENT
$pdata$??0?$_Uninitialized_backout_al@V?$allocator@T__m128i@@@std@@@std@@QEAA@PEAT__m128i@@AEAV?$allocator@T__m128i@@@1@@Z DD imagerel $LN3
	DD	imagerel $LN3+64
	DD	imagerel $unwind$??0?$_Uninitialized_backout_al@V?$allocator@T__m128i@@@std@@@std@@QEAA@PEAT__m128i@@AEAV?$allocator@T__m128i@@@1@@Z
pdata	ENDS
;	COMDAT pdata
pdata	SEGMENT
$pdata$??1?$_Uninitialized_backout_al@V?$allocator@T__m128i@@@std@@@std@@QEAA@XZ DD imagerel $LN3
	DD	imagerel $LN3+47
	DD	imagerel $unwind$??1?$_Uninitialized_backout_al@V?$allocator@T__m128i@@@std@@@std@@QEAA@XZ
pdata	ENDS
;	COMDAT pdata
pdata	SEGMENT
$pdata$?_Release@?$_Uninitialized_backout_al@V?$allocator@T__m128i@@@std@@@std@@QEAAPEAT__m128i@@XZ DD imagerel $LN3
	DD	imagerel $LN3+34
	DD	imagerel $unwind$?_Release@?$_Uninitialized_backout_al@V?$allocator@T__m128i@@@std@@@std@@QEAAPEAT__m128i@@XZ
pdata	ENDS
;	COMDAT pdata
pdata	SEGMENT
$pdata$??$_Emplace_back@$$V@?$_Uninitialized_backout_al@V?$allocator@T__m128i@@@std@@@std@@QEAAXXZ DD imagerel $LN3
	DD	imagerel $LN3+69
	DD	imagerel $unwind$??$_Emplace_back@$$V@?$_Uninitialized_backout_al@V?$allocator@T__m128i@@@std@@@std@@QEAAXXZ
pdata	ENDS
;	COMDAT pdata
pdata	SEGMENT
$pdata$?deallocate@?$_Default_allocator_traits@V?$allocator@U_Container_proxy@std@@@std@@@std@@SAXAEAV?$allocator@U_Container_proxy@std@@@2@QEAU_Container_proxy@2@_K@Z DD imagerel $LN3
	DD	imagerel $LN3+45
	DD	imagerel $unwind$?deallocate@?$_Default_allocator_traits@V?$allocator@U_Container_proxy@std@@@std@@@std@@SAXAEAV?$allocator@U_Container_proxy@std@@@2@QEAU_Container_proxy@2@_K@Z
pdata	ENDS
;	COMDAT pdata
pdata	SEGMENT
$pdata$??$addressof@U_Container_proxy@std@@@std@@YAPEAU_Container_proxy@0@AEAU10@@Z DD imagerel $LN3
	DD	imagerel $LN3+13
	DD	imagerel $unwind$??$addressof@U_Container_proxy@std@@@std@@YAPEAU_Container_proxy@0@AEAU10@@Z
pdata	ENDS
;	COMDAT pdata
pdata	SEGMENT
$pdata$??$_Voidify_iter@PEAU_Container_proxy@std@@@std@@YAPEAXPEAU_Container_proxy@0@@Z DD imagerel $LN3
	DD	imagerel $LN3+13
	DD	imagerel $unwind$??$_Voidify_iter@PEAU_Container_proxy@std@@@std@@YAPEAXPEAU_Container_proxy@0@@Z
pdata	ENDS
;	COMDAT pdata
pdata	SEGMENT
$pdata$??$forward@PEAU_Container_base12@std@@@std@@YA$$QEAPEAU_Container_base12@0@AEAPEAU10@@Z DD imagerel $LN3
	DD	imagerel $LN3+13
	DD	imagerel $unwind$??$forward@PEAU_Container_base12@std@@@std@@YA$$QEAPEAU_Container_base12@0@AEAPEAU10@@Z
pdata	ENDS
;	COMDAT pdata
pdata	SEGMENT
$pdata$??0?$_Uninitialized_backout_al@V?$allocator@U?$tvec2@I$0A@@glm@@@std@@@std@@QEAA@PEAU?$tvec2@I$0A@@glm@@AEAV?$allocator@U?$tvec2@I$0A@@glm@@@1@@Z DD imagerel $LN3
	DD	imagerel $LN3+64
	DD	imagerel $unwind$??0?$_Uninitialized_backout_al@V?$allocator@U?$tvec2@I$0A@@glm@@@std@@@std@@QEAA@PEAU?$tvec2@I$0A@@glm@@AEAV?$allocator@U?$tvec2@I$0A@@glm@@@1@@Z
pdata	ENDS
;	COMDAT pdata
pdata	SEGMENT
$pdata$??1?$_Uninitialized_backout_al@V?$allocator@U?$tvec2@I$0A@@glm@@@std@@@std@@QEAA@XZ DD imagerel $LN3
	DD	imagerel $LN3+47
	DD	imagerel $unwind$??1?$_Uninitialized_backout_al@V?$allocator@U?$tvec2@I$0A@@glm@@@std@@@std@@QEAA@XZ
pdata	ENDS
;	COMDAT pdata
pdata	SEGMENT
$pdata$?_Release@?$_Uninitialized_backout_al@V?$allocator@U?$tvec2@I$0A@@glm@@@std@@@std@@QEAAPEAU?$tvec2@I$0A@@glm@@XZ DD imagerel $LN3
	DD	imagerel $LN3+34
	DD	imagerel $unwind$?_Release@?$_Uninitialized_backout_al@V?$allocator@U?$tvec2@I$0A@@glm@@@std@@@std@@QEAAPEAU?$tvec2@I$0A@@glm@@XZ
pdata	ENDS
;	COMDAT pdata
pdata	SEGMENT
$pdata$??$_Emplace_back@$$V@?$_Uninitialized_backout_al@V?$allocator@U?$tvec2@I$0A@@glm@@@std@@@std@@QEAAXXZ DD imagerel $LN3
	DD	imagerel $LN3+69
	DD	imagerel $unwind$??$_Emplace_back@$$V@?$_Uninitialized_backout_al@V?$allocator@U?$tvec2@I$0A@@glm@@@std@@@std@@QEAAXXZ
pdata	ENDS
;	COMDAT pdata
pdata	SEGMENT
$pdata$??$_Unfancy@_K@std@@YAPEA_KPEA_K@Z DD imagerel $LN3
	DD	imagerel $LN3+13
	DD	imagerel $unwind$??$_Unfancy@_K@std@@YAPEA_KPEA_K@Z
pdata	ENDS
;	COMDAT pdata
pdata	SEGMENT
$pdata$??$_Zero_range@PEA_K@std@@YAPEA_KQEA_K0@Z DD imagerel $LN3
	DD	imagerel $LN3+87
	DD	imagerel $unwind$??$_Zero_range@PEA_K@std@@YAPEA_KQEA_K0@Z
pdata	ENDS
;	COMDAT pdata
pdata	SEGMENT
$pdata$??0?$_Uninitialized_backout_al@V?$allocator@_K@std@@@std@@QEAA@PEA_KAEAV?$allocator@_K@1@@Z DD imagerel $LN3
	DD	imagerel $LN3+64
	DD	imagerel $unwind$??0?$_Uninitialized_backout_al@V?$allocator@_K@std@@@std@@QEAA@PEA_KAEAV?$allocator@_K@1@@Z
pdata	ENDS
;	COMDAT pdata
pdata	SEGMENT
$pdata$??1?$_Uninitialized_backout_al@V?$allocator@_K@std@@@std@@QEAA@XZ DD imagerel $LN3
	DD	imagerel $LN3+47
	DD	imagerel $unwind$??1?$_Uninitialized_backout_al@V?$allocator@_K@std@@@std@@QEAA@XZ
pdata	ENDS
;	COMDAT pdata
pdata	SEGMENT
$pdata$?_Release@?$_Uninitialized_backout_al@V?$allocator@_K@std@@@std@@QEAAPEA_KXZ DD imagerel $LN3
	DD	imagerel $LN3+34
	DD	imagerel $unwind$?_Release@?$_Uninitialized_backout_al@V?$allocator@_K@std@@@std@@QEAAPEA_KXZ
pdata	ENDS
;	COMDAT pdata
pdata	SEGMENT
$pdata$??$_Emplace_back@$$V@?$_Uninitialized_backout_al@V?$allocator@_K@std@@@std@@QEAAXXZ DD imagerel $LN3
	DD	imagerel $LN3+69
	DD	imagerel $unwind$??$_Emplace_back@$$V@?$_Uninitialized_backout_al@V?$allocator@_K@std@@@std@@QEAAXXZ
pdata	ENDS
;	COMDAT pdata
pdata	SEGMENT
$pdata$??$_Uninitialized_move@PEAHV?$allocator@H@std@@@std@@YAPEAHQEAH0PEAHAEAV?$allocator@H@0@@Z DD imagerel $LN7
	DD	imagerel $LN7+278
	DD	imagerel $unwind$??$_Uninitialized_move@PEAHV?$allocator@H@std@@@std@@YAPEAHQEAH0PEAHAEAV?$allocator@H@0@@Z
pdata	ENDS
;	COMDAT pdata
pdata	SEGMENT
$pdata$?dtor$0@?0???$_Uninitialized_move@PEAHV?$allocator@H@std@@@std@@YAPEAHQEAH0PEAHAEAV?$allocator@H@0@@Z@4HA DD imagerel ?dtor$0@?0???$_Uninitialized_move@PEAHV?$allocator@H@std@@@std@@YAPEAHQEAH0PEAHAEAV?$allocator@H@0@@Z@4HA
	DD	imagerel ?dtor$0@?0???$_Uninitialized_move@PEAHV?$allocator@H@std@@@std@@YAPEAHQEAH0PEAHAEAV?$allocator@H@0@@Z@4HA+35
	DD	imagerel $unwind$?dtor$0@?0???$_Uninitialized_move@PEAHV?$allocator@H@std@@@std@@YAPEAHQEAH0PEAHAEAV?$allocator@H@0@@Z@4HA
pdata	ENDS
;	COMDAT pdata
pdata	SEGMENT
$pdata$??$_Unfancy@H@std@@YAPEAHPEAH@Z DD imagerel $LN3
	DD	imagerel $LN3+13
	DD	imagerel $unwind$??$_Unfancy@H@std@@YAPEAHPEAH@Z
pdata	ENDS
;	COMDAT pdata
pdata	SEGMENT
$pdata$??$_Zero_range@PEAH@std@@YAPEAHQEAH0@Z DD imagerel $LN3
	DD	imagerel $LN3+87
	DD	imagerel $unwind$??$_Zero_range@PEAH@std@@YAPEAHQEAH0@Z
pdata	ENDS
;	COMDAT pdata
pdata	SEGMENT
$pdata$??0?$_Uninitialized_backout_al@V?$allocator@H@std@@@std@@QEAA@PEAHAEAV?$allocator@H@1@@Z DD imagerel $LN3
	DD	imagerel $LN3+64
	DD	imagerel $unwind$??0?$_Uninitialized_backout_al@V?$allocator@H@std@@@std@@QEAA@PEAHAEAV?$allocator@H@1@@Z
pdata	ENDS
;	COMDAT pdata
pdata	SEGMENT
$pdata$??1?$_Uninitialized_backout_al@V?$allocator@H@std@@@std@@QEAA@XZ DD imagerel $LN3
	DD	imagerel $LN3+47
	DD	imagerel $unwind$??1?$_Uninitialized_backout_al@V?$allocator@H@std@@@std@@QEAA@XZ
pdata	ENDS
;	COMDAT pdata
pdata	SEGMENT
$pdata$?_Release@?$_Uninitialized_backout_al@V?$allocator@H@std@@@std@@QEAAPEAHXZ DD imagerel $LN3
	DD	imagerel $LN3+34
	DD	imagerel $unwind$?_Release@?$_Uninitialized_backout_al@V?$allocator@H@std@@@std@@QEAAPEAHXZ
pdata	ENDS
;	COMDAT pdata
pdata	SEGMENT
$pdata$??$_Emplace_back@$$V@?$_Uninitialized_backout_al@V?$allocator@H@std@@@std@@QEAAXXZ DD imagerel $LN3
	DD	imagerel $LN3+69
	DD	imagerel $unwind$??$_Emplace_back@$$V@?$_Uninitialized_backout_al@V?$allocator@H@std@@@std@@QEAAXXZ
pdata	ENDS
;	COMDAT pdata
pdata	SEGMENT
$pdata$??$_Allocate_manually_vector_aligned@U_Default_allocate_traits@std@@@std@@YAPEAX_K@Z DD imagerel $LN13
	DD	imagerel $LN13+259
	DD	imagerel $unwind$??$_Allocate_manually_vector_aligned@U_Default_allocate_traits@std@@@std@@YAPEAX_K@Z
pdata	ENDS
;	COMDAT pdata
pdata	SEGMENT
$pdata$??$_Get_size_of_n@$03@std@@YA_K_K@Z DD imagerel $LN4
	DD	imagerel $LN4+67
	DD	imagerel $unwind$??$_Get_size_of_n@$03@std@@YA_K_K@Z
pdata	ENDS
;	COMDAT pdata
pdata	SEGMENT
$pdata$??$_Get_unwrapped@AEBQEAT__m128i@@@std@@YA?A_TAEBQEAT__m128i@@@Z DD imagerel $LN3
	DD	imagerel $LN3+16
	DD	imagerel $unwind$??$_Get_unwrapped@AEBQEAT__m128i@@@std@@YA?A_TAEBQEAT__m128i@@@Z
pdata	ENDS
;	COMDAT pdata
pdata	SEGMENT
$pdata$??$move@AEAT__m128i@@@std@@YA$$QEAT__m128i@@AEAT1@@Z DD imagerel $LN3
	DD	imagerel $LN3+13
	DD	imagerel $unwind$??$move@AEAT__m128i@@@std@@YA$$QEAT__m128i@@AEAT1@@Z
pdata	ENDS
;	COMDAT pdata
pdata	SEGMENT
$pdata$??$_Unfancy@T__m128i@@@std@@YAPEAT__m128i@@PEAT1@@Z DD imagerel $LN3
	DD	imagerel $LN3+13
	DD	imagerel $unwind$??$_Unfancy@T__m128i@@@std@@YAPEAT__m128i@@PEAT1@@Z
pdata	ENDS
;	COMDAT pdata
pdata	SEGMENT
$pdata$??$_Copy_memmove@PEAT__m128i@@PEAT1@@std@@YAPEAT__m128i@@PEAT1@00@Z DD imagerel $LN3
	DD	imagerel $LN3+161
	DD	imagerel $unwind$??$_Copy_memmove@PEAT__m128i@@PEAT1@@std@@YAPEAT__m128i@@PEAT1@00@Z
pdata	ENDS
;	COMDAT pdata
pdata	SEGMENT
$pdata$??$_Emplace_back@T__m128i@@@?$_Uninitialized_backout_al@V?$allocator@T__m128i@@@std@@@std@@QEAAX$$QEAT__m128i@@@Z DD imagerel $LN3
	DD	imagerel $LN3+97
	DD	imagerel $unwind$??$_Emplace_back@T__m128i@@@?$_Uninitialized_backout_al@V?$allocator@T__m128i@@@std@@@std@@QEAAX$$QEAT__m128i@@@Z
pdata	ENDS
;	COMDAT pdata
pdata	SEGMENT
$pdata$??$construct@T__m128i@@$$V@?$_Default_allocator_traits@V?$allocator@T__m128i@@@std@@@std@@SAXAEAV?$allocator@T__m128i@@@1@QEAT__m128i@@@Z DD imagerel $LN3
	DD	imagerel $LN3+63
	DD	imagerel $unwind$??$construct@T__m128i@@$$V@?$_Default_allocator_traits@V?$allocator@T__m128i@@@std@@@std@@SAXAEAV?$allocator@T__m128i@@@1@QEAT__m128i@@@Z
pdata	ENDS
;	COMDAT pdata
pdata	SEGMENT
$pdata$??$_Unfancy@U?$tvec2@I$0A@@glm@@@std@@YAPEAU?$tvec2@I$0A@@glm@@PEAU12@@Z DD imagerel $LN3
	DD	imagerel $LN3+13
	DD	imagerel $unwind$??$_Unfancy@U?$tvec2@I$0A@@glm@@@std@@YAPEAU?$tvec2@I$0A@@glm@@PEAU12@@Z
pdata	ENDS
;	COMDAT pdata
pdata	SEGMENT
$pdata$??$construct@U?$tvec2@I$0A@@glm@@$$V@?$_Default_allocator_traits@V?$allocator@U?$tvec2@I$0A@@glm@@@std@@@std@@SAXAEAV?$allocator@U?$tvec2@I$0A@@glm@@@1@QEAU?$tvec2@I$0A@@glm@@@Z DD imagerel $LN3
	DD	imagerel $LN3+59
	DD	imagerel $unwind$??$construct@U?$tvec2@I$0A@@glm@@$$V@?$_Default_allocator_traits@V?$allocator@U?$tvec2@I$0A@@glm@@@std@@@std@@SAXAEAV?$allocator@U?$tvec2@I$0A@@glm@@@1@QEAU?$tvec2@I$0A@@glm@@@Z
pdata	ENDS
;	COMDAT pdata
pdata	SEGMENT
$pdata$??$_To_address@PEA_K@std@@YA?A_PAEBQEA_K@Z DD imagerel $LN3
	DD	imagerel $LN3+16
	DD	imagerel $unwind$??$_To_address@PEA_K@std@@YA?A_PAEBQEA_K@Z
pdata	ENDS
;	COMDAT pdata
pdata	SEGMENT
$pdata$??$construct@_K$$V@?$_Default_allocator_traits@V?$allocator@_K@std@@@std@@SAXAEAV?$allocator@_K@1@QEA_K@Z DD imagerel $LN3
	DD	imagerel $LN3+72
	DD	imagerel $unwind$??$construct@_K$$V@?$_Default_allocator_traits@V?$allocator@_K@std@@@std@@SAXAEAV?$allocator@_K@1@QEA_K@Z
pdata	ENDS
;	COMDAT pdata
pdata	SEGMENT
$pdata$??$_Get_unwrapped@AEBQEAH@std@@YA?A_TAEBQEAH@Z DD imagerel $LN3
	DD	imagerel $LN3+16
	DD	imagerel $unwind$??$_Get_unwrapped@AEBQEAH@std@@YA?A_TAEBQEAH@Z
pdata	ENDS
;	COMDAT pdata
pdata	SEGMENT
$pdata$??$move@AEAH@std@@YA$$QEAHAEAH@Z DD imagerel $LN3
	DD	imagerel $LN3+13
	DD	imagerel $unwind$??$move@AEAH@std@@YA$$QEAHAEAH@Z
pdata	ENDS
;	COMDAT pdata
pdata	SEGMENT
$pdata$??$_Copy_memmove@PEAHPEAH@std@@YAPEAHPEAH00@Z DD imagerel $LN3
	DD	imagerel $LN3+161
	DD	imagerel $unwind$??$_Copy_memmove@PEAHPEAH@std@@YAPEAHPEAH00@Z
pdata	ENDS
;	COMDAT pdata
pdata	SEGMENT
$pdata$??$_Emplace_back@H@?$_Uninitialized_backout_al@V?$allocator@H@std@@@std@@QEAAX$$QEAH@Z DD imagerel $LN3
	DD	imagerel $LN3+97
	DD	imagerel $unwind$??$_Emplace_back@H@?$_Uninitialized_backout_al@V?$allocator@H@std@@@std@@QEAAX$$QEAH@Z
pdata	ENDS
;	COMDAT pdata
pdata	SEGMENT
$pdata$??$_To_address@PEAH@std@@YA?A_PAEBQEAH@Z DD imagerel $LN3
	DD	imagerel $LN3+16
	DD	imagerel $unwind$??$_To_address@PEAH@std@@YA?A_PAEBQEAH@Z
pdata	ENDS
;	COMDAT pdata
pdata	SEGMENT
$pdata$??$construct@H$$V@?$_Default_allocator_traits@V?$allocator@H@std@@@std@@SAXAEAV?$allocator@H@1@QEAH@Z DD imagerel $LN3
	DD	imagerel $LN3+72
	DD	imagerel $unwind$??$construct@H$$V@?$_Default_allocator_traits@V?$allocator@H@std@@@std@@SAXAEAV?$allocator@H@1@QEAH@Z
pdata	ENDS
;	COMDAT pdata
pdata	SEGMENT
$pdata$??$_To_address@PEAT__m128i@@@std@@YA?A_PAEBQEAT__m128i@@@Z DD imagerel $LN3
	DD	imagerel $LN3+16
	DD	imagerel $unwind$??$_To_address@PEAT__m128i@@@std@@YA?A_PAEBQEAT__m128i@@@Z
pdata	ENDS
;	COMDAT pdata
pdata	SEGMENT
$pdata$??$forward@T__m128i@@@std@@YA$$QEAT__m128i@@AEAT1@@Z DD imagerel $LN3
	DD	imagerel $LN3+13
	DD	imagerel $unwind$??$forward@T__m128i@@@std@@YA$$QEAT__m128i@@AEAT1@@Z
pdata	ENDS
;	COMDAT pdata
pdata	SEGMENT
$pdata$??$construct@T__m128i@@T1@@?$_Default_allocator_traits@V?$allocator@T__m128i@@@std@@@std@@SAXAEAV?$allocator@T__m128i@@@1@QEAT__m128i@@$$QEAT3@@Z DD imagerel $LN3
	DD	imagerel $LN3+77
	DD	imagerel $unwind$??$construct@T__m128i@@T1@@?$_Default_allocator_traits@V?$allocator@T__m128i@@@std@@@std@@SAXAEAV?$allocator@T__m128i@@@1@QEAT__m128i@@$$QEAT3@@Z
pdata	ENDS
;	COMDAT pdata
pdata	SEGMENT
$pdata$??$_Voidify_iter@PEAT__m128i@@@std@@YAPEAXPEAT__m128i@@@Z DD imagerel $LN3
	DD	imagerel $LN3+13
	DD	imagerel $unwind$??$_Voidify_iter@PEAT__m128i@@@std@@YAPEAXPEAT__m128i@@@Z
pdata	ENDS
;	COMDAT pdata
pdata	SEGMENT
$pdata$??$_Voidify_iter@PEAU?$tvec2@I$0A@@glm@@@std@@YAPEAXPEAU?$tvec2@I$0A@@glm@@@Z DD imagerel $LN3
	DD	imagerel $LN3+13
	DD	imagerel $unwind$??$_Voidify_iter@PEAU?$tvec2@I$0A@@glm@@@std@@YAPEAXPEAU?$tvec2@I$0A@@glm@@@Z
pdata	ENDS
;	COMDAT pdata
pdata	SEGMENT
$pdata$??$_Voidify_iter@PEA_K@std@@YAPEAXPEA_K@Z DD imagerel $LN3
	DD	imagerel $LN3+13
	DD	imagerel $unwind$??$_Voidify_iter@PEA_K@std@@YAPEAXPEA_K@Z
pdata	ENDS
;	COMDAT pdata
pdata	SEGMENT
$pdata$??$forward@H@std@@YA$$QEAHAEAH@Z DD imagerel $LN3
	DD	imagerel $LN3+13
	DD	imagerel $unwind$??$forward@H@std@@YA$$QEAHAEAH@Z
pdata	ENDS
;	COMDAT pdata
pdata	SEGMENT
$pdata$??$construct@HH@?$_Default_allocator_traits@V?$allocator@H@std@@@std@@SAXAEAV?$allocator@H@1@QEAH$$QEAH@Z DD imagerel $LN3
	DD	imagerel $LN3+73
	DD	imagerel $unwind$??$construct@HH@?$_Default_allocator_traits@V?$allocator@H@std@@@std@@SAXAEAV?$allocator@H@1@QEAH$$QEAH@Z
pdata	ENDS
;	COMDAT pdata
pdata	SEGMENT
$pdata$??$_Voidify_iter@PEAH@std@@YAPEAXPEAH@Z DD imagerel $LN3
	DD	imagerel $LN3+13
	DD	imagerel $unwind$??$_Voidify_iter@PEAH@std@@YAPEAXPEAH@Z
pdata	ENDS
;	COMDAT __xmm@55555555555555555555555555555555
CONST	SEGMENT
__xmm@55555555555555555555555555555555 DB 'UUUUUUUUUUUUUUUU'
CONST	ENDS
;	COMDAT __xmm@33333333333333333333333333333333
CONST	SEGMENT
__xmm@33333333333333333333333333333333 DB '3333333333333333'
CONST	ENDS
;	COMDAT __xmm@0f0f0f0f0f0f0f0f0f0f0f0f0f0f0f0f
CONST	SEGMENT
__xmm@0f0f0f0f0f0f0f0f0f0f0f0f0f0f0f0f DB 0fH, 0fH, 0fH, 0fH, 0fH, 0fH, 0fH
	DB	0fH, 0fH, 0fH, 0fH, 0fH, 0fH, 0fH, 0fH, 0fH
CONST	ENDS
;	COMDAT __xmm@00ff00ff00ff00ff00ff00ff00ff00ff
CONST	SEGMENT
__xmm@00ff00ff00ff00ff00ff00ff00ff00ff DB 0ffH, 00H, 0ffH, 00H, 0ffH, 00H
	DB	0ffH, 00H, 0ffH, 00H, 0ffH, 00H, 0ffH, 00H, 0ffH, 00H
CONST	ENDS
;	COMDAT __xmm@0000ffff0000ffff0000ffff0000ffff
CONST	SEGMENT
__xmm@0000ffff0000ffff0000ffff0000ffff DB 0ffH, 0ffH, 00H, 00H, 0ffH, 0ffH
	DB	00H, 00H, 0ffH, 0ffH, 00H, 00H, 0ffH, 0ffH, 00H, 00H
CONST	ENDS
;	COMDAT __xmm@00000000000000000000000000000000
CONST	SEGMENT
__xmm@00000000000000000000000000000000 DB 00H, 00H, 00H, 00H, 00H, 00H, 00H
	DB	00H, 00H, 00H, 00H, 00H, 00H, 00H, 00H, 00H
CONST	ENDS
;	COMDAT rtc$TMZ
rtc$TMZ	SEGMENT
_RTC_Shutdown.rtc$TMZ DQ FLAT:_RTC_Shutdown
rtc$TMZ	ENDS
;	COMDAT rtc$IMZ
rtc$IMZ	SEGMENT
_RTC_InitBase.rtc$IMZ DQ FLAT:_RTC_InitBase
rtc$IMZ	ENDS
;	COMDAT ??_R1A@?0A@EA@bad_array_new_length@std@@8
rdata$r	SEGMENT
??_R1A@?0A@EA@bad_array_new_length@std@@8 DD imagerel ??_R0?AVbad_array_new_length@std@@@8 ; std::bad_array_new_length::`RTTI Base Class Descriptor at (0,-1,0,64)'
	DD	02H
	DD	00H
	DD	0ffffffffH
	DD	00H
	DD	040H
	DD	imagerel ??_R3bad_array_new_length@std@@8
rdata$r	ENDS
;	COMDAT ??_R2bad_array_new_length@std@@8
rdata$r	SEGMENT
??_R2bad_array_new_length@std@@8 DD imagerel ??_R1A@?0A@EA@bad_array_new_length@std@@8 ; std::bad_array_new_length::`RTTI Base Class Array'
	DD	imagerel ??_R1A@?0A@EA@bad_alloc@std@@8
	DD	imagerel ??_R1A@?0A@EA@exception@std@@8
	ORG $+3
rdata$r	ENDS
;	COMDAT ??_R3bad_array_new_length@std@@8
rdata$r	SEGMENT
??_R3bad_array_new_length@std@@8 DD 00H			; std::bad_array_new_length::`RTTI Class Hierarchy Descriptor'
	DD	00H
	DD	03H
	DD	imagerel ??_R2bad_array_new_length@std@@8
rdata$r	ENDS
;	COMDAT ??_R4bad_array_new_length@std@@6B@
rdata$r	SEGMENT
??_R4bad_array_new_length@std@@6B@ DD 01H		; std::bad_array_new_length::`RTTI Complete Object Locator'
	DD	00H
	DD	00H
	DD	imagerel ??_R0?AVbad_array_new_length@std@@@8
	DD	imagerel ??_R3bad_array_new_length@std@@8
	DD	imagerel ??_R4bad_array_new_length@std@@6B@
rdata$r	ENDS
;	COMDAT ??_R1A@?0A@EA@bad_alloc@std@@8
rdata$r	SEGMENT
??_R1A@?0A@EA@bad_alloc@std@@8 DD imagerel ??_R0?AVbad_alloc@std@@@8 ; std::bad_alloc::`RTTI Base Class Descriptor at (0,-1,0,64)'
	DD	01H
	DD	00H
	DD	0ffffffffH
	DD	00H
	DD	040H
	DD	imagerel ??_R3bad_alloc@std@@8
rdata$r	ENDS
;	COMDAT ??_R2bad_alloc@std@@8
rdata$r	SEGMENT
??_R2bad_alloc@std@@8 DD imagerel ??_R1A@?0A@EA@bad_alloc@std@@8 ; std::bad_alloc::`RTTI Base Class Array'
	DD	imagerel ??_R1A@?0A@EA@exception@std@@8
	ORG $+3
rdata$r	ENDS
;	COMDAT ??_R3bad_alloc@std@@8
rdata$r	SEGMENT
??_R3bad_alloc@std@@8 DD 00H				; std::bad_alloc::`RTTI Class Hierarchy Descriptor'
	DD	00H
	DD	02H
	DD	imagerel ??_R2bad_alloc@std@@8
rdata$r	ENDS
;	COMDAT ??_R4bad_alloc@std@@6B@
rdata$r	SEGMENT
??_R4bad_alloc@std@@6B@ DD 01H				; std::bad_alloc::`RTTI Complete Object Locator'
	DD	00H
	DD	00H
	DD	imagerel ??_R0?AVbad_alloc@std@@@8
	DD	imagerel ??_R3bad_alloc@std@@8
	DD	imagerel ??_R4bad_alloc@std@@6B@
rdata$r	ENDS
;	COMDAT ??_R1A@?0A@EA@exception@std@@8
rdata$r	SEGMENT
??_R1A@?0A@EA@exception@std@@8 DD imagerel ??_R0?AVexception@std@@@8 ; std::exception::`RTTI Base Class Descriptor at (0,-1,0,64)'
	DD	00H
	DD	00H
	DD	0ffffffffH
	DD	00H
	DD	040H
	DD	imagerel ??_R3exception@std@@8
rdata$r	ENDS
;	COMDAT ??_R2exception@std@@8
rdata$r	SEGMENT
??_R2exception@std@@8 DD imagerel ??_R1A@?0A@EA@exception@std@@8 ; std::exception::`RTTI Base Class Array'
	ORG $+3
rdata$r	ENDS
;	COMDAT ??_R3exception@std@@8
rdata$r	SEGMENT
??_R3exception@std@@8 DD 00H				; std::exception::`RTTI Class Hierarchy Descriptor'
	DD	00H
	DD	01H
	DD	imagerel ??_R2exception@std@@8
rdata$r	ENDS
;	COMDAT ??_R4exception@std@@6B@
rdata$r	SEGMENT
??_R4exception@std@@6B@ DD 01H				; std::exception::`RTTI Complete Object Locator'
	DD	00H
	DD	00H
	DD	imagerel ??_R0?AVexception@std@@@8
	DD	imagerel ??_R3exception@std@@8
	DD	imagerel ??_R4exception@std@@6B@
rdata$r	ENDS
;	COMDAT ??_C@_0BA@FOIKENOD@vector?5too?5long@
CONST	SEGMENT
??_C@_0BA@FOIKENOD@vector?5too?5long@ DB 'vector too long', 00H ; `string'
CONST	ENDS
;	COMDAT ??_C@_1DC@HHLCGOLC@?$AAx?$AA?4?$AAl?$AAe?$AAn?$AAg?$AAt?$AAh?$AA?$CI?$AA?$CJ?$AA?5?$AA?$DN?$AA?$DN?$AA?5?$AAy@
CONST	SEGMENT
??_C@_1DC@HHLCGOLC@?$AAx?$AA?4?$AAl?$AAe?$AAn?$AAg?$AAt?$AAh?$AA?$CI?$AA?$CJ?$AA?5?$AA?$DN?$AA?$DN?$AA?5?$AAy@ DB 'x'
	DB	00H, '.', 00H, 'l', 00H, 'e', 00H, 'n', 00H, 'g', 00H, 't', 00H
	DB	'h', 00H, '(', 00H, ')', 00H, ' ', 00H, '=', 00H, '=', 00H, ' '
	DB	00H, 'y', 00H, '.', 00H, 'l', 00H, 'e', 00H, 'n', 00H, 'g', 00H
	DB	't', 00H, 'h', 00H, '(', 00H, ')', 00H, 00H, 00H ; `string'
CONST	ENDS
;	COMDAT ??_C@_1NA@OPABFNEN@?$AAC?$AA?3?$AA?2?$AAU?$AAs?$AAe?$AAr?$AAs?$AA?2?$AAk?$AAs?$AAa?$AAr?$AAt?$AA?2@
CONST	SEGMENT
??_C@_1NA@OPABFNEN@?$AAC?$AA?3?$AA?2?$AAU?$AAs?$AAe?$AAr?$AAs?$AA?2?$AAk?$AAs?$AAa?$AAr?$AAt?$AA?2@ DB 'C'
	DB	00H, ':', 00H, '\', 00H, 'U', 00H, 's', 00H, 'e', 00H, 'r', 00H
	DB	's', 00H, '\', 00H, 'k', 00H, 's', 00H, 'a', 00H, 'r', 00H, 't'
	DB	00H, '\', 00H, 'O', 00H, 'n', 00H, 'e', 00H, 'D', 00H, 'r', 00H
	DB	'i', 00H, 'v', 00H, 'e', 00H, '\', 00H, 'D', 00H, 'e', 00H, 's'
	DB	00H, 'k', 00H, 't', 00H, 'o', 00H, 'p', 00H, '\', 00H, 'F', 00H
	DB	'l', 00H, 'a', 00H, 'p', 00H, 'p', 00H, 'y', 00H, 'B', 00H, 'i'
	DB	00H, 'r', 00H, 'd', 00H, '\', 00H, 'l', 00H, 'i', 00H, 'b', 00H
	DB	'r', 00H, 'a', 00H, 'r', 00H, 'i', 00H, 'e', 00H, 's', 00H, '\'
	DB	00H, 'e', 00H, 'x', 00H, 't', 00H, 'e', 00H, 'r', 00H, 'n', 00H
	DB	'a', 00H, 'l', 00H, '\', 00H, 'g', 00H, 'l', 00H, 'm', 00H, '\'
	DB	00H, 'g', 00H, 'l', 00H, 'm', 00H, '\', 00H, 'd', 00H, 'e', 00H
	DB	't', 00H, 'a', 00H, 'i', 00H, 'l', 00H, '\', 00H, 'f', 00H, 'u'
	DB	00H, 'n', 00H, 'c', 00H, '_', 00H, 'v', 00H, 'e', 00H, 'c', 00H
	DB	't', 00H, 'o', 00H, 'r', 00H, '_', 00H, 'r', 00H, 'e', 00H, 'l'
	DB	00H, 'a', 00H, 't', 00H, 'i', 00H, 'o', 00H, 'n', 00H, 'a', 00H
	DB	'l', 00H, '.', 00H, 'i', 00H, 'n', 00H, 'l', 00H, 00H, 00H ; `string'
CONST	ENDS
;	COMDAT ??_C@_1LG@LAANPDHN@?$AAC?$AA?3?$AA?2?$AAU?$AAs?$AAe?$AAr?$AAs?$AA?2?$AAk?$AAs?$AAa?$AAr?$AAt?$AA?2@
CONST	SEGMENT
??_C@_1LG@LAANPDHN@?$AAC?$AA?3?$AA?2?$AAU?$AAs?$AAe?$AAr?$AAs?$AA?2?$AAk?$AAs?$AAa?$AAr?$AAt?$AA?2@ DB 'C'
	DB	00H, ':', 00H, '\', 00H, 'U', 00H, 's', 00H, 'e', 00H, 'r', 00H
	DB	's', 00H, '\', 00H, 'k', 00H, 's', 00H, 'a', 00H, 'r', 00H, 't'
	DB	00H, '\', 00H, 'O', 00H, 'n', 00H, 'e', 00H, 'D', 00H, 'r', 00H
	DB	'i', 00H, 'v', 00H, 'e', 00H, '\', 00H, 'D', 00H, 'e', 00H, 's'
	DB	00H, 'k', 00H, 't', 00H, 'o', 00H, 'p', 00H, '\', 00H, 'F', 00H
	DB	'l', 00H, 'a', 00H, 'p', 00H, 'p', 00H, 'y', 00H, 'B', 00H, 'i'
	DB	00H, 'r', 00H, 'd', 00H, '\', 00H, 'l', 00H, 'i', 00H, 'b', 00H
	DB	'r', 00H, 'a', 00H, 'r', 00H, 'i', 00H, 'e', 00H, 's', 00H, '\'
	DB	00H, 'e', 00H, 'x', 00H, 't', 00H, 'e', 00H, 'r', 00H, 'n', 00H
	DB	'a', 00H, 'l', 00H, '\', 00H, 'g', 00H, 'l', 00H, 'm', 00H, '\'
	DB	00H, 'g', 00H, 'l', 00H, 'm', 00H, '\', 00H, 'd', 00H, 'e', 00H
	DB	't', 00H, 'a', 00H, 'i', 00H, 'l', 00H, '\', 00H, 't', 00H, 'y'
	DB	00H, 'p', 00H, 'e', 00H, '_', 00H, 'v', 00H, 'e', 00H, 'c', 00H
	DB	'4', 00H, '.', 00H, 'i', 00H, 'n', 00H, 'l', 00H, 00H, 00H ; `string'
CONST	ENDS
;	COMDAT ??_C@_1DK@BGNCJAPL@?$AAi?$AA?5?$AA?$DO?$AA?$DN?$AA?5?$AA0?$AA?5?$AA?$CG?$AA?$CG?$AA?5?$AAi?$AA?5?$AA?$DM?$AA?5?$AAt@
CONST	SEGMENT
??_C@_1DK@BGNCJAPL@?$AAi?$AA?5?$AA?$DO?$AA?$DN?$AA?5?$AA0?$AA?5?$AA?$CG?$AA?$CG?$AA?5?$AAi?$AA?5?$AA?$DM?$AA?5?$AAt@ DB 'i'
	DB	00H, ' ', 00H, '>', 00H, '=', 00H, ' ', 00H, '0', 00H, ' ', 00H
	DB	'&', 00H, '&', 00H, ' ', 00H, 'i', 00H, ' ', 00H, '<', 00H, ' '
	DB	00H, 't', 00H, 'h', 00H, 'i', 00H, 's', 00H, '-', 00H, '>', 00H
	DB	'l', 00H, 'e', 00H, 'n', 00H, 'g', 00H, 't', 00H, 'h', 00H, '('
	DB	00H, ')', 00H, 00H, 00H			; `string'
CONST	ENDS
;	COMDAT ??_C@_1HA@FACCKGGH@?$AA?$CC?$AAn?$AAu?$AAl?$AAl?$AA?5?$AAp?$AAo?$AAi?$AAn?$AAt?$AAe?$AAr?$AA?5?$AAc@
CONST	SEGMENT
??_C@_1HA@FACCKGGH@?$AA?$CC?$AAn?$AAu?$AAl?$AAl?$AA?5?$AAp?$AAo?$AAi?$AAn?$AAt?$AAe?$AAr?$AA?5?$AAc@ DB '"'
	DB	00H, 'n', 00H, 'u', 00H, 'l', 00H, 'l', 00H, ' ', 00H, 'p', 00H
	DB	'o', 00H, 'i', 00H, 'n', 00H, 't', 00H, 'e', 00H, 'r', 00H, ' '
	DB	00H, 'c', 00H, 'a', 00H, 'n', 00H, 'n', 00H, 'o', 00H, 't', 00H
	DB	' ', 00H, 'p', 00H, 'o', 00H, 'i', 00H, 'n', 00H, 't', 00H, ' '
	DB	00H, 't', 00H, 'o', 00H, ' ', 00H, 'a', 00H, ' ', 00H, 'b', 00H
	DB	'l', 00H, 'o', 00H, 'c', 00H, 'k', 00H, ' ', 00H, 'o', 00H, 'f'
	DB	00H, ' ', 00H, 'n', 00H, 'o', 00H, 'n', 00H, '-', 00H, 'z', 00H
	DB	'e', 00H, 'r', 00H, 'o', 00H, ' ', 00H, 's', 00H, 'i', 00H, 'z'
	DB	00H, 'e', 00H, '"', 00H, 00H, 00H		; `string'
CONST	ENDS
;	COMDAT ??_C@_0DG@KGHKKGBC@null?5pointer?5cannot?5point?5to?5a?5@
CONST	SEGMENT
??_C@_0DG@KGHKKGBC@null?5pointer?5cannot?5point?5to?5a?5@ DB 'null pointe'
	DB	'r cannot point to a block of non-zero size', 00H ; `string'
CONST	ENDS
;	COMDAT ??_C@_1EA@LEKOKFNB@?$AA?$CC?$AAv?$AAe?$AAc?$AAt?$AAo?$AAr?$AA?5?$AAs?$AAu?$AAb?$AAs?$AAc?$AAr?$AAi@
CONST	SEGMENT
??_C@_1EA@LEKOKFNB@?$AA?$CC?$AAv?$AAe?$AAc?$AAt?$AAo?$AAr?$AA?5?$AAs?$AAu?$AAb?$AAs?$AAc?$AAr?$AAi@ DB '"'
	DB	00H, 'v', 00H, 'e', 00H, 'c', 00H, 't', 00H, 'o', 00H, 'r', 00H
	DB	' ', 00H, 's', 00H, 'u', 00H, 'b', 00H, 's', 00H, 'c', 00H, 'r'
	DB	00H, 'i', 00H, 'p', 00H, 't', 00H, ' ', 00H, 'o', 00H, 'u', 00H
	DB	't', 00H, ' ', 00H, 'o', 00H, 'f', 00H, ' ', 00H, 'r', 00H, 'a'
	DB	00H, 'n', 00H, 'g', 00H, 'e', 00H, '"', 00H, 00H, 00H ; `string'
CONST	ENDS
;	COMDAT ??_C@_1MC@BJDJHFOD@?$AAC?$AA?3?$AA?2?$AAP?$AAr?$AAo?$AAg?$AAr?$AAa?$AAm?$AA?5?$AAF?$AAi?$AAl?$AAe@
CONST	SEGMENT
??_C@_1MC@BJDJHFOD@?$AAC?$AA?3?$AA?2?$AAP?$AAr?$AAo?$AAg?$AAr?$AAa?$AAm?$AA?5?$AAF?$AAi?$AAl?$AAe@ DB 'C'
	DB	00H, ':', 00H, '\', 00H, 'P', 00H, 'r', 00H, 'o', 00H, 'g', 00H
	DB	'r', 00H, 'a', 00H, 'm', 00H, ' ', 00H, 'F', 00H, 'i', 00H, 'l'
	DB	00H, 'e', 00H, 's', 00H, '\', 00H, 'M', 00H, 'i', 00H, 'c', 00H
	DB	'r', 00H, 'o', 00H, 's', 00H, 'o', 00H, 'f', 00H, 't', 00H, ' '
	DB	00H, 'V', 00H, 'i', 00H, 's', 00H, 'u', 00H, 'a', 00H, 'l', 00H
	DB	' ', 00H, 'S', 00H, 't', 00H, 'u', 00H, 'd', 00H, 'i', 00H, 'o'
	DB	00H, '\', 00H, '2', 00H, '0', 00H, '2', 00H, '2', 00H, '\', 00H
	DB	'C', 00H, 'o', 00H, 'm', 00H, 'm', 00H, 'u', 00H, 'n', 00H, 'i'
	DB	00H, 't', 00H, 'y', 00H, '\', 00H, 'V', 00H, 'C', 00H, '\', 00H
	DB	'T', 00H, 'o', 00H, 'o', 00H, 'l', 00H, 's', 00H, '\', 00H, 'M'
	DB	00H, 'S', 00H, 'V', 00H, 'C', 00H, '\', 00H, '1', 00H, '4', 00H
	DB	'.', 00H, '3', 00H, '2', 00H, '.', 00H, '3', 00H, '1', 00H, '3'
	DB	00H, '2', 00H, '6', 00H, '\', 00H, 'i', 00H, 'n', 00H, 'c', 00H
	DB	'l', 00H, 'u', 00H, 'd', 00H, 'e', 00H, '\', 00H, 'v', 00H, 'e'
	DB	00H, 'c', 00H, 't', 00H, 'o', 00H, 'r', 00H, 00H, 00H ; `string'
CONST	ENDS
;	COMDAT ??_C@_0GB@GDCALCPO@C?3?2Program?5Files?2Microsoft?5Visu@
CONST	SEGMENT
??_C@_0GB@GDCALCPO@C?3?2Program?5Files?2Microsoft?5Visu@ DB 'C:\Program F'
	DB	'iles\Microsoft Visual Studio\2022\Community\VC\Tools\MSVC\14.'
	DB	'32.31326\include\vector', 00H		; `string'
CONST	ENDS
;	COMDAT ??_C@_0BO@PFKOHNJC@vector?5subscript?5out?5of?5range@
CONST	SEGMENT
??_C@_0BO@PFKOHNJC@vector?5subscript?5out?5of?5range@ DB 'vector subscrip'
	DB	't out of range', 00H			; `string'
CONST	ENDS
;	COMDAT ??_C@_1CG@JNLFBNGN@?$AA?$CC?$AAi?$AAn?$AAv?$AAa?$AAl?$AAi?$AAd?$AA?5?$AAa?$AAr?$AAg?$AAu?$AAm?$AAe@
CONST	SEGMENT
??_C@_1CG@JNLFBNGN@?$AA?$CC?$AAi?$AAn?$AAv?$AAa?$AAl?$AAi?$AAd?$AA?5?$AAa?$AAr?$AAg?$AAu?$AAm?$AAe@ DB '"'
	DB	00H, 'i', 00H, 'n', 00H, 'v', 00H, 'a', 00H, 'l', 00H, 'i', 00H
	DB	'd', 00H, ' ', 00H, 'a', 00H, 'r', 00H, 'g', 00H, 'u', 00H, 'm'
	DB	00H, 'e', 00H, 'n', 00H, 't', 00H, '"', 00H, 00H, 00H ; `string'
CONST	ENDS
;	COMDAT ??_C@_11LOCGONAA@@
CONST	SEGMENT
??_C@_11LOCGONAA@@ DB 00H, 00H				; `string'
CONST	ENDS
;	COMDAT ??_C@_1ME@GEFGDEOM@?$AAC?$AA?3?$AA?2?$AAP?$AAr?$AAo?$AAg?$AAr?$AAa?$AAm?$AA?5?$AAF?$AAi?$AAl?$AAe@
CONST	SEGMENT
??_C@_1ME@GEFGDEOM@?$AAC?$AA?3?$AA?2?$AAP?$AAr?$AAo?$AAg?$AAr?$AAa?$AAm?$AA?5?$AAF?$AAi?$AAl?$AAe@ DB 'C'
	DB	00H, ':', 00H, '\', 00H, 'P', 00H, 'r', 00H, 'o', 00H, 'g', 00H
	DB	'r', 00H, 'a', 00H, 'm', 00H, ' ', 00H, 'F', 00H, 'i', 00H, 'l'
	DB	00H, 'e', 00H, 's', 00H, '\', 00H, 'M', 00H, 'i', 00H, 'c', 00H
	DB	'r', 00H, 'o', 00H, 's', 00H, 'o', 00H, 'f', 00H, 't', 00H, ' '
	DB	00H, 'V', 00H, 'i', 00H, 's', 00H, 'u', 00H, 'a', 00H, 'l', 00H
	DB	' ', 00H, 'S', 00H, 't', 00H, 'u', 00H, 'd', 00H, 'i', 00H, 'o'
	DB	00H, '\', 00H, '2', 00H, '0', 00H, '2', 00H, '2', 00H, '\', 00H
	DB	'C', 00H, 'o', 00H, 'm', 00H, 'm', 00H, 'u', 00H, 'n', 00H, 'i'
	DB	00H, 't', 00H, 'y', 00H, '\', 00H, 'V', 00H, 'C', 00H, '\', 00H
	DB	'T', 00H, 'o', 00H, 'o', 00H, 'l', 00H, 's', 00H, '\', 00H, 'M'
	DB	00H, 'S', 00H, 'V', 00H, 'C', 00H, '\', 00H, '1', 00H, '4', 00H
	DB	'.', 00H, '3', 00H, '2', 00H, '.', 00H, '3', 00H, '1', 00H, '3'
	DB	00H, '2', 00H, '6', 00H, '\', 00H, 'i', 00H, 'n', 00H, 'c', 00H
	DB	'l', 00H, 'u', 00H, 'd', 00H, 'e', 00H, '\', 00H, 'x', 00H, 'm'
	DB	00H, 'e', 00H, 'm', 00H, 'o', 00H, 'r', 00H, 'y', 00H, 00H, 00H ; `string'
CONST	ENDS
;	COMDAT ??_C@_0GC@DJFHHHKN@C?3?2Program?5Files?2Microsoft?5Visu@
CONST	SEGMENT
??_C@_0GC@DJFHHHKN@C?3?2Program?5Files?2Microsoft?5Visu@ DB 'C:\Program F'
	DB	'iles\Microsoft Visual Studio\2022\Community\VC\Tools\MSVC\14.'
	DB	'32.31326\include\xmemory', 00H		; `string'
CONST	ENDS
;	COMDAT ??_C@_02DKCKIIND@?$CFs@
CONST	SEGMENT
??_C@_02DKCKIIND@?$CFs@ DB '%s', 00H			; `string'
CONST	ENDS
;	COMDAT ??_C@_0BB@FCMFBGOM@invalid?5argument@
CONST	SEGMENT
??_C@_0BB@FCMFBGOM@invalid?5argument@ DB 'invalid argument', 00H ; `string'
CONST	ENDS
;	COMDAT _CT??_R0?AVexception@std@@@8??0exception@std@@QEAA@AEBV01@@Z24
xdata$x	SEGMENT
_CT??_R0?AVexception@std@@@8??0exception@std@@QEAA@AEBV01@@Z24 DD 00H
	DD	imagerel ??_R0?AVexception@std@@@8
	DD	00H
	DD	0ffffffffH
	ORG $+4
	DD	018H
	DD	imagerel ??0exception@std@@QEAA@AEBV01@@Z
xdata$x	ENDS
;	COMDAT ??_R0?AVexception@std@@@8
data$r	SEGMENT
??_R0?AVexception@std@@@8 DQ FLAT:??_7type_info@@6B@	; std::exception `RTTI Type Descriptor'
	DQ	0000000000000000H
	DB	'.?AVexception@std@@', 00H
data$r	ENDS
;	COMDAT _CT??_R0?AVbad_alloc@std@@@8??0bad_alloc@std@@QEAA@AEBV01@@Z24
xdata$x	SEGMENT
_CT??_R0?AVbad_alloc@std@@@8??0bad_alloc@std@@QEAA@AEBV01@@Z24 DD 010H
	DD	imagerel ??_R0?AVbad_alloc@std@@@8
	DD	00H
	DD	0ffffffffH
	ORG $+4
	DD	018H
	DD	imagerel ??0bad_alloc@std@@QEAA@AEBV01@@Z
xdata$x	ENDS
;	COMDAT ??_R0?AVbad_alloc@std@@@8
data$r	SEGMENT
??_R0?AVbad_alloc@std@@@8 DQ FLAT:??_7type_info@@6B@	; std::bad_alloc `RTTI Type Descriptor'
	DQ	0000000000000000H
	DB	'.?AVbad_alloc@std@@', 00H
data$r	ENDS
;	COMDAT _CT??_R0?AVbad_array_new_length@std@@@8??0bad_array_new_length@std@@QEAA@AEBV01@@Z24
xdata$x	SEGMENT
_CT??_R0?AVbad_array_new_length@std@@@8??0bad_array_new_length@std@@QEAA@AEBV01@@Z24 DD 00H
	DD	imagerel ??_R0?AVbad_array_new_length@std@@@8
	DD	00H
	DD	0ffffffffH
	ORG $+4
	DD	018H
	DD	imagerel ??0bad_array_new_length@std@@QEAA@AEBV01@@Z
xdata$x	ENDS
;	COMDAT ??_R0?AVbad_array_new_length@std@@@8
data$r	SEGMENT
??_R0?AVbad_array_new_length@std@@@8 DQ FLAT:??_7type_info@@6B@ ; std::bad_array_new_length `RTTI Type Descriptor'
	DQ	0000000000000000H
	DB	'.?AVbad_array_new_length@std@@', 00H
data$r	ENDS
;	COMDAT _CTA3?AVbad_array_new_length@std@@
xdata$x	SEGMENT
_CTA3?AVbad_array_new_length@std@@ DD 03H
	DD	imagerel _CT??_R0?AVbad_array_new_length@std@@@8??0bad_array_new_length@std@@QEAA@AEBV01@@Z24
	DD	imagerel _CT??_R0?AVbad_alloc@std@@@8??0bad_alloc@std@@QEAA@AEBV01@@Z24
	DD	imagerel _CT??_R0?AVexception@std@@@8??0exception@std@@QEAA@AEBV01@@Z24
xdata$x	ENDS
;	COMDAT _TI3?AVbad_array_new_length@std@@
xdata$x	SEGMENT
_TI3?AVbad_array_new_length@std@@ DD 00H
	DD	imagerel ??1bad_array_new_length@std@@UEAA@XZ
	DD	00H
	DD	imagerel _CTA3?AVbad_array_new_length@std@@
xdata$x	ENDS
;	COMDAT ??_C@_0BF@KINCDENJ@bad?5array?5new?5length@
CONST	SEGMENT
??_C@_0BF@KINCDENJ@bad?5array?5new?5length@ DB 'bad array new length', 00H ; `string'
CONST	ENDS
;	COMDAT ??_7bad_array_new_length@std@@6B@
CONST	SEGMENT
??_7bad_array_new_length@std@@6B@ DQ FLAT:??_R4bad_array_new_length@std@@6B@ ; std::bad_array_new_length::`vftable'
	DQ	FLAT:??_Ebad_array_new_length@std@@UEAAPEAXI@Z
	DQ	FLAT:?what@exception@std@@UEBAPEBDXZ
CONST	ENDS
;	COMDAT ??_7bad_alloc@std@@6B@
CONST	SEGMENT
??_7bad_alloc@std@@6B@ DQ FLAT:??_R4bad_alloc@std@@6B@	; std::bad_alloc::`vftable'
	DQ	FLAT:??_Ebad_alloc@std@@UEAAPEAXI@Z
	DQ	FLAT:?what@exception@std@@UEBAPEBDXZ
CONST	ENDS
;	COMDAT ??_C@_0BC@EOODALEL@Unknown?5exception@
CONST	SEGMENT
??_C@_0BC@EOODALEL@Unknown?5exception@ DB 'Unknown exception', 00H ; `string'
CONST	ENDS
;	COMDAT ??_7exception@std@@6B@
CONST	SEGMENT
??_7exception@std@@6B@ DQ FLAT:??_R4exception@std@@6B@	; std::exception::`vftable'
	DQ	FLAT:??_Eexception@std@@UEAAPEAXI@Z
	DQ	FLAT:?what@exception@std@@UEBAPEBDXZ
CONST	ENDS
;	COMDAT xdata
xdata	SEGMENT
$unwind$??$_Voidify_iter@PEAH@std@@YAPEAXPEAH@Z DD 010601H
	DD	07006H
xdata	ENDS
;	COMDAT xdata
xdata	SEGMENT
$unwind$??$construct@HH@?$_Default_allocator_traits@V?$allocator@H@std@@@std@@SAXAEAV?$allocator@H@1@QEAH$$QEAH@Z DD 021401H
	DD	070105214H
xdata	ENDS
;	COMDAT xdata
xdata	SEGMENT
$unwind$??$forward@H@std@@YA$$QEAHAEAH@Z DD 010601H
	DD	07006H
xdata	ENDS
;	COMDAT xdata
xdata	SEGMENT
$unwind$??$_Voidify_iter@PEA_K@std@@YAPEAXPEA_K@Z DD 010601H
	DD	07006H
xdata	ENDS
;	COMDAT xdata
xdata	SEGMENT
$unwind$??$_Voidify_iter@PEAU?$tvec2@I$0A@@glm@@@std@@YAPEAXPEAU?$tvec2@I$0A@@glm@@@Z DD 010601H
	DD	07006H
xdata	ENDS
;	COMDAT xdata
xdata	SEGMENT
$unwind$??$_Voidify_iter@PEAT__m128i@@@std@@YAPEAXPEAT__m128i@@@Z DD 010601H
	DD	07006H
xdata	ENDS
;	COMDAT xdata
xdata	SEGMENT
$unwind$??$construct@T__m128i@@T1@@?$_Default_allocator_traits@V?$allocator@T__m128i@@@std@@@std@@SAXAEAV?$allocator@T__m128i@@@1@QEAT__m128i@@$$QEAT3@@Z DD 021401H
	DD	070105214H
xdata	ENDS
;	COMDAT xdata
xdata	SEGMENT
$unwind$??$forward@T__m128i@@@std@@YA$$QEAT__m128i@@AEAT1@@Z DD 010601H
	DD	07006H
xdata	ENDS
;	COMDAT xdata
xdata	SEGMENT
$unwind$??$_To_address@PEAT__m128i@@@std@@YA?A_PAEBQEAT__m128i@@@Z DD 010601H
	DD	07006H
xdata	ENDS
;	COMDAT xdata
xdata	SEGMENT
$unwind$??$construct@H$$V@?$_Default_allocator_traits@V?$allocator@H@std@@@std@@SAXAEAV?$allocator@H@1@QEAH@Z DD 020f01H
	DD	0700b520fH
xdata	ENDS
;	COMDAT xdata
xdata	SEGMENT
$unwind$??$_To_address@PEAH@std@@YA?A_PAEBQEAH@Z DD 010601H
	DD	07006H
xdata	ENDS
;	COMDAT xdata
xdata	SEGMENT
$unwind$??$_Emplace_back@H@?$_Uninitialized_backout_al@V?$allocator@H@std@@@std@@QEAAX$$QEAH@Z DD 020f01H
	DD	0700b520fH
xdata	ENDS
;	COMDAT xdata
xdata	SEGMENT
$unwind$??$_Copy_memmove@PEAHPEAH@std@@YAPEAHPEAH00@Z DD 021401H
	DD	07010b214H
xdata	ENDS
;	COMDAT xdata
xdata	SEGMENT
$unwind$??$move@AEAH@std@@YA$$QEAHAEAH@Z DD 010601H
	DD	07006H
xdata	ENDS
;	COMDAT xdata
xdata	SEGMENT
$unwind$??$_Get_unwrapped@AEBQEAH@std@@YA?A_TAEBQEAH@Z DD 010601H
	DD	07006H
xdata	ENDS
;	COMDAT xdata
xdata	SEGMENT
$unwind$??$construct@_K$$V@?$_Default_allocator_traits@V?$allocator@_K@std@@@std@@SAXAEAV?$allocator@_K@1@QEA_K@Z DD 020f01H
	DD	0700b520fH
xdata	ENDS
;	COMDAT xdata
xdata	SEGMENT
$unwind$??$_To_address@PEA_K@std@@YA?A_PAEBQEA_K@Z DD 010601H
	DD	07006H
xdata	ENDS
;	COMDAT xdata
xdata	SEGMENT
$unwind$??$construct@U?$tvec2@I$0A@@glm@@$$V@?$_Default_allocator_traits@V?$allocator@U?$tvec2@I$0A@@glm@@@std@@@std@@SAXAEAV?$allocator@U?$tvec2@I$0A@@glm@@@1@QEAU?$tvec2@I$0A@@glm@@@Z DD 020f01H
	DD	0700b520fH
xdata	ENDS
;	COMDAT xdata
xdata	SEGMENT
$unwind$??$_Unfancy@U?$tvec2@I$0A@@glm@@@std@@YAPEAU?$tvec2@I$0A@@glm@@PEAU12@@Z DD 010601H
	DD	07006H
xdata	ENDS
;	COMDAT xdata
xdata	SEGMENT
$unwind$??$construct@T__m128i@@$$V@?$_Default_allocator_traits@V?$allocator@T__m128i@@@std@@@std@@SAXAEAV?$allocator@T__m128i@@@1@QEAT__m128i@@@Z DD 020f01H
	DD	0700b520fH
xdata	ENDS
;	COMDAT xdata
xdata	SEGMENT
$unwind$??$_Emplace_back@T__m128i@@@?$_Uninitialized_backout_al@V?$allocator@T__m128i@@@std@@@std@@QEAAX$$QEAT__m128i@@@Z DD 020f01H
	DD	0700b520fH
xdata	ENDS
;	COMDAT xdata
xdata	SEGMENT
$unwind$??$_Copy_memmove@PEAT__m128i@@PEAT1@@std@@YAPEAT__m128i@@PEAT1@00@Z DD 021401H
	DD	07010b214H
xdata	ENDS
;	COMDAT xdata
xdata	SEGMENT
$unwind$??$_Unfancy@T__m128i@@@std@@YAPEAT__m128i@@PEAT1@@Z DD 010601H
	DD	07006H
xdata	ENDS
;	COMDAT xdata
xdata	SEGMENT
$unwind$??$move@AEAT__m128i@@@std@@YA$$QEAT__m128i@@AEAT1@@Z DD 010601H
	DD	07006H
xdata	ENDS
;	COMDAT xdata
xdata	SEGMENT
$unwind$??$_Get_unwrapped@AEBQEAT__m128i@@@std@@YA?A_TAEBQEAT__m128i@@@Z DD 010601H
	DD	07006H
xdata	ENDS
;	COMDAT xdata
xdata	SEGMENT
$unwind$??$_Get_size_of_n@$03@std@@YA_K_K@Z DD 020a01H
	DD	07006520aH
xdata	ENDS
;	COMDAT xdata
xdata	SEGMENT
$unwind$??$_Allocate_manually_vector_aligned@U_Default_allocate_traits@std@@@std@@YAPEAX_K@Z DD 020a01H
	DD	07006920aH
xdata	ENDS
;	COMDAT xdata
xdata	SEGMENT
$unwind$??$_Emplace_back@$$V@?$_Uninitialized_backout_al@V?$allocator@H@std@@@std@@QEAAXXZ DD 020a01H
	DD	07006320aH
xdata	ENDS
;	COMDAT xdata
xdata	SEGMENT
$unwind$?_Release@?$_Uninitialized_backout_al@V?$allocator@H@std@@@std@@QEAAPEAHXZ DD 010601H
	DD	07006H
xdata	ENDS
;	COMDAT xdata
xdata	SEGMENT
$unwind$??1?$_Uninitialized_backout_al@V?$allocator@H@std@@@std@@QEAA@XZ DD 020a01H
	DD	07006320aH
xdata	ENDS
;	COMDAT xdata
xdata	SEGMENT
$unwind$??0?$_Uninitialized_backout_al@V?$allocator@H@std@@@std@@QEAA@PEAHAEAV?$allocator@H@1@@Z DD 011001H
	DD	07010H
xdata	ENDS
;	COMDAT xdata
xdata	SEGMENT
$unwind$??$_Zero_range@PEAH@std@@YAPEAHQEAH0@Z DD 020f01H
	DD	0700b520fH
xdata	ENDS
;	COMDAT xdata
xdata	SEGMENT
$unwind$??$_Unfancy@H@std@@YAPEAHPEAH@Z DD 010601H
	DD	07006H
xdata	ENDS
;	COMDAT voltbl
voltbl	SEGMENT
_volmd	DB	00H
	DB	05H
voltbl	ENDS
;	COMDAT xdata
xdata	SEGMENT
$unwind$?dtor$0@?0???$_Uninitialized_move@PEAHV?$allocator@H@std@@@std@@YAPEAHQEAH0PEAHAEAV?$allocator@H@0@@Z@4HA DD 031001H
	DD	0700c4210H
	DD	0500bH
xdata	ENDS
;	COMDAT xdata
xdata	SEGMENT
$ip2state$??$_Uninitialized_move@PEAHV?$allocator@H@std@@@std@@YAPEAHQEAH0PEAHAEAV?$allocator@H@0@@Z DB 02H
	DB	00H
	DB	00H
xdata	ENDS
;	COMDAT xdata
xdata	SEGMENT
$stateUnwindMap$??$_Uninitialized_move@PEAHV?$allocator@H@std@@@std@@YAPEAHQEAH0PEAHAEAV?$allocator@H@0@@Z DB 02H
	DB	0eH
	DD	imagerel ?dtor$0@?0???$_Uninitialized_move@PEAHV?$allocator@H@std@@@std@@YAPEAHQEAH0PEAHAEAV?$allocator@H@0@@Z@4HA
xdata	ENDS
;	COMDAT xdata
xdata	SEGMENT
$cppxdata$??$_Uninitialized_move@PEAHV?$allocator@H@std@@@std@@YAPEAHQEAH0PEAHAEAV?$allocator@H@0@@Z DB 028H
	DD	imagerel $stateUnwindMap$??$_Uninitialized_move@PEAHV?$allocator@H@std@@@std@@YAPEAHQEAH0PEAHAEAV?$allocator@H@0@@Z
	DD	imagerel $ip2state$??$_Uninitialized_move@PEAHV?$allocator@H@std@@@std@@YAPEAHQEAH0PEAHAEAV?$allocator@H@0@@Z
xdata	ENDS
;	COMDAT xdata
xdata	SEGMENT
$unwind$??$_Uninitialized_move@PEAHV?$allocator@H@std@@@std@@YAPEAHQEAH0PEAHAEAV?$allocator@H@0@@Z DD 022f11H
	DD	07015b219H
	DD	imagerel __CxxFrameHandler4
	DD	imagerel $cppxdata$??$_Uninitialized_move@PEAHV?$allocator@H@std@@@std@@YAPEAHQEAH0PEAHAEAV?$allocator@H@0@@Z
xdata	ENDS
;	COMDAT CONST
CONST	SEGMENT
??$_Uninitialized_move@PEAHV?$allocator@H@std@@@std@@YAPEAHQEAH0PEAHAEAV?$allocator@H@0@@Z$rtcName$0 DB 05fH ; std::_Uninitialized_move<int *,std::allocator<int> >
	DB	042H
	DB	061H
	DB	063H
	DB	06bH
	DB	06fH
	DB	075H
	DB	074H
	DB	00H
	ORG $+7
??$_Uninitialized_move@PEAHV?$allocator@H@std@@@std@@YAPEAHQEAH0PEAHAEAV?$allocator@H@0@@Z$rtcVarDesc DD 038H ; std::_Uninitialized_move<int *,std::allocator<int> >
	DD	018H
	DQ	FLAT:??$_Uninitialized_move@PEAHV?$allocator@H@std@@@std@@YAPEAHQEAH0PEAHAEAV?$allocator@H@0@@Z$rtcName$0
	ORG $+48
??$_Uninitialized_move@PEAHV?$allocator@H@std@@@std@@YAPEAHQEAH0PEAHAEAV?$allocator@H@0@@Z$rtcFrameData DD 01H ; std::_Uninitialized_move<int *,std::allocator<int> >
	DD	00H
	DQ	FLAT:??$_Uninitialized_move@PEAHV?$allocator@H@std@@@std@@YAPEAHQEAH0PEAHAEAV?$allocator@H@0@@Z$rtcVarDesc
CONST	ENDS
;	COMDAT xdata
xdata	SEGMENT
$unwind$??$_Emplace_back@$$V@?$_Uninitialized_backout_al@V?$allocator@_K@std@@@std@@QEAAXXZ DD 020a01H
	DD	07006320aH
xdata	ENDS
;	COMDAT xdata
xdata	SEGMENT
$unwind$?_Release@?$_Uninitialized_backout_al@V?$allocator@_K@std@@@std@@QEAAPEA_KXZ DD 010601H
	DD	07006H
xdata	ENDS
;	COMDAT xdata
xdata	SEGMENT
$unwind$??1?$_Uninitialized_backout_al@V?$allocator@_K@std@@@std@@QEAA@XZ DD 020a01H
	DD	07006320aH
xdata	ENDS
;	COMDAT xdata
xdata	SEGMENT
$unwind$??0?$_Uninitialized_backout_al@V?$allocator@_K@std@@@std@@QEAA@PEA_KAEAV?$allocator@_K@1@@Z DD 011001H
	DD	07010H
xdata	ENDS
;	COMDAT xdata
xdata	SEGMENT
$unwind$??$_Zero_range@PEA_K@std@@YAPEA_KQEA_K0@Z DD 020f01H
	DD	0700b520fH
xdata	ENDS
;	COMDAT xdata
xdata	SEGMENT
$unwind$??$_Unfancy@_K@std@@YAPEA_KPEA_K@Z DD 010601H
	DD	07006H
xdata	ENDS
;	COMDAT xdata
xdata	SEGMENT
$unwind$??$_Emplace_back@$$V@?$_Uninitialized_backout_al@V?$allocator@U?$tvec2@I$0A@@glm@@@std@@@std@@QEAAXXZ DD 020a01H
	DD	07006320aH
xdata	ENDS
;	COMDAT xdata
xdata	SEGMENT
$unwind$?_Release@?$_Uninitialized_backout_al@V?$allocator@U?$tvec2@I$0A@@glm@@@std@@@std@@QEAAPEAU?$tvec2@I$0A@@glm@@XZ DD 010601H
	DD	07006H
xdata	ENDS
;	COMDAT xdata
xdata	SEGMENT
$unwind$??1?$_Uninitialized_backout_al@V?$allocator@U?$tvec2@I$0A@@glm@@@std@@@std@@QEAA@XZ DD 020a01H
	DD	07006320aH
xdata	ENDS
;	COMDAT xdata
xdata	SEGMENT
$unwind$??0?$_Uninitialized_backout_al@V?$allocator@U?$tvec2@I$0A@@glm@@@std@@@std@@QEAA@PEAU?$tvec2@I$0A@@glm@@AEAV?$allocator@U?$tvec2@I$0A@@glm@@@1@@Z DD 011001H
	DD	07010H
xdata	ENDS
;	COMDAT xdata
xdata	SEGMENT
$unwind$??$forward@PEAU_Container_base12@std@@@std@@YA$$QEAPEAU_Container_base12@0@AEAPEAU10@@Z DD 010601H
	DD	07006H
xdata	ENDS
;	COMDAT xdata
xdata	SEGMENT
$unwind$??$_Voidify_iter@PEAU_Container_proxy@std@@@std@@YAPEAXPEAU_Container_proxy@0@@Z DD 010601H
	DD	07006H
xdata	ENDS
;	COMDAT xdata
xdata	SEGMENT
$unwind$??$addressof@U_Container_proxy@std@@@std@@YAPEAU_Container_proxy@0@AEAU10@@Z DD 010601H
	DD	07006H
xdata	ENDS
;	COMDAT xdata
xdata	SEGMENT
$unwind$?deallocate@?$_Default_allocator_traits@V?$allocator@U_Container_proxy@std@@@std@@@std@@SAXAEAV?$allocator@U_Container_proxy@std@@@2@QEAU_Container_proxy@2@_K@Z DD 021401H
	DD	070103214H
xdata	ENDS
;	COMDAT xdata
xdata	SEGMENT
$unwind$??$_Emplace_back@$$V@?$_Uninitialized_backout_al@V?$allocator@T__m128i@@@std@@@std@@QEAAXXZ DD 020a01H
	DD	07006320aH
xdata	ENDS
;	COMDAT xdata
xdata	SEGMENT
$unwind$?_Release@?$_Uninitialized_backout_al@V?$allocator@T__m128i@@@std@@@std@@QEAAPEAT__m128i@@XZ DD 010601H
	DD	07006H
xdata	ENDS
;	COMDAT xdata
xdata	SEGMENT
$unwind$??1?$_Uninitialized_backout_al@V?$allocator@T__m128i@@@std@@@std@@QEAA@XZ DD 020a01H
	DD	07006320aH
xdata	ENDS
;	COMDAT xdata
xdata	SEGMENT
$unwind$??0?$_Uninitialized_backout_al@V?$allocator@T__m128i@@@std@@@std@@QEAA@PEAT__m128i@@AEAV?$allocator@T__m128i@@@1@@Z DD 011001H
	DD	07010H
xdata	ENDS
;	COMDAT voltbl
voltbl	SEGMENT
_volmd	DB	00H
	DB	05H
voltbl	ENDS
;	COMDAT xdata
xdata	SEGMENT
$unwind$?dtor$0@?0???$_Uninitialized_move@PEAT__m128i@@V?$allocator@T__m128i@@@std@@@std@@YAPEAT__m128i@@QEAT1@0PEAT1@AEAV?$allocator@T__m128i@@@0@@Z@4HA DD 031001H
	DD	0700c4210H
	DD	0500bH
xdata	ENDS
;	COMDAT xdata
xdata	SEGMENT
$ip2state$??$_Uninitialized_move@PEAT__m128i@@V?$allocator@T__m128i@@@std@@@std@@YAPEAT__m128i@@QEAT1@0PEAT1@AEAV?$allocator@T__m128i@@@0@@Z DB 02H
	DB	00H
	DB	00H
xdata	ENDS
;	COMDAT xdata
xdata	SEGMENT
$stateUnwindMap$??$_Uninitialized_move@PEAT__m128i@@V?$allocator@T__m128i@@@std@@@std@@YAPEAT__m128i@@QEAT1@0PEAT1@AEAV?$allocator@T__m128i@@@0@@Z DB 02H
	DB	0eH
	DD	imagerel ?dtor$0@?0???$_Uninitialized_move@PEAT__m128i@@V?$allocator@T__m128i@@@std@@@std@@YAPEAT__m128i@@QEAT1@0PEAT1@AEAV?$allocator@T__m128i@@@0@@Z@4HA
xdata	ENDS
;	COMDAT xdata
xdata	SEGMENT
$cppxdata$??$_Uninitialized_move@PEAT__m128i@@V?$allocator@T__m128i@@@std@@@std@@YAPEAT__m128i@@QEAT1@0PEAT1@AEAV?$allocator@T__m128i@@@0@@Z DB 028H
	DD	imagerel $stateUnwindMap$??$_Uninitialized_move@PEAT__m128i@@V?$allocator@T__m128i@@@std@@@std@@YAPEAT__m128i@@QEAT1@0PEAT1@AEAV?$allocator@T__m128i@@@0@@Z
	DD	imagerel $ip2state$??$_Uninitialized_move@PEAT__m128i@@V?$allocator@T__m128i@@@std@@@std@@YAPEAT__m128i@@QEAT1@0PEAT1@AEAV?$allocator@T__m128i@@@0@@Z
xdata	ENDS
;	COMDAT xdata
xdata	SEGMENT
$unwind$??$_Uninitialized_move@PEAT__m128i@@V?$allocator@T__m128i@@@std@@@std@@YAPEAT__m128i@@QEAT1@0PEAT1@AEAV?$allocator@T__m128i@@@0@@Z DD 022f11H
	DD	07015b219H
	DD	imagerel __CxxFrameHandler4
	DD	imagerel $cppxdata$??$_Uninitialized_move@PEAT__m128i@@V?$allocator@T__m128i@@@std@@@std@@YAPEAT__m128i@@QEAT1@0PEAT1@AEAV?$allocator@T__m128i@@@0@@Z
xdata	ENDS
;	COMDAT CONST
CONST	SEGMENT
??$_Uninitialized_move@PEAT__m128i@@V?$allocator@T__m128i@@@std@@@std@@YAPEAT__m128i@@QEAT1@0PEAT1@AEAV?$allocator@T__m128i@@@0@@Z$rtcName$0 DB 05fH ; std::_Uninitialized_move<__m128i *,std::allocator<__m128i> >
	DB	042H
	DB	061H
	DB	063H
	DB	06bH
	DB	06fH
	DB	075H
	DB	074H
	DB	00H
	ORG $+7
??$_Uninitialized_move@PEAT__m128i@@V?$allocator@T__m128i@@@std@@@std@@YAPEAT__m128i@@QEAT1@0PEAT1@AEAV?$allocator@T__m128i@@@0@@Z$rtcVarDesc DD 038H ; std::_Uninitialized_move<__m128i *,std::allocator<__m128i> >
	DD	018H
	DQ	FLAT:??$_Uninitialized_move@PEAT__m128i@@V?$allocator@T__m128i@@@std@@@std@@YAPEAT__m128i@@QEAT1@0PEAT1@AEAV?$allocator@T__m128i@@@0@@Z$rtcName$0
	ORG $+48
??$_Uninitialized_move@PEAT__m128i@@V?$allocator@T__m128i@@@std@@@std@@YAPEAT__m128i@@QEAT1@0PEAT1@AEAV?$allocator@T__m128i@@@0@@Z$rtcFrameData DD 01H ; std::_Uninitialized_move<__m128i *,std::allocator<__m128i> >
	DD	00H
	DQ	FLAT:??$_Uninitialized_move@PEAT__m128i@@V?$allocator@T__m128i@@@std@@@std@@YAPEAT__m128i@@QEAT1@0PEAT1@AEAV?$allocator@T__m128i@@@0@@Z$rtcVarDesc
CONST	ENDS
;	COMDAT xdata
xdata	SEGMENT
$unwind$??$_Get_size_of_n@$07@std@@YA_K_K@Z DD 020a01H
	DD	07006520aH
xdata	ENDS
;	COMDAT xdata
xdata	SEGMENT
$unwind$??$min@_K@std@@YAAEB_KAEB_K0@Z DD 020f01H
	DD	0700b120fH
xdata	ENDS
;	COMDAT xdata
xdata	SEGMENT
$unwind$??$_Allocate@$0BA@U_Default_allocate_traits@std@@$0A@@std@@YAPEAX_K@Z DD 020a01H
	DD	07006320aH
xdata	ENDS
;	COMDAT xdata
xdata	SEGMENT
$unwind$??$_Get_size_of_n@$0BA@@std@@YA_K_K@Z DD 020a01H
	DD	07006520aH
xdata	ENDS
;	COMDAT xdata
xdata	SEGMENT
$unwind$??$addressof@U_Container_base12@std@@@std@@YAPEAU_Container_base12@0@AEAU10@@Z DD 010601H
	DD	07006H
xdata	ENDS
;	COMDAT voltbl
voltbl	SEGMENT
_volmd	DB	00H
	DB	05H
voltbl	ENDS
;	COMDAT xdata
xdata	SEGMENT
$unwind$?dtor$0@?0???$_Uninitialized_value_construct_n@V?$allocator@H@std@@@std@@YAPEAHPEAH_KAEAV?$allocator@H@0@@Z@4HA DD 031001H
	DD	0700c4210H
	DD	0500bH
xdata	ENDS
;	COMDAT xdata
xdata	SEGMENT
$ip2state$??$_Uninitialized_value_construct_n@V?$allocator@H@std@@@std@@YAPEAHPEAH_KAEAV?$allocator@H@0@@Z DB 02H
	DB	00H
	DB	00H
xdata	ENDS
;	COMDAT xdata
xdata	SEGMENT
$stateUnwindMap$??$_Uninitialized_value_construct_n@V?$allocator@H@std@@@std@@YAPEAHPEAH_KAEAV?$allocator@H@0@@Z DB 02H
	DB	0eH
	DD	imagerel ?dtor$0@?0???$_Uninitialized_value_construct_n@V?$allocator@H@std@@@std@@YAPEAHPEAH_KAEAV?$allocator@H@0@@Z@4HA
xdata	ENDS
;	COMDAT xdata
xdata	SEGMENT
$cppxdata$??$_Uninitialized_value_construct_n@V?$allocator@H@std@@@std@@YAPEAHPEAH_KAEAV?$allocator@H@0@@Z DB 028H
	DD	imagerel $stateUnwindMap$??$_Uninitialized_value_construct_n@V?$allocator@H@std@@@std@@YAPEAHPEAH_KAEAV?$allocator@H@0@@Z
	DD	imagerel $ip2state$??$_Uninitialized_value_construct_n@V?$allocator@H@std@@@std@@YAPEAHPEAH_KAEAV?$allocator@H@0@@Z
xdata	ENDS
;	COMDAT xdata
xdata	SEGMENT
$unwind$??$_Uninitialized_value_construct_n@V?$allocator@H@std@@@std@@YAPEAHPEAH_KAEAV?$allocator@H@0@@Z DD 022a11H
	DD	07010b214H
	DD	imagerel __CxxFrameHandler4
	DD	imagerel $cppxdata$??$_Uninitialized_value_construct_n@V?$allocator@H@std@@@std@@YAPEAHPEAH_KAEAV?$allocator@H@0@@Z
xdata	ENDS
;	COMDAT CONST
CONST	SEGMENT
??$_Uninitialized_value_construct_n@V?$allocator@H@std@@@std@@YAPEAHPEAH_KAEAV?$allocator@H@0@@Z$rtcName$0 DB 05fH ; std::_Uninitialized_value_construct_n<std::allocator<int> >
	DB	042H
	DB	061H
	DB	063H
	DB	06bH
	DB	06fH
	DB	075H
	DB	074H
	DB	00H
	ORG $+7
??$_Uninitialized_value_construct_n@V?$allocator@H@std@@@std@@YAPEAHPEAH_KAEAV?$allocator@H@0@@Z$rtcVarDesc DD 038H ; std::_Uninitialized_value_construct_n<std::allocator<int> >
	DD	018H
	DQ	FLAT:??$_Uninitialized_value_construct_n@V?$allocator@H@std@@@std@@YAPEAHPEAH_KAEAV?$allocator@H@0@@Z$rtcName$0
	ORG $+48
??$_Uninitialized_value_construct_n@V?$allocator@H@std@@@std@@YAPEAHPEAH_KAEAV?$allocator@H@0@@Z$rtcFrameData DD 01H ; std::_Uninitialized_value_construct_n<std::allocator<int> >
	DD	00H
	DQ	FLAT:??$_Uninitialized_value_construct_n@V?$allocator@H@std@@@std@@YAPEAHPEAH_KAEAV?$allocator@H@0@@Z$rtcVarDesc
CONST	ENDS
;	COMDAT voltbl
voltbl	SEGMENT
_volmd	DB	00H
	DB	05H
voltbl	ENDS
;	COMDAT xdata
xdata	SEGMENT
$unwind$?catch$0@?0???$_Resize_reallocate@U_Value_init_tag@std@@@?$vector@HV?$allocator@H@std@@@std@@AEAAX_KAEBU_Value_init_tag@1@@Z@4HA DD 031001H
	DD	0700c4210H
	DD	0500bH
xdata	ENDS
;	COMDAT xdata
xdata	SEGMENT
$ip2state$??$_Resize_reallocate@U_Value_init_tag@std@@@?$vector@HV?$allocator@H@std@@@std@@AEAAX_KAEBU_Value_init_tag@1@@Z DB 06H
	DB	00H
	DB	00H
	DB	'I', 03H
	DB	02H
	DB	0a8H
	DB	00H
xdata	ENDS
;	COMDAT xdata
xdata	SEGMENT
$handlerMap$??$_Resize_reallocate@U_Value_init_tag@std@@@?$vector@HV?$allocator@H@std@@@std@@AEAAX_KAEBU_Value_init_tag@1@@Z DB 02H
	DB	01H
	DB	080H
	DD	imagerel ?catch$0@?0???$_Resize_reallocate@U_Value_init_tag@std@@@?$vector@HV?$allocator@H@std@@@std@@AEAAX_KAEBU_Value_init_tag@1@@Z@4HA
xdata	ENDS
;	COMDAT xdata
xdata	SEGMENT
$tryMap$??$_Resize_reallocate@U_Value_init_tag@std@@@?$vector@HV?$allocator@H@std@@@std@@AEAAX_KAEBU_Value_init_tag@1@@Z DB 02H
	DB	00H
	DB	00H
	DB	02H
	DD	imagerel $handlerMap$??$_Resize_reallocate@U_Value_init_tag@std@@@?$vector@HV?$allocator@H@std@@@std@@AEAAX_KAEBU_Value_init_tag@1@@Z
xdata	ENDS
;	COMDAT xdata
xdata	SEGMENT
$stateUnwindMap$??$_Resize_reallocate@U_Value_init_tag@std@@@?$vector@HV?$allocator@H@std@@@std@@AEAAX_KAEBU_Value_init_tag@1@@Z DB 04H
	DB	08H
	DB	010H
xdata	ENDS
;	COMDAT xdata
xdata	SEGMENT
$cppxdata$??$_Resize_reallocate@U_Value_init_tag@std@@@?$vector@HV?$allocator@H@std@@@std@@AEAAX_KAEBU_Value_init_tag@1@@Z DB 038H
	DD	imagerel $stateUnwindMap$??$_Resize_reallocate@U_Value_init_tag@std@@@?$vector@HV?$allocator@H@std@@@std@@AEAAX_KAEBU_Value_init_tag@1@@Z
	DD	imagerel $tryMap$??$_Resize_reallocate@U_Value_init_tag@std@@@?$vector@HV?$allocator@H@std@@@std@@AEAAX_KAEBU_Value_init_tag@1@@Z
	DD	imagerel $ip2state$??$_Resize_reallocate@U_Value_init_tag@std@@@?$vector@HV?$allocator@H@std@@@std@@AEAAX_KAEBU_Value_init_tag@1@@Z
xdata	ENDS
;	COMDAT xdata
xdata	SEGMENT
$unwind$??$_Resize_reallocate@U_Value_init_tag@std@@@?$vector@HV?$allocator@H@std@@@std@@AEAAX_KAEBU_Value_init_tag@1@@Z DD 021419H
	DD	07010d214H
	DD	imagerel __CxxFrameHandler4
	DD	imagerel $cppxdata$??$_Resize_reallocate@U_Value_init_tag@std@@@?$vector@HV?$allocator@H@std@@@std@@AEAAX_KAEBU_Value_init_tag@1@@Z
xdata	ENDS
;	COMDAT voltbl
voltbl	SEGMENT
_volmd	DB	00H
	DB	05H
voltbl	ENDS
;	COMDAT xdata
xdata	SEGMENT
$unwind$?dtor$0@?0???$_Uninitialized_value_construct_n@V?$allocator@_K@std@@@std@@YAPEA_KPEA_K_KAEAV?$allocator@_K@0@@Z@4HA DD 031001H
	DD	0700c4210H
	DD	0500bH
xdata	ENDS
;	COMDAT xdata
xdata	SEGMENT
$ip2state$??$_Uninitialized_value_construct_n@V?$allocator@_K@std@@@std@@YAPEA_KPEA_K_KAEAV?$allocator@_K@0@@Z DB 02H
	DB	00H
	DB	00H
xdata	ENDS
;	COMDAT xdata
xdata	SEGMENT
$stateUnwindMap$??$_Uninitialized_value_construct_n@V?$allocator@_K@std@@@std@@YAPEA_KPEA_K_KAEAV?$allocator@_K@0@@Z DB 02H
	DB	0eH
	DD	imagerel ?dtor$0@?0???$_Uninitialized_value_construct_n@V?$allocator@_K@std@@@std@@YAPEA_KPEA_K_KAEAV?$allocator@_K@0@@Z@4HA
xdata	ENDS
;	COMDAT xdata
xdata	SEGMENT
$cppxdata$??$_Uninitialized_value_construct_n@V?$allocator@_K@std@@@std@@YAPEA_KPEA_K_KAEAV?$allocator@_K@0@@Z DB 028H
	DD	imagerel $stateUnwindMap$??$_Uninitialized_value_construct_n@V?$allocator@_K@std@@@std@@YAPEA_KPEA_K_KAEAV?$allocator@_K@0@@Z
	DD	imagerel $ip2state$??$_Uninitialized_value_construct_n@V?$allocator@_K@std@@@std@@YAPEA_KPEA_K_KAEAV?$allocator@_K@0@@Z
xdata	ENDS
;	COMDAT xdata
xdata	SEGMENT
$unwind$??$_Uninitialized_value_construct_n@V?$allocator@_K@std@@@std@@YAPEA_KPEA_K_KAEAV?$allocator@_K@0@@Z DD 022a11H
	DD	07010b214H
	DD	imagerel __CxxFrameHandler4
	DD	imagerel $cppxdata$??$_Uninitialized_value_construct_n@V?$allocator@_K@std@@@std@@YAPEA_KPEA_K_KAEAV?$allocator@_K@0@@Z
xdata	ENDS
;	COMDAT CONST
CONST	SEGMENT
??$_Uninitialized_value_construct_n@V?$allocator@_K@std@@@std@@YAPEA_KPEA_K_KAEAV?$allocator@_K@0@@Z$rtcName$0 DB 05fH ; std::_Uninitialized_value_construct_n<std::allocator<unsigned __int64> >
	DB	042H
	DB	061H
	DB	063H
	DB	06bH
	DB	06fH
	DB	075H
	DB	074H
	DB	00H
	ORG $+7
??$_Uninitialized_value_construct_n@V?$allocator@_K@std@@@std@@YAPEA_KPEA_K_KAEAV?$allocator@_K@0@@Z$rtcVarDesc DD 038H ; std::_Uninitialized_value_construct_n<std::allocator<unsigned __int64> >
	DD	018H
	DQ	FLAT:??$_Uninitialized_value_construct_n@V?$allocator@_K@std@@@std@@YAPEA_KPEA_K_KAEAV?$allocator@_K@0@@Z$rtcName$0
	ORG $+48
??$_Uninitialized_value_construct_n@V?$allocator@_K@std@@@std@@YAPEA_KPEA_K_KAEAV?$allocator@_K@0@@Z$rtcFrameData DD 01H ; std::_Uninitialized_value_construct_n<std::allocator<unsigned __int64> >
	DD	00H
	DQ	FLAT:??$_Uninitialized_value_construct_n@V?$allocator@_K@std@@@std@@YAPEA_KPEA_K_KAEAV?$allocator@_K@0@@Z$rtcVarDesc
CONST	ENDS
;	COMDAT xdata
xdata	SEGMENT
$unwind$??1?$_Tidy_guard@V?$vector@_KV?$allocator@_K@std@@@std@@@std@@QEAA@XZ DD 020a01H
	DD	07006320aH
xdata	ENDS
;	COMDAT xdata
xdata	SEGMENT
$unwind$??$forward@AEBV?$allocator@_K@std@@@std@@YAAEBV?$allocator@_K@0@AEBV10@@Z DD 010601H
	DD	07006H
xdata	ENDS
;	COMDAT voltbl
voltbl	SEGMENT
_volmd	DB	00H
	DB	05H
voltbl	ENDS
;	COMDAT xdata
xdata	SEGMENT
$unwind$?dtor$0@?0???$_Uninitialized_value_construct_n@V?$allocator@U?$tvec2@I$0A@@glm@@@std@@@std@@YAPEAU?$tvec2@I$0A@@glm@@PEAU12@_KAEAV?$allocator@U?$tvec2@I$0A@@glm@@@0@@Z@4HA DD 031001H
	DD	0700c4210H
	DD	0500bH
xdata	ENDS
;	COMDAT xdata
xdata	SEGMENT
$ip2state$??$_Uninitialized_value_construct_n@V?$allocator@U?$tvec2@I$0A@@glm@@@std@@@std@@YAPEAU?$tvec2@I$0A@@glm@@PEAU12@_KAEAV?$allocator@U?$tvec2@I$0A@@glm@@@0@@Z DB 06H
	DB	00H
	DB	00H
	DB	'~'
	DB	02H
	DB	'd'
	DB	00H
xdata	ENDS
;	COMDAT xdata
xdata	SEGMENT
$stateUnwindMap$??$_Uninitialized_value_construct_n@V?$allocator@U?$tvec2@I$0A@@glm@@@std@@@std@@YAPEAU?$tvec2@I$0A@@glm@@PEAU12@_KAEAV?$allocator@U?$tvec2@I$0A@@glm@@@0@@Z DB 02H
	DB	0eH
	DD	imagerel ?dtor$0@?0???$_Uninitialized_value_construct_n@V?$allocator@U?$tvec2@I$0A@@glm@@@std@@@std@@YAPEAU?$tvec2@I$0A@@glm@@PEAU12@_KAEAV?$allocator@U?$tvec2@I$0A@@glm@@@0@@Z@4HA
xdata	ENDS
;	COMDAT xdata
xdata	SEGMENT
$cppxdata$??$_Uninitialized_value_construct_n@V?$allocator@U?$tvec2@I$0A@@glm@@@std@@@std@@YAPEAU?$tvec2@I$0A@@glm@@PEAU12@_KAEAV?$allocator@U?$tvec2@I$0A@@glm@@@0@@Z DB 028H
	DD	imagerel $stateUnwindMap$??$_Uninitialized_value_construct_n@V?$allocator@U?$tvec2@I$0A@@glm@@@std@@@std@@YAPEAU?$tvec2@I$0A@@glm@@PEAU12@_KAEAV?$allocator@U?$tvec2@I$0A@@glm@@@0@@Z
	DD	imagerel $ip2state$??$_Uninitialized_value_construct_n@V?$allocator@U?$tvec2@I$0A@@glm@@@std@@@std@@YAPEAU?$tvec2@I$0A@@glm@@PEAU12@_KAEAV?$allocator@U?$tvec2@I$0A@@glm@@@0@@Z
xdata	ENDS
;	COMDAT xdata
xdata	SEGMENT
$unwind$??$_Uninitialized_value_construct_n@V?$allocator@U?$tvec2@I$0A@@glm@@@std@@@std@@YAPEAU?$tvec2@I$0A@@glm@@PEAU12@_KAEAV?$allocator@U?$tvec2@I$0A@@glm@@@0@@Z DD 022a11H
	DD	070109214H
	DD	imagerel __CxxFrameHandler4
	DD	imagerel $cppxdata$??$_Uninitialized_value_construct_n@V?$allocator@U?$tvec2@I$0A@@glm@@@std@@@std@@YAPEAU?$tvec2@I$0A@@glm@@PEAU12@_KAEAV?$allocator@U?$tvec2@I$0A@@glm@@@0@@Z
xdata	ENDS
;	COMDAT CONST
CONST	SEGMENT
??$_Uninitialized_value_construct_n@V?$allocator@U?$tvec2@I$0A@@glm@@@std@@@std@@YAPEAU?$tvec2@I$0A@@glm@@PEAU12@_KAEAV?$allocator@U?$tvec2@I$0A@@glm@@@0@@Z$rtcName$0 DB 05fH ; std::_Uninitialized_value_construct_n<std::allocator<glm::tvec2<unsigned int,0> > >
	DB	042H
	DB	061H
	DB	063H
	DB	06bH
	DB	06fH
	DB	075H
	DB	074H
	DB	00H
	ORG $+7
??$_Uninitialized_value_construct_n@V?$allocator@U?$tvec2@I$0A@@glm@@@std@@@std@@YAPEAU?$tvec2@I$0A@@glm@@PEAU12@_KAEAV?$allocator@U?$tvec2@I$0A@@glm@@@0@@Z$rtcVarDesc DD 028H ; std::_Uninitialized_value_construct_n<std::allocator<glm::tvec2<unsigned int,0> > >
	DD	018H
	DQ	FLAT:??$_Uninitialized_value_construct_n@V?$allocator@U?$tvec2@I$0A@@glm@@@std@@@std@@YAPEAU?$tvec2@I$0A@@glm@@PEAU12@_KAEAV?$allocator@U?$tvec2@I$0A@@glm@@@0@@Z$rtcName$0
	ORG $+48
??$_Uninitialized_value_construct_n@V?$allocator@U?$tvec2@I$0A@@glm@@@std@@@std@@YAPEAU?$tvec2@I$0A@@glm@@PEAU12@_KAEAV?$allocator@U?$tvec2@I$0A@@glm@@@0@@Z$rtcFrameData DD 01H ; std::_Uninitialized_value_construct_n<std::allocator<glm::tvec2<unsigned int,0> > >
	DD	00H
	DQ	FLAT:??$_Uninitialized_value_construct_n@V?$allocator@U?$tvec2@I$0A@@glm@@@std@@@std@@YAPEAU?$tvec2@I$0A@@glm@@PEAU12@_KAEAV?$allocator@U?$tvec2@I$0A@@glm@@@0@@Z$rtcVarDesc
CONST	ENDS
;	COMDAT xdata
xdata	SEGMENT
$unwind$??1?$_Tidy_guard@V?$vector@U?$tvec2@I$0A@@glm@@V?$allocator@U?$tvec2@I$0A@@glm@@@std@@@std@@@std@@QEAA@XZ DD 020a01H
	DD	07006320aH
xdata	ENDS
;	COMDAT xdata
xdata	SEGMENT
$unwind$??1?$_Container_proxy_ptr12@V?$allocator@U_Container_proxy@std@@@std@@@std@@QEAA@XZ DD 020a01H
	DD	07006320aH
xdata	ENDS
;	COMDAT xdata
xdata	SEGMENT
$unwind$??0?$_Container_proxy_ptr12@V?$allocator@U_Container_proxy@std@@@std@@@std@@QEAA@AEAV?$allocator@U_Container_proxy@std@@@1@AEAU_Container_base12@1@@Z DD 021401H
	DD	070105214H
xdata	ENDS
;	COMDAT xdata
xdata	SEGMENT
$unwind$??$forward@AEBV?$allocator@U?$tvec2@I$0A@@glm@@@std@@@std@@YAAEBV?$allocator@U?$tvec2@I$0A@@glm@@@0@AEBV10@@Z DD 010601H
	DD	07006H
xdata	ENDS
;	COMDAT xdata
xdata	SEGMENT
$unwind$??$_Construct_in_place@U_Container_proxy@std@@PEAU_Container_base12@2@@std@@YAXAEAU_Container_proxy@0@$$QEAPEAU_Container_base12@0@@Z DD 020f01H
	DD	0700b520fH
xdata	ENDS
;	COMDAT xdata
xdata	SEGMENT
$unwind$??$_Unfancy@U_Container_proxy@std@@@std@@YAPEAU_Container_proxy@0@PEAU10@@Z DD 010601H
	DD	07006H
xdata	ENDS
;	COMDAT xdata
xdata	SEGMENT
$ip2state$??$_Deallocate_plain@V?$allocator@U_Container_proxy@std@@@std@@@std@@YAXAEAV?$allocator@U_Container_proxy@std@@@0@QEAU_Container_proxy@0@@Z DB 02H
	DB	00H
	DB	00H
xdata	ENDS
;	COMDAT xdata
xdata	SEGMENT
$cppxdata$??$_Deallocate_plain@V?$allocator@U_Container_proxy@std@@@std@@@std@@YAXAEAV?$allocator@U_Container_proxy@std@@@0@QEAU_Container_proxy@0@@Z DB 060H
	DD	imagerel $ip2state$??$_Deallocate_plain@V?$allocator@U_Container_proxy@std@@@std@@@std@@YAXAEAV?$allocator@U_Container_proxy@std@@@0@QEAU_Container_proxy@0@@Z
xdata	ENDS
;	COMDAT xdata
xdata	SEGMENT
$unwind$??$_Deallocate_plain@V?$allocator@U_Container_proxy@std@@@std@@@std@@YAXAEAV?$allocator@U_Container_proxy@std@@@0@QEAU_Container_proxy@0@@Z DD 020f19H
	DD	0700b320fH
	DD	imagerel __CxxFrameHandler4
	DD	imagerel $cppxdata$??$_Deallocate_plain@V?$allocator@U_Container_proxy@std@@@std@@@std@@YAXAEAV?$allocator@U_Container_proxy@std@@@0@QEAU_Container_proxy@0@@Z
xdata	ENDS
;	COMDAT voltbl
voltbl	SEGMENT
_volmd	DB	00H
	DB	05H
voltbl	ENDS
;	COMDAT xdata
xdata	SEGMENT
$unwind$?dtor$0@?0???$_Uninitialized_value_construct_n@V?$allocator@T__m128i@@@std@@@std@@YAPEAT__m128i@@PEAT1@_KAEAV?$allocator@T__m128i@@@0@@Z@4HA DD 031001H
	DD	0700c4210H
	DD	0500bH
xdata	ENDS
;	COMDAT xdata
xdata	SEGMENT
$ip2state$??$_Uninitialized_value_construct_n@V?$allocator@T__m128i@@@std@@@std@@YAPEAT__m128i@@PEAT1@_KAEAV?$allocator@T__m128i@@@0@@Z DB 06H
	DB	00H
	DB	00H
	DB	'~'
	DB	02H
	DB	'd'
	DB	00H
xdata	ENDS
;	COMDAT xdata
xdata	SEGMENT
$stateUnwindMap$??$_Uninitialized_value_construct_n@V?$allocator@T__m128i@@@std@@@std@@YAPEAT__m128i@@PEAT1@_KAEAV?$allocator@T__m128i@@@0@@Z DB 02H
	DB	0eH
	DD	imagerel ?dtor$0@?0???$_Uninitialized_value_construct_n@V?$allocator@T__m128i@@@std@@@std@@YAPEAT__m128i@@PEAT1@_KAEAV?$allocator@T__m128i@@@0@@Z@4HA
xdata	ENDS
;	COMDAT xdata
xdata	SEGMENT
$cppxdata$??$_Uninitialized_value_construct_n@V?$allocator@T__m128i@@@std@@@std@@YAPEAT__m128i@@PEAT1@_KAEAV?$allocator@T__m128i@@@0@@Z DB 028H
	DD	imagerel $stateUnwindMap$??$_Uninitialized_value_construct_n@V?$allocator@T__m128i@@@std@@@std@@YAPEAT__m128i@@PEAT1@_KAEAV?$allocator@T__m128i@@@0@@Z
	DD	imagerel $ip2state$??$_Uninitialized_value_construct_n@V?$allocator@T__m128i@@@std@@@std@@YAPEAT__m128i@@PEAT1@_KAEAV?$allocator@T__m128i@@@0@@Z
xdata	ENDS
;	COMDAT xdata
xdata	SEGMENT
$unwind$??$_Uninitialized_value_construct_n@V?$allocator@T__m128i@@@std@@@std@@YAPEAT__m128i@@PEAT1@_KAEAV?$allocator@T__m128i@@@0@@Z DD 022a11H
	DD	070109214H
	DD	imagerel __CxxFrameHandler4
	DD	imagerel $cppxdata$??$_Uninitialized_value_construct_n@V?$allocator@T__m128i@@@std@@@std@@YAPEAT__m128i@@PEAT1@_KAEAV?$allocator@T__m128i@@@0@@Z
xdata	ENDS
;	COMDAT CONST
CONST	SEGMENT
??$_Uninitialized_value_construct_n@V?$allocator@T__m128i@@@std@@@std@@YAPEAT__m128i@@PEAT1@_KAEAV?$allocator@T__m128i@@@0@@Z$rtcName$0 DB 05fH ; std::_Uninitialized_value_construct_n<std::allocator<__m128i> >
	DB	042H
	DB	061H
	DB	063H
	DB	06bH
	DB	06fH
	DB	075H
	DB	074H
	DB	00H
	ORG $+7
??$_Uninitialized_value_construct_n@V?$allocator@T__m128i@@@std@@@std@@YAPEAT__m128i@@PEAT1@_KAEAV?$allocator@T__m128i@@@0@@Z$rtcVarDesc DD 028H ; std::_Uninitialized_value_construct_n<std::allocator<__m128i> >
	DD	018H
	DQ	FLAT:??$_Uninitialized_value_construct_n@V?$allocator@T__m128i@@@std@@@std@@YAPEAT__m128i@@PEAT1@_KAEAV?$allocator@T__m128i@@@0@@Z$rtcName$0
	ORG $+48
??$_Uninitialized_value_construct_n@V?$allocator@T__m128i@@@std@@@std@@YAPEAT__m128i@@PEAT1@_KAEAV?$allocator@T__m128i@@@0@@Z$rtcFrameData DD 01H ; std::_Uninitialized_value_construct_n<std::allocator<__m128i> >
	DD	00H
	DQ	FLAT:??$_Uninitialized_value_construct_n@V?$allocator@T__m128i@@@std@@@std@@YAPEAT__m128i@@PEAT1@_KAEAV?$allocator@T__m128i@@@0@@Z$rtcVarDesc
CONST	ENDS
;	COMDAT voltbl
voltbl	SEGMENT
_volmd	DB	00H
	DB	05H
voltbl	ENDS
;	COMDAT xdata
xdata	SEGMENT
$unwind$?catch$0@?0???$_Resize_reallocate@U_Value_init_tag@std@@@?$vector@T__m128i@@V?$allocator@T__m128i@@@std@@@std@@AEAAX_KAEBU_Value_init_tag@1@@Z@4HA DD 031001H
	DD	0700c4210H
	DD	0500bH
xdata	ENDS
;	COMDAT xdata
xdata	SEGMENT
$ip2state$??$_Resize_reallocate@U_Value_init_tag@std@@@?$vector@T__m128i@@V?$allocator@T__m128i@@@std@@@std@@AEAAX_KAEBU_Value_init_tag@1@@Z DB 06H
	DB	00H
	DB	00H
	DB	'U', 03H
	DB	02H
	DB	0a8H
	DB	00H
xdata	ENDS
;	COMDAT xdata
xdata	SEGMENT
$handlerMap$??$_Resize_reallocate@U_Value_init_tag@std@@@?$vector@T__m128i@@V?$allocator@T__m128i@@@std@@@std@@AEAAX_KAEBU_Value_init_tag@1@@Z DB 02H
	DB	01H
	DB	080H
	DD	imagerel ?catch$0@?0???$_Resize_reallocate@U_Value_init_tag@std@@@?$vector@T__m128i@@V?$allocator@T__m128i@@@std@@@std@@AEAAX_KAEBU_Value_init_tag@1@@Z@4HA
xdata	ENDS
;	COMDAT xdata
xdata	SEGMENT
$tryMap$??$_Resize_reallocate@U_Value_init_tag@std@@@?$vector@T__m128i@@V?$allocator@T__m128i@@@std@@@std@@AEAAX_KAEBU_Value_init_tag@1@@Z DB 02H
	DB	00H
	DB	00H
	DB	02H
	DD	imagerel $handlerMap$??$_Resize_reallocate@U_Value_init_tag@std@@@?$vector@T__m128i@@V?$allocator@T__m128i@@@std@@@std@@AEAAX_KAEBU_Value_init_tag@1@@Z
xdata	ENDS
;	COMDAT xdata
xdata	SEGMENT
$stateUnwindMap$??$_Resize_reallocate@U_Value_init_tag@std@@@?$vector@T__m128i@@V?$allocator@T__m128i@@@std@@@std@@AEAAX_KAEBU_Value_init_tag@1@@Z DB 04H
	DB	08H
	DB	010H
xdata	ENDS
;	COMDAT xdata
xdata	SEGMENT
$cppxdata$??$_Resize_reallocate@U_Value_init_tag@std@@@?$vector@T__m128i@@V?$allocator@T__m128i@@@std@@@std@@AEAAX_KAEBU_Value_init_tag@1@@Z DB 038H
	DD	imagerel $stateUnwindMap$??$_Resize_reallocate@U_Value_init_tag@std@@@?$vector@T__m128i@@V?$allocator@T__m128i@@@std@@@std@@AEAAX_KAEBU_Value_init_tag@1@@Z
	DD	imagerel $tryMap$??$_Resize_reallocate@U_Value_init_tag@std@@@?$vector@T__m128i@@V?$allocator@T__m128i@@@std@@@std@@AEAAX_KAEBU_Value_init_tag@1@@Z
	DD	imagerel $ip2state$??$_Resize_reallocate@U_Value_init_tag@std@@@?$vector@T__m128i@@V?$allocator@T__m128i@@@std@@@std@@AEAAX_KAEBU_Value_init_tag@1@@Z
xdata	ENDS
;	COMDAT xdata
xdata	SEGMENT
$unwind$??$_Resize_reallocate@U_Value_init_tag@std@@@?$vector@T__m128i@@V?$allocator@T__m128i@@@std@@@std@@AEAAX_KAEBU_Value_init_tag@1@@Z DD 021419H
	DD	07010d214H
	DD	imagerel __CxxFrameHandler4
	DD	imagerel $cppxdata$??$_Resize_reallocate@U_Value_init_tag@std@@@?$vector@T__m128i@@V?$allocator@T__m128i@@@std@@@std@@AEAAX_KAEBU_Value_init_tag@1@@Z
xdata	ENDS
;	COMDAT xdata
xdata	SEGMENT
$unwind$?call@?$functor1@HH$0A@Utvec4@glm@@@detail@glm@@SA?AU?$tvec4@H$0A@@3@P6AHH@ZAEBU43@@Z DD 021401H
	DD	070107214H
xdata	ENDS
;	COMDAT xdata
xdata	SEGMENT
$ip2state$??$_Deallocate@$0BA@$0A@@std@@YAXPEAX_K@Z DB 02H
	DB	00H
	DB	00H
xdata	ENDS
;	COMDAT xdata
xdata	SEGMENT
$cppxdata$??$_Deallocate@$0BA@$0A@@std@@YAXPEAX_K@Z DB 060H
	DD	imagerel $ip2state$??$_Deallocate@$0BA@$0A@@std@@YAXPEAX_K@Z
xdata	ENDS
;	COMDAT xdata
xdata	SEGMENT
$unwind$??$_Deallocate@$0BA@$0A@@std@@YAXPEAX_K@Z DD 020f19H
	DD	0700b320fH
	DD	imagerel __CxxFrameHandler4
	DD	imagerel $cppxdata$??$_Deallocate@$0BA@$0A@@std@@YAXPEAX_K@Z
xdata	ENDS
;	COMDAT xdata
xdata	SEGMENT
$unwind$??$_Destroy_range@V?$allocator@H@std@@@std@@YAXPEAHQEAHAEAV?$allocator@H@0@@Z DD 011001H
	DD	07010H
xdata	ENDS
;	COMDAT xdata
xdata	SEGMENT
$unwind$??$_Destroy_range@V?$allocator@_K@std@@@std@@YAXPEA_KQEA_KAEAV?$allocator@_K@0@@Z DD 011001H
	DD	07010H
xdata	ENDS
;	COMDAT xdata
xdata	SEGMENT
$unwind$??$_Destroy_range@V?$allocator@U?$tvec2@I$0A@@glm@@@std@@@std@@YAXPEAU?$tvec2@I$0A@@glm@@QEAU12@AEAV?$allocator@U?$tvec2@I$0A@@glm@@@0@@Z DD 011001H
	DD	07010H
xdata	ENDS
;	COMDAT xdata
xdata	SEGMENT
$unwind$??$_Destroy_range@V?$allocator@T__m128i@@@std@@@std@@YAXPEAT__m128i@@QEAT1@AEAV?$allocator@T__m128i@@@0@@Z DD 011001H
	DD	07010H
xdata	ENDS
;	COMDAT xdata
xdata	SEGMENT
$unwind$??$?0$$V@?$_Compressed_pair@V?$allocator@H@std@@V?$_Vector_val@U?$_Simple_types@H@std@@@2@$00@std@@QEAA@U_Zero_then_variadic_args_t@1@@Z DD 020e01H
	DD	0700a320eH
xdata	ENDS
;	COMDAT xdata
xdata	SEGMENT
$unwind$??$?0H@?$allocator@U_Container_proxy@std@@@std@@QEAA@AEBV?$allocator@H@1@@Z DD 010b01H
	DD	0700bH
xdata	ENDS
;	COMDAT xdata
xdata	SEGMENT
$unwind$??$_Resize@U_Value_init_tag@std@@@?$vector@HV?$allocator@H@std@@@std@@AEAAX_KAEBU_Value_init_tag@1@@Z DD 021401H
	DD	07010b214H
xdata	ENDS
;	COMDAT voltbl
voltbl	SEGMENT
_volmd	DB	00H
	DB	05H
voltbl	ENDS
;	COMDAT voltbl
voltbl	SEGMENT
_volmd	DB	00H
	DB	05H
voltbl	ENDS
;	COMDAT xdata
xdata	SEGMENT
$unwind$?dtor$1@?0???$_Construct_n@$$V@?$vector@_KV?$allocator@_K@std@@@std@@AEAAX_K@Z@4HA DD 031001H
	DD	0700c4210H
	DD	0500bH
xdata	ENDS
;	COMDAT xdata
xdata	SEGMENT
$unwind$?dtor$0@?0???$_Construct_n@$$V@?$vector@_KV?$allocator@_K@std@@@std@@AEAAX_K@Z@4HA DD 031001H
	DD	0700c4210H
	DD	0500bH
xdata	ENDS
;	COMDAT xdata
xdata	SEGMENT
$ip2state$??$_Construct_n@$$V@?$vector@_KV?$allocator@_K@std@@@std@@AEAAX_K@Z DB 0aH
	DB	00H
	DB	00H
	DB	0f0H
	DB	02H
	DB	'`'
	DB	04H
	DB	'`'
	DB	02H
	DB	'0'
	DB	00H
xdata	ENDS
;	COMDAT xdata
xdata	SEGMENT
$stateUnwindMap$??$_Construct_n@$$V@?$vector@_KV?$allocator@_K@std@@@std@@AEAAX_K@Z DB 04H
	DB	0eH
	DD	imagerel ?dtor$0@?0???$_Construct_n@$$V@?$vector@_KV?$allocator@_K@std@@@std@@AEAAX_K@Z@4HA
	DB	02eH
	DD	imagerel ?dtor$1@?0???$_Construct_n@$$V@?$vector@_KV?$allocator@_K@std@@@std@@AEAAX_K@Z@4HA
xdata	ENDS
;	COMDAT xdata
xdata	SEGMENT
$cppxdata$??$_Construct_n@$$V@?$vector@_KV?$allocator@_K@std@@@std@@AEAAX_K@Z DB 028H
	DD	imagerel $stateUnwindMap$??$_Construct_n@$$V@?$vector@_KV?$allocator@_K@std@@@std@@AEAAX_K@Z
	DD	imagerel $ip2state$??$_Construct_n@$$V@?$vector@_KV?$allocator@_K@std@@@std@@AEAAX_K@Z
xdata	ENDS
;	COMDAT xdata
xdata	SEGMENT
$unwind$??$_Construct_n@$$V@?$vector@_KV?$allocator@_K@std@@@std@@AEAAX_K@Z DD 032b11H
	DD	0140112H
	DD	0700bH
	DD	imagerel __CxxFrameHandler4
	DD	imagerel $cppxdata$??$_Construct_n@$$V@?$vector@_KV?$allocator@_K@std@@@std@@AEAAX_K@Z
xdata	ENDS
;	COMDAT CONST
CONST	SEGMENT
??$_Construct_n@$$V@?$vector@_KV?$allocator@_K@std@@@std@@AEAAX_K@Z$rtcName$0 DB 024H ; std::vector<unsigned __int64,std::allocator<unsigned __int64> >::_Construct_n<>
	DB	053H
	DB	036H
	DB	00H
??$_Construct_n@$$V@?$vector@_KV?$allocator@_K@std@@@std@@AEAAX_K@Z$rtcName$1 DB 05fH ; std::vector<unsigned __int64,std::allocator<unsigned __int64> >::_Construct_n<>
	DB	050H
	DB	072H
	DB	06fH
	DB	078H
	DB	079H
	DB	00H
	ORG $+1
??$_Construct_n@$$V@?$vector@_KV?$allocator@_K@std@@@std@@AEAAX_K@Z$rtcName$2 DB 05fH ; std::vector<unsigned __int64,std::allocator<unsigned __int64> >::_Construct_n<>
	DB	047H
	DB	075H
	DB	061H
	DB	072H
	DB	064H
	DB	00H
	ORG $+13
??$_Construct_n@$$V@?$vector@_KV?$allocator@_K@std@@@std@@AEAAX_K@Z$rtcVarDesc DD 088H ; std::vector<unsigned __int64,std::allocator<unsigned __int64> >::_Construct_n<>
	DD	08H
	DQ	FLAT:??$_Construct_n@$$V@?$vector@_KV?$allocator@_K@std@@@std@@AEAAX_K@Z$rtcName$2
	DD	058H
	DD	010H
	DQ	FLAT:??$_Construct_n@$$V@?$vector@_KV?$allocator@_K@std@@@std@@AEAAX_K@Z$rtcName$1
	DD	034H
	DD	01H
	DQ	FLAT:??$_Construct_n@$$V@?$vector@_KV?$allocator@_K@std@@@std@@AEAAX_K@Z$rtcName$0
	ORG $+144
??$_Construct_n@$$V@?$vector@_KV?$allocator@_K@std@@@std@@AEAAX_K@Z$rtcFrameData DD 03H ; std::vector<unsigned __int64,std::allocator<unsigned __int64> >::_Construct_n<>
	DD	00H
	DQ	FLAT:??$_Construct_n@$$V@?$vector@_KV?$allocator@_K@std@@@std@@AEAAX_K@Z$rtcVarDesc
CONST	ENDS
;	COMDAT xdata
xdata	SEGMENT
$unwind$??$?0AEBV?$allocator@_K@std@@$$V@?$_Compressed_pair@V?$allocator@_K@std@@V?$_Vector_val@U?$_Simple_types@_K@std@@@2@$00@std@@QEAA@U_One_then_variadic_args_t@1@AEBV?$allocator@_K@1@@Z DD 021301H
	DD	0700f3213H
xdata	ENDS
;	COMDAT xdata
xdata	SEGMENT
$unwind$??$?0_K@?$allocator@U_Container_proxy@std@@@std@@QEAA@AEBV?$allocator@_K@1@@Z DD 010b01H
	DD	0700bH
xdata	ENDS
;	COMDAT voltbl
voltbl	SEGMENT
_volmd	DB	00H
	DB	05H
voltbl	ENDS
;	COMDAT voltbl
voltbl	SEGMENT
_volmd	DB	00H
	DB	05H
voltbl	ENDS
;	COMDAT xdata
xdata	SEGMENT
$unwind$?dtor$1@?0???$_Construct_n@$$V@?$vector@U?$tvec2@I$0A@@glm@@V?$allocator@U?$tvec2@I$0A@@glm@@@std@@@std@@AEAAX_K@Z@4HA DD 031001H
	DD	0700c4210H
	DD	0500bH
xdata	ENDS
;	COMDAT xdata
xdata	SEGMENT
$unwind$?dtor$0@?0???$_Construct_n@$$V@?$vector@U?$tvec2@I$0A@@glm@@V?$allocator@U?$tvec2@I$0A@@glm@@@std@@@std@@AEAAX_K@Z@4HA DD 031001H
	DD	0700c4210H
	DD	0500bH
xdata	ENDS
;	COMDAT xdata
xdata	SEGMENT
$ip2state$??$_Construct_n@$$V@?$vector@U?$tvec2@I$0A@@glm@@V?$allocator@U?$tvec2@I$0A@@glm@@@std@@@std@@AEAAX_K@Z DB 0aH
	DB	00H
	DB	00H
	DB	0f0H
	DB	02H
	DB	'`'
	DB	04H
	DB	'`'
	DB	02H
	DB	'0'
	DB	00H
xdata	ENDS
;	COMDAT xdata
xdata	SEGMENT
$stateUnwindMap$??$_Construct_n@$$V@?$vector@U?$tvec2@I$0A@@glm@@V?$allocator@U?$tvec2@I$0A@@glm@@@std@@@std@@AEAAX_K@Z DB 04H
	DB	0eH
	DD	imagerel ?dtor$0@?0???$_Construct_n@$$V@?$vector@U?$tvec2@I$0A@@glm@@V?$allocator@U?$tvec2@I$0A@@glm@@@std@@@std@@AEAAX_K@Z@4HA
	DB	02eH
	DD	imagerel ?dtor$1@?0???$_Construct_n@$$V@?$vector@U?$tvec2@I$0A@@glm@@V?$allocator@U?$tvec2@I$0A@@glm@@@std@@@std@@AEAAX_K@Z@4HA
xdata	ENDS
;	COMDAT xdata
xdata	SEGMENT
$cppxdata$??$_Construct_n@$$V@?$vector@U?$tvec2@I$0A@@glm@@V?$allocator@U?$tvec2@I$0A@@glm@@@std@@@std@@AEAAX_K@Z DB 028H
	DD	imagerel $stateUnwindMap$??$_Construct_n@$$V@?$vector@U?$tvec2@I$0A@@glm@@V?$allocator@U?$tvec2@I$0A@@glm@@@std@@@std@@AEAAX_K@Z
	DD	imagerel $ip2state$??$_Construct_n@$$V@?$vector@U?$tvec2@I$0A@@glm@@V?$allocator@U?$tvec2@I$0A@@glm@@@std@@@std@@AEAAX_K@Z
xdata	ENDS
;	COMDAT xdata
xdata	SEGMENT
$unwind$??$_Construct_n@$$V@?$vector@U?$tvec2@I$0A@@glm@@V?$allocator@U?$tvec2@I$0A@@glm@@@std@@@std@@AEAAX_K@Z DD 032b11H
	DD	0140112H
	DD	0700bH
	DD	imagerel __CxxFrameHandler4
	DD	imagerel $cppxdata$??$_Construct_n@$$V@?$vector@U?$tvec2@I$0A@@glm@@V?$allocator@U?$tvec2@I$0A@@glm@@@std@@@std@@AEAAX_K@Z
xdata	ENDS
;	COMDAT CONST
CONST	SEGMENT
??$_Construct_n@$$V@?$vector@U?$tvec2@I$0A@@glm@@V?$allocator@U?$tvec2@I$0A@@glm@@@std@@@std@@AEAAX_K@Z$rtcName$0 DB 024H ; std::vector<glm::tvec2<unsigned int,0>,std::allocator<glm::tvec2<unsigned int,0> > >::_Construct_n<>
	DB	053H
	DB	035H
	DB	00H
??$_Construct_n@$$V@?$vector@U?$tvec2@I$0A@@glm@@V?$allocator@U?$tvec2@I$0A@@glm@@@std@@@std@@AEAAX_K@Z$rtcName$1 DB 05fH ; std::vector<glm::tvec2<unsigned int,0>,std::allocator<glm::tvec2<unsigned int,0> > >::_Construct_n<>
	DB	050H
	DB	072H
	DB	06fH
	DB	078H
	DB	079H
	DB	00H
	ORG $+1
??$_Construct_n@$$V@?$vector@U?$tvec2@I$0A@@glm@@V?$allocator@U?$tvec2@I$0A@@glm@@@std@@@std@@AEAAX_K@Z$rtcName$2 DB 05fH ; std::vector<glm::tvec2<unsigned int,0>,std::allocator<glm::tvec2<unsigned int,0> > >::_Construct_n<>
	DB	047H
	DB	075H
	DB	061H
	DB	072H
	DB	064H
	DB	00H
	ORG $+13
??$_Construct_n@$$V@?$vector@U?$tvec2@I$0A@@glm@@V?$allocator@U?$tvec2@I$0A@@glm@@@std@@@std@@AEAAX_K@Z$rtcVarDesc DD 088H ; std::vector<glm::tvec2<unsigned int,0>,std::allocator<glm::tvec2<unsigned int,0> > >::_Construct_n<>
	DD	08H
	DQ	FLAT:??$_Construct_n@$$V@?$vector@U?$tvec2@I$0A@@glm@@V?$allocator@U?$tvec2@I$0A@@glm@@@std@@@std@@AEAAX_K@Z$rtcName$2
	DD	058H
	DD	010H
	DQ	FLAT:??$_Construct_n@$$V@?$vector@U?$tvec2@I$0A@@glm@@V?$allocator@U?$tvec2@I$0A@@glm@@@std@@@std@@AEAAX_K@Z$rtcName$1
	DD	034H
	DD	01H
	DQ	FLAT:??$_Construct_n@$$V@?$vector@U?$tvec2@I$0A@@glm@@V?$allocator@U?$tvec2@I$0A@@glm@@@std@@@std@@AEAAX_K@Z$rtcName$0
	ORG $+144
??$_Construct_n@$$V@?$vector@U?$tvec2@I$0A@@glm@@V?$allocator@U?$tvec2@I$0A@@glm@@@std@@@std@@AEAAX_K@Z$rtcFrameData DD 03H ; std::vector<glm::tvec2<unsigned int,0>,std::allocator<glm::tvec2<unsigned int,0> > >::_Construct_n<>
	DD	00H
	DQ	FLAT:??$_Construct_n@$$V@?$vector@U?$tvec2@I$0A@@glm@@V?$allocator@U?$tvec2@I$0A@@glm@@@std@@@std@@AEAAX_K@Z$rtcVarDesc
CONST	ENDS
;	COMDAT xdata
xdata	SEGMENT
$unwind$??$?0AEBV?$allocator@U?$tvec2@I$0A@@glm@@@std@@$$V@?$_Compressed_pair@V?$allocator@U?$tvec2@I$0A@@glm@@@std@@V?$_Vector_val@U?$_Simple_types@U?$tvec2@I$0A@@glm@@@std@@@2@$00@std@@QEAA@U_One_then_variadic_args_t@1@AEBV?$allocator@U?$tvec2@I$0A@@glm@@@1@@Z DD 021301H
	DD	0700f3213H
xdata	ENDS
;	COMDAT xdata
xdata	SEGMENT
$unwind$??$?0U?$tvec2@I$0A@@glm@@@?$allocator@U_Container_proxy@std@@@std@@QEAA@AEBV?$allocator@U?$tvec2@I$0A@@glm@@@1@@Z DD 010b01H
	DD	0700bH
xdata	ENDS
;	COMDAT xdata
xdata	SEGMENT
$unwind$??$_Alloc_proxy@V?$allocator@U_Container_proxy@std@@@std@@@_Container_base12@std@@QEAAX$$QEAV?$allocator@U_Container_proxy@std@@@1@@Z DD 020f01H
	DD	0700b520fH
xdata	ENDS
;	COMDAT xdata
xdata	SEGMENT
$unwind$??$?0$$V@?$_Compressed_pair@V?$allocator@T__m128i@@@std@@V?$_Vector_val@U?$_Simple_types@T__m128i@@@std@@@2@$00@std@@QEAA@U_Zero_then_variadic_args_t@1@@Z DD 020e01H
	DD	0700a320eH
xdata	ENDS
;	COMDAT xdata
xdata	SEGMENT
$unwind$??$_Delete_plain_internal@V?$allocator@U_Container_proxy@std@@@std@@@std@@YAXAEAV?$allocator@U_Container_proxy@std@@@0@QEAU_Container_proxy@0@@Z DD 020f01H
	DD	0700b320fH
xdata	ENDS
;	COMDAT xdata
xdata	SEGMENT
$unwind$??$exchange@PEAU_Container_proxy@std@@$$T@std@@YAPEAU_Container_proxy@0@AEAPEAU10@$$QEA$$T@Z DD 020f01H
	DD	0700b120fH
xdata	ENDS
;	COMDAT xdata
xdata	SEGMENT
$unwind$??$?0T__m128i@@@?$allocator@U_Container_proxy@std@@@std@@QEAA@AEBV?$allocator@T__m128i@@@1@@Z DD 010b01H
	DD	0700bH
xdata	ENDS
;	COMDAT xdata
xdata	SEGMENT
$unwind$?allocate@?$allocator@U_Container_proxy@std@@@std@@QEAAPEAU_Container_proxy@2@_K@Z DD 020f01H
	DD	0700b320fH
xdata	ENDS
;	COMDAT xdata
xdata	SEGMENT
$unwind$??$_Resize@U_Value_init_tag@std@@@?$vector@T__m128i@@V?$allocator@T__m128i@@@std@@@std@@AEAAX_KAEBU_Value_init_tag@1@@Z DD 021401H
	DD	07010b214H
xdata	ENDS
;	COMDAT xdata
xdata	SEGMENT
$unwind$?_Get_first@?$_Compressed_pair@V?$allocator@T__m128i@@@std@@V?$_Vector_val@U?$_Simple_types@T__m128i@@@std@@@2@$00@std@@QEBAAEBV?$allocator@T__m128i@@@2@XZ DD 010601H
	DD	07006H
xdata	ENDS
;	COMDAT xdata
xdata	SEGMENT
$unwind$?_Get_first@?$_Compressed_pair@V?$allocator@T__m128i@@@std@@V?$_Vector_val@U?$_Simple_types@T__m128i@@@std@@@2@$00@std@@QEAAAEAV?$allocator@T__m128i@@@2@XZ DD 010601H
	DD	07006H
xdata	ENDS
;	COMDAT xdata
xdata	SEGMENT
$unwind$??0?$_Vector_val@U?$_Simple_types@T__m128i@@@std@@@std@@QEAA@XZ DD 020a01H
	DD	07006320aH
xdata	ENDS
;	COMDAT xdata
xdata	SEGMENT
$unwind$?_Getal@?$vector@T__m128i@@V?$allocator@T__m128i@@@std@@@std@@AEBAAEBV?$allocator@T__m128i@@@2@XZ DD 020a01H
	DD	07006320aH
xdata	ENDS
;	COMDAT xdata
xdata	SEGMENT
$unwind$?_Getal@?$vector@T__m128i@@V?$allocator@T__m128i@@@std@@@std@@AEAAAEAV?$allocator@T__m128i@@@2@XZ DD 020a01H
	DD	07006320aH
xdata	ENDS
;	COMDAT xdata
xdata	SEGMENT
$unwind$?_Orphan_range@?$vector@T__m128i@@V?$allocator@T__m128i@@@std@@@std@@AEBAXPEAT__m128i@@0@Z DD 021401H
	DD	070103214H
xdata	ENDS
;	COMDAT voltbl
voltbl	SEGMENT
_volmd	DB	00H
	DB	05H
voltbl	ENDS
;	COMDAT xdata
xdata	SEGMENT
$unwind$?dtor$0@?0??_Orphan_range_locked@?$vector@T__m128i@@V?$allocator@T__m128i@@@std@@@std@@AEBAXPEAT__m128i@@0@Z@4HA DD 031001H
	DD	0700c4210H
	DD	0500bH
xdata	ENDS
;	COMDAT xdata
xdata	SEGMENT
$ip2state$?_Orphan_range_locked@?$vector@T__m128i@@V?$allocator@T__m128i@@@std@@@std@@AEBAXPEAT__m128i@@0@Z DB 06H
	DB	00H
	DB	00H
	DB	'v'
	DB	02H
	DB	'*'
	DB	00H
xdata	ENDS
;	COMDAT xdata
xdata	SEGMENT
$stateUnwindMap$?_Orphan_range_locked@?$vector@T__m128i@@V?$allocator@T__m128i@@@std@@@std@@AEBAXPEAT__m128i@@0@Z DB 02H
	DB	0eH
	DD	imagerel ?dtor$0@?0??_Orphan_range_locked@?$vector@T__m128i@@V?$allocator@T__m128i@@@std@@@std@@AEBAXPEAT__m128i@@0@Z@4HA
xdata	ENDS
;	COMDAT xdata
xdata	SEGMENT
$cppxdata$?_Orphan_range_locked@?$vector@T__m128i@@V?$allocator@T__m128i@@@std@@@std@@AEBAXPEAT__m128i@@0@Z DB 028H
	DD	imagerel $stateUnwindMap$?_Orphan_range_locked@?$vector@T__m128i@@V?$allocator@T__m128i@@@std@@@std@@AEBAXPEAT__m128i@@0@Z
	DD	imagerel $ip2state$?_Orphan_range_locked@?$vector@T__m128i@@V?$allocator@T__m128i@@@std@@@std@@AEBAXPEAT__m128i@@0@Z
xdata	ENDS
;	COMDAT xdata
xdata	SEGMENT
$unwind$?_Orphan_range_locked@?$vector@T__m128i@@V?$allocator@T__m128i@@@std@@@std@@AEBAXPEAT__m128i@@0@Z DD 022a11H
	DD	070107214H
	DD	imagerel __CxxFrameHandler4
	DD	imagerel $cppxdata$?_Orphan_range_locked@?$vector@T__m128i@@V?$allocator@T__m128i@@@std@@@std@@AEBAXPEAT__m128i@@0@Z
xdata	ENDS
;	COMDAT CONST
CONST	SEGMENT
?_Orphan_range_locked@?$vector@T__m128i@@V?$allocator@T__m128i@@@std@@@std@@AEBAXPEAT__m128i@@0@Z$rtcName$0 DB 05fH ; std::vector<__m128i,std::allocator<__m128i> >::_Orphan_range_locked
	DB	04cH
	DB	06fH
	DB	063H
	DB	06bH
	DB	00H
	ORG $+10
?_Orphan_range_locked@?$vector@T__m128i@@V?$allocator@T__m128i@@@std@@@std@@AEBAXPEAT__m128i@@0@Z$rtcVarDesc DD 024H ; std::vector<__m128i,std::allocator<__m128i> >::_Orphan_range_locked
	DD	04H
	DQ	FLAT:?_Orphan_range_locked@?$vector@T__m128i@@V?$allocator@T__m128i@@@std@@@std@@AEBAXPEAT__m128i@@0@Z$rtcName$0
	ORG $+48
?_Orphan_range_locked@?$vector@T__m128i@@V?$allocator@T__m128i@@@std@@@std@@AEBAXPEAT__m128i@@0@Z$rtcFrameData DD 01H ; std::vector<__m128i,std::allocator<__m128i> >::_Orphan_range_locked
	DD	00H
	DQ	FLAT:?_Orphan_range_locked@?$vector@T__m128i@@V?$allocator@T__m128i@@@std@@@std@@AEBAXPEAT__m128i@@0@Z$rtcVarDesc
CONST	ENDS
;	COMDAT xdata
xdata	SEGMENT
$unwind$?_Orphan_range_unlocked@?$vector@T__m128i@@V?$allocator@T__m128i@@@std@@@std@@AEBAXPEAT__m128i@@0@Z DD 021401H
	DD	070103214H
xdata	ENDS
;	COMDAT xdata
xdata	SEGMENT
$unwind$?_Xlength@?$vector@T__m128i@@V?$allocator@T__m128i@@@std@@@std@@CAXXZ DD 020601H
	DD	070023206H
xdata	ENDS
;	COMDAT xdata
xdata	SEGMENT
$ip2state$?_Tidy@?$vector@T__m128i@@V?$allocator@T__m128i@@@std@@@std@@AEAAXXZ DB 02H
	DB	00H
	DB	00H
xdata	ENDS
;	COMDAT xdata
xdata	SEGMENT
$cppxdata$?_Tidy@?$vector@T__m128i@@V?$allocator@T__m128i@@@std@@@std@@AEAAXXZ DB 060H
	DD	imagerel $ip2state$?_Tidy@?$vector@T__m128i@@V?$allocator@T__m128i@@@std@@@std@@AEAAXXZ
xdata	ENDS
;	COMDAT xdata
xdata	SEGMENT
$unwind$?_Tidy@?$vector@T__m128i@@V?$allocator@T__m128i@@@std@@@std@@AEAAXXZ DD 020a19H
	DD	07006920aH
	DD	imagerel __CxxFrameHandler4
	DD	imagerel $cppxdata$?_Tidy@?$vector@T__m128i@@V?$allocator@T__m128i@@@std@@@std@@AEAAXXZ
xdata	ENDS
;	COMDAT xdata
xdata	SEGMENT
$unwind$?_Change_array@?$vector@T__m128i@@V?$allocator@T__m128i@@@std@@@std@@AEAAXQEAT__m128i@@_K1@Z DD 021901H
	DD	070159219H
xdata	ENDS
;	COMDAT xdata
xdata	SEGMENT
$unwind$?_Calculate_growth@?$vector@T__m128i@@V?$allocator@T__m128i@@@std@@@std@@AEBA_K_K@Z DD 020f01H
	DD	0700b720fH
xdata	ENDS
;	COMDAT xdata
xdata	SEGMENT
$unwind$??A?$vector@T__m128i@@V?$allocator@T__m128i@@@std@@@std@@QEAAAEAT__m128i@@_K@Z DD 020f01H
	DD	0700b720fH
xdata	ENDS
;	COMDAT xdata
xdata	SEGMENT
$unwind$?capacity@?$vector@T__m128i@@V?$allocator@T__m128i@@@std@@@std@@QEBA_KXZ DD 020a01H
	DD	07006120aH
xdata	ENDS
;	COMDAT xdata
xdata	SEGMENT
$unwind$?max_size@?$vector@T__m128i@@V?$allocator@T__m128i@@@std@@@std@@QEBA_KXZ DD 020a01H
	DD	07006520aH
xdata	ENDS
;	COMDAT xdata
xdata	SEGMENT
$unwind$?size@?$vector@T__m128i@@V?$allocator@T__m128i@@@std@@@std@@QEBA_KXZ DD 020a01H
	DD	07006120aH
xdata	ENDS
;	COMDAT xdata
xdata	SEGMENT
$unwind$?resize@?$vector@T__m128i@@V?$allocator@T__m128i@@@std@@@std@@QEAAX_K@Z DD 020f01H
	DD	0700b520fH
xdata	ENDS
;	COMDAT xdata
xdata	SEGMENT
$unwind$??1?$vector@T__m128i@@V?$allocator@T__m128i@@@std@@@std@@QEAA@XZ DD 022001H
	DD	07006920aH
xdata	ENDS
;	COMDAT CONST
CONST	SEGMENT
??1?$vector@T__m128i@@V?$allocator@T__m128i@@@std@@@std@@QEAA@XZ$rtcName$0 DB 024H ; std::vector<__m128i,std::allocator<__m128i> >::~vector<__m128i,std::allocator<__m128i> >
	DB	053H
	DB	031H
	DB	00H
	ORG $+12
??1?$vector@T__m128i@@V?$allocator@T__m128i@@@std@@@std@@QEAA@XZ$rtcVarDesc DD 034H ; std::vector<__m128i,std::allocator<__m128i> >::~vector<__m128i,std::allocator<__m128i> >
	DD	01H
	DQ	FLAT:??1?$vector@T__m128i@@V?$allocator@T__m128i@@@std@@@std@@QEAA@XZ$rtcName$0
	ORG $+48
??1?$vector@T__m128i@@V?$allocator@T__m128i@@@std@@@std@@QEAA@XZ$rtcFrameData DD 01H ; std::vector<__m128i,std::allocator<__m128i> >::~vector<__m128i,std::allocator<__m128i> >
	DD	00H
	DQ	FLAT:??1?$vector@T__m128i@@V?$allocator@T__m128i@@@std@@@std@@QEAA@XZ$rtcVarDesc
CONST	ENDS
;	COMDAT xdata
xdata	SEGMENT
$ip2state$??0?$vector@T__m128i@@V?$allocator@T__m128i@@@std@@@std@@QEAA@XZ DB 02H
	DB	00H
	DB	00H
xdata	ENDS
;	COMDAT xdata
xdata	SEGMENT
$cppxdata$??0?$vector@T__m128i@@V?$allocator@T__m128i@@@std@@@std@@QEAA@XZ DB 060H
	DD	imagerel $ip2state$??0?$vector@T__m128i@@V?$allocator@T__m128i@@@std@@@std@@QEAA@XZ
xdata	ENDS
;	COMDAT xdata
xdata	SEGMENT
$unwind$??0?$vector@T__m128i@@V?$allocator@T__m128i@@@std@@@std@@QEAA@XZ DD 020a19H
	DD	07006520aH
	DD	imagerel __CxxFrameHandler4
	DD	imagerel $cppxdata$??0?$vector@T__m128i@@V?$allocator@T__m128i@@@std@@@std@@QEAA@XZ
xdata	ENDS
;	COMDAT xdata
xdata	SEGMENT
$unwind$?max_size@?$_Default_allocator_traits@V?$allocator@T__m128i@@@std@@@std@@SA_KAEBV?$allocator@T__m128i@@@2@@Z DD 010601H
	DD	07006H
xdata	ENDS
;	COMDAT xdata
xdata	SEGMENT
$unwind$?allocate@?$allocator@T__m128i@@@std@@QEAAPEAT__m128i@@_K@Z DD 020f01H
	DD	0700b320fH
xdata	ENDS
;	COMDAT xdata
xdata	SEGMENT
$unwind$?deallocate@?$allocator@T__m128i@@@std@@QEAAXQEAT__m128i@@_K@Z DD 021401H
	DD	070105214H
xdata	ENDS
;	COMDAT xdata
xdata	SEGMENT
$unwind$??0?$allocator@T__m128i@@@std@@QEAA@XZ DD 010601H
	DD	07006H
xdata	ENDS
;	COMDAT xdata
xdata	SEGMENT
$unwind$?_Get_first@?$_Compressed_pair@V?$allocator@U?$tvec2@I$0A@@glm@@@std@@V?$_Vector_val@U?$_Simple_types@U?$tvec2@I$0A@@glm@@@std@@@2@$00@std@@QEBAAEBV?$allocator@U?$tvec2@I$0A@@glm@@@2@XZ DD 010601H
	DD	07006H
xdata	ENDS
;	COMDAT xdata
xdata	SEGMENT
$unwind$?_Get_first@?$_Compressed_pair@V?$allocator@U?$tvec2@I$0A@@glm@@@std@@V?$_Vector_val@U?$_Simple_types@U?$tvec2@I$0A@@glm@@@std@@@2@$00@std@@QEAAAEAV?$allocator@U?$tvec2@I$0A@@glm@@@2@XZ DD 010601H
	DD	07006H
xdata	ENDS
;	COMDAT xdata
xdata	SEGMENT
$unwind$??0?$_Vector_val@U?$_Simple_types@U?$tvec2@I$0A@@glm@@@std@@@std@@QEAA@XZ DD 020a01H
	DD	07006320aH
xdata	ENDS
;	COMDAT xdata
xdata	SEGMENT
$unwind$?_Getal@?$vector@U?$tvec2@I$0A@@glm@@V?$allocator@U?$tvec2@I$0A@@glm@@@std@@@std@@AEBAAEBV?$allocator@U?$tvec2@I$0A@@glm@@@2@XZ DD 020a01H
	DD	07006320aH
xdata	ENDS
;	COMDAT xdata
xdata	SEGMENT
$unwind$?_Getal@?$vector@U?$tvec2@I$0A@@glm@@V?$allocator@U?$tvec2@I$0A@@glm@@@std@@@std@@AEAAAEAV?$allocator@U?$tvec2@I$0A@@glm@@@2@XZ DD 020a01H
	DD	07006320aH
xdata	ENDS
;	COMDAT xdata
xdata	SEGMENT
$unwind$?_Xlength@?$vector@U?$tvec2@I$0A@@glm@@V?$allocator@U?$tvec2@I$0A@@glm@@@std@@@std@@CAXXZ DD 020601H
	DD	070023206H
xdata	ENDS
;	COMDAT xdata
xdata	SEGMENT
$ip2state$?_Tidy@?$vector@U?$tvec2@I$0A@@glm@@V?$allocator@U?$tvec2@I$0A@@glm@@@std@@@std@@AEAAXXZ DB 02H
	DB	00H
	DB	00H
xdata	ENDS
;	COMDAT xdata
xdata	SEGMENT
$cppxdata$?_Tidy@?$vector@U?$tvec2@I$0A@@glm@@V?$allocator@U?$tvec2@I$0A@@glm@@@std@@@std@@AEAAXXZ DB 060H
	DD	imagerel $ip2state$?_Tidy@?$vector@U?$tvec2@I$0A@@glm@@V?$allocator@U?$tvec2@I$0A@@glm@@@std@@@std@@AEAAXXZ
xdata	ENDS
;	COMDAT xdata
xdata	SEGMENT
$unwind$?_Tidy@?$vector@U?$tvec2@I$0A@@glm@@V?$allocator@U?$tvec2@I$0A@@glm@@@std@@@std@@AEAAXXZ DD 020a19H
	DD	07006920aH
	DD	imagerel __CxxFrameHandler4
	DD	imagerel $cppxdata$?_Tidy@?$vector@U?$tvec2@I$0A@@glm@@V?$allocator@U?$tvec2@I$0A@@glm@@@std@@@std@@AEAAXXZ
xdata	ENDS
;	COMDAT xdata
xdata	SEGMENT
$unwind$?_Buy_nonzero@?$vector@U?$tvec2@I$0A@@glm@@V?$allocator@U?$tvec2@I$0A@@glm@@@std@@@std@@AEAAX_K@Z DD 020f01H
	DD	0700b320fH
xdata	ENDS
;	COMDAT xdata
xdata	SEGMENT
$unwind$?_Buy_raw@?$vector@U?$tvec2@I$0A@@glm@@V?$allocator@U?$tvec2@I$0A@@glm@@@std@@@std@@AEAAX_K@Z DD 020f01H
	DD	0700b920fH
xdata	ENDS
;	COMDAT xdata
xdata	SEGMENT
$unwind$??A?$vector@U?$tvec2@I$0A@@glm@@V?$allocator@U?$tvec2@I$0A@@glm@@@std@@@std@@QEAAAEAU?$tvec2@I$0A@@glm@@_K@Z DD 020f01H
	DD	0700b720fH
xdata	ENDS
;	COMDAT xdata
xdata	SEGMENT
$unwind$?max_size@?$vector@U?$tvec2@I$0A@@glm@@V?$allocator@U?$tvec2@I$0A@@glm@@@std@@@std@@QEBA_KXZ DD 020a01H
	DD	07006520aH
xdata	ENDS
;	COMDAT xdata
xdata	SEGMENT
$unwind$?size@?$vector@U?$tvec2@I$0A@@glm@@V?$allocator@U?$tvec2@I$0A@@glm@@@std@@@std@@QEBA_KXZ DD 020a01H
	DD	07006120aH
xdata	ENDS
;	COMDAT xdata
xdata	SEGMENT
$unwind$??1?$vector@U?$tvec2@I$0A@@glm@@V?$allocator@U?$tvec2@I$0A@@glm@@@std@@@std@@QEAA@XZ DD 022001H
	DD	07006920aH
xdata	ENDS
;	COMDAT CONST
CONST	SEGMENT
??1?$vector@U?$tvec2@I$0A@@glm@@V?$allocator@U?$tvec2@I$0A@@glm@@@std@@@std@@QEAA@XZ$rtcName$0 DB 024H ; std::vector<glm::tvec2<unsigned int,0>,std::allocator<glm::tvec2<unsigned int,0> > >::~vector<glm::tvec2<unsigned int,0>,std::allocator<glm::tvec2<unsigned int,0> > >
	DB	053H
	DB	032H
	DB	00H
	ORG $+12
??1?$vector@U?$tvec2@I$0A@@glm@@V?$allocator@U?$tvec2@I$0A@@glm@@@std@@@std@@QEAA@XZ$rtcVarDesc DD 034H ; std::vector<glm::tvec2<unsigned int,0>,std::allocator<glm::tvec2<unsigned int,0> > >::~vector<glm::tvec2<unsigned int,0>,std::allocator<glm::tvec2<unsigned int,0> > >
	DD	01H
	DQ	FLAT:??1?$vector@U?$tvec2@I$0A@@glm@@V?$allocator@U?$tvec2@I$0A@@glm@@@std@@@std@@QEAA@XZ$rtcName$0
	ORG $+48
??1?$vector@U?$tvec2@I$0A@@glm@@V?$allocator@U?$tvec2@I$0A@@glm@@@std@@@std@@QEAA@XZ$rtcFrameData DD 01H ; std::vector<glm::tvec2<unsigned int,0>,std::allocator<glm::tvec2<unsigned int,0> > >::~vector<glm::tvec2<unsigned int,0>,std::allocator<glm::tvec2<unsigned int,0> > >
	DD	00H
	DQ	FLAT:??1?$vector@U?$tvec2@I$0A@@glm@@V?$allocator@U?$tvec2@I$0A@@glm@@@std@@@std@@QEAA@XZ$rtcVarDesc
CONST	ENDS
;	COMDAT xdata
xdata	SEGMENT
$unwind$??0?$vector@U?$tvec2@I$0A@@glm@@V?$allocator@U?$tvec2@I$0A@@glm@@@std@@@std@@QEAA@_KAEBV?$allocator@U?$tvec2@I$0A@@glm@@@1@@Z DD 021401H
	DD	070105214H
xdata	ENDS
;	COMDAT xdata
xdata	SEGMENT
$unwind$?max_size@?$_Default_allocator_traits@V?$allocator@U?$tvec2@I$0A@@glm@@@std@@@std@@SA_KAEBV?$allocator@U?$tvec2@I$0A@@glm@@@2@@Z DD 010601H
	DD	07006H
xdata	ENDS
;	COMDAT xdata
xdata	SEGMENT
$unwind$?allocate@?$allocator@U?$tvec2@I$0A@@glm@@@std@@QEAAPEAU?$tvec2@I$0A@@glm@@_K@Z DD 020f01H
	DD	0700b320fH
xdata	ENDS
;	COMDAT xdata
xdata	SEGMENT
$unwind$?deallocate@?$allocator@U?$tvec2@I$0A@@glm@@@std@@QEAAXQEAU?$tvec2@I$0A@@glm@@_K@Z DD 021401H
	DD	070105214H
xdata	ENDS
;	COMDAT xdata
xdata	SEGMENT
$unwind$??0?$allocator@U?$tvec2@I$0A@@glm@@@std@@QEAA@XZ DD 010601H
	DD	07006H
xdata	ENDS
;	COMDAT xdata
xdata	SEGMENT
$unwind$?_Get_first@?$_Compressed_pair@V?$allocator@_K@std@@V?$_Vector_val@U?$_Simple_types@_K@std@@@2@$00@std@@QEBAAEBV?$allocator@_K@2@XZ DD 010601H
	DD	07006H
xdata	ENDS
;	COMDAT xdata
xdata	SEGMENT
$unwind$?_Get_first@?$_Compressed_pair@V?$allocator@_K@std@@V?$_Vector_val@U?$_Simple_types@_K@std@@@2@$00@std@@QEAAAEAV?$allocator@_K@2@XZ DD 010601H
	DD	07006H
xdata	ENDS
;	COMDAT xdata
xdata	SEGMENT
$unwind$??0?$_Vector_val@U?$_Simple_types@_K@std@@@std@@QEAA@XZ DD 020a01H
	DD	07006320aH
xdata	ENDS
;	COMDAT xdata
xdata	SEGMENT
$unwind$?_Getal@?$vector@_KV?$allocator@_K@std@@@std@@AEBAAEBV?$allocator@_K@2@XZ DD 020a01H
	DD	07006320aH
xdata	ENDS
;	COMDAT xdata
xdata	SEGMENT
$unwind$?_Getal@?$vector@_KV?$allocator@_K@std@@@std@@AEAAAEAV?$allocator@_K@2@XZ DD 020a01H
	DD	07006320aH
xdata	ENDS
;	COMDAT xdata
xdata	SEGMENT
$unwind$?_Xlength@?$vector@_KV?$allocator@_K@std@@@std@@CAXXZ DD 020601H
	DD	070023206H
xdata	ENDS
;	COMDAT xdata
xdata	SEGMENT
$ip2state$?_Tidy@?$vector@_KV?$allocator@_K@std@@@std@@AEAAXXZ DB 02H
	DB	00H
	DB	00H
xdata	ENDS
;	COMDAT xdata
xdata	SEGMENT
$cppxdata$?_Tidy@?$vector@_KV?$allocator@_K@std@@@std@@AEAAXXZ DB 060H
	DD	imagerel $ip2state$?_Tidy@?$vector@_KV?$allocator@_K@std@@@std@@AEAAXXZ
xdata	ENDS
;	COMDAT xdata
xdata	SEGMENT
$unwind$?_Tidy@?$vector@_KV?$allocator@_K@std@@@std@@AEAAXXZ DD 020a19H
	DD	07006920aH
	DD	imagerel __CxxFrameHandler4
	DD	imagerel $cppxdata$?_Tidy@?$vector@_KV?$allocator@_K@std@@@std@@AEAAXXZ
xdata	ENDS
;	COMDAT xdata
xdata	SEGMENT
$unwind$?_Buy_nonzero@?$vector@_KV?$allocator@_K@std@@@std@@AEAAX_K@Z DD 020f01H
	DD	0700b320fH
xdata	ENDS
;	COMDAT xdata
xdata	SEGMENT
$unwind$?_Buy_raw@?$vector@_KV?$allocator@_K@std@@@std@@AEAAX_K@Z DD 020f01H
	DD	0700b920fH
xdata	ENDS
;	COMDAT xdata
xdata	SEGMENT
$unwind$??A?$vector@_KV?$allocator@_K@std@@@std@@QEAAAEA_K_K@Z DD 020f01H
	DD	0700b720fH
xdata	ENDS
;	COMDAT xdata
xdata	SEGMENT
$unwind$?max_size@?$vector@_KV?$allocator@_K@std@@@std@@QEBA_KXZ DD 020a01H
	DD	07006520aH
xdata	ENDS
;	COMDAT xdata
xdata	SEGMENT
$unwind$?size@?$vector@_KV?$allocator@_K@std@@@std@@QEBA_KXZ DD 020a01H
	DD	07006120aH
xdata	ENDS
;	COMDAT xdata
xdata	SEGMENT
$unwind$??1?$vector@_KV?$allocator@_K@std@@@std@@QEAA@XZ DD 022001H
	DD	07006920aH
xdata	ENDS
;	COMDAT CONST
CONST	SEGMENT
??1?$vector@_KV?$allocator@_K@std@@@std@@QEAA@XZ$rtcName$0 DB 024H ; std::vector<unsigned __int64,std::allocator<unsigned __int64> >::~vector<unsigned __int64,std::allocator<unsigned __int64> >
	DB	053H
	DB	033H
	DB	00H
	ORG $+12
??1?$vector@_KV?$allocator@_K@std@@@std@@QEAA@XZ$rtcVarDesc DD 034H ; std::vector<unsigned __int64,std::allocator<unsigned __int64> >::~vector<unsigned __int64,std::allocator<unsigned __int64> >
	DD	01H
	DQ	FLAT:??1?$vector@_KV?$allocator@_K@std@@@std@@QEAA@XZ$rtcName$0
	ORG $+48
??1?$vector@_KV?$allocator@_K@std@@@std@@QEAA@XZ$rtcFrameData DD 01H ; std::vector<unsigned __int64,std::allocator<unsigned __int64> >::~vector<unsigned __int64,std::allocator<unsigned __int64> >
	DD	00H
	DQ	FLAT:??1?$vector@_KV?$allocator@_K@std@@@std@@QEAA@XZ$rtcVarDesc
CONST	ENDS
;	COMDAT xdata
xdata	SEGMENT
$unwind$??0?$vector@_KV?$allocator@_K@std@@@std@@QEAA@_KAEBV?$allocator@_K@1@@Z DD 021401H
	DD	070105214H
xdata	ENDS
;	COMDAT xdata
xdata	SEGMENT
$unwind$?max_size@?$_Default_allocator_traits@V?$allocator@_K@std@@@std@@SA_KAEBV?$allocator@_K@2@@Z DD 010601H
	DD	07006H
xdata	ENDS
;	COMDAT xdata
xdata	SEGMENT
$unwind$?allocate@?$allocator@_K@std@@QEAAPEA_K_K@Z DD 020f01H
	DD	0700b320fH
xdata	ENDS
;	COMDAT xdata
xdata	SEGMENT
$unwind$?deallocate@?$allocator@_K@std@@QEAAXQEA_K_K@Z DD 021401H
	DD	070105214H
xdata	ENDS
;	COMDAT xdata
xdata	SEGMENT
$unwind$??0?$allocator@_K@std@@QEAA@XZ DD 010601H
	DD	07006H
xdata	ENDS
;	COMDAT voltbl
voltbl	SEGMENT
_volmd	DW	032H
	DW	0464H
voltbl	ENDS
;	COMDAT xdata
xdata	SEGMENT
$unwind$?sseUnalignedBitfieldInterleave@bitfieldInterleave@@YA_KII@Z DD 033a19H
	DD	0500110H
	DD	07009H
	DD	imagerel __GSHandlerCheck
	DD	0270H
xdata	ENDS
;	COMDAT CONST
CONST	SEGMENT
?sseUnalignedBitfieldInterleave@bitfieldInterleave@@YA_KII@Z$rtcName$0 DB 041H ; bitfieldInterleave::sseUnalignedBitfieldInterleave
	DB	072H
	DB	072H
	DB	061H
	DB	079H
	DB	00H
	ORG $+2
?sseUnalignedBitfieldInterleave@bitfieldInterleave@@YA_KII@Z$rtcName$1 DB 052H ; bitfieldInterleave::sseUnalignedBitfieldInterleave
	DB	065H
	DB	073H
	DB	075H
	DB	06cH
	DB	074H
	DB	00H
	ORG $+1
?sseUnalignedBitfieldInterleave@bitfieldInterleave@@YA_KII@Z$rtcVarDesc DD 0248H ; bitfieldInterleave::sseUnalignedBitfieldInterleave
	DD	010H
	DQ	FLAT:?sseUnalignedBitfieldInterleave@bitfieldInterleave@@YA_KII@Z$rtcName$1
	DD	028H
	DD	010H
	DQ	FLAT:?sseUnalignedBitfieldInterleave@bitfieldInterleave@@YA_KII@Z$rtcName$0
	ORG $+96
?sseUnalignedBitfieldInterleave@bitfieldInterleave@@YA_KII@Z$rtcFrameData DD 02H ; bitfieldInterleave::sseUnalignedBitfieldInterleave
	DD	00H
	DQ	FLAT:?sseUnalignedBitfieldInterleave@bitfieldInterleave@@YA_KII@Z$rtcVarDesc
CONST	ENDS
;	COMDAT voltbl
voltbl	SEGMENT
_volmd	DW	032H
	DW	0464H
voltbl	ENDS
;	COMDAT xdata
xdata	SEGMENT
$unwind$?sseBitfieldInterleave@bitfieldInterleave@@YA_KII@Z DD 033a19H
	DD	0500110H
	DD	07009H
	DD	imagerel __GSHandlerCheck
	DD	0270H
xdata	ENDS
;	COMDAT CONST
CONST	SEGMENT
?sseBitfieldInterleave@bitfieldInterleave@@YA_KII@Z$rtcName$0 DB 041H ; bitfieldInterleave::sseBitfieldInterleave
	DB	072H
	DB	072H
	DB	061H
	DB	079H
	DB	00H
	ORG $+2
?sseBitfieldInterleave@bitfieldInterleave@@YA_KII@Z$rtcName$1 DB 052H ; bitfieldInterleave::sseBitfieldInterleave
	DB	065H
	DB	073H
	DB	075H
	DB	06cH
	DB	074H
	DB	00H
	ORG $+1
?sseBitfieldInterleave@bitfieldInterleave@@YA_KII@Z$rtcVarDesc DD 0250H ; bitfieldInterleave::sseBitfieldInterleave
	DD	010H
	DQ	FLAT:?sseBitfieldInterleave@bitfieldInterleave@@YA_KII@Z$rtcName$1
	DD	030H
	DD	010H
	DQ	FLAT:?sseBitfieldInterleave@bitfieldInterleave@@YA_KII@Z$rtcName$0
	ORG $+96
?sseBitfieldInterleave@bitfieldInterleave@@YA_KII@Z$rtcFrameData DD 02H ; bitfieldInterleave::sseBitfieldInterleave
	DD	00H
	DQ	FLAT:?sseBitfieldInterleave@bitfieldInterleave@@YA_KII@Z$rtcVarDesc
CONST	ENDS
;	COMDAT xdata
xdata	SEGMENT
$unwind$?interleaveBitfieldInterleave@bitfieldInterleave@@YA_KII@Z DD 020d01H
	DD	07009120dH
xdata	ENDS
;	COMDAT xdata
xdata	SEGMENT
$unwind$?fastBitfieldInterleave@bitfieldInterleave@@YA_KII@Z DD 020d01H
	DD	07009120dH
xdata	ENDS
;	COMDAT voltbl
voltbl	SEGMENT
_volmd	DW	041H
	DW	01aaH
voltbl	ENDS
;	COMDAT xdata
xdata	SEGMENT
$unwind$??$loopBitfieldInterleave@G_K@bitfieldInterleave4@@YA_KGGGG@Z DD 024619H
	DD	07017f21eH
	DD	imagerel __GSHandlerCheck
	DD	070H
xdata	ENDS
;	COMDAT CONST
CONST	SEGMENT
??$loopBitfieldInterleave@G_K@bitfieldInterleave4@@YA_KGGGG@Z$rtcName$0 DB 076H ; bitfieldInterleave4::loopBitfieldInterleave<unsigned short,unsigned __int64>
	DB	00H
	ORG $+14
??$loopBitfieldInterleave@G_K@bitfieldInterleave4@@YA_KGGGG@Z$rtcVarDesc DD 028H ; bitfieldInterleave4::loopBitfieldInterleave<unsigned short,unsigned __int64>
	DD	020H
	DQ	FLAT:??$loopBitfieldInterleave@G_K@bitfieldInterleave4@@YA_KGGGG@Z$rtcName$0
	ORG $+48
??$loopBitfieldInterleave@G_K@bitfieldInterleave4@@YA_KGGGG@Z$rtcFrameData DD 01H ; bitfieldInterleave4::loopBitfieldInterleave<unsigned short,unsigned __int64>
	DD	00H
	DQ	FLAT:??$loopBitfieldInterleave@G_K@bitfieldInterleave4@@YA_KGGGG@Z$rtcVarDesc
CONST	ENDS
;	COMDAT xdata
xdata	SEGMENT
$unwind$??$refBitfieldInterleave@G_K@bitfieldInterleave3@@YA_KGGG@Z DD 021501H
	DD	070111215H
xdata	ENDS
;	COMDAT xdata
xdata	SEGMENT
$unwind$??$all@$0A@Utvec4@glm@@@glm@@YA_NAEBU?$tvec4@_N$0A@@0@@Z DD 020a01H
	DD	07006520aH
xdata	ENDS
;	COMDAT xdata
xdata	SEGMENT
$unwind$??0?$tvec4@_N$0A@@glm@@QEAA@W4ctor@1@@Z DD 010a01H
	DD	0700aH
xdata	ENDS
;	COMDAT xdata
xdata	SEGMENT
$unwind$??A?$tvec4@_N$0A@@glm@@QEBAAEB_NH@Z DD 020e01H
	DD	0700a320eH
xdata	ENDS
;	COMDAT xdata
xdata	SEGMENT
$unwind$??A?$tvec4@_N$0A@@glm@@QEAAAEA_NH@Z DD 020e01H
	DD	0700a320eH
xdata	ENDS
;	COMDAT xdata
xdata	SEGMENT
$unwind$?length@?$tvec4@_N$0A@@glm@@SAHXZ DD 010201H
	DD	07002H
xdata	ENDS
;	COMDAT xdata
xdata	SEGMENT
$unwind$??$equal@H$0A@Utvec4@glm@@@glm@@YA?AU?$tvec4@_N$0A@@0@AEBU?$tvec4@H$0A@@0@0@Z DD 022a01H
	DD	070109214H
xdata	ENDS
;	COMDAT CONST
CONST	SEGMENT
??$equal@H$0A@Utvec4@glm@@@glm@@YA?AU?$tvec4@_N$0A@@0@AEBU?$tvec4@H$0A@@0@0@Z$rtcName$0 DB 052H ; glm::equal<int,0,glm::tvec4>
	DB	065H
	DB	073H
	DB	075H
	DB	06cH
	DB	074H
	DB	00H
	ORG $+9
??$equal@H$0A@Utvec4@glm@@@glm@@YA?AU?$tvec4@_N$0A@@0@AEBU?$tvec4@H$0A@@0@0@Z$rtcVarDesc DD 024H ; glm::equal<int,0,glm::tvec4>
	DD	04H
	DQ	FLAT:??$equal@H$0A@Utvec4@glm@@@glm@@YA?AU?$tvec4@_N$0A@@0@AEBU?$tvec4@H$0A@@0@0@Z$rtcName$0
	ORG $+48
??$equal@H$0A@Utvec4@glm@@@glm@@YA?AU?$tvec4@_N$0A@@0@AEBU?$tvec4@H$0A@@0@0@Z$rtcFrameData DD 01H ; glm::equal<int,0,glm::tvec4>
	DD	00H
	DQ	FLAT:??$equal@H$0A@Utvec4@glm@@@glm@@YA?AU?$tvec4@_N$0A@@0@AEBU?$tvec4@H$0A@@0@0@Z$rtcVarDesc
CONST	ENDS
;	COMDAT xdata
xdata	SEGMENT
$unwind$??$mask@H$0A@Utvec4@glm@@@glm@@YA?AU?$tvec4@H$0A@@0@AEBU10@@Z DD 020f01H
	DD	0700b320fH
xdata	ENDS
;	COMDAT xdata
xdata	SEGMENT
$unwind$??0?$tvec4@H$0A@@glm@@QEAA@HHHH@Z DD 011401H
	DD	07014H
xdata	ENDS
;	COMDAT xdata
xdata	SEGMENT
$unwind$??0?$tvec4@H$0A@@glm@@QEAA@H@Z DD 010a01H
	DD	0700aH
xdata	ENDS
;	COMDAT xdata
xdata	SEGMENT
$unwind$??A?$tvec4@H$0A@@glm@@QEBAAEBHH@Z DD 020e01H
	DD	0700a320eH
xdata	ENDS
;	COMDAT xdata
xdata	SEGMENT
$unwind$?length@?$tvec4@H$0A@@glm@@SAHXZ DD 010201H
	DD	07002H
xdata	ENDS
;	COMDAT xdata
xdata	SEGMENT
$unwind$??$mask@I@glm@@YAII@Z DD 020901H
	DD	070051209H
xdata	ENDS
voltbl	SEGMENT
_volmd	DD	0ffffffffH
	DDSymXIndex: 	FLAT:?test_uvec4@mask@@YAHXZ
	DD	024H
	DD	01e0H
_volmd	DD	0ffffffffH
	DDSymXIndex: 	FLAT:?test_uint@mask@@YAHXZ
	DD	024H
	DD	0299H
voltbl	ENDS
;	COMDAT xdata
xdata	SEGMENT
$unwind$??$mask@H@glm@@YAHH@Z DD 020901H
	DD	070051209H
xdata	ENDS
;	COMDAT xdata
xdata	SEGMENT
$unwind$?_Get_first@?$_Compressed_pair@V?$allocator@H@std@@V?$_Vector_val@U?$_Simple_types@H@std@@@2@$00@std@@QEBAAEBV?$allocator@H@2@XZ DD 010601H
	DD	07006H
xdata	ENDS
;	COMDAT xdata
xdata	SEGMENT
$unwind$?_Get_first@?$_Compressed_pair@V?$allocator@H@std@@V?$_Vector_val@U?$_Simple_types@H@std@@@2@$00@std@@QEAAAEAV?$allocator@H@2@XZ DD 010601H
	DD	07006H
xdata	ENDS
;	COMDAT xdata
xdata	SEGMENT
$unwind$??0?$_Vector_val@U?$_Simple_types@H@std@@@std@@QEAA@XZ DD 020a01H
	DD	07006320aH
xdata	ENDS
;	COMDAT xdata
xdata	SEGMENT
$unwind$?_Getal@?$vector@HV?$allocator@H@std@@@std@@AEBAAEBV?$allocator@H@2@XZ DD 020a01H
	DD	07006320aH
xdata	ENDS
;	COMDAT xdata
xdata	SEGMENT
$unwind$?_Getal@?$vector@HV?$allocator@H@std@@@std@@AEAAAEAV?$allocator@H@2@XZ DD 020a01H
	DD	07006320aH
xdata	ENDS
;	COMDAT xdata
xdata	SEGMENT
$unwind$?_Orphan_range@?$vector@HV?$allocator@H@std@@@std@@AEBAXPEAH0@Z DD 021401H
	DD	070103214H
xdata	ENDS
;	COMDAT voltbl
voltbl	SEGMENT
_volmd	DB	00H
	DB	05H
voltbl	ENDS
;	COMDAT xdata
xdata	SEGMENT
$unwind$?dtor$0@?0??_Orphan_range_locked@?$vector@HV?$allocator@H@std@@@std@@AEBAXPEAH0@Z@4HA DD 031001H
	DD	0700c4210H
	DD	0500bH
xdata	ENDS
;	COMDAT xdata
xdata	SEGMENT
$ip2state$?_Orphan_range_locked@?$vector@HV?$allocator@H@std@@@std@@AEBAXPEAH0@Z DB 06H
	DB	00H
	DB	00H
	DB	'v'
	DB	02H
	DB	'*'
	DB	00H
xdata	ENDS
;	COMDAT xdata
xdata	SEGMENT
$stateUnwindMap$?_Orphan_range_locked@?$vector@HV?$allocator@H@std@@@std@@AEBAXPEAH0@Z DB 02H
	DB	0eH
	DD	imagerel ?dtor$0@?0??_Orphan_range_locked@?$vector@HV?$allocator@H@std@@@std@@AEBAXPEAH0@Z@4HA
xdata	ENDS
;	COMDAT xdata
xdata	SEGMENT
$cppxdata$?_Orphan_range_locked@?$vector@HV?$allocator@H@std@@@std@@AEBAXPEAH0@Z DB 028H
	DD	imagerel $stateUnwindMap$?_Orphan_range_locked@?$vector@HV?$allocator@H@std@@@std@@AEBAXPEAH0@Z
	DD	imagerel $ip2state$?_Orphan_range_locked@?$vector@HV?$allocator@H@std@@@std@@AEBAXPEAH0@Z
xdata	ENDS
;	COMDAT xdata
xdata	SEGMENT
$unwind$?_Orphan_range_locked@?$vector@HV?$allocator@H@std@@@std@@AEBAXPEAH0@Z DD 022a11H
	DD	070107214H
	DD	imagerel __CxxFrameHandler4
	DD	imagerel $cppxdata$?_Orphan_range_locked@?$vector@HV?$allocator@H@std@@@std@@AEBAXPEAH0@Z
xdata	ENDS
;	COMDAT CONST
CONST	SEGMENT
?_Orphan_range_locked@?$vector@HV?$allocator@H@std@@@std@@AEBAXPEAH0@Z$rtcName$0 DB 05fH ; std::vector<int,std::allocator<int> >::_Orphan_range_locked
	DB	04cH
	DB	06fH
	DB	063H
	DB	06bH
	DB	00H
	ORG $+10
?_Orphan_range_locked@?$vector@HV?$allocator@H@std@@@std@@AEBAXPEAH0@Z$rtcVarDesc DD 024H ; std::vector<int,std::allocator<int> >::_Orphan_range_locked
	DD	04H
	DQ	FLAT:?_Orphan_range_locked@?$vector@HV?$allocator@H@std@@@std@@AEBAXPEAH0@Z$rtcName$0
	ORG $+48
?_Orphan_range_locked@?$vector@HV?$allocator@H@std@@@std@@AEBAXPEAH0@Z$rtcFrameData DD 01H ; std::vector<int,std::allocator<int> >::_Orphan_range_locked
	DD	00H
	DQ	FLAT:?_Orphan_range_locked@?$vector@HV?$allocator@H@std@@@std@@AEBAXPEAH0@Z$rtcVarDesc
CONST	ENDS
;	COMDAT xdata
xdata	SEGMENT
$unwind$?_Orphan_range_unlocked@?$vector@HV?$allocator@H@std@@@std@@AEBAXPEAH0@Z DD 021401H
	DD	070103214H
xdata	ENDS
;	COMDAT xdata
xdata	SEGMENT
$unwind$?_Xlength@?$vector@HV?$allocator@H@std@@@std@@CAXXZ DD 020601H
	DD	070023206H
xdata	ENDS
;	COMDAT xdata
xdata	SEGMENT
$ip2state$?_Tidy@?$vector@HV?$allocator@H@std@@@std@@AEAAXXZ DB 02H
	DB	00H
	DB	00H
xdata	ENDS
;	COMDAT xdata
xdata	SEGMENT
$cppxdata$?_Tidy@?$vector@HV?$allocator@H@std@@@std@@AEAAXXZ DB 060H
	DD	imagerel $ip2state$?_Tidy@?$vector@HV?$allocator@H@std@@@std@@AEAAXXZ
xdata	ENDS
;	COMDAT xdata
xdata	SEGMENT
$unwind$?_Tidy@?$vector@HV?$allocator@H@std@@@std@@AEAAXXZ DD 020a19H
	DD	07006920aH
	DD	imagerel __CxxFrameHandler4
	DD	imagerel $cppxdata$?_Tidy@?$vector@HV?$allocator@H@std@@@std@@AEAAXXZ
xdata	ENDS
;	COMDAT xdata
xdata	SEGMENT
$unwind$?_Change_array@?$vector@HV?$allocator@H@std@@@std@@AEAAXQEAH_K1@Z DD 021901H
	DD	070159219H
xdata	ENDS
;	COMDAT xdata
xdata	SEGMENT
$unwind$?_Calculate_growth@?$vector@HV?$allocator@H@std@@@std@@AEBA_K_K@Z DD 020f01H
	DD	0700b720fH
xdata	ENDS
;	COMDAT xdata
xdata	SEGMENT
$unwind$??A?$vector@HV?$allocator@H@std@@@std@@QEAAAEAH_K@Z DD 020f01H
	DD	0700b720fH
xdata	ENDS
;	COMDAT xdata
xdata	SEGMENT
$unwind$?capacity@?$vector@HV?$allocator@H@std@@@std@@QEBA_KXZ DD 020a01H
	DD	07006120aH
xdata	ENDS
;	COMDAT xdata
xdata	SEGMENT
$unwind$?max_size@?$vector@HV?$allocator@H@std@@@std@@QEBA_KXZ DD 020a01H
	DD	07006520aH
xdata	ENDS
;	COMDAT xdata
xdata	SEGMENT
$unwind$?resize@?$vector@HV?$allocator@H@std@@@std@@QEAAX_K@Z DD 020f01H
	DD	0700b520fH
xdata	ENDS
;	COMDAT xdata
xdata	SEGMENT
$unwind$??1?$vector@HV?$allocator@H@std@@@std@@QEAA@XZ DD 022001H
	DD	07006920aH
xdata	ENDS
;	COMDAT CONST
CONST	SEGMENT
??1?$vector@HV?$allocator@H@std@@@std@@QEAA@XZ$rtcName$0 DB 024H ; std::vector<int,std::allocator<int> >::~vector<int,std::allocator<int> >
	DB	053H
	DB	034H
	DB	00H
	ORG $+12
??1?$vector@HV?$allocator@H@std@@@std@@QEAA@XZ$rtcVarDesc DD 034H ; std::vector<int,std::allocator<int> >::~vector<int,std::allocator<int> >
	DD	01H
	DQ	FLAT:??1?$vector@HV?$allocator@H@std@@@std@@QEAA@XZ$rtcName$0
	ORG $+48
??1?$vector@HV?$allocator@H@std@@@std@@QEAA@XZ$rtcFrameData DD 01H ; std::vector<int,std::allocator<int> >::~vector<int,std::allocator<int> >
	DD	00H
	DQ	FLAT:??1?$vector@HV?$allocator@H@std@@@std@@QEAA@XZ$rtcVarDesc
CONST	ENDS
;	COMDAT xdata
xdata	SEGMENT
$ip2state$??0?$vector@HV?$allocator@H@std@@@std@@QEAA@XZ DB 02H
	DB	00H
	DB	00H
xdata	ENDS
;	COMDAT xdata
xdata	SEGMENT
$cppxdata$??0?$vector@HV?$allocator@H@std@@@std@@QEAA@XZ DB 060H
	DD	imagerel $ip2state$??0?$vector@HV?$allocator@H@std@@@std@@QEAA@XZ
xdata	ENDS
;	COMDAT xdata
xdata	SEGMENT
$unwind$??0?$vector@HV?$allocator@H@std@@@std@@QEAA@XZ DD 020a19H
	DD	07006520aH
	DD	imagerel __CxxFrameHandler4
	DD	imagerel $cppxdata$??0?$vector@HV?$allocator@H@std@@@std@@QEAA@XZ
xdata	ENDS
;	COMDAT xdata
xdata	SEGMENT
$unwind$?max_size@?$_Default_allocator_traits@V?$allocator@H@std@@@std@@SA_KAEBV?$allocator@H@2@@Z DD 010601H
	DD	07006H
xdata	ENDS
;	COMDAT xdata
xdata	SEGMENT
$unwind$?allocate@?$allocator@H@std@@QEAAPEAH_K@Z DD 020f01H
	DD	0700b320fH
xdata	ENDS
;	COMDAT xdata
xdata	SEGMENT
$unwind$?deallocate@?$allocator@H@std@@QEAAXQEAH_K@Z DD 021401H
	DD	070105214H
xdata	ENDS
;	COMDAT xdata
xdata	SEGMENT
$unwind$??0?$allocator@H@std@@QEAA@XZ DD 010601H
	DD	07006H
xdata	ENDS
voltbl	SEGMENT
_volmd	DD	0ffffffffH
	DDSymXIndex: 	FLAT:?dtor$3@?0??perf@bitfieldInterleave@@YAHXZ@4HA
	DD	00H
	DD	05H
_volmd	DD	0ffffffffH
	DDSymXIndex: 	FLAT:?dtor$2@?0??perf@bitfieldInterleave@@YAHXZ@4HA
	DD	00H
	DD	05H
_volmd	DD	0ffffffffH
	DDSymXIndex: 	FLAT:?dtor$1@?0??perf@bitfieldInterleave@@YAHXZ@4HA
	DD	00H
	DD	05H
_volmd	DD	0ffffffffH
	DDSymXIndex: 	FLAT:?dtor$0@?0??perf@bitfieldInterleave@@YAHXZ@4HA
	DD	00H
	DD	05H
_volmd	DD	0ffffffffH
	DDSymXIndex: 	FLAT:?dtor$4@?0??perf@mask@@YAHXZ@4HA
	DD	00H
	DD	05H
_volmd	DD	0ffffffffH
	DDSymXIndex: 	FLAT:?dtor$3@?0??perf@mask@@YAHXZ@4HA
	DD	00H
	DD	05H
_volmd	DD	0ffffffffH
	DDSymXIndex: 	FLAT:?dtor$2@?0??perf@mask@@YAHXZ@4HA
	DD	00H
	DD	05H
_volmd	DD	0ffffffffH
	DDSymXIndex: 	FLAT:?dtor$1@?0??perf@mask@@YAHXZ@4HA
	DD	00H
	DD	05H
_volmd	DD	0ffffffffH
	DDSymXIndex: 	FLAT:?dtor$0@?0??perf@mask@@YAHXZ@4HA
	DD	00H
	DD	05H
voltbl	ENDS
xdata	SEGMENT
$unwind$?perf@mask@@YAHXZ DD 031a11H
	DD	0340109H
	DD	07002H
	DD	imagerel __CxxFrameHandler4
	DD	imagerel $cppxdata$?perf@mask@@YAHXZ
$cppxdata$?perf@mask@@YAHXZ DB 028H
	DD	imagerel $stateUnwindMap$?perf@mask@@YAHXZ
	DD	imagerel $ip2state$?perf@mask@@YAHXZ
$stateUnwindMap$?perf@mask@@YAHXZ DB 0aH
	DB	0eH
	DD	imagerel ?dtor$0@?0??perf@mask@@YAHXZ@4HA
	DB	036H
	DD	imagerel ?dtor$1@?0??perf@mask@@YAHXZ@4HA
	DB	05eH
	DD	imagerel ?dtor$2@?0??perf@mask@@YAHXZ@4HA
	DB	086H
	DD	imagerel ?dtor$3@?0??perf@mask@@YAHXZ@4HA
	DB	0aeH
	DD	imagerel ?dtor$4@?0??perf@mask@@YAHXZ@4HA
$ip2state$?perf@mask@@YAHXZ DB 016H
	DB	00H
	DB	00H
	DB	'n'
	DB	02H
	DB	0ceH
	DB	00H
	DB	'>'
	DB	04H
	DB	0f2H
	DB	00H
	DB	'J'
	DB	06H
	DB	0feH
	DB	00H
	DB	'P'
	DB	08H
	DB	0feH
	DB	00H
	DB	'P'
	DB	0aH
	DB	0feH
	DB	00H
$cppxdata$?perf@bitfieldInterleave@@YAHXZ DB 028H
	DD	imagerel $stateUnwindMap$?perf@bitfieldInterleave@@YAHXZ
	DD	imagerel $ip2state$?perf@bitfieldInterleave@@YAHXZ
$stateUnwindMap$?perf@bitfieldInterleave@@YAHXZ DB 08H
	DB	0eH
	DD	imagerel ?dtor$0@?0??perf@bitfieldInterleave@@YAHXZ@4HA
	DB	02eH
	DD	imagerel ?dtor$1@?0??perf@bitfieldInterleave@@YAHXZ@4HA
	DB	02eH
	DD	imagerel ?dtor$2@?0??perf@bitfieldInterleave@@YAHXZ@4HA
	DB	02eH
	DD	imagerel ?dtor$3@?0??perf@bitfieldInterleave@@YAHXZ@4HA
$unwind$?dtor$0@?0??perf@mask@@YAHXZ@4HA DD 031001H
	DD	0700c4210H
	DD	0500bH
$unwind$?dtor$1@?0??perf@mask@@YAHXZ@4HA DD 031001H
	DD	0700c4210H
	DD	0500bH
$unwind$?dtor$2@?0??perf@mask@@YAHXZ@4HA DD 031001H
	DD	0700c4210H
	DD	0500bH
$unwind$?dtor$3@?0??perf@mask@@YAHXZ@4HA DD 031001H
	DD	0700c4210H
	DD	0500bH
$unwind$?dtor$4@?0??perf@mask@@YAHXZ@4HA DD 031001H
	DD	0700c4210H
	DD	0500bH
$unwind$?test_uint@mask@@YAHXZ DD 032c19H
	DD	01a0109H
	DD	07002H
	DD	imagerel __GSHandlerCheck
	DD	0c0H
$unwind$?test_uvec4@mask@@YAHXZ DD 032c19H
	DD	02a0109H
	DD	07002H
	DD	imagerel __GSHandlerCheck
	DD	0148H
$unwind$?test@mask@@YAHXZ DD 020601H
	DD	070025206H
$unwind$?test@bitfieldInterleave3@@YAHXZ DD 020601H
	DD	07002b206H
$unwind$?test@bitfieldInterleave4@@YAHXZ DD 020601H
	DD	07002b206H
$unwind$?test@bitfieldInterleave@@YAHXZ DD 031a01H
	DD	01e0109H
	DD	07002H
$unwind$?perf@bitfieldInterleave@@YAHXZ DD 031a11H
	DD	0500109H
	DD	07002H
	DD	imagerel __CxxFrameHandler4
	DD	imagerel $cppxdata$?perf@bitfieldInterleave@@YAHXZ
$ip2state$?perf@bitfieldInterleave@@YAHXZ DB 012H
	DB	00H
	DB	00H
	DB	0a4H
	DB	02H
	DB	'P'
	DB	04H
	DB	')', 017H
	DB	06H
	DB	'P'
	DB	08H
	DB	099H, 06H
	DB	06H
	DB	01cH
	DB	04H
	DB	'0'
	DB	02H
	DB	016H
	DB	00H
	ORG $+3
$unwind$?dtor$0@?0??perf@bitfieldInterleave@@YAHXZ@4HA DD 031001H
	DD	0700c4210H
	DD	0500bH
$unwind$?dtor$1@?0??perf@bitfieldInterleave@@YAHXZ@4HA DD 031001H
	DD	0700c4210H
	DD	0500bH
$unwind$?dtor$2@?0??perf@bitfieldInterleave@@YAHXZ@4HA DD 031001H
	DD	0700c4210H
	DD	0500bH
$unwind$?dtor$3@?0??perf@bitfieldInterleave@@YAHXZ@4HA DD 031001H
	DD	0700c4210H
	DD	0500bH
$unwind$main DD	020601H
	DD	070025206H
xdata	ENDS
CONST	SEGMENT
?perf@mask@@YAHXZ$rtcName$0 DB 04dH			; mask::perf
	DB	061H
	DB	073H
	DB	06bH
	DB	00H
	ORG $+3
?perf@mask@@YAHXZ$rtcName$1 DB 04dH			; mask::perf
	DB	061H
	DB	073H
	DB	06bH
	DB	00H
	ORG $+3
?perf@mask@@YAHXZ$rtcName$2 DB 04dH			; mask::perf
	DB	061H
	DB	073H
	DB	06bH
	DB	00H
	ORG $+3
?perf@mask@@YAHXZ$rtcName$3 DB 04dH			; mask::perf
	DB	061H
	DB	073H
	DB	06bH
	DB	00H
	ORG $+3
?perf@mask@@YAHXZ$rtcName$4 DB 04dH			; mask::perf
	DB	061H
	DB	073H
	DB	06bH
	DB	00H
	ORG $+7
?perf@mask@@YAHXZ$rtcVarDesc DD 0138H			; mask::perf
	DD	020H
	DQ	FLAT:?perf@mask@@YAHXZ$rtcName$4
	DD	0f8H
	DD	020H
	DQ	FLAT:?perf@mask@@YAHXZ$rtcName$3
	DD	0b8H
	DD	020H
	DQ	FLAT:?perf@mask@@YAHXZ$rtcName$2
	DD	078H
	DD	020H
	DQ	FLAT:?perf@mask@@YAHXZ$rtcName$1
	DD	038H
	DD	020H
	DQ	FLAT:?perf@mask@@YAHXZ$rtcName$0
	ORG $+240
?perf@mask@@YAHXZ$rtcFrameData DD 05H			; mask::perf
	DD	00H
	DQ	FLAT:?perf@mask@@YAHXZ$rtcVarDesc
?test_uint@mask@@YAHXZ$rtcName$0 DB 044H		; mask::test_uint
	DB	061H
	DB	074H
	DB	061H
	DB	00H
	ORG $+3
?test_uint@mask@@YAHXZ$rtcFrameData DD 01H		; mask::test_uint
	DD	00H
	DQ	FLAT:?test_uint@mask@@YAHXZ$rtcVarDesc
?test_uvec4@mask@@YAHXZ$rtcName$0 DB 044H		; mask::test_uvec4
	DB	061H
	DB	074H
	DB	061H
	DB	00H
	ORG $+3
?test_uint@mask@@YAHXZ$rtcVarDesc DD 028H		; mask::test_uint
	DD	030H
	DQ	FLAT:?test_uint@mask@@YAHXZ$rtcName$0
	ORG $+48
?test_uvec4@mask@@YAHXZ$rtcName$1 DB 052H		; mask::test_uvec4
	DB	065H
	DB	073H
	DB	075H
	DB	06cH
	DB	074H
	DB	00H
	ORG $+1
?test_uvec4@mask@@YAHXZ$rtcFrameData DD 02H		; mask::test_uvec4
	DD	00H
	DQ	FLAT:?test_uvec4@mask@@YAHXZ$rtcVarDesc
?test@bitfieldInterleave@@YAHXZ$rtcName$0 DB 052H	; bitfieldInterleave::test
	DB	065H
	DB	073H
	DB	075H
	DB	06cH
	DB	074H
	DB	00H
	ORG $+1
?test_uvec4@mask@@YAHXZ$rtcVarDesc DD 0118H		; mask::test_uvec4
	DD	010H
	DQ	FLAT:?test_uvec4@mask@@YAHXZ$rtcName$1
	DD	030H
	DD	0c0H
	DQ	FLAT:?test_uvec4@mask@@YAHXZ$rtcName$0
	ORG $+96
?test@bitfieldInterleave@@YAHXZ$rtcVarDesc DD 088H	; bitfieldInterleave::test
	DD	010H
	DQ	FLAT:?test@bitfieldInterleave@@YAHXZ$rtcName$0
	ORG $+48
?test@bitfieldInterleave@@YAHXZ$rtcFrameData DD 01H	; bitfieldInterleave::test
	DD	00H
	DQ	FLAT:?test@bitfieldInterleave@@YAHXZ$rtcVarDesc
?perf@bitfieldInterleave@@YAHXZ$rtcName$0 DB 044H	; bitfieldInterleave::perf
	DB	061H
	DB	074H
	DB	061H
	DB	00H
	ORG $+3
?perf@bitfieldInterleave@@YAHXZ$rtcName$1 DB 050H	; bitfieldInterleave::perf
	DB	061H
	DB	072H
	DB	061H
	DB	06dH
	DB	00H
	ORG $+2
?perf@bitfieldInterleave@@YAHXZ$rtcName$2 DB 053H	; bitfieldInterleave::perf
	DB	069H
	DB	06dH
	DB	064H
	DB	044H
	DB	061H
	DB	074H
	DB	061H
	DB	00H
	ORG $+7
?perf@bitfieldInterleave@@YAHXZ$rtcName$3 DB 053H	; bitfieldInterleave::perf
	DB	069H
	DB	06dH
	DB	064H
	DB	050H
	DB	061H
	DB	072H
	DB	061H
	DB	06dH
	DB	00H
	ORG $+6
?perf@bitfieldInterleave@@YAHXZ$rtcVarDesc DD 0158H	; bitfieldInterleave::perf
	DD	020H
	DQ	FLAT:?perf@bitfieldInterleave@@YAHXZ$rtcName$3
	DD	0118H
	DD	020H
	DQ	FLAT:?perf@bitfieldInterleave@@YAHXZ$rtcName$2
	DD	078H
	DD	020H
	DQ	FLAT:?perf@bitfieldInterleave@@YAHXZ$rtcName$1
	DD	038H
	DD	020H
	DQ	FLAT:?perf@bitfieldInterleave@@YAHXZ$rtcName$0
	ORG $+192
?perf@bitfieldInterleave@@YAHXZ$rtcFrameData DD 04H	; bitfieldInterleave::perf
	DD	00H
	DQ	FLAT:?perf@bitfieldInterleave@@YAHXZ$rtcVarDesc
CONST	ENDS
;	COMDAT xdata
xdata	SEGMENT
$unwind$?mask_loop@mask@@YAHH@Z DD 020901H
	DD	070051209H
xdata	ENDS
;	COMDAT xdata
xdata	SEGMENT
$unwind$?mask_half@mask@@YAHH@Z DD 020901H
	DD	070053209H
xdata	ENDS
;	COMDAT xdata
xdata	SEGMENT
$unwind$?mask_mix@mask@@YAHH@Z DD 020901H
	DD	070051209H
xdata	ENDS
;	COMDAT xdata
xdata	SEGMENT
$unwind$?mask_zero@mask@@YAHH@Z DD 020901H
	DD	070051209H
xdata	ENDS
;	COMDAT xdata
xdata	SEGMENT
$unwind$??0_Basic_container_proxy_ptr12@std@@IEAA@XZ DD 010601H
	DD	07006H
xdata	ENDS
;	COMDAT xdata
xdata	SEGMENT
$unwind$?_Release@_Basic_container_proxy_ptr12@std@@QEAAXXZ DD 010601H
	DD	07006H
xdata	ENDS
;	COMDAT xdata
xdata	SEGMENT
$unwind$?_Orphan_all_locked_v3@_Container_base12@std@@AEAAXXZ DD 022001H
	DD	07006720aH
xdata	ENDS
;	COMDAT CONST
CONST	SEGMENT
?_Orphan_all_locked_v3@_Container_base12@std@@AEAAXXZ$rtcName$0 DB 05fH ; std::_Container_base12::_Orphan_all_locked_v3
	DB	04cH
	DB	06fH
	DB	063H
	DB	06bH
	DB	00H
	ORG $+10
?_Orphan_all_locked_v3@_Container_base12@std@@AEAAXXZ$rtcVarDesc DD 024H ; std::_Container_base12::_Orphan_all_locked_v3
	DD	04H
	DQ	FLAT:?_Orphan_all_locked_v3@_Container_base12@std@@AEAAXXZ$rtcName$0
	ORG $+48
?_Orphan_all_locked_v3@_Container_base12@std@@AEAAXXZ$rtcFrameData DD 01H ; std::_Container_base12::_Orphan_all_locked_v3
	DD	00H
	DQ	FLAT:?_Orphan_all_locked_v3@_Container_base12@std@@AEAAXXZ$rtcVarDesc
CONST	ENDS
;	COMDAT xdata
xdata	SEGMENT
$unwind$?_Orphan_all_unlocked_v3@_Container_base12@std@@AEAAXXZ DD 020a01H
	DD	07006120aH
xdata	ENDS
;	COMDAT xdata
xdata	SEGMENT
$unwind$?_Orphan_all@_Container_base12@std@@QEAAXXZ DD 020a01H
	DD	07006320aH
xdata	ENDS
;	COMDAT xdata
xdata	SEGMENT
$unwind$??0_Container_base12@std@@QEAA@XZ DD 010601H
	DD	07006H
xdata	ENDS
;	COMDAT xdata
xdata	SEGMENT
$unwind$??0_Container_proxy@std@@QEAA@PEAU_Container_base12@1@@Z DD 010b01H
	DD	0700bH
xdata	ENDS
;	COMDAT xdata
xdata	SEGMENT
$unwind$?_Adjust_manually_vector_aligned@std@@YAXAEAPEAXAEA_K@Z DD 020f01H
	DD	0700b920fH
xdata	ENDS
;	COMDAT xdata
xdata	SEGMENT
$unwind$?_Allocate@_Default_allocate_traits@std@@SAPEAX_K@Z DD 020a01H
	DD	07006320aH
xdata	ENDS
;	COMDAT xdata
xdata	SEGMENT
$unwind$?_Throw_bad_array_new_length@std@@YAXXZ DD 020601H
	DD	070027206H
xdata	ENDS
;	COMDAT xdata
xdata	SEGMENT
$unwind$??_Gbad_array_new_length@std@@UEAAPEAXI@Z DD 020e01H
	DD	0700a320eH
xdata	ENDS
;	COMDAT xdata
xdata	SEGMENT
$unwind$??0bad_array_new_length@std@@QEAA@AEBV01@@Z DD 020f01H
	DD	0700b320fH
xdata	ENDS
;	COMDAT xdata
xdata	SEGMENT
$unwind$??1bad_array_new_length@std@@UEAA@XZ DD 020a01H
	DD	07006320aH
xdata	ENDS
;	COMDAT xdata
xdata	SEGMENT
$unwind$??0bad_array_new_length@std@@QEAA@XZ DD 020a01H
	DD	07006320aH
xdata	ENDS
;	COMDAT xdata
xdata	SEGMENT
$unwind$??_Gbad_alloc@std@@UEAAPEAXI@Z DD 020e01H
	DD	0700a320eH
xdata	ENDS
;	COMDAT xdata
xdata	SEGMENT
$unwind$??0bad_alloc@std@@QEAA@AEBV01@@Z DD 020f01H
	DD	0700b320fH
xdata	ENDS
;	COMDAT xdata
xdata	SEGMENT
$unwind$??1bad_alloc@std@@UEAA@XZ DD 020a01H
	DD	07006320aH
xdata	ENDS
;	COMDAT xdata
xdata	SEGMENT
$unwind$??0bad_alloc@std@@AEAA@QEBD@Z DD 020f01H
	DD	0700b320fH
xdata	ENDS
;	COMDAT xdata
xdata	SEGMENT
$unwind$??_Gexception@std@@UEAAPEAXI@Z DD 020e01H
	DD	0700a320eH
xdata	ENDS
;	COMDAT xdata
xdata	SEGMENT
$unwind$?what@exception@std@@UEBAPEBDXZ DD 020a01H
	DD	07006120aH
xdata	ENDS
;	COMDAT xdata
xdata	SEGMENT
$unwind$??1exception@std@@UEAA@XZ DD 020a01H
	DD	07006320aH
xdata	ENDS
;	COMDAT xdata
xdata	SEGMENT
$unwind$??0exception@std@@QEAA@AEBV01@@Z DD 020f01H
	DD	0700b320fH
xdata	ENDS
;	COMDAT xdata
xdata	SEGMENT
$unwind$??0exception@std@@QEAA@QEBDH@Z DD 011001H
	DD	07010H
xdata	ENDS
;	COMDAT xdata
xdata	SEGMENT
$unwind$??0?$tvec2@I$0A@@glm@@QEAA@II@Z DD 010f01H
	DD	0700fH
xdata	ENDS
;	COMDAT xdata
xdata	SEGMENT
$unwind$??0?$tvec2@I$0A@@glm@@QEAA@XZ DD 010601H
	DD	07006H
xdata	ENDS
;	COMDAT xdata
xdata	SEGMENT
$unwind$??2@YAPEAX_KPEAX@Z DD 010b01H
	DD	0700bH
xdata	ENDS
;	COMDAT xdata
xdata	SEGMENT
$unwind$??$bitfieldInterleave@G_K@detail@glm@@YA_KGGGG@Z DD 021b01H
	DD	07017321bH
xdata	ENDS
;	COMDAT xdata
xdata	SEGMENT
$unwind$??$bitfieldInterleave@I_K@detail@glm@@YA_KIII@Z DD 021201H
	DD	0700e3212H
xdata	ENDS
;	COMDAT xdata
xdata	SEGMENT
$unwind$??$bitfieldInterleave@I_K@detail@glm@@YA_KII@Z DD 020d01H
	DD	07009120dH
xdata	ENDS
;	COMDAT xdata
xdata	SEGMENT
$unwind$??$bitfieldInterleave@GI@detail@glm@@YAIGG@Z DD 020f01H
	DD	0700b120fH
xdata	ENDS
;	COMDAT xdata
xdata	SEGMENT
$unwind$??$bitfieldInterleave@EG@detail@glm@@YAGEE@Z DD 020d01H
	DD	07009120dH
xdata	ENDS
;	COMDAT xdata
xdata	SEGMENT
$unwind$?glm_i128_interleave@@YA?AT__m128i@@T1@@Z DD 030d01H
	DD	03e010dH
	DD	07006H
xdata	ENDS
;	COMDAT xdata
xdata	SEGMENT
$unwind$?bitfieldInterleave@glm@@YA_KGGGG@Z DD 021b01H
	DD	07017321bH
xdata	ENDS
;	COMDAT xdata
xdata	SEGMENT
$unwind$?bitfieldInterleave@glm@@YA_KIII@Z DD 021201H
	DD	0700e3212H
xdata	ENDS
;	COMDAT xdata
xdata	SEGMENT
$unwind$?bitfieldInterleave@glm@@YA_KGGG@Z DD 021501H
	DD	070115215H
xdata	ENDS
;	COMDAT xdata
xdata	SEGMENT
$unwind$?bitfieldInterleave@glm@@YA_KII@Z DD 020d01H
	DD	07009320dH
xdata	ENDS
;	COMDAT xdata
xdata	SEGMENT
$unwind$?bitfieldInterleave@glm@@YA_JHH@Z DD 022801H
	DD	07009f210H
xdata	ENDS
;	COMDAT CONST
CONST	SEGMENT
?bitfieldInterleave@glm@@YA_JHH@Z$rtcName$0 DB 073H	; glm::bitfieldInterleave
	DB	069H
	DB	067H
	DB	06eH
	DB	05fH
	DB	078H
	DB	00H
	ORG $+1
?bitfieldInterleave@glm@@YA_JHH@Z$rtcName$1 DB 073H	; glm::bitfieldInterleave
	DB	069H
	DB	067H
	DB	06eH
	DB	05fH
	DB	079H
	DB	00H
	ORG $+1
?bitfieldInterleave@glm@@YA_JHH@Z$rtcName$2 DB 072H	; glm::bitfieldInterleave
	DB	065H
	DB	073H
	DB	075H
	DB	06cH
	DB	074H
	DB	00H
	ORG $+1
?bitfieldInterleave@glm@@YA_JHH@Z$rtcFrameData DD 03H	; glm::bitfieldInterleave
	DD	00H
	DQ	FLAT:?bitfieldInterleave@glm@@YA_JHH@Z$rtcVarDesc
	ORG $+8
?bitfieldInterleave@glm@@YA_JHH@Z$rtcVarDesc DD 068H	; glm::bitfieldInterleave
	DD	08H
	DQ	FLAT:?bitfieldInterleave@glm@@YA_JHH@Z$rtcName$2
	DD	044H
	DD	04H
	DQ	FLAT:?bitfieldInterleave@glm@@YA_JHH@Z$rtcName$1
	DD	024H
	DD	04H
	DQ	FLAT:?bitfieldInterleave@glm@@YA_JHH@Z$rtcName$0
CONST	ENDS
;	COMDAT xdata
xdata	SEGMENT
$unwind$?bitfieldInterleave@glm@@YAIGG@Z DD 020f01H
	DD	0700b320fH
xdata	ENDS
;	COMDAT xdata
xdata	SEGMENT
$unwind$?bitfieldInterleave@glm@@YAHFF@Z DD 022b01H
	DD	0700bf212H
xdata	ENDS
;	COMDAT CONST
CONST	SEGMENT
?bitfieldInterleave@glm@@YAHFF@Z$rtcName$0 DB 073H	; glm::bitfieldInterleave
	DB	069H
	DB	067H
	DB	06eH
	DB	05fH
	DB	078H
	DB	00H
	ORG $+1
?bitfieldInterleave@glm@@YAHFF@Z$rtcName$1 DB 073H	; glm::bitfieldInterleave
	DB	069H
	DB	067H
	DB	06eH
	DB	05fH
	DB	079H
	DB	00H
	ORG $+1
?bitfieldInterleave@glm@@YAHFF@Z$rtcName$2 DB 072H	; glm::bitfieldInterleave
	DB	065H
	DB	073H
	DB	075H
	DB	06cH
	DB	074H
	DB	00H
	ORG $+1
?bitfieldInterleave@glm@@YAHFF@Z$rtcFrameData DD 03H	; glm::bitfieldInterleave
	DD	00H
	DQ	FLAT:?bitfieldInterleave@glm@@YAHFF@Z$rtcVarDesc
	ORG $+8
?bitfieldInterleave@glm@@YAHFF@Z$rtcVarDesc DD 064H	; glm::bitfieldInterleave
	DD	04H
	DQ	FLAT:?bitfieldInterleave@glm@@YAHFF@Z$rtcName$2
	DD	044H
	DD	02H
	DQ	FLAT:?bitfieldInterleave@glm@@YAHFF@Z$rtcName$1
	DD	024H
	DD	02H
	DQ	FLAT:?bitfieldInterleave@glm@@YAHFF@Z$rtcName$0
CONST	ENDS
;	COMDAT xdata
xdata	SEGMENT
$unwind$?bitfieldInterleave@glm@@YAGEE@Z DD 020d01H
	DD	07009320dH
xdata	ENDS
;	COMDAT xdata
xdata	SEGMENT
$unwind$?bitfieldInterleave@glm@@YAFCC@Z DD 022901H
	DD	07009f210H
xdata	ENDS
;	COMDAT CONST
CONST	SEGMENT
?bitfieldInterleave@glm@@YAFCC@Z$rtcName$0 DB 073H	; glm::bitfieldInterleave
	DB	069H
	DB	067H
	DB	06eH
	DB	05fH
	DB	078H
	DB	00H
	ORG $+1
?bitfieldInterleave@glm@@YAFCC@Z$rtcName$1 DB 073H	; glm::bitfieldInterleave
	DB	069H
	DB	067H
	DB	06eH
	DB	05fH
	DB	079H
	DB	00H
	ORG $+1
?bitfieldInterleave@glm@@YAFCC@Z$rtcName$2 DB 072H	; glm::bitfieldInterleave
	DB	065H
	DB	073H
	DB	075H
	DB	06cH
	DB	074H
	DB	00H
	ORG $+1
?bitfieldInterleave@glm@@YAFCC@Z$rtcFrameData DD 03H	; glm::bitfieldInterleave
	DD	00H
	DQ	FLAT:?bitfieldInterleave@glm@@YAFCC@Z$rtcVarDesc
	ORG $+8
?bitfieldInterleave@glm@@YAFCC@Z$rtcVarDesc DD 064H	; glm::bitfieldInterleave
	DD	02H
	DQ	FLAT:?bitfieldInterleave@glm@@YAFCC@Z$rtcName$2
	DD	044H
	DD	01H
	DQ	FLAT:?bitfieldInterleave@glm@@YAFCC@Z$rtcName$1
	DD	024H
	DD	01H
	DQ	FLAT:?bitfieldInterleave@glm@@YAFCC@Z$rtcName$0
CONST	ENDS
;	COMDAT xdata
xdata	SEGMENT
$unwind$?max@?$numeric_limits@_J@std@@SA_JXZ DD 010201H
	DD	07002H
xdata	ENDS
;	COMDAT xdata
xdata	SEGMENT
$unwind$printf DD 022f01H
	DD	070159219H
xdata	ENDS
;	COMDAT CONST
CONST	SEGMENT
printf$rtcName$0 DB 05fH
	DB	041H
	DB	072H
	DB	067H
	DB	04cH
	DB	069H
	DB	073H
	DB	074H
	DB	00H
	ORG $+7
printf$rtcVarDesc DD 038H
	DD	08H
	DQ	FLAT:printf$rtcName$0
	ORG $+48
printf$rtcFrameData DD 01H
	DD	00H
	DQ	FLAT:printf$rtcVarDesc
CONST	ENDS
;	COMDAT xdata
xdata	SEGMENT
$unwind$_vfprintf_l DD 021901H
	DD	070155219H
xdata	ENDS
;	COMDAT xdata
xdata	SEGMENT
$unwind$__local_stdio_printf_options DD 010201H
	DD	07002H
xdata	ENDS
; Function compile flags: /Odtp /RTCsu
; File C:\Program Files\Microsoft Visual Studio\2022\Community\VC\Tools\MSVC\14.32.31326\include\xutility
;	COMDAT ??$_Voidify_iter@PEAH@std@@YAPEAXPEAH@Z
_TEXT	SEGMENT
_It$ = 16
??$_Voidify_iter@PEAH@std@@YAPEAXPEAH@Z PROC		; std::_Voidify_iter<int *>, COMDAT

; 123  : _NODISCARD constexpr void* _Voidify_iter(_Iter _It) noexcept {

$LN3:
	mov	QWORD PTR [rsp+8], rcx
	push	rdi

; 124  :     if constexpr (is_pointer_v<_Iter>) {
; 125  :         return const_cast<void*>(static_cast<const volatile void*>(_It));

	mov	rax, QWORD PTR _It$[rsp]

; 126  :     } else {
; 127  :         return const_cast<void*>(static_cast<const volatile void*>(_STD addressof(*_It)));
; 128  :     }
; 129  : }

	pop	rdi
	ret	0
??$_Voidify_iter@PEAH@std@@YAPEAXPEAH@Z ENDP		; std::_Voidify_iter<int *>
_TEXT	ENDS
; Function compile flags: /Odtp /RTCsu
; File C:\Program Files\Microsoft Visual Studio\2022\Community\VC\Tools\MSVC\14.32.31326\include\xmemory
;	COMDAT ??$construct@HH@?$_Default_allocator_traits@V?$allocator@H@std@@@std@@SAXAEAV?$allocator@H@1@QEAH$$QEAH@Z
_TEXT	SEGMENT
$T1 = 32
__formal$ = 64
_Ptr$ = 72
<_Args_0>$ = 80
??$construct@HH@?$_Default_allocator_traits@V?$allocator@H@std@@@std@@SAXAEAV?$allocator@H@1@QEAH$$QEAH@Z PROC ; std::_Default_allocator_traits<std::allocator<int> >::construct<int,int>, COMDAT

; 673  :     static _CONSTEXPR20 void construct(_Alloc&, _Objty* const _Ptr, _Types&&... _Args) {

$LN3:
	mov	QWORD PTR [rsp+24], r8
	mov	QWORD PTR [rsp+16], rdx
	mov	QWORD PTR [rsp+8], rcx
	push	rdi
	sub	rsp, 48					; 00000030H

; 674  : #if _HAS_CXX20
; 675  :         if (_STD is_constant_evaluated()) {
; 676  :             _STD construct_at(_Ptr, _STD forward<_Types>(_Args)...);
; 677  :         } else
; 678  : #endif // _HAS_CXX20
; 679  :         {
; 680  :             ::new (_Voidify_iter(_Ptr)) _Objty(_STD forward<_Types>(_Args)...);

	mov	rcx, QWORD PTR _Ptr$[rsp]
	call	??$_Voidify_iter@PEAH@std@@YAPEAXPEAH@Z	; std::_Voidify_iter<int *>
	mov	rdx, rax
	mov	ecx, 4
	call	??2@YAPEAX_KPEAX@Z			; operator new
	mov	QWORD PTR $T1[rsp], rax
	mov	rcx, QWORD PTR <_Args_0>$[rsp]
	call	??$forward@H@std@@YA$$QEAHAEAH@Z	; std::forward<int>
	mov	rcx, QWORD PTR $T1[rsp]
	mov	eax, DWORD PTR [rax]
	mov	DWORD PTR [rcx], eax

; 681  :         }
; 682  :     }

	add	rsp, 48					; 00000030H
	pop	rdi
	ret	0
??$construct@HH@?$_Default_allocator_traits@V?$allocator@H@std@@@std@@SAXAEAV?$allocator@H@1@QEAH$$QEAH@Z ENDP ; std::_Default_allocator_traits<std::allocator<int> >::construct<int,int>
_TEXT	ENDS
; Function compile flags: /Odtp /RTCsu
; File C:\Program Files\Microsoft Visual Studio\2022\Community\VC\Tools\MSVC\14.32.31326\include\type_traits
;	COMDAT ??$forward@H@std@@YA$$QEAHAEAH@Z
_TEXT	SEGMENT
_Arg$ = 16
??$forward@H@std@@YA$$QEAHAEAH@Z PROC			; std::forward<int>, COMDAT

; 1341 :     remove_reference_t<_Ty>& _Arg) noexcept { // forward an lvalue as either an lvalue or an rvalue

$LN3:
	mov	QWORD PTR [rsp+8], rcx
	push	rdi

; 1342 :     return static_cast<_Ty&&>(_Arg);

	mov	rax, QWORD PTR _Arg$[rsp]

; 1343 : }

	pop	rdi
	ret	0
??$forward@H@std@@YA$$QEAHAEAH@Z ENDP			; std::forward<int>
_TEXT	ENDS
; Function compile flags: /Odtp /RTCsu
; File C:\Program Files\Microsoft Visual Studio\2022\Community\VC\Tools\MSVC\14.32.31326\include\xutility
;	COMDAT ??$_Voidify_iter@PEA_K@std@@YAPEAXPEA_K@Z
_TEXT	SEGMENT
_It$ = 16
??$_Voidify_iter@PEA_K@std@@YAPEAXPEA_K@Z PROC		; std::_Voidify_iter<unsigned __int64 *>, COMDAT

; 123  : _NODISCARD constexpr void* _Voidify_iter(_Iter _It) noexcept {

$LN3:
	mov	QWORD PTR [rsp+8], rcx
	push	rdi

; 124  :     if constexpr (is_pointer_v<_Iter>) {
; 125  :         return const_cast<void*>(static_cast<const volatile void*>(_It));

	mov	rax, QWORD PTR _It$[rsp]

; 126  :     } else {
; 127  :         return const_cast<void*>(static_cast<const volatile void*>(_STD addressof(*_It)));
; 128  :     }
; 129  : }

	pop	rdi
	ret	0
??$_Voidify_iter@PEA_K@std@@YAPEAXPEA_K@Z ENDP		; std::_Voidify_iter<unsigned __int64 *>
_TEXT	ENDS
; Function compile flags: /Odtp /RTCsu
; File C:\Program Files\Microsoft Visual Studio\2022\Community\VC\Tools\MSVC\14.32.31326\include\xutility
;	COMDAT ??$_Voidify_iter@PEAU?$tvec2@I$0A@@glm@@@std@@YAPEAXPEAU?$tvec2@I$0A@@glm@@@Z
_TEXT	SEGMENT
_It$ = 16
??$_Voidify_iter@PEAU?$tvec2@I$0A@@glm@@@std@@YAPEAXPEAU?$tvec2@I$0A@@glm@@@Z PROC ; std::_Voidify_iter<glm::tvec2<unsigned int,0> *>, COMDAT

; 123  : _NODISCARD constexpr void* _Voidify_iter(_Iter _It) noexcept {

$LN3:
	mov	QWORD PTR [rsp+8], rcx
	push	rdi

; 124  :     if constexpr (is_pointer_v<_Iter>) {
; 125  :         return const_cast<void*>(static_cast<const volatile void*>(_It));

	mov	rax, QWORD PTR _It$[rsp]

; 126  :     } else {
; 127  :         return const_cast<void*>(static_cast<const volatile void*>(_STD addressof(*_It)));
; 128  :     }
; 129  : }

	pop	rdi
	ret	0
??$_Voidify_iter@PEAU?$tvec2@I$0A@@glm@@@std@@YAPEAXPEAU?$tvec2@I$0A@@glm@@@Z ENDP ; std::_Voidify_iter<glm::tvec2<unsigned int,0> *>
_TEXT	ENDS
; Function compile flags: /Odtp /RTCsu
; File C:\Program Files\Microsoft Visual Studio\2022\Community\VC\Tools\MSVC\14.32.31326\include\xutility
;	COMDAT ??$_Voidify_iter@PEAT__m128i@@@std@@YAPEAXPEAT__m128i@@@Z
_TEXT	SEGMENT
_It$ = 16
??$_Voidify_iter@PEAT__m128i@@@std@@YAPEAXPEAT__m128i@@@Z PROC ; std::_Voidify_iter<__m128i *>, COMDAT

; 123  : _NODISCARD constexpr void* _Voidify_iter(_Iter _It) noexcept {

$LN3:
	mov	QWORD PTR [rsp+8], rcx
	push	rdi

; 124  :     if constexpr (is_pointer_v<_Iter>) {
; 125  :         return const_cast<void*>(static_cast<const volatile void*>(_It));

	mov	rax, QWORD PTR _It$[rsp]

; 126  :     } else {
; 127  :         return const_cast<void*>(static_cast<const volatile void*>(_STD addressof(*_It)));
; 128  :     }
; 129  : }

	pop	rdi
	ret	0
??$_Voidify_iter@PEAT__m128i@@@std@@YAPEAXPEAT__m128i@@@Z ENDP ; std::_Voidify_iter<__m128i *>
_TEXT	ENDS
; Function compile flags: /Odtp /RTCsu
; File C:\Program Files\Microsoft Visual Studio\2022\Community\VC\Tools\MSVC\14.32.31326\include\xmemory
;	COMDAT ??$construct@T__m128i@@T1@@?$_Default_allocator_traits@V?$allocator@T__m128i@@@std@@@std@@SAXAEAV?$allocator@T__m128i@@@1@QEAT__m128i@@$$QEAT3@@Z
_TEXT	SEGMENT
$T1 = 32
__formal$ = 64
_Ptr$ = 72
<_Args_0>$ = 80
??$construct@T__m128i@@T1@@?$_Default_allocator_traits@V?$allocator@T__m128i@@@std@@@std@@SAXAEAV?$allocator@T__m128i@@@1@QEAT__m128i@@$$QEAT3@@Z PROC ; std::_Default_allocator_traits<std::allocator<__m128i> >::construct<__m128i,__m128i>, COMDAT

; 673  :     static _CONSTEXPR20 void construct(_Alloc&, _Objty* const _Ptr, _Types&&... _Args) {

$LN3:
	mov	QWORD PTR [rsp+24], r8
	mov	QWORD PTR [rsp+16], rdx
	mov	QWORD PTR [rsp+8], rcx
	push	rdi
	sub	rsp, 48					; 00000030H

; 674  : #if _HAS_CXX20
; 675  :         if (_STD is_constant_evaluated()) {
; 676  :             _STD construct_at(_Ptr, _STD forward<_Types>(_Args)...);
; 677  :         } else
; 678  : #endif // _HAS_CXX20
; 679  :         {
; 680  :             ::new (_Voidify_iter(_Ptr)) _Objty(_STD forward<_Types>(_Args)...);

	mov	rcx, QWORD PTR _Ptr$[rsp]
	call	??$_Voidify_iter@PEAT__m128i@@@std@@YAPEAXPEAT__m128i@@@Z ; std::_Voidify_iter<__m128i *>
	mov	rdx, rax
	mov	ecx, 16
	call	??2@YAPEAX_KPEAX@Z			; operator new
	mov	QWORD PTR $T1[rsp], rax
	mov	rcx, QWORD PTR <_Args_0>$[rsp]
	call	??$forward@T__m128i@@@std@@YA$$QEAT__m128i@@AEAT1@@Z ; std::forward<__m128i>
	mov	rcx, QWORD PTR $T1[rsp]
	movdqu	xmm0, XMMWORD PTR [rax]
	movdqu	XMMWORD PTR [rcx], xmm0

; 681  :         }
; 682  :     }

	add	rsp, 48					; 00000030H
	pop	rdi
	ret	0
??$construct@T__m128i@@T1@@?$_Default_allocator_traits@V?$allocator@T__m128i@@@std@@@std@@SAXAEAV?$allocator@T__m128i@@@1@QEAT__m128i@@$$QEAT3@@Z ENDP ; std::_Default_allocator_traits<std::allocator<__m128i> >::construct<__m128i,__m128i>
_TEXT	ENDS
; Function compile flags: /Odtp /RTCsu
; File C:\Program Files\Microsoft Visual Studio\2022\Community\VC\Tools\MSVC\14.32.31326\include\type_traits
;	COMDAT ??$forward@T__m128i@@@std@@YA$$QEAT__m128i@@AEAT1@@Z
_TEXT	SEGMENT
_Arg$ = 16
??$forward@T__m128i@@@std@@YA$$QEAT__m128i@@AEAT1@@Z PROC ; std::forward<__m128i>, COMDAT

; 1341 :     remove_reference_t<_Ty>& _Arg) noexcept { // forward an lvalue as either an lvalue or an rvalue

$LN3:
	mov	QWORD PTR [rsp+8], rcx
	push	rdi

; 1342 :     return static_cast<_Ty&&>(_Arg);

	mov	rax, QWORD PTR _Arg$[rsp]

; 1343 : }

	pop	rdi
	ret	0
??$forward@T__m128i@@@std@@YA$$QEAT__m128i@@AEAT1@@Z ENDP ; std::forward<__m128i>
_TEXT	ENDS
; Function compile flags: /Odtp /RTCsu
; File C:\Program Files\Microsoft Visual Studio\2022\Community\VC\Tools\MSVC\14.32.31326\include\xutility
;	COMDAT ??$_To_address@PEAT__m128i@@@std@@YA?A_PAEBQEAT__m128i@@@Z
_TEXT	SEGMENT
_Val$ = 16
??$_To_address@PEAT__m128i@@@std@@YA?A_PAEBQEAT__m128i@@@Z PROC ; std::_To_address<__m128i *>, COMDAT

; 3946 : _NODISCARD constexpr auto _To_address(const _Iter& _Val) noexcept {

$LN3:
	mov	QWORD PTR [rsp+8], rcx
	push	rdi

; 3947 :     _STL_INTERNAL_STATIC_ASSERT(is_pointer_v<_Iter>);
; 3948 :     return _Val;

	mov	rax, QWORD PTR _Val$[rsp]
	mov	rax, QWORD PTR [rax]

; 3949 : }

	pop	rdi
	ret	0
??$_To_address@PEAT__m128i@@@std@@YA?A_PAEBQEAT__m128i@@@Z ENDP ; std::_To_address<__m128i *>
_TEXT	ENDS
; Function compile flags: /Odtp /RTCsu
; File C:\Program Files\Microsoft Visual Studio\2022\Community\VC\Tools\MSVC\14.32.31326\include\xmemory
;	COMDAT ??$construct@H$$V@?$_Default_allocator_traits@V?$allocator@H@std@@@std@@SAXAEAV?$allocator@H@1@QEAH@Z
_TEXT	SEGMENT
$T1 = 32
$T2 = 40
__formal$ = 64
_Ptr$ = 72
??$construct@H$$V@?$_Default_allocator_traits@V?$allocator@H@std@@@std@@SAXAEAV?$allocator@H@1@QEAH@Z PROC ; std::_Default_allocator_traits<std::allocator<int> >::construct<int>, COMDAT

; 673  :     static _CONSTEXPR20 void construct(_Alloc&, _Objty* const _Ptr, _Types&&... _Args) {

$LN3:
	mov	QWORD PTR [rsp+16], rdx
	mov	QWORD PTR [rsp+8], rcx
	push	rdi
	sub	rsp, 48					; 00000030H

; 674  : #if _HAS_CXX20
; 675  :         if (_STD is_constant_evaluated()) {
; 676  :             _STD construct_at(_Ptr, _STD forward<_Types>(_Args)...);
; 677  :         } else
; 678  : #endif // _HAS_CXX20
; 679  :         {
; 680  :             ::new (_Voidify_iter(_Ptr)) _Objty(_STD forward<_Types>(_Args)...);

	mov	QWORD PTR $T1[rsp], 4
	mov	rcx, QWORD PTR _Ptr$[rsp]
	call	??$_Voidify_iter@PEAH@std@@YAPEAXPEAH@Z	; std::_Voidify_iter<int *>
	mov	rdx, rax
	mov	rcx, QWORD PTR $T1[rsp]
	call	??2@YAPEAX_KPEAX@Z			; operator new
	mov	QWORD PTR $T2[rsp], rax
	mov	rdi, QWORD PTR $T2[rsp]
	xor	eax, eax
	mov	rcx, QWORD PTR $T1[rsp]
	rep stosb

; 681  :         }
; 682  :     }

	add	rsp, 48					; 00000030H
	pop	rdi
	ret	0
??$construct@H$$V@?$_Default_allocator_traits@V?$allocator@H@std@@@std@@SAXAEAV?$allocator@H@1@QEAH@Z ENDP ; std::_Default_allocator_traits<std::allocator<int> >::construct<int>
_TEXT	ENDS
; Function compile flags: /Odtp /RTCsu
; File C:\Program Files\Microsoft Visual Studio\2022\Community\VC\Tools\MSVC\14.32.31326\include\xutility
;	COMDAT ??$_To_address@PEAH@std@@YA?A_PAEBQEAH@Z
_TEXT	SEGMENT
_Val$ = 16
??$_To_address@PEAH@std@@YA?A_PAEBQEAH@Z PROC		; std::_To_address<int *>, COMDAT

; 3946 : _NODISCARD constexpr auto _To_address(const _Iter& _Val) noexcept {

$LN3:
	mov	QWORD PTR [rsp+8], rcx
	push	rdi

; 3947 :     _STL_INTERNAL_STATIC_ASSERT(is_pointer_v<_Iter>);
; 3948 :     return _Val;

	mov	rax, QWORD PTR _Val$[rsp]
	mov	rax, QWORD PTR [rax]

; 3949 : }

	pop	rdi
	ret	0
??$_To_address@PEAH@std@@YA?A_PAEBQEAH@Z ENDP		; std::_To_address<int *>
_TEXT	ENDS
; Function compile flags: /Odtp /RTCsu
; File C:\Program Files\Microsoft Visual Studio\2022\Community\VC\Tools\MSVC\14.32.31326\include\xmemory
;	COMDAT ??$_Emplace_back@H@?$_Uninitialized_backout_al@V?$allocator@H@std@@@std@@QEAAX$$QEAH@Z
_TEXT	SEGMENT
tv64 = 32
this$ = 64
<_Vals_0>$ = 72
??$_Emplace_back@H@?$_Uninitialized_backout_al@V?$allocator@H@std@@@std@@QEAAX$$QEAH@Z PROC ; std::_Uninitialized_backout_al<std::allocator<int> >::_Emplace_back<int>, COMDAT

; 1655 :     _CONSTEXPR20 void _Emplace_back(_Types&&... _Vals) { // construct a new element at *_Last and increment

$LN3:
	mov	QWORD PTR [rsp+16], rdx
	mov	QWORD PTR [rsp+8], rcx
	push	rdi
	sub	rsp, 48					; 00000030H

; 1656 :         allocator_traits<_Alloc>::construct(_Al, _Unfancy(_Last), _STD forward<_Types>(_Vals)...);

	mov	rcx, QWORD PTR <_Vals_0>$[rsp]
	call	??$forward@H@std@@YA$$QEAHAEAH@Z	; std::forward<int>
	mov	QWORD PTR tv64[rsp], rax
	mov	rcx, QWORD PTR this$[rsp]
	mov	rcx, QWORD PTR [rcx+8]
	call	??$_Unfancy@H@std@@YAPEAHPEAH@Z		; std::_Unfancy<int>
	mov	rcx, QWORD PTR tv64[rsp]
	mov	r8, rcx
	mov	rdx, rax
	mov	rax, QWORD PTR this$[rsp]
	mov	rcx, QWORD PTR [rax+16]
	call	??$construct@HH@?$_Default_allocator_traits@V?$allocator@H@std@@@std@@SAXAEAV?$allocator@H@1@QEAH$$QEAH@Z ; std::_Default_allocator_traits<std::allocator<int> >::construct<int,int>

; 1657 :         ++_Last;

	mov	rax, QWORD PTR this$[rsp]
	mov	rax, QWORD PTR [rax+8]
	add	rax, 4
	mov	rcx, QWORD PTR this$[rsp]
	mov	QWORD PTR [rcx+8], rax

; 1658 :     }

	add	rsp, 48					; 00000030H
	pop	rdi
	ret	0
??$_Emplace_back@H@?$_Uninitialized_backout_al@V?$allocator@H@std@@@std@@QEAAX$$QEAH@Z ENDP ; std::_Uninitialized_backout_al<std::allocator<int> >::_Emplace_back<int>
_TEXT	ENDS
; Function compile flags: /Odtp /RTCsu
; File C:\Program Files\Microsoft Visual Studio\2022\Community\VC\Tools\MSVC\14.32.31326\include\xutility
;	COMDAT ??$_Copy_memmove@PEAHPEAH@std@@YAPEAHPEAH00@Z
_TEXT	SEGMENT
_FirstPtr$ = 32
_LastPtr$ = 40
_DestPtr$ = 48
_First_ch$ = 56
_Last_ch$ = 64
_Dest_ch$ = 72
_Count$ = 80
_First$ = 112
_Last$ = 120
_Dest$ = 128
??$_Copy_memmove@PEAHPEAH@std@@YAPEAHPEAH00@Z PROC	; std::_Copy_memmove<int *,int *>, COMDAT

; 4035 : _OutCtgIt _Copy_memmove(_CtgIt _First, _CtgIt _Last, _OutCtgIt _Dest) {

$LN3:
	mov	QWORD PTR [rsp+24], r8
	mov	QWORD PTR [rsp+16], rdx
	mov	QWORD PTR [rsp+8], rcx
	push	rdi
	sub	rsp, 96					; 00000060H

; 4036 :     auto _FirstPtr              = _To_address(_First);

	lea	rcx, QWORD PTR _First$[rsp]
	call	??$_To_address@PEAH@std@@YA?A_PAEBQEAH@Z ; std::_To_address<int *>
	mov	QWORD PTR _FirstPtr$[rsp], rax

; 4037 :     auto _LastPtr               = _To_address(_Last);

	lea	rcx, QWORD PTR _Last$[rsp]
	call	??$_To_address@PEAH@std@@YA?A_PAEBQEAH@Z ; std::_To_address<int *>
	mov	QWORD PTR _LastPtr$[rsp], rax

; 4038 :     auto _DestPtr               = _To_address(_Dest);

	lea	rcx, QWORD PTR _Dest$[rsp]
	call	??$_To_address@PEAH@std@@YA?A_PAEBQEAH@Z ; std::_To_address<int *>
	mov	QWORD PTR _DestPtr$[rsp], rax

; 4039 :     const char* const _First_ch = const_cast<const char*>(reinterpret_cast<const volatile char*>(_FirstPtr));

	mov	rax, QWORD PTR _FirstPtr$[rsp]
	mov	QWORD PTR _First_ch$[rsp], rax

; 4040 :     const char* const _Last_ch  = const_cast<const char*>(reinterpret_cast<const volatile char*>(_LastPtr));

	mov	rax, QWORD PTR _LastPtr$[rsp]
	mov	QWORD PTR _Last_ch$[rsp], rax

; 4041 :     char* const _Dest_ch        = const_cast<char*>(reinterpret_cast<const volatile char*>(_DestPtr));

	mov	rax, QWORD PTR _DestPtr$[rsp]
	mov	QWORD PTR _Dest_ch$[rsp], rax

; 4042 :     const auto _Count           = static_cast<size_t>(_Last_ch - _First_ch);

	mov	rax, QWORD PTR _First_ch$[rsp]
	mov	rcx, QWORD PTR _Last_ch$[rsp]
	sub	rcx, rax
	mov	rax, rcx
	mov	QWORD PTR _Count$[rsp], rax

; 4043 :     _CSTD memmove(_Dest_ch, _First_ch, _Count);

	mov	r8, QWORD PTR _Count$[rsp]
	mov	rdx, QWORD PTR _First_ch$[rsp]
	mov	rcx, QWORD PTR _Dest_ch$[rsp]
	call	memmove

; 4044 :     if constexpr (is_pointer_v<_OutCtgIt>) {
; 4045 :         return reinterpret_cast<_OutCtgIt>(_Dest_ch + _Count);

	mov	rax, QWORD PTR _Count$[rsp]
	mov	rcx, QWORD PTR _Dest_ch$[rsp]
	add	rcx, rax
	mov	rax, rcx

; 4046 :     } else {
; 4047 :         return _Dest + (_LastPtr - _FirstPtr);
; 4048 :     }
; 4049 : }

	add	rsp, 96					; 00000060H
	pop	rdi
	ret	0
??$_Copy_memmove@PEAHPEAH@std@@YAPEAHPEAH00@Z ENDP	; std::_Copy_memmove<int *,int *>
_TEXT	ENDS
; Function compile flags: /Odtp /RTCsu
; File C:\Program Files\Microsoft Visual Studio\2022\Community\VC\Tools\MSVC\14.32.31326\include\type_traits
;	COMDAT ??$move@AEAH@std@@YA$$QEAHAEAH@Z
_TEXT	SEGMENT
_Arg$ = 16
??$move@AEAH@std@@YA$$QEAHAEAH@Z PROC			; std::move<int &>, COMDAT

; 1352 : _NODISCARD constexpr remove_reference_t<_Ty>&& move(_Ty&& _Arg) noexcept { // forward _Arg as movable

$LN3:
	mov	QWORD PTR [rsp+8], rcx
	push	rdi

; 1353 :     return static_cast<remove_reference_t<_Ty>&&>(_Arg);

	mov	rax, QWORD PTR _Arg$[rsp]

; 1354 : }

	pop	rdi
	ret	0
??$move@AEAH@std@@YA$$QEAHAEAH@Z ENDP			; std::move<int &>
_TEXT	ENDS
; Function compile flags: /Odtp /RTCsu
; File C:\Program Files\Microsoft Visual Studio\2022\Community\VC\Tools\MSVC\14.32.31326\include\xutility
;	COMDAT ??$_Get_unwrapped@AEBQEAH@std@@YA?A_TAEBQEAH@Z
_TEXT	SEGMENT
_It$ = 16
??$_Get_unwrapped@AEBQEAH@std@@YA?A_TAEBQEAH@Z PROC	; std::_Get_unwrapped<int * const &>, COMDAT

; 1270 : _NODISCARD constexpr decltype(auto) _Get_unwrapped(_Iter&& _It) {

$LN3:
	mov	QWORD PTR [rsp+8], rcx
	push	rdi

; 1271 :     // unwrap an iterator previously subjected to _Adl_verify_range or otherwise validated
; 1272 :     if constexpr (is_pointer_v<decay_t<_Iter>>) { // special-case pointers and arrays
; 1273 :         return _It + 0;

	mov	rax, QWORD PTR _It$[rsp]
	mov	rax, QWORD PTR [rax]

; 1274 :     } else if constexpr (_Unwrappable_v<_Iter>) {
; 1275 :         return static_cast<_Iter&&>(_It)._Unwrapped();
; 1276 :     } else {
; 1277 :         return static_cast<_Iter&&>(_It);
; 1278 :     }
; 1279 : }

	pop	rdi
	ret	0
??$_Get_unwrapped@AEBQEAH@std@@YA?A_TAEBQEAH@Z ENDP	; std::_Get_unwrapped<int * const &>
_TEXT	ENDS
; Function compile flags: /Odtp /RTCsu
; File C:\Program Files\Microsoft Visual Studio\2022\Community\VC\Tools\MSVC\14.32.31326\include\xmemory
;	COMDAT ??$construct@_K$$V@?$_Default_allocator_traits@V?$allocator@_K@std@@@std@@SAXAEAV?$allocator@_K@1@QEA_K@Z
_TEXT	SEGMENT
$T1 = 32
$T2 = 40
__formal$ = 64
_Ptr$ = 72
??$construct@_K$$V@?$_Default_allocator_traits@V?$allocator@_K@std@@@std@@SAXAEAV?$allocator@_K@1@QEA_K@Z PROC ; std::_Default_allocator_traits<std::allocator<unsigned __int64> >::construct<unsigned __int64>, COMDAT

; 673  :     static _CONSTEXPR20 void construct(_Alloc&, _Objty* const _Ptr, _Types&&... _Args) {

$LN3:
	mov	QWORD PTR [rsp+16], rdx
	mov	QWORD PTR [rsp+8], rcx
	push	rdi
	sub	rsp, 48					; 00000030H

; 674  : #if _HAS_CXX20
; 675  :         if (_STD is_constant_evaluated()) {
; 676  :             _STD construct_at(_Ptr, _STD forward<_Types>(_Args)...);
; 677  :         } else
; 678  : #endif // _HAS_CXX20
; 679  :         {
; 680  :             ::new (_Voidify_iter(_Ptr)) _Objty(_STD forward<_Types>(_Args)...);

	mov	QWORD PTR $T1[rsp], 8
	mov	rcx, QWORD PTR _Ptr$[rsp]
	call	??$_Voidify_iter@PEA_K@std@@YAPEAXPEA_K@Z ; std::_Voidify_iter<unsigned __int64 *>
	mov	rdx, rax
	mov	rcx, QWORD PTR $T1[rsp]
	call	??2@YAPEAX_KPEAX@Z			; operator new
	mov	QWORD PTR $T2[rsp], rax
	mov	rdi, QWORD PTR $T2[rsp]
	xor	eax, eax
	mov	rcx, QWORD PTR $T1[rsp]
	rep stosb

; 681  :         }
; 682  :     }

	add	rsp, 48					; 00000030H
	pop	rdi
	ret	0
??$construct@_K$$V@?$_Default_allocator_traits@V?$allocator@_K@std@@@std@@SAXAEAV?$allocator@_K@1@QEA_K@Z ENDP ; std::_Default_allocator_traits<std::allocator<unsigned __int64> >::construct<unsigned __int64>
_TEXT	ENDS
; Function compile flags: /Odtp /RTCsu
; File C:\Program Files\Microsoft Visual Studio\2022\Community\VC\Tools\MSVC\14.32.31326\include\xutility
;	COMDAT ??$_To_address@PEA_K@std@@YA?A_PAEBQEA_K@Z
_TEXT	SEGMENT
_Val$ = 16
??$_To_address@PEA_K@std@@YA?A_PAEBQEA_K@Z PROC		; std::_To_address<unsigned __int64 *>, COMDAT

; 3946 : _NODISCARD constexpr auto _To_address(const _Iter& _Val) noexcept {

$LN3:
	mov	QWORD PTR [rsp+8], rcx
	push	rdi

; 3947 :     _STL_INTERNAL_STATIC_ASSERT(is_pointer_v<_Iter>);
; 3948 :     return _Val;

	mov	rax, QWORD PTR _Val$[rsp]
	mov	rax, QWORD PTR [rax]

; 3949 : }

	pop	rdi
	ret	0
??$_To_address@PEA_K@std@@YA?A_PAEBQEA_K@Z ENDP		; std::_To_address<unsigned __int64 *>
_TEXT	ENDS
; Function compile flags: /Odtp /RTCsu
; File C:\Program Files\Microsoft Visual Studio\2022\Community\VC\Tools\MSVC\14.32.31326\include\xmemory
;	COMDAT ??$construct@U?$tvec2@I$0A@@glm@@$$V@?$_Default_allocator_traits@V?$allocator@U?$tvec2@I$0A@@glm@@@std@@@std@@SAXAEAV?$allocator@U?$tvec2@I$0A@@glm@@@1@QEAU?$tvec2@I$0A@@glm@@@Z
_TEXT	SEGMENT
$T1 = 32
__formal$ = 64
_Ptr$ = 72
??$construct@U?$tvec2@I$0A@@glm@@$$V@?$_Default_allocator_traits@V?$allocator@U?$tvec2@I$0A@@glm@@@std@@@std@@SAXAEAV?$allocator@U?$tvec2@I$0A@@glm@@@1@QEAU?$tvec2@I$0A@@glm@@@Z PROC ; std::_Default_allocator_traits<std::allocator<glm::tvec2<unsigned int,0> > >::construct<glm::tvec2<unsigned int,0> >, COMDAT

; 673  :     static _CONSTEXPR20 void construct(_Alloc&, _Objty* const _Ptr, _Types&&... _Args) {

$LN3:
	mov	QWORD PTR [rsp+16], rdx
	mov	QWORD PTR [rsp+8], rcx
	push	rdi
	sub	rsp, 48					; 00000030H

; 674  : #if _HAS_CXX20
; 675  :         if (_STD is_constant_evaluated()) {
; 676  :             _STD construct_at(_Ptr, _STD forward<_Types>(_Args)...);
; 677  :         } else
; 678  : #endif // _HAS_CXX20
; 679  :         {
; 680  :             ::new (_Voidify_iter(_Ptr)) _Objty(_STD forward<_Types>(_Args)...);

	mov	rcx, QWORD PTR _Ptr$[rsp]
	call	??$_Voidify_iter@PEAU?$tvec2@I$0A@@glm@@@std@@YAPEAXPEAU?$tvec2@I$0A@@glm@@@Z ; std::_Voidify_iter<glm::tvec2<unsigned int,0> *>
	mov	rdx, rax
	mov	ecx, 8
	call	??2@YAPEAX_KPEAX@Z			; operator new
	mov	QWORD PTR $T1[rsp], rax
	mov	rcx, QWORD PTR $T1[rsp]
