; Listing generated by Microsoft (R) Optimizing Compiler Version 19.32.31329.0 

include listing.inc

INCLUDELIB MSVCRTD

CONST	SEGMENT
$SG69486 DB	'invalid argument', 00H
	ORG $+3
$SG69487 DB	'%s', 00H
	ORG $+1
$SG69491 DB	'"', 00H, 'i', 00H, 'n', 00H, 'v', 00H, 'a', 00H, 'l', 00H
	DB	'i', 00H, 'd', 00H, ' ', 00H, 'a', 00H, 'r', 00H, 'g', 00H, 'u'
	DB	00H, 'm', 00H, 'e', 00H, 'n', 00H, 't', 00H, '"', 00H, 00H, 00H
	ORG $+2
$SG69488 DB	'C:\Program Files\Microsoft Visual Studio\2022\Community\'
	DB	'VC\Tools\MSVC\14.32.31326\include\xmemory', 00H
	ORG $+2
$SG69490 DB	00H, 00H
	ORG $+2
$SG61723 DB	'true', 00H
	ORG $+3
$SG69489 DB	'C', 00H, ':', 00H, '\', 00H, 'P', 00H, 'r', 00H, 'o', 00H
	DB	'g', 00H, 'r', 00H, 'a', 00H, 'm', 00H, ' ', 00H, 'F', 00H, 'i'
	DB	00H, 'l', 00H, 'e', 00H, 's', 00H, '\', 00H, 'M', 00H, 'i', 00H
	DB	'c', 00H, 'r', 00H, 'o', 00H, 's', 00H, 'o', 00H, 'f', 00H, 't'
	DB	00H, ' ', 00H, 'V', 00H, 'i', 00H, 's', 00H, 'u', 00H, 'a', 00H
	DB	'l', 00H, ' ', 00H, 'S', 00H, 't', 00H, 'u', 00H, 'd', 00H, 'i'
	DB	00H, 'o', 00H, '\', 00H, '2', 00H, '0', 00H, '2', 00H, '2', 00H
	DB	'\', 00H, 'C', 00H, 'o', 00H, 'm', 00H, 'm', 00H, 'u', 00H, 'n'
	DB	00H, 'i', 00H, 't', 00H, 'y', 00H, '\', 00H, 'V', 00H, 'C', 00H
	DB	'\', 00H, 'T', 00H, 'o', 00H, 'o', 00H, 'l', 00H, 's', 00H, '\'
	DB	00H, 'M', 00H, 'S', 00H, 'V', 00H, 'C', 00H, '\', 00H, '1', 00H
	DB	'4', 00H, '.', 00H, '3', 00H, '2', 00H, '.', 00H, '3', 00H, '1'
	DB	00H, '3', 00H, '2', 00H, '6', 00H, '\', 00H, 'i', 00H, 'n', 00H
	DB	'c', 00H, 'l', 00H, 'u', 00H, 'd', 00H, 'e', 00H, '\', 00H, 'x'
	DB	00H, 'm', 00H, 'e', 00H, 'm', 00H, 'o', 00H, 'r', 00H, 'y', 00H
	DB	00H, 00H
$SG61725 DB	'false', 00H
	ORG $+6
$SG65349 DB	'vec2(1.000000, 2.000000)', 00H
	ORG $+7
$SG65350 DB	'vec3(1.000000, 2.000000, 3.000000)', 00H
	ORG $+5
$SG65351 DB	'vec4(1.000000, 2.000000, 3.000000, 4.000000)', 00H
	ORG $+3
$SG65352 DB	'dvec2(1.000000, 2.000000)', 00H
	ORG $+6
$SG65353 DB	'dvec3(1.000000, 2.000000, 3.000000)', 00H
	ORG $+4
$SG65354 DB	'dvec4(1.000000, 2.000000, 3.000000, 4.000000)', 00H
	ORG $+2
$SG65355 DB	'bvec2(false, true)', 00H
	ORG $+5
$SG65356 DB	'bvec3(false, true, false)', 00H
	ORG $+6
$SG65357 DB	'bvec4(false, true, false, true)', 00H
$SG65358 DB	'ivec2(1, 2)', 00H
	ORG $+4
$SG65359 DB	'ivec3(1, 2, 3)', 00H
	ORG $+1
$SG65360 DB	'ivec4(1, 2, 3, 4)', 00H
	ORG $+6
$SG65361 DB	'i8vec2(1, 2)', 00H
	ORG $+3
$SG65362 DB	'i8vec3(1, 2, 3)', 00H
$SG65363 DB	'i8vec4(1, 2, 3, 4)', 00H
	ORG $+5
$SG65364 DB	'i16vec2(1, 2)', 00H
	ORG $+2
$SG65365 DB	'i16vec3(1, 2, 3)', 00H
	ORG $+7
$SG65366 DB	'i16vec4(1, 2, 3, 4)', 00H
	ORG $+4
$SG65367 DB	'i64vec2(1, 2)', 00H
	ORG $+2
$SG65368 DB	'i64vec3(1, 2, 3)', 00H
	ORG $+7
$SG65369 DB	'i64vec4(1, 2, 3, 4)', 00H
	ORG $+4
$SG65487 DB	'mat2x2((1.000000, 2.000000), (3.000000, 4.000000))', 00H
CONST	ENDS
PUBLIC	??_H@YAXPEAX_K1P6APEAX0@Z@Z			; `vector constructor iterator'
PUBLIC	??2@YAPEAX_KPEAX@Z				; operator new
PUBLIC	__local_stdio_printf_options
PUBLIC	_vsprintf_s_l
PUBLIC	vsprintf_s
PUBLIC	?max@?$numeric_limits@_J@std@@SA_JXZ		; std::numeric_limits<__int64>::max
PUBLIC	?length@?$tvec2@M$0A@@glm@@SAHXZ		; glm::tvec2<float,0>::length
PUBLIC	??A?$tvec2@M$0A@@glm@@QEBAAEBMH@Z		; glm::tvec2<float,0>::operator[]
PUBLIC	??0?$tvec2@M$0A@@glm@@QEAA@XZ			; glm::tvec2<float,0>::tvec2<float,0>
PUBLIC	??0?$tvec2@M$0A@@glm@@QEAA@MM@Z			; glm::tvec2<float,0>::tvec2<float,0>
PUBLIC	?length@?$tvec2@F$0A@@glm@@SAHXZ		; glm::tvec2<short,0>::length
PUBLIC	??A?$tvec2@F$0A@@glm@@QEBAAEBFH@Z		; glm::tvec2<short,0>::operator[]
PUBLIC	?length@?$tvec4@M$0A@@glm@@SAHXZ		; glm::tvec4<float,0>::length
PUBLIC	??A?$tvec4@M$0A@@glm@@QEBAAEBMH@Z		; glm::tvec4<float,0>::operator[]
PUBLIC	?length@?$tvec4@C$0A@@glm@@SAHXZ		; glm::tvec4<signed char,0>::length
PUBLIC	??A?$tvec4@C$0A@@glm@@QEBAAEBCH@Z		; glm::tvec4<signed char,0>::operator[]
PUBLIC	??0exception@std@@QEAA@QEBDH@Z			; std::exception::exception
PUBLIC	??0exception@std@@QEAA@AEBV01@@Z		; std::exception::exception
PUBLIC	??1exception@std@@UEAA@XZ			; std::exception::~exception
PUBLIC	?what@exception@std@@UEBAPEBDXZ			; std::exception::what
PUBLIC	??_Gexception@std@@UEAAPEAXI@Z			; std::exception::`scalar deleting destructor'
PUBLIC	??0bad_alloc@std@@AEAA@QEBD@Z			; std::bad_alloc::bad_alloc
PUBLIC	??1bad_alloc@std@@UEAA@XZ			; std::bad_alloc::~bad_alloc
PUBLIC	??0bad_alloc@std@@QEAA@AEBV01@@Z		; std::bad_alloc::bad_alloc
PUBLIC	??_Gbad_alloc@std@@UEAAPEAXI@Z			; std::bad_alloc::`scalar deleting destructor'
PUBLIC	??0bad_array_new_length@std@@QEAA@XZ		; std::bad_array_new_length::bad_array_new_length
PUBLIC	??1bad_array_new_length@std@@UEAA@XZ		; std::bad_array_new_length::~bad_array_new_length
PUBLIC	??0bad_array_new_length@std@@QEAA@AEBV01@@Z	; std::bad_array_new_length::bad_array_new_length
PUBLIC	??_Gbad_array_new_length@std@@UEAAPEAXI@Z	; std::bad_array_new_length::`scalar deleting destructor'
PUBLIC	?_Throw_bad_array_new_length@std@@YAXXZ		; std::_Throw_bad_array_new_length
PUBLIC	?_Allocate@_Default_allocate_traits@std@@SAPEAX_K@Z ; std::_Default_allocate_traits::_Allocate
PUBLIC	?_Adjust_manually_vector_aligned@std@@YAXAEAPEAXAEA_K@Z ; std::_Adjust_manually_vector_aligned
PUBLIC	??0_Container_proxy@std@@QEAA@PEAU_Container_base12@1@@Z ; std::_Container_proxy::_Container_proxy
PUBLIC	??0_Container_base12@std@@QEAA@XZ		; std::_Container_base12::_Container_base12
PUBLIC	?_Orphan_all@_Container_base12@std@@QEAAXXZ	; std::_Container_base12::_Orphan_all
PUBLIC	?_Orphan_all_unlocked_v3@_Container_base12@std@@AEAAXXZ ; std::_Container_base12::_Orphan_all_unlocked_v3
PUBLIC	?_Orphan_all_locked_v3@_Container_base12@std@@AEAAXXZ ; std::_Container_base12::_Orphan_all_locked_v3
PUBLIC	?_Release@_Basic_container_proxy_ptr12@std@@QEAAXXZ ; std::_Basic_container_proxy_ptr12::_Release
PUBLIC	??0_Basic_container_proxy_ptr12@std@@IEAA@XZ	; std::_Basic_container_proxy_ptr12::_Basic_container_proxy_ptr12
PUBLIC	?copy@?$_Char_traits@DH@std@@SAPEADQEADQEBD_K@Z	; std::_Char_traits<char,int>::copy
PUBLIC	?move@?$_Char_traits@DH@std@@SAPEADQEADQEBD_K@Z	; std::_Char_traits<char,int>::move
PUBLIC	?compare@?$_Narrow_char_traits@DH@std@@SAHQEBD0_K@Z ; std::_Narrow_char_traits<char,int>::compare
PUBLIC	?length@?$_Narrow_char_traits@DH@std@@SA_KQEBD@Z ; std::_Narrow_char_traits<char,int>::length
PUBLIC	?assign@?$_Narrow_char_traits@DH@std@@SAXAEADAEBD@Z ; std::_Narrow_char_traits<char,int>::assign
PUBLIC	?_Xlen_string@std@@YAXXZ			; std::_Xlen_string
PUBLIC	??0?$allocator@D@std@@QEAA@XZ			; std::allocator<char>::allocator<char>
PUBLIC	?deallocate@?$allocator@D@std@@QEAAXQEAD_K@Z	; std::allocator<char>::deallocate
PUBLIC	?allocate@?$allocator@D@std@@QEAAPEAD_K@Z	; std::allocator<char>::allocate
PUBLIC	?max_size@?$_Default_allocator_traits@V?$allocator@D@std@@@std@@SA_KAEBV?$allocator@D@2@@Z ; std::_Default_allocator_traits<std::allocator<char> >::max_size
PUBLIC	??0?$_String_val@U?$_Simple_types@D@std@@@std@@QEAA@XZ ; std::_String_val<std::_Simple_types<char> >::_String_val<std::_Simple_types<char> >
PUBLIC	?_Myptr@?$_String_val@U?$_Simple_types@D@std@@@std@@QEAAPEADXZ ; std::_String_val<std::_Simple_types<char> >::_Myptr
PUBLIC	?_Myptr@?$_String_val@U?$_Simple_types@D@std@@@std@@QEBAPEBDXZ ; std::_String_val<std::_Simple_types<char> >::_Myptr
PUBLIC	?_Large_string_engaged@?$_String_val@U?$_Simple_types@D@std@@@std@@QEBA_NXZ ; std::_String_val<std::_Simple_types<char> >::_Large_string_engaged
PUBLIC	??0_Bxty@?$_String_val@U?$_Simple_types@D@std@@@std@@QEAA@XZ ; std::_String_val<std::_Simple_types<char> >::_Bxty::_Bxty
PUBLIC	??1_Bxty@?$_String_val@U?$_Simple_types@D@std@@@std@@QEAA@XZ ; std::_String_val<std::_Simple_types<char> >::_Bxty::~_Bxty
PUBLIC	??1?$_String_val@U?$_Simple_types@D@std@@@std@@QEAA@XZ ; std::_String_val<std::_Simple_types<char> >::~_String_val<std::_Simple_types<char> >
PUBLIC	??0?$basic_string@DU?$char_traits@D@std@@V?$allocator@D@2@@std@@QEAA@XZ ; std::basic_string<char,std::char_traits<char>,std::allocator<char> >::basic_string<char,std::char_traits<char>,std::allocator<char> >
PUBLIC	??0?$basic_string@DU?$char_traits@D@std@@V?$allocator@D@2@@std@@QEAA@QEBD@Z ; std::basic_string<char,std::char_traits<char>,std::allocator<char> >::basic_string<char,std::char_traits<char>,std::allocator<char> >
PUBLIC	??1?$basic_string@DU?$char_traits@D@std@@V?$allocator@D@2@@std@@QEAA@XZ ; std::basic_string<char,std::char_traits<char>,std::allocator<char> >::~basic_string<char,std::char_traits<char>,std::allocator<char> >
PUBLIC	?assign@?$basic_string@DU?$char_traits@D@std@@V?$allocator@D@2@@std@@QEAAAEAV12@QEBD_K@Z ; std::basic_string<char,std::char_traits<char>,std::allocator<char> >::assign
PUBLIC	?assign@?$basic_string@DU?$char_traits@D@std@@V?$allocator@D@2@@std@@QEAAAEAV12@QEBD@Z ; std::basic_string<char,std::char_traits<char>,std::allocator<char> >::assign
PUBLIC	?c_str@?$basic_string@DU?$char_traits@D@std@@V?$allocator@D@2@@std@@QEBAPEBDXZ ; std::basic_string<char,std::char_traits<char>,std::allocator<char> >::c_str
PUBLIC	?max_size@?$basic_string@DU?$char_traits@D@std@@V?$allocator@D@2@@std@@QEBA_KXZ ; std::basic_string<char,std::char_traits<char>,std::allocator<char> >::max_size
PUBLIC	?_Equal@?$basic_string@DU?$char_traits@D@std@@V?$allocator@D@2@@std@@QEBA_NAEBV12@@Z ; std::basic_string<char,std::char_traits<char>,std::allocator<char> >::_Equal
PUBLIC	?_Calculate_growth@?$basic_string@DU?$char_traits@D@std@@V?$allocator@D@2@@std@@CA_K_K00@Z ; std::basic_string<char,std::char_traits<char>,std::allocator<char> >::_Calculate_growth
PUBLIC	?_Calculate_growth@?$basic_string@DU?$char_traits@D@std@@V?$allocator@D@2@@std@@AEBA_K_K@Z ; std::basic_string<char,std::char_traits<char>,std::allocator<char> >::_Calculate_growth
PUBLIC	?_Tidy_init@?$basic_string@DU?$char_traits@D@std@@V?$allocator@D@2@@std@@AEAAXXZ ; std::basic_string<char,std::char_traits<char>,std::allocator<char> >::_Tidy_init
PUBLIC	?_Tidy_deallocate@?$basic_string@DU?$char_traits@D@std@@V?$allocator@D@2@@std@@AEAAXXZ ; std::basic_string<char,std::char_traits<char>,std::allocator<char> >::_Tidy_deallocate
PUBLIC	?_Getal@?$basic_string@DU?$char_traits@D@std@@V?$allocator@D@2@@std@@AEAAAEAV?$allocator@D@2@XZ ; std::basic_string<char,std::char_traits<char>,std::allocator<char> >::_Getal
PUBLIC	?_Getal@?$basic_string@DU?$char_traits@D@std@@V?$allocator@D@2@@std@@AEBAAEBV?$allocator@D@2@XZ ; std::basic_string<char,std::char_traits<char>,std::allocator<char> >::_Getal
PUBLIC	?_Get_first@?$_Compressed_pair@V?$allocator@D@std@@V?$_String_val@U?$_Simple_types@D@std@@@2@$00@std@@QEAAAEAV?$allocator@D@2@XZ ; std::_Compressed_pair<std::allocator<char>,std::_String_val<std::_Simple_types<char> >,1>::_Get_first
PUBLIC	?_Get_first@?$_Compressed_pair@V?$allocator@D@std@@V?$_String_val@U?$_Simple_types@D@std@@@2@$00@std@@QEBAAEBV?$allocator@D@2@XZ ; std::_Compressed_pair<std::allocator<char>,std::_String_val<std::_Simple_types<char> >,1>::_Get_first
PUBLIC	??1?$_Compressed_pair@V?$allocator@D@std@@V?$_String_val@U?$_Simple_types@D@std@@@2@$00@std@@QEAA@XZ ; std::_Compressed_pair<std::allocator<char>,std::_String_val<std::_Simple_types<char> >,1>::~_Compressed_pair<std::allocator<char>,std::_String_val<std::_Simple_types<char> >,1>
PUBLIC	?format@detail@glm@@YA?AV?$basic_string@DU?$char_traits@D@std@@V?$allocator@D@2@@std@@PEBDZZ ; glm::detail::format
PUBLIC	?value@?$prefix@M@detail@glm@@SAPEBDXZ		; glm::detail::prefix<float>::value
PUBLIC	?value@?$prefix@N@detail@glm@@SAPEBDXZ		; glm::detail::prefix<double>::value
PUBLIC	?value@?$prefix@C@detail@glm@@SAPEBDXZ		; glm::detail::prefix<signed char>::value
PUBLIC	?value@?$prefix@F@detail@glm@@SAPEBDXZ		; glm::detail::prefix<short>::value
PUBLIC	?value@?$prefix@H@detail@glm@@SAPEBDXZ		; glm::detail::prefix<int>::value
PUBLIC	?value@?$prefix@_J@detail@glm@@SAPEBDXZ		; glm::detail::prefix<__int64>::value
PUBLIC	?test_string_cast_vector@@YAHXZ			; test_string_cast_vector
PUBLIC	??$?0HH@?$tvec2@M$0A@@glm@@QEAA@HH@Z		; glm::tvec2<float,0>::tvec2<float,0><int,int>
PUBLIC	??$to_string@Utvec2@glm@@M$0A@@glm@@YA?AV?$basic_string@DU?$char_traits@D@std@@V?$allocator@D@2@@std@@AEBU?$tvec2@M$0A@@0@@Z ; glm::to_string<glm::tvec2,float,0>
PUBLIC	??$?9DU?$char_traits@D@std@@V?$allocator@D@1@@std@@YA_NAEBV?$basic_string@DU?$char_traits@D@std@@V?$allocator@D@2@@0@0@Z ; std::operator!=<char,std::char_traits<char>,std::allocator<char> >
PUBLIC	?length@?$tvec3@M$0A@@glm@@SAHXZ		; glm::tvec3<float,0>::length
PUBLIC	??A?$tvec3@M$0A@@glm@@QEBAAEBMH@Z		; glm::tvec3<float,0>::operator[]
PUBLIC	??$?0HHH@?$tvec3@M$0A@@glm@@QEAA@HHH@Z		; glm::tvec3<float,0>::tvec3<float,0><int,int,int>
PUBLIC	??$to_string@Utvec3@glm@@M$0A@@glm@@YA?AV?$basic_string@DU?$char_traits@D@std@@V?$allocator@D@2@@std@@AEBU?$tvec3@M$0A@@0@@Z ; glm::to_string<glm::tvec3,float,0>
PUBLIC	??$?0HHHH@?$tvec4@M$0A@@glm@@QEAA@HHHH@Z	; glm::tvec4<float,0>::tvec4<float,0><int,int,int,int>
PUBLIC	??$to_string@Utvec4@glm@@M$0A@@glm@@YA?AV?$basic_string@DU?$char_traits@D@std@@V?$allocator@D@2@@std@@AEBU?$tvec4@M$0A@@0@@Z ; glm::to_string<glm::tvec4,float,0>
PUBLIC	?length@?$tvec2@N$0A@@glm@@SAHXZ		; glm::tvec2<double,0>::length
PUBLIC	??A?$tvec2@N$0A@@glm@@QEBAAEBNH@Z		; glm::tvec2<double,0>::operator[]
PUBLIC	??$?0HH@?$tvec2@N$0A@@glm@@QEAA@HH@Z		; glm::tvec2<double,0>::tvec2<double,0><int,int>
PUBLIC	??$to_string@Utvec2@glm@@N$0A@@glm@@YA?AV?$basic_string@DU?$char_traits@D@std@@V?$allocator@D@2@@std@@AEBU?$tvec2@N$0A@@0@@Z ; glm::to_string<glm::tvec2,double,0>
PUBLIC	?length@?$tvec3@N$0A@@glm@@SAHXZ		; glm::tvec3<double,0>::length
PUBLIC	??A?$tvec3@N$0A@@glm@@QEBAAEBNH@Z		; glm::tvec3<double,0>::operator[]
PUBLIC	??$?0HHH@?$tvec3@N$0A@@glm@@QEAA@HHH@Z		; glm::tvec3<double,0>::tvec3<double,0><int,int,int>
PUBLIC	??$to_string@Utvec3@glm@@N$0A@@glm@@YA?AV?$basic_string@DU?$char_traits@D@std@@V?$allocator@D@2@@std@@AEBU?$tvec3@N$0A@@0@@Z ; glm::to_string<glm::tvec3,double,0>
PUBLIC	?length@?$tvec4@N$0A@@glm@@SAHXZ		; glm::tvec4<double,0>::length
PUBLIC	??A?$tvec4@N$0A@@glm@@QEBAAEBNH@Z		; glm::tvec4<double,0>::operator[]
PUBLIC	??$?0HHHH@?$tvec4@N$0A@@glm@@QEAA@HHHH@Z	; glm::tvec4<double,0>::tvec4<double,0><int,int,int,int>
PUBLIC	??$to_string@Utvec4@glm@@N$0A@@glm@@YA?AV?$basic_string@DU?$char_traits@D@std@@V?$allocator@D@2@@std@@AEBU?$tvec4@N$0A@@0@@Z ; glm::to_string<glm::tvec4,double,0>
PUBLIC	?length@?$tvec2@_N$0A@@glm@@SAHXZ		; glm::tvec2<bool,0>::length
PUBLIC	??A?$tvec2@_N$0A@@glm@@QEBAAEB_NH@Z		; glm::tvec2<bool,0>::operator[]
PUBLIC	??0?$tvec2@_N$0A@@glm@@QEAA@_N0@Z		; glm::tvec2<bool,0>::tvec2<bool,0>
PUBLIC	??$to_string@Utvec2@glm@@_N$0A@@glm@@YA?AV?$basic_string@DU?$char_traits@D@std@@V?$allocator@D@2@@std@@AEBU?$tvec2@_N$0A@@0@@Z ; glm::to_string<glm::tvec2,bool,0>
PUBLIC	?length@?$tvec3@_N$0A@@glm@@SAHXZ		; glm::tvec3<bool,0>::length
PUBLIC	??A?$tvec3@_N$0A@@glm@@QEBAAEB_NH@Z		; glm::tvec3<bool,0>::operator[]
PUBLIC	??0?$tvec3@_N$0A@@glm@@QEAA@_N00@Z		; glm::tvec3<bool,0>::tvec3<bool,0>
PUBLIC	??$to_string@Utvec3@glm@@_N$0A@@glm@@YA?AV?$basic_string@DU?$char_traits@D@std@@V?$allocator@D@2@@std@@AEBU?$tvec3@_N$0A@@0@@Z ; glm::to_string<glm::tvec3,bool,0>
PUBLIC	?length@?$tvec4@_N$0A@@glm@@SAHXZ		; glm::tvec4<bool,0>::length
PUBLIC	??A?$tvec4@_N$0A@@glm@@QEBAAEB_NH@Z		; glm::tvec4<bool,0>::operator[]
PUBLIC	??0?$tvec4@_N$0A@@glm@@QEAA@_N000@Z		; glm::tvec4<bool,0>::tvec4<bool,0>
PUBLIC	??$to_string@Utvec4@glm@@_N$0A@@glm@@YA?AV?$basic_string@DU?$char_traits@D@std@@V?$allocator@D@2@@std@@AEBU?$tvec4@_N$0A@@0@@Z ; glm::to_string<glm::tvec4,bool,0>
PUBLIC	?length@?$tvec2@H$0A@@glm@@SAHXZ		; glm::tvec2<int,0>::length
PUBLIC	??A?$tvec2@H$0A@@glm@@QEBAAEBHH@Z		; glm::tvec2<int,0>::operator[]
PUBLIC	??0?$tvec2@H$0A@@glm@@QEAA@HH@Z			; glm::tvec2<int,0>::tvec2<int,0>
PUBLIC	??$to_string@Utvec2@glm@@H$0A@@glm@@YA?AV?$basic_string@DU?$char_traits@D@std@@V?$allocator@D@2@@std@@AEBU?$tvec2@H$0A@@0@@Z ; glm::to_string<glm::tvec2,int,0>
PUBLIC	?length@?$tvec3@H$0A@@glm@@SAHXZ		; glm::tvec3<int,0>::length
PUBLIC	??A?$tvec3@H$0A@@glm@@QEBAAEBHH@Z		; glm::tvec3<int,0>::operator[]
PUBLIC	??0?$tvec3@H$0A@@glm@@QEAA@HHH@Z		; glm::tvec3<int,0>::tvec3<int,0>
PUBLIC	??$to_string@Utvec3@glm@@H$0A@@glm@@YA?AV?$basic_string@DU?$char_traits@D@std@@V?$allocator@D@2@@std@@AEBU?$tvec3@H$0A@@0@@Z ; glm::to_string<glm::tvec3,int,0>
PUBLIC	?length@?$tvec4@H$0A@@glm@@SAHXZ		; glm::tvec4<int,0>::length
PUBLIC	??A?$tvec4@H$0A@@glm@@QEBAAEBHH@Z		; glm::tvec4<int,0>::operator[]
PUBLIC	??0?$tvec4@H$0A@@glm@@QEAA@HHHH@Z		; glm::tvec4<int,0>::tvec4<int,0>
PUBLIC	??$to_string@Utvec4@glm@@H$0A@@glm@@YA?AV?$basic_string@DU?$char_traits@D@std@@V?$allocator@D@2@@std@@AEBU?$tvec4@H$0A@@0@@Z ; glm::to_string<glm::tvec4,int,0>
PUBLIC	?length@?$tvec2@C$0A@@glm@@SAHXZ		; glm::tvec2<signed char,0>::length
PUBLIC	??A?$tvec2@C$0A@@glm@@QEBAAEBCH@Z		; glm::tvec2<signed char,0>::operator[]
PUBLIC	??$?0HH@?$tvec2@C$0A@@glm@@QEAA@HH@Z		; glm::tvec2<signed char,0>::tvec2<signed char,0><int,int>
PUBLIC	??$to_string@Utvec2@glm@@C$0A@@glm@@YA?AV?$basic_string@DU?$char_traits@D@std@@V?$allocator@D@2@@std@@AEBU?$tvec2@C$0A@@0@@Z ; glm::to_string<glm::tvec2,signed char,0>
PUBLIC	?length@?$tvec3@C$0A@@glm@@SAHXZ		; glm::tvec3<signed char,0>::length
PUBLIC	??A?$tvec3@C$0A@@glm@@QEBAAEBCH@Z		; glm::tvec3<signed char,0>::operator[]
PUBLIC	??$?0HHH@?$tvec3@C$0A@@glm@@QEAA@HHH@Z		; glm::tvec3<signed char,0>::tvec3<signed char,0><int,int,int>
PUBLIC	??$to_string@Utvec3@glm@@C$0A@@glm@@YA?AV?$basic_string@DU?$char_traits@D@std@@V?$allocator@D@2@@std@@AEBU?$tvec3@C$0A@@0@@Z ; glm::to_string<glm::tvec3,signed char,0>
PUBLIC	??$?0HHHH@?$tvec4@C$0A@@glm@@QEAA@HHHH@Z	; glm::tvec4<signed char,0>::tvec4<signed char,0><int,int,int,int>
PUBLIC	??$to_string@Utvec4@glm@@C$0A@@glm@@YA?AV?$basic_string@DU?$char_traits@D@std@@V?$allocator@D@2@@std@@AEBU?$tvec4@C$0A@@0@@Z ; glm::to_string<glm::tvec4,signed char,0>
PUBLIC	??$?0HH@?$tvec2@F$0A@@glm@@QEAA@HH@Z		; glm::tvec2<short,0>::tvec2<short,0><int,int>
PUBLIC	??$to_string@Utvec2@glm@@F$0A@@glm@@YA?AV?$basic_string@DU?$char_traits@D@std@@V?$allocator@D@2@@std@@AEBU?$tvec2@F$0A@@0@@Z ; glm::to_string<glm::tvec2,short,0>
PUBLIC	?length@?$tvec3@F$0A@@glm@@SAHXZ		; glm::tvec3<short,0>::length
PUBLIC	??A?$tvec3@F$0A@@glm@@QEBAAEBFH@Z		; glm::tvec3<short,0>::operator[]
PUBLIC	??$?0HHH@?$tvec3@F$0A@@glm@@QEAA@HHH@Z		; glm::tvec3<short,0>::tvec3<short,0><int,int,int>
PUBLIC	??$to_string@Utvec3@glm@@F$0A@@glm@@YA?AV?$basic_string@DU?$char_traits@D@std@@V?$allocator@D@2@@std@@AEBU?$tvec3@F$0A@@0@@Z ; glm::to_string<glm::tvec3,short,0>
PUBLIC	?length@?$tvec4@F$0A@@glm@@SAHXZ		; glm::tvec4<short,0>::length
PUBLIC	??A?$tvec4@F$0A@@glm@@QEBAAEBFH@Z		; glm::tvec4<short,0>::operator[]
PUBLIC	??$?0HHHH@?$tvec4@F$0A@@glm@@QEAA@HHHH@Z	; glm::tvec4<short,0>::tvec4<short,0><int,int,int,int>
PUBLIC	??$to_string@Utvec4@glm@@F$0A@@glm@@YA?AV?$basic_string@DU?$char_traits@D@std@@V?$allocator@D@2@@std@@AEBU?$tvec4@F$0A@@0@@Z ; glm::to_string<glm::tvec4,short,0>
PUBLIC	?length@?$tvec2@_J$0A@@glm@@SAHXZ		; glm::tvec2<__int64,0>::length
PUBLIC	??A?$tvec2@_J$0A@@glm@@QEBAAEB_JH@Z		; glm::tvec2<__int64,0>::operator[]
PUBLIC	??$?0HH@?$tvec2@_J$0A@@glm@@QEAA@HH@Z		; glm::tvec2<__int64,0>::tvec2<__int64,0><int,int>
PUBLIC	??$to_string@Utvec2@glm@@_J$0A@@glm@@YA?AV?$basic_string@DU?$char_traits@D@std@@V?$allocator@D@2@@std@@AEBU?$tvec2@_J$0A@@0@@Z ; glm::to_string<glm::tvec2,__int64,0>
PUBLIC	?length@?$tvec3@_J$0A@@glm@@SAHXZ		; glm::tvec3<__int64,0>::length
PUBLIC	??A?$tvec3@_J$0A@@glm@@QEBAAEB_JH@Z		; glm::tvec3<__int64,0>::operator[]
PUBLIC	??$?0HHH@?$tvec3@_J$0A@@glm@@QEAA@HHH@Z		; glm::tvec3<__int64,0>::tvec3<__int64,0><int,int,int>
PUBLIC	??$to_string@Utvec3@glm@@_J$0A@@glm@@YA?AV?$basic_string@DU?$char_traits@D@std@@V?$allocator@D@2@@std@@AEBU?$tvec3@_J$0A@@0@@Z ; glm::to_string<glm::tvec3,__int64,0>
PUBLIC	?length@?$tvec4@_J$0A@@glm@@SAHXZ		; glm::tvec4<__int64,0>::length
PUBLIC	??A?$tvec4@_J$0A@@glm@@QEBAAEB_JH@Z		; glm::tvec4<__int64,0>::operator[]
PUBLIC	??$?0HHHH@?$tvec4@_J$0A@@glm@@QEAA@HHHH@Z	; glm::tvec4<__int64,0>::tvec4<__int64,0><int,int,int,int>
PUBLIC	??$to_string@Utvec4@glm@@_J$0A@@glm@@YA?AV?$basic_string@DU?$char_traits@D@std@@V?$allocator@D@2@@std@@AEBU?$tvec4@_J$0A@@0@@Z ; glm::to_string<glm::tvec4,__int64,0>
PUBLIC	?test_string_cast_matrix@@YAHXZ			; test_string_cast_matrix
PUBLIC	?length@?$tmat2x2@M$0A@@glm@@SAHXZ		; glm::tmat2x2<float,0>::length
PUBLIC	??A?$tmat2x2@M$0A@@glm@@QEBAAEBU?$tvec2@M$0A@@1@H@Z ; glm::tmat2x2<float,0>::operator[]
PUBLIC	??$?0NNNN@?$tmat2x2@M$0A@@glm@@QEAA@AEBN000@Z	; glm::tmat2x2<float,0>::tmat2x2<float,0><double,double,double,double>
PUBLIC	??$to_string@Utmat2x2@glm@@M$0A@@glm@@YA?AV?$basic_string@DU?$char_traits@D@std@@V?$allocator@D@2@@std@@AEBU?$tmat2x2@M$0A@@0@@Z ; glm::to_string<glm::tmat2x2,float,0>
PUBLIC	main
PUBLIC	?allocate@?$allocator@U_Container_proxy@std@@@std@@QEAAPEAU_Container_proxy@2@_K@Z ; std::allocator<std::_Container_proxy>::allocate
PUBLIC	??$_Delete_plain_internal@V?$allocator@U_Container_proxy@std@@@std@@@std@@YAXAEAV?$allocator@U_Container_proxy@std@@@0@QEAU_Container_proxy@0@@Z ; std::_Delete_plain_internal<std::allocator<std::_Container_proxy> >
PUBLIC	??0?$_Container_proxy_ptr12@V?$allocator@U_Container_proxy@std@@@std@@@std@@QEAA@AEAV?$allocator@U_Container_proxy@std@@@1@AEAU_Container_base12@1@@Z ; std::_Container_proxy_ptr12<std::allocator<std::_Container_proxy> >::_Container_proxy_ptr12<std::allocator<std::_Container_proxy> >
PUBLIC	??1?$_Container_proxy_ptr12@V?$allocator@U_Container_proxy@std@@@std@@@std@@QEAA@XZ ; std::_Container_proxy_ptr12<std::allocator<std::_Container_proxy> >::~_Container_proxy_ptr12<std::allocator<std::_Container_proxy> >
PUBLIC	??$_Alloc_proxy@V?$allocator@U_Container_proxy@std@@@std@@@_Container_base12@std@@QEAAX$$QEAV?$allocator@U_Container_proxy@std@@@1@@Z ; std::_Container_base12::_Alloc_proxy<std::allocator<std::_Container_proxy> >
PUBLIC	??$?0D@?$allocator@U_Container_proxy@std@@@std@@QEAA@AEBV?$allocator@D@1@@Z ; std::allocator<std::_Container_proxy>::allocator<std::_Container_proxy><char>
PUBLIC	??$?0$$V@?$_Compressed_pair@V?$allocator@D@std@@V?$_String_val@U?$_Simple_types@D@std@@@2@$00@std@@QEAA@U_Zero_then_variadic_args_t@1@@Z ; std::_Compressed_pair<std::allocator<char>,std::_String_val<std::_Simple_types<char> >,1>::_Compressed_pair<std::allocator<char>,std::_String_val<std::_Simple_types<char> >,1><>
PUBLIC	??$_Unfancy@U_Container_proxy@std@@@std@@YAPEAU_Container_proxy@0@PEAU10@@Z ; std::_Unfancy<std::_Container_proxy>
PUBLIC	??$addressof@U_Container_base12@std@@@std@@YAPEAU_Container_base12@0@AEAU10@@Z ; std::addressof<std::_Container_base12>
PUBLIC	??$_Construct_in_place@U_Container_proxy@std@@PEAU_Container_base12@2@@std@@YAXAEAU_Container_proxy@0@$$QEAPEAU_Container_base12@0@@Z ; std::_Construct_in_place<std::_Container_proxy,std::_Container_base12 *>
PUBLIC	??$_Destroy_in_place@PEAD@std@@YAXAEAPEAD@Z	; std::_Destroy_in_place<char *>
PUBLIC	??$_Convert_size@_K@std@@YA_K_K@Z		; std::_Convert_size<unsigned __int64>
PUBLIC	??R<lambda_66f57f934f28d61049862f64df852ff0>@@QEBA@QEAD_KQEBD@Z ; <lambda_66f57f934f28d61049862f64df852ff0>::operator()
PUBLIC	??$_Reallocate_for@V<lambda_66f57f934f28d61049862f64df852ff0>@@PEBD@?$basic_string@DU?$char_traits@D@std@@V?$allocator@D@2@@std@@AEAAAEAV01@_KV<lambda_66f57f934f28d61049862f64df852ff0>@@PEBD@Z ; std::basic_string<char,std::char_traits<char>,std::allocator<char> >::_Reallocate_for<<lambda_66f57f934f28d61049862f64df852ff0>,char const *>
PUBLIC	??$_Unfancy@D@std@@YAPEADPEAD@Z			; std::_Unfancy<char>
PUBLIC	??$max@_K@std@@YAAEB_KAEB_K0@Z			; std::max<unsigned __int64>
PUBLIC	??$_Get_size_of_n@$0BA@@std@@YA_K_K@Z		; std::_Get_size_of_n<16>
PUBLIC	??$_Allocate@$0BA@U_Default_allocate_traits@std@@$0A@@std@@YAPEAX_K@Z ; std::_Allocate<16,std::_Default_allocate_traits,0>
PUBLIC	??$_Deallocate@$0BA@$0A@@std@@YAXPEAX_K@Z	; std::_Deallocate<16,0>
PUBLIC	?call@?$compute_to_string@Utvec2@glm@@M$0A@@detail@glm@@SA?AV?$basic_string@DU?$char_traits@D@std@@V?$allocator@D@2@@std@@AEBU?$tvec2@M$0A@@3@@Z ; glm::detail::compute_to_string<glm::tvec2,float,0>::call
PUBLIC	??$?8DU?$char_traits@D@std@@V?$allocator@D@1@@std@@YA_NAEBV?$basic_string@DU?$char_traits@D@std@@V?$allocator@D@2@@0@0@Z ; std::operator==<char,std::char_traits<char>,std::allocator<char> >
PUBLIC	?call@?$compute_to_string@Utvec3@glm@@M$0A@@detail@glm@@SA?AV?$basic_string@DU?$char_traits@D@std@@V?$allocator@D@2@@std@@AEBU?$tvec3@M$0A@@3@@Z ; glm::detail::compute_to_string<glm::tvec3,float,0>::call
PUBLIC	?call@?$compute_to_string@Utvec4@glm@@M$0A@@detail@glm@@SA?AV?$basic_string@DU?$char_traits@D@std@@V?$allocator@D@2@@std@@AEBU?$tvec4@M$0A@@3@@Z ; glm::detail::compute_to_string<glm::tvec4,float,0>::call
PUBLIC	?call@?$compute_to_string@Utvec2@glm@@N$0A@@detail@glm@@SA?AV?$basic_string@DU?$char_traits@D@std@@V?$allocator@D@2@@std@@AEBU?$tvec2@N$0A@@3@@Z ; glm::detail::compute_to_string<glm::tvec2,double,0>::call
PUBLIC	?call@?$compute_to_string@Utvec3@glm@@N$0A@@detail@glm@@SA?AV?$basic_string@DU?$char_traits@D@std@@V?$allocator@D@2@@std@@AEBU?$tvec3@N$0A@@3@@Z ; glm::detail::compute_to_string<glm::tvec3,double,0>::call
PUBLIC	?call@?$compute_to_string@Utvec4@glm@@N$0A@@detail@glm@@SA?AV?$basic_string@DU?$char_traits@D@std@@V?$allocator@D@2@@std@@AEBU?$tvec4@N$0A@@3@@Z ; glm::detail::compute_to_string<glm::tvec4,double,0>::call
PUBLIC	?call@?$compute_to_string@Utvec2@glm@@_N$0A@@detail@glm@@SA?AV?$basic_string@DU?$char_traits@D@std@@V?$allocator@D@2@@std@@AEBU?$tvec2@_N$0A@@3@@Z ; glm::detail::compute_to_string<glm::tvec2,bool,0>::call
PUBLIC	?call@?$compute_to_string@Utvec3@glm@@_N$0A@@detail@glm@@SA?AV?$basic_string@DU?$char_traits@D@std@@V?$allocator@D@2@@std@@AEBU?$tvec3@_N$0A@@3@@Z ; glm::detail::compute_to_string<glm::tvec3,bool,0>::call
PUBLIC	?call@?$compute_to_string@Utvec4@glm@@_N$0A@@detail@glm@@SA?AV?$basic_string@DU?$char_traits@D@std@@V?$allocator@D@2@@std@@AEBU?$tvec4@_N$0A@@3@@Z ; glm::detail::compute_to_string<glm::tvec4,bool,0>::call
PUBLIC	?call@?$compute_to_string@Utvec2@glm@@H$0A@@detail@glm@@SA?AV?$basic_string@DU?$char_traits@D@std@@V?$allocator@D@2@@std@@AEBU?$tvec2@H$0A@@3@@Z ; glm::detail::compute_to_string<glm::tvec2,int,0>::call
PUBLIC	?call@?$compute_to_string@Utvec3@glm@@H$0A@@detail@glm@@SA?AV?$basic_string@DU?$char_traits@D@std@@V?$allocator@D@2@@std@@AEBU?$tvec3@H$0A@@3@@Z ; glm::detail::compute_to_string<glm::tvec3,int,0>::call
PUBLIC	?call@?$compute_to_string@Utvec4@glm@@H$0A@@detail@glm@@SA?AV?$basic_string@DU?$char_traits@D@std@@V?$allocator@D@2@@std@@AEBU?$tvec4@H$0A@@3@@Z ; glm::detail::compute_to_string<glm::tvec4,int,0>::call
PUBLIC	?call@?$compute_to_string@Utvec2@glm@@C$0A@@detail@glm@@SA?AV?$basic_string@DU?$char_traits@D@std@@V?$allocator@D@2@@std@@AEBU?$tvec2@C$0A@@3@@Z ; glm::detail::compute_to_string<glm::tvec2,signed char,0>::call
PUBLIC	?call@?$compute_to_string@Utvec3@glm@@C$0A@@detail@glm@@SA?AV?$basic_string@DU?$char_traits@D@std@@V?$allocator@D@2@@std@@AEBU?$tvec3@C$0A@@3@@Z ; glm::detail::compute_to_string<glm::tvec3,signed char,0>::call
PUBLIC	?call@?$compute_to_string@Utvec4@glm@@C$0A@@detail@glm@@SA?AV?$basic_string@DU?$char_traits@D@std@@V?$allocator@D@2@@std@@AEBU?$tvec4@C$0A@@3@@Z ; glm::detail::compute_to_string<glm::tvec4,signed char,0>::call
PUBLIC	?call@?$compute_to_string@Utvec2@glm@@F$0A@@detail@glm@@SA?AV?$basic_string@DU?$char_traits@D@std@@V?$allocator@D@2@@std@@AEBU?$tvec2@F$0A@@3@@Z ; glm::detail::compute_to_string<glm::tvec2,short,0>::call
PUBLIC	?call@?$compute_to_string@Utvec3@glm@@F$0A@@detail@glm@@SA?AV?$basic_string@DU?$char_traits@D@std@@V?$allocator@D@2@@std@@AEBU?$tvec3@F$0A@@3@@Z ; glm::detail::compute_to_string<glm::tvec3,short,0>::call
PUBLIC	?call@?$compute_to_string@Utvec4@glm@@F$0A@@detail@glm@@SA?AV?$basic_string@DU?$char_traits@D@std@@V?$allocator@D@2@@std@@AEBU?$tvec4@F$0A@@3@@Z ; glm::detail::compute_to_string<glm::tvec4,short,0>::call
PUBLIC	?call@?$compute_to_string@Utvec2@glm@@_J$0A@@detail@glm@@SA?AV?$basic_string@DU?$char_traits@D@std@@V?$allocator@D@2@@std@@AEBU?$tvec2@_J$0A@@3@@Z ; glm::detail::compute_to_string<glm::tvec2,__int64,0>::call
PUBLIC	?call@?$compute_to_string@Utvec3@glm@@_J$0A@@detail@glm@@SA?AV?$basic_string@DU?$char_traits@D@std@@V?$allocator@D@2@@std@@AEBU?$tvec3@_J$0A@@3@@Z ; glm::detail::compute_to_string<glm::tvec3,__int64,0>::call
PUBLIC	?call@?$compute_to_string@Utvec4@glm@@_J$0A@@detail@glm@@SA?AV?$basic_string@DU?$char_traits@D@std@@V?$allocator@D@2@@std@@AEBU?$tvec4@_J$0A@@3@@Z ; glm::detail::compute_to_string<glm::tvec4,__int64,0>::call
PUBLIC	?call@?$compute_to_string@Utmat2x2@glm@@M$0A@@detail@glm@@SA?AV?$basic_string@DU?$char_traits@D@std@@V?$allocator@D@2@@std@@AEBU?$tmat2x2@M$0A@@3@@Z ; glm::detail::compute_to_string<glm::tmat2x2,float,0>::call
PUBLIC	??$_Deallocate_plain@V?$allocator@U_Container_proxy@std@@@std@@@std@@YAXAEAV?$allocator@U_Container_proxy@std@@@0@QEAU_Container_proxy@0@@Z ; std::_Deallocate_plain<std::allocator<std::_Container_proxy> >
PUBLIC	??$addressof@U_Container_proxy@std@@@std@@YAPEAU_Container_proxy@0@AEAU10@@Z ; std::addressof<std::_Container_proxy>
PUBLIC	??$_Voidify_iter@PEAU_Container_proxy@std@@@std@@YAPEAXPEAU_Container_proxy@0@@Z ; std::_Voidify_iter<std::_Container_proxy *>
PUBLIC	??$forward@PEAU_Container_base12@std@@@std@@YA$$QEAPEAU_Container_base12@0@AEAPEAU10@@Z ; std::forward<std::_Container_base12 *>
PUBLIC	??$_Construct_in_place@PEADAEBQEAD@std@@YAXAEAPEADAEBQEAD@Z ; std::_Construct_in_place<char *,char * const &>
PUBLIC	??$addressof@PEAD@std@@YAPEAPEADAEAPEAD@Z	; std::addressof<char *>
PUBLIC	??$_Voidify_iter@PEAPEAD@std@@YAPEAXPEAPEAD@Z	; std::_Voidify_iter<char * *>
PUBLIC	??$_Allocate_manually_vector_aligned@U_Default_allocate_traits@std@@@std@@YAPEAX_K@Z ; std::_Allocate_manually_vector_aligned<std::_Default_allocate_traits>
PUBLIC	?value@?$literal@M$00@detail@glm@@SAPEBDXZ	; glm::detail::literal<float,1>::value
PUBLIC	?value@?$literal@_J$0A@@detail@glm@@SAPEBDXZ	; glm::detail::literal<__int64,0>::value
PUBLIC	?value@?$literal@F$0A@@detail@glm@@SAPEBDXZ	; glm::detail::literal<short,0>::value
PUBLIC	?value@?$literal@C$0A@@detail@glm@@SAPEBDXZ	; glm::detail::literal<signed char,0>::value
PUBLIC	?value@?$literal@H$0A@@detail@glm@@SAPEBDXZ	; glm::detail::literal<int,0>::value
PUBLIC	?value@?$literal@N$00@detail@glm@@SAPEBDXZ	; glm::detail::literal<double,1>::value
PUBLIC	??$min@_K@std@@YAAEB_KAEB_K0@Z			; std::min<unsigned __int64>
PUBLIC	??$_Get_size_of_n@$00@std@@YA_K_K@Z		; std::_Get_size_of_n<1>
PUBLIC	?deallocate@?$_Default_allocator_traits@V?$allocator@U_Container_proxy@std@@@std@@@std@@SAXAEAV?$allocator@U_Container_proxy@std@@@2@QEAU_Container_proxy@2@_K@Z ; std::_Default_allocator_traits<std::allocator<std::_Container_proxy> >::deallocate
PUBLIC	??$forward@AEBQEAD@std@@YAAEBQEADAEBQEAD@Z	; std::forward<char * const &>
PUBLIC	??$_Traits_equal@U?$char_traits@D@std@@@std@@YA_NQEBD_K01@Z ; std::_Traits_equal<std::char_traits<char> >
PUBLIC	?_OptionsStorage@?1??__local_stdio_printf_options@@9@4_KA ; `__local_stdio_printf_options'::`2'::_OptionsStorage
PUBLIC	??_7exception@std@@6B@				; std::exception::`vftable'
PUBLIC	??_C@_0BC@EOODALEL@Unknown?5exception@		; `string'
PUBLIC	??_7bad_alloc@std@@6B@				; std::bad_alloc::`vftable'
PUBLIC	??_7bad_array_new_length@std@@6B@		; std::bad_array_new_length::`vftable'
PUBLIC	??_C@_0BF@KINCDENJ@bad?5array?5new?5length@	; `string'
PUBLIC	_TI3?AVbad_array_new_length@std@@
PUBLIC	_CTA3?AVbad_array_new_length@std@@
PUBLIC	??_R0?AVbad_array_new_length@std@@@8		; std::bad_array_new_length `RTTI Type Descriptor'
PUBLIC	_CT??_R0?AVbad_array_new_length@std@@@8??0bad_array_new_length@std@@QEAA@AEBV01@@Z24
PUBLIC	??_R0?AVbad_alloc@std@@@8			; std::bad_alloc `RTTI Type Descriptor'
PUBLIC	_CT??_R0?AVbad_alloc@std@@@8??0bad_alloc@std@@QEAA@AEBV01@@Z24
PUBLIC	??_R0?AVexception@std@@@8			; std::exception `RTTI Type Descriptor'
PUBLIC	_CT??_R0?AVexception@std@@@8??0exception@std@@QEAA@AEBV01@@Z24
PUBLIC	??_C@_0BB@FCMFBGOM@invalid?5argument@		; `string'
PUBLIC	??_C@_02DKCKIIND@?$CFs@				; `string'
PUBLIC	??_C@_0GC@DJFHHHKN@C?3?2Program?5Files?2Microsoft?5Visu@ ; `string'
PUBLIC	??_C@_1ME@GEFGDEOM@?$AAC?$AA?3?$AA?2?$AAP?$AAr?$AAo?$AAg?$AAr?$AAa?$AAm?$AA?5?$AAF?$AAi?$AAl?$AAe@ ; `string'
PUBLIC	??_C@_11LOCGONAA@@				; `string'
PUBLIC	??_C@_1CG@JNLFBNGN@?$AA?$CC?$AAi?$AAn?$AAv?$AAa?$AAl?$AAi?$AAd?$AA?5?$AAa?$AAr?$AAg?$AAu?$AAm?$AAe@ ; `string'
PUBLIC	??_C@_0BA@JFNIOLAK@string?5too?5long@		; `string'
PUBLIC	??_C@_02NJPGOMH@?$CFf@				; `string'
PUBLIC	??_C@_00CNPNBAHC@@				; `string'
PUBLIC	??_C@_01LPLHEDKD@d@				; `string'
PUBLIC	??_C@_02FACHGKLJ@i8@				; `string'
PUBLIC	??_C@_03DECAIGLI@i16@				; `string'
PUBLIC	??_C@_01KBJDNOO@i@				; `string'
PUBLIC	??_C@_03DFJPCLP@i64@				; `string'
PUBLIC	??_C@_0DG@KGHKKGBC@null?5pointer?5cannot?5point?5to?5a?5@ ; `string'
PUBLIC	??_C@_1HA@FACCKGGH@?$AA?$CC?$AAn?$AAu?$AAl?$AAl?$AA?5?$AAp?$AAo?$AAi?$AAn?$AAt?$AAe?$AAr?$AA?5?$AAc@ ; `string'
PUBLIC	??_C@_1LG@FPDAFGJN@?$AAC?$AA?3?$AA?2?$AAU?$AAs?$AAe?$AAr?$AAs?$AA?2?$AAk?$AAs?$AAa?$AAr?$AAt?$AA?2@ ; `string'
PUBLIC	??_C@_1DK@BGNCJAPL@?$AAi?$AA?5?$AA?$DO?$AA?$DN?$AA?5?$AA0?$AA?5?$AA?$CG?$AA?$CG?$AA?5?$AAi?$AA?5?$AA?$DM?$AA?5?$AAt@ ; `string'
PUBLIC	??_C@_1LG@LAANPDHN@?$AAC?$AA?3?$AA?2?$AAU?$AAs?$AAe?$AAr?$AAs?$AA?2?$AAk?$AAs?$AAa?$AAr?$AAt?$AA?2@ ; `string'
PUBLIC	??_C@_0BN@EIANMPOG@?$CFsmat2x2?$CI?$CI?$CFs?0?5?$CFs?$CJ?0?5?$CI?$CFs?0?5?$CFs?$CJ?$CJ@ ; `string'
PUBLIC	??_C@_0BH@CCFPNAMF@?$CFsvec4?$CI?$CFs?0?5?$CFs?0?5?$CFs?0?5?$CFs?$CJ@ ; `string'
PUBLIC	??_C@_0BD@JLGANIFH@?$CFsvec3?$CI?$CFs?0?5?$CFs?0?5?$CFs?$CJ@ ; `string'
PUBLIC	??_C@_0P@GLDNIKHG@?$CFsvec2?$CI?$CFs?0?5?$CFs?$CJ@ ; `string'
PUBLIC	??_C@_0BG@NPMDCMDP@bvec4?$CI?$CFs?0?5?$CFs?0?5?$CFs?0?5?$CFs?$CJ@ ; `string'
PUBLIC	??_C@_0BC@PPIMMPCC@bvec3?$CI?$CFs?0?5?$CFs?0?5?$CFs?$CJ@ ; `string'
PUBLIC	??_C@_0O@CNKKKNFJ@bvec2?$CI?$CFs?0?5?$CFs?$CJ@	; `string'
PUBLIC	??_C@_02DPKJAMEF@?$CFd@				; `string'
PUBLIC	??_C@_1LG@MEJFBKPC@?$AAC?$AA?3?$AA?2?$AAU?$AAs?$AAe?$AAr?$AAs?$AA?2?$AAk?$AAs?$AAa?$AAr?$AAt?$AA?2@ ; `string'
PUBLIC	??_C@_1LK@KMFBDMLF@?$AAC?$AA?3?$AA?2?$AAU?$AAs?$AAe?$AAr?$AAs?$AA?2?$AAk?$AAs?$AAa?$AAr?$AAt?$AA?2@ ; `string'
PUBLIC	??_C@_1CG@KOFHLCJL@?$AAi?$AA?5?$AA?$DM?$AA?5?$AAt?$AAh?$AAi?$AAs?$AA?9?$AA?$DO?$AAl?$AAe?$AAn?$AAg?$AAt@ ; `string'
PUBLIC	??_R4exception@std@@6B@				; std::exception::`RTTI Complete Object Locator'
PUBLIC	??_R3exception@std@@8				; std::exception::`RTTI Class Hierarchy Descriptor'
PUBLIC	??_R2exception@std@@8				; std::exception::`RTTI Base Class Array'
PUBLIC	??_R1A@?0A@EA@exception@std@@8			; std::exception::`RTTI Base Class Descriptor at (0,-1,0,64)'
PUBLIC	??_R4bad_alloc@std@@6B@				; std::bad_alloc::`RTTI Complete Object Locator'
PUBLIC	??_R3bad_alloc@std@@8				; std::bad_alloc::`RTTI Class Hierarchy Descriptor'
PUBLIC	??_R2bad_alloc@std@@8				; std::bad_alloc::`RTTI Base Class Array'
PUBLIC	??_R1A@?0A@EA@bad_alloc@std@@8			; std::bad_alloc::`RTTI Base Class Descriptor at (0,-1,0,64)'
PUBLIC	??_R4bad_array_new_length@std@@6B@		; std::bad_array_new_length::`RTTI Complete Object Locator'
PUBLIC	??_R3bad_array_new_length@std@@8		; std::bad_array_new_length::`RTTI Class Hierarchy Descriptor'
PUBLIC	??_R2bad_array_new_length@std@@8		; std::bad_array_new_length::`RTTI Base Class Array'
PUBLIC	??_R1A@?0A@EA@bad_array_new_length@std@@8	; std::bad_array_new_length::`RTTI Base Class Descriptor at (0,-1,0,64)'
PUBLIC	__real@3ff0000000000000
PUBLIC	__real@4000000000000000
PUBLIC	__real@4008000000000000
PUBLIC	__real@4010000000000000
EXTRN	??2@YAPEAX_K@Z:PROC				; operator new
EXTRN	??3@YAXPEAX_K@Z:PROC				; operator delete
EXTRN	__imp__invalid_parameter:PROC
EXTRN	__imp__CrtDbgReport:PROC
EXTRN	__imp_??0_Lockit@std@@QEAA@H@Z:PROC
EXTRN	__imp_??1_Lockit@std@@QEAA@XZ:PROC
EXTRN	__imp___stdio_common_vsprintf_s:PROC
EXTRN	memcmp:PROC
EXTRN	memcpy:PROC
EXTRN	memmove:PROC
EXTRN	__imp__wassert:PROC
EXTRN	strlen:PROC
EXTRN	__std_exception_copy:PROC
EXTRN	__std_exception_destroy:PROC
EXTRN	??_Eexception@std@@UEAAPEAXI@Z:PROC		; std::exception::`vector deleting destructor'
EXTRN	??_Ebad_alloc@std@@UEAAPEAXI@Z:PROC		; std::bad_alloc::`vector deleting destructor'
EXTRN	??_Ebad_array_new_length@std@@UEAAPEAXI@Z:PROC	; std::bad_array_new_length::`vector deleting destructor'
EXTRN	?_Xlength_error@std@@YAXPEBD@Z:PROC		; std::_Xlength_error
EXTRN	_CxxThrowException:PROC
EXTRN	_RTC_CheckStackVars:PROC
EXTRN	_RTC_InitBase:PROC
EXTRN	_RTC_Shutdown:PROC
EXTRN	__CxxFrameHandler4:PROC
EXTRN	__GSHandlerCheck:PROC
EXTRN	__GSHandlerCheck_EH4:PROC
EXTRN	__chkstk:PROC
EXTRN	__security_check_cookie:PROC
EXTRN	??_7type_info@@6B@:BYTE				; type_info::`vftable'
EXTRN	__security_cookie:QWORD
EXTRN	_fltused:DWORD
;	COMDAT ?_OptionsStorage@?1??__local_stdio_printf_options@@9@4_KA
_BSS	SEGMENT
?_OptionsStorage@?1??__local_stdio_printf_options@@9@4_KA DQ 01H DUP (?) ; `__local_stdio_printf_options'::`2'::_OptionsStorage
_BSS	ENDS
;	COMDAT pdata
pdata	SEGMENT
$pdata$??_H@YAXPEAX_K1P6APEAX0@Z@Z DD imagerel $LN7
	DD	imagerel $LN7+119
	DD	imagerel $unwind$??_H@YAXPEAX_K1P6APEAX0@Z@Z
pdata	ENDS
;	COMDAT pdata
pdata	SEGMENT
$pdata$??2@YAPEAX_KPEAX@Z DD imagerel $LN3
	DD	imagerel $LN3+18
	DD	imagerel $unwind$??2@YAPEAX_KPEAX@Z
pdata	ENDS
;	COMDAT pdata
pdata	SEGMENT
$pdata$__local_stdio_printf_options DD imagerel $LN3
	DD	imagerel $LN3+11
	DD	imagerel $unwind$__local_stdio_printf_options
pdata	ENDS
;	COMDAT pdata
pdata	SEGMENT
$pdata$_vsprintf_s_l DD imagerel $LN5
	DD	imagerel $LN5+113
	DD	imagerel $unwind$_vsprintf_s_l
pdata	ENDS
;	COMDAT pdata
pdata	SEGMENT
$pdata$vsprintf_s DD imagerel $LN3
	DD	imagerel $LN3+64
	DD	imagerel $unwind$vsprintf_s
pdata	ENDS
;	COMDAT pdata
pdata	SEGMENT
$pdata$?max@?$numeric_limits@_J@std@@SA_JXZ DD imagerel $LN3
	DD	imagerel $LN3+14
	DD	imagerel $unwind$?max@?$numeric_limits@_J@std@@SA_JXZ
pdata	ENDS
;	COMDAT pdata
pdata	SEGMENT
$pdata$?length@?$tvec2@M$0A@@glm@@SAHXZ DD imagerel $LN3
	DD	imagerel $LN3+9
	DD	imagerel $unwind$?length@?$tvec2@M$0A@@glm@@SAHXZ
pdata	ENDS
;	COMDAT pdata
pdata	SEGMENT
$pdata$??A?$tvec2@M$0A@@glm@@QEBAAEBMH@Z DD imagerel $LN5
	DD	imagerel $LN5+80
	DD	imagerel $unwind$??A?$tvec2@M$0A@@glm@@QEBAAEBMH@Z
pdata	ENDS
;	COMDAT pdata
pdata	SEGMENT
$pdata$??0?$tvec2@M$0A@@glm@@QEAA@XZ DD imagerel $LN3
	DD	imagerel $LN3+38
	DD	imagerel $unwind$??0?$tvec2@M$0A@@glm@@QEAA@XZ
pdata	ENDS
;	COMDAT pdata
pdata	SEGMENT
$pdata$??0?$tvec2@M$0A@@glm@@QEAA@MM@Z DD imagerel $LN3
	DD	imagerel $LN3+56
	DD	imagerel $unwind$??0?$tvec2@M$0A@@glm@@QEAA@MM@Z
pdata	ENDS
;	COMDAT pdata
pdata	SEGMENT
$pdata$?length@?$tvec2@F$0A@@glm@@SAHXZ DD imagerel $LN3
	DD	imagerel $LN3+9
	DD	imagerel $unwind$?length@?$tvec2@F$0A@@glm@@SAHXZ
pdata	ENDS
;	COMDAT pdata
pdata	SEGMENT
$pdata$??A?$tvec2@F$0A@@glm@@QEBAAEBFH@Z DD imagerel $LN5
	DD	imagerel $LN5+80
	DD	imagerel $unwind$??A?$tvec2@F$0A@@glm@@QEBAAEBFH@Z
pdata	ENDS
;	COMDAT pdata
pdata	SEGMENT
$pdata$?length@?$tvec4@M$0A@@glm@@SAHXZ DD imagerel $LN3
	DD	imagerel $LN3+9
	DD	imagerel $unwind$?length@?$tvec4@M$0A@@glm@@SAHXZ
pdata	ENDS
;	COMDAT pdata
pdata	SEGMENT
$pdata$??A?$tvec4@M$0A@@glm@@QEBAAEBMH@Z DD imagerel $LN5
	DD	imagerel $LN5+80
	DD	imagerel $unwind$??A?$tvec4@M$0A@@glm@@QEBAAEBMH@Z
pdata	ENDS
;	COMDAT pdata
pdata	SEGMENT
$pdata$?length@?$tvec4@C$0A@@glm@@SAHXZ DD imagerel $LN3
	DD	imagerel $LN3+9
	DD	imagerel $unwind$?length@?$tvec4@C$0A@@glm@@SAHXZ
pdata	ENDS
;	COMDAT pdata
pdata	SEGMENT
$pdata$??A?$tvec4@C$0A@@glm@@QEBAAEBCH@Z DD imagerel $LN5
	DD	imagerel $LN5+82
	DD	imagerel $unwind$??A?$tvec4@C$0A@@glm@@QEBAAEBCH@Z
pdata	ENDS
;	COMDAT pdata
pdata	SEGMENT
$pdata$??0exception@std@@QEAA@QEBDH@Z DD imagerel $LN3
	DD	imagerel $LN3+73
	DD	imagerel $unwind$??0exception@std@@QEAA@QEBDH@Z
pdata	ENDS
;	COMDAT pdata
pdata	SEGMENT
$pdata$??0exception@std@@QEAA@AEBV01@@Z DD imagerel $LN3
	DD	imagerel $LN3+88
	DD	imagerel $unwind$??0exception@std@@QEAA@AEBV01@@Z
pdata	ENDS
;	COMDAT pdata
pdata	SEGMENT
$pdata$??1exception@std@@UEAA@XZ DD imagerel $LN3
	DD	imagerel $LN3+48
	DD	imagerel $unwind$??1exception@std@@UEAA@XZ
pdata	ENDS
;	COMDAT pdata
pdata	SEGMENT
$pdata$?what@exception@std@@UEBAPEBDXZ DD imagerel $LN5
	DD	imagerel $LN5+58
	DD	imagerel $unwind$?what@exception@std@@UEBAPEBDXZ
pdata	ENDS
;	COMDAT pdata
pdata	SEGMENT
$pdata$??_Gexception@std@@UEAAPEAXI@Z DD imagerel $LN4
	DD	imagerel $LN4+61
	DD	imagerel $unwind$??_Gexception@std@@UEAAPEAXI@Z
pdata	ENDS
;	COMDAT pdata
pdata	SEGMENT
$pdata$??0bad_alloc@std@@AEAA@QEBD@Z DD imagerel $LN3
	DD	imagerel $LN3+62
	DD	imagerel $unwind$??0bad_alloc@std@@AEAA@QEBD@Z
pdata	ENDS
;	COMDAT pdata
pdata	SEGMENT
$pdata$??1bad_alloc@std@@UEAA@XZ DD imagerel $LN3
	DD	imagerel $LN3+26
	DD	imagerel $unwind$??1bad_alloc@std@@UEAA@XZ
pdata	ENDS
;	COMDAT pdata
pdata	SEGMENT
$pdata$??0bad_alloc@std@@QEAA@AEBV01@@Z DD imagerel $LN3
	DD	imagerel $LN3+56
	DD	imagerel $unwind$??0bad_alloc@std@@QEAA@AEBV01@@Z
pdata	ENDS
;	COMDAT pdata
pdata	SEGMENT
$pdata$??_Gbad_alloc@std@@UEAAPEAXI@Z DD imagerel $LN4
	DD	imagerel $LN4+61
	DD	imagerel $unwind$??_Gbad_alloc@std@@UEAAPEAXI@Z
pdata	ENDS
;	COMDAT pdata
pdata	SEGMENT
$pdata$??0bad_array_new_length@std@@QEAA@XZ DD imagerel $LN3
	DD	imagerel $LN3+53
	DD	imagerel $unwind$??0bad_array_new_length@std@@QEAA@XZ
pdata	ENDS
;	COMDAT pdata
pdata	SEGMENT
$pdata$??1bad_array_new_length@std@@UEAA@XZ DD imagerel $LN3
	DD	imagerel $LN3+26
	DD	imagerel $unwind$??1bad_array_new_length@std@@UEAA@XZ
pdata	ENDS
;	COMDAT pdata
pdata	SEGMENT
$pdata$??0bad_array_new_length@std@@QEAA@AEBV01@@Z DD imagerel $LN3
	DD	imagerel $LN3+56
	DD	imagerel $unwind$??0bad_array_new_length@std@@QEAA@AEBV01@@Z
pdata	ENDS
;	COMDAT pdata
pdata	SEGMENT
$pdata$??_Gbad_array_new_length@std@@UEAAPEAXI@Z DD imagerel $LN4
	DD	imagerel $LN4+61
	DD	imagerel $unwind$??_Gbad_array_new_length@std@@UEAAPEAXI@Z
pdata	ENDS
;	COMDAT pdata
pdata	SEGMENT
$pdata$?_Throw_bad_array_new_length@std@@YAXXZ DD imagerel $LN3
	DD	imagerel $LN3+39
	DD	imagerel $unwind$?_Throw_bad_array_new_length@std@@YAXXZ
pdata	ENDS
;	COMDAT pdata
pdata	SEGMENT
$pdata$?_Allocate@_Default_allocate_traits@std@@SAPEAX_K@Z DD imagerel $LN3
	DD	imagerel $LN3+26
	DD	imagerel $unwind$?_Allocate@_Default_allocate_traits@std@@SAPEAX_K@Z
pdata	ENDS
;	COMDAT pdata
pdata	SEGMENT
$pdata$?_Adjust_manually_vector_aligned@std@@YAXAEAPEAXAEA_K@Z DD imagerel $LN21
	DD	imagerel $LN21+404
	DD	imagerel $unwind$?_Adjust_manually_vector_aligned@std@@YAXAEAPEAXAEA_K@Z
pdata	ENDS
;	COMDAT pdata
pdata	SEGMENT
$pdata$??0_Container_proxy@std@@QEAA@PEAU_Container_base12@1@@Z DD imagerel $LN3
	DD	imagerel $LN3+44
	DD	imagerel $unwind$??0_Container_proxy@std@@QEAA@PEAU_Container_base12@1@@Z
pdata	ENDS
;	COMDAT pdata
pdata	SEGMENT
$pdata$??0_Container_base12@std@@QEAA@XZ DD imagerel $LN3
	DD	imagerel $LN3+25
	DD	imagerel $unwind$??0_Container_base12@std@@QEAA@XZ
pdata	ENDS
;	COMDAT pdata
pdata	SEGMENT
$pdata$?_Orphan_all@_Container_base12@std@@QEAAXXZ DD imagerel $LN3
	DD	imagerel $LN3+26
	DD	imagerel $unwind$?_Orphan_all@_Container_base12@std@@QEAAXXZ
pdata	ENDS
;	COMDAT pdata
pdata	SEGMENT
$pdata$?_Orphan_all_unlocked_v3@_Container_base12@std@@AEAAXXZ DD imagerel $LN7
	DD	imagerel $LN7+107
	DD	imagerel $unwind$?_Orphan_all_unlocked_v3@_Container_base12@std@@AEAAXXZ
pdata	ENDS
;	COMDAT pdata
pdata	SEGMENT
$pdata$?_Orphan_all_locked_v3@_Container_base12@std@@AEAAXXZ DD imagerel $LN3
	DD	imagerel $LN3+90
	DD	imagerel $unwind$?_Orphan_all_locked_v3@_Container_base12@std@@AEAAXXZ
pdata	ENDS
;	COMDAT pdata
pdata	SEGMENT
$pdata$?_Release@_Basic_container_proxy_ptr12@std@@QEAAXXZ DD imagerel $LN3
	DD	imagerel $LN3+20
	DD	imagerel $unwind$?_Release@_Basic_container_proxy_ptr12@std@@QEAAXXZ
pdata	ENDS
;	COMDAT pdata
pdata	SEGMENT
$pdata$??0_Basic_container_proxy_ptr12@std@@IEAA@XZ DD imagerel $LN3
	DD	imagerel $LN3+25
	DD	imagerel $unwind$??0_Basic_container_proxy_ptr12@std@@IEAA@XZ
pdata	ENDS
;	COMDAT pdata
pdata	SEGMENT
$pdata$?copy@?$_Char_traits@DH@std@@SAPEADQEADQEBD_K@Z DD imagerel $LN3
	DD	imagerel $LN3+51
	DD	imagerel $unwind$?copy@?$_Char_traits@DH@std@@SAPEADQEADQEBD_K@Z
pdata	ENDS
;	COMDAT pdata
pdata	SEGMENT
$pdata$?move@?$_Char_traits@DH@std@@SAPEADQEADQEBD_K@Z DD imagerel $LN3
	DD	imagerel $LN3+51
	DD	imagerel $unwind$?move@?$_Char_traits@DH@std@@SAPEADQEADQEBD_K@Z
pdata	ENDS
;	COMDAT pdata
pdata	SEGMENT
$pdata$?compare@?$_Narrow_char_traits@DH@std@@SAHQEBD0_K@Z DD imagerel $LN3
	DD	imagerel $LN3+46
	DD	imagerel $unwind$?compare@?$_Narrow_char_traits@DH@std@@SAHQEBD0_K@Z
pdata	ENDS
;	COMDAT pdata
pdata	SEGMENT
$pdata$?length@?$_Narrow_char_traits@DH@std@@SA_KQEBD@Z DD imagerel $LN3
	DD	imagerel $LN3+26
	DD	imagerel $unwind$?length@?$_Narrow_char_traits@DH@std@@SA_KQEBD@Z
pdata	ENDS
;	COMDAT pdata
pdata	SEGMENT
$pdata$?assign@?$_Narrow_char_traits@DH@std@@SAXAEADAEBD@Z DD imagerel $LN3
	DD	imagerel $LN3+28
	DD	imagerel $unwind$?assign@?$_Narrow_char_traits@DH@std@@SAXAEADAEBD@Z
pdata	ENDS
;	COMDAT pdata
pdata	SEGMENT
$pdata$?_Xlen_string@std@@YAXXZ DD imagerel $LN3
	DD	imagerel $LN3+24
	DD	imagerel $unwind$?_Xlen_string@std@@YAXXZ
pdata	ENDS
;	COMDAT pdata
pdata	SEGMENT
$pdata$??0?$allocator@D@std@@QEAA@XZ DD imagerel $LN3
	DD	imagerel $LN3+13
	DD	imagerel $unwind$??0?$allocator@D@std@@QEAA@XZ
pdata	ENDS
;	COMDAT pdata
pdata	SEGMENT
$pdata$?deallocate@?$allocator@D@std@@QEAAXQEAD_K@Z DD imagerel $LN13
	DD	imagerel $LN13+176
	DD	imagerel $unwind$?deallocate@?$allocator@D@std@@QEAAXQEAD_K@Z
pdata	ENDS
;	COMDAT pdata
pdata	SEGMENT
$pdata$?allocate@?$allocator@D@std@@QEAAPEAD_K@Z DD imagerel $LN3
	DD	imagerel $LN3+39
	DD	imagerel $unwind$?allocate@?$allocator@D@std@@QEAAPEAD_K@Z
pdata	ENDS
;	COMDAT pdata
pdata	SEGMENT
$pdata$?max_size@?$_Default_allocator_traits@V?$allocator@D@std@@@std@@SA_KAEBV?$allocator@D@2@@Z DD imagerel $LN3
	DD	imagerel $LN3+15
	DD	imagerel $unwind$?max_size@?$_Default_allocator_traits@V?$allocator@D@std@@@std@@SA_KAEBV?$allocator@D@2@@Z
pdata	ENDS
;	COMDAT pdata
pdata	SEGMENT
$pdata$??0?$_String_val@U?$_Simple_types@D@std@@@std@@QEAA@XZ DD imagerel $LN3
	DD	imagerel $LN3+74
	DD	imagerel $unwind$??0?$_String_val@U?$_Simple_types@D@std@@@std@@QEAA@XZ
pdata	ENDS
;	COMDAT pdata
pdata	SEGMENT
$pdata$?_Myptr@?$_String_val@U?$_Simple_types@D@std@@@std@@QEAAPEADXZ DD imagerel $LN4
	DD	imagerel $LN4+71
	DD	imagerel $unwind$?_Myptr@?$_String_val@U?$_Simple_types@D@std@@@std@@QEAAPEADXZ
pdata	ENDS
;	COMDAT pdata
pdata	SEGMENT
$pdata$?_Myptr@?$_String_val@U?$_Simple_types@D@std@@@std@@QEBAPEBDXZ DD imagerel $LN4
	DD	imagerel $LN4+71
	DD	imagerel $unwind$?_Myptr@?$_String_val@U?$_Simple_types@D@std@@@std@@QEBAPEBDXZ
pdata	ENDS
;	COMDAT pdata
pdata	SEGMENT
$pdata$?_Large_string_engaged@?$_String_val@U?$_Simple_types@D@std@@@std@@QEBA_NXZ DD imagerel $LN5
	DD	imagerel $LN5+48
	DD	imagerel $unwind$?_Large_string_engaged@?$_String_val@U?$_Simple_types@D@std@@@std@@QEBA_NXZ
pdata	ENDS
;	COMDAT pdata
pdata	SEGMENT
$pdata$??0_Bxty@?$_String_val@U?$_Simple_types@D@std@@@std@@QEAA@XZ DD imagerel $LN3
	DD	imagerel $LN3+25
	DD	imagerel $unwind$??0_Bxty@?$_String_val@U?$_Simple_types@D@std@@@std@@QEAA@XZ
pdata	ENDS
;	COMDAT pdata
pdata	SEGMENT
$pdata$??1_Bxty@?$_String_val@U?$_Simple_types@D@std@@@std@@QEAA@XZ DD imagerel $LN3
	DD	imagerel $LN3+8
	DD	imagerel $unwind$??1_Bxty@?$_String_val@U?$_Simple_types@D@std@@@std@@QEAA@XZ
pdata	ENDS
;	COMDAT pdata
pdata	SEGMENT
$pdata$??1?$_String_val@U?$_Simple_types@D@std@@@std@@QEAA@XZ DD imagerel $LN3
	DD	imagerel $LN3+33
	DD	imagerel $unwind$??1?$_String_val@U?$_Simple_types@D@std@@@std@@QEAA@XZ
pdata	ENDS
;	COMDAT pdata
pdata	SEGMENT
$pdata$??0?$basic_string@DU?$char_traits@D@std@@V?$allocator@D@2@@std@@QEAA@XZ DD imagerel $LN3
	DD	imagerel $LN3+85
	DD	imagerel $unwind$??0?$basic_string@DU?$char_traits@D@std@@V?$allocator@D@2@@std@@QEAA@XZ
pdata	ENDS
;	COMDAT pdata
pdata	SEGMENT
$pdata$??0?$basic_string@DU?$char_traits@D@std@@V?$allocator@D@2@@std@@QEAA@QEBD@Z DD imagerel $LN5
	DD	imagerel $LN5+222
	DD	imagerel $unwind$??0?$basic_string@DU?$char_traits@D@std@@V?$allocator@D@2@@std@@QEAA@QEBD@Z
pdata	ENDS
;	COMDAT pdata
pdata	SEGMENT
$pdata$?dtor$0@?0???0?$basic_string@DU?$char_traits@D@std@@V?$allocator@D@2@@std@@QEAA@QEBD@Z@4HA DD imagerel ?dtor$0@?0???0?$basic_string@DU?$char_traits@D@std@@V?$allocator@D@2@@std@@QEAA@QEBD@Z@4HA
	DD	imagerel ?dtor$0@?0???0?$basic_string@DU?$char_traits@D@std@@V?$allocator@D@2@@std@@QEAA@QEBD@Z@4HA+38
	DD	imagerel $unwind$?dtor$0@?0???0?$basic_string@DU?$char_traits@D@std@@V?$allocator@D@2@@std@@QEAA@QEBD@Z@4HA
pdata	ENDS
;	COMDAT pdata
pdata	SEGMENT
$pdata$?dtor$1@?0???0?$basic_string@DU?$char_traits@D@std@@V?$allocator@D@2@@std@@QEAA@QEBD@Z@4HA DD imagerel ?dtor$1@?0???0?$basic_string@DU?$char_traits@D@std@@V?$allocator@D@2@@std@@QEAA@QEBD@Z@4HA
	DD	imagerel ?dtor$1@?0???0?$basic_string@DU?$char_traits@D@std@@V?$allocator@D@2@@std@@QEAA@QEBD@Z@4HA+35
	DD	imagerel $unwind$?dtor$1@?0???0?$basic_string@DU?$char_traits@D@std@@V?$allocator@D@2@@std@@QEAA@QEBD@Z@4HA
pdata	ENDS
;	COMDAT pdata
pdata	SEGMENT
$pdata$??1?$basic_string@DU?$char_traits@D@std@@V?$allocator@D@2@@std@@QEAA@XZ DD imagerel $LN3
	DD	imagerel $LN3+149
	DD	imagerel $unwind$??1?$basic_string@DU?$char_traits@D@std@@V?$allocator@D@2@@std@@QEAA@XZ
pdata	ENDS
;	COMDAT pdata
pdata	SEGMENT
$pdata$?assign@?$basic_string@DU?$char_traits@D@std@@V?$allocator@D@2@@std@@QEAAAEAV12@QEBD_K@Z DD imagerel $LN4
	DD	imagerel $LN4+178
	DD	imagerel $unwind$?assign@?$basic_string@DU?$char_traits@D@std@@V?$allocator@D@2@@std@@QEAAAEAV12@QEBD_K@Z
pdata	ENDS
;	COMDAT pdata
pdata	SEGMENT
$pdata$?assign@?$basic_string@DU?$char_traits@D@std@@V?$allocator@D@2@@std@@QEAAAEAV12@QEBD@Z DD imagerel $LN3
	DD	imagerel $LN3+57
	DD	imagerel $unwind$?assign@?$basic_string@DU?$char_traits@D@std@@V?$allocator@D@2@@std@@QEAAAEAV12@QEBD@Z
pdata	ENDS
;	COMDAT pdata
pdata	SEGMENT
$pdata$?c_str@?$basic_string@DU?$char_traits@D@std@@V?$allocator@D@2@@std@@QEBAPEBDXZ DD imagerel $LN3
	DD	imagerel $LN3+29
	DD	imagerel $unwind$?c_str@?$basic_string@DU?$char_traits@D@std@@V?$allocator@D@2@@std@@QEBAPEBDXZ
pdata	ENDS
;	COMDAT pdata
pdata	SEGMENT
$pdata$?max_size@?$basic_string@DU?$char_traits@D@std@@V?$allocator@D@2@@std@@QEBA_KXZ DD imagerel $LN3
	DD	imagerel $LN3+155
	DD	imagerel $unwind$?max_size@?$basic_string@DU?$char_traits@D@std@@V?$allocator@D@2@@std@@QEBA_KXZ
pdata	ENDS
;	COMDAT pdata
pdata	SEGMENT
$pdata$?_Equal@?$basic_string@DU?$char_traits@D@std@@V?$allocator@D@2@@std@@QEBA_NAEBV12@@Z DD imagerel $LN3
	DD	imagerel $LN3+83
	DD	imagerel $unwind$?_Equal@?$basic_string@DU?$char_traits@D@std@@V?$allocator@D@2@@std@@QEBA_NAEBV12@@Z
pdata	ENDS
;	COMDAT pdata
pdata	SEGMENT
$pdata$?_Calculate_growth@?$basic_string@DU?$char_traits@D@std@@V?$allocator@D@2@@std@@CA_K_K00@Z DD imagerel $LN5
	DD	imagerel $LN5+191
	DD	imagerel $unwind$?_Calculate_growth@?$basic_string@DU?$char_traits@D@std@@V?$allocator@D@2@@std@@CA_K_K00@Z
pdata	ENDS
;	COMDAT pdata
pdata	SEGMENT
$pdata$?_Calculate_growth@?$basic_string@DU?$char_traits@D@std@@V?$allocator@D@2@@std@@AEBA_K_K@Z DD imagerel $LN3
	DD	imagerel $LN3+53
	DD	imagerel $unwind$?_Calculate_growth@?$basic_string@DU?$char_traits@D@std@@V?$allocator@D@2@@std@@AEBA_K_K@Z
pdata	ENDS
;	COMDAT pdata
pdata	SEGMENT
$pdata$?_Tidy_init@?$basic_string@DU?$char_traits@D@std@@V?$allocator@D@2@@std@@AEAAXXZ DD imagerel $LN3
	DD	imagerel $LN3+89
	DD	imagerel $unwind$?_Tidy_init@?$basic_string@DU?$char_traits@D@std@@V?$allocator@D@2@@std@@AEAAXXZ
pdata	ENDS
;	COMDAT pdata
pdata	SEGMENT
$pdata$?_Tidy_deallocate@?$basic_string@DU?$char_traits@D@std@@V?$allocator@D@2@@std@@AEAAXXZ DD imagerel $LN4
	DD	imagerel $LN4+189
	DD	imagerel $unwind$?_Tidy_deallocate@?$basic_string@DU?$char_traits@D@std@@V?$allocator@D@2@@std@@AEAAXXZ
pdata	ENDS
;	COMDAT pdata
pdata	SEGMENT
$pdata$?_Getal@?$basic_string@DU?$char_traits@D@std@@V?$allocator@D@2@@std@@AEAAAEAV?$allocator@D@2@XZ DD imagerel $LN3
	DD	imagerel $LN3+29
	DD	imagerel $unwind$?_Getal@?$basic_string@DU?$char_traits@D@std@@V?$allocator@D@2@@std@@AEAAAEAV?$allocator@D@2@XZ
pdata	ENDS
;	COMDAT pdata
pdata	SEGMENT
$pdata$?_Getal@?$basic_string@DU?$char_traits@D@std@@V?$allocator@D@2@@std@@AEBAAEBV?$allocator@D@2@XZ DD imagerel $LN3
	DD	imagerel $LN3+29
	DD	imagerel $unwind$?_Getal@?$basic_string@DU?$char_traits@D@std@@V?$allocator@D@2@@std@@AEBAAEBV?$allocator@D@2@XZ
pdata	ENDS
;	COMDAT pdata
pdata	SEGMENT
$pdata$?_Get_first@?$_Compressed_pair@V?$allocator@D@std@@V?$_String_val@U?$_Simple_types@D@std@@@2@$00@std@@QEAAAEAV?$allocator@D@2@XZ DD imagerel $LN3
	DD	imagerel $LN3+13
	DD	imagerel $unwind$?_Get_first@?$_Compressed_pair@V?$allocator@D@std@@V?$_String_val@U?$_Simple_types@D@std@@@2@$00@std@@QEAAAEAV?$allocator@D@2@XZ
pdata	ENDS
;	COMDAT pdata
pdata	SEGMENT
$pdata$?_Get_first@?$_Compressed_pair@V?$allocator@D@std@@V?$_String_val@U?$_Simple_types@D@std@@@2@$00@std@@QEBAAEBV?$allocator@D@2@XZ DD imagerel $LN3
	DD	imagerel $LN3+13
	DD	imagerel $unwind$?_Get_first@?$_Compressed_pair@V?$allocator@D@std@@V?$_String_val@U?$_Simple_types@D@std@@@2@$00@std@@QEBAAEBV?$allocator@D@2@XZ
pdata	ENDS
;	COMDAT pdata
pdata	SEGMENT
$pdata$??1?$_Compressed_pair@V?$allocator@D@std@@V?$_String_val@U?$_Simple_types@D@std@@@2@$00@std@@QEAA@XZ DD imagerel $LN3
	DD	imagerel $LN3+29
	DD	imagerel $unwind$??1?$_Compressed_pair@V?$allocator@D@std@@V?$_String_val@U?$_Simple_types@D@std@@@2@$00@std@@QEAA@XZ
pdata	ENDS
;	COMDAT pdata
pdata	SEGMENT
$pdata$?format@detail@glm@@YA?AV?$basic_string@DU?$char_traits@D@std@@V?$allocator@D@2@@std@@PEBDZZ DD imagerel $LN6
	DD	imagerel $LN6+296
	DD	imagerel $unwind$?format@detail@glm@@YA?AV?$basic_string@DU?$char_traits@D@std@@V?$allocator@D@2@@std@@PEBDZZ
pdata	ENDS
;	COMDAT pdata
pdata	SEGMENT
$pdata$?value@?$prefix@M@detail@glm@@SAPEBDXZ DD imagerel $LN3
	DD	imagerel $LN3+11
	DD	imagerel $unwind$?value@?$prefix@M@detail@glm@@SAPEBDXZ
pdata	ENDS
;	COMDAT pdata
pdata	SEGMENT
$pdata$?value@?$prefix@N@detail@glm@@SAPEBDXZ DD imagerel $LN3
	DD	imagerel $LN3+11
	DD	imagerel $unwind$?value@?$prefix@N@detail@glm@@SAPEBDXZ
pdata	ENDS
;	COMDAT pdata
pdata	SEGMENT
$pdata$?value@?$prefix@C@detail@glm@@SAPEBDXZ DD imagerel $LN3
	DD	imagerel $LN3+11
	DD	imagerel $unwind$?value@?$prefix@C@detail@glm@@SAPEBDXZ
pdata	ENDS
;	COMDAT pdata
pdata	SEGMENT
$pdata$?value@?$prefix@F@detail@glm@@SAPEBDXZ DD imagerel $LN3
	DD	imagerel $LN3+11
	DD	imagerel $unwind$?value@?$prefix@F@detail@glm@@SAPEBDXZ
pdata	ENDS
;	COMDAT pdata
pdata	SEGMENT
$pdata$?value@?$prefix@H@detail@glm@@SAPEBDXZ DD imagerel $LN3
	DD	imagerel $LN3+11
	DD	imagerel $unwind$?value@?$prefix@H@detail@glm@@SAPEBDXZ
pdata	ENDS
;	COMDAT pdata
pdata	SEGMENT
$pdata$?value@?$prefix@_J@detail@glm@@SAPEBDXZ DD imagerel $LN3
	DD	imagerel $LN3+11
	DD	imagerel $unwind$?value@?$prefix@_J@detail@glm@@SAPEBDXZ
pdata	ENDS
pdata	SEGMENT
$pdata$?test_string_cast_vector@@YAHXZ DD imagerel $LN87
	DD	imagerel $LN87+3810
	DD	imagerel $unwind$?test_string_cast_vector@@YAHXZ
pdata	ENDS
pdata	SEGMENT
$pdata$?dtor$0@?0??test_string_cast_vector@@YAHXZ@4HA DD imagerel ?dtor$0@?0??test_string_cast_vector@@YAHXZ@4HA
	DD	imagerel ?dtor$0@?0??test_string_cast_vector@@YAHXZ@4HA+35
	DD	imagerel $unwind$?dtor$0@?0??test_string_cast_vector@@YAHXZ@4HA
$pdata$?dtor$2@?0??test_string_cast_vector@@YAHXZ@4HA DD imagerel ?dtor$2@?0??test_string_cast_vector@@YAHXZ@4HA
	DD	imagerel ?dtor$2@?0??test_string_cast_vector@@YAHXZ@4HA+38
	DD	imagerel $unwind$?dtor$2@?0??test_string_cast_vector@@YAHXZ@4HA
$pdata$?dtor$4@?0??test_string_cast_vector@@YAHXZ@4HA DD imagerel ?dtor$4@?0??test_string_cast_vector@@YAHXZ@4HA
	DD	imagerel ?dtor$4@?0??test_string_cast_vector@@YAHXZ@4HA+38
	DD	imagerel $unwind$?dtor$4@?0??test_string_cast_vector@@YAHXZ@4HA
$pdata$?dtor$6@?0??test_string_cast_vector@@YAHXZ@4HA DD imagerel ?dtor$6@?0??test_string_cast_vector@@YAHXZ@4HA
	DD	imagerel ?dtor$6@?0??test_string_cast_vector@@YAHXZ@4HA+38
	DD	imagerel $unwind$?dtor$6@?0??test_string_cast_vector@@YAHXZ@4HA
$pdata$?dtor$8@?0??test_string_cast_vector@@YAHXZ@4HA DD imagerel ?dtor$8@?0??test_string_cast_vector@@YAHXZ@4HA
	DD	imagerel ?dtor$8@?0??test_string_cast_vector@@YAHXZ@4HA+38
	DD	imagerel $unwind$?dtor$8@?0??test_string_cast_vector@@YAHXZ@4HA
$pdata$?dtor$10@?0??test_string_cast_vector@@YAHXZ@4HA DD imagerel ?dtor$10@?0??test_string_cast_vector@@YAHXZ@4HA
	DD	imagerel ?dtor$10@?0??test_string_cast_vector@@YAHXZ@4HA+38
	DD	imagerel $unwind$?dtor$10@?0??test_string_cast_vector@@YAHXZ@4HA
$pdata$?dtor$12@?0??test_string_cast_vector@@YAHXZ@4HA DD imagerel ?dtor$12@?0??test_string_cast_vector@@YAHXZ@4HA
	DD	imagerel ?dtor$12@?0??test_string_cast_vector@@YAHXZ@4HA+38
	DD	imagerel $unwind$?dtor$12@?0??test_string_cast_vector@@YAHXZ@4HA
$pdata$?dtor$14@?0??test_string_cast_vector@@YAHXZ@4HA DD imagerel ?dtor$14@?0??test_string_cast_vector@@YAHXZ@4HA
	DD	imagerel ?dtor$14@?0??test_string_cast_vector@@YAHXZ@4HA+38
	DD	imagerel $unwind$?dtor$14@?0??test_string_cast_vector@@YAHXZ@4HA
$pdata$?dtor$16@?0??test_string_cast_vector@@YAHXZ@4HA DD imagerel ?dtor$16@?0??test_string_cast_vector@@YAHXZ@4HA
	DD	imagerel ?dtor$16@?0??test_string_cast_vector@@YAHXZ@4HA+38
	DD	imagerel $unwind$?dtor$16@?0??test_string_cast_vector@@YAHXZ@4HA
$pdata$?dtor$18@?0??test_string_cast_vector@@YAHXZ@4HA DD imagerel ?dtor$18@?0??test_string_cast_vector@@YAHXZ@4HA
	DD	imagerel ?dtor$18@?0??test_string_cast_vector@@YAHXZ@4HA+38
	DD	imagerel $unwind$?dtor$18@?0??test_string_cast_vector@@YAHXZ@4HA
$pdata$?dtor$20@?0??test_string_cast_vector@@YAHXZ@4HA DD imagerel ?dtor$20@?0??test_string_cast_vector@@YAHXZ@4HA
	DD	imagerel ?dtor$20@?0??test_string_cast_vector@@YAHXZ@4HA+38
	DD	imagerel $unwind$?dtor$20@?0??test_string_cast_vector@@YAHXZ@4HA
$pdata$?dtor$22@?0??test_string_cast_vector@@YAHXZ@4HA DD imagerel ?dtor$22@?0??test_string_cast_vector@@YAHXZ@4HA
	DD	imagerel ?dtor$22@?0??test_string_cast_vector@@YAHXZ@4HA+38
	DD	imagerel $unwind$?dtor$22@?0??test_string_cast_vector@@YAHXZ@4HA
$pdata$?dtor$24@?0??test_string_cast_vector@@YAHXZ@4HA DD imagerel ?dtor$24@?0??test_string_cast_vector@@YAHXZ@4HA
	DD	imagerel ?dtor$24@?0??test_string_cast_vector@@YAHXZ@4HA+38
	DD	imagerel $unwind$?dtor$24@?0??test_string_cast_vector@@YAHXZ@4HA
$pdata$?dtor$26@?0??test_string_cast_vector@@YAHXZ@4HA DD imagerel ?dtor$26@?0??test_string_cast_vector@@YAHXZ@4HA
	DD	imagerel ?dtor$26@?0??test_string_cast_vector@@YAHXZ@4HA+38
	DD	imagerel $unwind$?dtor$26@?0??test_string_cast_vector@@YAHXZ@4HA
$pdata$?dtor$28@?0??test_string_cast_vector@@YAHXZ@4HA DD imagerel ?dtor$28@?0??test_string_cast_vector@@YAHXZ@4HA
	DD	imagerel ?dtor$28@?0??test_string_cast_vector@@YAHXZ@4HA+38
	DD	imagerel $unwind$?dtor$28@?0??test_string_cast_vector@@YAHXZ@4HA
$pdata$?dtor$30@?0??test_string_cast_vector@@YAHXZ@4HA DD imagerel ?dtor$30@?0??test_string_cast_vector@@YAHXZ@4HA
	DD	imagerel ?dtor$30@?0??test_string_cast_vector@@YAHXZ@4HA+38
	DD	imagerel $unwind$?dtor$30@?0??test_string_cast_vector@@YAHXZ@4HA
$pdata$?dtor$32@?0??test_string_cast_vector@@YAHXZ@4HA DD imagerel ?dtor$32@?0??test_string_cast_vector@@YAHXZ@4HA
	DD	imagerel ?dtor$32@?0??test_string_cast_vector@@YAHXZ@4HA+38
	DD	imagerel $unwind$?dtor$32@?0??test_string_cast_vector@@YAHXZ@4HA
$pdata$?dtor$34@?0??test_string_cast_vector@@YAHXZ@4HA DD imagerel ?dtor$34@?0??test_string_cast_vector@@YAHXZ@4HA
	DD	imagerel ?dtor$34@?0??test_string_cast_vector@@YAHXZ@4HA+38
	DD	imagerel $unwind$?dtor$34@?0??test_string_cast_vector@@YAHXZ@4HA
$pdata$?dtor$36@?0??test_string_cast_vector@@YAHXZ@4HA DD imagerel ?dtor$36@?0??test_string_cast_vector@@YAHXZ@4HA
	DD	imagerel ?dtor$36@?0??test_string_cast_vector@@YAHXZ@4HA+38
	DD	imagerel $unwind$?dtor$36@?0??test_string_cast_vector@@YAHXZ@4HA
$pdata$?dtor$38@?0??test_string_cast_vector@@YAHXZ@4HA DD imagerel ?dtor$38@?0??test_string_cast_vector@@YAHXZ@4HA
	DD	imagerel ?dtor$38@?0??test_string_cast_vector@@YAHXZ@4HA+38
	DD	imagerel $unwind$?dtor$38@?0??test_string_cast_vector@@YAHXZ@4HA
$pdata$?dtor$40@?0??test_string_cast_vector@@YAHXZ@4HA DD imagerel ?dtor$40@?0??test_string_cast_vector@@YAHXZ@4HA
	DD	imagerel ?dtor$40@?0??test_string_cast_vector@@YAHXZ@4HA+38
	DD	imagerel $unwind$?dtor$40@?0??test_string_cast_vector@@YAHXZ@4HA
pdata	ENDS
;	COMDAT pdata
pdata	SEGMENT
$pdata$??$?0HH@?$tvec2@M$0A@@glm@@QEAA@HH@Z DD imagerel $LN3
	DD	imagerel $LN3+53
	DD	imagerel $unwind$??$?0HH@?$tvec2@M$0A@@glm@@QEAA@HH@Z
pdata	ENDS
;	COMDAT pdata
pdata	SEGMENT
$pdata$??$to_string@Utvec2@glm@@M$0A@@glm@@YA?AV?$basic_string@DU?$char_traits@D@std@@V?$allocator@D@2@@std@@AEBU?$tvec2@M$0A@@0@@Z DD imagerel $LN5
	DD	imagerel $LN5+60
	DD	imagerel $unwind$??$to_string@Utvec2@glm@@M$0A@@glm@@YA?AV?$basic_string@DU?$char_traits@D@std@@V?$allocator@D@2@@std@@AEBU?$tvec2@M$0A@@0@@Z
pdata	ENDS
;	COMDAT pdata
pdata	SEGMENT
$pdata$??$?9DU?$char_traits@D@std@@V?$allocator@D@1@@std@@YA_NAEBV?$basic_string@DU?$char_traits@D@std@@V?$allocator@D@2@@0@0@Z DD imagerel $LN5
	DD	imagerel $LN5+66
	DD	imagerel $unwind$??$?9DU?$char_traits@D@std@@V?$allocator@D@1@@std@@YA_NAEBV?$basic_string@DU?$char_traits@D@std@@V?$allocator@D@2@@0@0@Z
pdata	ENDS
;	COMDAT pdata
pdata	SEGMENT
$pdata$?length@?$tvec3@M$0A@@glm@@SAHXZ DD imagerel $LN3
	DD	imagerel $LN3+9
	DD	imagerel $unwind$?length@?$tvec3@M$0A@@glm@@SAHXZ
pdata	ENDS
;	COMDAT pdata
pdata	SEGMENT
$pdata$??A?$tvec3@M$0A@@glm@@QEBAAEBMH@Z DD imagerel $LN5
	DD	imagerel $LN5+80
	DD	imagerel $unwind$??A?$tvec3@M$0A@@glm@@QEBAAEBMH@Z
pdata	ENDS
;	COMDAT pdata
pdata	SEGMENT
$pdata$??$?0HHH@?$tvec3@M$0A@@glm@@QEAA@HHH@Z DD imagerel $LN3
	DD	imagerel $LN3+74
	DD	imagerel $unwind$??$?0HHH@?$tvec3@M$0A@@glm@@QEAA@HHH@Z
pdata	ENDS
;	COMDAT pdata
pdata	SEGMENT
$pdata$??$to_string@Utvec3@glm@@M$0A@@glm@@YA?AV?$basic_string@DU?$char_traits@D@std@@V?$allocator@D@2@@std@@AEBU?$tvec3@M$0A@@0@@Z DD imagerel $LN5
	DD	imagerel $LN5+60
	DD	imagerel $unwind$??$to_string@Utvec3@glm@@M$0A@@glm@@YA?AV?$basic_string@DU?$char_traits@D@std@@V?$allocator@D@2@@std@@AEBU?$tvec3@M$0A@@0@@Z
pdata	ENDS
;	COMDAT pdata
pdata	SEGMENT
$pdata$??$?0HHHH@?$tvec4@M$0A@@glm@@QEAA@HHHH@Z DD imagerel $LN3
	DD	imagerel $LN3+90
	DD	imagerel $unwind$??$?0HHHH@?$tvec4@M$0A@@glm@@QEAA@HHHH@Z
pdata	ENDS
;	COMDAT pdata
pdata	SEGMENT
$pdata$??$to_string@Utvec4@glm@@M$0A@@glm@@YA?AV?$basic_string@DU?$char_traits@D@std@@V?$allocator@D@2@@std@@AEBU?$tvec4@M$0A@@0@@Z DD imagerel $LN5
	DD	imagerel $LN5+60
	DD	imagerel $unwind$??$to_string@Utvec4@glm@@M$0A@@glm@@YA?AV?$basic_string@DU?$char_traits@D@std@@V?$allocator@D@2@@std@@AEBU?$tvec4@M$0A@@0@@Z
pdata	ENDS
;	COMDAT pdata
pdata	SEGMENT
$pdata$?length@?$tvec2@N$0A@@glm@@SAHXZ DD imagerel $LN3
	DD	imagerel $LN3+9
	DD	imagerel $unwind$?length@?$tvec2@N$0A@@glm@@SAHXZ
pdata	ENDS
;	COMDAT pdata
pdata	SEGMENT
$pdata$??A?$tvec2@N$0A@@glm@@QEBAAEBNH@Z DD imagerel $LN5
	DD	imagerel $LN5+80
	DD	imagerel $unwind$??A?$tvec2@N$0A@@glm@@QEBAAEBNH@Z
pdata	ENDS
;	COMDAT pdata
pdata	SEGMENT
$pdata$??$?0HH@?$tvec2@N$0A@@glm@@QEAA@HH@Z DD imagerel $LN3
	DD	imagerel $LN3+53
	DD	imagerel $unwind$??$?0HH@?$tvec2@N$0A@@glm@@QEAA@HH@Z
pdata	ENDS
;	COMDAT pdata
pdata	SEGMENT
$pdata$??$to_string@Utvec2@glm@@N$0A@@glm@@YA?AV?$basic_string@DU?$char_traits@D@std@@V?$allocator@D@2@@std@@AEBU?$tvec2@N$0A@@0@@Z DD imagerel $LN5
	DD	imagerel $LN5+60
	DD	imagerel $unwind$??$to_string@Utvec2@glm@@N$0A@@glm@@YA?AV?$basic_string@DU?$char_traits@D@std@@V?$allocator@D@2@@std@@AEBU?$tvec2@N$0A@@0@@Z
pdata	ENDS
;	COMDAT pdata
pdata	SEGMENT
$pdata$?length@?$tvec3@N$0A@@glm@@SAHXZ DD imagerel $LN3
	DD	imagerel $LN3+9
	DD	imagerel $unwind$?length@?$tvec3@N$0A@@glm@@SAHXZ
pdata	ENDS
;	COMDAT pdata
pdata	SEGMENT
$pdata$??A?$tvec3@N$0A@@glm@@QEBAAEBNH@Z DD imagerel $LN5
	DD	imagerel $LN5+80
	DD	imagerel $unwind$??A?$tvec3@N$0A@@glm@@QEBAAEBNH@Z
pdata	ENDS
;	COMDAT pdata
pdata	SEGMENT
$pdata$??$?0HHH@?$tvec3@N$0A@@glm@@QEAA@HHH@Z DD imagerel $LN3
	DD	imagerel $LN3+74
	DD	imagerel $unwind$??$?0HHH@?$tvec3@N$0A@@glm@@QEAA@HHH@Z
pdata	ENDS
;	COMDAT pdata
pdata	SEGMENT
$pdata$??$to_string@Utvec3@glm@@N$0A@@glm@@YA?AV?$basic_string@DU?$char_traits@D@std@@V?$allocator@D@2@@std@@AEBU?$tvec3@N$0A@@0@@Z DD imagerel $LN5
	DD	imagerel $LN5+60
	DD	imagerel $unwind$??$to_string@Utvec3@glm@@N$0A@@glm@@YA?AV?$basic_string@DU?$char_traits@D@std@@V?$allocator@D@2@@std@@AEBU?$tvec3@N$0A@@0@@Z
pdata	ENDS
;	COMDAT pdata
pdata	SEGMENT
$pdata$?length@?$tvec4@N$0A@@glm@@SAHXZ DD imagerel $LN3
	DD	imagerel $LN3+9
	DD	imagerel $unwind$?length@?$tvec4@N$0A@@glm@@SAHXZ
pdata	ENDS
;	COMDAT pdata
pdata	SEGMENT
$pdata$??A?$tvec4@N$0A@@glm@@QEBAAEBNH@Z DD imagerel $LN5
	DD	imagerel $LN5+80
	DD	imagerel $unwind$??A?$tvec4@N$0A@@glm@@QEBAAEBNH@Z
pdata	ENDS
;	COMDAT pdata
pdata	SEGMENT
$pdata$??$?0HHHH@?$tvec4@N$0A@@glm@@QEAA@HHHH@Z DD imagerel $LN3
	DD	imagerel $LN3+90
	DD	imagerel $unwind$??$?0HHHH@?$tvec4@N$0A@@glm@@QEAA@HHHH@Z
pdata	ENDS
;	COMDAT pdata
pdata	SEGMENT
$pdata$??$to_string@Utvec4@glm@@N$0A@@glm@@YA?AV?$basic_string@DU?$char_traits@D@std@@V?$allocator@D@2@@std@@AEBU?$tvec4@N$0A@@0@@Z DD imagerel $LN5
	DD	imagerel $LN5+60
	DD	imagerel $unwind$??$to_string@Utvec4@glm@@N$0A@@glm@@YA?AV?$basic_string@DU?$char_traits@D@std@@V?$allocator@D@2@@std@@AEBU?$tvec4@N$0A@@0@@Z
pdata	ENDS
;	COMDAT pdata
pdata	SEGMENT
$pdata$?length@?$tvec2@_N$0A@@glm@@SAHXZ DD imagerel $LN3
	DD	imagerel $LN3+9
	DD	imagerel $unwind$?length@?$tvec2@_N$0A@@glm@@SAHXZ
pdata	ENDS
;	COMDAT pdata
pdata	SEGMENT
$pdata$??A?$tvec2@_N$0A@@glm@@QEBAAEB_NH@Z DD imagerel $LN5
	DD	imagerel $LN5+82
	DD	imagerel $unwind$??A?$tvec2@_N$0A@@glm@@QEBAAEB_NH@Z
pdata	ENDS
;	COMDAT pdata
pdata	SEGMENT
$pdata$??0?$tvec2@_N$0A@@glm@@QEAA@_N0@Z DD imagerel $LN3
	DD	imagerel $LN3+47
	DD	imagerel $unwind$??0?$tvec2@_N$0A@@glm@@QEAA@_N0@Z
pdata	ENDS
;	COMDAT pdata
pdata	SEGMENT
$pdata$??$to_string@Utvec2@glm@@_N$0A@@glm@@YA?AV?$basic_string@DU?$char_traits@D@std@@V?$allocator@D@2@@std@@AEBU?$tvec2@_N$0A@@0@@Z DD imagerel $LN5
	DD	imagerel $LN5+60
	DD	imagerel $unwind$??$to_string@Utvec2@glm@@_N$0A@@glm@@YA?AV?$basic_string@DU?$char_traits@D@std@@V?$allocator@D@2@@std@@AEBU?$tvec2@_N$0A@@0@@Z
pdata	ENDS
;	COMDAT pdata
pdata	SEGMENT
$pdata$?length@?$tvec3@_N$0A@@glm@@SAHXZ DD imagerel $LN3
	DD	imagerel $LN3+9
	DD	imagerel $unwind$?length@?$tvec3@_N$0A@@glm@@SAHXZ
pdata	ENDS
;	COMDAT pdata
pdata	SEGMENT
$pdata$??A?$tvec3@_N$0A@@glm@@QEBAAEB_NH@Z DD imagerel $LN5
	DD	imagerel $LN5+82
	DD	imagerel $unwind$??A?$tvec3@_N$0A@@glm@@QEBAAEB_NH@Z
pdata	ENDS
;	COMDAT pdata
pdata	SEGMENT
$pdata$??0?$tvec3@_N$0A@@glm@@QEAA@_N00@Z DD imagerel $LN3
	DD	imagerel $LN3+65
	DD	imagerel $unwind$??0?$tvec3@_N$0A@@glm@@QEAA@_N00@Z
pdata	ENDS
;	COMDAT pdata
pdata	SEGMENT
$pdata$??$to_string@Utvec3@glm@@_N$0A@@glm@@YA?AV?$basic_string@DU?$char_traits@D@std@@V?$allocator@D@2@@std@@AEBU?$tvec3@_N$0A@@0@@Z DD imagerel $LN5
	DD	imagerel $LN5+60
	DD	imagerel $unwind$??$to_string@Utvec3@glm@@_N$0A@@glm@@YA?AV?$basic_string@DU?$char_traits@D@std@@V?$allocator@D@2@@std@@AEBU?$tvec3@_N$0A@@0@@Z
pdata	ENDS
;	COMDAT pdata
pdata	SEGMENT
$pdata$?length@?$tvec4@_N$0A@@glm@@SAHXZ DD imagerel $LN3
	DD	imagerel $LN3+9
	DD	imagerel $unwind$?length@?$tvec4@_N$0A@@glm@@SAHXZ
pdata	ENDS
;	COMDAT pdata
pdata	SEGMENT
$pdata$??A?$tvec4@_N$0A@@glm@@QEBAAEB_NH@Z DD imagerel $LN5
	DD	imagerel $LN5+82
	DD	imagerel $unwind$??A?$tvec4@_N$0A@@glm@@QEBAAEB_NH@Z
pdata	ENDS
;	COMDAT pdata
pdata	SEGMENT
$pdata$??0?$tvec4@_N$0A@@glm@@QEAA@_N000@Z DD imagerel $LN3
	DD	imagerel $LN3+78
	DD	imagerel $unwind$??0?$tvec4@_N$0A@@glm@@QEAA@_N000@Z
pdata	ENDS
;	COMDAT pdata
pdata	SEGMENT
$pdata$??$to_string@Utvec4@glm@@_N$0A@@glm@@YA?AV?$basic_string@DU?$char_traits@D@std@@V?$allocator@D@2@@std@@AEBU?$tvec4@_N$0A@@0@@Z DD imagerel $LN5
	DD	imagerel $LN5+60
	DD	imagerel $unwind$??$to_string@Utvec4@glm@@_N$0A@@glm@@YA?AV?$basic_string@DU?$char_traits@D@std@@V?$allocator@D@2@@std@@AEBU?$tvec4@_N$0A@@0@@Z
pdata	ENDS
;	COMDAT pdata
pdata	SEGMENT
$pdata$?length@?$tvec2@H$0A@@glm@@SAHXZ DD imagerel $LN3
	DD	imagerel $LN3+9
	DD	imagerel $unwind$?length@?$tvec2@H$0A@@glm@@SAHXZ
pdata	ENDS
;	COMDAT pdata
pdata	SEGMENT
$pdata$??A?$tvec2@H$0A@@glm@@QEBAAEBHH@Z DD imagerel $LN5
	DD	imagerel $LN5+80
	DD	imagerel $unwind$??A?$tvec2@H$0A@@glm@@QEBAAEBHH@Z
pdata	ENDS
;	COMDAT pdata
pdata	SEGMENT
$pdata$??0?$tvec2@H$0A@@glm@@QEAA@HH@Z DD imagerel $LN3
	DD	imagerel $LN3+45
	DD	imagerel $unwind$??0?$tvec2@H$0A@@glm@@QEAA@HH@Z
pdata	ENDS
;	COMDAT pdata
pdata	SEGMENT
$pdata$??$to_string@Utvec2@glm@@H$0A@@glm@@YA?AV?$basic_string@DU?$char_traits@D@std@@V?$allocator@D@2@@std@@AEBU?$tvec2@H$0A@@0@@Z DD imagerel $LN5
	DD	imagerel $LN5+60
	DD	imagerel $unwind$??$to_string@Utvec2@glm@@H$0A@@glm@@YA?AV?$basic_string@DU?$char_traits@D@std@@V?$allocator@D@2@@std@@AEBU?$tvec2@H$0A@@0@@Z
pdata	ENDS
;	COMDAT pdata
pdata	SEGMENT
$pdata$?length@?$tvec3@H$0A@@glm@@SAHXZ DD imagerel $LN3
	DD	imagerel $LN3+9
	DD	imagerel $unwind$?length@?$tvec3@H$0A@@glm@@SAHXZ
pdata	ENDS
;	COMDAT pdata
pdata	SEGMENT
$pdata$??A?$tvec3@H$0A@@glm@@QEBAAEBHH@Z DD imagerel $LN5
	DD	imagerel $LN5+80
	DD	imagerel $unwind$??A?$tvec3@H$0A@@glm@@QEBAAEBHH@Z
pdata	ENDS
;	COMDAT pdata
pdata	SEGMENT
$pdata$??0?$tvec3@H$0A@@glm@@QEAA@HHH@Z DD imagerel $LN3
	DD	imagerel $LN3+62
	DD	imagerel $unwind$??0?$tvec3@H$0A@@glm@@QEAA@HHH@Z
pdata	ENDS
;	COMDAT pdata
pdata	SEGMENT
$pdata$??$to_string@Utvec3@glm@@H$0A@@glm@@YA?AV?$basic_string@DU?$char_traits@D@std@@V?$allocator@D@2@@std@@AEBU?$tvec3@H$0A@@0@@Z DD imagerel $LN5
	DD	imagerel $LN5+60
	DD	imagerel $unwind$??$to_string@Utvec3@glm@@H$0A@@glm@@YA?AV?$basic_string@DU?$char_traits@D@std@@V?$allocator@D@2@@std@@AEBU?$tvec3@H$0A@@0@@Z
pdata	ENDS
;	COMDAT pdata
pdata	SEGMENT
$pdata$?length@?$tvec4@H$0A@@glm@@SAHXZ DD imagerel $LN3
	DD	imagerel $LN3+9
	DD	imagerel $unwind$?length@?$tvec4@H$0A@@glm@@SAHXZ
pdata	ENDS
;	COMDAT pdata
pdata	SEGMENT
$pdata$??A?$tvec4@H$0A@@glm@@QEBAAEBHH@Z DD imagerel $LN5
	DD	imagerel $LN5+80
	DD	imagerel $unwind$??A?$tvec4@H$0A@@glm@@QEBAAEBHH@Z
pdata	ENDS
;	COMDAT pdata
pdata	SEGMENT
$pdata$??0?$tvec4@H$0A@@glm@@QEAA@HHHH@Z DD imagerel $LN3
	DD	imagerel $LN3+74
	DD	imagerel $unwind$??0?$tvec4@H$0A@@glm@@QEAA@HHHH@Z
pdata	ENDS
;	COMDAT pdata
pdata	SEGMENT
$pdata$??$to_string@Utvec4@glm@@H$0A@@glm@@YA?AV?$basic_string@DU?$char_traits@D@std@@V?$allocator@D@2@@std@@AEBU?$tvec4@H$0A@@0@@Z DD imagerel $LN5
	DD	imagerel $LN5+60
	DD	imagerel $unwind$??$to_string@Utvec4@glm@@H$0A@@glm@@YA?AV?$basic_string@DU?$char_traits@D@std@@V?$allocator@D@2@@std@@AEBU?$tvec4@H$0A@@0@@Z
pdata	ENDS
;	COMDAT pdata
pdata	SEGMENT
$pdata$?length@?$tvec2@C$0A@@glm@@SAHXZ DD imagerel $LN3
	DD	imagerel $LN3+9
	DD	imagerel $unwind$?length@?$tvec2@C$0A@@glm@@SAHXZ
pdata	ENDS
;	COMDAT pdata
pdata	SEGMENT
$pdata$??A?$tvec2@C$0A@@glm@@QEBAAEBCH@Z DD imagerel $LN5
	DD	imagerel $LN5+82
	DD	imagerel $unwind$??A?$tvec2@C$0A@@glm@@QEBAAEBCH@Z
pdata	ENDS
;	COMDAT pdata
pdata	SEGMENT
$pdata$??$?0HH@?$tvec2@C$0A@@glm@@QEAA@HH@Z DD imagerel $LN3
	DD	imagerel $LN3+47
	DD	imagerel $unwind$??$?0HH@?$tvec2@C$0A@@glm@@QEAA@HH@Z
pdata	ENDS
;	COMDAT pdata
pdata	SEGMENT
$pdata$??$to_string@Utvec2@glm@@C$0A@@glm@@YA?AV?$basic_string@DU?$char_traits@D@std@@V?$allocator@D@2@@std@@AEBU?$tvec2@C$0A@@0@@Z DD imagerel $LN5
	DD	imagerel $LN5+60
	DD	imagerel $unwind$??$to_string@Utvec2@glm@@C$0A@@glm@@YA?AV?$basic_string@DU?$char_traits@D@std@@V?$allocator@D@2@@std@@AEBU?$tvec2@C$0A@@0@@Z
pdata	ENDS
;	COMDAT pdata
pdata	SEGMENT
$pdata$?length@?$tvec3@C$0A@@glm@@SAHXZ DD imagerel $LN3
	DD	imagerel $LN3+9
	DD	imagerel $unwind$?length@?$tvec3@C$0A@@glm@@SAHXZ
pdata	ENDS
;	COMDAT pdata
pdata	SEGMENT
$pdata$??A?$tvec3@C$0A@@glm@@QEBAAEBCH@Z DD imagerel $LN5
	DD	imagerel $LN5+82
	DD	imagerel $unwind$??A?$tvec3@C$0A@@glm@@QEBAAEBCH@Z
pdata	ENDS
;	COMDAT pdata
pdata	SEGMENT
$pdata$??$?0HHH@?$tvec3@C$0A@@glm@@QEAA@HHH@Z DD imagerel $LN3
	DD	imagerel $LN3+65
	DD	imagerel $unwind$??$?0HHH@?$tvec3@C$0A@@glm@@QEAA@HHH@Z
pdata	ENDS
;	COMDAT pdata
pdata	SEGMENT
$pdata$??$to_string@Utvec3@glm@@C$0A@@glm@@YA?AV?$basic_string@DU?$char_traits@D@std@@V?$allocator@D@2@@std@@AEBU?$tvec3@C$0A@@0@@Z DD imagerel $LN5
	DD	imagerel $LN5+60
	DD	imagerel $unwind$??$to_string@Utvec3@glm@@C$0A@@glm@@YA?AV?$basic_string@DU?$char_traits@D@std@@V?$allocator@D@2@@std@@AEBU?$tvec3@C$0A@@0@@Z
pdata	ENDS
;	COMDAT pdata
pdata	SEGMENT
$pdata$??$?0HHHH@?$tvec4@C$0A@@glm@@QEAA@HHHH@Z DD imagerel $LN3
	DD	imagerel $LN3+78
	DD	imagerel $unwind$??$?0HHHH@?$tvec4@C$0A@@glm@@QEAA@HHHH@Z
pdata	ENDS
;	COMDAT pdata
pdata	SEGMENT
$pdata$??$to_string@Utvec4@glm@@C$0A@@glm@@YA?AV?$basic_string@DU?$char_traits@D@std@@V?$allocator@D@2@@std@@AEBU?$tvec4@C$0A@@0@@Z DD imagerel $LN5
	DD	imagerel $LN5+60
	DD	imagerel $unwind$??$to_string@Utvec4@glm@@C$0A@@glm@@YA?AV?$basic_string@DU?$char_traits@D@std@@V?$allocator@D@2@@std@@AEBU?$tvec4@C$0A@@0@@Z
pdata	ENDS
;	COMDAT pdata
pdata	SEGMENT
$pdata$??$?0HH@?$tvec2@F$0A@@glm@@QEAA@HH@Z DD imagerel $LN3
	DD	imagerel $LN3+49
	DD	imagerel $unwind$??$?0HH@?$tvec2@F$0A@@glm@@QEAA@HH@Z
pdata	ENDS
;	COMDAT pdata
pdata	SEGMENT
$pdata$??$to_string@Utvec2@glm@@F$0A@@glm@@YA?AV?$basic_string@DU?$char_traits@D@std@@V?$allocator@D@2@@std@@AEBU?$tvec2@F$0A@@0@@Z DD imagerel $LN5
	DD	imagerel $LN5+60
	DD	imagerel $unwind$??$to_string@Utvec2@glm@@F$0A@@glm@@YA?AV?$basic_string@DU?$char_traits@D@std@@V?$allocator@D@2@@std@@AEBU?$tvec2@F$0A@@0@@Z
pdata	ENDS
;	COMDAT pdata
pdata	SEGMENT
$pdata$?length@?$tvec3@F$0A@@glm@@SAHXZ DD imagerel $LN3
	DD	imagerel $LN3+9
	DD	imagerel $unwind$?length@?$tvec3@F$0A@@glm@@SAHXZ
pdata	ENDS
;	COMDAT pdata
pdata	SEGMENT
$pdata$??A?$tvec3@F$0A@@glm@@QEBAAEBFH@Z DD imagerel $LN5
	DD	imagerel $LN5+80
	DD	imagerel $unwind$??A?$tvec3@F$0A@@glm@@QEBAAEBFH@Z
pdata	ENDS
;	COMDAT pdata
pdata	SEGMENT
$pdata$??$?0HHH@?$tvec3@F$0A@@glm@@QEAA@HHH@Z DD imagerel $LN3
	DD	imagerel $LN3+68
	DD	imagerel $unwind$??$?0HHH@?$tvec3@F$0A@@glm@@QEAA@HHH@Z
pdata	ENDS
;	COMDAT pdata
pdata	SEGMENT
$pdata$??$to_string@Utvec3@glm@@F$0A@@glm@@YA?AV?$basic_string@DU?$char_traits@D@std@@V?$allocator@D@2@@std@@AEBU?$tvec3@F$0A@@0@@Z DD imagerel $LN5
	DD	imagerel $LN5+60
	DD	imagerel $unwind$??$to_string@Utvec3@glm@@F$0A@@glm@@YA?AV?$basic_string@DU?$char_traits@D@std@@V?$allocator@D@2@@std@@AEBU?$tvec3@F$0A@@0@@Z
pdata	ENDS
;	COMDAT pdata
pdata	SEGMENT
$pdata$?length@?$tvec4@F$0A@@glm@@SAHXZ DD imagerel $LN3
	DD	imagerel $LN3+9
	DD	imagerel $unwind$?length@?$tvec4@F$0A@@glm@@SAHXZ
pdata	ENDS
;	COMDAT pdata
pdata	SEGMENT
$pdata$??A?$tvec4@F$0A@@glm@@QEBAAEBFH@Z DD imagerel $LN5
	DD	imagerel $LN5+80
	DD	imagerel $unwind$??A?$tvec4@F$0A@@glm@@QEBAAEBFH@Z
pdata	ENDS
;	COMDAT pdata
pdata	SEGMENT
$pdata$??$?0HHHH@?$tvec4@F$0A@@glm@@QEAA@HHHH@Z DD imagerel $LN3
	DD	imagerel $LN3+82
	DD	imagerel $unwind$??$?0HHHH@?$tvec4@F$0A@@glm@@QEAA@HHHH@Z
pdata	ENDS
;	COMDAT pdata
pdata	SEGMENT
$pdata$??$to_string@Utvec4@glm@@F$0A@@glm@@YA?AV?$basic_string@DU?$char_traits@D@std@@V?$allocator@D@2@@std@@AEBU?$tvec4@F$0A@@0@@Z DD imagerel $LN5
	DD	imagerel $LN5+60
	DD	imagerel $unwind$??$to_string@Utvec4@glm@@F$0A@@glm@@YA?AV?$basic_string@DU?$char_traits@D@std@@V?$allocator@D@2@@std@@AEBU?$tvec4@F$0A@@0@@Z
pdata	ENDS
;	COMDAT pdata
pdata	SEGMENT
$pdata$?length@?$tvec2@_J$0A@@glm@@SAHXZ DD imagerel $LN3
	DD	imagerel $LN3+9
	DD	imagerel $unwind$?length@?$tvec2@_J$0A@@glm@@SAHXZ
pdata	ENDS
;	COMDAT pdata
pdata	SEGMENT
$pdata$??A?$tvec2@_J$0A@@glm@@QEBAAEB_JH@Z DD imagerel $LN5
	DD	imagerel $LN5+80
	DD	imagerel $unwind$??A?$tvec2@_J$0A@@glm@@QEBAAEB_JH@Z
pdata	ENDS
;	COMDAT pdata
pdata	SEGMENT
$pdata$??$?0HH@?$tvec2@_J$0A@@glm@@QEAA@HH@Z DD imagerel $LN3
	DD	imagerel $LN3+49
	DD	imagerel $unwind$??$?0HH@?$tvec2@_J$0A@@glm@@QEAA@HH@Z
pdata	ENDS
;	COMDAT pdata
pdata	SEGMENT
$pdata$??$to_string@Utvec2@glm@@_J$0A@@glm@@YA?AV?$basic_string@DU?$char_traits@D@std@@V?$allocator@D@2@@std@@AEBU?$tvec2@_J$0A@@0@@Z DD imagerel $LN5
	DD	imagerel $LN5+60
	DD	imagerel $unwind$??$to_string@Utvec2@glm@@_J$0A@@glm@@YA?AV?$basic_string@DU?$char_traits@D@std@@V?$allocator@D@2@@std@@AEBU?$tvec2@_J$0A@@0@@Z
pdata	ENDS
;	COMDAT pdata
pdata	SEGMENT
$pdata$?length@?$tvec3@_J$0A@@glm@@SAHXZ DD imagerel $LN3
	DD	imagerel $LN3+9
	DD	imagerel $unwind$?length@?$tvec3@_J$0A@@glm@@SAHXZ
pdata	ENDS
;	COMDAT pdata
pdata	SEGMENT
$pdata$??A?$tvec3@_J$0A@@glm@@QEBAAEB_JH@Z DD imagerel $LN5
	DD	imagerel $LN5+80
	DD	imagerel $unwind$??A?$tvec3@_J$0A@@glm@@QEBAAEB_JH@Z
pdata	ENDS
;	COMDAT pdata
pdata	SEGMENT
$pdata$??$?0HHH@?$tvec3@_J$0A@@glm@@QEAA@HHH@Z DD imagerel $LN3
	DD	imagerel $LN3+68
	DD	imagerel $unwind$??$?0HHH@?$tvec3@_J$0A@@glm@@QEAA@HHH@Z
pdata	ENDS
;	COMDAT pdata
pdata	SEGMENT
$pdata$??$to_string@Utvec3@glm@@_J$0A@@glm@@YA?AV?$basic_string@DU?$char_traits@D@std@@V?$allocator@D@2@@std@@AEBU?$tvec3@_J$0A@@0@@Z DD imagerel $LN5
	DD	imagerel $LN5+60
	DD	imagerel $unwind$??$to_string@Utvec3@glm@@_J$0A@@glm@@YA?AV?$basic_string@DU?$char_traits@D@std@@V?$allocator@D@2@@std@@AEBU?$tvec3@_J$0A@@0@@Z
pdata	ENDS
;	COMDAT pdata
pdata	SEGMENT
$pdata$?length@?$tvec4@_J$0A@@glm@@SAHXZ DD imagerel $LN3
	DD	imagerel $LN3+9
	DD	imagerel $unwind$?length@?$tvec4@_J$0A@@glm@@SAHXZ
pdata	ENDS
;	COMDAT pdata
pdata	SEGMENT
$pdata$??A?$tvec4@_J$0A@@glm@@QEBAAEB_JH@Z DD imagerel $LN5
	DD	imagerel $LN5+80
	DD	imagerel $unwind$??A?$tvec4@_J$0A@@glm@@QEBAAEB_JH@Z
pdata	ENDS
;	COMDAT pdata
pdata	SEGMENT
$pdata$??$?0HHHH@?$tvec4@_J$0A@@glm@@QEAA@HHHH@Z DD imagerel $LN3
	DD	imagerel $LN3+82
	DD	imagerel $unwind$??$?0HHHH@?$tvec4@_J$0A@@glm@@QEAA@HHHH@Z
pdata	ENDS
;	COMDAT pdata
pdata	SEGMENT
$pdata$??$to_string@Utvec4@glm@@_J$0A@@glm@@YA?AV?$basic_string@DU?$char_traits@D@std@@V?$allocator@D@2@@std@@AEBU?$tvec4@_J$0A@@0@@Z DD imagerel $LN5
	DD	imagerel $LN5+60
	DD	imagerel $unwind$??$to_string@Utvec4@glm@@_J$0A@@glm@@YA?AV?$basic_string@DU?$char_traits@D@std@@V?$allocator@D@2@@std@@AEBU?$tvec4@_J$0A@@0@@Z
pdata	ENDS
pdata	SEGMENT
$pdata$?test_string_cast_matrix@@YAHXZ DD imagerel $LN7
	DD	imagerel $LN7+364
	DD	imagerel $unwind$?test_string_cast_matrix@@YAHXZ
pdata	ENDS
pdata	SEGMENT
$pdata$?dtor$0@?0??test_string_cast_matrix@@YAHXZ@4HA DD imagerel ?dtor$0@?0??test_string_cast_matrix@@YAHXZ@4HA
	DD	imagerel ?dtor$0@?0??test_string_cast_matrix@@YAHXZ@4HA+35
	DD	imagerel $unwind$?dtor$0@?0??test_string_cast_matrix@@YAHXZ@4HA
pdata	ENDS
;	COMDAT pdata
pdata	SEGMENT
$pdata$?length@?$tmat2x2@M$0A@@glm@@SAHXZ DD imagerel $LN3
	DD	imagerel $LN3+9
	DD	imagerel $unwind$?length@?$tmat2x2@M$0A@@glm@@SAHXZ
pdata	ENDS
;	COMDAT pdata
pdata	SEGMENT
$pdata$??A?$tmat2x2@M$0A@@glm@@QEBAAEBU?$tvec2@M$0A@@1@H@Z DD imagerel $LN4
	DD	imagerel $LN4+73
	DD	imagerel $unwind$??A?$tmat2x2@M$0A@@glm@@QEBAAEBU?$tvec2@M$0A@@1@H@Z
pdata	ENDS
;	COMDAT pdata
pdata	SEGMENT
$pdata$??$?0NNNN@?$tmat2x2@M$0A@@glm@@QEAA@AEBN000@Z DD imagerel $LN3
	DD	imagerel $LN3+171
	DD	imagerel $unwind$??$?0NNNN@?$tmat2x2@M$0A@@glm@@QEAA@AEBN000@Z
pdata	ENDS
;	COMDAT pdata
pdata	SEGMENT
$pdata$??$to_string@Utmat2x2@glm@@M$0A@@glm@@YA?AV?$basic_string@DU?$char_traits@D@std@@V?$allocator@D@2@@std@@AEBU?$tmat2x2@M$0A@@0@@Z DD imagerel $LN5
	DD	imagerel $LN5+60
	DD	imagerel $unwind$??$to_string@Utmat2x2@glm@@M$0A@@glm@@YA?AV?$basic_string@DU?$char_traits@D@std@@V?$allocator@D@2@@std@@AEBU?$tmat2x2@M$0A@@0@@Z
pdata	ENDS
pdata	SEGMENT
$pdata$main DD	imagerel $LN3
	DD	imagerel $LN3+58
	DD	imagerel $unwind$main
pdata	ENDS
;	COMDAT pdata
pdata	SEGMENT
$pdata$?allocate@?$allocator@U_Container_proxy@std@@@std@@QEAAPEAU_Container_proxy@2@_K@Z DD imagerel $LN3
	DD	imagerel $LN3+39
	DD	imagerel $unwind$?allocate@?$allocator@U_Container_proxy@std@@@std@@QEAAPEAU_Container_proxy@2@_K@Z
pdata	ENDS
;	COMDAT pdata
pdata	SEGMENT
$pdata$??$_Delete_plain_internal@V?$allocator@U_Container_proxy@std@@@std@@@std@@YAXAEAV?$allocator@U_Container_proxy@std@@@0@QEAU_Container_proxy@0@@Z DD imagerel $LN3
	DD	imagerel $LN3+36
	DD	imagerel $unwind$??$_Delete_plain_internal@V?$allocator@U_Container_proxy@std@@@std@@@std@@YAXAEAV?$allocator@U_Container_proxy@std@@@0@QEAU_Container_proxy@0@@Z
pdata	ENDS
;	COMDAT pdata
pdata	SEGMENT
$pdata$??0?$_Container_proxy_ptr12@V?$allocator@U_Container_proxy@std@@@std@@@std@@QEAA@AEAV?$allocator@U_Container_proxy@std@@@1@AEAU_Container_base12@1@@Z DD imagerel $LN3
	DD	imagerel $LN3+135
	DD	imagerel $unwind$??0?$_Container_proxy_ptr12@V?$allocator@U_Container_proxy@std@@@std@@@std@@QEAA@AEAV?$allocator@U_Container_proxy@std@@@1@AEAU_Container_base12@1@@Z
pdata	ENDS
;	COMDAT pdata
pdata	SEGMENT
$pdata$??1?$_Container_proxy_ptr12@V?$allocator@U_Container_proxy@std@@@std@@@std@@QEAA@XZ DD imagerel $LN4
	DD	imagerel $LN4+49
	DD	imagerel $unwind$??1?$_Container_proxy_ptr12@V?$allocator@U_Container_proxy@std@@@std@@@std@@QEAA@XZ
pdata	ENDS
;	COMDAT pdata
pdata	SEGMENT
$pdata$??$_Alloc_proxy@V?$allocator@U_Container_proxy@std@@@std@@@_Container_base12@std@@QEAAX$$QEAV?$allocator@U_Container_proxy@std@@@1@@Z DD imagerel $LN3
	DD	imagerel $LN3+100
	DD	imagerel $unwind$??$_Alloc_proxy@V?$allocator@U_Container_proxy@std@@@std@@@_Container_base12@std@@QEAAX$$QEAV?$allocator@U_Container_proxy@std@@@1@@Z
pdata	ENDS
;	COMDAT pdata
pdata	SEGMENT
$pdata$??$?0D@?$allocator@U_Container_proxy@std@@@std@@QEAA@AEBV?$allocator@D@1@@Z DD imagerel $LN3
	DD	imagerel $LN3+18
	DD	imagerel $unwind$??$?0D@?$allocator@U_Container_proxy@std@@@std@@QEAA@AEBV?$allocator@D@1@@Z
pdata	ENDS
;	COMDAT pdata
pdata	SEGMENT
$pdata$??$?0$$V@?$_Compressed_pair@V?$allocator@D@std@@V?$_String_val@U?$_Simple_types@D@std@@@2@$00@std@@QEAA@U_Zero_then_variadic_args_t@1@@Z DD imagerel $LN3
	DD	imagerel $LN3+48
	DD	imagerel $unwind$??$?0$$V@?$_Compressed_pair@V?$allocator@D@std@@V?$_String_val@U?$_Simple_types@D@std@@@2@$00@std@@QEAA@U_Zero_then_variadic_args_t@1@@Z
pdata	ENDS
;	COMDAT pdata
pdata	SEGMENT
$pdata$??$_Unfancy@U_Container_proxy@std@@@std@@YAPEAU_Container_proxy@0@PEAU10@@Z DD imagerel $LN3
	DD	imagerel $LN3+13
	DD	imagerel $unwind$??$_Unfancy@U_Container_proxy@std@@@std@@YAPEAU_Container_proxy@0@PEAU10@@Z
pdata	ENDS
;	COMDAT pdata
pdata	SEGMENT
$pdata$??$addressof@U_Container_base12@std@@@std@@YAPEAU_Container_base12@0@AEAU10@@Z DD imagerel $LN3
	DD	imagerel $LN3+13
	DD	imagerel $unwind$??$addressof@U_Container_base12@std@@@std@@YAPEAU_Container_base12@0@AEAU10@@Z
pdata	ENDS
;	COMDAT pdata
pdata	SEGMENT
$pdata$??$_Construct_in_place@U_Container_proxy@std@@PEAU_Container_base12@2@@std@@YAXAEAU_Container_proxy@0@$$QEAPEAU_Container_base12@0@@Z DD imagerel $LN3
	DD	imagerel $LN3+80
	DD	imagerel $unwind$??$_Construct_in_place@U_Container_proxy@std@@PEAU_Container_base12@2@@std@@YAXAEAU_Container_proxy@0@$$QEAPEAU_Container_base12@0@@Z
pdata	ENDS
;	COMDAT pdata
pdata	SEGMENT
$pdata$??$_Destroy_in_place@PEAD@std@@YAXAEAPEAD@Z DD imagerel $LN3
	DD	imagerel $LN3+8
	DD	imagerel $unwind$??$_Destroy_in_place@PEAD@std@@YAXAEAPEAD@Z
pdata	ENDS
;	COMDAT pdata
pdata	SEGMENT
$pdata$??$_Convert_size@_K@std@@YA_K_K@Z DD imagerel $LN3
	DD	imagerel $LN3+13
	DD	imagerel $unwind$??$_Convert_size@_K@std@@YA_K_K@Z
pdata	ENDS
;	COMDAT pdata
pdata	SEGMENT
$pdata$??R<lambda_66f57f934f28d61049862f64df852ff0>@@QEBA@QEAD_KQEBD@Z DD imagerel $LN3
	DD	imagerel $LN3+85
	DD	imagerel $unwind$??R<lambda_66f57f934f28d61049862f64df852ff0>@@QEBA@QEAD_KQEBD@Z
pdata	ENDS
;	COMDAT pdata
pdata	SEGMENT
$pdata$??$_Reallocate_for@V<lambda_66f57f934f28d61049862f64df852ff0>@@PEBD@?$basic_string@DU?$char_traits@D@std@@V?$allocator@D@2@@std@@AEAAAEAV01@_KV<lambda_66f57f934f28d61049862f64df852ff0>@@PEBD@Z DD imagerel $LN6
	DD	imagerel $LN6+332
	DD	imagerel $unwind$??$_Reallocate_for@V<lambda_66f57f934f28d61049862f64df852ff0>@@PEBD@?$basic_string@DU?$char_traits@D@std@@V?$allocator@D@2@@std@@AEAAAEAV01@_KV<lambda_66f57f934f28d61049862f64df852ff0>@@PEBD@Z
pdata	ENDS
;	COMDAT pdata
pdata	SEGMENT
$pdata$??$_Unfancy@D@std@@YAPEADPEAD@Z DD imagerel $LN3
	DD	imagerel $LN3+13
	DD	imagerel $unwind$??$_Unfancy@D@std@@YAPEADPEAD@Z
pdata	ENDS
;	COMDAT pdata
pdata	SEGMENT
$pdata$??$max@_K@std@@YAAEB_KAEB_K0@Z DD imagerel $LN5
	DD	imagerel $LN5+74
	DD	imagerel $unwind$??$max@_K@std@@YAAEB_KAEB_K0@Z
pdata	ENDS
;	COMDAT pdata
pdata	SEGMENT
$pdata$??$_Get_size_of_n@$0BA@@std@@YA_K_K@Z DD imagerel $LN4
	DD	imagerel $LN4+64
	DD	imagerel $unwind$??$_Get_size_of_n@$0BA@@std@@YA_K_K@Z
pdata	ENDS
;	COMDAT pdata
pdata	SEGMENT
$pdata$??$_Allocate@$0BA@U_Default_allocate_traits@std@@$0A@@std@@YAPEAX_K@Z DD imagerel $LN5
	DD	imagerel $LN5+61
	DD	imagerel $unwind$??$_Allocate@$0BA@U_Default_allocate_traits@std@@$0A@@std@@YAPEAX_K@Z
pdata	ENDS
;	COMDAT pdata
pdata	SEGMENT
$pdata$??$_Deallocate@$0BA@$0A@@std@@YAXPEAX_K@Z DD imagerel $LN4
	DD	imagerel $LN4+63
	DD	imagerel $unwind$??$_Deallocate@$0BA@$0A@@std@@YAXPEAX_K@Z
pdata	ENDS
;	COMDAT pdata
pdata	SEGMENT
$pdata$?call@?$compute_to_string@Utvec2@glm@@M$0A@@detail@glm@@SA?AV?$basic_string@DU?$char_traits@D@std@@V?$allocator@D@2@@std@@AEBU?$tvec2@M$0A@@3@@Z DD imagerel $LN6
	DD	imagerel $LN6+330
	DD	imagerel $unwind$?call@?$compute_to_string@Utvec2@glm@@M$0A@@detail@glm@@SA?AV?$basic_string@DU?$char_traits@D@std@@V?$allocator@D@2@@std@@AEBU?$tvec2@M$0A@@3@@Z
pdata	ENDS
;	COMDAT pdata
pdata	SEGMENT
$pdata$?dtor$0@?0??call@?$compute_to_string@Utvec2@glm@@M$0A@@detail@glm@@SA?AV?$basic_string@DU?$char_traits@D@std@@V?$allocator@D@2@@std@@AEBU?$tvec2@M$0A@@3@@Z@4HA DD imagerel ?dtor$0@?0??call@?$compute_to_string@Utvec2@glm@@M$0A@@detail@glm@@SA?AV?$basic_string@DU?$char_traits@D@std@@V?$allocator@D@2@@std@@AEBU?$tvec2@M$0A@@3@@Z@4HA
	DD	imagerel ?dtor$0@?0??call@?$compute_to_string@Utvec2@glm@@M$0A@@detail@glm@@SA?AV?$basic_string@DU?$char_traits@D@std@@V?$allocator@D@2@@std@@AEBU?$tvec2@M$0A@@3@@Z@4HA+35
	DD	imagerel $unwind$?dtor$0@?0??call@?$compute_to_string@Utvec2@glm@@M$0A@@detail@glm@@SA?AV?$basic_string@DU?$char_traits@D@std@@V?$allocator@D@2@@std@@AEBU?$tvec2@M$0A@@3@@Z@4HA
pdata	ENDS
;	COMDAT pdata
pdata	SEGMENT
$pdata$??$?8DU?$char_traits@D@std@@V?$allocator@D@1@@std@@YA_NAEBV?$basic_string@DU?$char_traits@D@std@@V?$allocator@D@2@@0@0@Z DD imagerel $LN3
	DD	imagerel $LN3+36
	DD	imagerel $unwind$??$?8DU?$char_traits@D@std@@V?$allocator@D@1@@std@@YA_NAEBV?$basic_string@DU?$char_traits@D@std@@V?$allocator@D@2@@0@0@Z
pdata	ENDS
;	COMDAT pdata
pdata	SEGMENT
$pdata$?call@?$compute_to_string@Utvec3@glm@@M$0A@@detail@glm@@SA?AV?$basic_string@DU?$char_traits@D@std@@V?$allocator@D@2@@std@@AEBU?$tvec3@M$0A@@3@@Z DD imagerel $LN6
	DD	imagerel $LN6+386
	DD	imagerel $unwind$?call@?$compute_to_string@Utvec3@glm@@M$0A@@detail@glm@@SA?AV?$basic_string@DU?$char_traits@D@std@@V?$allocator@D@2@@std@@AEBU?$tvec3@M$0A@@3@@Z
pdata	ENDS
;	COMDAT pdata
pdata	SEGMENT
$pdata$?dtor$0@?0??call@?$compute_to_string@Utvec3@glm@@M$0A@@detail@glm@@SA?AV?$basic_string@DU?$char_traits@D@std@@V?$allocator@D@2@@std@@AEBU?$tvec3@M$0A@@3@@Z@4HA DD imagerel ?dtor$0@?0??call@?$compute_to_string@Utvec3@glm@@M$0A@@detail@glm@@SA?AV?$basic_string@DU?$char_traits@D@std@@V?$allocator@D@2@@std@@AEBU?$tvec3@M$0A@@3@@Z@4HA
	DD	imagerel ?dtor$0@?0??call@?$compute_to_string@Utvec3@glm@@M$0A@@detail@glm@@SA?AV?$basic_string@DU?$char_traits@D@std@@V?$allocator@D@2@@std@@AEBU?$tvec3@M$0A@@3@@Z@4HA+35
	DD	imagerel $unwind$?dtor$0@?0??call@?$compute_to_string@Utvec3@glm@@M$0A@@detail@glm@@SA?AV?$basic_string@DU?$char_traits@D@std@@V?$allocator@D@2@@std@@AEBU?$tvec3@M$0A@@3@@Z@4HA
pdata	ENDS
;	COMDAT pdata
pdata	SEGMENT
$pdata$?call@?$compute_to_string@Utvec4@glm@@M$0A@@detail@glm@@SA?AV?$basic_string@DU?$char_traits@D@std@@V?$allocator@D@2@@std@@AEBU?$tvec4@M$0A@@3@@Z DD imagerel $LN6
	DD	imagerel $LN6+442
	DD	imagerel $unwind$?call@?$compute_to_string@Utvec4@glm@@M$0A@@detail@glm@@SA?AV?$basic_string@DU?$char_traits@D@std@@V?$allocator@D@2@@std@@AEBU?$tvec4@M$0A@@3@@Z
pdata	ENDS
;	COMDAT pdata
pdata	SEGMENT
$pdata$?dtor$0@?0??call@?$compute_to_string@Utvec4@glm@@M$0A@@detail@glm@@SA?AV?$basic_string@DU?$char_traits@D@std@@V?$allocator@D@2@@std@@AEBU?$tvec4@M$0A@@3@@Z@4HA DD imagerel ?dtor$0@?0??call@?$compute_to_string@Utvec4@glm@@M$0A@@detail@glm@@SA?AV?$basic_string@DU?$char_traits@D@std@@V?$allocator@D@2@@std@@AEBU?$tvec4@M$0A@@3@@Z@4HA
	DD	imagerel ?dtor$0@?0??call@?$compute_to_string@Utvec4@glm@@M$0A@@detail@glm@@SA?AV?$basic_string@DU?$char_traits@D@std@@V?$allocator@D@2@@std@@AEBU?$tvec4@M$0A@@3@@Z@4HA+35
	DD	imagerel $unwind$?dtor$0@?0??call@?$compute_to_string@Utvec4@glm@@M$0A@@detail@glm@@SA?AV?$basic_string@DU?$char_traits@D@std@@V?$allocator@D@2@@std@@AEBU?$tvec4@M$0A@@3@@Z@4HA
pdata	ENDS
;	COMDAT pdata
pdata	SEGMENT
$pdata$?call@?$compute_to_string@Utvec2@glm@@N$0A@@detail@glm@@SA?AV?$basic_string@DU?$char_traits@D@std@@V?$allocator@D@2@@std@@AEBU?$tvec2@N$0A@@3@@Z DD imagerel $LN6
	DD	imagerel $LN6+320
	DD	imagerel $unwind$?call@?$compute_to_string@Utvec2@glm@@N$0A@@detail@glm@@SA?AV?$basic_string@DU?$char_traits@D@std@@V?$allocator@D@2@@std@@AEBU?$tvec2@N$0A@@3@@Z
pdata	ENDS
;	COMDAT pdata
pdata	SEGMENT
$pdata$?dtor$0@?0??call@?$compute_to_string@Utvec2@glm@@N$0A@@detail@glm@@SA?AV?$basic_string@DU?$char_traits@D@std@@V?$allocator@D@2@@std@@AEBU?$tvec2@N$0A@@3@@Z@4HA DD imagerel ?dtor$0@?0??call@?$compute_to_string@Utvec2@glm@@N$0A@@detail@glm@@SA?AV?$basic_string@DU?$char_traits@D@std@@V?$allocator@D@2@@std@@AEBU?$tvec2@N$0A@@3@@Z@4HA
	DD	imagerel ?dtor$0@?0??call@?$compute_to_string@Utvec2@glm@@N$0A@@detail@glm@@SA?AV?$basic_string@DU?$char_traits@D@std@@V?$allocator@D@2@@std@@AEBU?$tvec2@N$0A@@3@@Z@4HA+35
	DD	imagerel $unwind$?dtor$0@?0??call@?$compute_to_string@Utvec2@glm@@N$0A@@detail@glm@@SA?AV?$basic_string@DU?$char_traits@D@std@@V?$allocator@D@2@@std@@AEBU?$tvec2@N$0A@@3@@Z@4HA
pdata	ENDS
;	COMDAT pdata
pdata	SEGMENT
$pdata$?call@?$compute_to_string@Utvec3@glm@@N$0A@@detail@glm@@SA?AV?$basic_string@DU?$char_traits@D@std@@V?$allocator@D@2@@std@@AEBU?$tvec3@N$0A@@3@@Z DD imagerel $LN6
	DD	imagerel $LN6+374
	DD	imagerel $unwind$?call@?$compute_to_string@Utvec3@glm@@N$0A@@detail@glm@@SA?AV?$basic_string@DU?$char_traits@D@std@@V?$allocator@D@2@@std@@AEBU?$tvec3@N$0A@@3@@Z
pdata	ENDS
;	COMDAT pdata
pdata	SEGMENT
$pdata$?dtor$0@?0??call@?$compute_to_string@Utvec3@glm@@N$0A@@detail@glm@@SA?AV?$basic_string@DU?$char_traits@D@std@@V?$allocator@D@2@@std@@AEBU?$tvec3@N$0A@@3@@Z@4HA DD imagerel ?dtor$0@?0??call@?$compute_to_string@Utvec3@glm@@N$0A@@detail@glm@@SA?AV?$basic_string@DU?$char_traits@D@std@@V?$allocator@D@2@@std@@AEBU?$tvec3@N$0A@@3@@Z@4HA
	DD	imagerel ?dtor$0@?0??call@?$compute_to_string@Utvec3@glm@@N$0A@@detail@glm@@SA?AV?$basic_string@DU?$char_traits@D@std@@V?$allocator@D@2@@std@@AEBU?$tvec3@N$0A@@3@@Z@4HA+35
	DD	imagerel $unwind$?dtor$0@?0??call@?$compute_to_string@Utvec3@glm@@N$0A@@detail@glm@@SA?AV?$basic_string@DU?$char_traits@D@std@@V?$allocator@D@2@@std@@AEBU?$tvec3@N$0A@@3@@Z@4HA
pdata	ENDS
;	COMDAT pdata
pdata	SEGMENT
$pdata$?call@?$compute_to_string@Utvec4@glm@@N$0A@@detail@glm@@SA?AV?$basic_string@DU?$char_traits@D@std@@V?$allocator@D@2@@std@@AEBU?$tvec4@N$0A@@3@@Z DD imagerel $LN6
	DD	imagerel $LN6+428
	DD	imagerel $unwind$?call@?$compute_to_string@Utvec4@glm@@N$0A@@detail@glm@@SA?AV?$basic_string@DU?$char_traits@D@std@@V?$allocator@D@2@@std@@AEBU?$tvec4@N$0A@@3@@Z
pdata	ENDS
;	COMDAT pdata
pdata	SEGMENT
$pdata$?dtor$0@?0??call@?$compute_to_string@Utvec4@glm@@N$0A@@detail@glm@@SA?AV?$basic_string@DU?$char_traits@D@std@@V?$allocator@D@2@@std@@AEBU?$tvec4@N$0A@@3@@Z@4HA DD imagerel ?dtor$0@?0??call@?$compute_to_string@Utvec4@glm@@N$0A@@detail@glm@@SA?AV?$basic_string@DU?$char_traits@D@std@@V?$allocator@D@2@@std@@AEBU?$tvec4@N$0A@@3@@Z@4HA
	DD	imagerel ?dtor$0@?0??call@?$compute_to_string@Utvec4@glm@@N$0A@@detail@glm@@SA?AV?$basic_string@DU?$char_traits@D@std@@V?$allocator@D@2@@std@@AEBU?$tvec4@N$0A@@3@@Z@4HA+35
	DD	imagerel $unwind$?dtor$0@?0??call@?$compute_to_string@Utvec4@glm@@N$0A@@detail@glm@@SA?AV?$basic_string@DU?$char_traits@D@std@@V?$allocator@D@2@@std@@AEBU?$tvec4@N$0A@@3@@Z@4HA
pdata	ENDS
;	COMDAT pdata
pdata	SEGMENT
$pdata$?call@?$compute_to_string@Utvec2@glm@@_N$0A@@detail@glm@@SA?AV?$basic_string@DU?$char_traits@D@std@@V?$allocator@D@2@@std@@AEBU?$tvec2@_N$0A@@3@@Z DD imagerel $LN9
	DD	imagerel $LN9+165
	DD	imagerel $unwind$?call@?$compute_to_string@Utvec2@glm@@_N$0A@@detail@glm@@SA?AV?$basic_string@DU?$char_traits@D@std@@V?$allocator@D@2@@std@@AEBU?$tvec2@_N$0A@@3@@Z
pdata	ENDS
;	COMDAT pdata
pdata	SEGMENT
$pdata$?call@?$compute_to_string@Utvec3@glm@@_N$0A@@detail@glm@@SA?AV?$basic_string@DU?$char_traits@D@std@@V?$allocator@D@2@@std@@AEBU?$tvec3@_N$0A@@3@@Z DD imagerel $LN11
	DD	imagerel $LN11+223
	DD	imagerel $unwind$?call@?$compute_to_string@Utvec3@glm@@_N$0A@@detail@glm@@SA?AV?$basic_string@DU?$char_traits@D@std@@V?$allocator@D@2@@std@@AEBU?$tvec3@_N$0A@@3@@Z
pdata	ENDS
;	COMDAT pdata
pdata	SEGMENT
$pdata$?call@?$compute_to_string@Utvec4@glm@@_N$0A@@detail@glm@@SA?AV?$basic_string@DU?$char_traits@D@std@@V?$allocator@D@2@@std@@AEBU?$tvec4@_N$0A@@3@@Z DD imagerel $LN13
	DD	imagerel $LN13+281
	DD	imagerel $unwind$?call@?$compute_to_string@Utvec4@glm@@_N$0A@@detail@glm@@SA?AV?$basic_string@DU?$char_traits@D@std@@V?$allocator@D@2@@std@@AEBU?$tvec4@_N$0A@@3@@Z
pdata	ENDS
;	COMDAT pdata
pdata	SEGMENT
$pdata$?call@?$compute_to_string@Utvec2@glm@@H$0A@@detail@glm@@SA?AV?$basic_string@DU?$char_traits@D@std@@V?$allocator@D@2@@std@@AEBU?$tvec2@H$0A@@3@@Z DD imagerel $LN6
	DD	imagerel $LN6+308
	DD	imagerel $unwind$?call@?$compute_to_string@Utvec2@glm@@H$0A@@detail@glm@@SA?AV?$basic_string@DU?$char_traits@D@std@@V?$allocator@D@2@@std@@AEBU?$tvec2@H$0A@@3@@Z
pdata	ENDS
;	COMDAT pdata
pdata	SEGMENT
$pdata$?dtor$0@?0??call@?$compute_to_string@Utvec2@glm@@H$0A@@detail@glm@@SA?AV?$basic_string@DU?$char_traits@D@std@@V?$allocator@D@2@@std@@AEBU?$tvec2@H$0A@@3@@Z@4HA DD imagerel ?dtor$0@?0??call@?$compute_to_string@Utvec2@glm@@H$0A@@detail@glm@@SA?AV?$basic_string@DU?$char_traits@D@std@@V?$allocator@D@2@@std@@AEBU?$tvec2@H$0A@@3@@Z@4HA
	DD	imagerel ?dtor$0@?0??call@?$compute_to_string@Utvec2@glm@@H$0A@@detail@glm@@SA?AV?$basic_string@DU?$char_traits@D@std@@V?$allocator@D@2@@std@@AEBU?$tvec2@H$0A@@3@@Z@4HA+35
	DD	imagerel $unwind$?dtor$0@?0??call@?$compute_to_string@Utvec2@glm@@H$0A@@detail@glm@@SA?AV?$basic_string@DU?$char_traits@D@std@@V?$allocator@D@2@@std@@AEBU?$tvec2@H$0A@@3@@Z@4HA
pdata	ENDS
;	COMDAT pdata
pdata	SEGMENT
$pdata$?call@?$compute_to_string@Utvec3@glm@@H$0A@@detail@glm@@SA?AV?$basic_string@DU?$char_traits@D@std@@V?$allocator@D@2@@std@@AEBU?$tvec3@H$0A@@3@@Z DD imagerel $LN6
	DD	imagerel $LN6+358
	DD	imagerel $unwind$?call@?$compute_to_string@Utvec3@glm@@H$0A@@detail@glm@@SA?AV?$basic_string@DU?$char_traits@D@std@@V?$allocator@D@2@@std@@AEBU?$tvec3@H$0A@@3@@Z
pdata	ENDS
;	COMDAT pdata
pdata	SEGMENT
$pdata$?dtor$0@?0??call@?$compute_to_string@Utvec3@glm@@H$0A@@detail@glm@@SA?AV?$basic_string@DU?$char_traits@D@std@@V?$allocator@D@2@@std@@AEBU?$tvec3@H$0A@@3@@Z@4HA DD imagerel ?dtor$0@?0??call@?$compute_to_string@Utvec3@glm@@H$0A@@detail@glm@@SA?AV?$basic_string@DU?$char_traits@D@std@@V?$allocator@D@2@@std@@AEBU?$tvec3@H$0A@@3@@Z@4HA
	DD	imagerel ?dtor$0@?0??call@?$compute_to_string@Utvec3@glm@@H$0A@@detail@glm@@SA?AV?$basic_string@DU?$char_traits@D@std@@V?$allocator@D@2@@std@@AEBU?$tvec3@H$0A@@3@@Z@4HA+35
	DD	imagerel $unwind$?dtor$0@?0??call@?$compute_to_string@Utvec3@glm@@H$0A@@detail@glm@@SA?AV?$basic_string@DU?$char_traits@D@std@@V?$allocator@D@2@@std@@AEBU?$tvec3@H$0A@@3@@Z@4HA
pdata	ENDS
;	COMDAT pdata
pdata	SEGMENT
$pdata$?call@?$compute_to_string@Utvec4@glm@@H$0A@@detail@glm@@SA?AV?$basic_string@DU?$char_traits@D@std@@V?$allocator@D@2@@std@@AEBU?$tvec4@H$0A@@3@@Z DD imagerel $LN6
	DD	imagerel $LN6+408
	DD	imagerel $unwind$?call@?$compute_to_string@Utvec4@glm@@H$0A@@detail@glm@@SA?AV?$basic_string@DU?$char_traits@D@std@@V?$allocator@D@2@@std@@AEBU?$tvec4@H$0A@@3@@Z
pdata	ENDS
;	COMDAT pdata
pdata	SEGMENT
$pdata$?dtor$0@?0??call@?$compute_to_string@Utvec4@glm@@H$0A@@detail@glm@@SA?AV?$basic_string@DU?$char_traits@D@std@@V?$allocator@D@2@@std@@AEBU?$tvec4@H$0A@@3@@Z@4HA DD imagerel ?dtor$0@?0??call@?$compute_to_string@Utvec4@glm@@H$0A@@detail@glm@@SA?AV?$basic_string@DU?$char_traits@D@std@@V?$allocator@D@2@@std@@AEBU?$tvec4@H$0A@@3@@Z@4HA
	DD	imagerel ?dtor$0@?0??call@?$compute_to_string@Utvec4@glm@@H$0A@@detail@glm@@SA?AV?$basic_string@DU?$char_traits@D@std@@V?$allocator@D@2@@std@@AEBU?$tvec4@H$0A@@3@@Z@4HA+35
	DD	imagerel $unwind$?dtor$0@?0??call@?$compute_to_string@Utvec4@glm@@H$0A@@detail@glm@@SA?AV?$basic_string@DU?$char_traits@D@std@@V?$allocator@D@2@@std@@AEBU?$tvec4@H$0A@@3@@Z@4HA
pdata	ENDS
;	COMDAT pdata
pdata	SEGMENT
$pdata$?call@?$compute_to_string@Utvec2@glm@@C$0A@@detail@glm@@SA?AV?$basic_string@DU?$char_traits@D@std@@V?$allocator@D@2@@std@@AEBU?$tvec2@C$0A@@3@@Z DD imagerel $LN6
	DD	imagerel $LN6+310
	DD	imagerel $unwind$?call@?$compute_to_string@Utvec2@glm@@C$0A@@detail@glm@@SA?AV?$basic_string@DU?$char_traits@D@std@@V?$allocator@D@2@@std@@AEBU?$tvec2@C$0A@@3@@Z
pdata	ENDS
;	COMDAT pdata
pdata	SEGMENT
$pdata$?dtor$0@?0??call@?$compute_to_string@Utvec2@glm@@C$0A@@detail@glm@@SA?AV?$basic_string@DU?$char_traits@D@std@@V?$allocator@D@2@@std@@AEBU?$tvec2@C$0A@@3@@Z@4HA DD imagerel ?dtor$0@?0??call@?$compute_to_string@Utvec2@glm@@C$0A@@detail@glm@@SA?AV?$basic_string@DU?$char_traits@D@std@@V?$allocator@D@2@@std@@AEBU?$tvec2@C$0A@@3@@Z@4HA
	DD	imagerel ?dtor$0@?0??call@?$compute_to_string@Utvec2@glm@@C$0A@@detail@glm@@SA?AV?$basic_string@DU?$char_traits@D@std@@V?$allocator@D@2@@std@@AEBU?$tvec2@C$0A@@3@@Z@4HA+35
	DD	imagerel $unwind$?dtor$0@?0??call@?$compute_to_string@Utvec2@glm@@C$0A@@detail@glm@@SA?AV?$basic_string@DU?$char_traits@D@std@@V?$allocator@D@2@@std@@AEBU?$tvec2@C$0A@@3@@Z@4HA
pdata	ENDS
;	COMDAT pdata
pdata	SEGMENT
$pdata$?call@?$compute_to_string@Utvec3@glm@@C$0A@@detail@glm@@SA?AV?$basic_string@DU?$char_traits@D@std@@V?$allocator@D@2@@std@@AEBU?$tvec3@C$0A@@3@@Z DD imagerel $LN6
	DD	imagerel $LN6+359
	DD	imagerel $unwind$?call@?$compute_to_string@Utvec3@glm@@C$0A@@detail@glm@@SA?AV?$basic_string@DU?$char_traits@D@std@@V?$allocator@D@2@@std@@AEBU?$tvec3@C$0A@@3@@Z
pdata	ENDS
;	COMDAT pdata
pdata	SEGMENT
$pdata$?dtor$0@?0??call@?$compute_to_string@Utvec3@glm@@C$0A@@detail@glm@@SA?AV?$basic_string@DU?$char_traits@D@std@@V?$allocator@D@2@@std@@AEBU?$tvec3@C$0A@@3@@Z@4HA DD imagerel ?dtor$0@?0??call@?$compute_to_string@Utvec3@glm@@C$0A@@detail@glm@@SA?AV?$basic_string@DU?$char_traits@D@std@@V?$allocator@D@2@@std@@AEBU?$tvec3@C$0A@@3@@Z@4HA
	DD	imagerel ?dtor$0@?0??call@?$compute_to_string@Utvec3@glm@@C$0A@@detail@glm@@SA?AV?$basic_string@DU?$char_traits@D@std@@V?$allocator@D@2@@std@@AEBU?$tvec3@C$0A@@3@@Z@4HA+35
	DD	imagerel $unwind$?dtor$0@?0??call@?$compute_to_string@Utvec3@glm@@C$0A@@detail@glm@@SA?AV?$basic_string@DU?$char_traits@D@std@@V?$allocator@D@2@@std@@AEBU?$tvec3@C$0A@@3@@Z@4HA
pdata	ENDS
;	COMDAT pdata
pdata	SEGMENT
$pdata$?call@?$compute_to_string@Utvec4@glm@@C$0A@@detail@glm@@SA?AV?$basic_string@DU?$char_traits@D@std@@V?$allocator@D@2@@std@@AEBU?$tvec4@C$0A@@3@@Z DD imagerel $LN6
	DD	imagerel $LN6+408
	DD	imagerel $unwind$?call@?$compute_to_string@Utvec4@glm@@C$0A@@detail@glm@@SA?AV?$basic_string@DU?$char_traits@D@std@@V?$allocator@D@2@@std@@AEBU?$tvec4@C$0A@@3@@Z
pdata	ENDS
;	COMDAT pdata
pdata	SEGMENT
$pdata$?dtor$0@?0??call@?$compute_to_string@Utvec4@glm@@C$0A@@detail@glm@@SA?AV?$basic_string@DU?$char_traits@D@std@@V?$allocator@D@2@@std@@AEBU?$tvec4@C$0A@@3@@Z@4HA DD imagerel ?dtor$0@?0??call@?$compute_to_string@Utvec4@glm@@C$0A@@detail@glm@@SA?AV?$basic_string@DU?$char_traits@D@std@@V?$allocator@D@2@@std@@AEBU?$tvec4@C$0A@@3@@Z@4HA
	DD	imagerel ?dtor$0@?0??call@?$compute_to_string@Utvec4@glm@@C$0A@@detail@glm@@SA?AV?$basic_string@DU?$char_traits@D@std@@V?$allocator@D@2@@std@@AEBU?$tvec4@C$0A@@3@@Z@4HA+35
	DD	imagerel $unwind$?dtor$0@?0??call@?$compute_to_string@Utvec4@glm@@C$0A@@detail@glm@@SA?AV?$basic_string@DU?$char_traits@D@std@@V?$allocator@D@2@@std@@AEBU?$tvec4@C$0A@@3@@Z@4HA
pdata	ENDS
;	COMDAT pdata
pdata	SEGMENT
$pdata$?call@?$compute_to_string@Utvec2@glm@@F$0A@@detail@glm@@SA?AV?$basic_string@DU?$char_traits@D@std@@V?$allocator@D@2@@std@@AEBU?$tvec2@F$0A@@3@@Z DD imagerel $LN6
	DD	imagerel $LN6+310
	DD	imagerel $unwind$?call@?$compute_to_string@Utvec2@glm@@F$0A@@detail@glm@@SA?AV?$basic_string@DU?$char_traits@D@std@@V?$allocator@D@2@@std@@AEBU?$tvec2@F$0A@@3@@Z
pdata	ENDS
;	COMDAT pdata
pdata	SEGMENT
$pdata$?dtor$0@?0??call@?$compute_to_string@Utvec2@glm@@F$0A@@detail@glm@@SA?AV?$basic_string@DU?$char_traits@D@std@@V?$allocator@D@2@@std@@AEBU?$tvec2@F$0A@@3@@Z@4HA DD imagerel ?dtor$0@?0??call@?$compute_to_string@Utvec2@glm@@F$0A@@detail@glm@@SA?AV?$basic_string@DU?$char_traits@D@std@@V?$allocator@D@2@@std@@AEBU?$tvec2@F$0A@@3@@Z@4HA
	DD	imagerel ?dtor$0@?0??call@?$compute_to_string@Utvec2@glm@@F$0A@@detail@glm@@SA?AV?$basic_string@DU?$char_traits@D@std@@V?$allocator@D@2@@std@@AEBU?$tvec2@F$0A@@3@@Z@4HA+35
	DD	imagerel $unwind$?dtor$0@?0??call@?$compute_to_string@Utvec2@glm@@F$0A@@detail@glm@@SA?AV?$basic_string@DU?$char_traits@D@std@@V?$allocator@D@2@@std@@AEBU?$tvec2@F$0A@@3@@Z@4HA
pdata	ENDS
;	COMDAT pdata
pdata	SEGMENT
$pdata$?call@?$compute_to_string@Utvec3@glm@@F$0A@@detail@glm@@SA?AV?$basic_string@DU?$char_traits@D@std@@V?$allocator@D@2@@std@@AEBU?$tvec3@F$0A@@3@@Z DD imagerel $LN6
	DD	imagerel $LN6+359
	DD	imagerel $unwind$?call@?$compute_to_string@Utvec3@glm@@F$0A@@detail@glm@@SA?AV?$basic_string@DU?$char_traits@D@std@@V?$allocator@D@2@@std@@AEBU?$tvec3@F$0A@@3@@Z
pdata	ENDS
;	COMDAT pdata
pdata	SEGMENT
$pdata$?dtor$0@?0??call@?$compute_to_string@Utvec3@glm@@F$0A@@detail@glm@@SA?AV?$basic_string@DU?$char_traits@D@std@@V?$allocator@D@2@@std@@AEBU?$tvec3@F$0A@@3@@Z@4HA DD imagerel ?dtor$0@?0??call@?$compute_to_string@Utvec3@glm@@F$0A@@detail@glm@@SA?AV?$basic_string@DU?$char_traits@D@std@@V?$allocator@D@2@@std@@AEBU?$tvec3@F$0A@@3@@Z@4HA
	DD	imagerel ?dtor$0@?0??call@?$compute_to_string@Utvec3@glm@@F$0A@@detail@glm@@SA?AV?$basic_string@DU?$char_traits@D@std@@V?$allocator@D@2@@std@@AEBU?$tvec3@F$0A@@3@@Z@4HA+35
	DD	imagerel $unwind$?dtor$0@?0??call@?$compute_to_string@Utvec3@glm@@F$0A@@detail@glm@@SA?AV?$basic_string@DU?$char_traits@D@std@@V?$allocator@D@2@@std@@AEBU?$tvec3@F$0A@@3@@Z@4HA
pdata	ENDS
;	COMDAT pdata
pdata	SEGMENT
$pdata$?call@?$compute_to_string@Utvec4@glm@@F$0A@@detail@glm@@SA?AV?$basic_string@DU?$char_traits@D@std@@V?$allocator@D@2@@std@@AEBU?$tvec4@F$0A@@3@@Z DD imagerel $LN6
	DD	imagerel $LN6+408
	DD	imagerel $unwind$?call@?$compute_to_string@Utvec4@glm@@F$0A@@detail@glm@@SA?AV?$basic_string@DU?$char_traits@D@std@@V?$allocator@D@2@@std@@AEBU?$tvec4@F$0A@@3@@Z
pdata	ENDS
;	COMDAT pdata
pdata	SEGMENT
$pdata$?dtor$0@?0??call@?$compute_to_string@Utvec4@glm@@F$0A@@detail@glm@@SA?AV?$basic_string@DU?$char_traits@D@std@@V?$allocator@D@2@@std@@AEBU?$tvec4@F$0A@@3@@Z@4HA DD imagerel ?dtor$0@?0??call@?$compute_to_string@Utvec4@glm@@F$0A@@detail@glm@@SA?AV?$basic_string@DU?$char_traits@D@std@@V?$allocator@D@2@@std@@AEBU?$tvec4@F$0A@@3@@Z@4HA
	DD	imagerel ?dtor$0@?0??call@?$compute_to_string@Utvec4@glm@@F$0A@@detail@glm@@SA?AV?$basic_string@DU?$char_traits@D@std@@V?$allocator@D@2@@std@@AEBU?$tvec4@F$0A@@3@@Z@4HA+35
	DD	imagerel $unwind$?dtor$0@?0??call@?$compute_to_string@Utvec4@glm@@F$0A@@detail@glm@@SA?AV?$basic_string@DU?$char_traits@D@std@@V?$allocator@D@2@@std@@AEBU?$tvec4@F$0A@@3@@Z@4HA
pdata	ENDS
;	COMDAT pdata
pdata	SEGMENT
$pdata$?call@?$compute_to_string@Utvec2@glm@@_J$0A@@detail@glm@@SA?AV?$basic_string@DU?$char_traits@D@std@@V?$allocator@D@2@@std@@AEBU?$tvec2@_J$0A@@3@@Z DD imagerel $LN6
	DD	imagerel $LN6+308
	DD	imagerel $unwind$?call@?$compute_to_string@Utvec2@glm@@_J$0A@@detail@glm@@SA?AV?$basic_string@DU?$char_traits@D@std@@V?$allocator@D@2@@std@@AEBU?$tvec2@_J$0A@@3@@Z
pdata	ENDS
;	COMDAT pdata
pdata	SEGMENT
$pdata$?dtor$0@?0??call@?$compute_to_string@Utvec2@glm@@_J$0A@@detail@glm@@SA?AV?$basic_string@DU?$char_traits@D@std@@V?$allocator@D@2@@std@@AEBU?$tvec2@_J$0A@@3@@Z@4HA DD imagerel ?dtor$0@?0??call@?$compute_to_string@Utvec2@glm@@_J$0A@@detail@glm@@SA?AV?$basic_string@DU?$char_traits@D@std@@V?$allocator@D@2@@std@@AEBU?$tvec2@_J$0A@@3@@Z@4HA
	DD	imagerel ?dtor$0@?0??call@?$compute_to_string@Utvec2@glm@@_J$0A@@detail@glm@@SA?AV?$basic_string@DU?$char_traits@D@std@@V?$allocator@D@2@@std@@AEBU?$tvec2@_J$0A@@3@@Z@4HA+35
	DD	imagerel $unwind$?dtor$0@?0??call@?$compute_to_string@Utvec2@glm@@_J$0A@@detail@glm@@SA?AV?$basic_string@DU?$char_traits@D@std@@V?$allocator@D@2@@std@@AEBU?$tvec2@_J$0A@@3@@Z@4HA
pdata	ENDS
;	COMDAT pdata
pdata	SEGMENT
$pdata$?call@?$compute_to_string@Utvec3@glm@@_J$0A@@detail@glm@@SA?AV?$basic_string@DU?$char_traits@D@std@@V?$allocator@D@2@@std@@AEBU?$tvec3@_J$0A@@3@@Z DD imagerel $LN6
	DD	imagerel $LN6+360
	DD	imagerel $unwind$?call@?$compute_to_string@Utvec3@glm@@_J$0A@@detail@glm@@SA?AV?$basic_string@DU?$char_traits@D@std@@V?$allocator@D@2@@std@@AEBU?$tvec3@_J$0A@@3@@Z
pdata	ENDS
;	COMDAT pdata
pdata	SEGMENT
$pdata$?dtor$0@?0??call@?$compute_to_string@Utvec3@glm@@_J$0A@@detail@glm@@SA?AV?$basic_string@DU?$char_traits@D@std@@V?$allocator@D@2@@std@@AEBU?$tvec3@_J$0A@@3@@Z@4HA DD imagerel ?dtor$0@?0??call@?$compute_to_string@Utvec3@glm@@_J$0A@@detail@glm@@SA?AV?$basic_string@DU?$char_traits@D@std@@V?$allocator@D@2@@std@@AEBU?$tvec3@_J$0A@@3@@Z@4HA
	DD	imagerel ?dtor$0@?0??call@?$compute_to_string@Utvec3@glm@@_J$0A@@detail@glm@@SA?AV?$basic_string@DU?$char_traits@D@std@@V?$allocator@D@2@@std@@AEBU?$tvec3@_J$0A@@3@@Z@4HA+35
	DD	imagerel $unwind$?dtor$0@?0??call@?$compute_to_string@Utvec3@glm@@_J$0A@@detail@glm@@SA?AV?$basic_string@DU?$char_traits@D@std@@V?$allocator@D@2@@std@@AEBU?$tvec3@_J$0A@@3@@Z@4HA
pdata	ENDS
;	COMDAT pdata
pdata	SEGMENT
$pdata$?call@?$compute_to_string@Utvec4@glm@@_J$0A@@detail@glm@@SA?AV?$basic_string@DU?$char_traits@D@std@@V?$allocator@D@2@@std@@AEBU?$tvec4@_J$0A@@3@@Z DD imagerel $LN6
	DD	imagerel $LN6+412
	DD	imagerel $unwind$?call@?$compute_to_string@Utvec4@glm@@_J$0A@@detail@glm@@SA?AV?$basic_string@DU?$char_traits@D@std@@V?$allocator@D@2@@std@@AEBU?$tvec4@_J$0A@@3@@Z
pdata	ENDS
;	COMDAT pdata
pdata	SEGMENT
$pdata$?dtor$0@?0??call@?$compute_to_string@Utvec4@glm@@_J$0A@@detail@glm@@SA?AV?$basic_string@DU?$char_traits@D@std@@V?$allocator@D@2@@std@@AEBU?$tvec4@_J$0A@@3@@Z@4HA DD imagerel ?dtor$0@?0??call@?$compute_to_string@Utvec4@glm@@_J$0A@@detail@glm@@SA?AV?$basic_string@DU?$char_traits@D@std@@V?$allocator@D@2@@std@@AEBU?$tvec4@_J$0A@@3@@Z@4HA
	DD	imagerel ?dtor$0@?0??call@?$compute_to_string@Utvec4@glm@@_J$0A@@detail@glm@@SA?AV?$basic_string@DU?$char_traits@D@std@@V?$allocator@D@2@@std@@AEBU?$tvec4@_J$0A@@3@@Z@4HA+35
	DD	imagerel $unwind$?dtor$0@?0??call@?$compute_to_string@Utvec4@glm@@_J$0A@@detail@glm@@SA?AV?$basic_string@DU?$char_traits@D@std@@V?$allocator@D@2@@std@@AEBU?$tvec4@_J$0A@@3@@Z@4HA
pdata	ENDS
;	COMDAT pdata
pdata	SEGMENT
$pdata$?call@?$compute_to_string@Utmat2x2@glm@@M$0A@@detail@glm@@SA?AV?$basic_string@DU?$char_traits@D@std@@V?$allocator@D@2@@std@@AEBU?$tmat2x2@M$0A@@3@@Z DD imagerel $LN6
	DD	imagerel $LN6+485
	DD	imagerel $unwind$?call@?$compute_to_string@Utmat2x2@glm@@M$0A@@detail@glm@@SA?AV?$basic_string@DU?$char_traits@D@std@@V?$allocator@D@2@@std@@AEBU?$tmat2x2@M$0A@@3@@Z
pdata	ENDS
;	COMDAT pdata
pdata	SEGMENT
$pdata$?dtor$0@?0??call@?$compute_to_string@Utmat2x2@glm@@M$0A@@detail@glm@@SA?AV?$basic_string@DU?$char_traits@D@std@@V?$allocator@D@2@@std@@AEBU?$tmat2x2@M$0A@@3@@Z@4HA DD imagerel ?dtor$0@?0??call@?$compute_to_string@Utmat2x2@glm@@M$0A@@detail@glm@@SA?AV?$basic_string@DU?$char_traits@D@std@@V?$allocator@D@2@@std@@AEBU?$tmat2x2@M$0A@@3@@Z@4HA
	DD	imagerel ?dtor$0@?0??call@?$compute_to_string@Utmat2x2@glm@@M$0A@@detail@glm@@SA?AV?$basic_string@DU?$char_traits@D@std@@V?$allocator@D@2@@std@@AEBU?$tmat2x2@M$0A@@3@@Z@4HA+35
	DD	imagerel $unwind$?dtor$0@?0??call@?$compute_to_string@Utmat2x2@glm@@M$0A@@detail@glm@@SA?AV?$basic_string@DU?$char_traits@D@std@@V?$allocator@D@2@@std@@AEBU?$tmat2x2@M$0A@@3@@Z@4HA
pdata	ENDS
;	COMDAT pdata
pdata	SEGMENT
$pdata$??$_Deallocate_plain@V?$allocator@U_Container_proxy@std@@@std@@@std@@YAXAEAV?$allocator@U_Container_proxy@std@@@0@QEAU_Container_proxy@0@@Z DD imagerel $LN3
	DD	imagerel $LN3+43
	DD	imagerel $unwind$??$_Deallocate_plain@V?$allocator@U_Container_proxy@std@@@std@@@std@@YAXAEAV?$allocator@U_Container_proxy@std@@@0@QEAU_Container_proxy@0@@Z
pdata	ENDS
;	COMDAT pdata
pdata	SEGMENT
$pdata$??$addressof@U_Container_proxy@std@@@std@@YAPEAU_Container_proxy@0@AEAU10@@Z DD imagerel $LN3
	DD	imagerel $LN3+13
	DD	imagerel $unwind$??$addressof@U_Container_proxy@std@@@std@@YAPEAU_Container_proxy@0@AEAU10@@Z
pdata	ENDS
;	COMDAT pdata
pdata	SEGMENT
$pdata$??$_Voidify_iter@PEAU_Container_proxy@std@@@std@@YAPEAXPEAU_Container_proxy@0@@Z DD imagerel $LN3
	DD	imagerel $LN3+13
	DD	imagerel $unwind$??$_Voidify_iter@PEAU_Container_proxy@std@@@std@@YAPEAXPEAU_Container_proxy@0@@Z
pdata	ENDS
;	COMDAT pdata
pdata	SEGMENT
$pdata$??$forward@PEAU_Container_base12@std@@@std@@YA$$QEAPEAU_Container_base12@0@AEAPEAU10@@Z DD imagerel $LN3
	DD	imagerel $LN3+13
	DD	imagerel $unwind$??$forward@PEAU_Container_base12@std@@@std@@YA$$QEAPEAU_Container_base12@0@AEAPEAU10@@Z
pdata	ENDS
;	COMDAT pdata
pdata	SEGMENT
$pdata$??$_Construct_in_place@PEADAEBQEAD@std@@YAXAEAPEADAEBQEAD@Z DD imagerel $LN3
	DD	imagerel $LN3+78
	DD	imagerel $unwind$??$_Construct_in_place@PEADAEBQEAD@std@@YAXAEAPEADAEBQEAD@Z
pdata	ENDS
;	COMDAT pdata
pdata	SEGMENT
$pdata$??$addressof@PEAD@std@@YAPEAPEADAEAPEAD@Z DD imagerel $LN3
	DD	imagerel $LN3+13
	DD	imagerel $unwind$??$addressof@PEAD@std@@YAPEAPEADAEAPEAD@Z
pdata	ENDS
;	COMDAT pdata
pdata	SEGMENT
$pdata$??$_Voidify_iter@PEAPEAD@std@@YAPEAXPEAPEAD@Z DD imagerel $LN3
	DD	imagerel $LN3+13
	DD	imagerel $unwind$??$_Voidify_iter@PEAPEAD@std@@YAPEAXPEAPEAD@Z
pdata	ENDS
;	COMDAT pdata
pdata	SEGMENT
$pdata$??$_Allocate_manually_vector_aligned@U_Default_allocate_traits@std@@@std@@YAPEAX_K@Z DD imagerel $LN13
	DD	imagerel $LN13+259
	DD	imagerel $unwind$??$_Allocate_manually_vector_aligned@U_Default_allocate_traits@std@@@std@@YAPEAX_K@Z
pdata	ENDS
;	COMDAT pdata
pdata	SEGMENT
$pdata$?value@?$literal@M$00@detail@glm@@SAPEBDXZ DD imagerel $LN3
	DD	imagerel $LN3+11
	DD	imagerel $unwind$?value@?$literal@M$00@detail@glm@@SAPEBDXZ
pdata	ENDS
;	COMDAT pdata
pdata	SEGMENT
$pdata$?value@?$literal@_J$0A@@detail@glm@@SAPEBDXZ DD imagerel $LN3
	DD	imagerel $LN3+11
	DD	imagerel $unwind$?value@?$literal@_J$0A@@detail@glm@@SAPEBDXZ
pdata	ENDS
;	COMDAT pdata
pdata	SEGMENT
$pdata$?value@?$literal@F$0A@@detail@glm@@SAPEBDXZ DD imagerel $LN3
	DD	imagerel $LN3+11
	DD	imagerel $unwind$?value@?$literal@F$0A@@detail@glm@@SAPEBDXZ
pdata	ENDS
;	COMDAT pdata
pdata	SEGMENT
$pdata$?value@?$literal@C$0A@@detail@glm@@SAPEBDXZ DD imagerel $LN3
	DD	imagerel $LN3+11
	DD	imagerel $unwind$?value@?$literal@C$0A@@detail@glm@@SAPEBDXZ
pdata	ENDS
;	COMDAT pdata
pdata	SEGMENT
$pdata$?value@?$literal@H$0A@@detail@glm@@SAPEBDXZ DD imagerel $LN3
	DD	imagerel $LN3+11
	DD	imagerel $unwind$?value@?$literal@H$0A@@detail@glm@@SAPEBDXZ
pdata	ENDS
;	COMDAT pdata
pdata	SEGMENT
$pdata$?value@?$literal@N$00@detail@glm@@SAPEBDXZ DD imagerel $LN3
	DD	imagerel $LN3+11
	DD	imagerel $unwind$?value@?$literal@N$00@detail@glm@@SAPEBDXZ
pdata	ENDS
;	COMDAT pdata
pdata	SEGMENT
$pdata$??$min@_K@std@@YAAEB_KAEB_K0@Z DD imagerel $LN5
	DD	imagerel $LN5+74
	DD	imagerel $unwind$??$min@_K@std@@YAAEB_KAEB_K0@Z
pdata	ENDS
;	COMDAT pdata
pdata	SEGMENT
$pdata$??$_Get_size_of_n@$00@std@@YA_K_K@Z DD imagerel $LN3
	DD	imagerel $LN3+25
	DD	imagerel $unwind$??$_Get_size_of_n@$00@std@@YA_K_K@Z
pdata	ENDS
;	COMDAT pdata
pdata	SEGMENT
$pdata$?deallocate@?$_Default_allocator_traits@V?$allocator@U_Container_proxy@std@@@std@@@std@@SAXAEAV?$allocator@U_Container_proxy@std@@@2@QEAU_Container_proxy@2@_K@Z DD imagerel $LN3
	DD	imagerel $LN3+45
	DD	imagerel $unwind$?deallocate@?$_Default_allocator_traits@V?$allocator@U_Container_proxy@std@@@std@@@std@@SAXAEAV?$allocator@U_Container_proxy@std@@@2@QEAU_Container_proxy@2@_K@Z
pdata	ENDS
;	COMDAT pdata
pdata	SEGMENT
$pdata$??$forward@AEBQEAD@std@@YAAEBQEADAEBQEAD@Z DD imagerel $LN3
	DD	imagerel $LN3+13
	DD	imagerel $unwind$??$forward@AEBQEAD@std@@YAAEBQEADAEBQEAD@Z
pdata	ENDS
;	COMDAT pdata
pdata	SEGMENT
$pdata$??$_Traits_equal@U?$char_traits@D@std@@@std@@YA_NQEBD_K01@Z DD imagerel $LN5
	DD	imagerel $LN5+90
	DD	imagerel $unwind$??$_Traits_equal@U?$char_traits@D@std@@@std@@YA_NQEBD_K01@Z
pdata	ENDS
;	COMDAT __real@4010000000000000
CONST	SEGMENT
__real@4010000000000000 DQ 04010000000000000r	; 4
CONST	ENDS
;	COMDAT __real@4008000000000000
CONST	SEGMENT
__real@4008000000000000 DQ 04008000000000000r	; 3
CONST	ENDS
;	COMDAT __real@4000000000000000
CONST	SEGMENT
__real@4000000000000000 DQ 04000000000000000r	; 2
CONST	ENDS
;	COMDAT __real@3ff0000000000000
CONST	SEGMENT
__real@3ff0000000000000 DQ 03ff0000000000000r	; 1
CONST	ENDS
;	COMDAT rtc$TMZ
rtc$TMZ	SEGMENT
_RTC_Shutdown.rtc$TMZ DQ FLAT:_RTC_Shutdown
rtc$TMZ	ENDS
;	COMDAT rtc$IMZ
rtc$IMZ	SEGMENT
_RTC_InitBase.rtc$IMZ DQ FLAT:_RTC_InitBase
rtc$IMZ	ENDS
;	COMDAT ??_R1A@?0A@EA@bad_array_new_length@std@@8
rdata$r	SEGMENT
??_R1A@?0A@EA@bad_array_new_length@std@@8 DD imagerel ??_R0?AVbad_array_new_length@std@@@8 ; std::bad_array_new_length::`RTTI Base Class Descriptor at (0,-1,0,64)'
	DD	02H
	DD	00H
	DD	0ffffffffH
	DD	00H
	DD	040H
	DD	imagerel ??_R3bad_array_new_length@std@@8
rdata$r	ENDS
;	COMDAT ??_R2bad_array_new_length@std@@8
rdata$r	SEGMENT
??_R2bad_array_new_length@std@@8 DD imagerel ??_R1A@?0A@EA@bad_array_new_length@std@@8 ; std::bad_array_new_length::`RTTI Base Class Array'
	DD	imagerel ??_R1A@?0A@EA@bad_alloc@std@@8
	DD	imagerel ??_R1A@?0A@EA@exception@std@@8
	ORG $+3
rdata$r	ENDS
;	COMDAT ??_R3bad_array_new_length@std@@8
rdata$r	SEGMENT
??_R3bad_array_new_length@std@@8 DD 00H			; std::bad_array_new_length::`RTTI Class Hierarchy Descriptor'
	DD	00H
	DD	03H
	DD	imagerel ??_R2bad_array_new_length@std@@8
rdata$r	ENDS
;	COMDAT ??_R4bad_array_new_length@std@@6B@
rdata$r	SEGMENT
??_R4bad_array_new_length@std@@6B@ DD 01H		; std::bad_array_new_length::`RTTI Complete Object Locator'
	DD	00H
	DD	00H
	DD	imagerel ??_R0?AVbad_array_new_length@std@@@8
	DD	imagerel ??_R3bad_array_new_length@std@@8
	DD	imagerel ??_R4bad_array_new_length@std@@6B@
rdata$r	ENDS
;	COMDAT ??_R1A@?0A@EA@bad_alloc@std@@8
rdata$r	SEGMENT
??_R1A@?0A@EA@bad_alloc@std@@8 DD imagerel ??_R0?AVbad_alloc@std@@@8 ; std::bad_alloc::`RTTI Base Class Descriptor at (0,-1,0,64)'
	DD	01H
	DD	00H
	DD	0ffffffffH
	DD	00H
	DD	040H
	DD	imagerel ??_R3bad_alloc@std@@8
rdata$r	ENDS
;	COMDAT ??_R2bad_alloc@std@@8
rdata$r	SEGMENT
??_R2bad_alloc@std@@8 DD imagerel ??_R1A@?0A@EA@bad_alloc@std@@8 ; std::bad_alloc::`RTTI Base Class Array'
	DD	imagerel ??_R1A@?0A@EA@exception@std@@8
	ORG $+3
rdata$r	ENDS
;	COMDAT ??_R3bad_alloc@std@@8
rdata$r	SEGMENT
??_R3bad_alloc@std@@8 DD 00H				; std::bad_alloc::`RTTI Class Hierarchy Descriptor'
	DD	00H
	DD	02H
	DD	imagerel ??_R2bad_alloc@std@@8
rdata$r	ENDS
;	COMDAT ??_R4bad_alloc@std@@6B@
rdata$r	SEGMENT
??_R4bad_alloc@std@@6B@ DD 01H				; std::bad_alloc::`RTTI Complete Object Locator'
	DD	00H
	DD	00H
	DD	imagerel ??_R0?AVbad_alloc@std@@@8
	DD	imagerel ??_R3bad_alloc@std@@8
	DD	imagerel ??_R4bad_alloc@std@@6B@
rdata$r	ENDS
;	COMDAT ??_R1A@?0A@EA@exception@std@@8
rdata$r	SEGMENT
??_R1A@?0A@EA@exception@std@@8 DD imagerel ??_R0?AVexception@std@@@8 ; std::exception::`RTTI Base Class Descriptor at (0,-1,0,64)'
	DD	00H
	DD	00H
	DD	0ffffffffH
	DD	00H
	DD	040H
	DD	imagerel ??_R3exception@std@@8
rdata$r	ENDS
;	COMDAT ??_R2exception@std@@8
rdata$r	SEGMENT
??_R2exception@std@@8 DD imagerel ??_R1A@?0A@EA@exception@std@@8 ; std::exception::`RTTI Base Class Array'
	ORG $+3
rdata$r	ENDS
;	COMDAT ??_R3exception@std@@8
rdata$r	SEGMENT
??_R3exception@std@@8 DD 00H				; std::exception::`RTTI Class Hierarchy Descriptor'
	DD	00H
	DD	01H
	DD	imagerel ??_R2exception@std@@8
rdata$r	ENDS
;	COMDAT ??_R4exception@std@@6B@
rdata$r	SEGMENT
??_R4exception@std@@6B@ DD 01H				; std::exception::`RTTI Complete Object Locator'
	DD	00H
	DD	00H
	DD	imagerel ??_R0?AVexception@std@@@8
	DD	imagerel ??_R3exception@std@@8
	DD	imagerel ??_R4exception@std@@6B@
rdata$r	ENDS
;	COMDAT ??_C@_1CG@KOFHLCJL@?$AAi?$AA?5?$AA?$DM?$AA?5?$AAt?$AAh?$AAi?$AAs?$AA?9?$AA?$DO?$AAl?$AAe?$AAn?$AAg?$AAt@
CONST	SEGMENT
??_C@_1CG@KOFHLCJL@?$AAi?$AA?5?$AA?$DM?$AA?5?$AAt?$AAh?$AAi?$AAs?$AA?9?$AA?$DO?$AAl?$AAe?$AAn?$AAg?$AAt@ DB 'i'
	DB	00H, ' ', 00H, '<', 00H, ' ', 00H, 't', 00H, 'h', 00H, 'i', 00H
	DB	's', 00H, '-', 00H, '>', 00H, 'l', 00H, 'e', 00H, 'n', 00H, 'g'
	DB	00H, 't', 00H, 'h', 00H, '(', 00H, ')', 00H, 00H, 00H ; `string'
CONST	ENDS
;	COMDAT ??_C@_1LK@KMFBDMLF@?$AAC?$AA?3?$AA?2?$AAU?$AAs?$AAe?$AAr?$AAs?$AA?2?$AAk?$AAs?$AAa?$AAr?$AAt?$AA?2@
CONST	SEGMENT
??_C@_1LK@KMFBDMLF@?$AAC?$AA?3?$AA?2?$AAU?$AAs?$AAe?$AAr?$AAs?$AA?2?$AAk?$AAs?$AAa?$AAr?$AAt?$AA?2@ DB 'C'
	DB	00H, ':', 00H, '\', 00H, 'U', 00H, 's', 00H, 'e', 00H, 'r', 00H
	DB	's', 00H, '\', 00H, 'k', 00H, 's', 00H, 'a', 00H, 'r', 00H, 't'
	DB	00H, '\', 00H, 'O', 00H, 'n', 00H, 'e', 00H, 'D', 00H, 'r', 00H
	DB	'i', 00H, 'v', 00H, 'e', 00H, '\', 00H, 'D', 00H, 'e', 00H, 's'
	DB	00H, 'k', 00H, 't', 00H, 'o', 00H, 'p', 00H, '\', 00H, 'F', 00H
	DB	'l', 00H, 'a', 00H, 'p', 00H, 'p', 00H, 'y', 00H, 'B', 00H, 'i'
	DB	00H, 'r', 00H, 'd', 00H, '\', 00H, 'l', 00H, 'i', 00H, 'b', 00H
	DB	'r', 00H, 'a', 00H, 'r', 00H, 'i', 00H, 'e', 00H, 's', 00H, '\'
	DB	00H, 'e', 00H, 'x', 00H, 't', 00H, 'e', 00H, 'r', 00H, 'n', 00H
	DB	'a', 00H, 'l', 00H, '\', 00H, 'g', 00H, 'l', 00H, 'm', 00H, '\'
	DB	00H, 'g', 00H, 'l', 00H, 'm', 00H, '\', 00H, 'd', 00H, 'e', 00H
	DB	't', 00H, 'a', 00H, 'i', 00H, 'l', 00H, '\', 00H, 't', 00H, 'y'
	DB	00H, 'p', 00H, 'e', 00H, '_', 00H, 'm', 00H, 'a', 00H, 't', 00H
	DB	'2', 00H, 'x', 00H, '2', 00H, '.', 00H, 'i', 00H, 'n', 00H, 'l'
	DB	00H, 00H, 00H				; `string'
CONST	ENDS
;	COMDAT ??_C@_1LG@MEJFBKPC@?$AAC?$AA?3?$AA?2?$AAU?$AAs?$AAe?$AAr?$AAs?$AA?2?$AAk?$AAs?$AAa?$AAr?$AAt?$AA?2@
CONST	SEGMENT
??_C@_1LG@MEJFBKPC@?$AAC?$AA?3?$AA?2?$AAU?$AAs?$AAe?$AAr?$AAs?$AA?2?$AAk?$AAs?$AAa?$AAr?$AAt?$AA?2@ DB 'C'
	DB	00H, ':', 00H, '\', 00H, 'U', 00H, 's', 00H, 'e', 00H, 'r', 00H
	DB	's', 00H, '\', 00H, 'k', 00H, 's', 00H, 'a', 00H, 'r', 00H, 't'
	DB	00H, '\', 00H, 'O', 00H, 'n', 00H, 'e', 00H, 'D', 00H, 'r', 00H
	DB	'i', 00H, 'v', 00H, 'e', 00H, '\', 00H, 'D', 00H, 'e', 00H, 's'
	DB	00H, 'k', 00H, 't', 00H, 'o', 00H, 'p', 00H, '\', 00H, 'F', 00H
	DB	'l', 00H, 'a', 00H, 'p', 00H, 'p', 00H, 'y', 00H, 'B', 00H, 'i'
	DB	00H, 'r', 00H, 'd', 00H, '\', 00H, 'l', 00H, 'i', 00H, 'b', 00H
	DB	'r', 00H, 'a', 00H, 'r', 00H, 'i', 00H, 'e', 00H, 's', 00H, '\'
	DB	00H, 'e', 00H, 'x', 00H, 't', 00H, 'e', 00H, 'r', 00H, 'n', 00H
	DB	'a', 00H, 'l', 00H, '\', 00H, 'g', 00H, 'l', 00H, 'm', 00H, '\'
	DB	00H, 'g', 00H, 'l', 00H, 'm', 00H, '\', 00H, 'd', 00H, 'e', 00H
	DB	't', 00H, 'a', 00H, 'i', 00H, 'l', 00H, '\', 00H, 't', 00H, 'y'
	DB	00H, 'p', 00H, 'e', 00H, '_', 00H, 'v', 00H, 'e', 00H, 'c', 00H
	DB	'3', 00H, '.', 00H, 'i', 00H, 'n', 00H, 'l', 00H, 00H, 00H ; `string'
CONST	ENDS
;	COMDAT ??_C@_02DPKJAMEF@?$CFd@
CONST	SEGMENT
??_C@_02DPKJAMEF@?$CFd@ DB '%d', 00H			; `string'
CONST	ENDS
;	COMDAT ??_C@_0O@CNKKKNFJ@bvec2?$CI?$CFs?0?5?$CFs?$CJ@
CONST	SEGMENT
??_C@_0O@CNKKKNFJ@bvec2?$CI?$CFs?0?5?$CFs?$CJ@ DB 'bvec2(%s, %s)', 00H ; `string'
CONST	ENDS
;	COMDAT ??_C@_0BC@PPIMMPCC@bvec3?$CI?$CFs?0?5?$CFs?0?5?$CFs?$CJ@
CONST	SEGMENT
??_C@_0BC@PPIMMPCC@bvec3?$CI?$CFs?0?5?$CFs?0?5?$CFs?$CJ@ DB 'bvec3(%s, %s'
	DB	', %s)', 00H					; `string'
CONST	ENDS
;	COMDAT ??_C@_0BG@NPMDCMDP@bvec4?$CI?$CFs?0?5?$CFs?0?5?$CFs?0?5?$CFs?$CJ@
CONST	SEGMENT
??_C@_0BG@NPMDCMDP@bvec4?$CI?$CFs?0?5?$CFs?0?5?$CFs?0?5?$CFs?$CJ@ DB 'bve'
	DB	'c4(%s, %s, %s, %s)', 00H			; `string'
CONST	ENDS
;	COMDAT ??_C@_0P@GLDNIKHG@?$CFsvec2?$CI?$CFs?0?5?$CFs?$CJ@
CONST	SEGMENT
??_C@_0P@GLDNIKHG@?$CFsvec2?$CI?$CFs?0?5?$CFs?$CJ@ DB '%svec2(%s, %s)', 00H ; `string'
CONST	ENDS
;	COMDAT ??_C@_0BD@JLGANIFH@?$CFsvec3?$CI?$CFs?0?5?$CFs?0?5?$CFs?$CJ@
CONST	SEGMENT
??_C@_0BD@JLGANIFH@?$CFsvec3?$CI?$CFs?0?5?$CFs?0?5?$CFs?$CJ@ DB '%svec3(%'
	DB	's, %s, %s)', 00H				; `string'
CONST	ENDS
;	COMDAT ??_C@_0BH@CCFPNAMF@?$CFsvec4?$CI?$CFs?0?5?$CFs?0?5?$CFs?0?5?$CFs?$CJ@
CONST	SEGMENT
??_C@_0BH@CCFPNAMF@?$CFsvec4?$CI?$CFs?0?5?$CFs?0?5?$CFs?0?5?$CFs?$CJ@ DB '%'
	DB	'svec4(%s, %s, %s, %s)', 00H			; `string'
CONST	ENDS
;	COMDAT ??_C@_0BN@EIANMPOG@?$CFsmat2x2?$CI?$CI?$CFs?0?5?$CFs?$CJ?0?5?$CI?$CFs?0?5?$CFs?$CJ?$CJ@
CONST	SEGMENT
??_C@_0BN@EIANMPOG@?$CFsmat2x2?$CI?$CI?$CFs?0?5?$CFs?$CJ?0?5?$CI?$CFs?0?5?$CFs?$CJ?$CJ@ DB '%'
	DB	'smat2x2((%s, %s), (%s, %s))', 00H		; `string'
CONST	ENDS
;	COMDAT ??_C@_1LG@LAANPDHN@?$AAC?$AA?3?$AA?2?$AAU?$AAs?$AAe?$AAr?$AAs?$AA?2?$AAk?$AAs?$AAa?$AAr?$AAt?$AA?2@
CONST	SEGMENT
??_C@_1LG@LAANPDHN@?$AAC?$AA?3?$AA?2?$AAU?$AAs?$AAe?$AAr?$AAs?$AA?2?$AAk?$AAs?$AAa?$AAr?$AAt?$AA?2@ DB 'C'
	DB	00H, ':', 00H, '\', 00H, 'U', 00H, 's', 00H, 'e', 00H, 'r', 00H
	DB	's', 00H, '\', 00H, 'k', 00H, 's', 00H, 'a', 00H, 'r', 00H, 't'
	DB	00H, '\', 00H, 'O', 00H, 'n', 00H, 'e', 00H, 'D', 00H, 'r', 00H
	DB	'i', 00H, 'v', 00H, 'e', 00H, '\', 00H, 'D', 00H, 'e', 00H, 's'
	DB	00H, 'k', 00H, 't', 00H, 'o', 00H, 'p', 00H, '\', 00H, 'F', 00H
	DB	'l', 00H, 'a', 00H, 'p', 00H, 'p', 00H, 'y', 00H, 'B', 00H, 'i'
	DB	00H, 'r', 00H, 'd', 00H, '\', 00H, 'l', 00H, 'i', 00H, 'b', 00H
	DB	'r', 00H, 'a', 00H, 'r', 00H, 'i', 00H, 'e', 00H, 's', 00H, '\'
	DB	00H, 'e', 00H, 'x', 00H, 't', 00H, 'e', 00H, 'r', 00H, 'n', 00H
	DB	'a', 00H, 'l', 00H, '\', 00H, 'g', 00H, 'l', 00H, 'm', 00H, '\'
	DB	00H, 'g', 00H, 'l', 00H, 'm', 00H, '\', 00H, 'd', 00H, 'e', 00H
	DB	't', 00H, 'a', 00H, 'i', 00H, 'l', 00H, '\', 00H, 't', 00H, 'y'
	DB	00H, 'p', 00H, 'e', 00H, '_', 00H, 'v', 00H, 'e', 00H, 'c', 00H
	DB	'4', 00H, '.', 00H, 'i', 00H, 'n', 00H, 'l', 00H, 00H, 00H ; `string'
CONST	ENDS
;	COMDAT ??_C@_1DK@BGNCJAPL@?$AAi?$AA?5?$AA?$DO?$AA?$DN?$AA?5?$AA0?$AA?5?$AA?$CG?$AA?$CG?$AA?5?$AAi?$AA?5?$AA?$DM?$AA?5?$AAt@
CONST	SEGMENT
??_C@_1DK@BGNCJAPL@?$AAi?$AA?5?$AA?$DO?$AA?$DN?$AA?5?$AA0?$AA?5?$AA?$CG?$AA?$CG?$AA?5?$AAi?$AA?5?$AA?$DM?$AA?5?$AAt@ DB 'i'
	DB	00H, ' ', 00H, '>', 00H, '=', 00H, ' ', 00H, '0', 00H, ' ', 00H
	DB	'&', 00H, '&', 00H, ' ', 00H, 'i', 00H, ' ', 00H, '<', 00H, ' '
	DB	00H, 't', 00H, 'h', 00H, 'i', 00H, 's', 00H, '-', 00H, '>', 00H
	DB	'l', 00H, 'e', 00H, 'n', 00H, 'g', 00H, 't', 00H, 'h', 00H, '('
	DB	00H, ')', 00H, 00H, 00H			; `string'
CONST	ENDS
;	COMDAT ??_C@_1LG@FPDAFGJN@?$AAC?$AA?3?$AA?2?$AAU?$AAs?$AAe?$AAr?$AAs?$AA?2?$AAk?$AAs?$AAa?$AAr?$AAt?$AA?2@
CONST	SEGMENT
??_C@_1LG@FPDAFGJN@?$AAC?$AA?3?$AA?2?$AAU?$AAs?$AAe?$AAr?$AAs?$AA?2?$AAk?$AAs?$AAa?$AAr?$AAt?$AA?2@ DB 'C'
	DB	00H, ':', 00H, '\', 00H, 'U', 00H, 's', 00H, 'e', 00H, 'r', 00H
	DB	's', 00H, '\', 00H, 'k', 00H, 's', 00H, 'a', 00H, 'r', 00H, 't'
	DB	00H, '\', 00H, 'O', 00H, 'n', 00H, 'e', 00H, 'D', 00H, 'r', 00H
	DB	'i', 00H, 'v', 00H, 'e', 00H, '\', 00H, 'D', 00H, 'e', 00H, 's'
	DB	00H, 'k', 00H, 't', 00H, 'o', 00H, 'p', 00H, '\', 00H, 'F', 00H
	DB	'l', 00H, 'a', 00H, 'p', 00H, 'p', 00H, 'y', 00H, 'B', 00H, 'i'
	DB	00H, 'r', 00H, 'd', 00H, '\', 00H, 'l', 00H, 'i', 00H, 'b', 00H
	DB	'r', 00H, 'a', 00H, 'r', 00H, 'i', 00H, 'e', 00H, 's', 00H, '\'
	DB	00H, 'e', 00H, 'x', 00H, 't', 00H, 'e', 00H, 'r', 00H, 'n', 00H
	DB	'a', 00H, 'l', 00H, '\', 00H, 'g', 00H, 'l', 00H, 'm', 00H, '\'
	DB	00H, 'g', 00H, 'l', 00H, 'm', 00H, '\', 00H, 'd', 00H, 'e', 00H
	DB	't', 00H, 'a', 00H, 'i', 00H, 'l', 00H, '\', 00H, 't', 00H, 'y'
	DB	00H, 'p', 00H, 'e', 00H, '_', 00H, 'v', 00H, 'e', 00H, 'c', 00H
	DB	'2', 00H, '.', 00H, 'i', 00H, 'n', 00H, 'l', 00H, 00H, 00H ; `string'
CONST	ENDS
;	COMDAT ??_C@_1HA@FACCKGGH@?$AA?$CC?$AAn?$AAu?$AAl?$AAl?$AA?5?$AAp?$AAo?$AAi?$AAn?$AAt?$AAe?$AAr?$AA?5?$AAc@
CONST	SEGMENT
??_C@_1HA@FACCKGGH@?$AA?$CC?$AAn?$AAu?$AAl?$AAl?$AA?5?$AAp?$AAo?$AAi?$AAn?$AAt?$AAe?$AAr?$AA?5?$AAc@ DB '"'
	DB	00H, 'n', 00H, 'u', 00H, 'l', 00H, 'l', 00H, ' ', 00H, 'p', 00H
	DB	'o', 00H, 'i', 00H, 'n', 00H, 't', 00H, 'e', 00H, 'r', 00H, ' '
	DB	00H, 'c', 00H, 'a', 00H, 'n', 00H, 'n', 00H, 'o', 00H, 't', 00H
	DB	' ', 00H, 'p', 00H, 'o', 00H, 'i', 00H, 'n', 00H, 't', 00H, ' '
	DB	00H, 't', 00H, 'o', 00H, ' ', 00H, 'a', 00H, ' ', 00H, 'b', 00H
	DB	'l', 00H, 'o', 00H, 'c', 00H, 'k', 00H, ' ', 00H, 'o', 00H, 'f'
	DB	00H, ' ', 00H, 'n', 00H, 'o', 00H, 'n', 00H, '-', 00H, 'z', 00H
	DB	'e', 00H, 'r', 00H, 'o', 00H, ' ', 00H, 's', 00H, 'i', 00H, 'z'
	DB	00H, 'e', 00H, '"', 00H, 00H, 00H		; `string'
CONST	ENDS
;	COMDAT ??_C@_0DG@KGHKKGBC@null?5pointer?5cannot?5point?5to?5a?5@
CONST	SEGMENT
??_C@_0DG@KGHKKGBC@null?5pointer?5cannot?5point?5to?5a?5@ DB 'null pointe'
	DB	'r cannot point to a block of non-zero size', 00H ; `string'
CONST	ENDS
;	COMDAT ??_C@_03DFJPCLP@i64@
CONST	SEGMENT
??_C@_03DFJPCLP@i64@ DB 'i64', 00H			; `string'
CONST	ENDS
;	COMDAT ??_C@_01KBJDNOO@i@
CONST	SEGMENT
??_C@_01KBJDNOO@i@ DB 'i', 00H				; `string'
CONST	ENDS
;	COMDAT ??_C@_03DECAIGLI@i16@
CONST	SEGMENT
??_C@_03DECAIGLI@i16@ DB 'i16', 00H			; `string'
CONST	ENDS
;	COMDAT ??_C@_02FACHGKLJ@i8@
CONST	SEGMENT
??_C@_02FACHGKLJ@i8@ DB 'i8', 00H			; `string'
CONST	ENDS
;	COMDAT ??_C@_01LPLHEDKD@d@
CONST	SEGMENT
??_C@_01LPLHEDKD@d@ DB 'd', 00H				; `string'
CONST	ENDS
;	COMDAT ??_C@_00CNPNBAHC@@
CONST	SEGMENT
??_C@_00CNPNBAHC@@ DB 00H				; `string'
CONST	ENDS
_DATA	SEGMENT
?LabelTrue@detail@glm@@3PEBDEB DQ FLAT:$SG61723		; glm::detail::LabelTrue
?LabelFalse@detail@glm@@3PEBDEB DQ FLAT:$SG61725	; glm::detail::LabelFalse
_DATA	ENDS
;	COMDAT ??_C@_02NJPGOMH@?$CFf@
CONST	SEGMENT
??_C@_02NJPGOMH@?$CFf@ DB '%f', 00H			; `string'
CONST	ENDS
;	COMDAT ??_C@_0BA@JFNIOLAK@string?5too?5long@
CONST	SEGMENT
??_C@_0BA@JFNIOLAK@string?5too?5long@ DB 'string too long', 00H ; `string'
CONST	ENDS
;	COMDAT ??_C@_1CG@JNLFBNGN@?$AA?$CC?$AAi?$AAn?$AAv?$AAa?$AAl?$AAi?$AAd?$AA?5?$AAa?$AAr?$AAg?$AAu?$AAm?$AAe@
CONST	SEGMENT
??_C@_1CG@JNLFBNGN@?$AA?$CC?$AAi?$AAn?$AAv?$AAa?$AAl?$AAi?$AAd?$AA?5?$AAa?$AAr?$AAg?$AAu?$AAm?$AAe@ DB '"'
	DB	00H, 'i', 00H, 'n', 00H, 'v', 00H, 'a', 00H, 'l', 00H, 'i', 00H
	DB	'd', 00H, ' ', 00H, 'a', 00H, 'r', 00H, 'g', 00H, 'u', 00H, 'm'
	DB	00H, 'e', 00H, 'n', 00H, 't', 00H, '"', 00H, 00H, 00H ; `string'
CONST	ENDS
;	COMDAT ??_C@_11LOCGONAA@@
CONST	SEGMENT
??_C@_11LOCGONAA@@ DB 00H, 00H				; `string'
CONST	ENDS
;	COMDAT ??_C@_1ME@GEFGDEOM@?$AAC?$AA?3?$AA?2?$AAP?$AAr?$AAo?$AAg?$AAr?$AAa?$AAm?$AA?5?$AAF?$AAi?$AAl?$AAe@
CONST	SEGMENT
??_C@_1ME@GEFGDEOM@?$AAC?$AA?3?$AA?2?$AAP?$AAr?$AAo?$AAg?$AAr?$AAa?$AAm?$AA?5?$AAF?$AAi?$AAl?$AAe@ DB 'C'
	DB	00H, ':', 00H, '\', 00H, 'P', 00H, 'r', 00H, 'o', 00H, 'g', 00H
	DB	'r', 00H, 'a', 00H, 'm', 00H, ' ', 00H, 'F', 00H, 'i', 00H, 'l'
	DB	00H, 'e', 00H, 's', 00H, '\', 00H, 'M', 00H, 'i', 00H, 'c', 00H
	DB	'r', 00H, 'o', 00H, 's', 00H, 'o', 00H, 'f', 00H, 't', 00H, ' '
	DB	00H, 'V', 00H, 'i', 00H, 's', 00H, 'u', 00H, 'a', 00H, 'l', 00H
	DB	' ', 00H, 'S', 00H, 't', 00H, 'u', 00H, 'd', 00H, 'i', 00H, 'o'
	DB	00H, '\', 00H, '2', 00H, '0', 00H, '2', 00H, '2', 00H, '\', 00H
	DB	'C', 00H, 'o', 00H, 'm', 00H, 'm', 00H, 'u', 00H, 'n', 00H, 'i'
	DB	00H, 't', 00H, 'y', 00H, '\', 00H, 'V', 00H, 'C', 00H, '\', 00H
	DB	'T', 00H, 'o', 00H, 'o', 00H, 'l', 00H, 's', 00H, '\', 00H, 'M'
	DB	00H, 'S', 00H, 'V', 00H, 'C', 00H, '\', 00H, '1', 00H, '4', 00H
	DB	'.', 00H, '3', 00H, '2', 00H, '.', 00H, '3', 00H, '1', 00H, '3'
	DB	00H, '2', 00H, '6', 00H, '\', 00H, 'i', 00H, 'n', 00H, 'c', 00H
	DB	'l', 00H, 'u', 00H, 'd', 00H, 'e', 00H, '\', 00H, 'x', 00H, 'm'
	DB	00H, 'e', 00H, 'm', 00H, 'o', 00H, 'r', 00H, 'y', 00H, 00H, 00H ; `string'
CONST	ENDS
;	COMDAT ??_C@_0GC@DJFHHHKN@C?3?2Program?5Files?2Microsoft?5Visu@
CONST	SEGMENT
??_C@_0GC@DJFHHHKN@C?3?2Program?5Files?2Microsoft?5Visu@ DB 'C:\Program F'
	DB	'iles\Microsoft Visual Studio\2022\Community\VC\Tools\MSVC\14.'
	DB	'32.31326\include\xmemory', 00H		; `string'
CONST	ENDS
;	COMDAT ??_C@_02DKCKIIND@?$CFs@
CONST	SEGMENT
??_C@_02DKCKIIND@?$CFs@ DB '%s', 00H			; `string'
CONST	ENDS
;	COMDAT ??_C@_0BB@FCMFBGOM@invalid?5argument@
CONST	SEGMENT
??_C@_0BB@FCMFBGOM@invalid?5argument@ DB 'invalid argument', 00H ; `string'
CONST	ENDS
;	COMDAT _CT??_R0?AVexception@std@@@8??0exception@std@@QEAA@AEBV01@@Z24
xdata$x	SEGMENT
_CT??_R0?AVexception@std@@@8??0exception@std@@QEAA@AEBV01@@Z24 DD 00H
	DD	imagerel ??_R0?AVexception@std@@@8
	DD	00H
	DD	0ffffffffH
	ORG $+4
	DD	018H
	DD	imagerel ??0exception@std@@QEAA@AEBV01@@Z
xdata$x	ENDS
;	COMDAT ??_R0?AVexception@std@@@8
data$r	SEGMENT
??_R0?AVexception@std@@@8 DQ FLAT:??_7type_info@@6B@	; std::exception `RTTI Type Descriptor'
	DQ	0000000000000000H
	DB	'.?AVexception@std@@', 00H
data$r	ENDS
;	COMDAT _CT??_R0?AVbad_alloc@std@@@8??0bad_alloc@std@@QEAA@AEBV01@@Z24
xdata$x	SEGMENT
_CT??_R0?AVbad_alloc@std@@@8??0bad_alloc@std@@QEAA@AEBV01@@Z24 DD 010H
	DD	imagerel ??_R0?AVbad_alloc@std@@@8
	DD	00H
	DD	0ffffffffH
	ORG $+4
	DD	018H
	DD	imagerel ??0bad_alloc@std@@QEAA@AEBV01@@Z
xdata$x	ENDS
;	COMDAT ??_R0?AVbad_alloc@std@@@8
data$r	SEGMENT
??_R0?AVbad_alloc@std@@@8 DQ FLAT:??_7type_info@@6B@	; std::bad_alloc `RTTI Type Descriptor'
	DQ	0000000000000000H
	DB	'.?AVbad_alloc@std@@', 00H
data$r	ENDS
;	COMDAT _CT??_R0?AVbad_array_new_length@std@@@8??0bad_array_new_length@std@@QEAA@AEBV01@@Z24
xdata$x	SEGMENT
_CT??_R0?AVbad_array_new_length@std@@@8??0bad_array_new_length@std@@QEAA@AEBV01@@Z24 DD 00H
	DD	imagerel ??_R0?AVbad_array_new_length@std@@@8
	DD	00H
	DD	0ffffffffH
	ORG $+4
	DD	018H
	DD	imagerel ??0bad_array_new_length@std@@QEAA@AEBV01@@Z
xdata$x	ENDS
;	COMDAT ??_R0?AVbad_array_new_length@std@@@8
data$r	SEGMENT
??_R0?AVbad_array_new_length@std@@@8 DQ FLAT:??_7type_info@@6B@ ; std::bad_array_new_length `RTTI Type Descriptor'
	DQ	0000000000000000H
	DB	'.?AVbad_array_new_length@std@@', 00H
data$r	ENDS
;	COMDAT _CTA3?AVbad_array_new_length@std@@
xdata$x	SEGMENT
_CTA3?AVbad_array_new_length@std@@ DD 03H
	DD	imagerel _CT??_R0?AVbad_array_new_length@std@@@8??0bad_array_new_length@std@@QEAA@AEBV01@@Z24
	DD	imagerel _CT??_R0?AVbad_alloc@std@@@8??0bad_alloc@std@@QEAA@AEBV01@@Z24
	DD	imagerel _CT??_R0?AVexception@std@@@8??0exception@std@@QEAA@AEBV01@@Z24
xdata$x	ENDS
;	COMDAT _TI3?AVbad_array_new_length@std@@
xdata$x	SEGMENT
_TI3?AVbad_array_new_length@std@@ DD 00H
	DD	imagerel ??1bad_array_new_length@std@@UEAA@XZ
	DD	00H
	DD	imagerel _CTA3?AVbad_array_new_length@std@@
xdata$x	ENDS
;	COMDAT ??_C@_0BF@KINCDENJ@bad?5array?5new?5length@
CONST	SEGMENT
??_C@_0BF@KINCDENJ@bad?5array?5new?5length@ DB 'bad array new length', 00H ; `string'
CONST	ENDS
;	COMDAT ??_7bad_array_new_length@std@@6B@
CONST	SEGMENT
??_7bad_array_new_length@std@@6B@ DQ FLAT:??_R4bad_array_new_length@std@@6B@ ; std::bad_array_new_length::`vftable'
	DQ	FLAT:??_Ebad_array_new_length@std@@UEAAPEAXI@Z
	DQ	FLAT:?what@exception@std@@UEBAPEBDXZ
CONST	ENDS
;	COMDAT ??_7bad_alloc@std@@6B@
CONST	SEGMENT
??_7bad_alloc@std@@6B@ DQ FLAT:??_R4bad_alloc@std@@6B@	; std::bad_alloc::`vftable'
	DQ	FLAT:??_Ebad_alloc@std@@UEAAPEAXI@Z
	DQ	FLAT:?what@exception@std@@UEBAPEBDXZ
CONST	ENDS
;	COMDAT ??_C@_0BC@EOODALEL@Unknown?5exception@
CONST	SEGMENT
??_C@_0BC@EOODALEL@Unknown?5exception@ DB 'Unknown exception', 00H ; `string'
CONST	ENDS
;	COMDAT ??_7exception@std@@6B@
CONST	SEGMENT
??_7exception@std@@6B@ DQ FLAT:??_R4exception@std@@6B@	; std::exception::`vftable'
	DQ	FLAT:??_Eexception@std@@UEAAPEAXI@Z
	DQ	FLAT:?what@exception@std@@UEBAPEBDXZ
CONST	ENDS
;	COMDAT xdata
xdata	SEGMENT
$unwind$??$_Traits_equal@U?$char_traits@D@std@@@std@@YA_NQEBD_K01@Z DD 021901H
	DD	070155219H
xdata	ENDS
;	COMDAT xdata
xdata	SEGMENT
$unwind$??$forward@AEBQEAD@std@@YAAEBQEADAEBQEAD@Z DD 010601H
	DD	07006H
xdata	ENDS
;	COMDAT xdata
xdata	SEGMENT
$unwind$?deallocate@?$_Default_allocator_traits@V?$allocator@U_Container_proxy@std@@@std@@@std@@SAXAEAV?$allocator@U_Container_proxy@std@@@2@QEAU_Container_proxy@2@_K@Z DD 021401H
	DD	070103214H
xdata	ENDS
;	COMDAT xdata
xdata	SEGMENT
$unwind$??$_Get_size_of_n@$00@std@@YA_K_K@Z DD 020a01H
	DD	07006120aH
xdata	ENDS
;	COMDAT xdata
xdata	SEGMENT
$unwind$??$min@_K@std@@YAAEB_KAEB_K0@Z DD 020f01H
	DD	0700b120fH
xdata	ENDS
;	COMDAT xdata
xdata	SEGMENT
$unwind$?value@?$literal@N$00@detail@glm@@SAPEBDXZ DD 010201H
	DD	07002H
xdata	ENDS
;	COMDAT xdata
xdata	SEGMENT
$unwind$?value@?$literal@H$0A@@detail@glm@@SAPEBDXZ DD 010201H
	DD	07002H
xdata	ENDS
;	COMDAT xdata
xdata	SEGMENT
$unwind$?value@?$literal@C$0A@@detail@glm@@SAPEBDXZ DD 010201H
	DD	07002H
xdata	ENDS
;	COMDAT xdata
xdata	SEGMENT
$unwind$?value@?$literal@F$0A@@detail@glm@@SAPEBDXZ DD 010201H
	DD	07002H
xdata	ENDS
;	COMDAT xdata
xdata	SEGMENT
$unwind$?value@?$literal@_J$0A@@detail@glm@@SAPEBDXZ DD 010201H
	DD	07002H
xdata	ENDS
;	COMDAT xdata
xdata	SEGMENT
$unwind$?value@?$literal@M$00@detail@glm@@SAPEBDXZ DD 010201H
	DD	07002H
xdata	ENDS
;	COMDAT xdata
xdata	SEGMENT
$unwind$??$_Allocate_manually_vector_aligned@U_Default_allocate_traits@std@@@std@@YAPEAX_K@Z DD 020a01H
	DD	07006920aH
xdata	ENDS
;	COMDAT xdata
xdata	SEGMENT
$unwind$??$_Voidify_iter@PEAPEAD@std@@YAPEAXPEAPEAD@Z DD 010601H
	DD	07006H
xdata	ENDS
;	COMDAT xdata
xdata	SEGMENT
$unwind$??$addressof@PEAD@std@@YAPEAPEADAEAPEAD@Z DD 010601H
	DD	07006H
xdata	ENDS
;	COMDAT xdata
xdata	SEGMENT
$unwind$??$_Construct_in_place@PEADAEBQEAD@std@@YAXAEAPEADAEBQEAD@Z DD 020f01H
	DD	0700b520fH
xdata	ENDS
;	COMDAT xdata
xdata	SEGMENT
$unwind$??$forward@PEAU_Container_base12@std@@@std@@YA$$QEAPEAU_Container_base12@0@AEAPEAU10@@Z DD 010601H
	DD	07006H
xdata	ENDS
;	COMDAT xdata
xdata	SEGMENT
$unwind$??$_Voidify_iter@PEAU_Container_proxy@std@@@std@@YAPEAXPEAU_Container_proxy@0@@Z DD 010601H
	DD	07006H
xdata	ENDS
;	COMDAT xdata
xdata	SEGMENT
$unwind$??$addressof@U_Container_proxy@std@@@std@@YAPEAU_Container_proxy@0@AEAU10@@Z DD 010601H
	DD	07006H
xdata	ENDS
;	COMDAT xdata
xdata	SEGMENT
$ip2state$??$_Deallocate_plain@V?$allocator@U_Container_proxy@std@@@std@@@std@@YAXAEAV?$allocator@U_Container_proxy@std@@@0@QEAU_Container_proxy@0@@Z DB 02H
	DB	00H
	DB	00H
xdata	ENDS
;	COMDAT xdata
xdata	SEGMENT
$cppxdata$??$_Deallocate_plain@V?$allocator@U_Container_proxy@std@@@std@@@std@@YAXAEAV?$allocator@U_Container_proxy@std@@@0@QEAU_Container_proxy@0@@Z DB 060H
	DD	imagerel $ip2state$??$_Deallocate_plain@V?$allocator@U_Container_proxy@std@@@std@@@std@@YAXAEAV?$allocator@U_Container_proxy@std@@@0@QEAU_Container_proxy@0@@Z
xdata	ENDS
;	COMDAT xdata
xdata	SEGMENT
$unwind$??$_Deallocate_plain@V?$allocator@U_Container_proxy@std@@@std@@@std@@YAXAEAV?$allocator@U_Container_proxy@std@@@0@QEAU_Container_proxy@0@@Z DD 020f19H
	DD	0700b320fH
	DD	imagerel __CxxFrameHandler4
	DD	imagerel $cppxdata$??$_Deallocate_plain@V?$allocator@U_Container_proxy@std@@@std@@@std@@YAXAEAV?$allocator@U_Container_proxy@std@@@0@QEAU_Container_proxy@0@@Z
xdata	ENDS
;	COMDAT voltbl
voltbl	SEGMENT
_volmd	DB	00H
	DB	05H
voltbl	ENDS
;	COMDAT voltbl
voltbl	SEGMENT
_volmd	DW	035H
	DW	01ccH
voltbl	ENDS
;	COMDAT xdata
xdata	SEGMENT
$unwind$?dtor$0@?0??call@?$compute_to_string@Utmat2x2@glm@@M$0A@@detail@glm@@SA?AV?$basic_string@DU?$char_traits@D@std@@V?$allocator@D@2@@std@@AEBU?$tmat2x2@M$0A@@3@@Z@4HA DD 031001H
	DD	0700c4210H
	DD	0500bH
xdata	ENDS
;	COMDAT xdata
xdata	SEGMENT
$ip2state$?call@?$compute_to_string@Utmat2x2@glm@@M$0A@@detail@glm@@SA?AV?$basic_string@DU?$char_traits@D@std@@V?$allocator@D@2@@std@@AEBU?$tmat2x2@M$0A@@3@@Z DB 06H
	DB	00H
	DB	00H
	DB	'Y', 02H
	DB	02H
	DB	'=', 04H
	DB	00H
xdata	ENDS
;	COMDAT xdata
xdata	SEGMENT
$stateUnwindMap$?call@?$compute_to_string@Utmat2x2@glm@@M$0A@@detail@glm@@SA?AV?$basic_string@DU?$char_traits@D@std@@V?$allocator@D@2@@std@@AEBU?$tmat2x2@M$0A@@3@@Z DB 02H
	DB	0eH
	DD	imagerel ?dtor$0@?0??call@?$compute_to_string@Utmat2x2@glm@@M$0A@@detail@glm@@SA?AV?$basic_string@DU?$char_traits@D@std@@V?$allocator@D@2@@std@@AEBU?$tmat2x2@M$0A@@3@@Z@4HA
xdata	ENDS
;	COMDAT xdata
xdata	SEGMENT
$cppxdata$?call@?$compute_to_string@Utmat2x2@glm@@M$0A@@detail@glm@@SA?AV?$basic_string@DU?$char_traits@D@std@@V?$allocator@D@2@@std@@AEBU?$tmat2x2@M$0A@@3@@Z DB 028H
	DD	imagerel $stateUnwindMap$?call@?$compute_to_string@Utmat2x2@glm@@M$0A@@detail@glm@@SA?AV?$basic_string@DU?$char_traits@D@std@@V?$allocator@D@2@@std@@AEBU?$tmat2x2@M$0A@@3@@Z
	DD	imagerel $ip2state$?call@?$compute_to_string@Utmat2x2@glm@@M$0A@@detail@glm@@SA?AV?$basic_string@DU?$char_traits@D@std@@V?$allocator@D@2@@std@@AEBU?$tmat2x2@M$0A@@3@@Z
xdata	ENDS
;	COMDAT xdata
xdata	SEGMENT
$unwind$?call@?$compute_to_string@Utmat2x2@glm@@M$0A@@detail@glm@@SA?AV?$basic_string@DU?$char_traits@D@std@@V?$allocator@D@2@@std@@AEBU?$tmat2x2@M$0A@@3@@Z DD 033d19H
	DD	0180112H
	DD	0700bH
	DD	imagerel __GSHandlerCheck_EH4
	DD	imagerel $cppxdata$?call@?$compute_to_string@Utmat2x2@glm@@M$0A@@detail@glm@@SA?AV?$basic_string@DU?$char_traits@D@std@@V?$allocator@D@2@@std@@AEBU?$tmat2x2@M$0A@@3@@Z
	DD	0baH
xdata	ENDS
;	COMDAT CONST
CONST	SEGMENT
?call@?$compute_to_string@Utmat2x2@glm@@M$0A@@detail@glm@@SA?AV?$basic_string@DU?$char_traits@D@std@@V?$allocator@D@2@@std@@AEBU?$tmat2x2@M$0A@@3@@Z$rtcName$0 DB 046H ; glm::detail::compute_to_string<glm::tmat2x2,float,0>::call
	DB	06fH
	DB	072H
	DB	06dH
	DB	061H
	DB	074H
	DB	053H
	DB	074H
	DB	072H
	DB	00H
	ORG $+6
?call@?$compute_to_string@Utmat2x2@glm@@M$0A@@detail@glm@@SA?AV?$basic_string@DU?$char_traits@D@std@@V?$allocator@D@2@@std@@AEBU?$tmat2x2@M$0A@@3@@Z$rtcVarDesc DD 058H ; glm::detail::compute_to_string<glm::tmat2x2,float,0>::call
	DD	028H
	DQ	FLAT:?call@?$compute_to_string@Utmat2x2@glm@@M$0A@@detail@glm@@SA?AV?$basic_string@DU?$char_traits@D@std@@V?$allocator@D@2@@std@@AEBU?$tmat2x2@M$0A@@3@@Z$rtcName$0
	ORG $+48
?call@?$compute_to_string@Utmat2x2@glm@@M$0A@@detail@glm@@SA?AV?$basic_string@DU?$char_traits@D@std@@V?$allocator@D@2@@std@@AEBU?$tmat2x2@M$0A@@3@@Z$rtcFrameData DD 01H ; glm::detail::compute_to_string<glm::tmat2x2,float,0>::call
	DD	00H
	DQ	FLAT:?call@?$compute_to_string@Utmat2x2@glm@@M$0A@@detail@glm@@SA?AV?$basic_string@DU?$char_traits@D@std@@V?$allocator@D@2@@std@@AEBU?$tmat2x2@M$0A@@3@@Z$rtcVarDesc
CONST	ENDS
;	COMDAT voltbl
voltbl	SEGMENT
_volmd	DB	00H
	DB	05H
voltbl	ENDS
;	COMDAT voltbl
voltbl	SEGMENT
_volmd	DW	035H
	DW	0183H
voltbl	ENDS
;	COMDAT xdata
xdata	SEGMENT
$unwind$?dtor$0@?0??call@?$compute_to_string@Utvec4@glm@@_J$0A@@detail@glm@@SA?AV?$basic_string@DU?$char_traits@D@std@@V?$allocator@D@2@@std@@AEBU?$tvec4@_J$0A@@3@@Z@4HA DD 031001H
	DD	0700c4210H
	DD	0500bH
xdata	ENDS
;	COMDAT xdata
xdata	SEGMENT
$ip2state$?call@?$compute_to_string@Utvec4@glm@@_J$0A@@detail@glm@@SA?AV?$basic_string@DU?$char_traits@D@std@@V?$allocator@D@2@@std@@AEBU?$tvec4@_J$0A@@3@@Z DB 06H
	DB	00H
	DB	00H
	DB	'Y', 02H
	DB	02H
	DB	019H, 03H
	DB	00H
xdata	ENDS
;	COMDAT xdata
xdata	SEGMENT
$stateUnwindMap$?call@?$compute_to_string@Utvec4@glm@@_J$0A@@detail@glm@@SA?AV?$basic_string@DU?$char_traits@D@std@@V?$allocator@D@2@@std@@AEBU?$tvec4@_J$0A@@3@@Z DB 02H
	DB	0eH
	DD	imagerel ?dtor$0@?0??call@?$compute_to_string@Utvec4@glm@@_J$0A@@detail@glm@@SA?AV?$basic_string@DU?$char_traits@D@std@@V?$allocator@D@2@@std@@AEBU?$tvec4@_J$0A@@3@@Z@4HA
xdata	ENDS
;	COMDAT xdata
xdata	SEGMENT
$cppxdata$?call@?$compute_to_string@Utvec4@glm@@_J$0A@@detail@glm@@SA?AV?$basic_string@DU?$char_traits@D@std@@V?$allocator@D@2@@std@@AEBU?$tvec4@_J$0A@@3@@Z DB 028H
	DD	imagerel $stateUnwindMap$?call@?$compute_to_string@Utvec4@glm@@_J$0A@@detail@glm@@SA?AV?$basic_string@DU?$char_traits@D@std@@V?$allocator@D@2@@std@@AEBU?$tvec4@_J$0A@@3@@Z
	DD	imagerel $ip2state$?call@?$compute_to_string@Utvec4@glm@@_J$0A@@detail@glm@@SA?AV?$basic_string@DU?$char_traits@D@std@@V?$allocator@D@2@@std@@AEBU?$tvec4@_J$0A@@3@@Z
xdata	ENDS
;	COMDAT xdata
xdata	SEGMENT
$unwind$?call@?$compute_to_string@Utvec4@glm@@_J$0A@@detail@glm@@SA?AV?$basic_string@DU?$char_traits@D@std@@V?$allocator@D@2@@std@@AEBU?$tvec4@_J$0A@@3@@Z DD 033d19H
	DD	0180112H
	DD	0700bH
	DD	imagerel __GSHandlerCheck_EH4
	DD	imagerel $cppxdata$?call@?$compute_to_string@Utvec4@glm@@_J$0A@@detail@glm@@SA?AV?$basic_string@DU?$char_traits@D@std@@V?$allocator@D@2@@std@@AEBU?$tvec4@_J$0A@@3@@Z
	DD	0baH
xdata	ENDS
;	COMDAT CONST
CONST	SEGMENT
?call@?$compute_to_string@Utvec4@glm@@_J$0A@@detail@glm@@SA?AV?$basic_string@DU?$char_traits@D@std@@V?$allocator@D@2@@std@@AEBU?$tvec4@_J$0A@@3@@Z$rtcName$0 DB 046H ; glm::detail::compute_to_string<glm::tvec4,__int64,0>::call
	DB	06fH
	DB	072H
	DB	06dH
	DB	061H
	DB	074H
	DB	053H
	DB	074H
	DB	072H
	DB	00H
	ORG $+6
?call@?$compute_to_string@Utvec4@glm@@_J$0A@@detail@glm@@SA?AV?$basic_string@DU?$char_traits@D@std@@V?$allocator@D@2@@std@@AEBU?$tvec4@_J$0A@@3@@Z$rtcVarDesc DD 058H ; glm::detail::compute_to_string<glm::tvec4,__int64,0>::call
	DD	028H
	DQ	FLAT:?call@?$compute_to_string@Utvec4@glm@@_J$0A@@detail@glm@@SA?AV?$basic_string@DU?$char_traits@D@std@@V?$allocator@D@2@@std@@AEBU?$tvec4@_J$0A@@3@@Z$rtcName$0
	ORG $+48
?call@?$compute_to_string@Utvec4@glm@@_J$0A@@detail@glm@@SA?AV?$basic_string@DU?$char_traits@D@std@@V?$allocator@D@2@@std@@AEBU?$tvec4@_J$0A@@3@@Z$rtcFrameData DD 01H ; glm::detail::compute_to_string<glm::tvec4,__int64,0>::call
	DD	00H
	DQ	FLAT:?call@?$compute_to_string@Utvec4@glm@@_J$0A@@detail@glm@@SA?AV?$basic_string@DU?$char_traits@D@std@@V?$allocator@D@2@@std@@AEBU?$tvec4@_J$0A@@3@@Z$rtcVarDesc
CONST	ENDS
;	COMDAT voltbl
voltbl	SEGMENT
_volmd	DB	00H
	DB	05H
voltbl	ENDS
;	COMDAT voltbl
voltbl	SEGMENT
_volmd	DW	035H
	DW	014fH
voltbl	ENDS
;	COMDAT xdata
xdata	SEGMENT
$unwind$?dtor$0@?0??call@?$compute_to_string@Utvec3@glm@@_J$0A@@detail@glm@@SA?AV?$basic_string@DU?$char_traits@D@std@@V?$allocator@D@2@@std@@AEBU?$tvec3@_J$0A@@3@@Z@4HA DD 031001H
	DD	0700c4210H
	DD	0500bH
xdata	ENDS
;	COMDAT xdata
xdata	SEGMENT
$ip2state$?call@?$compute_to_string@Utvec3@glm@@_J$0A@@detail@glm@@SA?AV?$basic_string@DU?$char_traits@D@std@@V?$allocator@D@2@@std@@AEBU?$tvec3@_J$0A@@3@@Z DB 06H
	DB	00H
	DB	00H
	DB	'1', 02H
	DB	02H
	DB	'q', 02H
	DB	00H
xdata	ENDS
;	COMDAT xdata
xdata	SEGMENT
$stateUnwindMap$?call@?$compute_to_string@Utvec3@glm@@_J$0A@@detail@glm@@SA?AV?$basic_string@DU?$char_traits@D@std@@V?$allocator@D@2@@std@@AEBU?$tvec3@_J$0A@@3@@Z DB 02H
	DB	0eH
	DD	imagerel ?dtor$0@?0??call@?$compute_to_string@Utvec3@glm@@_J$0A@@detail@glm@@SA?AV?$basic_string@DU?$char_traits@D@std@@V?$allocator@D@2@@std@@AEBU?$tvec3@_J$0A@@3@@Z@4HA
xdata	ENDS
;	COMDAT xdata
xdata	SEGMENT
$cppxdata$?call@?$compute_to_string@Utvec3@glm@@_J$0A@@detail@glm@@SA?AV?$basic_string@DU?$char_traits@D@std@@V?$allocator@D@2@@std@@AEBU?$tvec3@_J$0A@@3@@Z DB 028H
	DD	imagerel $stateUnwindMap$?call@?$compute_to_string@Utvec3@glm@@_J$0A@@detail@glm@@SA?AV?$basic_string@DU?$char_traits@D@std@@V?$allocator@D@2@@std@@AEBU?$tvec3@_J$0A@@3@@Z
	DD	imagerel $ip2state$?call@?$compute_to_string@Utvec3@glm@@_J$0A@@detail@glm@@SA?AV?$basic_string@DU?$char_traits@D@std@@V?$allocator@D@2@@std@@AEBU?$tvec3@_J$0A@@3@@Z
xdata	ENDS
;	COMDAT xdata
xdata	SEGMENT
$unwind$?call@?$compute_to_string@Utvec3@glm@@_J$0A@@detail@glm@@SA?AV?$basic_string@DU?$char_traits@D@std@@V?$allocator@D@2@@std@@AEBU?$tvec3@_J$0A@@3@@Z DD 033d19H
	DD	0160112H
	DD	0700bH
	DD	imagerel __GSHandlerCheck_EH4
	DD	imagerel $cppxdata$?call@?$compute_to_string@Utvec3@glm@@_J$0A@@detail@glm@@SA?AV?$basic_string@DU?$char_traits@D@std@@V?$allocator@D@2@@std@@AEBU?$tvec3@_J$0A@@3@@Z
	DD	0a2H
xdata	ENDS
;	COMDAT CONST
CONST	SEGMENT
?call@?$compute_to_string@Utvec3@glm@@_J$0A@@detail@glm@@SA?AV?$basic_string@DU?$char_traits@D@std@@V?$allocator@D@2@@std@@AEBU?$tvec3@_J$0A@@3@@Z$rtcName$0 DB 046H ; glm::detail::compute_to_string<glm::tvec3,__int64,0>::call
	DB	06fH
	DB	072H
	DB	06dH
	DB	061H
	DB	074H
	DB	053H
	DB	074H
	DB	072H
	DB	00H
	ORG $+6
?call@?$compute_to_string@Utvec3@glm@@_J$0A@@detail@glm@@SA?AV?$basic_string@DU?$char_traits@D@std@@V?$allocator@D@2@@std@@AEBU?$tvec3@_J$0A@@3@@Z$rtcVarDesc DD 048H ; glm::detail::compute_to_string<glm::tvec3,__int64,0>::call
	DD	028H
	DQ	FLAT:?call@?$compute_to_string@Utvec3@glm@@_J$0A@@detail@glm@@SA?AV?$basic_string@DU?$char_traits@D@std@@V?$allocator@D@2@@std@@AEBU?$tvec3@_J$0A@@3@@Z$rtcName$0
	ORG $+48
?call@?$compute_to_string@Utvec3@glm@@_J$0A@@detail@glm@@SA?AV?$basic_string@DU?$char_traits@D@std@@V?$allocator@D@2@@std@@AEBU?$tvec3@_J$0A@@3@@Z$rtcFrameData DD 01H ; glm::detail::compute_to_string<glm::tvec3,__int64,0>::call
	DD	00H
	DQ	FLAT:?call@?$compute_to_string@Utvec3@glm@@_J$0A@@detail@glm@@SA?AV?$basic_string@DU?$char_traits@D@std@@V?$allocator@D@2@@std@@AEBU?$tvec3@_J$0A@@3@@Z$rtcVarDesc
CONST	ENDS
;	COMDAT voltbl
voltbl	SEGMENT
_volmd	DB	00H
	DB	05H
voltbl	ENDS
;	COMDAT voltbl
voltbl	SEGMENT
_volmd	DW	035H
	DW	011bH
voltbl	ENDS
;	COMDAT xdata
xdata	SEGMENT
$unwind$?dtor$0@?0??call@?$compute_to_string@Utvec2@glm@@_J$0A@@detail@glm@@SA?AV?$basic_string@DU?$char_traits@D@std@@V?$allocator@D@2@@std@@AEBU?$tvec2@_J$0A@@3@@Z@4HA DD 031001H
	DD	0700c4210H
	DD	0500bH
xdata	ENDS
;	COMDAT xdata
xdata	SEGMENT
$ip2state$?call@?$compute_to_string@Utvec2@glm@@_J$0A@@detail@glm@@SA?AV?$basic_string@DU?$char_traits@D@std@@V?$allocator@D@2@@std@@AEBU?$tvec2@_J$0A@@3@@Z DB 06H
	DB	00H
	DB	00H
	DB	09H, 02H
	DB	02H
	DB	0e4H
	DB	00H
xdata	ENDS
;	COMDAT xdata
xdata	SEGMENT
$stateUnwindMap$?call@?$compute_to_string@Utvec2@glm@@_J$0A@@detail@glm@@SA?AV?$basic_string@DU?$char_traits@D@std@@V?$allocator@D@2@@std@@AEBU?$tvec2@_J$0A@@3@@Z DB 02H
	DB	0eH
	DD	imagerel ?dtor$0@?0??call@?$compute_to_string@Utvec2@glm@@_J$0A@@detail@glm@@SA?AV?$basic_string@DU?$char_traits@D@std@@V?$allocator@D@2@@std@@AEBU?$tvec2@_J$0A@@3@@Z@4HA
xdata	ENDS
;	COMDAT xdata
xdata	SEGMENT
$cppxdata$?call@?$compute_to_string@Utvec2@glm@@_J$0A@@detail@glm@@SA?AV?$basic_string@DU?$char_traits@D@std@@V?$allocator@D@2@@std@@AEBU?$tvec2@_J$0A@@3@@Z DB 028H
	DD	imagerel $stateUnwindMap$?call@?$compute_to_string@Utvec2@glm@@_J$0A@@detail@glm@@SA?AV?$basic_string@DU?$char_traits@D@std@@V?$allocator@D@2@@std@@AEBU?$tvec2@_J$0A@@3@@Z
	DD	imagerel $ip2state$?call@?$compute_to_string@Utvec2@glm@@_J$0A@@detail@glm@@SA?AV?$basic_string@DU?$char_traits@D@std@@V?$allocator@D@2@@std@@AEBU?$tvec2@_J$0A@@3@@Z
xdata	ENDS
;	COMDAT xdata
xdata	SEGMENT
$unwind$?call@?$compute_to_string@Utvec2@glm@@_J$0A@@detail@glm@@SA?AV?$basic_string@DU?$char_traits@D@std@@V?$allocator@D@2@@std@@AEBU?$tvec2@_J$0A@@3@@Z DD 033d19H
	DD	0140112H
	DD	0700bH
	DD	imagerel __GSHandlerCheck_EH4
	DD	imagerel $cppxdata$?call@?$compute_to_string@Utvec2@glm@@_J$0A@@detail@glm@@SA?AV?$basic_string@DU?$char_traits@D@std@@V?$allocator@D@2@@std@@AEBU?$tvec2@_J$0A@@3@@Z
	DD	09aH
xdata	ENDS
;	COMDAT CONST
CONST	SEGMENT
?call@?$compute_to_string@Utvec2@glm@@_J$0A@@detail@glm@@SA?AV?$basic_string@DU?$char_traits@D@std@@V?$allocator@D@2@@std@@AEBU?$tvec2@_J$0A@@3@@Z$rtcName$0 DB 046H ; glm::detail::compute_to_string<glm::tvec2,__int64,0>::call
	DB	06fH
	DB	072H
	DB	06dH
	DB	061H
	DB	074H
	DB	053H
	DB	074H
	DB	072H
	DB	00H
	ORG $+6
?call@?$compute_to_string@Utvec2@glm@@_J$0A@@detail@glm@@SA?AV?$basic_string@DU?$char_traits@D@std@@V?$allocator@D@2@@std@@AEBU?$tvec2@_J$0A@@3@@Z$rtcVarDesc DD 048H ; glm::detail::compute_to_string<glm::tvec2,__int64,0>::call
	DD	028H
	DQ	FLAT:?call@?$compute_to_string@Utvec2@glm@@_J$0A@@detail@glm@@SA?AV?$basic_string@DU?$char_traits@D@std@@V?$allocator@D@2@@std@@AEBU?$tvec2@_J$0A@@3@@Z$rtcName$0
	ORG $+48
?call@?$compute_to_string@Utvec2@glm@@_J$0A@@detail@glm@@SA?AV?$basic_string@DU?$char_traits@D@std@@V?$allocator@D@2@@std@@AEBU?$tvec2@_J$0A@@3@@Z$rtcFrameData DD 01H ; glm::detail::compute_to_string<glm::tvec2,__int64,0>::call
	DD	00H
	DQ	FLAT:?call@?$compute_to_string@Utvec2@glm@@_J$0A@@detail@glm@@SA?AV?$basic_string@DU?$char_traits@D@std@@V?$allocator@D@2@@std@@AEBU?$tvec2@_J$0A@@3@@Z$rtcVarDesc
CONST	ENDS
;	COMDAT voltbl
voltbl	SEGMENT
_volmd	DB	00H
	DB	05H
voltbl	ENDS
;	COMDAT voltbl
voltbl	SEGMENT
_volmd	DW	035H
	DW	017fH
voltbl	ENDS
;	COMDAT xdata
xdata	SEGMENT
$unwind$?dtor$0@?0??call@?$compute_to_string@Utvec4@glm@@F$0A@@detail@glm@@SA?AV?$basic_string@DU?$char_traits@D@std@@V?$allocator@D@2@@std@@AEBU?$tvec4@F$0A@@3@@Z@4HA DD 031001H
	DD	0700c4210H
	DD	0500bH
xdata	ENDS
;	COMDAT xdata
xdata	SEGMENT
$ip2state$?call@?$compute_to_string@Utvec4@glm@@F$0A@@detail@glm@@SA?AV?$basic_string@DU?$char_traits@D@std@@V?$allocator@D@2@@std@@AEBU?$tvec4@F$0A@@3@@Z DB 06H
	DB	00H
	DB	00H
	DB	'Y', 02H
	DB	02H
	DB	09H, 03H
	DB	00H
xdata	ENDS
;	COMDAT xdata
xdata	SEGMENT
$stateUnwindMap$?call@?$compute_to_string@Utvec4@glm@@F$0A@@detail@glm@@SA?AV?$basic_string@DU?$char_traits@D@std@@V?$allocator@D@2@@std@@AEBU?$tvec4@F$0A@@3@@Z DB 02H
	DB	0eH
	DD	imagerel ?dtor$0@?0??call@?$compute_to_string@Utvec4@glm@@F$0A@@detail@glm@@SA?AV?$basic_string@DU?$char_traits@D@std@@V?$allocator@D@2@@std@@AEBU?$tvec4@F$0A@@3@@Z@4HA
xdata	ENDS
;	COMDAT xdata
xdata	SEGMENT
$cppxdata$?call@?$compute_to_string@Utvec4@glm@@F$0A@@detail@glm@@SA?AV?$basic_string@DU?$char_traits@D@std@@V?$allocator@D@2@@std@@AEBU?$tvec4@F$0A@@3@@Z DB 028H
	DD	imagerel $stateUnwindMap$?call@?$compute_to_string@Utvec4@glm@@F$0A@@detail@glm@@SA?AV?$basic_string@DU?$char_traits@D@std@@V?$allocator@D@2@@std@@AEBU?$tvec4@F$0A@@3@@Z
	DD	imagerel $ip2state$?call@?$compute_to_string@Utvec4@glm@@F$0A@@detail@glm@@SA?AV?$basic_string@DU?$char_traits@D@std@@V?$allocator@D@2@@std@@AEBU?$tvec4@F$0A@@3@@Z
xdata	ENDS
;	COMDAT xdata
xdata	SEGMENT
$unwind$?call@?$compute_to_string@Utvec4@glm@@F$0A@@detail@glm@@SA?AV?$basic_string@DU?$char_traits@D@std@@V?$allocator@D@2@@std@@AEBU?$tvec4@F$0A@@3@@Z DD 033d19H
	DD	0160112H
	DD	0700bH
	DD	imagerel __GSHandlerCheck_EH4
	DD	imagerel $cppxdata$?call@?$compute_to_string@Utvec4@glm@@F$0A@@detail@glm@@SA?AV?$basic_string@DU?$char_traits@D@std@@V?$allocator@D@2@@std@@AEBU?$tvec4@F$0A@@3@@Z
	DD	0aaH
xdata	ENDS
;	COMDAT CONST
CONST	SEGMENT
?call@?$compute_to_string@Utvec4@glm@@F$0A@@detail@glm@@SA?AV?$basic_string@DU?$char_traits@D@std@@V?$allocator@D@2@@std@@AEBU?$tvec4@F$0A@@3@@Z$rtcName$0 DB 046H ; glm::detail::compute_to_string<glm::tvec4,short,0>::call
	DB	06fH
	DB	072H
	DB	06dH
	DB	061H
	DB	074H
	DB	053H
	DB	074H
	DB	072H
	DB	00H
	ORG $+6
?call@?$compute_to_string@Utvec4@glm@@F$0A@@detail@glm@@SA?AV?$basic_string@DU?$char_traits@D@std@@V?$allocator@D@2@@std@@AEBU?$tvec4@F$0A@@3@@Z$rtcVarDesc DD 058H ; glm::detail::compute_to_string<glm::tvec4,short,0>::call
	DD	028H
	DQ	FLAT:?call@?$compute_to_string@Utvec4@glm@@F$0A@@detail@glm@@SA?AV?$basic_string@DU?$char_traits@D@std@@V?$allocator@D@2@@std@@AEBU?$tvec4@F$0A@@3@@Z$rtcName$0
	ORG $+48
?call@?$compute_to_string@Utvec4@glm@@F$0A@@detail@glm@@SA?AV?$basic_string@DU?$char_traits@D@std@@V?$allocator@D@2@@std@@AEBU?$tvec4@F$0A@@3@@Z$rtcFrameData DD 01H ; glm::detail::compute_to_string<glm::tvec4,short,0>::call
	DD	00H
	DQ	FLAT:?call@?$compute_to_string@Utvec4@glm@@F$0A@@detail@glm@@SA?AV?$basic_string@DU?$char_traits@D@std@@V?$allocator@D@2@@std@@AEBU?$tvec4@F$0A@@3@@Z$rtcVarDesc
CONST	ENDS
;	COMDAT voltbl
voltbl	SEGMENT
_volmd	DB	00H
	DB	05H
voltbl	ENDS
;	COMDAT voltbl
voltbl	SEGMENT
_volmd	DW	035H
	DW	014eH
voltbl	ENDS
;	COMDAT xdata
xdata	SEGMENT
$unwind$?dtor$0@?0??call@?$compute_to_string@Utvec3@glm@@F$0A@@detail@glm@@SA?AV?$basic_string@DU?$char_traits@D@std@@V?$allocator@D@2@@std@@AEBU?$tvec3@F$0A@@3@@Z@4HA DD 031001H
	DD	0700c4210H
	DD	0500bH
xdata	ENDS
;	COMDAT xdata
xdata	SEGMENT
$ip2state$?call@?$compute_to_string@Utvec3@glm@@F$0A@@detail@glm@@SA?AV?$basic_string@DU?$char_traits@D@std@@V?$allocator@D@2@@std@@AEBU?$tvec3@F$0A@@3@@Z DB 06H
	DB	00H
	DB	00H
	DB	'1', 02H
	DB	02H
	DB	'm', 02H
	DB	00H
xdata	ENDS
;	COMDAT xdata
xdata	SEGMENT
$stateUnwindMap$?call@?$compute_to_string@Utvec3@glm@@F$0A@@detail@glm@@SA?AV?$basic_string@DU?$char_traits@D@std@@V?$allocator@D@2@@std@@AEBU?$tvec3@F$0A@@3@@Z DB 02H
	DB	0eH
	DD	imagerel ?dtor$0@?0??call@?$compute_to_string@Utvec3@glm@@F$0A@@detail@glm@@SA?AV?$basic_string@DU?$char_traits@D@std@@V?$allocator@D@2@@std@@AEBU?$tvec3@F$0A@@3@@Z@4HA
xdata	ENDS
;	COMDAT xdata
xdata	SEGMENT
$cppxdata$?call@?$compute_to_string@Utvec3@glm@@F$0A@@detail@glm@@SA?AV?$basic_string@DU?$char_traits@D@std@@V?$allocator@D@2@@std@@AEBU?$tvec3@F$0A@@3@@Z DB 028H
	DD	imagerel $stateUnwindMap$?call@?$compute_to_string@Utvec3@glm@@F$0A@@detail@glm@@SA?AV?$basic_string@DU?$char_traits@D@std@@V?$allocator@D@2@@std@@AEBU?$tvec3@F$0A@@3@@Z
	DD	imagerel $ip2state$?call@?$compute_to_string@Utvec3@glm@@F$0A@@detail@glm@@SA?AV?$basic_string@DU?$char_traits@D@std@@V?$allocator@D@2@@std@@AEBU?$tvec3@F$0A@@3@@Z
xdata	ENDS
;	COMDAT xdata
xdata	SEGMENT
$unwind$?call@?$compute_to_string@Utvec3@glm@@F$0A@@detail@glm@@SA?AV?$basic_string@DU?$char_traits@D@std@@V?$allocator@D@2@@std@@AEBU?$tvec3@F$0A@@3@@Z DD 033d19H
	DD	0140112H
	DD	0700bH
	DD	imagerel __GSHandlerCheck_EH4
	DD	imagerel $cppxdata$?call@?$compute_to_string@Utvec3@glm@@F$0A@@detail@glm@@SA?AV?$basic_string@DU?$char_traits@D@std@@V?$allocator@D@2@@std@@AEBU?$tvec3@F$0A@@3@@Z
	DD	092H
xdata	ENDS
;	COMDAT CONST
CONST	SEGMENT
?call@?$compute_to_string@Utvec3@glm@@F$0A@@detail@glm@@SA?AV?$basic_string@DU?$char_traits@D@std@@V?$allocator@D@2@@std@@AEBU?$tvec3@F$0A@@3@@Z$rtcName$0 DB 046H ; glm::detail::compute_to_string<glm::tvec3,short,0>::call
	DB	06fH
	DB	072H
	DB	06dH
	DB	061H
	DB	074H
	DB	053H
	DB	074H
	DB	072H
	DB	00H
	ORG $+6
?call@?$compute_to_string@Utvec3@glm@@F$0A@@detail@glm@@SA?AV?$basic_string@DU?$char_traits@D@std@@V?$allocator@D@2@@std@@AEBU?$tvec3@F$0A@@3@@Z$rtcVarDesc DD 048H ; glm::detail::compute_to_string<glm::tvec3,short,0>::call
	DD	028H
	DQ	FLAT:?call@?$compute_to_string@Utvec3@glm@@F$0A@@detail@glm@@SA?AV?$basic_string@DU?$char_traits@D@std@@V?$allocator@D@2@@std@@AEBU?$tvec3@F$0A@@3@@Z$rtcName$0
	ORG $+48
?call@?$compute_to_string@Utvec3@glm@@F$0A@@detail@glm@@SA?AV?$basic_string@DU?$char_traits@D@std@@V?$allocator@D@2@@std@@AEBU?$tvec3@F$0A@@3@@Z$rtcFrameData DD 01H ; glm::detail::compute_to_string<glm::tvec3,short,0>::call
	DD	00H
	DQ	FLAT:?call@?$compute_to_string@Utvec3@glm@@F$0A@@detail@glm@@SA?AV?$basic_string@DU?$char_traits@D@std@@V?$allocator@D@2@@std@@AEBU?$tvec3@F$0A@@3@@Z$rtcVarDesc
CONST	ENDS
;	COMDAT voltbl
voltbl	SEGMENT
_volmd	DB	00H
	DB	05H
voltbl	ENDS
;	COMDAT voltbl
voltbl	SEGMENT
_volmd	DW	035H
	DW	011dH
voltbl	ENDS
;	COMDAT xdata
xdata	SEGMENT
$unwind$?dtor$0@?0??call@?$compute_to_string@Utvec2@glm@@F$0A@@detail@glm@@SA?AV?$basic_string@DU?$char_traits@D@std@@V?$allocator@D@2@@std@@AEBU?$tvec2@F$0A@@3@@Z@4HA DD 031001H
	DD	0700c4210H
	DD	0500bH
xdata	ENDS
;	COMDAT xdata
xdata	SEGMENT
$ip2state$?call@?$compute_to_string@Utvec2@glm@@F$0A@@detail@glm@@SA?AV?$basic_string@DU?$char_traits@D@std@@V?$allocator@D@2@@std@@AEBU?$tvec2@F$0A@@3@@Z DB 06H
	DB	00H
	DB	00H
	DB	09H, 02H
	DB	02H
	DB	0e8H
	DB	00H
xdata	ENDS
;	COMDAT xdata
xdata	SEGMENT
$stateUnwindMap$?call@?$compute_to_string@Utvec2@glm@@F$0A@@detail@glm@@SA?AV?$basic_string@DU?$char_traits@D@std@@V?$allocator@D@2@@std@@AEBU?$tvec2@F$0A@@3@@Z DB 02H
	DB	0eH
	DD	imagerel ?dtor$0@?0??call@?$compute_to_string@Utvec2@glm@@F$0A@@detail@glm@@SA?AV?$basic_string@DU?$char_traits@D@std@@V?$allocator@D@2@@std@@AEBU?$tvec2@F$0A@@3@@Z@4HA
xdata	ENDS
;	COMDAT xdata
xdata	SEGMENT
$cppxdata$?call@?$compute_to_string@Utvec2@glm@@F$0A@@detail@glm@@SA?AV?$basic_string@DU?$char_traits@D@std@@V?$allocator@D@2@@std@@AEBU?$tvec2@F$0A@@3@@Z DB 028H
	DD	imagerel $stateUnwindMap$?call@?$compute_to_string@Utvec2@glm@@F$0A@@detail@glm@@SA?AV?$basic_string@DU?$char_traits@D@std@@V?$allocator@D@2@@std@@AEBU?$tvec2@F$0A@@3@@Z
	DD	imagerel $ip2state$?call@?$compute_to_string@Utvec2@glm@@F$0A@@detail@glm@@SA?AV?$basic_string@DU?$char_traits@D@std@@V?$allocator@D@2@@std@@AEBU?$tvec2@F$0A@@3@@Z
xdata	ENDS
;	COMDAT xdata
xdata	SEGMENT
$unwind$?call@?$compute_to_string@Utvec2@glm@@F$0A@@detail@glm@@SA?AV?$basic_string@DU?$char_traits@D@std@@V?$allocator@D@2@@std@@AEBU?$tvec2@F$0A@@3@@Z DD 033d19H
	DD	0140112H
	DD	0700bH
	DD	imagerel __GSHandlerCheck_EH4
	DD	imagerel $cppxdata$?call@?$compute_to_string@Utvec2@glm@@F$0A@@detail@glm@@SA?AV?$basic_string@DU?$char_traits@D@std@@V?$allocator@D@2@@std@@AEBU?$tvec2@F$0A@@3@@Z
	DD	092H
xdata	ENDS
;	COMDAT CONST
CONST	SEGMENT
?call@?$compute_to_string@Utvec2@glm@@F$0A@@detail@glm@@SA?AV?$basic_string@DU?$char_traits@D@std@@V?$allocator@D@2@@std@@AEBU?$tvec2@F$0A@@3@@Z$rtcName$0 DB 046H ; glm::detail::compute_to_string<glm::tvec2,short,0>::call
	DB	06fH
	DB	072H
	DB	06dH
	DB	061H
	DB	074H
	DB	053H
	DB	074H
	DB	072H
	DB	00H
	ORG $+6
?call@?$compute_to_string@Utvec2@glm@@F$0A@@detail@glm@@SA?AV?$basic_string@DU?$char_traits@D@std@@V?$allocator@D@2@@std@@AEBU?$tvec2@F$0A@@3@@Z$rtcVarDesc DD 048H ; glm::detail::compute_to_string<glm::tvec2,short,0>::call
	DD	028H
	DQ	FLAT:?call@?$compute_to_string@Utvec2@glm@@F$0A@@detail@glm@@SA?AV?$basic_string@DU?$char_traits@D@std@@V?$allocator@D@2@@std@@AEBU?$tvec2@F$0A@@3@@Z$rtcName$0
	ORG $+48
?call@?$compute_to_string@Utvec2@glm@@F$0A@@detail@glm@@SA?AV?$basic_string@DU?$char_traits@D@std@@V?$allocator@D@2@@std@@AEBU?$tvec2@F$0A@@3@@Z$rtcFrameData DD 01H ; glm::detail::compute_to_string<glm::tvec2,short,0>::call
	DD	00H
	DQ	FLAT:?call@?$compute_to_string@Utvec2@glm@@F$0A@@detail@glm@@SA?AV?$basic_string@DU?$char_traits@D@std@@V?$allocator@D@2@@std@@AEBU?$tvec2@F$0A@@3@@Z$rtcVarDesc
CONST	ENDS
;	COMDAT voltbl
voltbl	SEGMENT
_volmd	DB	00H
	DB	05H
voltbl	ENDS
;	COMDAT voltbl
voltbl	SEGMENT
_volmd	DW	035H
	DW	017fH
voltbl	ENDS
;	COMDAT xdata
xdata	SEGMENT
$unwind$?dtor$0@?0??call@?$compute_to_string@Utvec4@glm@@C$0A@@detail@glm@@SA?AV?$basic_string@DU?$char_traits@D@std@@V?$allocator@D@2@@std@@AEBU?$tvec4@C$0A@@3@@Z@4HA DD 031001H
	DD	0700c4210H
	DD	0500bH
xdata	ENDS
;	COMDAT xdata
xdata	SEGMENT
$ip2state$?call@?$compute_to_string@Utvec4@glm@@C$0A@@detail@glm@@SA?AV?$basic_string@DU?$char_traits@D@std@@V?$allocator@D@2@@std@@AEBU?$tvec4@C$0A@@3@@Z DB 06H
	DB	00H
	DB	00H
	DB	'Y', 02H
	DB	02H
	DB	09H, 03H
	DB	00H
xdata	ENDS
;	COMDAT xdata
xdata	SEGMENT
$stateUnwindMap$?call@?$compute_to_string@Utvec4@glm@@C$0A@@detail@glm@@SA?AV?$basic_string@DU?$char_traits@D@std@@V?$allocator@D@2@@std@@AEBU?$tvec4@C$0A@@3@@Z DB 02H
	DB	0eH
	DD	imagerel ?dtor$0@?0??call@?$compute_to_string@Utvec4@glm@@C$0A@@detail@glm@@SA?AV?$basic_string@DU?$char_traits@D@std@@V?$allocator@D@2@@std@@AEBU?$tvec4@C$0A@@3@@Z@4HA
xdata	ENDS
;	COMDAT xdata
xdata	SEGMENT
$cppxdata$?call@?$compute_to_string@Utvec4@glm@@C$0A@@detail@glm@@SA?AV?$basic_string@DU?$char_traits@D@std@@V?$allocator@D@2@@std@@AEBU?$tvec4@C$0A@@3@@Z DB 028H
	DD	imagerel $stateUnwindMap$?call@?$compute_to_string@Utvec4@glm@@C$0A@@detail@glm@@SA?AV?$basic_string@DU?$char_traits@D@std@@V?$allocator@D@2@@std@@AEBU?$tvec4@C$0A@@3@@Z
	DD	imagerel $ip2state$?call@?$compute_to_string@Utvec4@glm@@C$0A@@detail@glm@@SA?AV?$basic_string@DU?$char_traits@D@std@@V?$allocator@D@2@@std@@AEBU?$tvec4@C$0A@@3@@Z
xdata	ENDS
;	COMDAT xdata
xdata	SEGMENT
$unwind$?call@?$compute_to_string@Utvec4@glm@@C$0A@@detail@glm@@SA?AV?$basic_string@DU?$char_traits@D@std@@V?$allocator@D@2@@std@@AEBU?$tvec4@C$0A@@3@@Z DD 033d19H
	DD	0160112H
	DD	0700bH
	DD	imagerel __GSHandlerCheck_EH4
	DD	imagerel $cppxdata$?call@?$compute_to_string@Utvec4@glm@@C$0A@@detail@glm@@SA?AV?$basic_string@DU?$char_traits@D@std@@V?$allocator@D@2@@std@@AEBU?$tvec4@C$0A@@3@@Z
	DD	0aaH
xdata	ENDS
;	COMDAT CONST
CONST	SEGMENT
?call@?$compute_to_string@Utvec4@glm@@C$0A@@detail@glm@@SA?AV?$basic_string@DU?$char_traits@D@std@@V?$allocator@D@2@@std@@AEBU?$tvec4@C$0A@@3@@Z$rtcName$0 DB 046H ; glm::detail::compute_to_string<glm::tvec4,signed char,0>::call
	DB	06fH
	DB	072H
	DB	06dH
	DB	061H
	DB	074H
	DB	053H
	DB	074H
	DB	072H
	DB	00H
	ORG $+6
?call@?$compute_to_string@Utvec4@glm@@C$0A@@detail@glm@@SA?AV?$basic_string@DU?$char_traits@D@std@@V?$allocator@D@2@@std@@AEBU?$tvec4@C$0A@@3@@Z$rtcVarDesc DD 058H ; glm::detail::compute_to_string<glm::tvec4,signed char,0>::call
	DD	028H
	DQ	FLAT:?call@?$compute_to_string@Utvec4@glm@@C$0A@@detail@glm@@SA?AV?$basic_string@DU?$char_traits@D@std@@V?$allocator@D@2@@std@@AEBU?$tvec4@C$0A@@3@@Z$rtcName$0
	ORG $+48
?call@?$compute_to_string@Utvec4@glm@@C$0A@@detail@glm@@SA?AV?$basic_string@DU?$char_traits@D@std@@V?$allocator@D@2@@std@@AEBU?$tvec4@C$0A@@3@@Z$rtcFrameData DD 01H ; glm::detail::compute_to_string<glm::tvec4,signed char,0>::call
	DD	00H
	DQ	FLAT:?call@?$compute_to_string@Utvec4@glm@@C$0A@@detail@glm@@SA?AV?$basic_string@DU?$char_traits@D@std@@V?$allocator@D@2@@std@@AEBU?$tvec4@C$0A@@3@@Z$rtcVarDesc
CONST	ENDS
;	COMDAT voltbl
voltbl	SEGMENT
_volmd	DB	00H
	DB	05H
voltbl	ENDS
;	COMDAT voltbl
voltbl	SEGMENT
_volmd	DW	035H
	DW	014eH
voltbl	ENDS
;	COMDAT xdata
xdata	SEGMENT
$unwind$?dtor$0@?0??call@?$compute_to_string@Utvec3@glm@@C$0A@@detail@glm@@SA?AV?$basic_string@DU?$char_traits@D@std@@V?$allocator@D@2@@std@@AEBU?$tvec3@C$0A@@3@@Z@4HA DD 031001H
	DD	0700c4210H
	DD	0500bH
xdata	ENDS
;	COMDAT xdata
xdata	SEGMENT
$ip2state$?call@?$compute_to_string@Utvec3@glm@@C$0A@@detail@glm@@SA?AV?$basic_string@DU?$char_traits@D@std@@V?$allocator@D@2@@std@@AEBU?$tvec3@C$0A@@3@@Z DB 06H
	DB	00H
	DB	00H
	DB	'1', 02H
	DB	02H
	DB	'm', 02H
	DB	00H
xdata	ENDS
;	COMDAT xdata
xdata	SEGMENT
$stateUnwindMap$?call@?$compute_to_string@Utvec3@glm@@C$0A@@detail@glm@@SA?AV?$basic_string@DU?$char_traits@D@std@@V?$allocator@D@2@@std@@AEBU?$tvec3@C$0A@@3@@Z DB 02H
	DB	0eH
	DD	imagerel ?dtor$0@?0??call@?$compute_to_string@Utvec3@glm@@C$0A@@detail@glm@@SA?AV?$basic_string@DU?$char_traits@D@std@@V?$allocator@D@2@@std@@AEBU?$tvec3@C$0A@@3@@Z@4HA
xdata	ENDS
;	COMDAT xdata
xdata	SEGMENT
$cppxdata$?call@?$compute_to_string@Utvec3@glm@@C$0A@@detail@glm@@SA?AV?$basic_string@DU?$char_traits@D@std@@V?$allocator@D@2@@std@@AEBU?$tvec3@C$0A@@3@@Z DB 028H
	DD	imagerel $stateUnwindMap$?call@?$compute_to_string@Utvec3@glm@@C$0A@@detail@glm@@SA?AV?$basic_string@DU?$char_traits@D@std@@V?$allocator@D@2@@std@@AEBU?$tvec3@C$0A@@3@@Z
	DD	imagerel $ip2state$?call@?$compute_to_string@Utvec3@glm@@C$0A@@detail@glm@@SA?AV?$basic_string@DU?$char_traits@D@std@@V?$allocator@D@2@@std@@AEBU?$tvec3@C$0A@@3@@Z
xdata	ENDS
;	COMDAT xdata
xdata	SEGMENT
$unwind$?call@?$compute_to_string@Utvec3@glm@@C$0A@@detail@glm@@SA?AV?$basic_string@DU?$char_traits@D@std@@V?$allocator@D@2@@std@@AEBU?$tvec3@C$0A@@3@@Z DD 033d19H
	DD	0140112H
	DD	0700bH
	DD	imagerel __GSHandlerCheck_EH4
	DD	imagerel $cppxdata$?call@?$compute_to_string@Utvec3@glm@@C$0A@@detail@glm@@SA?AV?$basic_string@DU?$char_traits@D@std@@V?$allocator@D@2@@std@@AEBU?$tvec3@C$0A@@3@@Z
	DD	092H
xdata	ENDS
;	COMDAT CONST
CONST	SEGMENT
?call@?$compute_to_string@Utvec3@glm@@C$0A@@detail@glm@@SA?AV?$basic_string@DU?$char_traits@D@std@@V?$allocator@D@2@@std@@AEBU?$tvec3@C$0A@@3@@Z$rtcName$0 DB 046H ; glm::detail::compute_to_string<glm::tvec3,signed char,0>::call
	DB	06fH
	DB	072H
	DB	06dH
	DB	061H
	DB	074H
	DB	053H
	DB	074H
	DB	072H
	DB	00H
	ORG $+6
?call@?$compute_to_string@Utvec3@glm@@C$0A@@detail@glm@@SA?AV?$basic_string@DU?$char_traits@D@std@@V?$allocator@D@2@@std@@AEBU?$tvec3@C$0A@@3@@Z$rtcVarDesc DD 048H ; glm::detail::compute_to_string<glm::tvec3,signed char,0>::call
	DD	028H
	DQ	FLAT:?call@?$compute_to_string@Utvec3@glm@@C$0A@@detail@glm@@SA?AV?$basic_string@DU?$char_traits@D@std@@V?$allocator@D@2@@std@@AEBU?$tvec3@C$0A@@3@@Z$rtcName$0
	ORG $+48
?call@?$compute_to_string@Utvec3@glm@@C$0A@@detail@glm@@SA?AV?$basic_string@DU?$char_traits@D@std@@V?$allocator@D@2@@std@@AEBU?$tvec3@C$0A@@3@@Z$rtcFrameData DD 01H ; glm::detail::compute_to_string<glm::tvec3,signed char,0>::call
	DD	00H
	DQ	FLAT:?call@?$compute_to_string@Utvec3@glm@@C$0A@@detail@glm@@SA?AV?$basic_string@DU?$char_traits@D@std@@V?$allocator@D@2@@std@@AEBU?$tvec3@C$0A@@3@@Z$rtcVarDesc
CONST	ENDS
;	COMDAT voltbl
voltbl	SEGMENT
_volmd	DB	00H
	DB	05H
voltbl	ENDS
;	COMDAT voltbl
voltbl	SEGMENT
_volmd	DW	035H
	DW	011dH
voltbl	ENDS
;	COMDAT xdata
xdata	SEGMENT
$unwind$?dtor$0@?0??call@?$compute_to_string@Utvec2@glm@@C$0A@@detail@glm@@SA?AV?$basic_string@DU?$char_traits@D@std@@V?$allocator@D@2@@std@@AEBU?$tvec2@C$0A@@3@@Z@4HA DD 031001H
	DD	0700c4210H
	DD	0500bH
xdata	ENDS
;	COMDAT xdata
xdata	SEGMENT
$ip2state$?call@?$compute_to_string@Utvec2@glm@@C$0A@@detail@glm@@SA?AV?$basic_string@DU?$char_traits@D@std@@V?$allocator@D@2@@std@@AEBU?$tvec2@C$0A@@3@@Z DB 06H
	DB	00H
	DB	00H
	DB	09H, 02H
	DB	02H
	DB	0e8H
	DB	00H
xdata	ENDS
;	COMDAT xdata
xdata	SEGMENT
$stateUnwindMap$?call@?$compute_to_string@Utvec2@glm@@C$0A@@detail@glm@@SA?AV?$basic_string@DU?$char_traits@D@std@@V?$allocator@D@2@@std@@AEBU?$tvec2@C$0A@@3@@Z DB 02H
	DB	0eH
	DD	imagerel ?dtor$0@?0??call@?$compute_to_string@Utvec2@glm@@C$0A@@detail@glm@@SA?AV?$basic_string@DU?$char_traits@D@std@@V?$allocator@D@2@@std@@AEBU?$tvec2@C$0A@@3@@Z@4HA
xdata	ENDS
;	COMDAT xdata
xdata	SEGMENT
$cppxdata$?call@?$compute_to_string@Utvec2@glm@@C$0A@@detail@glm@@SA?AV?$basic_string@DU?$char_traits@D@std@@V?$allocator@D@2@@std@@AEBU?$tvec2@C$0A@@3@@Z DB 028H
	DD	imagerel $stateUnwindMap$?call@?$compute_to_string@Utvec2@glm@@C$0A@@detail@glm@@SA?AV?$basic_string@DU?$char_traits@D@std@@V?$allocator@D@2@@std@@AEBU?$tvec2@C$0A@@3@@Z
	DD	imagerel $ip2state$?call@?$compute_to_string@Utvec2@glm@@C$0A@@detail@glm@@SA?AV?$basic_string@DU?$char_traits@D@std@@V?$allocator@D@2@@std@@AEBU?$tvec2@C$0A@@3@@Z
xdata	ENDS
;	COMDAT xdata
xdata	SEGMENT
$unwind$?call@?$compute_to_string@Utvec2@glm@@C$0A@@detail@glm@@SA?AV?$basic_string@DU?$char_traits@D@std@@V?$allocator@D@2@@std@@AEBU?$tvec2@C$0A@@3@@Z DD 033d19H
	DD	0140112H
	DD	0700bH
	DD	imagerel __GSHandlerCheck_EH4
	DD	imagerel $cppxdata$?call@?$compute_to_string@Utvec2@glm@@C$0A@@detail@glm@@SA?AV?$basic_string@DU?$char_traits@D@std@@V?$allocator@D@2@@std@@AEBU?$tvec2@C$0A@@3@@Z
	DD	092H
xdata	ENDS
;	COMDAT CONST
CONST	SEGMENT
?call@?$compute_to_string@Utvec2@glm@@C$0A@@detail@glm@@SA?AV?$basic_string@DU?$char_traits@D@std@@V?$allocator@D@2@@std@@AEBU?$tvec2@C$0A@@3@@Z$rtcName$0 DB 046H ; glm::detail::compute_to_string<glm::tvec2,signed char,0>::call
	DB	06fH
	DB	072H
	DB	06dH
	DB	061H
	DB	074H
	DB	053H
	DB	074H
	DB	072H
	DB	00H
	ORG $+6
?call@?$compute_to_string@Utvec2@glm@@C$0A@@detail@glm@@SA?AV?$basic_string@DU?$char_traits@D@std@@V?$allocator@D@2@@std@@AEBU?$tvec2@C$0A@@3@@Z$rtcVarDesc DD 048H ; glm::detail::compute_to_string<glm::tvec2,signed char,0>::call
	DD	028H
	DQ	FLAT:?call@?$compute_to_string@Utvec2@glm@@C$0A@@detail@glm@@SA?AV?$basic_string@DU?$char_traits@D@std@@V?$allocator@D@2@@std@@AEBU?$tvec2@C$0A@@3@@Z$rtcName$0
	ORG $+48
?call@?$compute_to_string@Utvec2@glm@@C$0A@@detail@glm@@SA?AV?$basic_string@DU?$char_traits@D@std@@V?$allocator@D@2@@std@@AEBU?$tvec2@C$0A@@3@@Z$rtcFrameData DD 01H ; glm::detail::compute_to_string<glm::tvec2,signed char,0>::call
	DD	00H
	DQ	FLAT:?call@?$compute_to_string@Utvec2@glm@@C$0A@@detail@glm@@SA?AV?$basic_string@DU?$char_traits@D@std@@V?$allocator@D@2@@std@@AEBU?$tvec2@C$0A@@3@@Z$rtcVarDesc
CONST	ENDS
;	COMDAT voltbl
voltbl	SEGMENT
_volmd	DB	00H
	DB	05H
voltbl	ENDS
;	COMDAT voltbl
voltbl	SEGMENT
_volmd	DW	035H
	DW	017fH
voltbl	ENDS
;	COMDAT xdata
xdata	SEGMENT
$unwind$?dtor$0@?0??call@?$compute_to_string@Utvec4@glm@@H$0A@@detail@glm@@SA?AV?$basic_string@DU?$char_traits@D@std@@V?$allocator@D@2@@std@@AEBU?$tvec4@H$0A@@3@@Z@4HA DD 031001H
	DD	0700c4210H
	DD	0500bH
xdata	ENDS
;	COMDAT xdata
xdata	SEGMENT
$ip2state$?call@?$compute_to_string@Utvec4@glm@@H$0A@@detail@glm@@SA?AV?$basic_string@DU?$char_traits@D@std@@V?$allocator@D@2@@std@@AEBU?$tvec4@H$0A@@3@@Z DB 06H
	DB	00H
	DB	00H
	DB	'Y', 02H
	DB	02H
	DB	09H, 03H
	DB	00H
xdata	ENDS
;	COMDAT xdata
xdata	SEGMENT
$stateUnwindMap$?call@?$compute_to_string@Utvec4@glm@@H$0A@@detail@glm@@SA?AV?$basic_string@DU?$char_traits@D@std@@V?$allocator@D@2@@std@@AEBU?$tvec4@H$0A@@3@@Z DB 02H
	DB	0eH
	DD	imagerel ?dtor$0@?0??call@?$compute_to_string@Utvec4@glm@@H$0A@@detail@glm@@SA?AV?$basic_string@DU?$char_traits@D@std@@V?$allocator@D@2@@std@@AEBU?$tvec4@H$0A@@3@@Z@4HA
xdata	ENDS
;	COMDAT xdata
xdata	SEGMENT
$cppxdata$?call@?$compute_to_string@Utvec4@glm@@H$0A@@detail@glm@@SA?AV?$basic_string@DU?$char_traits@D@std@@V?$allocator@D@2@@std@@AEBU?$tvec4@H$0A@@3@@Z DB 028H
	DD	imagerel $stateUnwindMap$?call@?$compute_to_string@Utvec4@glm@@H$0A@@detail@glm@@SA?AV?$basic_string@DU?$char_traits@D@std@@V?$allocator@D@2@@std@@AEBU?$tvec4@H$0A@@3@@Z
	DD	imagerel $ip2state$?call@?$compute_to_string@Utvec4@glm@@H$0A@@detail@glm@@SA?AV?$basic_string@DU?$char_traits@D@std@@V?$allocator@D@2@@std@@AEBU?$tvec4@H$0A@@3@@Z
xdata	ENDS
;	COMDAT xdata
xdata	SEGMENT
$unwind$?call@?$compute_to_string@Utvec4@glm@@H$0A@@detail@glm@@SA?AV?$basic_string@DU?$char_traits@D@std@@V?$allocator@D@2@@std@@AEBU?$tvec4@H$0A@@3@@Z DD 033d19H
	DD	0180112H
	DD	0700bH
	DD	imagerel __GSHandlerCheck_EH4
	DD	imagerel $cppxdata$?call@?$compute_to_string@Utvec4@glm@@H$0A@@detail@glm@@SA?AV?$basic_string@DU?$char_traits@D@std@@V?$allocator@D@2@@std@@AEBU?$tvec4@H$0A@@3@@Z
	DD	0baH
xdata	ENDS
;	COMDAT CONST
CONST	SEGMENT
?call@?$compute_to_string@Utvec4@glm@@H$0A@@detail@glm@@SA?AV?$basic_string@DU?$char_traits@D@std@@V?$allocator@D@2@@std@@AEBU?$tvec4@H$0A@@3@@Z$rtcName$0 DB 046H ; glm::detail::compute_to_string<glm::tvec4,int,0>::call
	DB	06fH
	DB	072H
	DB	06dH
	DB	061H
	DB	074H
	DB	053H
	DB	074H
	DB	072H
	DB	00H
	ORG $+6
?call@?$compute_to_string@Utvec4@glm@@H$0A@@detail@glm@@SA?AV?$basic_string@DU?$char_traits@D@std@@V?$allocator@D@2@@std@@AEBU?$tvec4@H$0A@@3@@Z$rtcVarDesc DD 058H ; glm::detail::compute_to_string<glm::tvec4,int,0>::call
	DD	028H
	DQ	FLAT:?call@?$compute_to_string@Utvec4@glm@@H$0A@@detail@glm@@SA?AV?$basic_string@DU?$char_traits@D@std@@V?$allocator@D@2@@std@@AEBU?$tvec4@H$0A@@3@@Z$rtcName$0
	ORG $+48
?call@?$compute_to_string@Utvec4@glm@@H$0A@@detail@glm@@SA?AV?$basic_string@DU?$char_traits@D@std@@V?$allocator@D@2@@std@@AEBU?$tvec4@H$0A@@3@@Z$rtcFrameData DD 01H ; glm::detail::compute_to_string<glm::tvec4,int,0>::call
	DD	00H
	DQ	FLAT:?call@?$compute_to_string@Utvec4@glm@@H$0A@@detail@glm@@SA?AV?$basic_string@DU?$char_traits@D@std@@V?$allocator@D@2@@std@@AEBU?$tvec4@H$0A@@3@@Z$rtcVarDesc
CONST	ENDS
;	COMDAT voltbl
voltbl	SEGMENT
_volmd	DB	00H
	DB	05H
voltbl	ENDS
;	COMDAT voltbl
voltbl	SEGMENT
_volmd	DW	035H
	DW	014dH
voltbl	ENDS
;	COMDAT xdata
xdata	SEGMENT
$unwind$?dtor$0@?0??call@?$compute_to_string@Utvec3@glm@@H$0A@@detail@glm@@SA?AV?$basic_string@DU?$char_traits@D@std@@V?$allocator@D@2@@std@@AEBU?$tvec3@H$0A@@3@@Z@4HA DD 031001H
	DD	0700c4210H
	DD	0500bH
xdata	ENDS
;	COMDAT xdata
xdata	SEGMENT
$ip2state$?call@?$compute_to_string@Utvec3@glm@@H$0A@@detail@glm@@SA?AV?$basic_string@DU?$char_traits@D@std@@V?$allocator@D@2@@std@@AEBU?$tvec3@H$0A@@3@@Z DB 06H
	DB	00H
	DB	00H
	DB	'1', 02H
	DB	02H
	DB	'i', 02H
	DB	00H
xdata	ENDS
;	COMDAT xdata
xdata	SEGMENT
$stateUnwindMap$?call@?$compute_to_string@Utvec3@glm@@H$0A@@detail@glm@@SA?AV?$basic_string@DU?$char_traits@D@std@@V?$allocator@D@2@@std@@AEBU?$tvec3@H$0A@@3@@Z DB 02H
	DB	0eH
	DD	imagerel ?dtor$0@?0??call@?$compute_to_string@Utvec3@glm@@H$0A@@detail@glm@@SA?AV?$basic_string@DU?$char_traits@D@std@@V?$allocator@D@2@@std@@AEBU?$tvec3@H$0A@@3@@Z@4HA
xdata	ENDS
;	COMDAT xdata
xdata	SEGMENT
$cppxdata$?call@?$compute_to_string@Utvec3@glm@@H$0A@@detail@glm@@SA?AV?$basic_string@DU?$char_traits@D@std@@V?$allocator@D@2@@std@@AEBU?$tvec3@H$0A@@3@@Z DB 028H
	DD	imagerel $stateUnwindMap$?call@?$compute_to_string@Utvec3@glm@@H$0A@@detail@glm@@SA?AV?$basic_string@DU?$char_traits@D@std@@V?$allocator@D@2@@std@@AEBU?$tvec3@H$0A@@3@@Z
	DD	imagerel $ip2state$?call@?$compute_to_string@Utvec3@glm@@H$0A@@detail@glm@@SA?AV?$basic_string@DU?$char_traits@D@std@@V?$allocator@D@2@@std@@AEBU?$tvec3@H$0A@@3@@Z
xdata	ENDS
;	COMDAT xdata
xdata	SEGMENT
$unwind$?call@?$compute_to_string@Utvec3@glm@@H$0A@@detail@glm@@SA?AV?$basic_string@DU?$char_traits@D@std@@V?$allocator@D@2@@std@@AEBU?$tvec3@H$0A@@3@@Z DD 033d19H
	DD	0160112H
	DD	0700bH
	DD	imagerel __GSHandlerCheck_EH4
	DD	imagerel $cppxdata$?call@?$compute_to_string@Utvec3@glm@@H$0A@@detail@glm@@SA?AV?$basic_string@DU?$char_traits@D@std@@V?$allocator@D@2@@std@@AEBU?$tvec3@H$0A@@3@@Z
	DD	0a2H
xdata	ENDS
;	COMDAT CONST
CONST	SEGMENT
?call@?$compute_to_string@Utvec3@glm@@H$0A@@detail@glm@@SA?AV?$basic_string@DU?$char_traits@D@std@@V?$allocator@D@2@@std@@AEBU?$tvec3@H$0A@@3@@Z$rtcName$0 DB 046H ; glm::detail::compute_to_string<glm::tvec3,int,0>::call
	DB	06fH
	DB	072H
	DB	06dH
	DB	061H
	DB	074H
	DB	053H
	DB	074H
	DB	072H
	DB	00H
	ORG $+6
?call@?$compute_to_string@Utvec3@glm@@H$0A@@detail@glm@@SA?AV?$basic_string@DU?$char_traits@D@std@@V?$allocator@D@2@@std@@AEBU?$tvec3@H$0A@@3@@Z$rtcVarDesc DD 048H ; glm::detail::compute_to_string<glm::tvec3,int,0>::call
	DD	028H
	DQ	FLAT:?call@?$compute_to_string@Utvec3@glm@@H$0A@@detail@glm@@SA?AV?$basic_string@DU?$char_traits@D@std@@V?$allocator@D@2@@std@@AEBU?$tvec3@H$0A@@3@@Z$rtcName$0
	ORG $+48
?call@?$compute_to_string@Utvec3@glm@@H$0A@@detail@glm@@SA?AV?$basic_string@DU?$char_traits@D@std@@V?$allocator@D@2@@std@@AEBU?$tvec3@H$0A@@3@@Z$rtcFrameData DD 01H ; glm::detail::compute_to_string<glm::tvec3,int,0>::call
	DD	00H
	DQ	FLAT:?call@?$compute_to_string@Utvec3@glm@@H$0A@@detail@glm@@SA?AV?$basic_string@DU?$char_traits@D@std@@V?$allocator@D@2@@std@@AEBU?$tvec3@H$0A@@3@@Z$rtcVarDesc
CONST	ENDS
;	COMDAT voltbl
voltbl	SEGMENT
_volmd	DB	00H
	DB	05H
voltbl	ENDS
;	COMDAT voltbl
voltbl	SEGMENT
_volmd	DW	035H
	DW	011bH
voltbl	ENDS
;	COMDAT xdata
xdata	SEGMENT
$unwind$?dtor$0@?0??call@?$compute_to_string@Utvec2@glm@@H$0A@@detail@glm@@SA?AV?$basic_string@DU?$char_traits@D@std@@V?$allocator@D@2@@std@@AEBU?$tvec2@H$0A@@3@@Z@4HA DD 031001H
	DD	0700c4210H
	DD	0500bH
xdata	ENDS
;	COMDAT xdata
xdata	SEGMENT
$ip2state$?call@?$compute_to_string@Utvec2@glm@@H$0A@@detail@glm@@SA?AV?$basic_string@DU?$char_traits@D@std@@V?$allocator@D@2@@std@@AEBU?$tvec2@H$0A@@3@@Z DB 06H
	DB	00H
	DB	00H
	DB	09H, 02H
	DB	02H
	DB	0e4H
	DB	00H
xdata	ENDS
;	COMDAT xdata
xdata	SEGMENT
$stateUnwindMap$?call@?$compute_to_string@Utvec2@glm@@H$0A@@detail@glm@@SA?AV?$basic_string@DU?$char_traits@D@std@@V?$allocator@D@2@@std@@AEBU?$tvec2@H$0A@@3@@Z DB 02H
	DB	0eH
	DD	imagerel ?dtor$0@?0??call@?$compute_to_string@Utvec2@glm@@H$0A@@detail@glm@@SA?AV?$basic_string@DU?$char_traits@D@std@@V?$allocator@D@2@@std@@AEBU?$tvec2@H$0A@@3@@Z@4HA
xdata	ENDS
;	COMDAT xdata
xdata	SEGMENT
$cppxdata$?call@?$compute_to_string@Utvec2@glm@@H$0A@@detail@glm@@SA?AV?$basic_string@DU?$char_traits@D@std@@V?$allocator@D@2@@std@@AEBU?$tvec2@H$0A@@3@@Z DB 028H
	DD	imagerel $stateUnwindMap$?call@?$compute_to_string@Utvec2@glm@@H$0A@@detail@glm@@SA?AV?$basic_string@DU?$char_traits@D@std@@V?$allocator@D@2@@std@@AEBU?$tvec2@H$0A@@3@@Z
	DD	imagerel $ip2state$?call@?$compute_to_string@Utvec2@glm@@H$0A@@detail@glm@@SA?AV?$basic_string@DU?$char_traits@D@std@@V?$allocator@D@2@@std@@AEBU?$tvec2@H$0A@@3@@Z
xdata	ENDS
;	COMDAT xdata
xdata	SEGMENT
$unwind$?call@?$compute_to_string@Utvec2@glm@@H$0A@@detail@glm@@SA?AV?$basic_string@DU?$char_traits@D@std@@V?$allocator@D@2@@std@@AEBU?$tvec2@H$0A@@3@@Z DD 033d19H
	DD	0140112H
	DD	0700bH
	DD	imagerel __GSHandlerCheck_EH4
	DD	imagerel $cppxdata$?call@?$compute_to_string@Utvec2@glm@@H$0A@@detail@glm@@SA?AV?$basic_string@DU?$char_traits@D@std@@V?$allocator@D@2@@std@@AEBU?$tvec2@H$0A@@3@@Z
	DD	09aH
xdata	ENDS
;	COMDAT CONST
CONST	SEGMENT
?call@?$compute_to_string@Utvec2@glm@@H$0A@@detail@glm@@SA?AV?$basic_string@DU?$char_traits@D@std@@V?$allocator@D@2@@std@@AEBU?$tvec2@H$0A@@3@@Z$rtcName$0 DB 046H ; glm::detail::compute_to_string<glm::tvec2,int,0>::call
	DB	06fH
	DB	072H
	DB	06dH
	DB	061H
	DB	074H
	DB	053H
	DB	074H
	DB	072H
	DB	00H
	ORG $+6
?call@?$compute_to_string@Utvec2@glm@@H$0A@@detail@glm@@SA?AV?$basic_string@DU?$char_traits@D@std@@V?$allocator@D@2@@std@@AEBU?$tvec2@H$0A@@3@@Z$rtcVarDesc DD 048H ; glm::detail::compute_to_string<glm::tvec2,int,0>::call
	DD	028H
	DQ	FLAT:?call@?$compute_to_string@Utvec2@glm@@H$0A@@detail@glm@@SA?AV?$basic_string@DU?$char_traits@D@std@@V?$allocator@D@2@@std@@AEBU?$tvec2@H$0A@@3@@Z$rtcName$0
	ORG $+48
?call@?$compute_to_string@Utvec2@glm@@H$0A@@detail@glm@@SA?AV?$basic_string@DU?$char_traits@D@std@@V?$allocator@D@2@@std@@AEBU?$tvec2@H$0A@@3@@Z$rtcFrameData DD 01H ; glm::detail::compute_to_string<glm::tvec2,int,0>::call
	DD	00H
	DQ	FLAT:?call@?$compute_to_string@Utvec2@glm@@H$0A@@detail@glm@@SA?AV?$basic_string@DU?$char_traits@D@std@@V?$allocator@D@2@@std@@AEBU?$tvec2@H$0A@@3@@Z$rtcVarDesc
CONST	ENDS
;	COMDAT xdata
xdata	SEGMENT
$unwind$?call@?$compute_to_string@Utvec4@glm@@_N$0A@@detail@glm@@SA?AV?$basic_string@DU?$char_traits@D@std@@V?$allocator@D@2@@std@@AEBU?$tvec4@_N$0A@@3@@Z DD 020f01H
	DD	0700bb20fH
xdata	ENDS
;	COMDAT xdata
xdata	SEGMENT
$unwind$?call@?$compute_to_string@Utvec3@glm@@_N$0A@@detail@glm@@SA?AV?$basic_string@DU?$char_traits@D@std@@V?$allocator@D@2@@std@@AEBU?$tvec3@_N$0A@@3@@Z DD 020f01H
	DD	0700b920fH
xdata	ENDS
;	COMDAT xdata
xdata	SEGMENT
$unwind$?call@?$compute_to_string@Utvec2@glm@@_N$0A@@detail@glm@@SA?AV?$basic_string@DU?$char_traits@D@std@@V?$allocator@D@2@@std@@AEBU?$tvec2@_N$0A@@3@@Z DD 020f01H
	DD	0700b720fH
xdata	ENDS
;	COMDAT voltbl
voltbl	SEGMENT
_volmd	DB	00H
	DB	05H
voltbl	ENDS
;	COMDAT voltbl
voltbl	SEGMENT
_volmd	DW	035H
	DW	0193H
voltbl	ENDS
;	COMDAT xdata
xdata	SEGMENT
$unwind$?dtor$0@?0??call@?$compute_to_string@Utvec4@glm@@N$0A@@detail@glm@@SA?AV?$basic_string@DU?$char_traits@D@std@@V?$allocator@D@2@@std@@AEBU?$tvec4@N$0A@@3@@Z@4HA DD 031001H
	DD	0700c4210H
	DD	0500bH
xdata	ENDS
;	COMDAT xdata
xdata	SEGMENT
$ip2state$?call@?$compute_to_string@Utvec4@glm@@N$0A@@detail@glm@@SA?AV?$basic_string@DU?$char_traits@D@std@@V?$allocator@D@2@@std@@AEBU?$tvec4@N$0A@@3@@Z DB 06H
	DB	00H
	DB	00H
	DB	'Y', 02H
	DB	02H
	DB	'Y', 03H
	DB	00H
xdata	ENDS
;	COMDAT xdata
xdata	SEGMENT
$stateUnwindMap$?call@?$compute_to_string@Utvec4@glm@@N$0A@@detail@glm@@SA?AV?$basic_string@DU?$char_traits@D@std@@V?$allocator@D@2@@std@@AEBU?$tvec4@N$0A@@3@@Z DB 02H
	DB	0eH
	DD	imagerel ?dtor$0@?0??call@?$compute_to_string@Utvec4@glm@@N$0A@@detail@glm@@SA?AV?$basic_string@DU?$char_traits@D@std@@V?$allocator@D@2@@std@@AEBU?$tvec4@N$0A@@3@@Z@4HA
xdata	ENDS
;	COMDAT xdata
xdata	SEGMENT
$cppxdata$?call@?$compute_to_string@Utvec4@glm@@N$0A@@detail@glm@@SA?AV?$basic_string@DU?$char_traits@D@std@@V?$allocator@D@2@@std@@AEBU?$tvec4@N$0A@@3@@Z DB 028H
	DD	imagerel $stateUnwindMap$?call@?$compute_to_string@Utvec4@glm@@N$0A@@detail@glm@@SA?AV?$basic_string@DU?$char_traits@D@std@@V?$allocator@D@2@@std@@AEBU?$tvec4@N$0A@@3@@Z
	DD	imagerel $ip2state$?call@?$compute_to_string@Utvec4@glm@@N$0A@@detail@glm@@SA?AV?$basic_string@DU?$char_traits@D@std@@V?$allocator@D@2@@std@@AEBU?$tvec4@N$0A@@3@@Z
xdata	ENDS
;	COMDAT xdata
xdata	SEGMENT
$unwind$?call@?$compute_to_string@Utvec4@glm@@N$0A@@detail@glm@@SA?AV?$basic_string@DU?$char_traits@D@std@@V?$allocator@D@2@@std@@AEBU?$tvec4@N$0A@@3@@Z DD 033d19H
	DD	0180112H
	DD	0700bH
	DD	imagerel __GSHandlerCheck_EH4
	DD	imagerel $cppxdata$?call@?$compute_to_string@Utvec4@glm@@N$0A@@detail@glm@@SA?AV?$basic_string@DU?$char_traits@D@std@@V?$allocator@D@2@@std@@AEBU?$tvec4@N$0A@@3@@Z
	DD	0baH
xdata	ENDS
;	COMDAT CONST
CONST	SEGMENT
?call@?$compute_to_string@Utvec4@glm@@N$0A@@detail@glm@@SA?AV?$basic_string@DU?$char_traits@D@std@@V?$allocator@D@2@@std@@AEBU?$tvec4@N$0A@@3@@Z$rtcName$0 DB 046H ; glm::detail::compute_to_string<glm::tvec4,double,0>::call
	DB	06fH
	DB	072H
	DB	06dH
	DB	061H
	DB	074H
	DB	053H
	DB	074H
	DB	072H
	DB	00H
	ORG $+6
?call@?$compute_to_string@Utvec4@glm@@N$0A@@detail@glm@@SA?AV?$basic_string@DU?$char_traits@D@std@@V?$allocator@D@2@@std@@AEBU?$tvec4@N$0A@@3@@Z$rtcVarDesc DD 058H ; glm::detail::compute_to_string<glm::tvec4,double,0>::call
	DD	028H
	DQ	FLAT:?call@?$compute_to_string@Utvec4@glm@@N$0A@@detail@glm@@SA?AV?$basic_string@DU?$char_traits@D@std@@V?$allocator@D@2@@std@@AEBU?$tvec4@N$0A@@3@@Z$rtcName$0
	ORG $+48
?call@?$compute_to_string@Utvec4@glm@@N$0A@@detail@glm@@SA?AV?$basic_string@DU?$char_traits@D@std@@V?$allocator@D@2@@std@@AEBU?$tvec4@N$0A@@3@@Z$rtcFrameData DD 01H ; glm::detail::compute_to_string<glm::tvec4,double,0>::call
	DD	00H
	DQ	FLAT:?call@?$compute_to_string@Utvec4@glm@@N$0A@@detail@glm@@SA?AV?$basic_string@DU?$char_traits@D@std@@V?$allocator@D@2@@std@@AEBU?$tvec4@N$0A@@3@@Z$rtcVarDesc
CONST	ENDS
;	COMDAT voltbl
voltbl	SEGMENT
_volmd	DB	00H
	DB	05H
voltbl	ENDS
;	COMDAT voltbl
voltbl	SEGMENT
_volmd	DW	035H
	DW	015dH
voltbl	ENDS
;	COMDAT xdata
xdata	SEGMENT
$unwind$?dtor$0@?0??call@?$compute_to_string@Utvec3@glm@@N$0A@@detail@glm@@SA?AV?$basic_string@DU?$char_traits@D@std@@V?$allocator@D@2@@std@@AEBU?$tvec3@N$0A@@3@@Z@4HA DD 031001H
	DD	0700c4210H
	DD	0500bH
xdata	ENDS
;	COMDAT xdata
xdata	SEGMENT
$ip2state$?call@?$compute_to_string@Utvec3@glm@@N$0A@@detail@glm@@SA?AV?$basic_string@DU?$char_traits@D@std@@V?$allocator@D@2@@std@@AEBU?$tvec3@N$0A@@3@@Z DB 06H
	DB	00H
	DB	00H
	DB	'1', 02H
	DB	02H
	DB	0a9H, 02H
	DB	00H
xdata	ENDS
;	COMDAT xdata
xdata	SEGMENT
$stateUnwindMap$?call@?$compute_to_string@Utvec3@glm@@N$0A@@detail@glm@@SA?AV?$basic_string@DU?$char_traits@D@std@@V?$allocator@D@2@@std@@AEBU?$tvec3@N$0A@@3@@Z DB 02H
	DB	0eH
	DD	imagerel ?dtor$0@?0??call@?$compute_to_string@Utvec3@glm@@N$0A@@detail@glm@@SA?AV?$basic_string@DU?$char_traits@D@std@@V?$allocator@D@2@@std@@AEBU?$tvec3@N$0A@@3@@Z@4HA
xdata	ENDS
;	COMDAT xdata
xdata	SEGMENT
$cppxdata$?call@?$compute_to_string@Utvec3@glm@@N$0A@@detail@glm@@SA?AV?$basic_string@DU?$char_traits@D@std@@V?$allocator@D@2@@std@@AEBU?$tvec3@N$0A@@3@@Z DB 028H
	DD	imagerel $stateUnwindMap$?call@?$compute_to_string@Utvec3@glm@@N$0A@@detail@glm@@SA?AV?$basic_string@DU?$char_traits@D@std@@V?$allocator@D@2@@std@@AEBU?$tvec3@N$0A@@3@@Z
	DD	imagerel $ip2state$?call@?$compute_to_string@Utvec3@glm@@N$0A@@detail@glm@@SA?AV?$basic_string@DU?$char_traits@D@std@@V?$allocator@D@2@@std@@AEBU?$tvec3@N$0A@@3@@Z
xdata	ENDS
;	COMDAT xdata
xdata	SEGMENT
$unwind$?call@?$compute_to_string@Utvec3@glm@@N$0A@@detail@glm@@SA?AV?$basic_string@DU?$char_traits@D@std@@V?$allocator@D@2@@std@@AEBU?$tvec3@N$0A@@3@@Z DD 033d19H
	DD	0160112H
	DD	0700bH
	DD	imagerel __GSHandlerCheck_EH4
	DD	imagerel $cppxdata$?call@?$compute_to_string@Utvec3@glm@@N$0A@@detail@glm@@SA?AV?$basic_string@DU?$char_traits@D@std@@V?$allocator@D@2@@std@@AEBU?$tvec3@N$0A@@3@@Z
	DD	0a2H
xdata	ENDS
;	COMDAT CONST
CONST	SEGMENT
?call@?$compute_to_string@Utvec3@glm@@N$0A@@detail@glm@@SA?AV?$basic_string@DU?$char_traits@D@std@@V?$allocator@D@2@@std@@AEBU?$tvec3@N$0A@@3@@Z$rtcName$0 DB 046H ; glm::detail::compute_to_string<glm::tvec3,double,0>::call
	DB	06fH
	DB	072H
	DB	06dH
	DB	061H
	DB	074H
	DB	053H
	DB	074H
	DB	072H
	DB	00H
	ORG $+6
?call@?$compute_to_string@Utvec3@glm@@N$0A@@detail@glm@@SA?AV?$basic_string@DU?$char_traits@D@std@@V?$allocator@D@2@@std@@AEBU?$tvec3@N$0A@@3@@Z$rtcVarDesc DD 048H ; glm::detail::compute_to_string<glm::tvec3,double,0>::call
	DD	028H
	DQ	FLAT:?call@?$compute_to_string@Utvec3@glm@@N$0A@@detail@glm@@SA?AV?$basic_string@DU?$char_traits@D@std@@V?$allocator@D@2@@std@@AEBU?$tvec3@N$0A@@3@@Z$rtcName$0
	ORG $+48
?call@?$compute_to_string@Utvec3@glm@@N$0A@@detail@glm@@SA?AV?$basic_string@DU?$char_traits@D@std@@V?$allocator@D@2@@std@@AEBU?$tvec3@N$0A@@3@@Z$rtcFrameData DD 01H ; glm::detail::compute_to_string<glm::tvec3,double,0>::call
	DD	00H
	DQ	FLAT:?call@?$compute_to_string@Utvec3@glm@@N$0A@@detail@glm@@SA?AV?$basic_string@DU?$char_traits@D@std@@V?$allocator@D@2@@std@@AEBU?$tvec3@N$0A@@3@@Z$rtcVarDesc
CONST	ENDS
;	COMDAT voltbl
voltbl	SEGMENT
_volmd	DB	00H
	DB	05H
voltbl	ENDS
;	COMDAT voltbl
voltbl	SEGMENT
_volmd	DW	035H
	DW	0127H
voltbl	ENDS
;	COMDAT xdata
xdata	SEGMENT
$unwind$?dtor$0@?0??call@?$compute_to_string@Utvec2@glm@@N$0A@@detail@glm@@SA?AV?$basic_string@DU?$char_traits@D@std@@V?$allocator@D@2@@std@@AEBU?$tvec2@N$0A@@3@@Z@4HA DD 031001H
	DD	0700c4210H
	DD	0500bH
xdata	ENDS
;	COMDAT xdata
xdata	SEGMENT
$ip2state$?call@?$compute_to_string@Utvec2@glm@@N$0A@@detail@glm@@SA?AV?$basic_string@DU?$char_traits@D@std@@V?$allocator@D@2@@std@@AEBU?$tvec2@N$0A@@3@@Z DB 06H
	DB	00H
	DB	00H
	DB	09H, 02H
	DB	02H
	DB	0fcH
	DB	00H
xdata	ENDS
;	COMDAT xdata
xdata	SEGMENT
$stateUnwindMap$?call@?$compute_to_string@Utvec2@glm@@N$0A@@detail@glm@@SA?AV?$basic_string@DU?$char_traits@D@std@@V?$allocator@D@2@@std@@AEBU?$tvec2@N$0A@@3@@Z DB 02H
	DB	0eH
	DD	imagerel ?dtor$0@?0??call@?$compute_to_string@Utvec2@glm@@N$0A@@detail@glm@@SA?AV?$basic_string@DU?$char_traits@D@std@@V?$allocator@D@2@@std@@AEBU?$tvec2@N$0A@@3@@Z@4HA
xdata	ENDS
;	COMDAT xdata
xdata	SEGMENT
$cppxdata$?call@?$compute_to_string@Utvec2@glm@@N$0A@@detail@glm@@SA?AV?$basic_string@DU?$char_traits@D@std@@V?$allocator@D@2@@std@@AEBU?$tvec2@N$0A@@3@@Z DB 028H
	DD	imagerel $stateUnwindMap$?call@?$compute_to_string@Utvec2@glm@@N$0A@@detail@glm@@SA?AV?$basic_string@DU?$char_traits@D@std@@V?$allocator@D@2@@std@@AEBU?$tvec2@N$0A@@3@@Z
	DD	imagerel $ip2state$?call@?$compute_to_string@Utvec2@glm@@N$0A@@detail@glm@@SA?AV?$basic_string@DU?$char_traits@D@std@@V?$allocator@D@2@@std@@AEBU?$tvec2@N$0A@@3@@Z
xdata	ENDS
;	COMDAT xdata
xdata	SEGMENT
$unwind$?call@?$compute_to_string@Utvec2@glm@@N$0A@@detail@glm@@SA?AV?$basic_string@DU?$char_traits@D@std@@V?$allocator@D@2@@std@@AEBU?$tvec2@N$0A@@3@@Z DD 033d19H
	DD	0140112H
	DD	0700bH
	DD	imagerel __GSHandlerCheck_EH4
	DD	imagerel $cppxdata$?call@?$compute_to_string@Utvec2@glm@@N$0A@@detail@glm@@SA?AV?$basic_string@DU?$char_traits@D@std@@V?$allocator@D@2@@std@@AEBU?$tvec2@N$0A@@3@@Z
	DD	09aH
xdata	ENDS
;	COMDAT CONST
CONST	SEGMENT
?call@?$compute_to_string@Utvec2@glm@@N$0A@@detail@glm@@SA?AV?$basic_string@DU?$char_traits@D@std@@V?$allocator@D@2@@std@@AEBU?$tvec2@N$0A@@3@@Z$rtcName$0 DB 046H ; glm::detail::compute_to_string<glm::tvec2,double,0>::call
	DB	06fH
	DB	072H
	DB	06dH
	DB	061H
	DB	074H
	DB	053H
	DB	074H
	DB	072H
	DB	00H
	ORG $+6
?call@?$compute_to_string@Utvec2@glm@@N$0A@@detail@glm@@SA?AV?$basic_string@DU?$char_traits@D@std@@V?$allocator@D@2@@std@@AEBU?$tvec2@N$0A@@3@@Z$rtcVarDesc DD 048H ; glm::detail::compute_to_string<glm::tvec2,double,0>::call
	DD	028H
	DQ	FLAT:?call@?$compute_to_string@Utvec2@glm@@N$0A@@detail@glm@@SA?AV?$basic_string@DU?$char_traits@D@std@@V?$allocator@D@2@@std@@AEBU?$tvec2@N$0A@@3@@Z$rtcName$0
	ORG $+48
?call@?$compute_to_string@Utvec2@glm@@N$0A@@detail@glm@@SA?AV?$basic_string@DU?$char_traits@D@std@@V?$allocator@D@2@@std@@AEBU?$tvec2@N$0A@@3@@Z$rtcFrameData DD 01H ; glm::detail::compute_to_string<glm::tvec2,double,0>::call
	DD	00H
	DQ	FLAT:?call@?$compute_to_string@Utvec2@glm@@N$0A@@detail@glm@@SA?AV?$basic_string@DU?$char_traits@D@std@@V?$allocator@D@2@@std@@AEBU?$tvec2@N$0A@@3@@Z$rtcVarDesc
CONST	ENDS
;	COMDAT voltbl
voltbl	SEGMENT
_volmd	DB	00H
	DB	05H
voltbl	ENDS
;	COMDAT voltbl
voltbl	SEGMENT
_volmd	DW	035H
	DW	01a1H
voltbl	ENDS
;	COMDAT xdata
xdata	SEGMENT
$unwind$?dtor$0@?0??call@?$compute_to_string@Utvec4@glm@@M$0A@@detail@glm@@SA?AV?$basic_string@DU?$char_traits@D@std@@V?$allocator@D@2@@std@@AEBU?$tvec4@M$0A@@3@@Z@4HA DD 031001H
	DD	0700c4210H
	DD	0500bH
xdata	ENDS
;	COMDAT xdata
xdata	SEGMENT
$ip2state$?call@?$compute_to_string@Utvec4@glm@@M$0A@@detail@glm@@SA?AV?$basic_string@DU?$char_traits@D@std@@V?$allocator@D@2@@std@@AEBU?$tvec4@M$0A@@3@@Z DB 06H
	DB	00H
	DB	00H
	DB	'Y', 02H
	DB	02H
	DB	091H, 03H
	DB	00H
xdata	ENDS
;	COMDAT xdata
xdata	SEGMENT
$stateUnwindMap$?call@?$compute_to_string@Utvec4@glm@@M$0A@@detail@glm@@SA?AV?$basic_string@DU?$char_traits@D@std@@V?$allocator@D@2@@std@@AEBU?$tvec4@M$0A@@3@@Z DB 02H
	DB	0eH
	DD	imagerel ?dtor$0@?0??call@?$compute_to_string@Utvec4@glm@@M$0A@@detail@glm@@SA?AV?$basic_string@DU?$char_traits@D@std@@V?$allocator@D@2@@std@@AEBU?$tvec4@M$0A@@3@@Z@4HA
xdata	ENDS
;	COMDAT xdata
xdata	SEGMENT
$cppxdata$?call@?$compute_to_string@Utvec4@glm@@M$0A@@detail@glm@@SA?AV?$basic_string@DU?$char_traits@D@std@@V?$allocator@D@2@@std@@AEBU?$tvec4@M$0A@@3@@Z DB 028H
	DD	imagerel $stateUnwindMap$?call@?$compute_to_string@Utvec4@glm@@M$0A@@detail@glm@@SA?AV?$basic_string@DU?$char_traits@D@std@@V?$allocator@D@2@@std@@AEBU?$tvec4@M$0A@@3@@Z
	DD	imagerel $ip2state$?call@?$compute_to_string@Utvec4@glm@@M$0A@@detail@glm@@SA?AV?$basic_string@DU?$char_traits@D@std@@V?$allocator@D@2@@std@@AEBU?$tvec4@M$0A@@3@@Z
xdata	ENDS
;	COMDAT xdata
xdata	SEGMENT
$unwind$?call@?$compute_to_string@Utvec4@glm@@M$0A@@detail@glm@@SA?AV?$basic_string@DU?$char_traits@D@std@@V?$allocator@D@2@@std@@AEBU?$tvec4@M$0A@@3@@Z DD 033d19H
	DD	0180112H
	DD	0700bH
	DD	imagerel __GSHandlerCheck_EH4
	DD	imagerel $cppxdata$?call@?$compute_to_string@Utvec4@glm@@M$0A@@detail@glm@@SA?AV?$basic_string@DU?$char_traits@D@std@@V?$allocator@D@2@@std@@AEBU?$tvec4@M$0A@@3@@Z
	DD	0baH
xdata	ENDS
;	COMDAT CONST
CONST	SEGMENT
?call@?$compute_to_string@Utvec4@glm@@M$0A@@detail@glm@@SA?AV?$basic_string@DU?$char_traits@D@std@@V?$allocator@D@2@@std@@AEBU?$tvec4@M$0A@@3@@Z$rtcName$0 DB 046H ; glm::detail::compute_to_string<glm::tvec4,float,0>::call
	DB	06fH
	DB	072H
	DB	06dH
	DB	061H
	DB	074H
	DB	053H
	DB	074H
	DB	072H
	DB	00H
	ORG $+6
?call@?$compute_to_string@Utvec4@glm@@M$0A@@detail@glm@@SA?AV?$basic_string@DU?$char_traits@D@std@@V?$allocator@D@2@@std@@AEBU?$tvec4@M$0A@@3@@Z$rtcVarDesc DD 058H ; glm::detail::compute_to_string<glm::tvec4,float,0>::call
	DD	028H
	DQ	FLAT:?call@?$compute_to_string@Utvec4@glm@@M$0A@@detail@glm@@SA?AV?$basic_string@DU?$char_traits@D@std@@V?$allocator@D@2@@std@@AEBU?$tvec4@M$0A@@3@@Z$rtcName$0
	ORG $+48
?call@?$compute_to_string@Utvec4@glm@@M$0A@@detail@glm@@SA?AV?$basic_string@DU?$char_traits@D@std@@V?$allocator@D@2@@std@@AEBU?$tvec4@M$0A@@3@@Z$rtcFrameData DD 01H ; glm::detail::compute_to_string<glm::tvec4,float,0>::call
	DD	00H
	DQ	FLAT:?call@?$compute_to_string@Utvec4@glm@@M$0A@@detail@glm@@SA?AV?$basic_string@DU?$char_traits@D@std@@V?$allocator@D@2@@std@@AEBU?$tvec4@M$0A@@3@@Z$rtcVarDesc
CONST	ENDS
;	COMDAT voltbl
voltbl	SEGMENT
_volmd	DB	00H
	DB	05H
voltbl	ENDS
;	COMDAT voltbl
voltbl	SEGMENT
_volmd	DW	035H
	DW	0169H
voltbl	ENDS
;	COMDAT xdata
xdata	SEGMENT
$unwind$?dtor$0@?0??call@?$compute_to_string@Utvec3@glm@@M$0A@@detail@glm@@SA?AV?$basic_string@DU?$char_traits@D@std@@V?$allocator@D@2@@std@@AEBU?$tvec3@M$0A@@3@@Z@4HA DD 031001H
	DD	0700c4210H
	DD	0500bH
xdata	ENDS
;	COMDAT xdata
xdata	SEGMENT
$ip2state$?call@?$compute_to_string@Utvec3@glm@@M$0A@@detail@glm@@SA?AV?$basic_string@DU?$char_traits@D@std@@V?$allocator@D@2@@std@@AEBU?$tvec3@M$0A@@3@@Z DB 06H
	DB	00H
	DB	00H
	DB	'1', 02H
	DB	02H
	DB	0d9H, 02H
	DB	00H
xdata	ENDS
;	COMDAT xdata
xdata	SEGMENT
$stateUnwindMap$?call@?$compute_to_string@Utvec3@glm@@M$0A@@detail@glm@@SA?AV?$basic_string@DU?$char_traits@D@std@@V?$allocator@D@2@@std@@AEBU?$tvec3@M$0A@@3@@Z DB 02H
	DB	0eH
	DD	imagerel ?dtor$0@?0??call@?$compute_to_string@Utvec3@glm@@M$0A@@detail@glm@@SA?AV?$basic_string@DU?$char_traits@D@std@@V?$allocator@D@2@@std@@AEBU?$tvec3@M$0A@@3@@Z@4HA
xdata	ENDS
;	COMDAT xdata
xdata	SEGMENT
$cppxdata$?call@?$compute_to_string@Utvec3@glm@@M$0A@@detail@glm@@SA?AV?$basic_string@DU?$char_traits@D@std@@V?$allocator@D@2@@std@@AEBU?$tvec3@M$0A@@3@@Z DB 028H
	DD	imagerel $stateUnwindMap$?call@?$compute_to_string@Utvec3@glm@@M$0A@@detail@glm@@SA?AV?$basic_string@DU?$char_traits@D@std@@V?$allocator@D@2@@std@@AEBU?$tvec3@M$0A@@3@@Z
	DD	imagerel $ip2state$?call@?$compute_to_string@Utvec3@glm@@M$0A@@detail@glm@@SA?AV?$basic_string@DU?$char_traits@D@std@@V?$allocator@D@2@@std@@AEBU?$tvec3@M$0A@@3@@Z
xdata	ENDS
;	COMDAT xdata
xdata	SEGMENT
$unwind$?call@?$compute_to_string@Utvec3@glm@@M$0A@@detail@glm@@SA?AV?$basic_string@DU?$char_traits@D@std@@V?$allocator@D@2@@std@@AEBU?$tvec3@M$0A@@3@@Z DD 033d19H
	DD	0160112H
	DD	0700bH
	DD	imagerel __GSHandlerCheck_EH4
	DD	imagerel $cppxdata$?call@?$compute_to_string@Utvec3@glm@@M$0A@@detail@glm@@SA?AV?$basic_string@DU?$char_traits@D@std@@V?$allocator@D@2@@std@@AEBU?$tvec3@M$0A@@3@@Z
	DD	0a2H
xdata	ENDS
;	COMDAT CONST
CONST	SEGMENT
?call@?$compute_to_string@Utvec3@glm@@M$0A@@detail@glm@@SA?AV?$basic_string@DU?$char_traits@D@std@@V?$allocator@D@2@@std@@AEBU?$tvec3@M$0A@@3@@Z$rtcName$0 DB 046H ; glm::detail::compute_to_string<glm::tvec3,float,0>::call
	DB	06fH
	DB	072H
	DB	06dH
	DB	061H
	DB	074H
	DB	053H
	DB	074H
	DB	072H
	DB	00H
	ORG $+6
?call@?$compute_to_string@Utvec3@glm@@M$0A@@detail@glm@@SA?AV?$basic_string@DU?$char_traits@D@std@@V?$allocator@D@2@@std@@AEBU?$tvec3@M$0A@@3@@Z$rtcVarDesc DD 048H ; glm::detail::compute_to_string<glm::tvec3,float,0>::call
	DD	028H
	DQ	FLAT:?call@?$compute_to_string@Utvec3@glm@@M$0A@@detail@glm@@SA?AV?$basic_string@DU?$char_traits@D@std@@V?$allocator@D@2@@std@@AEBU?$tvec3@M$0A@@3@@Z$rtcName$0
	ORG $+48
?call@?$compute_to_string@Utvec3@glm@@M$0A@@detail@glm@@SA?AV?$basic_string@DU?$char_traits@D@std@@V?$allocator@D@2@@std@@AEBU?$tvec3@M$0A@@3@@Z$rtcFrameData DD 01H ; glm::detail::compute_to_string<glm::tvec3,float,0>::call
	DD	00H
	DQ	FLAT:?call@?$compute_to_string@Utvec3@glm@@M$0A@@detail@glm@@SA?AV?$basic_string@DU?$char_traits@D@std@@V?$allocator@D@2@@std@@AEBU?$tvec3@M$0A@@3@@Z$rtcVarDesc
CONST	ENDS
;	COMDAT xdata
xdata	SEGMENT
$unwind$??$?8DU?$char_traits@D@std@@V?$allocator@D@1@@std@@YA_NAEBV?$basic_string@DU?$char_traits@D@std@@V?$allocator@D@2@@0@0@Z DD 020f01H
	DD	0700b320fH
xdata	ENDS
;	COMDAT voltbl
voltbl	SEGMENT
_volmd	DB	00H
	DB	05H
voltbl	ENDS
;	COMDAT voltbl
voltbl	SEGMENT
_volmd	DW	035H
	DW	0131H
voltbl	ENDS
;	COMDAT xdata
xdata	SEGMENT
$unwind$?dtor$0@?0??call@?$compute_to_string@Utvec2@glm@@M$0A@@detail@glm@@SA?AV?$basic_string@DU?$char_traits@D@std@@V?$allocator@D@2@@std@@AEBU?$tvec2@M$0A@@3@@Z@4HA DD 031001H
	DD	0700c4210H
	DD	0500bH
xdata	ENDS
;	COMDAT xdata
xdata	SEGMENT
$ip2state$?call@?$compute_to_string@Utvec2@glm@@M$0A@@detail@glm@@SA?AV?$basic_string@DU?$char_traits@D@std@@V?$allocator@D@2@@std@@AEBU?$tvec2@M$0A@@3@@Z DB 06H
	DB	00H
	DB	00H
	DB	09H, 02H
	DB	02H
	DB	'!', 02H
	DB	00H
xdata	ENDS
;	COMDAT xdata
xdata	SEGMENT
$stateUnwindMap$?call@?$compute_to_string@Utvec2@glm@@M$0A@@detail@glm@@SA?AV?$basic_string@DU?$char_traits@D@std@@V?$allocator@D@2@@std@@AEBU?$tvec2@M$0A@@3@@Z DB 02H
	DB	0eH
	DD	imagerel ?dtor$0@?0??call@?$compute_to_string@Utvec2@glm@@M$0A@@detail@glm@@SA?AV?$basic_string@DU?$char_traits@D@std@@V?$allocator@D@2@@std@@AEBU?$tvec2@M$0A@@3@@Z@4HA
xdata	ENDS
;	COMDAT xdata
xdata	SEGMENT
$cppxdata$?call@?$compute_to_string@Utvec2@glm@@M$0A@@detail@glm@@SA?AV?$basic_string@DU?$char_traits@D@std@@V?$allocator@D@2@@std@@AEBU?$tvec2@M$0A@@3@@Z DB 028H
	DD	imagerel $stateUnwindMap$?call@?$compute_to_string@Utvec2@glm@@M$0A@@detail@glm@@SA?AV?$basic_string@DU?$char_traits@D@std@@V?$allocator@D@2@@std@@AEBU?$tvec2@M$0A@@3@@Z
	DD	imagerel $ip2state$?call@?$compute_to_string@Utvec2@glm@@M$0A@@detail@glm@@SA?AV?$basic_string@DU?$char_traits@D@std@@V?$allocator@D@2@@std@@AEBU?$tvec2@M$0A@@3@@Z
xdata	ENDS
;	COMDAT xdata
xdata	SEGMENT
$unwind$?call@?$compute_to_string@Utvec2@glm@@M$0A@@detail@glm@@SA?AV?$basic_string@DU?$char_traits@D@std@@V?$allocator@D@2@@std@@AEBU?$tvec2@M$0A@@3@@Z DD 033d19H
	DD	0140112H
	DD	0700bH
	DD	imagerel __GSHandlerCheck_EH4
	DD	imagerel $cppxdata$?call@?$compute_to_string@Utvec2@glm@@M$0A@@detail@glm@@SA?AV?$basic_string@DU?$char_traits@D@std@@V?$allocator@D@2@@std@@AEBU?$tvec2@M$0A@@3@@Z
	DD	09aH
xdata	ENDS
;	COMDAT CONST
CONST	SEGMENT
?call@?$compute_to_string@Utvec2@glm@@M$0A@@detail@glm@@SA?AV?$basic_string@DU?$char_traits@D@std@@V?$allocator@D@2@@std@@AEBU?$tvec2@M$0A@@3@@Z$rtcName$0 DB 046H ; glm::detail::compute_to_string<glm::tvec2,float,0>::call
	DB	06fH
	DB	072H
	DB	06dH
	DB	061H
	DB	074H
	DB	053H
	DB	074H
	DB	072H
	DB	00H
	ORG $+6
?call@?$compute_to_string@Utvec2@glm@@M$0A@@detail@glm@@SA?AV?$basic_string@DU?$char_traits@D@std@@V?$allocator@D@2@@std@@AEBU?$tvec2@M$0A@@3@@Z$rtcVarDesc DD 048H ; glm::detail::compute_to_string<glm::tvec2,float,0>::call
	DD	028H
	DQ	FLAT:?call@?$compute_to_string@Utvec2@glm@@M$0A@@detail@glm@@SA?AV?$basic_string@DU?$char_traits@D@std@@V?$allocator@D@2@@std@@AEBU?$tvec2@M$0A@@3@@Z$rtcName$0
	ORG $+48
?call@?$compute_to_string@Utvec2@glm@@M$0A@@detail@glm@@SA?AV?$basic_string@DU?$char_traits@D@std@@V?$allocator@D@2@@std@@AEBU?$tvec2@M$0A@@3@@Z$rtcFrameData DD 01H ; glm::detail::compute_to_string<glm::tvec2,float,0>::call
	DD	00H
	DQ	FLAT:?call@?$compute_to_string@Utvec2@glm@@M$0A@@detail@glm@@SA?AV?$basic_string@DU?$char_traits@D@std@@V?$allocator@D@2@@std@@AEBU?$tvec2@M$0A@@3@@Z$rtcVarDesc
CONST	ENDS
;	COMDAT xdata
xdata	SEGMENT
$ip2state$??$_Deallocate@$0BA@$0A@@std@@YAXPEAX_K@Z DB 02H
	DB	00H
	DB	00H
xdata	ENDS
;	COMDAT xdata
xdata	SEGMENT
$cppxdata$??$_Deallocate@$0BA@$0A@@std@@YAXPEAX_K@Z DB 060H
	DD	imagerel $ip2state$??$_Deallocate@$0BA@$0A@@std@@YAXPEAX_K@Z
xdata	ENDS
;	COMDAT xdata
xdata	SEGMENT
$unwind$??$_Deallocate@$0BA@$0A@@std@@YAXPEAX_K@Z DD 020f19H
	DD	0700b320fH
	DD	imagerel __CxxFrameHandler4
	DD	imagerel $cppxdata$??$_Deallocate@$0BA@$0A@@std@@YAXPEAX_K@Z
xdata	ENDS
;	COMDAT xdata
xdata	SEGMENT
$unwind$??$_Allocate@$0BA@U_Default_allocate_traits@std@@$0A@@std@@YAPEAX_K@Z DD 020a01H
	DD	07006320aH
xdata	ENDS
;	COMDAT xdata
xdata	SEGMENT
$unwind$??$_Get_size_of_n@$0BA@@std@@YA_K_K@Z DD 020a01H
	DD	07006520aH
xdata	ENDS
;	COMDAT xdata
xdata	SEGMENT
$unwind$??$max@_K@std@@YAAEB_KAEB_K0@Z DD 020f01H
	DD	0700b120fH
xdata	ENDS
;	COMDAT xdata
xdata	SEGMENT
$unwind$??$_Unfancy@D@std@@YAPEADPEAD@Z DD 010601H
	DD	07006H
xdata	ENDS
;	COMDAT xdata
xdata	SEGMENT
$unwind$??$_Reallocate_for@V<lambda_66f57f934f28d61049862f64df852ff0>@@PEBD@?$basic_string@DU?$char_traits@D@std@@V?$allocator@D@2@@std@@AEAAAEAV01@_KV<lambda_66f57f934f28d61049862f64df852ff0>@@PEBD@Z DD 022f01H
	DD	07015b219H
xdata	ENDS
;	COMDAT CONST
CONST	SEGMENT
??$_Reallocate_for@V<lambda_66f57f934f28d61049862f64df852ff0>@@PEBD@?$basic_string@DU?$char_traits@D@std@@V?$allocator@D@2@@std@@AEAAAEAV01@_KV<lambda_66f57f934f28d61049862f64df852ff0>@@PEBD@Z$rtcName$0 DB 05fH ; std::basic_string<char,std::char_traits<char>,std::allocator<char> >::_Reallocate_for<<lambda_66f57f934f28d61049862f64df852ff0>,char const *>
	DB	04eH
	DB	065H
	DB	077H
	DB	05fH
	DB	070H
	DB	074H
	DB	072H
	DB	00H
	ORG $+7
??$_Reallocate_for@V<lambda_66f57f934f28d61049862f64df852ff0>@@PEBD@?$basic_string@DU?$char_traits@D@std@@V?$allocator@D@2@@std@@AEAAAEAV01@_KV<lambda_66f57f934f28d61049862f64df852ff0>@@PEBD@Z$rtcVarDesc DD 048H ; std::basic_string<char,std::char_traits<char>,std::allocator<char> >::_Reallocate_for<<lambda_66f57f934f28d61049862f64df852ff0>,char const *>
	DD	08H
	DQ	FLAT:??$_Reallocate_for@V<lambda_66f57f934f28d61049862f64df852ff0>@@PEBD@?$basic_string@DU?$char_traits@D@std@@V?$allocator@D@2@@std@@AEAAAEAV01@_KV<lambda_66f57f934f28d61049862f64df852ff0>@@PEBD@Z$rtcName$0
	ORG $+48
??$_Reallocate_for@V<lambda_66f57f934f28d61049862f64df852ff0>@@PEBD@?$basic_string@DU?$char_traits@D@std@@V?$allocator@D@2@@std@@AEAAAEAV01@_KV<lambda_66f57f934f28d61049862f64df852ff0>@@PEBD@Z$rtcFrameData DD 01H ; std::basic_string<char,std::char_traits<char>,std::allocator<char> >::_Reallocate_for<<lambda_66f57f934f28d61049862f64df852ff0>,char const *>
	DD	00H
	DQ	FLAT:??$_Reallocate_for@V<lambda_66f57f934f28d61049862f64df852ff0>@@PEBD@?$basic_string@DU?$char_traits@D@std@@V?$allocator@D@2@@std@@AEAAAEAV01@_KV<lambda_66f57f934f28d61049862f64df852ff0>@@PEBD@Z$rtcVarDesc
CONST	ENDS
;	COMDAT xdata
xdata	SEGMENT
$unwind$??R<lambda_66f57f934f28d61049862f64df852ff0>@@QEBA@QEAD_KQEBD@Z DD 021901H
	DD	070155219H
xdata	ENDS
;	COMDAT xdata
xdata	SEGMENT
$unwind$??$_Convert_size@_K@std@@YA_K_K@Z DD 010601H
	DD	07006H
xdata	ENDS
;	COMDAT xdata
xdata	SEGMENT
$unwind$??$_Destroy_in_place@PEAD@std@@YAXAEAPEAD@Z DD 010601H
	DD	07006H
xdata	ENDS
;	COMDAT xdata
xdata	SEGMENT
$unwind$??$_Construct_in_place@U_Container_proxy@std@@PEAU_Container_base12@2@@std@@YAXAEAU_Container_proxy@0@$$QEAPEAU_Container_base12@0@@Z DD 020f01H
	DD	0700b520fH
xdata	ENDS
;	COMDAT xdata
xdata	SEGMENT
$unwind$??$addressof@U_Container_base12@std@@@std@@YAPEAU_Container_base12@0@AEAU10@@Z DD 010601H
	DD	07006H
xdata	ENDS
;	COMDAT xdata
xdata	SEGMENT
$unwind$??$_Unfancy@U_Container_proxy@std@@@std@@YAPEAU_Container_proxy@0@PEAU10@@Z DD 010601H
	DD	07006H
xdata	ENDS
;	COMDAT xdata
xdata	SEGMENT
$unwind$??$?0$$V@?$_Compressed_pair@V?$allocator@D@std@@V?$_String_val@U?$_Simple_types@D@std@@@2@$00@std@@QEAA@U_Zero_then_variadic_args_t@1@@Z DD 020e01H
	DD	0700a320eH
xdata	ENDS
;	COMDAT xdata
xdata	SEGMENT
$unwind$??$?0D@?$allocator@U_Container_proxy@std@@@std@@QEAA@AEBV?$allocator@D@1@@Z DD 010b01H
	DD	0700bH
xdata	ENDS
;	COMDAT xdata
xdata	SEGMENT
$unwind$??$_Alloc_proxy@V?$allocator@U_Container_proxy@std@@@std@@@_Container_base12@std@@QEAAX$$QEAV?$allocator@U_Container_proxy@std@@@1@@Z DD 020f01H
	DD	0700b520fH
xdata	ENDS
;	COMDAT xdata
xdata	SEGMENT
$unwind$??1?$_Container_proxy_ptr12@V?$allocator@U_Container_proxy@std@@@std@@@std@@QEAA@XZ DD 020a01H
	DD	07006320aH
xdata	ENDS
;	COMDAT xdata
xdata	SEGMENT
$unwind$??0?$_Container_proxy_ptr12@V?$allocator@U_Container_proxy@std@@@std@@@std@@QEAA@AEAV?$allocator@U_Container_proxy@std@@@1@AEAU_Container_base12@1@@Z DD 021401H
	DD	070105214H
xdata	ENDS
;	COMDAT xdata
xdata	SEGMENT
$unwind$??$_Delete_plain_internal@V?$allocator@U_Container_proxy@std@@@std@@@std@@YAXAEAV?$allocator@U_Container_proxy@std@@@0@QEAU_Container_proxy@0@@Z DD 020f01H
	DD	0700b320fH
xdata	ENDS
;	COMDAT xdata
xdata	SEGMENT
$unwind$?allocate@?$allocator@U_Container_proxy@std@@@std@@QEAAPEAU_Container_proxy@2@_K@Z DD 020f01H
	DD	0700b320fH
xdata	ENDS
;	COMDAT xdata
xdata	SEGMENT
$unwind$??$to_string@Utmat2x2@glm@@M$0A@@glm@@YA?AV?$basic_string@DU?$char_traits@D@std@@V?$allocator@D@2@@std@@AEBU?$tmat2x2@M$0A@@0@@Z DD 020f01H
	DD	0700b520fH
xdata	ENDS
;	COMDAT xdata
xdata	SEGMENT
$unwind$??$?0NNNN@?$tmat2x2@M$0A@@glm@@QEAA@AEBN000@Z DD 021901H
	DD	070155219H
xdata	ENDS
;	COMDAT xdata
xdata	SEGMENT
$unwind$??A?$tmat2x2@M$0A@@glm@@QEBAAEBU?$tvec2@M$0A@@1@H@Z DD 020e01H
	DD	0700a320eH
xdata	ENDS
;	COMDAT xdata
xdata	SEGMENT
$unwind$?length@?$tmat2x2@M$0A@@glm@@SAHXZ DD 010201H
	DD	07002H
xdata	ENDS
;	COMDAT xdata
xdata	SEGMENT
$unwind$??$to_string@Utvec4@glm@@_J$0A@@glm@@YA?AV?$basic_string@DU?$char_traits@D@std@@V?$allocator@D@2@@std@@AEBU?$tvec4@_J$0A@@0@@Z DD 020f01H
	DD	0700b520fH
xdata	ENDS
;	COMDAT xdata
xdata	SEGMENT
$unwind$??$?0HHHH@?$tvec4@_J$0A@@glm@@QEAA@HHHH@Z DD 011401H
	DD	07014H
xdata	ENDS
;	COMDAT xdata
xdata	SEGMENT
$unwind$??A?$tvec4@_J$0A@@glm@@QEBAAEB_JH@Z DD 020e01H
	DD	0700a320eH
xdata	ENDS
;	COMDAT xdata
xdata	SEGMENT
$unwind$?length@?$tvec4@_J$0A@@glm@@SAHXZ DD 010201H
	DD	07002H
xdata	ENDS
;	COMDAT xdata
xdata	SEGMENT
$unwind$??$to_string@Utvec3@glm@@_J$0A@@glm@@YA?AV?$basic_string@DU?$char_traits@D@std@@V?$allocator@D@2@@std@@AEBU?$tvec3@_J$0A@@0@@Z DD 020f01H
	DD	0700b520fH
xdata	ENDS
;	COMDAT xdata
xdata	SEGMENT
$unwind$??$?0HHH@?$tvec3@_J$0A@@glm@@QEAA@HHH@Z DD 011401H
	DD	07014H
xdata	ENDS
;	COMDAT xdata
xdata	SEGMENT
$unwind$??A?$tvec3@_J$0A@@glm@@QEBAAEB_JH@Z DD 020e01H
	DD	0700a320eH
xdata	ENDS
;	COMDAT xdata
xdata	SEGMENT
$unwind$?length@?$tvec3@_J$0A@@glm@@SAHXZ DD 010201H
	DD	07002H
xdata	ENDS
;	COMDAT xdata
xdata	SEGMENT
$unwind$??$to_string@Utvec2@glm@@_J$0A@@glm@@YA?AV?$basic_string@DU?$char_traits@D@std@@V?$allocator@D@2@@std@@AEBU?$tvec2@_J$0A@@0@@Z DD 020f01H
	DD	0700b520fH
xdata	ENDS
;	COMDAT xdata
xdata	SEGMENT
$unwind$??$?0HH@?$tvec2@_J$0A@@glm@@QEAA@HH@Z DD 010f01H
	DD	0700fH
xdata	ENDS
;	COMDAT xdata
xdata	SEGMENT
$unwind$??A?$tvec2@_J$0A@@glm@@QEBAAEB_JH@Z DD 020e01H
	DD	0700a320eH
xdata	ENDS
;	COMDAT xdata
xdata	SEGMENT
$unwind$?length@?$tvec2@_J$0A@@glm@@SAHXZ DD 010201H
	DD	07002H
xdata	ENDS
;	COMDAT xdata
xdata	SEGMENT
$unwind$??$to_string@Utvec4@glm@@F$0A@@glm@@YA?AV?$basic_string@DU?$char_traits@D@std@@V?$allocator@D@2@@std@@AEBU?$tvec4@F$0A@@0@@Z DD 020f01H
	DD	0700b520fH
xdata	ENDS
;	COMDAT xdata
xdata	SEGMENT
$unwind$??$?0HHHH@?$tvec4@F$0A@@glm@@QEAA@HHHH@Z DD 011401H
	DD	07014H
xdata	ENDS
;	COMDAT xdata
xdata	SEGMENT
$unwind$??A?$tvec4@F$0A@@glm@@QEBAAEBFH@Z DD 020e01H
	DD	0700a320eH
xdata	ENDS
;	COMDAT xdata
xdata	SEGMENT
$unwind$?length@?$tvec4@F$0A@@glm@@SAHXZ DD 010201H
	DD	07002H
xdata	ENDS
;	COMDAT xdata
xdata	SEGMENT
$unwind$??$to_string@Utvec3@glm@@F$0A@@glm@@YA?AV?$basic_string@DU?$char_traits@D@std@@V?$allocator@D@2@@std@@AEBU?$tvec3@F$0A@@0@@Z DD 020f01H
	DD	0700b520fH
xdata	ENDS
;	COMDAT xdata
xdata	SEGMENT
$unwind$??$?0HHH@?$tvec3@F$0A@@glm@@QEAA@HHH@Z DD 011401H
	DD	07014H
xdata	ENDS
;	COMDAT xdata
xdata	SEGMENT
$unwind$??A?$tvec3@F$0A@@glm@@QEBAAEBFH@Z DD 020e01H
	DD	0700a320eH
xdata	ENDS
;	COMDAT xdata
xdata	SEGMENT
$unwind$?length@?$tvec3@F$0A@@glm@@SAHXZ DD 010201H
	DD	07002H
xdata	ENDS
;	COMDAT xdata
xdata	SEGMENT
$unwind$??$to_string@Utvec2@glm@@F$0A@@glm@@YA?AV?$basic_string@DU?$char_traits@D@std@@V?$allocator@D@2@@std@@AEBU?$tvec2@F$0A@@0@@Z DD 020f01H
	DD	0700b520fH
xdata	ENDS
;	COMDAT xdata
xdata	SEGMENT
$unwind$??$?0HH@?$tvec2@F$0A@@glm@@QEAA@HH@Z DD 010f01H
	DD	0700fH
xdata	ENDS
;	COMDAT xdata
xdata	SEGMENT
$unwind$??$to_string@Utvec4@glm@@C$0A@@glm@@YA?AV?$basic_string@DU?$char_traits@D@std@@V?$allocator@D@2@@std@@AEBU?$tvec4@C$0A@@0@@Z DD 020f01H
	DD	0700b520fH
xdata	ENDS
;	COMDAT xdata
xdata	SEGMENT
$unwind$??$?0HHHH@?$tvec4@C$0A@@glm@@QEAA@HHHH@Z DD 011401H
	DD	07014H
xdata	ENDS
;	COMDAT xdata
xdata	SEGMENT
$unwind$??$to_string@Utvec3@glm@@C$0A@@glm@@YA?AV?$basic_string@DU?$char_traits@D@std@@V?$allocator@D@2@@std@@AEBU?$tvec3@C$0A@@0@@Z DD 020f01H
	DD	0700b520fH
xdata	ENDS
;	COMDAT xdata
xdata	SEGMENT
$unwind$??$?0HHH@?$tvec3@C$0A@@glm@@QEAA@HHH@Z DD 011401H
	DD	07014H
xdata	ENDS
;	COMDAT xdata
xdata	SEGMENT
$unwind$??A?$tvec3@C$0A@@glm@@QEBAAEBCH@Z DD 020e01H
	DD	0700a320eH
xdata	ENDS
;	COMDAT xdata
xdata	SEGMENT
$unwind$?length@?$tvec3@C$0A@@glm@@SAHXZ DD 010201H
	DD	07002H
xdata	ENDS
;	COMDAT xdata
xdata	SEGMENT
$unwind$??$to_string@Utvec2@glm@@C$0A@@glm@@YA?AV?$basic_string@DU?$char_traits@D@std@@V?$allocator@D@2@@std@@AEBU?$tvec2@C$0A@@0@@Z DD 020f01H
	DD	0700b520fH
xdata	ENDS
;	COMDAT xdata
xdata	SEGMENT
$unwind$??$?0HH@?$tvec2@C$0A@@glm@@QEAA@HH@Z DD 010f01H
	DD	0700fH
xdata	ENDS
;	COMDAT xdata
xdata	SEGMENT
$unwind$??A?$tvec2@C$0A@@glm@@QEBAAEBCH@Z DD 020e01H
	DD	0700a320eH
xdata	ENDS
;	COMDAT xdata
xdata	SEGMENT
$unwind$?length@?$tvec2@C$0A@@glm@@SAHXZ DD 010201H
	DD	07002H
xdata	ENDS
;	COMDAT xdata
xdata	SEGMENT
$unwind$??$to_string@Utvec4@glm@@H$0A@@glm@@YA?AV?$basic_string@DU?$char_traits@D@std@@V?$allocator@D@2@@std@@AEBU?$tvec4@H$0A@@0@@Z DD 020f01H
	DD	0700b520fH
xdata	ENDS
;	COMDAT xdata
xdata	SEGMENT
$unwind$??0?$tvec4@H$0A@@glm@@QEAA@HHHH@Z DD 011401H
	DD	07014H
xdata	ENDS
;	COMDAT xdata
xdata	SEGMENT
$unwind$??A?$tvec4@H$0A@@glm@@QEBAAEBHH@Z DD 020e01H
	DD	0700a320eH
xdata	ENDS
;	COMDAT xdata
xdata	SEGMENT
$unwind$?length@?$tvec4@H$0A@@glm@@SAHXZ DD 010201H
	DD	07002H
xdata	ENDS
;	COMDAT xdata
xdata	SEGMENT
$unwind$??$to_string@Utvec3@glm@@H$0A@@glm@@YA?AV?$basic_string@DU?$char_traits@D@std@@V?$allocator@D@2@@std@@AEBU?$tvec3@H$0A@@0@@Z DD 020f01H
	DD	0700b520fH
xdata	ENDS
;	COMDAT xdata
xdata	SEGMENT
$unwind$??0?$tvec3@H$0A@@glm@@QEAA@HHH@Z DD 011401H
	DD	07014H
xdata	ENDS
;	COMDAT xdata
xdata	SEGMENT
$unwind$??A?$tvec3@H$0A@@glm@@QEBAAEBHH@Z DD 020e01H
	DD	0700a320eH
xdata	ENDS
;	COMDAT xdata
xdata	SEGMENT
$unwind$?length@?$tvec3@H$0A@@glm@@SAHXZ DD 010201H
	DD	07002H
xdata	ENDS
;	COMDAT xdata
xdata	SEGMENT
$unwind$??$to_string@Utvec2@glm@@H$0A@@glm@@YA?AV?$basic_string@DU?$char_traits@D@std@@V?$allocator@D@2@@std@@AEBU?$tvec2@H$0A@@0@@Z DD 020f01H
	DD	0700b520fH
xdata	ENDS
;	COMDAT xdata
xdata	SEGMENT
$unwind$??0?$tvec2@H$0A@@glm@@QEAA@HH@Z DD 010f01H
	DD	0700fH
xdata	ENDS
;	COMDAT xdata
xdata	SEGMENT
$unwind$??A?$tvec2@H$0A@@glm@@QEBAAEBHH@Z DD 020e01H
	DD	0700a320eH
xdata	ENDS
;	COMDAT xdata
xdata	SEGMENT
$unwind$?length@?$tvec2@H$0A@@glm@@SAHXZ DD 010201H
	DD	07002H
xdata	ENDS
;	COMDAT xdata
xdata	SEGMENT
$unwind$??$to_string@Utvec4@glm@@_N$0A@@glm@@YA?AV?$basic_string@DU?$char_traits@D@std@@V?$allocator@D@2@@std@@AEBU?$tvec4@_N$0A@@0@@Z DD 020f01H
	DD	0700b520fH
xdata	ENDS
;	COMDAT xdata
xdata	SEGMENT
$unwind$??0?$tvec4@_N$0A@@glm@@QEAA@_N000@Z DD 011401H
	DD	07014H
xdata	ENDS
;	COMDAT xdata
xdata	SEGMENT
$unwind$??A?$tvec4@_N$0A@@glm@@QEBAAEB_NH@Z DD 020e01H
	DD	0700a320eH
xdata	ENDS
;	COMDAT xdata
xdata	SEGMENT
$unwind$?length@?$tvec4@_N$0A@@glm@@SAHXZ DD 010201H
	DD	07002H
xdata	ENDS
;	COMDAT xdata
xdata	SEGMENT
$unwind$??$to_string@Utvec3@glm@@_N$0A@@glm@@YA?AV?$basic_string@DU?$char_traits@D@std@@V?$allocator@D@2@@std@@AEBU?$tvec3@_N$0A@@0@@Z DD 020f01H
	DD	0700b520fH
xdata	ENDS
;	COMDAT xdata
xdata	SEGMENT
$unwind$??0?$tvec3@_N$0A@@glm@@QEAA@_N00@Z DD 011401H
	DD	07014H
xdata	ENDS
;	COMDAT xdata
xdata	SEGMENT
$unwind$??A?$tvec3@_N$0A@@glm@@QEBAAEB_NH@Z DD 020e01H
	DD	0700a320eH
xdata	ENDS
;	COMDAT xdata
xdata	SEGMENT
$unwind$?length@?$tvec3@_N$0A@@glm@@SAHXZ DD 010201H
	DD	07002H
xdata	ENDS
;	COMDAT xdata
xdata	SEGMENT
$unwind$??$to_string@Utvec2@glm@@_N$0A@@glm@@YA?AV?$basic_string@DU?$char_traits@D@std@@V?$allocator@D@2@@std@@AEBU?$tvec2@_N$0A@@0@@Z DD 020f01H
	DD	0700b520fH
xdata	ENDS
;	COMDAT xdata
xdata	SEGMENT
$unwind$??0?$tvec2@_N$0A@@glm@@QEAA@_N0@Z DD 010f01H
	DD	0700fH
xdata	ENDS
;	COMDAT xdata
xdata	SEGMENT
$unwind$??A?$tvec2@_N$0A@@glm@@QEBAAEB_NH@Z DD 020e01H
	DD	0700a320eH
xdata	ENDS
;	COMDAT xdata
xdata	SEGMENT
$unwind$?length@?$tvec2@_N$0A@@glm@@SAHXZ DD 010201H
	DD	07002H
xdata	ENDS
;	COMDAT xdata
xdata	SEGMENT
$unwind$??$to_string@Utvec4@glm@@N$0A@@glm@@YA?AV?$basic_string@DU?$char_traits@D@std@@V?$allocator@D@2@@std@@AEBU?$tvec4@N$0A@@0@@Z DD 020f01H
	DD	0700b520fH
xdata	ENDS
;	COMDAT xdata
xdata	SEGMENT
$unwind$??$?0HHHH@?$tvec4@N$0A@@glm@@QEAA@HHHH@Z DD 011401H
	DD	07014H
xdata	ENDS
;	COMDAT xdata
xdata	SEGMENT
$unwind$??A?$tvec4@N$0A@@glm@@QEBAAEBNH@Z DD 020e01H
	DD	0700a320eH
xdata	ENDS
;	COMDAT xdata
xdata	SEGMENT
$unwind$?length@?$tvec4@N$0A@@glm@@SAHXZ DD 010201H
	DD	07002H
xdata	ENDS
;	COMDAT xdata
xdata	SEGMENT
$unwind$??$to_string@Utvec3@glm@@N$0A@@glm@@YA?AV?$basic_string@DU?$char_traits@D@std@@V?$allocator@D@2@@std@@AEBU?$tvec3@N$0A@@0@@Z DD 020f01H
	DD	0700b520fH
xdata	ENDS
;	COMDAT xdata
xdata	SEGMENT
$unwind$??$?0HHH@?$tvec3@N$0A@@glm@@QEAA@HHH@Z DD 011401H
	DD	07014H
xdata	ENDS
;	COMDAT xdata
xdata	SEGMENT
$unwind$??A?$tvec3@N$0A@@glm@@QEBAAEBNH@Z DD 020e01H
	DD	0700a320eH
xdata	ENDS
;	COMDAT xdata
xdata	SEGMENT
$unwind$?length@?$tvec3@N$0A@@glm@@SAHXZ DD 010201H
	DD	07002H
xdata	ENDS
;	COMDAT xdata
xdata	SEGMENT
$unwind$??$to_string@Utvec2@glm@@N$0A@@glm@@YA?AV?$basic_string@DU?$char_traits@D@std@@V?$allocator@D@2@@std@@AEBU?$tvec2@N$0A@@0@@Z DD 020f01H
	DD	0700b520fH
xdata	ENDS
;	COMDAT xdata
xdata	SEGMENT
$unwind$??$?0HH@?$tvec2@N$0A@@glm@@QEAA@HH@Z DD 010f01H
	DD	0700fH
xdata	ENDS
;	COMDAT xdata
xdata	SEGMENT
$unwind$??A?$tvec2@N$0A@@glm@@QEBAAEBNH@Z DD 020e01H
	DD	0700a320eH
xdata	ENDS
;	COMDAT xdata
xdata	SEGMENT
$unwind$?length@?$tvec2@N$0A@@glm@@SAHXZ DD 010201H
	DD	07002H
xdata	ENDS
;	COMDAT xdata
xdata	SEGMENT
$unwind$??$to_string@Utvec4@glm@@M$0A@@glm@@YA?AV?$basic_string@DU?$char_traits@D@std@@V?$allocator@D@2@@std@@AEBU?$tvec4@M$0A@@0@@Z DD 020f01H
	DD	0700b520fH
xdata	ENDS
;	COMDAT xdata
xdata	SEGMENT
$unwind$??$?0HHHH@?$tvec4@M$0A@@glm@@QEAA@HHHH@Z DD 011401H
	DD	07014H
xdata	ENDS
;	COMDAT xdata
xdata	SEGMENT
$unwind$??$to_string@Utvec3@glm@@M$0A@@glm@@YA?AV?$basic_string@DU?$char_traits@D@std@@V?$allocator@D@2@@std@@AEBU?$tvec3@M$0A@@0@@Z DD 020f01H
	DD	0700b520fH
xdata	ENDS
;	COMDAT xdata
xdata	SEGMENT
$unwind$??$?0HHH@?$tvec3@M$0A@@glm@@QEAA@HHH@Z DD 011401H
	DD	07014H
xdata	ENDS
;	COMDAT xdata
xdata	SEGMENT
$unwind$??A?$tvec3@M$0A@@glm@@QEBAAEBMH@Z DD 020e01H
	DD	0700a320eH
xdata	ENDS
;	COMDAT xdata
xdata	SEGMENT
$unwind$?length@?$tvec3@M$0A@@glm@@SAHXZ DD 010201H
	DD	07002H
xdata	ENDS
;	COMDAT xdata
xdata	SEGMENT
$unwind$??$?9DU?$char_traits@D@std@@V?$allocator@D@1@@std@@YA_NAEBV?$basic_string@DU?$char_traits@D@std@@V?$allocator@D@2@@0@0@Z DD 020f01H
	DD	0700b520fH
xdata	ENDS
;	COMDAT xdata
xdata	SEGMENT
$unwind$??$to_string@Utvec2@glm@@M$0A@@glm@@YA?AV?$basic_string@DU?$char_traits@D@std@@V?$allocator@D@2@@std@@AEBU?$tvec2@M$0A@@0@@Z DD 020f01H
	DD	0700b520fH
xdata	ENDS
;	COMDAT xdata
xdata	SEGMENT
$unwind$??$?0HH@?$tvec2@M$0A@@glm@@QEAA@HH@Z DD 010f01H
	DD	0700fH
xdata	ENDS
voltbl	SEGMENT
_volmd	DD	0ffffffffH
	DDSymXIndex: 	FLAT:?dtor$0@?0??test_string_cast_matrix@@YAHXZ@4HA
	DD	00H
	DD	05H
_volmd	DD	0ffffffffH
	DDSymXIndex: 	FLAT:?dtor$40@?0??test_string_cast_vector@@YAHXZ@4HA
	DD	00H
	DD	05H
_volmd	DD	0ffffffffH
	DDSymXIndex: 	FLAT:?dtor$38@?0??test_string_cast_vector@@YAHXZ@4HA
	DD	00H
	DD	05H
_volmd	DD	0ffffffffH
	DDSymXIndex: 	FLAT:?dtor$36@?0??test_string_cast_vector@@YAHXZ@4HA
	DD	00H
	DD	05H
_volmd	DD	0ffffffffH
	DDSymXIndex: 	FLAT:?dtor$34@?0??test_string_cast_vector@@YAHXZ@4HA
	DD	00H
	DD	05H
_volmd	DD	0ffffffffH
	DDSymXIndex: 	FLAT:?dtor$32@?0??test_string_cast_vector@@YAHXZ@4HA
	DD	00H
	DD	05H
_volmd	DD	0ffffffffH
	DDSymXIndex: 	FLAT:?dtor$30@?0??test_string_cast_vector@@YAHXZ@4HA
	DD	00H
	DD	05H
_volmd	DD	0ffffffffH
	DDSymXIndex: 	FLAT:?dtor$28@?0??test_string_cast_vector@@YAHXZ@4HA
	DD	00H
	DD	05H
_volmd	DD	0ffffffffH
	DDSymXIndex: 	FLAT:?dtor$26@?0??test_string_cast_vector@@YAHXZ@4HA
	DD	00H
	DD	05H
_volmd	DD	0ffffffffH
	DDSymXIndex: 	FLAT:?dtor$24@?0??test_string_cast_vector@@YAHXZ@4HA
	DD	00H
	DD	05H
_volmd	DD	0ffffffffH
	DDSymXIndex: 	FLAT:?dtor$22@?0??test_string_cast_vector@@YAHXZ@4HA
	DD	00H
	DD	05H
_volmd	DD	0ffffffffH
	DDSymXIndex: 	FLAT:?dtor$20@?0??test_string_cast_vector@@YAHXZ@4HA
	DD	00H
	DD	05H
_volmd	DD	0ffffffffH
	DDSymXIndex: 	FLAT:?dtor$18@?0??test_string_cast_vector@@YAHXZ@4HA
	DD	00H
	DD	05H
_volmd	DD	0ffffffffH
	DDSymXIndex: 	FLAT:?dtor$16@?0??test_string_cast_vector@@YAHXZ@4HA
	DD	00H
	DD	05H
_volmd	DD	0ffffffffH
	DDSymXIndex: 	FLAT:?dtor$14@?0??test_string_cast_vector@@YAHXZ@4HA
	DD	00H
	DD	05H
_volmd	DD	0ffffffffH
	DDSymXIndex: 	FLAT:?dtor$12@?0??test_string_cast_vector@@YAHXZ@4HA
	DD	00H
	DD	05H
_volmd	DD	0ffffffffH
	DDSymXIndex: 	FLAT:?dtor$10@?0??test_string_cast_vector@@YAHXZ@4HA
	DD	00H
	DD	05H
_volmd	DD	0ffffffffH
	DDSymXIndex: 	FLAT:?dtor$8@?0??test_string_cast_vector@@YAHXZ@4HA
	DD	00H
	DD	05H
_volmd	DD	0ffffffffH
	DDSymXIndex: 	FLAT:?dtor$6@?0??test_string_cast_vector@@YAHXZ@4HA
	DD	00H
	DD	05H
_volmd	DD	0ffffffffH
	DDSymXIndex: 	FLAT:?dtor$4@?0??test_string_cast_vector@@YAHXZ@4HA
	DD	00H
	DD	05H
_volmd	DD	0ffffffffH
	DDSymXIndex: 	FLAT:?dtor$2@?0??test_string_cast_vector@@YAHXZ@4HA
	DD	00H
	DD	05H
_volmd	DD	0ffffffffH
	DDSymXIndex: 	FLAT:?dtor$0@?0??test_string_cast_vector@@YAHXZ@4HA
	DD	00H
	DD	05H
voltbl	ENDS
voltbl	SEGMENT
_volmd	DD	0ffffffffH
	DDSymXIndex: 	FLAT:?test_string_cast_matrix@@YAHXZ
	DD	024H
	DD	0153H
_volmd	DD	0ffffffffH
	DDSymXIndex: 	FLAT:?test_string_cast_vector@@YAHXZ
	DD	024H
	DD	0ec9H
voltbl	ENDS
xdata	SEGMENT
$unwind$?test_string_cast_vector@@YAHXZ DD 032c19H
	DD	019c0109H
	DD	07002H
	DD	imagerel __GSHandlerCheck_EH4
	DD	imagerel $cppxdata$?test_string_cast_vector@@YAHXZ
	DD	0cdaH
$cppxdata$?test_string_cast_vector@@YAHXZ DB 028H
	DD	imagerel $stateUnwindMap$?test_string_cast_vector@@YAHXZ
	DD	imagerel $ip2state$?test_string_cast_vector@@YAHXZ
$stateUnwindMap$?test_string_cast_vector@@YAHXZ DB 02aH
	DB	0eH
	DD	imagerel ?dtor$0@?0??test_string_cast_vector@@YAHXZ@4HA
	DB	02eH
	DD	imagerel ?dtor$2@?0??test_string_cast_vector@@YAHXZ@4HA
	DB	02eH
	DD	imagerel ?dtor$4@?0??test_string_cast_vector@@YAHXZ@4HA
	DB	02eH
	DD	imagerel ?dtor$6@?0??test_string_cast_vector@@YAHXZ@4HA
	DB	02eH
	DD	imagerel ?dtor$8@?0??test_string_cast_vector@@YAHXZ@4HA
	DB	02eH
	DD	imagerel ?dtor$10@?0??test_string_cast_vector@@YAHXZ@4HA
	DB	0feH
	DD	imagerel ?dtor$12@?0??test_string_cast_vector@@YAHXZ@4HA
	DB	02eH
	DD	imagerel ?dtor$14@?0??test_string_cast_vector@@YAHXZ@4HA
	DB	02eH
	DD	imagerel ?dtor$16@?0??test_string_cast_vector@@YAHXZ@4HA
	DB	0edH
	DB	02H
	DD	imagerel ?dtor$18@?0??test_string_cast_vector@@YAHXZ@4HA
	DB	036H
	DD	imagerel ?dtor$20@?0??test_string_cast_vector@@YAHXZ@4HA
	DB	02eH
	DD	imagerel ?dtor$22@?0??test_string_cast_vector@@YAHXZ@4HA
	DB	0edH
	DB	03H
	DD	imagerel ?dtor$24@?0??test_string_cast_vector@@YAHXZ@4HA
	DB	036H
	DD	imagerel ?dtor$26@?0??test_string_cast_vector@@YAHXZ@4HA
	DB	02eH
	DD	imagerel ?dtor$28@?0??test_string_cast_vector@@YAHXZ@4HA
	DB	0edH
	DB	04H
	DD	imagerel ?dtor$30@?0??test_string_cast_vector@@YAHXZ@4HA
	DB	036H
	DD	imagerel ?dtor$32@?0??test_string_cast_vector@@YAHXZ@4HA
	DB	02eH
	DD	imagerel ?dtor$34@?0??test_string_cast_vector@@YAHXZ@4HA
	DB	0edH
	DB	05H
	DD	imagerel ?dtor$36@?0??test_string_cast_vector@@YAHXZ@4HA
	DB	036H
	DD	imagerel ?dtor$38@?0??test_string_cast_vector@@YAHXZ@4HA
	DB	02eH
	DD	imagerel ?dtor$40@?0??test_string_cast_vector@@YAHXZ@4HA
$ip2state$?test_string_cast_vector@@YAHXZ DB 'V'
	DB	00H
	DB	00H
	DB	0b2H
	DB	02H
	DB	085H, 02H
	DB	04H
	DB	0b1H, 02H
	DB	06H
	DB	'y', 02H
	DB	08H
	DB	091H, 02H
	DB	0aH
	DB	0b1H, 02H
	DB	0cH
	DB	0e2H
	DB	0aH
	DB	01cH
	DB	08H
	DB	01cH
	DB	06H
	DB	01cH
	DB	04H
	DB	01cH
	DB	02H
	DB	01cH
	DB	00H
	DB	'd'
	DB	0eH
	DB	'm', 02H
	DB	010H
	DB	081H, 02H
	DB	012H
	DB	0e2H
	DB	010H
	DB	01cH
	DB	0eH
	DB	01cH
	DB	00H
	DB	'v'
	DB	014H
	DB	091H, 02H
	DB	016H
	DB	0b1H, 02H
	DB	018H
	DB	0e2H
	DB	016H
	DB	01cH
	DB	014H
	DB	01cH
	DB	00H
	DB	'v'
	DB	01aH
	DB	091H, 02H
	DB	01cH
	DB	0b1H, 02H
	DB	01eH
	DB	0e2H
	DB	01cH
	DB	01cH
	DB	01aH
	DB	01cH
	DB	00H
	DB	'v'
	DB	' '
	DB	091H, 02H
	DB	'"'
	DB	0b1H, 02H
	DB	'$'
	DB	0e2H
	DB	'"'
	DB	01cH
	DB	' '
	DB	01cH
	DB	00H
	DB	'v'
	DB	'&'
	DB	091H, 02H
	DB	'('
	DB	0b1H, 02H
	DB	'*'
	DB	0e2H
	DB	'('
	DB	01cH
	DB	'&'
	DB	01cH
	DB	00H
$cppxdata$?test_string_cast_matrix@@YAHXZ DB 028H
	DD	imagerel $stateUnwindMap$?test_string_cast_matrix@@YAHXZ
	DD	imagerel $ip2state$?test_string_cast_matrix@@YAHXZ
$stateUnwindMap$?test_string_cast_matrix@@YAHXZ DB 02H
	DB	0eH
	DD	imagerel ?dtor$0@?0??test_string_cast_matrix@@YAHXZ@4HA
$unwind$?dtor$0@?0??test_string_cast_vector@@YAHXZ@4HA DD 031001H
	DD	0700c4210H
	DD	0500bH
$unwind$?dtor$2@?0??test_string_cast_vector@@YAHXZ@4HA DD 031001H
	DD	0700c4210H
	DD	0500bH
$unwind$?dtor$4@?0??test_string_cast_vector@@YAHXZ@4HA DD 031001H
	DD	0700c4210H
	DD	0500bH
$unwind$?dtor$6@?0??test_string_cast_vector@@YAHXZ@4HA DD 031001H
	DD	0700c4210H
	DD	0500bH
$unwind$?dtor$8@?0??test_string_cast_vector@@YAHXZ@4HA DD 031001H
	DD	0700c4210H
	DD	0500bH
$unwind$?dtor$10@?0??test_string_cast_vector@@YAHXZ@4HA DD 031001H
	DD	0700c4210H
	DD	0500bH
$unwind$?dtor$12@?0??test_string_cast_vector@@YAHXZ@4HA DD 031001H
	DD	0700c4210H
	DD	0500bH
$unwind$?dtor$14@?0??test_string_cast_vector@@YAHXZ@4HA DD 031001H
	DD	0700c4210H
	DD	0500bH
$unwind$?dtor$16@?0??test_string_cast_vector@@YAHXZ@4HA DD 031001H
	DD	0700c4210H
	DD	0500bH
$unwind$?dtor$18@?0??test_string_cast_vector@@YAHXZ@4HA DD 031001H
	DD	0700c4210H
	DD	0500bH
$unwind$?dtor$20@?0??test_string_cast_vector@@YAHXZ@4HA DD 031001H
	DD	0700c4210H
	DD	0500bH
$unwind$?dtor$22@?0??test_string_cast_vector@@YAHXZ@4HA DD 031001H
	DD	0700c4210H
	DD	0500bH
$unwind$?dtor$24@?0??test_string_cast_vector@@YAHXZ@4HA DD 031001H
	DD	0700c4210H
	DD	0500bH
$unwind$?dtor$26@?0??test_string_cast_vector@@YAHXZ@4HA DD 031001H
	DD	0700c4210H
	DD	0500bH
$unwind$?dtor$28@?0??test_string_cast_vector@@YAHXZ@4HA DD 031001H
	DD	0700c4210H
	DD	0500bH
$unwind$?dtor$30@?0??test_string_cast_vector@@YAHXZ@4HA DD 031001H
	DD	0700c4210H
	DD	0500bH
$unwind$?dtor$32@?0??test_string_cast_vector@@YAHXZ@4HA DD 031001H
	DD	0700c4210H
	DD	0500bH
$unwind$?dtor$34@?0??test_string_cast_vector@@YAHXZ@4HA DD 031001H
	DD	0700c4210H
	DD	0500bH
$unwind$?dtor$36@?0??test_string_cast_vector@@YAHXZ@4HA DD 031001H
	DD	0700c4210H
	DD	0500bH
$unwind$?dtor$38@?0??test_string_cast_vector@@YAHXZ@4HA DD 031001H
	DD	0700c4210H
	DD	0500bH
$unwind$?dtor$40@?0??test_string_cast_vector@@YAHXZ@4HA DD 031001H
	DD	0700c4210H
	DD	0500bH
$unwind$?test_string_cast_matrix@@YAHXZ DD 032c19H
	DD	0240109H
	DD	07002H
	DD	imagerel __GSHandlerCheck_EH4
	DD	imagerel $cppxdata$?test_string_cast_matrix@@YAHXZ
	DD	0112H
$ip2state$?test_string_cast_matrix@@YAHXZ DB 06H
	DB	00H
	DB	00H
	DB	0ddH, 02H
	DB	02H
	DB	0f0H
	DB	00H
$unwind$?dtor$0@?0??test_string_cast_matrix@@YAHXZ@4HA DD 031001H
	DD	0700c4210H
	DD	0500bH
$unwind$main DD	020601H
	DD	070025206H
xdata	ENDS
CONST	SEGMENT
	ORG $+1
?test_string_cast_vector@@YAHXZ$rtcName$0 DB 041H	; test_string_cast_vector
	DB	031H
	DB	00H
	ORG $+1
?test_string_cast_vector@@YAHXZ$rtcName$1 DB 041H	; test_string_cast_vector
	DB	032H
	DB	00H
	ORG $+1
?test_string_cast_vector@@YAHXZ$rtcName$2 DB 042H	; test_string_cast_vector
	DB	031H
	DB	00H
	ORG $+1
?test_string_cast_vector@@YAHXZ$rtcName$3 DB 042H	; test_string_cast_vector
	DB	032H
	DB	00H
	ORG $+1
?test_string_cast_vector@@YAHXZ$rtcName$4 DB 043H	; test_string_cast_vector
	DB	031H
	DB	00H
	ORG $+1
?test_string_cast_vector@@YAHXZ$rtcName$5 DB 043H	; test_string_cast_vector
	DB	032H
	DB	00H
	ORG $+1
?test_string_cast_vector@@YAHXZ$rtcName$6 DB 04aH	; test_string_cast_vector
	DB	031H
	DB	00H
	ORG $+1
?test_string_cast_vector@@YAHXZ$rtcName$7 DB 04aH	; test_string_cast_vector
	DB	032H
	DB	00H
	ORG $+1
?test_string_cast_vector@@YAHXZ$rtcName$8 DB 04bH	; test_string_cast_vector
	DB	031H
	DB	00H
	ORG $+1
?test_string_cast_vector@@YAHXZ$rtcName$9 DB 04bH	; test_string_cast_vector
	DB	032H
	DB	00H
	ORG $+1
?test_string_cast_vector@@YAHXZ$rtcName$10 DB 04cH	; test_string_cast_vector
	DB	031H
	DB	00H
	ORG $+1
?test_string_cast_vector@@YAHXZ$rtcName$11 DB 04cH	; test_string_cast_vector
	DB	032H
	DB	00H
	ORG $+1
?test_string_cast_vector@@YAHXZ$rtcName$12 DB 04dH	; test_string_cast_vector
	DB	031H
	DB	00H
	ORG $+1
?test_string_cast_vector@@YAHXZ$rtcName$13 DB 04dH	; test_string_cast_vector
	DB	032H
	DB	00H
	ORG $+1
?test_string_cast_vector@@YAHXZ$rtcName$14 DB 04fH	; test_string_cast_vector
	DB	031H
	DB	00H
	ORG $+1
?test_string_cast_vector@@YAHXZ$rtcName$15 DB 04fH	; test_string_cast_vector
	DB	032H
	DB	00H
	ORG $+1
?test_string_cast_vector@@YAHXZ$rtcName$16 DB 050H	; test_string_cast_vector
	DB	031H
	DB	00H
	ORG $+1
?test_string_cast_vector@@YAHXZ$rtcName$17 DB 050H	; test_string_cast_vector
	DB	032H
	DB	00H
	ORG $+1
?test_string_cast_vector@@YAHXZ$rtcName$18 DB 044H	; test_string_cast_vector
	DB	031H
	DB	00H
	ORG $+1
?test_string_cast_vector@@YAHXZ$rtcName$19 DB 044H	; test_string_cast_vector
	DB	032H
	DB	00H
	ORG $+1
?test_string_cast_vector@@YAHXZ$rtcName$20 DB 045H	; test_string_cast_vector
	DB	031H
	DB	00H
	ORG $+1
?test_string_cast_vector@@YAHXZ$rtcName$21 DB 045H	; test_string_cast_vector
	DB	032H
	DB	00H
	ORG $+1
?test_string_cast_vector@@YAHXZ$rtcName$22 DB 046H	; test_string_cast_vector
	DB	031H
	DB	00H
	ORG $+1
?test_string_cast_vector@@YAHXZ$rtcName$23 DB 046H	; test_string_cast_vector
	DB	032H
	DB	00H
	ORG $+1
?test_string_cast_vector@@YAHXZ$rtcName$24 DB 044H	; test_string_cast_vector
	DB	031H
	DB	00H
	ORG $+1
?test_string_cast_vector@@YAHXZ$rtcName$25 DB 044H	; test_string_cast_vector
	DB	032H
	DB	00H
	ORG $+1
?test_string_cast_vector@@YAHXZ$rtcName$26 DB 045H	; test_string_cast_vector
	DB	031H
	DB	00H
	ORG $+1
?test_string_cast_vector@@YAHXZ$rtcName$27 DB 045H	; test_string_cast_vector
	DB	032H
	DB	00H
	ORG $+1
?test_string_cast_vector@@YAHXZ$rtcName$28 DB 046H	; test_string_cast_vector
	DB	031H
	DB	00H
	ORG $+1
?test_string_cast_vector@@YAHXZ$rtcName$29 DB 046H	; test_string_cast_vector
	DB	032H
	DB	00H
	ORG $+1
?test_string_cast_vector@@YAHXZ$rtcName$30 DB 044H	; test_string_cast_vector
	DB	031H
	DB	00H
	ORG $+1
?test_string_cast_vector@@YAHXZ$rtcName$31 DB 044H	; test_string_cast_vector
	DB	032H
	DB	00H
	ORG $+1
?test_string_cast_vector@@YAHXZ$rtcName$32 DB 045H	; test_string_cast_vector
	DB	031H
	DB	00H
	ORG $+1
?test_string_cast_vector@@YAHXZ$rtcName$33 DB 045H	; test_string_cast_vector
	DB	032H
	DB	00H
	ORG $+1
?test_string_cast_vector@@YAHXZ$rtcName$34 DB 046H	; test_string_cast_vector
	DB	031H
	DB	00H
	ORG $+1
?test_string_cast_vector@@YAHXZ$rtcName$35 DB 046H	; test_string_cast_vector
	DB	032H
	DB	00H
	ORG $+1
?test_string_cast_vector@@YAHXZ$rtcName$36 DB 044H	; test_string_cast_vector
	DB	031H
	DB	00H
	ORG $+1
?test_string_cast_vector@@YAHXZ$rtcName$37 DB 044H	; test_string_cast_vector
	DB	032H
	DB	00H
	ORG $+1
?test_string_cast_vector@@YAHXZ$rtcName$38 DB 045H	; test_string_cast_vector
	DB	031H
	DB	00H
	ORG $+1
?test_string_cast_vector@@YAHXZ$rtcName$39 DB 045H	; test_string_cast_vector
	DB	032H
	DB	00H
	ORG $+1
?test_string_cast_vector@@YAHXZ$rtcName$40 DB 046H	; test_string_cast_vector
	DB	031H
	DB	00H
	ORG $+1
?test_string_cast_vector@@YAHXZ$rtcName$41 DB 046H	; test_string_cast_vector
	DB	032H
	DB	00H
	ORG $+5
?test_string_cast_vector@@YAHXZ$rtcFrameData DD 02aH	; test_string_cast_vector
	DD	00H
	DQ	FLAT:?test_string_cast_vector@@YAHXZ$rtcVarDesc
?test_string_cast_matrix@@YAHXZ$rtcName$0 DB 041H	; test_string_cast_matrix
	DB	031H
	DB	00H
	ORG $+5
?test_string_cast_vector@@YAHXZ$rtcVarDesc DD 0b28H	; test_string_cast_vector
	DD	028H
	DQ	FLAT:?test_string_cast_vector@@YAHXZ$rtcName$41
	DD	0ae8H
	DD	020H
	DQ	FLAT:?test_string_cast_vector@@YAHXZ$rtcName$40
	DD	0a88H
	DD	028H
	DQ	FLAT:?test_string_cast_vector@@YAHXZ$rtcName$39
	DD	0a58H
	DD	018H
	DQ	FLAT:?test_string_cast_vector@@YAHXZ$rtcName$38
	DD	09f8H
	DD	028H
	DQ	FLAT:?test_string_cast_vector@@YAHXZ$rtcName$37
	DD	09c8H
	DD	010H
	DQ	FLAT:?test_string_cast_vector@@YAHXZ$rtcName$36
	DD	0968H
	DD	028H
	DQ	FLAT:?test_string_cast_vector@@YAHXZ$rtcName$35
	DD	0948H
	DD	08H
	DQ	FLAT:?test_string_cast_vector@@YAHXZ$rtcName$34
	DD	08e8H
	DD	028H
	DQ	FLAT:?test_string_cast_vector@@YAHXZ$rtcName$33
	DD	08c4H
	DD	06H
	DQ	FLAT:?test_string_cast_vector@@YAHXZ$rtcName$32
	DD	0868H
	DD	028H
	DQ	FLAT:?test_string_cast_vector@@YAHXZ$rtcName$31
	DD	0844H
	DD	04H
	DQ	FLAT:?test_string_cast_vector@@YAHXZ$rtcName$30
	DD	07e8H
	DD	028H
	DQ	FLAT:?test_string_cast_vector@@YAHXZ$rtcName$29
	DD	07c4H
	DD	04H
	DQ	FLAT:?test_string_cast_vector@@YAHXZ$rtcName$28
	DD	0768H
	DD	028H
	DQ	FLAT:?test_string_cast_vector@@YAHXZ$rtcName$27
	DD	0744H
	DD	03H
	DQ	FLAT:?test_string_cast_vector@@YAHXZ$rtcName$26
	DD	06e8H
	DD	028H
	DQ	FLAT:?test_string_cast_vector@@YAHXZ$rtcName$25
	DD	06c4H
	DD	02H
	DQ	FLAT:?test_string_cast_vector@@YAHXZ$rtcName$24
	DD	0668H
	DD	028H
	DQ	FLAT:?test_string_cast_vector@@YAHXZ$rtcName$23
	DD	0638H
	DD	010H
	DQ	FLAT:?test_string_cast_vector@@YAHXZ$rtcName$22
	DD	05d8H
	DD	028H
	DQ	FLAT:?test_string_cast_vector@@YAHXZ$rtcName$21
	DD	05a8H
	DD	0cH
	DQ	FLAT:?test_string_cast_vector@@YAHXZ$rtcName$20
	DD	0548H
	DD	028H
	DQ	FLAT:?test_string_cast_vector@@YAHXZ$rtcName$19
	DD	0528H
	DD	08H
	DQ	FLAT:?test_string_cast_vector@@YAHXZ$rtcName$18
	DD	04c8H
	DD	028H
	DQ	FLAT:?test_string_cast_vector@@YAHXZ$rtcName$17
	DD	04a4H
	DD	04H
	DQ	FLAT:?test_string_cast_vector@@YAHXZ$rtcName$16
	DD	0448H
	DD	028H
	DQ	FLAT:?test_string_cast_vector@@YAHXZ$rtcName$15
	DD	0424H
	DD	03H
	DQ	FLAT:?test_string_cast_vector@@YAHXZ$rtcName$14
	DD	03c8H
	DD	028H
	DQ	FLAT:?test_string_cast_vector@@YAHXZ$rtcName$13
	DD	03a4H
	DD	02H
	DQ	FLAT:?test_string_cast_vector@@YAHXZ$rtcName$12
	DD	0348H
	DD	028H
	DQ	FLAT:?test_string_cast_vector@@YAHXZ$rtcName$11
	DD	0308H
	DD	020H
	DQ	FLAT:?test_string_cast_vector@@YAHXZ$rtcName$10
	DD	02a8H
	DD	028H
	DQ	FLAT:?test_string_cast_vector@@YAHXZ$rtcName$9
	DD	0278H
	DD	018H
	DQ	FLAT:?test_string_cast_vector@@YAHXZ$rtcName$8
	DD	0218H
	DD	028H
	DQ	FLAT:?test_string_cast_vector@@YAHXZ$rtcName$7
	DD	01e8H
	DD	010H
	DQ	FLAT:?test_string_cast_vector@@YAHXZ$rtcName$6
	DD	0188H
	DD	028H
	DQ	FLAT:?test_string_cast_vector@@YAHXZ$rtcName$5
	DD	0158H
	DD	010H
	DQ	FLAT:?test_string_cast_vector@@YAHXZ$rtcName$4
	DD	0f8H
	DD	028H
	DQ	FLAT:?test_string_cast_vector@@YAHXZ$rtcName$3
	DD	0c8H
	DD	0cH
	DQ	FLAT:?test_string_cast_vector@@YAHXZ$rtcName$2
	DD	068H
	DD	028H
	DQ	FLAT:?test_string_cast_vector@@YAHXZ$rtcName$1
	DD	048H
	DD	08H
	DQ	FLAT:?test_string_cast_vector@@YAHXZ$rtcName$0
	ORG $+2016
?test_string_cast_matrix@@YAHXZ$rtcName$1 DB 041H	; test_string_cast_matrix
	DB	032H
	DB	00H
	ORG $+5
?test_string_cast_matrix@@YAHXZ$rtcFrameData DD 02H	; test_string_cast_matrix
	DD	00H
	DQ	FLAT:?test_string_cast_matrix@@YAHXZ$rtcVarDesc
	ORG $+8
?test_string_cast_matrix@@YAHXZ$rtcVarDesc DD 078H	; test_string_cast_matrix
	DD	028H
	DQ	FLAT:?test_string_cast_matrix@@YAHXZ$rtcName$1
	DD	048H
	DD	010H
	DQ	FLAT:?test_string_cast_matrix@@YAHXZ$rtcName$0
CONST	ENDS
;	COMDAT xdata
xdata	SEGMENT
$unwind$?value@?$prefix@_J@detail@glm@@SAPEBDXZ DD 010201H
	DD	07002H
xdata	ENDS
;	COMDAT xdata
xdata	SEGMENT
$unwind$?value@?$prefix@H@detail@glm@@SAPEBDXZ DD 010201H
	DD	07002H
xdata	ENDS
;	COMDAT xdata
xdata	SEGMENT
$unwind$?value@?$prefix@F@detail@glm@@SAPEBDXZ DD 010201H
	DD	07002H
xdata	ENDS
;	COMDAT xdata
xdata	SEGMENT
$unwind$?value@?$prefix@C@detail@glm@@SAPEBDXZ DD 010201H
	DD	07002H
xdata	ENDS
;	COMDAT xdata
xdata	SEGMENT
$unwind$?value@?$prefix@N@detail@glm@@SAPEBDXZ DD 010201H
	DD	07002H
xdata	ENDS
;	COMDAT xdata
xdata	SEGMENT
$unwind$?value@?$prefix@M@detail@glm@@SAPEBDXZ DD 010201H
	DD	07002H
xdata	ENDS
;	COMDAT voltbl
voltbl	SEGMENT
_volmd	DW	045H
	DW	010fH
voltbl	ENDS
;	COMDAT xdata
xdata	SEGMENT
$unwind$?format@detail@glm@@YA?AV?$basic_string@DU?$char_traits@D@std@@V?$allocator@D@2@@std@@PEBDZZ DD 034d19H
	DD	02100122H
	DD	07015H
	DD	imagerel __GSHandlerCheck
	DD	01078H
xdata	ENDS
;	COMDAT CONST
CONST	SEGMENT
?format@detail@glm@@YA?AV?$basic_string@DU?$char_traits@D@std@@V?$allocator@D@2@@std@@PEBDZZ$rtcName$0 DB 074H ; glm::detail::format
	DB	065H
	DB	078H
	DB	074H
	DB	00H
	ORG $+3
?format@detail@glm@@YA?AV?$basic_string@DU?$char_traits@D@std@@V?$allocator@D@2@@std@@PEBDZZ$rtcName$1 DB 06cH ; glm::detail::format
	DB	069H
	DB	073H
	DB	074H
	DB	00H
	ORG $+3
?format@detail@glm@@YA?AV?$basic_string@DU?$char_traits@D@std@@V?$allocator@D@2@@std@@PEBDZZ$rtcVarDesc DD 01058H ; glm::detail::format
	DD	08H
	DQ	FLAT:?format@detail@glm@@YA?AV?$basic_string@DU?$char_traits@D@std@@V?$allocator@D@2@@std@@PEBDZZ$rtcName$1
	DD	040H
	DD	01000H
	DQ	FLAT:?format@detail@glm@@YA?AV?$basic_string@DU?$char_traits@D@std@@V?$allocator@D@2@@std@@PEBDZZ$rtcName$0
	ORG $+96
?format@detail@glm@@YA?AV?$basic_string@DU?$char_traits@D@std@@V?$allocator@D@2@@std@@PEBDZZ$rtcFrameData DD 02H ; glm::detail::format
	DD	00H
	DQ	FLAT:?format@detail@glm@@YA?AV?$basic_string@DU?$char_traits@D@std@@V?$allocator@D@2@@std@@PEBDZZ$rtcVarDesc
CONST	ENDS
;	COMDAT xdata
xdata	SEGMENT
$unwind$??1?$_Compressed_pair@V?$allocator@D@std@@V?$_String_val@U?$_Simple_types@D@std@@@2@$00@std@@QEAA@XZ DD 020a01H
	DD	07006320aH
xdata	ENDS
;	COMDAT xdata
xdata	SEGMENT
$unwind$?_Get_first@?$_Compressed_pair@V?$allocator@D@std@@V?$_String_val@U?$_Simple_types@D@std@@@2@$00@std@@QEBAAEBV?$allocator@D@2@XZ DD 010601H
	DD	07006H
xdata	ENDS
;	COMDAT xdata
xdata	SEGMENT
$unwind$?_Get_first@?$_Compressed_pair@V?$allocator@D@std@@V?$_String_val@U?$_Simple_types@D@std@@@2@$00@std@@QEAAAEAV?$allocator@D@2@XZ DD 010601H
	DD	07006H
xdata	ENDS
;	COMDAT xdata
xdata	SEGMENT
$unwind$?_Getal@?$basic_string@DU?$char_traits@D@std@@V?$allocator@D@2@@std@@AEBAAEBV?$allocator@D@2@XZ DD 020a01H
	DD	07006320aH
xdata	ENDS
;	COMDAT xdata
xdata	SEGMENT
$unwind$?_Getal@?$basic_string@DU?$char_traits@D@std@@V?$allocator@D@2@@std@@AEAAAEAV?$allocator@D@2@XZ DD 020a01H
	DD	07006320aH
xdata	ENDS
;	COMDAT xdata
xdata	SEGMENT
$ip2state$?_Tidy_deallocate@?$basic_string@DU?$char_traits@D@std@@V?$allocator@D@2@@std@@AEAAXXZ DB 02H
	DB	00H
	DB	00H
xdata	ENDS
;	COMDAT xdata
xdata	SEGMENT
$cppxdata$?_Tidy_deallocate@?$basic_string@DU?$char_traits@D@std@@V?$allocator@D@2@@std@@AEAAXXZ DB 060H
	DD	imagerel $ip2state$?_Tidy_deallocate@?$basic_string@DU?$char_traits@D@std@@V?$allocator@D@2@@std@@AEAAXXZ
xdata	ENDS
;	COMDAT xdata
xdata	SEGMENT
$unwind$?_Tidy_deallocate@?$basic_string@DU?$char_traits@D@std@@V?$allocator@D@2@@std@@AEAAXXZ DD 020a19H
	DD	07006720aH
	DD	imagerel __CxxFrameHandler4
	DD	imagerel $cppxdata$?_Tidy_deallocate@?$basic_string@DU?$char_traits@D@std@@V?$allocator@D@2@@std@@AEAAXXZ
xdata	ENDS
;	COMDAT xdata
xdata	SEGMENT
$unwind$?_Tidy_init@?$basic_string@DU?$char_traits@D@std@@V?$allocator@D@2@@std@@AEAAXXZ DD 020a01H
	DD	07006520aH
xdata	ENDS
;	COMDAT xdata
xdata	SEGMENT
$unwind$?_Calculate_growth@?$basic_string@DU?$char_traits@D@std@@V?$allocator@D@2@@std@@AEBA_K_K@Z DD 020f01H
	DD	0700b320fH
xdata	ENDS
;	COMDAT xdata
xdata	SEGMENT
$unwind$?_Calculate_growth@?$basic_string@DU?$char_traits@D@std@@V?$allocator@D@2@@std@@CA_K_K00@Z DD 022a01H
	DD	070107214H
xdata	ENDS
;	COMDAT CONST
CONST	SEGMENT
?_Calculate_growth@?$basic_string@DU?$char_traits@D@std@@V?$allocator@D@2@@std@@CA_K_K00@Z$rtcName$0 DB 05fH ; std::basic_string<char,std::char_traits<char>,std::allocator<char> >::_Calculate_growth
	DB	04dH
	DB	061H
	DB	073H
	DB	06bH
	DB	065H
	DB	064H
	DB	00H
	ORG $+8
?_Calculate_growth@?$basic_string@DU?$char_traits@D@std@@V?$allocator@D@2@@std@@CA_K_K00@Z$rtcVarDesc DD 028H ; std::basic_string<char,std::char_traits<char>,std::allocator<char> >::_Calculate_growth
	DD	08H
	DQ	FLAT:?_Calculate_growth@?$basic_string@DU?$char_traits@D@std@@V?$allocator@D@2@@std@@CA_K_K00@Z$rtcName$0
	ORG $+48
?_Calculate_growth@?$basic_string@DU?$char_traits@D@std@@V?$allocator@D@2@@std@@CA_K_K00@Z$rtcFrameData DD 01H ; std::basic_string<char,std::char_traits<char>,std::allocator<char> >::_Calculate_growth
	DD	00H
	DQ	FLAT:?_Calculate_growth@?$basic_string@DU?$char_traits@D@std@@V?$allocator@D@2@@std@@CA_K_K00@Z$rtcVarDesc
CONST	ENDS
;	COMDAT xdata
xdata	SEGMENT
$unwind$?_Equal@?$basic_string@DU?$char_traits@D@std@@V?$allocator@D@2@@std@@QEBA_NAEBV12@@Z DD 020f01H
	DD	0700b520fH
xdata	ENDS
;	COMDAT xdata
xdata	SEGMENT
$unwind$?max_size@?$basic_string@DU?$char_traits@D@std@@V?$allocator@D@2@@std@@QEBA_KXZ DD 022001H
	DD	07006b20aH
xdata	ENDS
;	COMDAT CONST
CONST	SEGMENT
?max_size@?$basic_string@DU?$char_traits@D@std@@V?$allocator@D@2@@std@@QEBA_KXZ$rtcName$0 DB 05fH ; std::basic_string<char,std::char_traits<char>,std::allocator<char> >::max_size
	DB	041H
	DB	06cH
	DB	06cH
	DB	06fH
	DB	063H
	DB	05fH
	DB	06dH
	DB	061H
	DB	078H
	DB	00H
	ORG $+5
?max_size@?$basic_string@DU?$char_traits@D@std@@V?$allocator@D@2@@std@@QEBA_KXZ$rtcVarDesc DD 028H ; std::basic_string<char,std::char_traits<char>,std::allocator<char> >::max_size
	DD	08H
	DQ	FLAT:?max_size@?$basic_string@DU?$char_traits@D@std@@V?$allocator@D@2@@std@@QEBA_KXZ$rtcName$0
	ORG $+48
?max_size@?$basic_string@DU?$char_traits@D@std@@V?$allocator@D@2@@std@@QEBA_KXZ$rtcFrameData DD 01H ; std::basic_string<char,std::char_traits<char>,std::allocator<char> >::max_size
	DD	00H
	DQ	FLAT:?max_size@?$basic_string@DU?$char_traits@D@std@@V?$allocator@D@2@@std@@QEBA_KXZ$rtcVarDesc
CONST	ENDS
;	COMDAT xdata
xdata	SEGMENT
$unwind$?c_str@?$basic_string@DU?$char_traits@D@std@@V?$allocator@D@2@@std@@QEBAPEBDXZ DD 020a01H
	DD	07006320aH
xdata	ENDS
;	COMDAT xdata
xdata	SEGMENT
$unwind$?assign@?$basic_string@DU?$char_traits@D@std@@V?$allocator@D@2@@std@@QEAAAEAV12@QEBD@Z DD 020f01H
	DD	0700b320fH
xdata	ENDS
;	COMDAT xdata
xdata	SEGMENT
$unwind$?assign@?$basic_string@DU?$char_traits@D@std@@V?$allocator@D@2@@std@@QEAAAEAV12@QEBD_K@Z DD 021401H
	DD	070105214H
xdata	ENDS
;	COMDAT xdata
xdata	SEGMENT
$unwind$??1?$basic_string@DU?$char_traits@D@std@@V?$allocator@D@2@@std@@QEAA@XZ DD 022001H
	DD	07006920aH
xdata	ENDS
;	COMDAT CONST
CONST	SEGMENT
??1?$basic_string@DU?$char_traits@D@std@@V?$allocator@D@2@@std@@QEAA@XZ$rtcName$0 DB 024H ; std::basic_string<char,std::char_traits<char>,std::allocator<char> >::~basic_string<char,std::char_traits<char>,std::allocator<char> >
	DB	053H
	DB	038H
	DB	00H
	ORG $+12
??1?$basic_string@DU?$char_traits@D@std@@V?$allocator@D@2@@std@@QEAA@XZ$rtcVarDesc DD 034H ; std::basic_string<char,std::char_traits<char>,std::allocator<char> >::~basic_string<char,std::char_traits<char>,std::allocator<char> >
	DD	01H
	DQ	FLAT:??1?$basic_string@DU?$char_traits@D@std@@V?$allocator@D@2@@std@@QEAA@XZ$rtcName$0
	ORG $+48
??1?$basic_string@DU?$char_traits@D@std@@V?$allocator@D@2@@std@@QEAA@XZ$rtcFrameData DD 01H ; std::basic_string<char,std::char_traits<char>,std::allocator<char> >::~basic_string<char,std::char_traits<char>,std::allocator<char> >
	DD	00H
	DQ	FLAT:??1?$basic_string@DU?$char_traits@D@std@@V?$allocator@D@2@@std@@QEAA@XZ$rtcVarDesc
CONST	ENDS
;	COMDAT voltbl
voltbl	SEGMENT
_volmd	DB	00H
	DB	05H
voltbl	ENDS
;	COMDAT voltbl
voltbl	SEGMENT
_volmd	DB	00H
	DB	05H
voltbl	ENDS
;	COMDAT xdata
xdata	SEGMENT
$unwind$?dtor$1@?0???0?$basic_string@DU?$char_traits@D@std@@V?$allocator@D@2@@std@@QEAA@QEBD@Z@4HA DD 031001H
	DD	0700c4210H
	DD	0500bH
xdata	ENDS
;	COMDAT xdata
xdata	SEGMENT
$unwind$?dtor$0@?0???0?$basic_string@DU?$char_traits@D@std@@V?$allocator@D@2@@std@@QEAA@QEBD@Z@4HA DD 031001H
	DD	0700c4210H
	DD	0500bH
xdata	ENDS
;	COMDAT xdata
xdata	SEGMENT
$ip2state$??0?$basic_string@DU?$char_traits@D@std@@V?$allocator@D@2@@std@@QEAA@QEBD@Z DB 0aH
	DB	00H
	DB	00H
	DB	082H
	DB	02H
	DB	'~'
	DB	04H
	DB	'Z'
	DB	02H
	DB	016H
	DB	00H
xdata	ENDS
;	COMDAT xdata
xdata	SEGMENT
$stateUnwindMap$??0?$basic_string@DU?$char_traits@D@std@@V?$allocator@D@2@@std@@QEAA@QEBD@Z DB 04H
	DB	0eH
	DD	imagerel ?dtor$0@?0???0?$basic_string@DU?$char_traits@D@std@@V?$allocator@D@2@@std@@QEAA@QEBD@Z@4HA
	DB	02eH
	DD	imagerel ?dtor$1@?0???0?$basic_string@DU?$char_traits@D@std@@V?$allocator@D@2@@std@@QEAA@QEBD@Z@4HA
xdata	ENDS
;	COMDAT xdata
xdata	SEGMENT
$cppxdata$??0?$basic_string@DU?$char_traits@D@std@@V?$allocator@D@2@@std@@QEAA@QEBD@Z DB 028H
	DD	imagerel $stateUnwindMap$??0?$basic_string@DU?$char_traits@D@std@@V?$allocator@D@2@@std@@QEAA@QEBD@Z
	DD	imagerel $ip2state$??0?$basic_string@DU?$char_traits@D@std@@V?$allocator@D@2@@std@@QEAA@QEBD@Z
xdata	ENDS
;	COMDAT xdata
xdata	SEGMENT
$unwind$??0?$basic_string@DU?$char_traits@D@std@@V?$allocator@D@2@@std@@QEAA@QEBD@Z DD 022b11H
	DD	0700bf212H
	DD	imagerel __CxxFrameHandler4
	DD	imagerel $cppxdata$??0?$basic_string@DU?$char_traits@D@std@@V?$allocator@D@2@@std@@QEAA@QEBD@Z
xdata	ENDS
;	COMDAT CONST
CONST	SEGMENT
??0?$basic_string@DU?$char_traits@D@std@@V?$allocator@D@2@@std@@QEAA@QEBD@Z$rtcName$0 DB 024H ; std::basic_string<char,std::char_traits<char>,std::allocator<char> >::basic_string<char,std::char_traits<char>,std::allocator<char> >
	DB	053H
	DB	031H
	DB	030H
	DB	00H
	ORG $+3
??0?$basic_string@DU?$char_traits@D@std@@V?$allocator@D@2@@std@@QEAA@QEBD@Z$rtcName$1 DB 05fH ; std::basic_string<char,std::char_traits<char>,std::allocator<char> >::basic_string<char,std::char_traits<char>,std::allocator<char> >
	DB	050H
	DB	072H
	DB	06fH
	DB	078H
	DB	079H
	DB	00H
	ORG $+1
??0?$basic_string@DU?$char_traits@D@std@@V?$allocator@D@2@@std@@QEAA@QEBD@Z$rtcVarDesc DD 058H ; std::basic_string<char,std::char_traits<char>,std::allocator<char> >::basic_string<char,std::char_traits<char>,std::allocator<char> >
	DD	010H
	DQ	FLAT:??0?$basic_string@DU?$char_traits@D@std@@V?$allocator@D@2@@std@@QEAA@QEBD@Z$rtcName$1
	DD	034H
	DD	01H
	DQ	FLAT:??0?$basic_string@DU?$char_traits@D@std@@V?$allocator@D@2@@std@@QEAA@QEBD@Z$rtcName$0
	ORG $+96
??0?$basic_string@DU?$char_traits@D@std@@V?$allocator@D@2@@std@@QEAA@QEBD@Z$rtcFrameData DD 02H ; std::basic_string<char,std::char_traits<char>,std::allocator<char> >::basic_string<char,std::char_traits<char>,std::allocator<char> >
	DD	00H
	DQ	FLAT:??0?$basic_string@DU?$char_traits@D@std@@V?$allocator@D@2@@std@@QEAA@QEBD@Z$rtcVarDesc
CONST	ENDS
;	COMDAT xdata
xdata	SEGMENT
$ip2state$??0?$basic_string@DU?$char_traits@D@std@@V?$allocator@D@2@@std@@QEAA@XZ DB 02H
	DB	00H
	DB	00H
xdata	ENDS
;	COMDAT xdata
xdata	SEGMENT
$cppxdata$??0?$basic_string@DU?$char_traits@D@std@@V?$allocator@D@2@@std@@QEAA@XZ DB 060H
	DD	imagerel $ip2state$??0?$basic_string@DU?$char_traits@D@std@@V?$allocator@D@2@@std@@QEAA@XZ
xdata	ENDS
;	COMDAT xdata
xdata	SEGMENT
$unwind$??0?$basic_string@DU?$char_traits@D@std@@V?$allocator@D@2@@std@@QEAA@XZ DD 020a19H
	DD	07006520aH
	DD	imagerel __CxxFrameHandler4
	DD	imagerel $cppxdata$??0?$basic_string@DU?$char_traits@D@std@@V?$allocator@D@2@@std@@QEAA@XZ
xdata	ENDS
;	COMDAT xdata
xdata	SEGMENT
$unwind$??1?$_String_val@U?$_Simple_types@D@std@@@std@@QEAA@XZ DD 020a01H
	DD	07006320aH
xdata	ENDS
;	COMDAT xdata
xdata	SEGMENT
$unwind$??1_Bxty@?$_String_val@U?$_Simple_types@D@std@@@std@@QEAA@XZ DD 010601H
	DD	07006H
xdata	ENDS
;	COMDAT xdata
xdata	SEGMENT
$unwind$??0_Bxty@?$_String_val@U?$_Simple_types@D@std@@@std@@QEAA@XZ DD 010601H
	DD	07006H
xdata	ENDS
;	COMDAT xdata
xdata	SEGMENT
$unwind$?_Large_string_engaged@?$_String_val@U?$_Simple_types@D@std@@@std@@QEBA_NXZ DD 020a01H
	DD	07006120aH
xdata	ENDS
;	COMDAT xdata
xdata	SEGMENT
$unwind$?_Myptr@?$_String_val@U?$_Simple_types@D@std@@@std@@QEBAPEBDXZ DD 020a01H
	DD	07006520aH
xdata	ENDS
;	COMDAT xdata
xdata	SEGMENT
$unwind$?_Myptr@?$_String_val@U?$_Simple_types@D@std@@@std@@QEAAPEADXZ DD 020a01H
	DD	07006520aH
xdata	ENDS
;	COMDAT xdata
xdata	SEGMENT
$unwind$??0?$_String_val@U?$_Simple_types@D@std@@@std@@QEAA@XZ DD 020a01H
	DD	07006320aH
xdata	ENDS
;	COMDAT xdata
xdata	SEGMENT
$unwind$?max_size@?$_Default_allocator_traits@V?$allocator@D@std@@@std@@SA_KAEBV?$allocator@D@2@@Z DD 010601H
	DD	07006H
xdata	ENDS
;	COMDAT xdata
xdata	SEGMENT
$unwind$?allocate@?$allocator@D@std@@QEAAPEAD_K@Z DD 020f01H
	DD	0700b320fH
xdata	ENDS
;	COMDAT xdata
xdata	SEGMENT
$unwind$?deallocate@?$allocator@D@std@@QEAAXQEAD_K@Z DD 021401H
	DD	070105214H
xdata	ENDS
;	COMDAT xdata
xdata	SEGMENT
$unwind$??0?$allocator@D@std@@QEAA@XZ DD 010601H
	DD	07006H
xdata	ENDS
;	COMDAT xdata
xdata	SEGMENT
$unwind$?_Xlen_string@std@@YAXXZ DD 020601H
	DD	070023206H
xdata	ENDS
;	COMDAT xdata
xdata	SEGMENT
$unwind$?assign@?$_Narrow_char_traits@DH@std@@SAXAEADAEBD@Z DD 010b01H
	DD	0700bH
xdata	ENDS
;	COMDAT xdata
xdata	SEGMENT
$unwind$?length@?$_Narrow_char_traits@DH@std@@SA_KQEBD@Z DD 020a01H
	DD	07006320aH
xdata	ENDS
;	COMDAT xdata
xdata	SEGMENT
$unwind$?compare@?$_Narrow_char_traits@DH@std@@SAHQEBD0_K@Z DD 021401H
	DD	070103214H
xdata	ENDS
;	COMDAT xdata
xdata	SEGMENT
$unwind$?move@?$_Char_traits@DH@std@@SAPEADQEADQEBD_K@Z DD 021401H
	DD	070103214H
xdata	ENDS
;	COMDAT xdata
xdata	SEGMENT
$unwind$?copy@?$_Char_traits@DH@std@@SAPEADQEADQEBD_K@Z DD 021401H
	DD	070103214H
xdata	ENDS
;	COMDAT xdata
xdata	SEGMENT
$unwind$??0_Basic_container_proxy_ptr12@std@@IEAA@XZ DD 010601H
	DD	07006H
xdata	ENDS
;	COMDAT xdata
xdata	SEGMENT
$unwind$?_Release@_Basic_container_proxy_ptr12@std@@QEAAXXZ DD 010601H
	DD	07006H
xdata	ENDS
;	COMDAT xdata
xdata	SEGMENT
$unwind$?_Orphan_all_locked_v3@_Container_base12@std@@AEAAXXZ DD 022001H
	DD	07006720aH
xdata	ENDS
;	COMDAT CONST
CONST	SEGMENT
?_Orphan_all_locked_v3@_Container_base12@std@@AEAAXXZ$rtcName$0 DB 05fH ; std::_Container_base12::_Orphan_all_locked_v3
	DB	04cH
	DB	06fH
	DB	063H
	DB	06bH
	DB	00H
	ORG $+10
?_Orphan_all_locked_v3@_Container_base12@std@@AEAAXXZ$rtcVarDesc DD 024H ; std::_Container_base12::_Orphan_all_locked_v3
	DD	04H
	DQ	FLAT:?_Orphan_all_locked_v3@_Container_base12@std@@AEAAXXZ$rtcName$0
	ORG $+48
?_Orphan_all_locked_v3@_Container_base12@std@@AEAAXXZ$rtcFrameData DD 01H ; std::_Container_base12::_Orphan_all_locked_v3
	DD	00H
	DQ	FLAT:?_Orphan_all_locked_v3@_Container_base12@std@@AEAAXXZ$rtcVarDesc
CONST	ENDS
;	COMDAT xdata
xdata	SEGMENT
$unwind$?_Orphan_all_unlocked_v3@_Container_base12@std@@AEAAXXZ DD 020a01H
	DD	07006120aH
xdata	ENDS
;	COMDAT xdata
xdata	SEGMENT
$unwind$?_Orphan_all@_Container_base12@std@@QEAAXXZ DD 020a01H
	DD	07006320aH
xdata	ENDS
;	COMDAT xdata
xdata	SEGMENT
$unwind$??0_Container_base12@std@@QEAA@XZ DD 010601H
	DD	07006H
xdata	ENDS
;	COMDAT xdata
xdata	SEGMENT
$unwind$??0_Container_proxy@std@@QEAA@PEAU_Container_base12@1@@Z DD 010b01H
	DD	0700bH
xdata	ENDS
;	COMDAT xdata
xdata	SEGMENT
$unwind$?_Adjust_manually_vector_aligned@std@@YAXAEAPEAXAEA_K@Z DD 020f01H
	DD	0700b920fH
xdata	ENDS
;	COMDAT xdata
xdata	SEGMENT
$unwind$?_Allocate@_Default_allocate_traits@std@@SAPEAX_K@Z DD 020a01H
	DD	07006320aH
xdata	ENDS
;	COMDAT xdata
xdata	SEGMENT
$unwind$?_Throw_bad_array_new_length@std@@YAXXZ DD 020601H
	DD	070027206H
xdata	ENDS
;	COMDAT xdata
xdata	SEGMENT
$unwind$??_Gbad_array_new_length@std@@UEAAPEAXI@Z DD 020e01H
	DD	0700a320eH
xdata	ENDS
;	COMDAT xdata
xdata	SEGMENT
$unwind$??0bad_array_new_length@std@@QEAA@AEBV01@@Z DD 020f01H
	DD	0700b320fH
xdata	ENDS
;	COMDAT xdata
xdata	SEGMENT
$unwind$??1bad_array_new_length@std@@UEAA@XZ DD 020a01H
	DD	07006320aH
xdata	ENDS
;	COMDAT xdata
xdata	SEGMENT
$unwind$??0bad_array_new_length@std@@QEAA@XZ DD 020a01H
	DD	07006320aH
xdata	ENDS
;	COMDAT xdata
xdata	SEGMENT
$unwind$??_Gbad_alloc@std@@UEAAPEAXI@Z DD 020e01H
	DD	0700a320eH
xdata	ENDS
;	COMDAT xdata
xdata	SEGMENT
$unwind$??0bad_alloc@std@@QEAA@AEBV01@@Z DD 020f01H
	DD	0700b320fH
xdata	ENDS
;	COMDAT xdata
xdata	SEGMENT
$unwind$??1bad_alloc@std@@UEAA@XZ DD 020a01H
	DD	07006320aH
xdata	ENDS
;	COMDAT xdata
xdata	SEGMENT
$unwind$??0bad_alloc@std@@AEAA@QEBD@Z DD 020f01H
	DD	0700b320fH
xdata	ENDS
;	COMDAT xdata
xdata	SEGMENT
$unwind$??_Gexception@std@@UEAAPEAXI@Z DD 020e01H
	DD	0700a320eH
xdata	ENDS
;	COMDAT xdata
xdata	SEGMENT
$unwind$?what@exception@std@@UEBAPEBDXZ DD 020a01H
	DD	07006120aH
xdata	ENDS
;	COMDAT xdata
xdata	SEGMENT
$unwind$??1exception@std@@UEAA@XZ DD 020a01H
	DD	07006320aH
xdata	ENDS
;	COMDAT xdata
xdata	SEGMENT
$unwind$??0exception@std@@QEAA@AEBV01@@Z DD 020f01H
	DD	0700b320fH
xdata	ENDS
;	COMDAT xdata
xdata	SEGMENT
$unwind$??0exception@std@@QEAA@QEBDH@Z DD 011001H
	DD	07010H
xdata	ENDS
;	COMDAT xdata
xdata	SEGMENT
$unwind$??A?$tvec4@C$0A@@glm@@QEBAAEBCH@Z DD 020e01H
	DD	0700a320eH
xdata	ENDS
;	COMDAT xdata
xdata	SEGMENT
$unwind$?length@?$tvec4@C$0A@@glm@@SAHXZ DD 010201H
	DD	07002H
xdata	ENDS
;	COMDAT xdata
xdata	SEGMENT
$unwind$??A?$tvec4@M$0A@@glm@@QEBAAEBMH@Z DD 020e01H
	DD	0700a320eH
xdata	ENDS
;	COMDAT xdata
xdata	SEGMENT
$unwind$?length@?$tvec4@M$0A@@glm@@SAHXZ DD 010201H
	DD	07002H
xdata	ENDS
;	COMDAT xdata
xdata	SEGMENT
$unwind$??A?$tvec2@F$0A@@glm@@QEBAAEBFH@Z DD 020e01H
	DD	0700a320eH
xdata	ENDS
;	COMDAT xdata
xdata	SEGMENT
$unwind$?length@?$tvec2@F$0A@@glm@@SAHXZ DD 010201H
	DD	07002H
xdata	ENDS
;	COMDAT xdata
xdata	SEGMENT
$unwind$??0?$tvec2@M$0A@@glm@@QEAA@MM@Z DD 011201H
	DD	07012H
xdata	ENDS
;	COMDAT xdata
xdata	SEGMENT
$unwind$??0?$tvec2@M$0A@@glm@@QEAA@XZ DD 010601H
	DD	07006H
xdata	ENDS
;	COMDAT xdata
xdata	SEGMENT
$unwind$??A?$tvec2@M$0A@@glm@@QEBAAEBMH@Z DD 020e01H
	DD	0700a320eH
xdata	ENDS
;	COMDAT xdata
xdata	SEGMENT
$unwind$?length@?$tvec2@M$0A@@glm@@SAHXZ DD 010201H
	DD	07002H
xdata	ENDS
;	COMDAT xdata
xdata	SEGMENT
$unwind$?max@?$numeric_limits@_J@std@@SA_JXZ DD 010201H
	DD	07002H
xdata	ENDS
;	COMDAT xdata
xdata	SEGMENT
$unwind$vsprintf_s DD 021901H
	DD	070155219H
xdata	ENDS
;	COMDAT xdata
xdata	SEGMENT
$unwind$_vsprintf_s_l DD 021901H
	DD	070157219H
xdata	ENDS
;	COMDAT xdata
xdata	SEGMENT
$unwind$__local_stdio_printf_options DD 010201H
	DD	07002H
xdata	ENDS
;	COMDAT xdata
xdata	SEGMENT
$unwind$??2@YAPEAX_KPEAX@Z DD 010b01H
	DD	0700bH
xdata	ENDS
;	COMDAT xdata
xdata	SEGMENT
$unwind$??_H@YAXPEAX_K1P6APEAX0@Z@Z DD 021901H
	DD	070155219H
xdata	ENDS
; Function compile flags: /Odtp /RTCsu
; File C:\Program Files\Microsoft Visual Studio\2022\Community\VC\Tools\MSVC\14.32.31326\include\xstring
;	COMDAT ??$_Traits_equal@U?$char_traits@D@std@@@std@@YA_NQEBD_K01@Z
_TEXT	SEGMENT
tv70 = 32
_Left$ = 64
_Left_size$ = 72
_Right$ = 80
_Right_size$ = 88
??$_Traits_equal@U?$char_traits@D@std@@@std@@YA_NQEBD_K01@Z PROC ; std::_Traits_equal<std::char_traits<char> >, COMDAT

; 576  :     _In_reads_(_Right_size) const _Traits_ptr_t<_Traits> _Right, const size_t _Right_size) noexcept {

$LN5:
	mov	QWORD PTR [rsp+32], r9
	mov	QWORD PTR [rsp+24], r8
	mov	QWORD PTR [rsp+16], rdx
	mov	QWORD PTR [rsp+8], rcx
	push	rdi
	sub	rsp, 48					; 00000030H

; 577  :     // compare [_Left, _Left + _Left_size) to [_Right, _Right + _Right_size) for equality using _Traits
; 578  :     return _Left_size == _Right_size && _Traits::compare(_Left, _Right, _Left_size) == 0;

	mov	rax, QWORD PTR _Right_size$[rsp]
	cmp	QWORD PTR _Left_size$[rsp], rax
	jne	SHORT $LN3@Traits_equ
	mov	r8, QWORD PTR _Left_size$[rsp]
	mov	rdx, QWORD PTR _Right$[rsp]
	mov	rcx, QWORD PTR _Left$[rsp]
	call	?compare@?$_Narrow_char_traits@DH@std@@SAHQEBD0_K@Z ; std::_Narrow_char_traits<char,int>::compare
	test	eax, eax
	jne	SHORT $LN3@Traits_equ
	mov	DWORD PTR tv70[rsp], 1
	jmp	SHORT $LN4@Traits_equ
$LN3@Traits_equ:
	mov	DWORD PTR tv70[rsp], 0
$LN4@Traits_equ:
	movzx	eax, BYTE PTR tv70[rsp]

; 579  : }

	add	rsp, 48					; 00000030H
	pop	rdi
	ret	0
??$_Traits_equal@U?$char_traits@D@std@@@std@@YA_NQEBD_K01@Z ENDP ; std::_Traits_equal<std::char_traits<char> >
_TEXT	ENDS
; Function compile flags: /Odtp /RTCsu
; File C:\Program Files\Microsoft Visual Studio\2022\Community\VC\Tools\MSVC\14.32.31326\include\type_traits
;	COMDAT ??$forward@AEBQEAD@std@@YAAEBQEADAEBQEAD@Z
_TEXT	SEGMENT
_Arg$ = 16
??$forward@AEBQEAD@std@@YAAEBQEADAEBQEAD@Z PROC		; std::forward<char * const &>, COMDAT

; 1341 :     remove_reference_t<_Ty>& _Arg) noexcept { // forward an lvalue as either an lvalue or an rvalue

$LN3:
	mov	QWORD PTR [rsp+8], rcx
	push	rdi

; 1342 :     return static_cast<_Ty&&>(_Arg);

	mov	rax, QWORD PTR _Arg$[rsp]

; 1343 : }

	pop	rdi
	ret	0
??$forward@AEBQEAD@std@@YAAEBQEADAEBQEAD@Z ENDP		; std::forward<char * const &>
_TEXT	ENDS
; Function compile flags: /Odtp /RTCsu
; File C:\Program Files\Microsoft Visual Studio\2022\Community\VC\Tools\MSVC\14.32.31326\include\xmemory
;	COMDAT ?deallocate@?$_Default_allocator_traits@V?$allocator@U_Container_proxy@std@@@std@@@std@@SAXAEAV?$allocator@U_Container_proxy@std@@@2@QEAU_Container_proxy@2@_K@Z
_TEXT	SEGMENT
_Al$ = 48
_Ptr$ = 56
_Count$ = 64
?deallocate@?$_Default_allocator_traits@V?$allocator@U_Container_proxy@std@@@std@@@std@@SAXAEAV?$allocator@U_Container_proxy@std@@@2@QEAU_Container_proxy@2@_K@Z PROC ; std::_Default_allocator_traits<std::allocator<std::_Container_proxy> >::deallocate, COMDAT

; 659  :     static _CONSTEXPR20 void deallocate(_Alloc& _Al, const pointer _Ptr, const size_type _Count) {

$LN3:
	mov	QWORD PTR [rsp+24], r8
	mov	QWORD PTR [rsp+16], rdx
	mov	QWORD PTR [rsp+8], rcx
	push	rdi
	sub	rsp, 32					; 00000020H

; 660  :         // no overflow check on the following multiply; we assume _Allocate did that check
; 661  : #if _HAS_CXX20 // TRANSITION, GH-1532
; 662  :         if (_STD is_constant_evaluated()) {
; 663  :             _Al.deallocate(_Ptr, _Count);
; 664  :         } else
; 665  : #endif // _HAS_CXX20
; 666  :         {
; 667  :             (void) _Al;
; 668  :             _Deallocate<_New_alignof<value_type>>(_Ptr, sizeof(value_type) * _Count);

	imul	rax, QWORD PTR _Count$[rsp], 16
	mov	rdx, rax
	mov	rcx, QWORD PTR _Ptr$[rsp]
	call	??$_Deallocate@$0BA@$0A@@std@@YAXPEAX_K@Z ; std::_Deallocate<16,0>

; 669  :         }
; 670  :     }

	add	rsp, 32					; 00000020H
	pop	rdi
	ret	0
?deallocate@?$_Default_allocator_traits@V?$allocator@U_Container_proxy@std@@@std@@@std@@SAXAEAV?$allocator@U_Container_proxy@std@@@2@QEAU_Container_proxy@2@_K@Z ENDP ; std::_Default_allocator_traits<std::allocator<std::_Container_proxy> >::deallocate
_TEXT	ENDS
; Function compile flags: /Odtp /RTCsu
; File C:\Program Files\Microsoft Visual Studio\2022\Community\VC\Tools\MSVC\14.32.31326\include\xmemory
