; Listing generated by Microsoft (R) Optimizing Compiler Version 19.32.31329.0 

include listing.inc

INCLUDELIB MSVCRTD

CONST	SEGMENT
$SG94130 DB	'invalid argument', 00H
	ORG $+3
$SG94131 DB	'%s', 00H
	ORG $+1
$SG94135 DB	'"', 00H, 'i', 00H, 'n', 00H, 'v', 00H, 'a', 00H, 'l', 00H
	DB	'i', 00H, 'd', 00H, ' ', 00H, 'a', 00H, 'r', 00H, 'g', 00H, 'u'
	DB	00H, 'm', 00H, 'e', 00H, 'n', 00H, 't', 00H, '"', 00H, 00H, 00H
	ORG $+2
$SG94132 DB	'C:\Program Files\Microsoft Visual Studio\2022\Community\'
	DB	'VC\Tools\MSVC\14.32.31326\include\xmemory', 00H
	ORG $+2
$SG94134 DB	00H, 00H
	ORG $+2
$SG80079 DB	'texture_perlin_pedioric_2d_256.dds', 00H
	ORG $+5
$SG94133 DB	'C', 00H, ':', 00H, '\', 00H, 'P', 00H, 'r', 00H, 'o', 00H
	DB	'g', 00H, 'r', 00H, 'a', 00H, 'm', 00H, ' ', 00H, 'F', 00H, 'i'
	DB	00H, 'l', 00H, 'e', 00H, 's', 00H, '\', 00H, 'M', 00H, 'i', 00H
	DB	'c', 00H, 'r', 00H, 'o', 00H, 's', 00H, 'o', 00H, 'f', 00H, 't'
	DB	00H, ' ', 00H, 'V', 00H, 'i', 00H, 's', 00H, 'u', 00H, 'a', 00H
	DB	'l', 00H, ' ', 00H, 'S', 00H, 't', 00H, 'u', 00H, 'd', 00H, 'i'
	DB	00H, 'o', 00H, '\', 00H, '2', 00H, '0', 00H, '2', 00H, '2', 00H
	DB	'\', 00H, 'C', 00H, 'o', 00H, 'm', 00H, 'm', 00H, 'u', 00H, 'n'
	DB	00H, 'i', 00H, 't', 00H, 'y', 00H, '\', 00H, 'V', 00H, 'C', 00H
	DB	'\', 00H, 'T', 00H, 'o', 00H, 'o', 00H, 'l', 00H, 's', 00H, '\'
	DB	00H, 'M', 00H, 'S', 00H, 'V', 00H, 'C', 00H, '\', 00H, '1', 00H
	DB	'4', 00H, '.', 00H, '3', 00H, '2', 00H, '.', 00H, '3', 00H, '1'
	DB	00H, '3', 00H, '2', 00H, '6', 00H, '\', 00H, 'i', 00H, 'n', 00H
	DB	'c', 00H, 'l', 00H, 'u', 00H, 'd', 00H, 'e', 00H, '\', 00H, 'x'
	DB	00H, 'm', 00H, 'e', 00H, 'm', 00H, 'o', 00H, 'r', 00H, 'y', 00H
	DB	00H, 00H
	ORG $+12
$SG94204 DB	'C:\Program Files\Microsoft Visual Studio\2022\Community\'
	DB	'VC\Tools\MSVC\14.32.31326\include\xlocale', 00H
	ORG $+6
$SG79866 DB	'texture_simplex2d_256.dds', 00H
	ORG $+6
$SG79867 DB	'texture_simplex3d_256.dds', 00H
	ORG $+6
$SG79868 DB	'texture_simplex4d_256.dds', 00H
	ORG $+6
$SG79968 DB	'texture_perlin2d_256.dds', 00H
	ORG $+7
$SG79969 DB	'texture_perlin3d_256.dds', 00H
	ORG $+7
$SG79970 DB	'texture_perlin4d_256.dds', 00H
	ORG $+7
$SG80080 DB	'texture_perlin_pedioric_3d_256.dds', 00H
	ORG $+5
$SG80081 DB	'texture_perlin_pedioric_4d_256.dds', 00H
CONST	ENDS
PUBLIC	?__empty_global_delete@@YAXPEAX@Z		; __empty_global_delete
PUBLIC	?__empty_global_delete@@YAXPEAX_K@Z		; __empty_global_delete
PUBLIC	??2@YAPEAX_KPEAX@Z				; operator new
PUBLIC	?floor@@YAMM@Z					; floor
PUBLIC	?max@?$numeric_limits@_J@std@@SA_JXZ		; std::numeric_limits<__int64>::max
PUBLIC	??0exception@std@@QEAA@QEBDH@Z			; std::exception::exception
PUBLIC	??0exception@std@@QEAA@AEBV01@@Z		; std::exception::exception
PUBLIC	??1exception@std@@UEAA@XZ			; std::exception::~exception
PUBLIC	?what@exception@std@@UEBAPEBDXZ			; std::exception::what
PUBLIC	??_Gexception@std@@UEAAPEAXI@Z			; std::exception::`scalar deleting destructor'
PUBLIC	??0bad_alloc@std@@AEAA@QEBD@Z			; std::bad_alloc::bad_alloc
PUBLIC	??1bad_alloc@std@@UEAA@XZ			; std::bad_alloc::~bad_alloc
PUBLIC	??0bad_alloc@std@@QEAA@AEBV01@@Z		; std::bad_alloc::bad_alloc
PUBLIC	??_Gbad_alloc@std@@UEAAPEAXI@Z			; std::bad_alloc::`scalar deleting destructor'
PUBLIC	??0bad_array_new_length@std@@QEAA@XZ		; std::bad_array_new_length::bad_array_new_length
PUBLIC	??1bad_array_new_length@std@@UEAA@XZ		; std::bad_array_new_length::~bad_array_new_length
PUBLIC	??0bad_array_new_length@std@@QEAA@AEBV01@@Z	; std::bad_array_new_length::bad_array_new_length
PUBLIC	??_Gbad_array_new_length@std@@UEAAPEAXI@Z	; std::bad_array_new_length::`scalar deleting destructor'
PUBLIC	?_Throw_bad_array_new_length@std@@YAXXZ		; std::_Throw_bad_array_new_length
PUBLIC	?_Allocate@_Default_allocate_traits@std@@SAPEAX_K@Z ; std::_Default_allocate_traits::_Allocate
PUBLIC	?_Adjust_manually_vector_aligned@std@@YAXAEAPEAXAEA_K@Z ; std::_Adjust_manually_vector_aligned
PUBLIC	??0_Container_proxy@std@@QEAA@PEAU_Container_base12@1@@Z ; std::_Container_proxy::_Container_proxy
PUBLIC	??0_Container_base12@std@@QEAA@XZ		; std::_Container_base12::_Container_base12
PUBLIC	?_Orphan_all@_Container_base12@std@@QEAAXXZ	; std::_Container_base12::_Orphan_all
PUBLIC	?_Orphan_all_unlocked_v3@_Container_base12@std@@AEAAXXZ ; std::_Container_base12::_Orphan_all_unlocked_v3
PUBLIC	?_Orphan_all_locked_v3@_Container_base12@std@@AEAAXXZ ; std::_Container_base12::_Orphan_all_locked_v3
PUBLIC	?_Release@_Basic_container_proxy_ptr12@std@@QEAAXXZ ; std::_Basic_container_proxy_ptr12::_Release
PUBLIC	??0_Basic_container_proxy_ptr12@std@@IEAA@XZ	; std::_Basic_container_proxy_ptr12::_Basic_container_proxy_ptr12
PUBLIC	??0?$tvec2@M$0A@@glm@@QEAA@M@Z			; glm::tvec2<float,0>::tvec2<float,0>
PUBLIC	??0?$tvec2@M$0A@@glm@@QEAA@MM@Z			; glm::tvec2<float,0>::tvec2<float,0>
PUBLIC	??$?DM$0A@@glm@@YA?AU?$tvec2@M$0A@@0@AEBU10@M@Z	; glm::operator*<float,0>
PUBLIC	?length@?$tvec4@M$0A@@glm@@SAHXZ		; glm::tvec4<float,0>::length
PUBLIC	??A?$tvec4@M$0A@@glm@@QEAAAEAMH@Z		; glm::tvec4<float,0>::operator[]
PUBLIC	??A?$tvec4@M$0A@@glm@@QEBAAEBMH@Z		; glm::tvec4<float,0>::operator[]
PUBLIC	??0?$tvec4@M$0A@@glm@@QEAA@XZ			; glm::tvec4<float,0>::tvec4<float,0>
PUBLIC	??0?$tvec4@M$0A@@glm@@QEAA@W4ctor@1@@Z		; glm::tvec4<float,0>::tvec4<float,0>
PUBLIC	??0?$tvec4@M$0A@@glm@@QEAA@M@Z			; glm::tvec4<float,0>::tvec4<float,0>
PUBLIC	??0?$tvec4@M$0A@@glm@@QEAA@MMMM@Z		; glm::tvec4<float,0>::tvec4<float,0>
PUBLIC	??$clamp@M$0A@Utvec4@glm@@@glm@@YA?AU?$tvec4@M$0A@@0@AEBU10@MM@Z ; glm::clamp<float,0,glm::tvec4>
PUBLIC	??$?DM$0A@@glm@@YA?AU?$tvec4@M$0A@@0@AEBU10@M@Z	; glm::operator*<float,0>
PUBLIC	?length@?$tvec2@I$0A@@glm@@SAHXZ		; glm::tvec2<unsigned int,0>::length
PUBLIC	??A?$tvec2@I$0A@@glm@@QEBAAEBIH@Z		; glm::tvec2<unsigned int,0>::operator[]
PUBLIC	??0?$tvec2@I$0A@@glm@@QEAA@I@Z			; glm::tvec2<unsigned int,0>::tvec2<unsigned int,0>
PUBLIC	??0?$tvec2@I$0A@@glm@@QEAA@II@Z			; glm::tvec2<unsigned int,0>::tvec2<unsigned int,0>
PUBLIC	??0image2D@gli@@QEAA@XZ				; gli::image2D::image2D
PUBLIC	??0image2D@gli@@QEAA@AEBV01@@Z			; gli::image2D::image2D
PUBLIC	??0image2D@gli@@QEAA@AEBU?$tvec2@I$0A@@glm@@AEBW4format@1@@Z ; gli::image2D::image2D
PUBLIC	??1image2D@gli@@QEAA@XZ				; gli::image2D::~image2D
PUBLIC	?dimensions@image2D@gli@@QEBA?AU?$tvec2@I$0A@@glm@@XZ ; gli::image2D::dimensions
PUBLIC	?format@image2D@gli@@QEBA?AW402@XZ		; gli::image2D::format
PUBLIC	?data@image2D@gli@@QEAAPEAEXZ			; gli::image2D::data
PUBLIC	?data@image2D@gli@@QEBAQEBEXZ			; gli::image2D::data
PUBLIC	??0?$allocator@E@std@@QEAA@XZ			; std::allocator<unsigned char>::allocator<unsigned char>
PUBLIC	?deallocate@?$allocator@E@std@@QEAAXQEAE_K@Z	; std::allocator<unsigned char>::deallocate
PUBLIC	?allocate@?$allocator@E@std@@QEAAPEAE_K@Z	; std::allocator<unsigned char>::allocate
PUBLIC	?max_size@?$_Default_allocator_traits@V?$allocator@E@std@@@std@@SA_KAEBV?$allocator@E@2@@Z ; std::_Default_allocator_traits<std::allocator<unsigned char> >::max_size
PUBLIC	?select_on_container_copy_construction@?$_Default_allocator_traits@V?$allocator@E@std@@@std@@SA?AV?$allocator@E@2@AEBV32@@Z ; std::_Default_allocator_traits<std::allocator<unsigned char> >::select_on_container_copy_construction
PUBLIC	??0?$vector@EV?$allocator@E@std@@@std@@QEAA@_KAEBV?$allocator@E@1@@Z ; std::vector<unsigned char,std::allocator<unsigned char> >::vector<unsigned char,std::allocator<unsigned char> >
PUBLIC	??0?$vector@EV?$allocator@E@std@@@std@@QEAA@AEBV01@@Z ; std::vector<unsigned char,std::allocator<unsigned char> >::vector<unsigned char,std::allocator<unsigned char> >
PUBLIC	??1?$vector@EV?$allocator@E@std@@@std@@QEAA@XZ	; std::vector<unsigned char,std::allocator<unsigned char> >::~vector<unsigned char,std::allocator<unsigned char> >
PUBLIC	??4?$vector@EV?$allocator@E@std@@@std@@QEAAAEAV01@AEBV01@@Z ; std::vector<unsigned char,std::allocator<unsigned char> >::operator=
PUBLIC	?_Clear_and_reserve_geometric@?$vector@EV?$allocator@E@std@@@std@@AEAAX_K@Z ; std::vector<unsigned char,std::allocator<unsigned char> >::_Clear_and_reserve_geometric
PUBLIC	?size@?$vector@EV?$allocator@E@std@@@std@@QEBA_KXZ ; std::vector<unsigned char,std::allocator<unsigned char> >::size
PUBLIC	?max_size@?$vector@EV?$allocator@E@std@@@std@@QEBA_KXZ ; std::vector<unsigned char,std::allocator<unsigned char> >::max_size
PUBLIC	?capacity@?$vector@EV?$allocator@E@std@@@std@@QEBA_KXZ ; std::vector<unsigned char,std::allocator<unsigned char> >::capacity
PUBLIC	??A?$vector@EV?$allocator@E@std@@@std@@QEAAAEAE_K@Z ; std::vector<unsigned char,std::allocator<unsigned char> >::operator[]
PUBLIC	??A?$vector@EV?$allocator@E@std@@@std@@QEBAAEBE_K@Z ; std::vector<unsigned char,std::allocator<unsigned char> >::operator[]
PUBLIC	?_Calculate_growth@?$vector@EV?$allocator@E@std@@@std@@AEBA_K_K@Z ; std::vector<unsigned char,std::allocator<unsigned char> >::_Calculate_growth
PUBLIC	?_Buy_raw@?$vector@EV?$allocator@E@std@@@std@@AEAAX_K@Z ; std::vector<unsigned char,std::allocator<unsigned char> >::_Buy_raw
PUBLIC	?_Buy_nonzero@?$vector@EV?$allocator@E@std@@@std@@AEAAX_K@Z ; std::vector<unsigned char,std::allocator<unsigned char> >::_Buy_nonzero
PUBLIC	?_Tidy@?$vector@EV?$allocator@E@std@@@std@@AEAAXXZ ; std::vector<unsigned char,std::allocator<unsigned char> >::_Tidy
PUBLIC	?_Xlength@?$vector@EV?$allocator@E@std@@@std@@CAXXZ ; std::vector<unsigned char,std::allocator<unsigned char> >::_Xlength
PUBLIC	?_Getal@?$vector@EV?$allocator@E@std@@@std@@AEAAAEAV?$allocator@E@2@XZ ; std::vector<unsigned char,std::allocator<unsigned char> >::_Getal
PUBLIC	?_Getal@?$vector@EV?$allocator@E@std@@@std@@AEBAAEBV?$allocator@E@2@XZ ; std::vector<unsigned char,std::allocator<unsigned char> >::_Getal
PUBLIC	??0?$_Vector_val@U?$_Simple_types@E@std@@@std@@QEAA@XZ ; std::_Vector_val<std::_Simple_types<unsigned char> >::_Vector_val<std::_Simple_types<unsigned char> >
PUBLIC	?_Get_first@?$_Compressed_pair@V?$allocator@E@std@@V?$_Vector_val@U?$_Simple_types@E@std@@@2@$00@std@@QEAAAEAV?$allocator@E@2@XZ ; std::_Compressed_pair<std::allocator<unsigned char>,std::_Vector_val<std::_Simple_types<unsigned char> >,1>::_Get_first
PUBLIC	?_Get_first@?$_Compressed_pair@V?$allocator@E@std@@V?$_Vector_val@U?$_Simple_types@E@std@@@2@$00@std@@QEBAAEBV?$allocator@E@2@XZ ; std::_Compressed_pair<std::allocator<unsigned char>,std::_Vector_val<std::_Simple_types<unsigned char> >,1>::_Get_first
PUBLIC	??4image2D@gli@@QEAAAEAV01@AEBV01@@Z		; gli::image2D::operator=
PUBLIC	??_Gimage2D@gli@@QEAAPEAXI@Z			; gli::image2D::`scalar deleting destructor'
PUBLIC	?getFormatInfo@detail@gli@@YA?AUformat_desc@12@AEBW4format@2@@Z ; gli::detail::getFormatInfo
PUBLIC	?sizeBlock@detail@gli@@YAIAEBW4format@2@@Z	; gli::detail::sizeBlock
PUBLIC	?sizeBitPerPixel@detail@gli@@YAIAEBW4format@2@@Z ; gli::detail::sizeBitPerPixel
PUBLIC	?sizeComponent@detail@gli@@YAIAEBW4format@2@@Z	; gli::detail::sizeComponent
PUBLIC	?sizeLinear@detail@gli@@YAIAEBVimage2D@2@@Z	; gli::detail::sizeLinear
PUBLIC	??$max@I$0A@Utvec2@glm@@@glm@@YA?AU?$tvec2@I$0A@@0@AEBU10@0@Z ; glm::max<unsigned int,0,glm::tvec2>
PUBLIC	??$compMul@I$0A@Utvec2@glm@@@glm@@YAIAEBU?$tvec2@I$0A@@0@@Z ; glm::compMul<unsigned int,0,glm::tvec2>
PUBLIC	??0texture2D@gli@@QEAA@AEB_K@Z			; gli::texture2D::texture2D
PUBLIC	??1texture2D@gli@@QEAA@XZ			; gli::texture2D::~texture2D
PUBLIC	??Atexture2D@gli@@QEAAAEAVimage2D@1@AEB_K@Z	; gli::texture2D::operator[]
PUBLIC	??Atexture2D@gli@@QEBAAEBVimage2D@1@AEB_K@Z	; gli::texture2D::operator[]
PUBLIC	?format@texture2D@gli@@QEBA?AW402@XZ		; gli::texture2D::format
PUBLIC	?levels@texture2D@gli@@QEBA_KXZ			; gli::texture2D::levels
PUBLIC	??0?$allocator@Vimage2D@gli@@@std@@QEAA@XZ	; std::allocator<gli::image2D>::allocator<gli::image2D>
PUBLIC	?deallocate@?$allocator@Vimage2D@gli@@@std@@QEAAXQEAVimage2D@gli@@_K@Z ; std::allocator<gli::image2D>::deallocate
PUBLIC	?allocate@?$allocator@Vimage2D@gli@@@std@@QEAAPEAVimage2D@gli@@_K@Z ; std::allocator<gli::image2D>::allocate
PUBLIC	?max_size@?$_Default_allocator_traits@V?$allocator@Vimage2D@gli@@@std@@@std@@SA_KAEBV?$allocator@Vimage2D@gli@@@2@@Z ; std::_Default_allocator_traits<std::allocator<gli::image2D> >::max_size
PUBLIC	??0?$vector@Vimage2D@gli@@V?$allocator@Vimage2D@gli@@@std@@@std@@QEAA@XZ ; std::vector<gli::image2D,std::allocator<gli::image2D> >::vector<gli::image2D,std::allocator<gli::image2D> >
PUBLIC	??1?$vector@Vimage2D@gli@@V?$allocator@Vimage2D@gli@@@std@@@std@@QEAA@XZ ; std::vector<gli::image2D,std::allocator<gli::image2D> >::~vector<gli::image2D,std::allocator<gli::image2D> >
PUBLIC	?resize@?$vector@Vimage2D@gli@@V?$allocator@Vimage2D@gli@@@std@@@std@@QEAAX_K@Z ; std::vector<gli::image2D,std::allocator<gli::image2D> >::resize
PUBLIC	?empty@?$vector@Vimage2D@gli@@V?$allocator@Vimage2D@gli@@@std@@@std@@QEBA_NXZ ; std::vector<gli::image2D,std::allocator<gli::image2D> >::empty
PUBLIC	?size@?$vector@Vimage2D@gli@@V?$allocator@Vimage2D@gli@@@std@@@std@@QEBA_KXZ ; std::vector<gli::image2D,std::allocator<gli::image2D> >::size
PUBLIC	?max_size@?$vector@Vimage2D@gli@@V?$allocator@Vimage2D@gli@@@std@@@std@@QEBA_KXZ ; std::vector<gli::image2D,std::allocator<gli::image2D> >::max_size
PUBLIC	?capacity@?$vector@Vimage2D@gli@@V?$allocator@Vimage2D@gli@@@std@@@std@@QEBA_KXZ ; std::vector<gli::image2D,std::allocator<gli::image2D> >::capacity
PUBLIC	??A?$vector@Vimage2D@gli@@V?$allocator@Vimage2D@gli@@@std@@@std@@QEAAAEAVimage2D@gli@@_K@Z ; std::vector<gli::image2D,std::allocator<gli::image2D> >::operator[]
PUBLIC	??A?$vector@Vimage2D@gli@@V?$allocator@Vimage2D@gli@@@std@@@std@@QEBAAEBVimage2D@gli@@_K@Z ; std::vector<gli::image2D,std::allocator<gli::image2D> >::operator[]
PUBLIC	?_Calculate_growth@?$vector@Vimage2D@gli@@V?$allocator@Vimage2D@gli@@@std@@@std@@AEBA_K_K@Z ; std::vector<gli::image2D,std::allocator<gli::image2D> >::_Calculate_growth
PUBLIC	?_Change_array@?$vector@Vimage2D@gli@@V?$allocator@Vimage2D@gli@@@std@@@std@@AEAAXQEAVimage2D@gli@@_K1@Z ; std::vector<gli::image2D,std::allocator<gli::image2D> >::_Change_array
PUBLIC	?_Tidy@?$vector@Vimage2D@gli@@V?$allocator@Vimage2D@gli@@@std@@@std@@AEAAXXZ ; std::vector<gli::image2D,std::allocator<gli::image2D> >::_Tidy
PUBLIC	?_Xlength@?$vector@Vimage2D@gli@@V?$allocator@Vimage2D@gli@@@std@@@std@@CAXXZ ; std::vector<gli::image2D,std::allocator<gli::image2D> >::_Xlength
PUBLIC	?_Orphan_range_unlocked@?$vector@Vimage2D@gli@@V?$allocator@Vimage2D@gli@@@std@@@std@@AEBAXPEAVimage2D@gli@@0@Z ; std::vector<gli::image2D,std::allocator<gli::image2D> >::_Orphan_range_unlocked
PUBLIC	?_Orphan_range_locked@?$vector@Vimage2D@gli@@V?$allocator@Vimage2D@gli@@@std@@@std@@AEBAXPEAVimage2D@gli@@0@Z ; std::vector<gli::image2D,std::allocator<gli::image2D> >::_Orphan_range_locked
PUBLIC	?_Orphan_range@?$vector@Vimage2D@gli@@V?$allocator@Vimage2D@gli@@@std@@@std@@AEBAXPEAVimage2D@gli@@0@Z ; std::vector<gli::image2D,std::allocator<gli::image2D> >::_Orphan_range
PUBLIC	?_Getal@?$vector@Vimage2D@gli@@V?$allocator@Vimage2D@gli@@@std@@@std@@AEAAAEAV?$allocator@Vimage2D@gli@@@2@XZ ; std::vector<gli::image2D,std::allocator<gli::image2D> >::_Getal
PUBLIC	?_Getal@?$vector@Vimage2D@gli@@V?$allocator@Vimage2D@gli@@@std@@@std@@AEBAAEBV?$allocator@Vimage2D@gli@@@2@XZ ; std::vector<gli::image2D,std::allocator<gli::image2D> >::_Getal
PUBLIC	??0?$_Vector_val@U?$_Simple_types@Vimage2D@gli@@@std@@@std@@QEAA@XZ ; std::_Vector_val<std::_Simple_types<gli::image2D> >::_Vector_val<std::_Simple_types<gli::image2D> >
PUBLIC	?_Get_first@?$_Compressed_pair@V?$allocator@Vimage2D@gli@@@std@@V?$_Vector_val@U?$_Simple_types@Vimage2D@gli@@@std@@@2@$00@std@@QEAAAEAV?$allocator@Vimage2D@gli@@@2@XZ ; std::_Compressed_pair<std::allocator<gli::image2D>,std::_Vector_val<std::_Simple_types<gli::image2D> >,1>::_Get_first
PUBLIC	?_Get_first@?$_Compressed_pair@V?$allocator@Vimage2D@gli@@@std@@V?$_Vector_val@U?$_Simple_types@Vimage2D@gli@@@std@@@2@$00@std@@QEBAAEBV?$allocator@Vimage2D@gli@@@2@XZ ; std::_Compressed_pair<std::allocator<gli::image2D>,std::_Vector_val<std::_Simple_types<gli::image2D> >,1>::_Get_first
PUBLIC	?size@gli@@YAIAEBVimage2D@1@AEBI@Z		; gli::size
PUBLIC	?size@gli@@YAIAEBVtexture2D@1@AEBI@Z		; gli::size
PUBLIC	?copy@?$_Char_traits@DH@std@@SAPEADQEADQEBD_K@Z	; std::_Char_traits<char,int>::copy
PUBLIC	?move@?$_Char_traits@DH@std@@SAPEADQEADQEBD_K@Z	; std::_Char_traits<char,int>::move
PUBLIC	?length@?$_Narrow_char_traits@DH@std@@SA_KQEBD@Z ; std::_Narrow_char_traits<char,int>::length
PUBLIC	?assign@?$_Narrow_char_traits@DH@std@@SAXAEADAEBD@Z ; std::_Narrow_char_traits<char,int>::assign
PUBLIC	?to_char_type@?$_Narrow_char_traits@DH@std@@SADAEBH@Z ; std::_Narrow_char_traits<char,int>::to_char_type
PUBLIC	?to_int_type@?$_Narrow_char_traits@DH@std@@SAHAEBD@Z ; std::_Narrow_char_traits<char,int>::to_int_type
PUBLIC	?eq_int_type@?$_Narrow_char_traits@DH@std@@SA_NAEBH0@Z ; std::_Narrow_char_traits<char,int>::eq_int_type
PUBLIC	?not_eof@?$_Narrow_char_traits@DH@std@@SAHAEBH@Z ; std::_Narrow_char_traits<char,int>::not_eof
PUBLIC	?eof@?$_Narrow_char_traits@DH@std@@SAHXZ	; std::_Narrow_char_traits<char,int>::eof
PUBLIC	?_Xlen_string@std@@YAXXZ			; std::_Xlen_string
PUBLIC	??0?$allocator@D@std@@QEAA@XZ			; std::allocator<char>::allocator<char>
PUBLIC	?deallocate@?$allocator@D@std@@QEAAXQEAD_K@Z	; std::allocator<char>::deallocate
PUBLIC	?allocate@?$allocator@D@std@@QEAAPEAD_K@Z	; std::allocator<char>::allocate
PUBLIC	?max_size@?$_Default_allocator_traits@V?$allocator@D@std@@@std@@SA_KAEBV?$allocator@D@2@@Z ; std::_Default_allocator_traits<std::allocator<char> >::max_size
PUBLIC	??0?$_String_val@U?$_Simple_types@D@std@@@std@@QEAA@XZ ; std::_String_val<std::_Simple_types<char> >::_String_val<std::_Simple_types<char> >
PUBLIC	?_Myptr@?$_String_val@U?$_Simple_types@D@std@@@std@@QEAAPEADXZ ; std::_String_val<std::_Simple_types<char> >::_Myptr
PUBLIC	?_Myptr@?$_String_val@U?$_Simple_types@D@std@@@std@@QEBAPEBDXZ ; std::_String_val<std::_Simple_types<char> >::_Myptr
PUBLIC	?_Large_string_engaged@?$_String_val@U?$_Simple_types@D@std@@@std@@QEBA_NXZ ; std::_String_val<std::_Simple_types<char> >::_Large_string_engaged
PUBLIC	?_Check_offset@?$_String_val@U?$_Simple_types@D@std@@@std@@QEBAX_K@Z ; std::_String_val<std::_Simple_types<char> >::_Check_offset
PUBLIC	?_Xran@?$_String_val@U?$_Simple_types@D@std@@@std@@SAXXZ ; std::_String_val<std::_Simple_types<char> >::_Xran
PUBLIC	?_Clamp_suffix_size@?$_String_val@U?$_Simple_types@D@std@@@std@@QEBA_K_K0@Z ; std::_String_val<std::_Simple_types<char> >::_Clamp_suffix_size
PUBLIC	??0_Bxty@?$_String_val@U?$_Simple_types@D@std@@@std@@QEAA@XZ ; std::_String_val<std::_Simple_types<char> >::_Bxty::_Bxty
PUBLIC	??1_Bxty@?$_String_val@U?$_Simple_types@D@std@@@std@@QEAA@XZ ; std::_String_val<std::_Simple_types<char> >::_Bxty::~_Bxty
PUBLIC	??1?$_String_val@U?$_Simple_types@D@std@@@std@@QEAA@XZ ; std::_String_val<std::_Simple_types<char> >::~_String_val<std::_Simple_types<char> >
PUBLIC	??0?$basic_string@DU?$char_traits@D@std@@V?$allocator@D@2@@std@@QEAA@XZ ; std::basic_string<char,std::char_traits<char>,std::allocator<char> >::basic_string<char,std::char_traits<char>,std::allocator<char> >
PUBLIC	??0?$basic_string@DU?$char_traits@D@std@@V?$allocator@D@2@@std@@QEAA@QEBD@Z ; std::basic_string<char,std::char_traits<char>,std::allocator<char> >::basic_string<char,std::char_traits<char>,std::allocator<char> >
PUBLIC	??1?$basic_string@DU?$char_traits@D@std@@V?$allocator@D@2@@std@@QEAA@XZ ; std::basic_string<char,std::char_traits<char>,std::allocator<char> >::~basic_string<char,std::char_traits<char>,std::allocator<char> >
PUBLIC	?assign@?$basic_string@DU?$char_traits@D@std@@V?$allocator@D@2@@std@@QEAAAEAV12@QEBD_K@Z ; std::basic_string<char,std::char_traits<char>,std::allocator<char> >::assign
PUBLIC	?assign@?$basic_string@DU?$char_traits@D@std@@V?$allocator@D@2@@std@@QEAAAEAV12@QEBD@Z ; std::basic_string<char,std::char_traits<char>,std::allocator<char> >::assign
PUBLIC	?_Erase_noexcept@?$basic_string@DU?$char_traits@D@std@@V?$allocator@D@2@@std@@AEAAAEAV12@_K_K@Z ; std::basic_string<char,std::char_traits<char>,std::allocator<char> >::_Erase_noexcept
PUBLIC	?erase@?$basic_string@DU?$char_traits@D@std@@V?$allocator@D@2@@std@@QEAAAEAV12@_K0@Z ; std::basic_string<char,std::char_traits<char>,std::allocator<char> >::erase
PUBLIC	?push_back@?$basic_string@DU?$char_traits@D@std@@V?$allocator@D@2@@std@@QEAAXD@Z ; std::basic_string<char,std::char_traits<char>,std::allocator<char> >::push_back
PUBLIC	?front@?$basic_string@DU?$char_traits@D@std@@V?$allocator@D@2@@std@@QEAAAEADXZ ; std::basic_string<char,std::char_traits<char>,std::allocator<char> >::front
PUBLIC	?c_str@?$basic_string@DU?$char_traits@D@std@@V?$allocator@D@2@@std@@QEBAPEBDXZ ; std::basic_string<char,std::char_traits<char>,std::allocator<char> >::c_str
PUBLIC	?data@?$basic_string@DU?$char_traits@D@std@@V?$allocator@D@2@@std@@QEBAPEBDXZ ; std::basic_string<char,std::char_traits<char>,std::allocator<char> >::data
PUBLIC	?size@?$basic_string@DU?$char_traits@D@std@@V?$allocator@D@2@@std@@QEBA_KXZ ; std::basic_string<char,std::char_traits<char>,std::allocator<char> >::size
PUBLIC	?max_size@?$basic_string@DU?$char_traits@D@std@@V?$allocator@D@2@@std@@QEBA_KXZ ; std::basic_string<char,std::char_traits<char>,std::allocator<char> >::max_size
PUBLIC	?_Calculate_growth@?$basic_string@DU?$char_traits@D@std@@V?$allocator@D@2@@std@@CA_K_K00@Z ; std::basic_string<char,std::char_traits<char>,std::allocator<char> >::_Calculate_growth
PUBLIC	?_Calculate_growth@?$basic_string@DU?$char_traits@D@std@@V?$allocator@D@2@@std@@AEBA_K_K@Z ; std::basic_string<char,std::char_traits<char>,std::allocator<char> >::_Calculate_growth
PUBLIC	?_Tidy_init@?$basic_string@DU?$char_traits@D@std@@V?$allocator@D@2@@std@@AEAAXXZ ; std::basic_string<char,std::char_traits<char>,std::allocator<char> >::_Tidy_init
PUBLIC	?_Tidy_deallocate@?$basic_string@DU?$char_traits@D@std@@V?$allocator@D@2@@std@@AEAAXXZ ; std::basic_string<char,std::char_traits<char>,std::allocator<char> >::_Tidy_deallocate
PUBLIC	?_Getal@?$basic_string@DU?$char_traits@D@std@@V?$allocator@D@2@@std@@AEAAAEAV?$allocator@D@2@XZ ; std::basic_string<char,std::char_traits<char>,std::allocator<char> >::_Getal
PUBLIC	?_Getal@?$basic_string@DU?$char_traits@D@std@@V?$allocator@D@2@@std@@AEBAAEBV?$allocator@D@2@XZ ; std::basic_string<char,std::char_traits<char>,std::allocator<char> >::_Getal
PUBLIC	?_Get_first@?$_Compressed_pair@V?$allocator@D@std@@V?$_String_val@U?$_Simple_types@D@std@@@2@$00@std@@QEAAAEAV?$allocator@D@2@XZ ; std::_Compressed_pair<std::allocator<char>,std::_String_val<std::_Simple_types<char> >,1>::_Get_first
PUBLIC	?_Get_first@?$_Compressed_pair@V?$allocator@D@std@@V?$_String_val@U?$_Simple_types@D@std@@@2@$00@std@@QEBAAEBV?$allocator@D@2@XZ ; std::_Compressed_pair<std::allocator<char>,std::_String_val<std::_Simple_types<char> >,1>::_Get_first
PUBLIC	??1?$_Compressed_pair@V?$allocator@D@std@@V?$_String_val@U?$_Simple_types@D@std@@@2@$00@std@@QEAA@XZ ; std::_Compressed_pair<std::allocator<char>,std::_String_val<std::_Simple_types<char> >,1>::~_Compressed_pair<std::allocator<char>,std::_String_val<std::_Simple_types<char> >,1>
PUBLIC	??0bad_cast@std@@QEAA@XZ			; std::bad_cast::bad_cast
PUBLIC	??1bad_cast@std@@UEAA@XZ			; std::bad_cast::~bad_cast
PUBLIC	??0bad_cast@std@@QEAA@AEBV01@@Z			; std::bad_cast::bad_cast
PUBLIC	??_Gbad_cast@std@@UEAAPEAXI@Z			; std::bad_cast::`scalar deleting destructor'
PUBLIC	?_Throw_bad_cast@std@@YAXXZ			; std::_Throw_bad_cast
PUBLIC	??1locale@std@@QEAA@XZ				; std::locale::~locale
PUBLIC	?_Getfacet@locale@std@@QEBAPEBVfacet@12@_K@Z	; std::locale::_Getfacet
PUBLIC	??$_Fgetc@D@std@@YA_NAEADPEAU_iobuf@@@Z		; std::_Fgetc<char>
PUBLIC	??$_Fputc@D@std@@YA_NDPEAU_iobuf@@@Z		; std::_Fputc<char>
PUBLIC	??$_Ungetc@D@std@@YA_NAEBDPEAU_iobuf@@@Z	; std::_Ungetc<char>
PUBLIC	?saveDDS9@loader_dds9@gtx@gli@@YAXAEBVtexture2D@3@AEBV?$basic_string@DU?$char_traits@D@std@@V?$allocator@D@2@@std@@@Z ; gli::gtx::loader_dds9::saveDDS9
PUBLIC	?getFormatFourCC@detail@loader_dds9@gtx@gli@@YAIAEBVtexture2D@4@@Z ; gli::gtx::loader_dds9::detail::getFormatFourCC
PUBLIC	?getFormatFlags@detail@loader_dds9@gtx@gli@@YAIAEBVtexture2D@4@@Z ; gli::gtx::loader_dds9::detail::getFormatFlags
PUBLIC	?getFormatBPP@detail@loader_dds9@gtx@gli@@YAIAEBVtexture2D@4@@Z ; gli::gtx::loader_dds9::detail::getFormatBPP
PUBLIC	?isCompressed@detail@loader_dds9@gtx@gli@@YA_NAEBVtexture2D@4@@Z ; gli::gtx::loader_dds9::detail::isCompressed
PUBLIC	??0?$basic_filebuf@DU?$char_traits@D@std@@@std@@QEAA@XZ ; std::basic_filebuf<char,std::char_traits<char> >::basic_filebuf<char,std::char_traits<char> >
PUBLIC	??1?$basic_filebuf@DU?$char_traits@D@std@@@std@@UEAA@XZ ; std::basic_filebuf<char,std::char_traits<char> >::~basic_filebuf<char,std::char_traits<char> >
PUBLIC	?open@?$basic_filebuf@DU?$char_traits@D@std@@@std@@QEAAPEAV12@PEBDHH@Z ; std::basic_filebuf<char,std::char_traits<char> >::open
PUBLIC	?close@?$basic_filebuf@DU?$char_traits@D@std@@@std@@QEAAPEAV12@XZ ; std::basic_filebuf<char,std::char_traits<char> >::close
PUBLIC	?_Lock@?$basic_filebuf@DU?$char_traits@D@std@@@std@@UEAAXXZ ; std::basic_filebuf<char,std::char_traits<char> >::_Lock
PUBLIC	?_Unlock@?$basic_filebuf@DU?$char_traits@D@std@@@std@@UEAAXXZ ; std::basic_filebuf<char,std::char_traits<char> >::_Unlock
PUBLIC	?overflow@?$basic_filebuf@DU?$char_traits@D@std@@@std@@MEAAHH@Z ; std::basic_filebuf<char,std::char_traits<char> >::overflow
PUBLIC	?pbackfail@?$basic_filebuf@DU?$char_traits@D@std@@@std@@MEAAHH@Z ; std::basic_filebuf<char,std::char_traits<char> >::pbackfail
PUBLIC	?underflow@?$basic_filebuf@DU?$char_traits@D@std@@@std@@MEAAHXZ ; std::basic_filebuf<char,std::char_traits<char> >::underflow
PUBLIC	?uflow@?$basic_filebuf@DU?$char_traits@D@std@@@std@@MEAAHXZ ; std::basic_filebuf<char,std::char_traits<char> >::uflow
PUBLIC	?xsgetn@?$basic_filebuf@DU?$char_traits@D@std@@@std@@MEAA_JPEAD_J@Z ; std::basic_filebuf<char,std::char_traits<char> >::xsgetn
PUBLIC	?xsputn@?$basic_filebuf@DU?$char_traits@D@std@@@std@@MEAA_JPEBD_J@Z ; std::basic_filebuf<char,std::char_traits<char> >::xsputn
PUBLIC	?seekoff@?$basic_filebuf@DU?$char_traits@D@std@@@std@@MEAA?AV?$fpos@U_Mbstatet@@@2@_JHH@Z ; std::basic_filebuf<char,std::char_traits<char> >::seekoff
PUBLIC	?seekpos@?$basic_filebuf@DU?$char_traits@D@std@@@std@@MEAA?AV?$fpos@U_Mbstatet@@@2@V32@H@Z ; std::basic_filebuf<char,std::char_traits<char> >::seekpos
PUBLIC	?setbuf@?$basic_filebuf@DU?$char_traits@D@std@@@std@@MEAAPEAV?$basic_streambuf@DU?$char_traits@D@std@@@2@PEAD_J@Z ; std::basic_filebuf<char,std::char_traits<char> >::setbuf
PUBLIC	?sync@?$basic_filebuf@DU?$char_traits@D@std@@@std@@MEAAHXZ ; std::basic_filebuf<char,std::char_traits<char> >::sync
PUBLIC	?imbue@?$basic_filebuf@DU?$char_traits@D@std@@@std@@MEAAXAEBVlocale@2@@Z ; std::basic_filebuf<char,std::char_traits<char> >::imbue
PUBLIC	?_Init@?$basic_filebuf@DU?$char_traits@D@std@@@std@@IEAAXPEAU_iobuf@@W4_Initfl@12@@Z ; std::basic_filebuf<char,std::char_traits<char> >::_Init
PUBLIC	?_Endwrite@?$basic_filebuf@DU?$char_traits@D@std@@@std@@IEAA_NXZ ; std::basic_filebuf<char,std::char_traits<char> >::_Endwrite
PUBLIC	?_Initcvt@?$basic_filebuf@DU?$char_traits@D@std@@@std@@IEAAXAEBV?$codecvt@DDU_Mbstatet@@@2@@Z ; std::basic_filebuf<char,std::char_traits<char> >::_Initcvt
PUBLIC	?_Reset_back@?$basic_filebuf@DU?$char_traits@D@std@@@std@@AEAAXXZ ; std::basic_filebuf<char,std::char_traits<char> >::_Reset_back
PUBLIC	?_Set_back@?$basic_filebuf@DU?$char_traits@D@std@@@std@@AEAAXXZ ; std::basic_filebuf<char,std::char_traits<char> >::_Set_back
PUBLIC	??_G?$basic_filebuf@DU?$char_traits@D@std@@@std@@UEAAPEAXI@Z ; std::basic_filebuf<char,std::char_traits<char> >::`scalar deleting destructor'
PUBLIC	??0?$fpos@U_Mbstatet@@@std@@QEAA@_J@Z		; std::fpos<_Mbstatet>::fpos<_Mbstatet>
PUBLIC	??0?$fpos@U_Mbstatet@@@std@@QEAA@U_Mbstatet@@_J@Z ; std::fpos<_Mbstatet>::fpos<_Mbstatet>
PUBLIC	?state@?$fpos@U_Mbstatet@@@std@@QEBA?AU_Mbstatet@@XZ ; std::fpos<_Mbstatet>::state
PUBLIC	??B?$fpos@U_Mbstatet@@@std@@QEBA_JXZ		; std::fpos<_Mbstatet>::operator __int64
PUBLIC	??0?$basic_ofstream@DU?$char_traits@D@std@@@std@@QEAA@PEBDHH@Z ; std::basic_ofstream<char,std::char_traits<char> >::basic_ofstream<char,std::char_traits<char> >
PUBLIC	??1?$basic_ofstream@DU?$char_traits@D@std@@@std@@UEAA@XZ ; std::basic_ofstream<char,std::char_traits<char> >::~basic_ofstream<char,std::char_traits<char> >
PUBLIC	?close@?$basic_ofstream@DU?$char_traits@D@std@@@std@@QEAAXXZ ; std::basic_ofstream<char,std::char_traits<char> >::close
PUBLIC	??_G?$basic_ofstream@DU?$char_traits@D@std@@@std@@UEAAPEAXI@Z ; std::basic_ofstream<char,std::char_traits<char> >::`scalar deleting destructor'
PUBLIC	??_D?$basic_ofstream@DU?$char_traits@D@std@@@std@@QEAAXXZ ; std::basic_ofstream<char,std::char_traits<char> >::`vbase destructor'
PUBLIC	?test_simplex@@YAHXZ				; test_simplex
PUBLIC	??$simplex@M$0A@@glm@@YAMAEBU?$tvec2@M$0A@@0@@Z	; glm::simplex<float,0>
PUBLIC	?length@?$tvec3@M$0A@@glm@@SAHXZ		; glm::tvec3<float,0>::length
PUBLIC	??A?$tvec3@M$0A@@glm@@QEAAAEAMH@Z		; glm::tvec3<float,0>::operator[]
PUBLIC	??A?$tvec3@M$0A@@glm@@QEBAAEBMH@Z		; glm::tvec3<float,0>::operator[]
PUBLIC	??0?$tvec3@M$0A@@glm@@QEAA@XZ			; glm::tvec3<float,0>::tvec3<float,0>
PUBLIC	??0?$tvec3@M$0A@@glm@@QEAA@W4ctor@1@@Z		; glm::tvec3<float,0>::tvec3<float,0>
PUBLIC	??0?$tvec3@M$0A@@glm@@QEAA@M@Z			; glm::tvec3<float,0>::tvec3<float,0>
PUBLIC	??0?$tvec3@M$0A@@glm@@QEAA@MMM@Z		; glm::tvec3<float,0>::tvec3<float,0>
PUBLIC	??$simplex@M$0A@@glm@@YAMAEBU?$tvec3@M$0A@@0@@Z	; glm::simplex<float,0>
PUBLIC	??$simplex@M$0A@@glm@@YAMAEBU?$tvec4@M$0A@@0@@Z	; glm::simplex<float,0>
PUBLIC	?test_perlin@@YAHXZ				; test_perlin
PUBLIC	??$perlin@M$0A@@glm@@YAMAEBU?$tvec2@M$0A@@0@@Z	; glm::perlin<float,0>
PUBLIC	??$perlin@M$0A@@glm@@YAMAEBU?$tvec3@M$0A@@0@@Z	; glm::perlin<float,0>
PUBLIC	??$perlin@M$0A@@glm@@YAMAEBU?$tvec4@M$0A@@0@@Z	; glm::perlin<float,0>
PUBLIC	?test_perlin_pedioric@@YAHXZ			; test_perlin_pedioric
PUBLIC	??$perlin@M$0A@@glm@@YAMAEBU?$tvec2@M$0A@@0@0@Z	; glm::perlin<float,0>
PUBLIC	??$perlin@M$0A@@glm@@YAMAEBU?$tvec3@M$0A@@0@0@Z	; glm::perlin<float,0>
PUBLIC	??$perlin@M$0A@@glm@@YAMAEBU?$tvec4@M$0A@@0@0@Z	; glm::perlin<float,0>
PUBLIC	main
PUBLIC	??$addressof@V?$basic_filebuf@DU?$char_traits@D@std@@@std@@@std@@YAPEAV?$basic_filebuf@DU?$char_traits@D@std@@@0@AEAV10@@Z ; std::addressof<std::basic_filebuf<char,std::char_traits<char> > >
PUBLIC	??$use_facet@V?$codecvt@DDU_Mbstatet@@@std@@@std@@YAAEBV?$codecvt@DDU_Mbstatet@@@0@AEBVlocale@0@@Z ; std::use_facet<std::codecvt<char,char,_Mbstatet> >
PUBLIC	??$min@_K@std@@YAAEB_KAEB_K0@Z			; std::min<unsigned __int64>
PUBLIC	?allocate@?$allocator@U_Container_proxy@std@@@std@@QEAAPEAU_Container_proxy@2@_K@Z ; std::allocator<std::_Container_proxy>::allocate
PUBLIC	??$_Delete_plain_internal@V?$allocator@U_Container_proxy@std@@@std@@@std@@YAXAEAV?$allocator@U_Container_proxy@std@@@0@QEAU_Container_proxy@0@@Z ; std::_Delete_plain_internal<std::allocator<std::_Container_proxy> >
PUBLIC	??0?$_Container_proxy_ptr12@V?$allocator@U_Container_proxy@std@@@std@@@std@@QEAA@AEAV?$allocator@U_Container_proxy@std@@@1@AEAU_Container_base12@1@@Z ; std::_Container_proxy_ptr12<std::allocator<std::_Container_proxy> >::_Container_proxy_ptr12<std::allocator<std::_Container_proxy> >
PUBLIC	??1?$_Container_proxy_ptr12@V?$allocator@U_Container_proxy@std@@@std@@@std@@QEAA@XZ ; std::_Container_proxy_ptr12<std::allocator<std::_Container_proxy> >::~_Container_proxy_ptr12<std::allocator<std::_Container_proxy> >
PUBLIC	??$_Alloc_proxy@V?$allocator@U_Container_proxy@std@@@std@@@_Container_base12@std@@QEAAX$$QEAV?$allocator@U_Container_proxy@std@@@1@@Z ; std::_Container_base12::_Alloc_proxy<std::allocator<std::_Container_proxy> >
PUBLIC	??$_Convert_size@_K@std@@YA_K_K@Z		; std::_Convert_size<unsigned __int64>
PUBLIC	??$?0D@?$allocator@U_Container_proxy@std@@@std@@QEAA@AEBV?$allocator@D@1@@Z ; std::allocator<std::_Container_proxy>::allocator<std::_Container_proxy><char>
PUBLIC	??$?0$$V@?$_Compressed_pair@V?$allocator@D@std@@V?$_String_val@U?$_Simple_types@D@std@@@2@$00@std@@QEAA@U_Zero_then_variadic_args_t@1@@Z ; std::_Compressed_pair<std::allocator<char>,std::_String_val<std::_Simple_types<char> >,1>::_Compressed_pair<std::allocator<char>,std::_String_val<std::_Simple_types<char> >,1><>
PUBLIC	??$exchange@PEAU_Container_proxy@std@@$$T@std@@YAPEAU_Container_proxy@0@AEAPEAU10@$$QEA$$T@Z ; std::exchange<std::_Container_proxy *,std::nullptr_t>
PUBLIC	??$_Resize@U_Value_init_tag@std@@@?$vector@Vimage2D@gli@@V?$allocator@Vimage2D@gli@@@std@@@std@@AEAAX_KAEBU_Value_init_tag@1@@Z ; std::vector<gli::image2D,std::allocator<gli::image2D> >::_Resize<std::_Value_init_tag>
PUBLIC	??$?0Vimage2D@gli@@@?$allocator@U_Container_proxy@std@@@std@@QEAA@AEBV?$allocator@Vimage2D@gli@@@1@@Z ; std::allocator<std::_Container_proxy>::allocator<std::_Container_proxy><gli::image2D>
PUBLIC	??$?0$$V@?$_Compressed_pair@V?$allocator@Vimage2D@gli@@@std@@V?$_Vector_val@U?$_Simple_types@Vimage2D@gli@@@std@@@2@$00@std@@QEAA@U_Zero_then_variadic_args_t@1@@Z ; std::_Compressed_pair<std::allocator<gli::image2D>,std::_Vector_val<std::_Simple_types<gli::image2D> >,1>::_Compressed_pair<std::allocator<gli::image2D>,std::_Vector_val<std::_Simple_types<gli::image2D> >,1><>
PUBLIC	??$addressof@$$CBV?$vector@EV?$allocator@E@std@@@std@@@std@@YAPEBV?$vector@EV?$allocator@E@std@@@0@AEBV10@@Z ; std::addressof<std::vector<unsigned char,std::allocator<unsigned char> > const >
PUBLIC	??$_Pocca@V?$allocator@E@std@@@std@@YAXAEAV?$allocator@E@0@AEBV10@@Z ; std::_Pocca<std::allocator<unsigned char> >
PUBLIC	??$assign@PEAE$0A@@?$vector@EV?$allocator@E@std@@@std@@QEAAXPEAE0@Z ; std::vector<unsigned char,std::allocator<unsigned char> >::assign<unsigned char *,0>
PUBLIC	??$?0E@?$allocator@U_Container_proxy@std@@@std@@QEAA@AEBV?$allocator@E@1@@Z ; std::allocator<std::_Container_proxy>::allocator<std::_Container_proxy><unsigned char>
PUBLIC	??$?0V?$allocator@E@std@@$$V@?$_Compressed_pair@V?$allocator@E@std@@V?$_Vector_val@U?$_Simple_types@E@std@@@2@$00@std@@QEAA@U_One_then_variadic_args_t@1@$$QEAV?$allocator@E@1@@Z ; std::_Compressed_pair<std::allocator<unsigned char>,std::_Vector_val<std::_Simple_types<unsigned char> >,1>::_Compressed_pair<std::allocator<unsigned char>,std::_Vector_val<std::_Simple_types<unsigned char> >,1><std::allocator<unsigned char> >
PUBLIC	??$_Construct_n@AEBQEAEAEBQEAE@?$vector@EV?$allocator@E@std@@@std@@AEAAX_KAEBQEAE1@Z ; std::vector<unsigned char,std::allocator<unsigned char> >::_Construct_n<unsigned char * const &,unsigned char * const &>
PUBLIC	??$?0AEBV?$allocator@E@std@@$$V@?$_Compressed_pair@V?$allocator@E@std@@V?$_Vector_val@U?$_Simple_types@E@std@@@2@$00@std@@QEAA@U_One_then_variadic_args_t@1@AEBV?$allocator@E@1@@Z ; std::_Compressed_pair<std::allocator<unsigned char>,std::_Vector_val<std::_Simple_types<unsigned char> >,1>::_Compressed_pair<std::allocator<unsigned char>,std::_Vector_val<std::_Simple_types<unsigned char> >,1><std::allocator<unsigned char> const &>
PUBLIC	??$_Construct_n@$$V@?$vector@EV?$allocator@E@std@@@std@@AEAAX_K@Z ; std::vector<unsigned char,std::allocator<unsigned char> >::_Construct_n<>
PUBLIC	??$_Unfancy@U_Container_proxy@std@@@std@@YAPEAU_Container_proxy@0@PEAU10@@Z ; std::_Unfancy<std::_Container_proxy>
PUBLIC	??$addressof@U_Container_base12@std@@@std@@YAPEAU_Container_base12@0@AEAU10@@Z ; std::addressof<std::_Container_base12>
PUBLIC	??$_Construct_in_place@U_Container_proxy@std@@PEAU_Container_base12@2@@std@@YAXAEAU_Container_proxy@0@$$QEAPEAU_Container_base12@0@@Z ; std::_Construct_in_place<std::_Container_proxy,std::_Container_base12 *>
PUBLIC	??$addressof@$$CBV?$codecvt@DDU_Mbstatet@@@std@@@std@@YAPEBV?$codecvt@DDU_Mbstatet@@@0@AEBV10@@Z ; std::addressof<std::codecvt<char,char,_Mbstatet> const >
PUBLIC	??$_Destroy_in_place@PEAD@std@@YAXAEAPEAD@Z	; std::_Destroy_in_place<char *>
PUBLIC	??R<lambda_319d5e083f45f90dcdce5dce53cbb275>@@QEBA@QEADQEBD_KD@Z ; <lambda_319d5e083f45f90dcdce5dce53cbb275>::operator()
PUBLIC	??$_Reallocate_grow_by@V<lambda_319d5e083f45f90dcdce5dce53cbb275>@@D@?$basic_string@DU?$char_traits@D@std@@V?$allocator@D@2@@std@@AEAAAEAV01@_KV<lambda_319d5e083f45f90dcdce5dce53cbb275>@@D@Z ; std::basic_string<char,std::char_traits<char>,std::allocator<char> >::_Reallocate_grow_by<<lambda_319d5e083f45f90dcdce5dce53cbb275>,char>
PUBLIC	??R<lambda_66f57f934f28d61049862f64df852ff0>@@QEBA@QEAD_KQEBD@Z ; <lambda_66f57f934f28d61049862f64df852ff0>::operator()
PUBLIC	??$_Reallocate_for@V<lambda_66f57f934f28d61049862f64df852ff0>@@PEBD@?$basic_string@DU?$char_traits@D@std@@V?$allocator@D@2@@std@@AEAAAEAV01@_KV<lambda_66f57f934f28d61049862f64df852ff0>@@PEBD@Z ; std::basic_string<char,std::char_traits<char>,std::allocator<char> >::_Reallocate_for<<lambda_66f57f934f28d61049862f64df852ff0>,char const *>
PUBLIC	??$_Construct_in_place@PEADAEBQEAD@std@@YAXAEAPEADAEBQEAD@Z ; std::_Construct_in_place<char *,char * const &>
PUBLIC	??$_Unfancy@D@std@@YAPEADPEAD@Z			; std::_Unfancy<char>
PUBLIC	??$_Destroy_range@V?$allocator@Vimage2D@gli@@@std@@@std@@YAXPEAVimage2D@gli@@QEAV12@AEAV?$allocator@Vimage2D@gli@@@0@@Z ; std::_Destroy_range<std::allocator<gli::image2D> >
PUBLIC	??$_Destroy_range@V?$allocator@E@std@@@std@@YAXPEAEQEAEAEAV?$allocator@E@0@@Z ; std::_Destroy_range<std::allocator<unsigned char> >
PUBLIC	??$max@_K@std@@YAAEB_KAEB_K0@Z			; std::max<unsigned __int64>
PUBLIC	??$_Get_size_of_n@$0BA@@std@@YA_K_K@Z		; std::_Get_size_of_n<16>
PUBLIC	??$_Allocate@$0BA@U_Default_allocate_traits@std@@$0A@@std@@YAPEAX_K@Z ; std::_Allocate<16,std::_Default_allocate_traits,0>
PUBLIC	??$_Deallocate@$0BA@$0A@@std@@YAXPEAX_K@Z	; std::_Deallocate<16,0>
PUBLIC	??$_Get_size_of_n@$00@std@@YA_K_K@Z		; std::_Get_size_of_n<1>
PUBLIC	?call@?$compute_clamp_vector@M$0A@Utvec4@glm@@$0A@@detail@glm@@SA?AU?$tvec4@M$0A@@3@AEBU43@00@Z ; glm::detail::compute_clamp_vector<float,0,glm::tvec4,0>::call
PUBLIC	??$?XM@?$tvec4@M$0A@@glm@@QEAAAEAU01@M@Z	; glm::tvec4<float,0>::operator*=<float>
PUBLIC	?call@?$compute_max_vector@I$0A@Utvec2@glm@@$0A@@detail@glm@@SA?AU?$tvec2@I$0A@@3@AEBU43@0@Z ; glm::detail::compute_max_vector<unsigned int,0,glm::tvec2,0>::call
PUBLIC	??R?$default_delete@V_Facet_base@std@@@std@@QEBAXPEAV_Facet_base@1@@Z ; std::default_delete<std::_Facet_base>::operator()
PUBLIC	??1?$unique_ptr@V_Facet_base@std@@U?$default_delete@V_Facet_base@std@@@2@@std@@QEAA@XZ ; std::unique_ptr<std::_Facet_base,std::default_delete<std::_Facet_base> >::~unique_ptr<std::_Facet_base,std::default_delete<std::_Facet_base> >
PUBLIC	?release@?$unique_ptr@V_Facet_base@std@@U?$default_delete@V_Facet_base@std@@@2@@std@@QEAAPEAV_Facet_base@2@XZ ; std::unique_ptr<std::_Facet_base,std::default_delete<std::_Facet_base> >::release
PUBLIC	?_Get_first@?$_Compressed_pair@U?$default_delete@V_Facet_base@std@@@std@@PEAV_Facet_base@2@$00@std@@QEAAAEAU?$default_delete@V_Facet_base@std@@@2@XZ ; std::_Compressed_pair<std::default_delete<std::_Facet_base>,std::_Facet_base *,1>::_Get_first
PUBLIC	??$?0U?$default_delete@V_Facet_base@std@@@std@@$0A@@?$unique_ptr@V_Facet_base@std@@U?$default_delete@V_Facet_base@std@@@2@@std@@QEAA@PEAV_Facet_base@1@@Z ; std::unique_ptr<std::_Facet_base,std::default_delete<std::_Facet_base> >::unique_ptr<std::_Facet_base,std::default_delete<std::_Facet_base> ><std::default_delete<std::_Facet_base>,0>
PUBLIC	??$dot@M$0A@Utvec2@glm@@@glm@@YAMAEBU?$tvec2@M$0A@@0@0@Z ; glm::dot<float,0,glm::tvec2>
PUBLIC	??$?HM$0A@@glm@@YA?AU?$tvec2@M$0A@@0@AEBU10@M@Z	; glm::operator+<float,0>
PUBLIC	??$floor@M$0A@Utvec2@glm@@@glm@@YA?AU?$tvec2@M$0A@@0@AEBU10@@Z ; glm::floor<float,0,glm::tvec2>
PUBLIC	??$?GM$0A@@glm@@YA?AU?$tvec2@M$0A@@0@AEBU10@0@Z	; glm::operator-<float,0>
PUBLIC	??$?0HH@?$tvec2@M$0A@@glm@@QEAA@HH@Z		; glm::tvec2<float,0>::tvec2<float,0><int,int>
PUBLIC	??$?HM$0A@@glm@@YA?AU?$tvec4@M$0A@@0@AEBU10@0@Z	; glm::operator+<float,0>
PUBLIC	??$?0M$0A@@?$tvec2@M$0A@@glm@@QEAA@AEBU?$tvec4@M$0A@@1@@Z ; glm::tvec2<float,0>::tvec2<float,0><float,0>
PUBLIC	??$?0MMM$0A@@?$tvec4@M$0A@@glm@@QEAA@AEBU?$tvec2@M$0A@@1@MM@Z ; glm::tvec4<float,0>::tvec4<float,0><float,float,float,0>
PUBLIC	??$mod@M$0A@Utvec2@glm@@@glm@@YA?AU?$tvec2@M$0A@@0@AEBU10@0@Z ; glm::mod<float,0,glm::tvec2>
PUBLIC	??$?HM$0A@@glm@@YA?AU?$tvec3@M$0A@@0@MAEBU10@@Z	; glm::operator+<float,0>
PUBLIC	??$permute@M$0A@@detail@glm@@YA?AU?$tvec3@M$0A@@1@AEBU21@@Z ; glm::detail::permute<float,0>
PUBLIC	??$?HM$0A@@glm@@YA?AU?$tvec3@M$0A@@0@AEBU10@M@Z	; glm::operator+<float,0>
PUBLIC	??$?HM$0A@@glm@@YA?AU?$tvec3@M$0A@@0@AEBU10@0@Z	; glm::operator+<float,0>
PUBLIC	??$?GM$0A@@glm@@YA?AU?$tvec3@M$0A@@0@AEBU10@0@Z	; glm::operator-<float,0>
PUBLIC	??$max@M$0A@Utvec3@glm@@@glm@@YA?AU?$tvec3@M$0A@@0@AEBU10@0@Z ; glm::max<float,0,glm::tvec3>
PUBLIC	??$?DM$0A@@glm@@YA?AU?$tvec3@M$0A@@0@AEBU10@0@Z	; glm::operator*<float,0>
PUBLIC	??$?DM$0A@@glm@@YA?AU?$tvec3@M$0A@@0@AEBU10@M@Z	; glm::operator*<float,0>
PUBLIC	??$fract@M$0A@Utvec3@glm@@@glm@@YA?AU?$tvec3@M$0A@@0@AEBU10@@Z ; glm::fract<float,0,glm::tvec3>
PUBLIC	??$?DM$0A@@glm@@YA?AU?$tvec3@M$0A@@0@MAEBU10@@Z	; glm::operator*<float,0>
PUBLIC	??$?GM$0A@@glm@@YA?AU?$tvec3@M$0A@@0@AEBU10@M@Z	; glm::operator-<float,0>
PUBLIC	??$abs@M$0A@Utvec3@glm@@@glm@@YA?AU?$tvec3@M$0A@@0@AEBU10@@Z ; glm::abs<float,0,glm::tvec3>
PUBLIC	??$floor@M$0A@Utvec3@glm@@@glm@@YA?AU?$tvec3@M$0A@@0@AEBU10@@Z ; glm::floor<float,0,glm::tvec3>
PUBLIC	??$?GM$0A@@glm@@YA?AU?$tvec3@M$0A@@0@MAEBU10@@Z	; glm::operator-<float,0>
PUBLIC	??$?XM@?$tvec3@M$0A@@glm@@QEAAAEAU01@AEBU01@@Z	; glm::tvec3<float,0>::operator*=<float>
PUBLIC	??$dot@M$0A@Utvec3@glm@@@glm@@YAMAEBU?$tvec3@M$0A@@0@0@Z ; glm::dot<float,0,glm::tvec3>
PUBLIC	??$?0NN@?$tvec2@M$0A@@glm@@QEAA@NN@Z		; glm::tvec2<float,0>::tvec2<float,0><double,double>
PUBLIC	??$?0NNNN@?$tvec4@M$0A@@glm@@QEAA@NNNN@Z	; glm::tvec4<float,0>::tvec4<float,0><double,double,double,double>
PUBLIC	??$step@Utvec3@glm@@M$0A@@glm@@YA?AU?$tvec3@M$0A@@0@AEBU10@0@Z ; glm::step<glm::tvec3,float,0>
PUBLIC	??$min@M$0A@Utvec3@glm@@@glm@@YA?AU?$tvec3@M$0A@@0@AEBU10@0@Z ; glm::min<float,0,glm::tvec3>
PUBLIC	??$mod289@U?$tvec3@M$0A@@glm@@@detail@glm@@YA?AU?$tvec3@M$0A@@1@AEBU21@@Z ; glm::detail::mod289<glm::tvec3<float,0> >
PUBLIC	??$?HM$0A@@glm@@YA?AU?$tvec4@M$0A@@0@MAEBU10@@Z	; glm::operator+<float,0>
PUBLIC	??$permute@M$0A@@detail@glm@@YA?AU?$tvec4@M$0A@@1@AEBU21@@Z ; glm::detail::permute<float,0>
PUBLIC	??$?HM$0A@@glm@@YA?AU?$tvec4@M$0A@@0@AEBU10@M@Z	; glm::operator+<float,0>
PUBLIC	??$floor@M$0A@Utvec4@glm@@@glm@@YA?AU?$tvec4@M$0A@@0@AEBU10@@Z ; glm::floor<float,0,glm::tvec4>
PUBLIC	??$?DM$0A@@glm@@YA?AU?$tvec4@M$0A@@0@MAEBU10@@Z	; glm::operator*<float,0>
PUBLIC	??$?GM$0A@@glm@@YA?AU?$tvec4@M$0A@@0@AEBU10@0@Z	; glm::operator-<float,0>
PUBLIC	??$abs@M$0A@Utvec4@glm@@@glm@@YA?AU?$tvec4@M$0A@@0@AEBU10@@Z ; glm::abs<float,0,glm::tvec4>
PUBLIC	??$?GM$0A@@glm@@YA?AU?$tvec4@M$0A@@0@MAEBU10@@Z	; glm::operator-<float,0>
PUBLIC	??$step@Utvec4@glm@@M$0A@@glm@@YA?AU?$tvec4@M$0A@@0@AEBU10@0@Z ; glm::step<glm::tvec4,float,0>
PUBLIC	??$?GM$0A@@glm@@YA?AU?$tvec4@M$0A@@0@AEBU10@@Z	; glm::operator-<float,0>
PUBLIC	??$?DM$0A@@glm@@YA?AU?$tvec4@M$0A@@0@AEBU10@0@Z	; glm::operator*<float,0>
PUBLIC	??$taylorInvSqrt@M$0A@@detail@glm@@YA?AU?$tvec4@M$0A@@1@AEBU21@@Z ; glm::detail::taylorInvSqrt<float,0>
PUBLIC	??$?XM@?$tvec3@M$0A@@glm@@QEAAAEAU01@M@Z	; glm::tvec3<float,0>::operator*=<float>
PUBLIC	??$max@M$0A@Utvec4@glm@@@glm@@YA?AU?$tvec4@M$0A@@0@AEBU10@0@Z ; glm::max<float,0,glm::tvec4>
PUBLIC	??$dot@M$0A@Utvec4@glm@@@glm@@YAMAEBU?$tvec4@M$0A@@0@0@Z ; glm::dot<float,0,glm::tvec4>
PUBLIC	??$?0MM$0A@@?$tvec4@M$0A@@glm@@QEAA@MAEBU?$tvec3@M$0A@@1@@Z ; glm::tvec4<float,0>::tvec4<float,0><float,float,0>
PUBLIC	??$?GM$0A@@glm@@YA?AU?$tvec4@M$0A@@0@AEBU10@M@Z	; glm::operator-<float,0>
PUBLIC	??$mod@M$0A@Utvec4@glm@@@glm@@YA?AU?$tvec4@M$0A@@0@AEBU10@0@Z ; glm::mod<float,0,glm::tvec4>
PUBLIC	??$permute@M@detail@glm@@YAMAEBM@Z		; glm::detail::permute<float>
PUBLIC	??$grad4@M$0A@@gtc@glm@@YA?AU?$tvec4@M$0A@@1@AEBMAEBU21@@Z ; glm::gtc::grad4<float,0>
PUBLIC	??$taylorInvSqrt@M@detail@glm@@YAMAEBM@Z	; glm::detail::taylorInvSqrt<float>
PUBLIC	??$?GM$0A@@glm@@YA?AU?$tvec2@M$0A@@0@MAEBU10@@Z	; glm::operator-<float,0>
PUBLIC	??$max@M$0A@Utvec2@glm@@@glm@@YA?AU?$tvec2@M$0A@@0@AEBU10@0@Z ; glm::max<float,0,glm::tvec2>
PUBLIC	??$?DM$0A@@glm@@YA?AU?$tvec2@M$0A@@0@AEBU10@0@Z	; glm::operator*<float,0>
PUBLIC	??$fract@M$0A@Utvec4@glm@@@glm@@YA?AU?$tvec4@M$0A@@0@AEBU10@@Z ; glm::fract<float,0,glm::tvec4>
PUBLIC	??$?KM$0A@@glm@@YA?AU?$tvec4@M$0A@@0@AEBU10@M@Z	; glm::operator/<float,0>
PUBLIC	??$?XM@?$tvec2@M$0A@@glm@@QEAAAEAU01@M@Z	; glm::tvec2<float,0>::operator*=<float>
PUBLIC	??$fade@M$0A@@detail@glm@@YA?AU?$tvec2@M$0A@@1@AEBU21@@Z ; glm::detail::fade<float,0>
PUBLIC	??$mix@MM$0A@Utvec2@glm@@@glm@@YA?AU?$tvec2@M$0A@@0@AEBU10@0M@Z ; glm::mix<float,float,0,glm::tvec2>
PUBLIC	??$mix@MM@glm@@YAMMMM@Z				; glm::mix<float,float>
PUBLIC	??$?0MM$0A@@?$tvec4@M$0A@@glm@@QEAA@AEBU?$tvec2@M$0A@@1@0@Z ; glm::tvec4<float,0>::tvec4<float,0><float,float,0>
PUBLIC	??$step@Utvec4@glm@@M$0A@@glm@@YA?AU?$tvec4@M$0A@@0@MAEBU10@@Z ; glm::step<glm::tvec4,float,0>
PUBLIC	??$?ZM@?$tvec4@M$0A@@glm@@QEAAAEAU01@AEBU01@@Z	; glm::tvec4<float,0>::operator-=<float>
PUBLIC	??$fade@M$0A@@detail@glm@@YA?AU?$tvec3@M$0A@@1@AEBU21@@Z ; glm::detail::fade<float,0>
PUBLIC	??$mix@MM$0A@Utvec4@glm@@@glm@@YA?AU?$tvec4@M$0A@@0@AEBU10@0M@Z ; glm::mix<float,float,0,glm::tvec4>
PUBLIC	??$fade@M$0A@@detail@glm@@YA?AU?$tvec4@M$0A@@1@AEBU21@@Z ; glm::detail::fade<float,0>
PUBLIC	??$mod@M$0A@Utvec3@glm@@@glm@@YA?AU?$tvec3@M$0A@@0@AEBU10@0@Z ; glm::mod<float,0,glm::tvec3>
PUBLIC	??$_Deallocate_plain@V?$allocator@U_Container_proxy@std@@@std@@@std@@YAXAEAV?$allocator@U_Container_proxy@std@@@0@QEAU_Container_proxy@0@@Z ; std::_Deallocate_plain<std::allocator<std::_Container_proxy> >
PUBLIC	??$_Resize_reallocate@U_Value_init_tag@std@@@?$vector@Vimage2D@gli@@V?$allocator@Vimage2D@gli@@@std@@@std@@AEAAX_KAEBU_Value_init_tag@1@@Z ; std::vector<gli::image2D,std::allocator<gli::image2D> >::_Resize_reallocate<std::_Value_init_tag>
PUBLIC	??$_Uninitialized_value_construct_n@V?$allocator@Vimage2D@gli@@@std@@@std@@YAPEAVimage2D@gli@@PEAV12@_KAEAV?$allocator@Vimage2D@gli@@@0@@Z ; std::_Uninitialized_value_construct_n<std::allocator<gli::image2D> >
PUBLIC	??$_Uninitialized_copy@PEAVimage2D@gli@@V?$allocator@Vimage2D@gli@@@std@@@std@@YAPEAVimage2D@gli@@QEAV12@0PEAV12@AEAV?$allocator@Vimage2D@gli@@@0@@Z ; std::_Uninitialized_copy<gli::image2D *,std::allocator<gli::image2D> >
PUBLIC	??$_Adl_verify_range@PEAEPEAE@std@@YAXAEBQEAE0@Z ; std::_Adl_verify_range<unsigned char *,unsigned char *>
PUBLIC	??$_Get_unwrapped@AEAPEAE@std@@YA?A_TAEAPEAE@Z	; std::_Get_unwrapped<unsigned char * &>
PUBLIC	??$_Assign_range@PEAE@?$vector@EV?$allocator@E@std@@@std@@AEAAXPEAE0Uforward_iterator_tag@1@@Z ; std::vector<unsigned char,std::allocator<unsigned char> >::_Assign_range<unsigned char *>
PUBLIC	??$forward@V?$allocator@E@std@@@std@@YA$$QEAV?$allocator@E@0@AEAV10@@Z ; std::forward<std::allocator<unsigned char> >
PUBLIC	??1?$_Tidy_guard@V?$vector@EV?$allocator@E@std@@@std@@@std@@QEAA@XZ ; std::_Tidy_guard<std::vector<unsigned char,std::allocator<unsigned char> > >::~_Tidy_guard<std::vector<unsigned char,std::allocator<unsigned char> > >
PUBLIC	??$forward@AEBQEAE@std@@YAAEBQEAEAEBQEAE@Z	; std::forward<unsigned char * const &>
PUBLIC	??$_Uninitialized_copy@PEAEV?$allocator@E@std@@@std@@YAPEAEQEAE0PEAEAEAV?$allocator@E@0@@Z ; std::_Uninitialized_copy<unsigned char *,std::allocator<unsigned char> >
PUBLIC	??$forward@AEBV?$allocator@E@std@@@std@@YAAEBV?$allocator@E@0@AEBV10@@Z ; std::forward<std::allocator<unsigned char> const &>
PUBLIC	??$_Uninitialized_value_construct_n@V?$allocator@E@std@@@std@@YAPEAEPEAE_KAEAV?$allocator@E@0@@Z ; std::_Uninitialized_value_construct_n<std::allocator<unsigned char> >
PUBLIC	??$addressof@U_Container_proxy@std@@@std@@YAPEAU_Container_proxy@0@AEAU10@@Z ; std::addressof<std::_Container_proxy>
PUBLIC	??$_Voidify_iter@PEAU_Container_proxy@std@@@std@@YAPEAXPEAU_Container_proxy@0@@Z ; std::_Voidify_iter<std::_Container_proxy *>
PUBLIC	??$forward@PEAU_Container_base12@std@@@std@@YA$$QEAPEAU_Container_base12@0@AEAPEAU10@@Z ; std::forward<std::_Container_base12 *>
PUBLIC	??$addressof@PEAD@std@@YAPEAPEADAEAPEAD@Z	; std::addressof<char *>
PUBLIC	??$_Voidify_iter@PEAPEAD@std@@YAPEAXPEAPEAD@Z	; std::_Voidify_iter<char * *>
PUBLIC	??$forward@AEBQEAD@std@@YAAEBQEADAEBQEAD@Z	; std::forward<char * const &>
PUBLIC	??$_Unfancy@Vimage2D@gli@@@std@@YAPEAVimage2D@gli@@PEAV12@@Z ; std::_Unfancy<gli::image2D>
PUBLIC	??$destroy@Vimage2D@gli@@@?$_Default_allocator_traits@V?$allocator@Vimage2D@gli@@@std@@@std@@SAXAEAV?$allocator@Vimage2D@gli@@@1@QEAVimage2D@gli@@@Z ; std::_Default_allocator_traits<std::allocator<gli::image2D> >::destroy<gli::image2D>
PUBLIC	??$_Allocate_manually_vector_aligned@U_Default_allocate_traits@std@@@std@@YAPEAX_K@Z ; std::_Allocate_manually_vector_aligned<std::_Default_allocate_traits>
PUBLIC	??$exchange@PEAV_Facet_base@std@@$$T@std@@YAPEAV_Facet_base@0@AEAPEAV10@$$QEA$$T@Z ; std::exchange<std::_Facet_base *,std::nullptr_t>
PUBLIC	?call@?$functor2@I$0A@Utvec2@glm@@@detail@glm@@SA?AU?$tvec2@I$0A@@3@P6AIII@ZAEBU43@1@Z ; glm::detail::functor2<unsigned int,0,glm::tvec2>::call
PUBLIC	??$max@I@glm@@YAIII@Z				; glm::max<unsigned int>
PUBLIC	?call@?$functor1@MM$0A@Utvec4@glm@@@detail@glm@@SA?AU?$tvec4@M$0A@@3@P6AMM@ZAEBU43@@Z ; glm::detail::functor1<float,float,0,glm::tvec4>::call
PUBLIC	??$min@M$0A@Utvec4@glm@@@glm@@YA?AU?$tvec4@M$0A@@0@AEBU10@0@Z ; glm::min<float,0,glm::tvec4>
PUBLIC	?call@?$functor1@MM$0A@Utvec2@glm@@@detail@glm@@SA?AU?$tvec2@M$0A@@3@P6AMM@ZAEBU43@@Z ; glm::detail::functor1<float,float,0,glm::tvec2>::call
PUBLIC	??$_Get_size_of_n@$0DA@@std@@YA_K_K@Z		; std::_Get_size_of_n<48>
PUBLIC	?call@?$compute_vec4_mul@M$0A@$0A@@detail@glm@@SA?AU?$tvec4@M$0A@@3@AEBU43@0@Z ; glm::detail::compute_vec4_mul<float,0,0>::call
PUBLIC	??$?0AEAPEAV_Facet_base@std@@@?$_Compressed_pair@U?$default_delete@V_Facet_base@std@@@std@@PEAV_Facet_base@2@$00@std@@QEAA@U_Zero_then_variadic_args_t@1@AEAPEAV_Facet_base@1@@Z ; std::_Compressed_pair<std::default_delete<std::_Facet_base>,std::_Facet_base *,1>::_Compressed_pair<std::default_delete<std::_Facet_base>,std::_Facet_base *,1><std::_Facet_base * &>
PUBLIC	?call@?$compute_dot@Utvec2@glm@@M$0A@$0A@@detail@glm@@SAMAEBU?$tvec2@M$0A@@3@0@Z ; glm::detail::compute_dot<glm::tvec2,float,0,0>::call
PUBLIC	?call@?$compute_floor@M$0A@Utvec2@glm@@$0A@@detail@glm@@SA?AU?$tvec2@M$0A@@3@AEBU43@@Z ; glm::detail::compute_floor<float,0,glm::tvec2,0>::call
PUBLIC	??$?YM@?$tvec4@M$0A@@glm@@QEAAAEAU01@AEBU01@@Z	; glm::tvec4<float,0>::operator+=<float>
PUBLIC	?call@?$compute_mod@M$0A@Utvec2@glm@@$0A@@detail@glm@@SA?AU?$tvec2@M$0A@@3@AEBU43@0@Z ; glm::detail::compute_mod<float,0,glm::tvec2,0>::call
PUBLIC	?call@?$compute_max_vector@M$0A@Utvec3@glm@@$0A@@detail@glm@@SA?AU?$tvec3@M$0A@@3@AEBU43@0@Z ; glm::detail::compute_max_vector<float,0,glm::tvec3,0>::call
PUBLIC	?call@?$compute_fract@M$0A@Utvec3@glm@@$0A@@detail@glm@@SA?AU?$tvec3@M$0A@@3@AEBU43@@Z ; glm::detail::compute_fract<float,0,glm::tvec3,0>::call
PUBLIC	?call@?$compute_abs_vector@M$0A@Utvec3@glm@@$0A@@detail@glm@@SA?AU?$tvec3@M$0A@@3@AEBU43@@Z ; glm::detail::compute_abs_vector<float,0,glm::tvec3,0>::call
PUBLIC	?call@?$compute_floor@M$0A@Utvec3@glm@@$0A@@detail@glm@@SA?AU?$tvec3@M$0A@@3@AEBU43@@Z ; glm::detail::compute_floor<float,0,glm::tvec3,0>::call
PUBLIC	?call@?$compute_dot@Utvec3@glm@@M$0A@$0A@@detail@glm@@SAMAEBU?$tvec3@M$0A@@3@0@Z ; glm::detail::compute_dot<glm::tvec3,float,0,0>::call
PUBLIC	?call@?$compute_step_vector@M$0A@Utvec3@glm@@$0A@@detail@glm@@SA?AU?$tvec3@M$0A@@3@AEBU43@0@Z ; glm::detail::compute_step_vector<float,0,glm::tvec3,0>::call
PUBLIC	?call@?$compute_min_vector@M$0A@Utvec3@glm@@$0A@@detail@glm@@SA?AU?$tvec3@M$0A@@3@AEBU43@0@Z ; glm::detail::compute_min_vector<float,0,glm::tvec3,0>::call
PUBLIC	??$?KM$0A@@glm@@YA?AU?$tvec3@M$0A@@0@AEBU10@0@Z	; glm::operator/<float,0>
PUBLIC	??$?YM@?$tvec4@M$0A@@glm@@QEAAAEAU01@M@Z	; glm::tvec4<float,0>::operator+=<float>
PUBLIC	??$mod289@U?$tvec4@M$0A@@glm@@@detail@glm@@YA?AU?$tvec4@M$0A@@1@AEBU21@@Z ; glm::detail::mod289<glm::tvec4<float,0> >
PUBLIC	?call@?$compute_floor@M$0A@Utvec4@glm@@$0A@@detail@glm@@SA?AU?$tvec4@M$0A@@3@AEBU43@@Z ; glm::detail::compute_floor<float,0,glm::tvec4,0>::call
PUBLIC	?call@?$compute_abs_vector@M$0A@Utvec4@glm@@$0A@@detail@glm@@SA?AU?$tvec4@M$0A@@3@AEBU43@@Z ; glm::detail::compute_abs_vector<float,0,glm::tvec4,0>::call
PUBLIC	?call@?$compute_step_vector@M$0A@Utvec4@glm@@$0A@@detail@glm@@SA?AU?$tvec4@M$0A@@3@AEBU43@0@Z ; glm::detail::compute_step_vector<float,0,glm::tvec4,0>::call
PUBLIC	??$?XM@?$tvec4@M$0A@@glm@@QEAAAEAU01@AEBU01@@Z	; glm::tvec4<float,0>::operator*=<float>
PUBLIC	?call@?$compute_max_vector@M$0A@Utvec4@glm@@$0A@@detail@glm@@SA?AU?$tvec4@M$0A@@3@AEBU43@0@Z ; glm::detail::compute_max_vector<float,0,glm::tvec4,0>::call
PUBLIC	?call@?$compute_dot@Utvec4@glm@@M$0A@$0A@@detail@glm@@SAMAEBU?$tvec4@M$0A@@3@0@Z ; glm::detail::compute_dot<glm::tvec4,float,0,0>::call
PUBLIC	??$?ZM@?$tvec4@M$0A@@glm@@QEAAAEAU01@M@Z	; glm::tvec4<float,0>::operator-=<float>
PUBLIC	?call@?$compute_mod@M$0A@Utvec4@glm@@$0A@@detail@glm@@SA?AU?$tvec4@M$0A@@3@AEBU43@0@Z ; glm::detail::compute_mod<float,0,glm::tvec4,0>::call
PUBLIC	??$mod289@M@detail@glm@@YAMAEBM@Z		; glm::detail::mod289<float>
PUBLIC	??$?0M$0A@@?$tvec3@M$0A@@glm@@QEAA@AEBU?$tvec4@M$0A@@1@@Z ; glm::tvec3<float,0>::tvec3<float,0><float,0>
PUBLIC	??$?0MM$0A@@?$tvec4@M$0A@@glm@@QEAA@AEBU?$tvec3@M$0A@@1@M@Z ; glm::tvec4<float,0>::tvec4<float,0><float,float,0>
PUBLIC	??$lessThan@M$0A@Utvec4@glm@@@glm@@YA?AU?$tvec4@_N$0A@@0@AEBU?$tvec4@M$0A@@0@0@Z ; glm::lessThan<float,0,glm::tvec4>
PUBLIC	?length@?$tvec4@_N$0A@@glm@@SAHXZ		; glm::tvec4<bool,0>::length
PUBLIC	??A?$tvec4@_N$0A@@glm@@QEAAAEA_NH@Z		; glm::tvec4<bool,0>::operator[]
PUBLIC	??A?$tvec4@_N$0A@@glm@@QEBAAEB_NH@Z		; glm::tvec4<bool,0>::operator[]
PUBLIC	??0?$tvec4@_N$0A@@glm@@QEAA@W4ctor@1@@Z		; glm::tvec4<bool,0>::tvec4<bool,0>
PUBLIC	??$?0_N$0A@@?$tvec4@M$0A@@glm@@QEAA@AEBU?$tvec4@_N$0A@@1@@Z ; glm::tvec4<float,0>::tvec4<float,0><bool,0>
PUBLIC	?call@?$compute_max_vector@M$0A@Utvec2@glm@@$0A@@detail@glm@@SA?AU?$tvec2@M$0A@@3@AEBU43@0@Z ; glm::detail::compute_max_vector<float,0,glm::tvec2,0>::call
PUBLIC	?call@?$compute_fract@M$0A@Utvec4@glm@@$0A@@detail@glm@@SA?AU?$tvec4@M$0A@@3@AEBU43@@Z ; glm::detail::compute_fract<float,0,glm::tvec4,0>::call
PUBLIC	??$?_0M@?$tvec4@M$0A@@glm@@QEAAAEAU01@M@Z	; glm::tvec4<float,0>::operator/=<float>
PUBLIC	??$?GM$0A@@glm@@YA?AU?$tvec2@M$0A@@0@AEBU10@M@Z	; glm::operator-<float,0>
PUBLIC	?call@?$compute_mix_scalar@MM$0A@Utvec2@glm@@$0A@@detail@glm@@SA?AU?$tvec2@M$0A@@3@AEBU43@0AEBM@Z ; glm::detail::compute_mix_scalar<float,float,0,glm::tvec2,0>::call
PUBLIC	?call@?$compute_mix@MM@detail@glm@@SAMAEBM00@Z	; glm::detail::compute_mix<float,float>::call
PUBLIC	?call@?$compute_vec4_sub@M$0A@$0A@@detail@glm@@SA?AU?$tvec4@M$0A@@3@AEBU43@0@Z ; glm::detail::compute_vec4_sub<float,0,0>::call
PUBLIC	?call@?$compute_mix_scalar@MM$0A@Utvec4@glm@@$0A@@detail@glm@@SA?AU?$tvec4@M$0A@@3@AEBU43@0AEBM@Z ; glm::detail::compute_mix_scalar<float,float,0,glm::tvec4,0>::call
PUBLIC	?call@?$compute_mod@M$0A@Utvec3@glm@@$0A@@detail@glm@@SA?AU?$tvec3@M$0A@@3@AEBU43@0@Z ; glm::detail::compute_mod<float,0,glm::tvec3,0>::call
PUBLIC	?deallocate@?$_Default_allocator_traits@V?$allocator@U_Container_proxy@std@@@std@@@std@@SAXAEAV?$allocator@U_Container_proxy@std@@@2@QEAU_Container_proxy@2@_K@Z ; std::_Default_allocator_traits<std::allocator<std::_Container_proxy> >::deallocate
PUBLIC	??0?$_Uninitialized_backout_al@V?$allocator@Vimage2D@gli@@@std@@@std@@QEAA@PEAVimage2D@gli@@AEAV?$allocator@Vimage2D@gli@@@1@@Z ; std::_Uninitialized_backout_al<std::allocator<gli::image2D> >::_Uninitialized_backout_al<std::allocator<gli::image2D> >
PUBLIC	??1?$_Uninitialized_backout_al@V?$allocator@Vimage2D@gli@@@std@@@std@@QEAA@XZ ; std::_Uninitialized_backout_al<std::allocator<gli::image2D> >::~_Uninitialized_backout_al<std::allocator<gli::image2D> >
PUBLIC	?_Release@?$_Uninitialized_backout_al@V?$allocator@Vimage2D@gli@@@std@@@std@@QEAAPEAVimage2D@gli@@XZ ; std::_Uninitialized_backout_al<std::allocator<gli::image2D> >::_Release
PUBLIC	??$_Emplace_back@$$V@?$_Uninitialized_backout_al@V?$allocator@Vimage2D@gli@@@std@@@std@@QEAAXXZ ; std::_Uninitialized_backout_al<std::allocator<gli::image2D> >::_Emplace_back<>
PUBLIC	??$_Get_unwrapped@AEBQEAVimage2D@gli@@@std@@YA?A_TAEBQEAVimage2D@gli@@@Z ; std::_Get_unwrapped<gli::image2D * const &>
PUBLIC	??$_Emplace_back@AEAVimage2D@gli@@@?$_Uninitialized_backout_al@V?$allocator@Vimage2D@gli@@@std@@@std@@QEAAXAEAVimage2D@gli@@@Z ; std::_Uninitialized_backout_al<std::allocator<gli::image2D> >::_Emplace_back<gli::image2D &>
PUBLIC	??$_Verify_range@E@std@@YAXQEBE0@Z		; std::_Verify_range<unsigned char>
PUBLIC	??$distance@PEAE@std@@YA_JPEAE0@Z		; std::distance<unsigned char *>
PUBLIC	??$next@PEAE@std@@YAPEAEPEAE_J@Z		; std::next<unsigned char *>
PUBLIC	??$_Copy_unchecked@PEAEPEAE@std@@YAPEAEPEAE00@Z	; std::_Copy_unchecked<unsigned char *,unsigned char *>
PUBLIC	??$_Get_unwrapped@AEBQEAE@std@@YA?A_TAEBQEAE@Z	; std::_Get_unwrapped<unsigned char * const &>
PUBLIC	??$_Unfancy@E@std@@YAPEAEPEAE@Z			; std::_Unfancy<unsigned char>
PUBLIC	??$_Copy_memmove@PEAEPEAE@std@@YAPEAEPEAE00@Z	; std::_Copy_memmove<unsigned char *,unsigned char *>
PUBLIC	??0?$_Uninitialized_backout_al@V?$allocator@E@std@@@std@@QEAA@PEAEAEAV?$allocator@E@1@@Z ; std::_Uninitialized_backout_al<std::allocator<unsigned char> >::_Uninitialized_backout_al<std::allocator<unsigned char> >
PUBLIC	??1?$_Uninitialized_backout_al@V?$allocator@E@std@@@std@@QEAA@XZ ; std::_Uninitialized_backout_al<std::allocator<unsigned char> >::~_Uninitialized_backout_al<std::allocator<unsigned char> >
PUBLIC	?_Release@?$_Uninitialized_backout_al@V?$allocator@E@std@@@std@@QEAAPEAEXZ ; std::_Uninitialized_backout_al<std::allocator<unsigned char> >::_Release
PUBLIC	??$_Emplace_back@AEAE@?$_Uninitialized_backout_al@V?$allocator@E@std@@@std@@QEAAXAEAE@Z ; std::_Uninitialized_backout_al<std::allocator<unsigned char> >::_Emplace_back<unsigned char &>
PUBLIC	??$_Zero_range@PEAE@std@@YAPEAEQEAE0@Z		; std::_Zero_range<unsigned char *>
PUBLIC	??$_Emplace_back@$$V@?$_Uninitialized_backout_al@V?$allocator@E@std@@@std@@QEAAXXZ ; std::_Uninitialized_backout_al<std::allocator<unsigned char> >::_Emplace_back<>
PUBLIC	?call@?$compute_min_vector@M$0A@Utvec4@glm@@$0A@@detail@glm@@SA?AU?$tvec4@M$0A@@3@AEBU43@0@Z ; glm::detail::compute_min_vector<float,0,glm::tvec4,0>::call
PUBLIC	?call@?$functor2@M$0A@Utvec2@glm@@@detail@glm@@SA?AU?$tvec2@M$0A@@3@P6AMMM@ZAEBU43@1@Z ; glm::detail::functor2<float,0,glm::tvec2>::call
PUBLIC	??$min@M@glm@@YAMMM@Z				; glm::min<float>
PUBLIC	?call@?$functor2@M$0A@Utvec4@glm@@@detail@glm@@SA?AU?$tvec4@M$0A@@3@P6AMMM@ZAEBU43@1@Z ; glm::detail::functor2<float,0,glm::tvec4>::call
PUBLIC	??$?DM$0A@@glm@@YA?AU?$tvec2@M$0A@@0@MAEBU10@@Z	; glm::operator*<float,0>
PUBLIC	??$?HM$0A@@glm@@YA?AU?$tvec2@M$0A@@0@AEBU10@0@Z	; glm::operator+<float,0>
PUBLIC	??$max@M@glm@@YAMMM@Z				; glm::max<float>
PUBLIC	??$?KM$0A@@glm@@YA?AU?$tvec4@M$0A@@0@AEBU10@0@Z	; glm::operator/<float,0>
PUBLIC	??$mix@M_N$0A@Utvec4@glm@@@glm@@YA?AU?$tvec4@M$0A@@0@AEBU10@0AEBU?$tvec4@_N$0A@@0@@Z ; glm::mix<float,bool,0,glm::tvec4>
PUBLIC	??$abs@M@glm@@YAMM@Z				; glm::abs<float>
PUBLIC	?call@?$functor2@M$0A@Utvec3@glm@@@detail@glm@@SA?AU?$tvec3@M$0A@@3@P6AMMM@ZAEBU43@1@Z ; glm::detail::functor2<float,0,glm::tvec3>::call
PUBLIC	??$lessThan@M$0A@Utvec3@glm@@@glm@@YA?AU?$tvec3@_N$0A@@0@AEBU?$tvec3@M$0A@@0@0@Z ; glm::lessThan<float,0,glm::tvec3>
PUBLIC	?length@?$tvec3@_N$0A@@glm@@SAHXZ		; glm::tvec3<bool,0>::length
PUBLIC	??A?$tvec3@_N$0A@@glm@@QEAAAEA_NH@Z		; glm::tvec3<bool,0>::operator[]
PUBLIC	??A?$tvec3@_N$0A@@glm@@QEBAAEB_NH@Z		; glm::tvec3<bool,0>::operator[]
PUBLIC	??0?$tvec3@_N$0A@@glm@@QEAA@W4ctor@1@@Z		; glm::tvec3<bool,0>::tvec3<bool,0>
PUBLIC	??$mix@M_N$0A@Utvec3@glm@@@glm@@YA?AU?$tvec3@M$0A@@0@AEBU10@0AEBU?$tvec3@_N$0A@@0@@Z ; glm::mix<float,bool,0,glm::tvec3>
PUBLIC	?call@?$functor1@MM$0A@Utvec3@glm@@@detail@glm@@SA?AU?$tvec3@M$0A@@3@P6AMM@ZAEBU43@@Z ; glm::detail::functor1<float,float,0,glm::tvec3>::call
PUBLIC	??$?KM$0A@@glm@@YA?AU?$tvec2@M$0A@@0@AEBU10@0@Z	; glm::operator/<float,0>
PUBLIC	??$forward@AEAPEAV_Facet_base@std@@@std@@YAAEAPEAV_Facet_base@0@AEAPEAV10@@Z ; std::forward<std::_Facet_base * &>
PUBLIC	?call@?$compute_vec4_add@M$0A@$0A@@detail@glm@@SA?AU?$tvec4@M$0A@@3@AEBU43@0@Z ; glm::detail::compute_vec4_add<float,0,0>::call
PUBLIC	?call@?$compute_vec4_div@M$0A@$0A@@detail@glm@@SA?AU?$tvec4@M$0A@@3@AEBU43@0@Z ; glm::detail::compute_vec4_div<float,0,0>::call
PUBLIC	??$construct@Vimage2D@gli@@$$V@?$_Default_allocator_traits@V?$allocator@Vimage2D@gli@@@std@@@std@@SAXAEAV?$allocator@Vimage2D@gli@@@1@QEAVimage2D@gli@@@Z ; std::_Default_allocator_traits<std::allocator<gli::image2D> >::construct<gli::image2D>
PUBLIC	??$forward@AEAVimage2D@gli@@@std@@YAAEAVimage2D@gli@@AEAV12@@Z ; std::forward<gli::image2D &>
PUBLIC	??$construct@Vimage2D@gli@@AEAV12@@?$_Default_allocator_traits@V?$allocator@Vimage2D@gli@@@std@@@std@@SAXAEAV?$allocator@Vimage2D@gli@@@1@QEAVimage2D@gli@@AEAV34@@Z ; std::_Default_allocator_traits<std::allocator<gli::image2D> >::construct<gli::image2D,gli::image2D &>
PUBLIC	??$advance@PEAE_J@std@@YAXAEAPEAE_J@Z		; std::advance<unsigned char *,__int64>
PUBLIC	??$_To_address@PEAE@std@@YA?A_PAEBQEAE@Z	; std::_To_address<unsigned char *>
PUBLIC	??$forward@AEAE@std@@YAAEAEAEAE@Z		; std::forward<unsigned char &>
PUBLIC	??$construct@EAEAE@?$_Default_allocator_traits@V?$allocator@E@std@@@std@@SAXAEAV?$allocator@E@1@QEAEAEAE@Z ; std::_Default_allocator_traits<std::allocator<unsigned char> >::construct<unsigned char,unsigned char &>
PUBLIC	??$construct@E$$V@?$_Default_allocator_traits@V?$allocator@E@std@@@std@@SAXAEAV?$allocator@E@1@QEAE@Z ; std::_Default_allocator_traits<std::allocator<unsigned char> >::construct<unsigned char>
PUBLIC	??$?_0M@?$tvec4@M$0A@@glm@@QEAAAEAU01@AEBU01@@Z	; glm::tvec4<float,0>::operator/=<float>
PUBLIC	?call@?$compute_mix_vector@M_N$0A@Utvec4@glm@@$0A@@detail@glm@@SA?AU?$tvec4@M$0A@@3@AEBU43@0AEBU?$tvec4@_N$0A@@3@@Z ; glm::detail::compute_mix_vector<float,bool,0,glm::tvec4,0>::call
PUBLIC	?call@?$compute_abs@M$00@detail@glm@@SAMM@Z	; glm::detail::compute_abs<float,1>::call
PUBLIC	?call@?$compute_mix_vector@M_N$0A@Utvec3@glm@@$0A@@detail@glm@@SA?AU?$tvec3@M$0A@@3@AEBU43@0AEBU?$tvec3@_N$0A@@3@@Z ; glm::detail::compute_mix_vector<float,bool,0,glm::tvec3,0>::call
PUBLIC	??$_Voidify_iter@PEAVimage2D@gli@@@std@@YAPEAXPEAVimage2D@gli@@@Z ; std::_Voidify_iter<gli::image2D *>
PUBLIC	??$_Voidify_iter@PEAE@std@@YAPEAXPEAE@Z		; std::_Voidify_iter<unsigned char *>
PUBLIC	??_E?$basic_ofstream@DU?$char_traits@D@std@@@std@@$4PPPPPPPM@A@EAAPEAXI@Z ; std::basic_ofstream<char,std::char_traits<char> >::`vector deleting destructor'
PUBLIC	??_7exception@std@@6B@				; std::exception::`vftable'
PUBLIC	??_C@_0BC@EOODALEL@Unknown?5exception@		; `string'
PUBLIC	??_7bad_alloc@std@@6B@				; std::bad_alloc::`vftable'
PUBLIC	??_7bad_array_new_length@std@@6B@		; std::bad_array_new_length::`vftable'
PUBLIC	??_C@_0BF@KINCDENJ@bad?5array?5new?5length@	; `string'
PUBLIC	_TI3?AVbad_array_new_length@std@@
PUBLIC	_CTA3?AVbad_array_new_length@std@@
PUBLIC	??_R0?AVbad_array_new_length@std@@@8		; std::bad_array_new_length `RTTI Type Descriptor'
PUBLIC	_CT??_R0?AVbad_array_new_length@std@@@8??0bad_array_new_length@std@@QEAA@AEBV01@@Z24
PUBLIC	??_R0?AVbad_alloc@std@@@8			; std::bad_alloc `RTTI Type Descriptor'
PUBLIC	_CT??_R0?AVbad_alloc@std@@@8??0bad_alloc@std@@QEAA@AEBV01@@Z24
PUBLIC	??_R0?AVexception@std@@@8			; std::exception `RTTI Type Descriptor'
PUBLIC	_CT??_R0?AVexception@std@@@8??0exception@std@@QEAA@AEBV01@@Z24
PUBLIC	??_C@_0BB@FCMFBGOM@invalid?5argument@		; `string'
PUBLIC	??_C@_02DKCKIIND@?$CFs@				; `string'
PUBLIC	??_C@_0GC@DJFHHHKN@C?3?2Program?5Files?2Microsoft?5Visu@ ; `string'
PUBLIC	??_C@_1ME@GEFGDEOM@?$AAC?$AA?3?$AA?2?$AAP?$AAr?$AAo?$AAg?$AAr?$AAa?$AAm?$AA?5?$AAF?$AAi?$AAl?$AAe@ ; `string'
PUBLIC	??_C@_11LOCGONAA@@				; `string'
PUBLIC	??_C@_1CG@JNLFBNGN@?$AA?$CC?$AAi?$AAn?$AAv?$AAa?$AAl?$AAi?$AAd?$AA?5?$AAa?$AAr?$AAg?$AAu?$AAm?$AAe@ ; `string'
PUBLIC	??_C@_1ME@ILJMNGPA@?$AAC?$AA?3?$AA?2?$AAU?$AAs?$AAe?$AAr?$AAs?$AA?2?$AAk?$AAs?$AAa?$AAr?$AAt?$AA?2@ ; `string'
PUBLIC	??_C@_13COJANIEC@?$AA0@				; `string'
PUBLIC	??_C@_0BA@JFNIOLAK@string?5too?5long@		; `string'
PUBLIC	??_7bad_cast@std@@6B@				; std::bad_cast::`vftable'
PUBLIC	??_C@_08EPJLHIJG@bad?5cast@			; `string'
PUBLIC	_TI2?AVbad_cast@std@@
PUBLIC	_CTA2?AVbad_cast@std@@
PUBLIC	??_R0?AVbad_cast@std@@@8			; std::bad_cast `RTTI Type Descriptor'
PUBLIC	_CT??_R0?AVbad_cast@std@@@8??0bad_cast@std@@QEAA@AEBV01@@Z24
PUBLIC	??_7?$basic_filebuf@DU?$char_traits@D@std@@@std@@6B@ ; std::basic_filebuf<char,std::char_traits<char> >::`vftable'
PUBLIC	??_C@_04HLKGINEK@DDS?5@				; `string'
PUBLIC	??_7?$basic_ofstream@DU?$char_traits@D@std@@@std@@6B@ ; std::basic_ofstream<char,std::char_traits<char> >::`vftable'
PUBLIC	??_8?$basic_ofstream@DU?$char_traits@D@std@@@std@@7B@ ; std::basic_ofstream<char,std::char_traits<char> >::`vbtable'
PUBLIC	??_C@_0GC@MAJKHLEE@C?3?2Program?5Files?2Microsoft?5Visu@ ; `string'
PUBLIC	??_C@_1ME@IKNKMNDN@?$AAC?$AA?3?$AA?2?$AAP?$AAr?$AAo?$AAg?$AAr?$AAa?$AAm?$AA?5?$AAF?$AAi?$AAl?$AAe@ ; `string'
PUBLIC	??_C@_0BO@PFKOHNJC@vector?5subscript?5out?5of?5range@ ; `string'
PUBLIC	??_C@_0GB@GDCALCPO@C?3?2Program?5Files?2Microsoft?5Visu@ ; `string'
PUBLIC	??_C@_1MC@BJDJHFOD@?$AAC?$AA?3?$AA?2?$AAP?$AAr?$AAo?$AAg?$AAr?$AAa?$AAm?$AA?5?$AAF?$AAi?$AAl?$AAe@ ; `string'
PUBLIC	??_C@_1EA@LEKOKFNB@?$AA?$CC?$AAv?$AAe?$AAc?$AAt?$AAo?$AAr?$AA?5?$AAs?$AAu?$AAb?$AAs?$AAc?$AAr?$AAi@ ; `string'
PUBLIC	?_Stinit@?1??_Init@?$basic_filebuf@DU?$char_traits@D@std@@@std@@IEAAXPEAU_iobuf@@W4_Initfl@23@@Z@4U_Mbstatet@@A ; `std::basic_filebuf<char,std::char_traits<char> >::_Init'::`2'::_Stinit
PUBLIC	??_C@_0BP@PFIPNLNI@front?$CI?$CJ?5called?5on?5empty?5string@ ; `string'
PUBLIC	??_C@_1EC@DINNLDHA@?$AA?$CC?$AAf?$AAr?$AAo?$AAn?$AAt?$AA?$CI?$AA?$CJ?$AA?5?$AAc?$AAa?$AAl?$AAl?$AAe?$AAd@ ; `string'
PUBLIC	??_C@_0DG@KGHKKGBC@null?5pointer?5cannot?5point?5to?5a?5@ ; `string'
PUBLIC	??_C@_1HA@FACCKGGH@?$AA?$CC?$AAn?$AAu?$AAl?$AAl?$AA?5?$AAp?$AAo?$AAi?$AAn?$AAt?$AAe?$AAr?$AA?5?$AAc@ ; `string'
PUBLIC	??_C@_0BI@CFPLBAOH@invalid?5string?5position@	; `string'
PUBLIC	??_C@_1LG@FPDAFGJN@?$AAC?$AA?3?$AA?2?$AAU?$AAs?$AAe?$AAr?$AAs?$AA?2?$AAk?$AAs?$AAa?$AAr?$AAt?$AA?2@ ; `string'
PUBLIC	??_C@_1DK@BGNCJAPL@?$AAi?$AA?5?$AA?$DO?$AA?$DN?$AA?5?$AA0?$AA?5?$AA?$CG?$AA?$CG?$AA?5?$AAi?$AA?5?$AA?$DM?$AA?5?$AAt@ ; `string'
PUBLIC	??_C@_1LG@LAANPDHN@?$AAC?$AA?3?$AA?2?$AAU?$AAs?$AAe?$AAr?$AAs?$AA?2?$AAk?$AAs?$AAa?$AAr?$AAt?$AA?2@ ; `string'
PUBLIC	?_Psave@?$_Facetptr@V?$codecvt@DDU_Mbstatet@@@std@@@std@@2PEBVfacet@locale@2@EB ; std::_Facetptr<std::codecvt<char,char,_Mbstatet> >::_Psave
PUBLIC	??_C@_0BA@FOIKENOD@vector?5too?5long@		; `string'
PUBLIC	??_C@_1LG@MEJFBKPC@?$AAC?$AA?3?$AA?2?$AAU?$AAs?$AAe?$AAr?$AAs?$AA?2?$AAk?$AAs?$AAa?$AAr?$AAt?$AA?2@ ; `string'
PUBLIC	??_C@_0BJ@HAJGEHKO@transposed?5pointer?5range@	; `string'
PUBLIC	??_C@_0GD@GLKFIMHC@C?3?2Program?5Files?2Microsoft?5Visu@ ; `string'
PUBLIC	??_C@_1MG@NOLPABAB@?$AAC?$AA?3?$AA?2?$AAP?$AAr?$AAo?$AAg?$AAr?$AAa?$AAm?$AA?5?$AAF?$AAi?$AAl?$AAe@ ; `string'
PUBLIC	??_C@_1DG@FJIKMGFD@?$AA?$CC?$AAt?$AAr?$AAa?$AAn?$AAs?$AAp?$AAo?$AAs?$AAe?$AAd?$AA?5?$AAp?$AAo?$AAi@ ; `string'
PUBLIC	??_C@_1NA@OPABFNEN@?$AAC?$AA?3?$AA?2?$AAU?$AAs?$AAe?$AAr?$AAs?$AA?2?$AAk?$AAs?$AAa?$AAr?$AAt?$AA?2@ ; `string'
PUBLIC	??_C@_1DC@HHLCGOLC@?$AAx?$AA?4?$AAl?$AAe?$AAn?$AAg?$AAt?$AAh?$AA?$CI?$AA?$CJ?$AA?5?$AA?$DN?$AA?$DN?$AA?5?$AAy@ ; `string'
PUBLIC	??_R4exception@std@@6B@				; std::exception::`RTTI Complete Object Locator'
PUBLIC	??_R3exception@std@@8				; std::exception::`RTTI Class Hierarchy Descriptor'
PUBLIC	??_R2exception@std@@8				; std::exception::`RTTI Base Class Array'
PUBLIC	??_R1A@?0A@EA@exception@std@@8			; std::exception::`RTTI Base Class Descriptor at (0,-1,0,64)'
PUBLIC	??_R4bad_alloc@std@@6B@				; std::bad_alloc::`RTTI Complete Object Locator'
PUBLIC	??_R3bad_alloc@std@@8				; std::bad_alloc::`RTTI Class Hierarchy Descriptor'
PUBLIC	??_R2bad_alloc@std@@8				; std::bad_alloc::`RTTI Base Class Array'
PUBLIC	??_R1A@?0A@EA@bad_alloc@std@@8			; std::bad_alloc::`RTTI Base Class Descriptor at (0,-1,0,64)'
PUBLIC	??_R4bad_array_new_length@std@@6B@		; std::bad_array_new_length::`RTTI Complete Object Locator'
PUBLIC	??_R3bad_array_new_length@std@@8		; std::bad_array_new_length::`RTTI Class Hierarchy Descriptor'
PUBLIC	??_R2bad_array_new_length@std@@8		; std::bad_array_new_length::`RTTI Base Class Array'
PUBLIC	??_R1A@?0A@EA@bad_array_new_length@std@@8	; std::bad_array_new_length::`RTTI Base Class Descriptor at (0,-1,0,64)'
PUBLIC	??_R4?$basic_filebuf@DU?$char_traits@D@std@@@std@@6B@ ; std::basic_filebuf<char,std::char_traits<char> >::`RTTI Complete Object Locator'
PUBLIC	??_R0?AV?$basic_filebuf@DU?$char_traits@D@std@@@std@@@8 ; std::basic_filebuf<char,std::char_traits<char> > `RTTI Type Descriptor'
PUBLIC	??_R3?$basic_filebuf@DU?$char_traits@D@std@@@std@@8 ; std::basic_filebuf<char,std::char_traits<char> >::`RTTI Class Hierarchy Descriptor'
PUBLIC	??_R2?$basic_filebuf@DU?$char_traits@D@std@@@std@@8 ; std::basic_filebuf<char,std::char_traits<char> >::`RTTI Base Class Array'
PUBLIC	??_R1A@?0A@EA@?$basic_filebuf@DU?$char_traits@D@std@@@std@@8 ; std::basic_filebuf<char,std::char_traits<char> >::`RTTI Base Class Descriptor at (0,-1,0,64)'
PUBLIC	??_R1A@?0A@EA@?$basic_streambuf@DU?$char_traits@D@std@@@std@@8 ; std::basic_streambuf<char,std::char_traits<char> >::`RTTI Base Class Descriptor at (0,-1,0,64)'
PUBLIC	??_R0?AV?$basic_streambuf@DU?$char_traits@D@std@@@std@@@8 ; std::basic_streambuf<char,std::char_traits<char> > `RTTI Type Descriptor'
PUBLIC	??_R3?$basic_streambuf@DU?$char_traits@D@std@@@std@@8 ; std::basic_streambuf<char,std::char_traits<char> >::`RTTI Class Hierarchy Descriptor'
PUBLIC	??_R2?$basic_streambuf@DU?$char_traits@D@std@@@std@@8 ; std::basic_streambuf<char,std::char_traits<char> >::`RTTI Base Class Array'
PUBLIC	??_R1A@A@3FA@?$basic_ios@DU?$char_traits@D@std@@@std@@8 ; std::basic_ios<char,std::char_traits<char> >::`RTTI Base Class Descriptor at (0,0,4,80)'
PUBLIC	??_R0?AV?$basic_ios@DU?$char_traits@D@std@@@std@@@8 ; std::basic_ios<char,std::char_traits<char> > `RTTI Type Descriptor'
PUBLIC	??_R3?$basic_ios@DU?$char_traits@D@std@@@std@@8	; std::basic_ios<char,std::char_traits<char> >::`RTTI Class Hierarchy Descriptor'
PUBLIC	??_R2?$basic_ios@DU?$char_traits@D@std@@@std@@8	; std::basic_ios<char,std::char_traits<char> >::`RTTI Base Class Array'
PUBLIC	??_R1A@?0A@EA@?$basic_ios@DU?$char_traits@D@std@@@std@@8 ; std::basic_ios<char,std::char_traits<char> >::`RTTI Base Class Descriptor at (0,-1,0,64)'
PUBLIC	??_R1A@?0A@EA@ios_base@std@@8			; std::ios_base::`RTTI Base Class Descriptor at (0,-1,0,64)'
PUBLIC	??_R0?AVios_base@std@@@8			; std::ios_base `RTTI Type Descriptor'
PUBLIC	??_R3ios_base@std@@8				; std::ios_base::`RTTI Class Hierarchy Descriptor'
PUBLIC	??_R2ios_base@std@@8				; std::ios_base::`RTTI Base Class Array'
PUBLIC	??_R17?0A@EA@?$_Iosb@H@std@@8			; std::_Iosb<int>::`RTTI Base Class Descriptor at (8,-1,0,64)'
PUBLIC	??_R0?AV?$_Iosb@H@std@@@8			; std::_Iosb<int> `RTTI Type Descriptor'
PUBLIC	??_R3?$_Iosb@H@std@@8				; std::_Iosb<int>::`RTTI Class Hierarchy Descriptor'
PUBLIC	??_R2?$_Iosb@H@std@@8				; std::_Iosb<int>::`RTTI Base Class Array'
PUBLIC	??_R1A@?0A@EA@?$_Iosb@H@std@@8			; std::_Iosb<int>::`RTTI Base Class Descriptor at (0,-1,0,64)'
PUBLIC	??_R1A@A@3EA@ios_base@std@@8			; std::ios_base::`RTTI Base Class Descriptor at (0,0,4,64)'
PUBLIC	??_R17A@3EA@?$_Iosb@H@std@@8			; std::_Iosb<int>::`RTTI Base Class Descriptor at (8,0,4,64)'
PUBLIC	??_R4?$basic_ofstream@DU?$char_traits@D@std@@@std@@6B@ ; std::basic_ofstream<char,std::char_traits<char> >::`RTTI Complete Object Locator'
PUBLIC	??_R0?AV?$basic_ofstream@DU?$char_traits@D@std@@@std@@@8 ; std::basic_ofstream<char,std::char_traits<char> > `RTTI Type Descriptor'
PUBLIC	??_R3?$basic_ofstream@DU?$char_traits@D@std@@@std@@8 ; std::basic_ofstream<char,std::char_traits<char> >::`RTTI Class Hierarchy Descriptor'
PUBLIC	??_R2?$basic_ofstream@DU?$char_traits@D@std@@@std@@8 ; std::basic_ofstream<char,std::char_traits<char> >::`RTTI Base Class Array'
PUBLIC	??_R1A@?0A@EA@?$basic_ofstream@DU?$char_traits@D@std@@@std@@8 ; std::basic_ofstream<char,std::char_traits<char> >::`RTTI Base Class Descriptor at (0,-1,0,64)'
PUBLIC	??_R1A@?0A@EA@?$basic_ostream@DU?$char_traits@D@std@@@std@@8 ; std::basic_ostream<char,std::char_traits<char> >::`RTTI Base Class Descriptor at (0,-1,0,64)'
PUBLIC	??_R0?AV?$basic_ostream@DU?$char_traits@D@std@@@std@@@8 ; std::basic_ostream<char,std::char_traits<char> > `RTTI Type Descriptor'
PUBLIC	??_R3?$basic_ostream@DU?$char_traits@D@std@@@std@@8 ; std::basic_ostream<char,std::char_traits<char> >::`RTTI Class Hierarchy Descriptor'
PUBLIC	??_R2?$basic_ostream@DU?$char_traits@D@std@@@std@@8 ; std::basic_ostream<char,std::char_traits<char> >::`RTTI Base Class Array'
PUBLIC	??_R4bad_cast@std@@6B@				; std::bad_cast::`RTTI Complete Object Locator'
PUBLIC	??_R3bad_cast@std@@8				; std::bad_cast::`RTTI Class Hierarchy Descriptor'
PUBLIC	??_R2bad_cast@std@@8				; std::bad_cast::`RTTI Base Class Array'
PUBLIC	??_R1A@?0A@EA@bad_cast@std@@8			; std::bad_cast::`RTTI Base Class Descriptor at (0,-1,0,64)'
PUBLIC	__real@00000000
PUBLIC	__real@3b5ee95c
PUBLIC	__real@3ca72f05
PUBLIC	__real@3cc7ce0c
PUBLIC	__real@3e124925
PUBLIC	__real@3e58658c
PUBLIC	__real@3e9e377a
PUBLIC	__real@3ebb67af
PUBLIC	__real@3f000000
PUBLIC	__real@3f19999a
PUBLIC	__real@3f400000
PUBLIC	__real@3f5a8e5c
PUBLIC	__real@3f800000
PUBLIC	__real@3fc00000
PUBLIC	__real@3fc1b06d1d200925
PUBLIC	__real@3fc5555555555555
PUBLIC	__real@3fd1b06d1d200913
PUBLIC	__real@3fd5555555555555
PUBLIC	__real@3fda88a3abb00da5
PUBLIC	__real@3fe0000000000000
PUBLIC	__real@3fe57be0
PUBLIC	__real@3ff0000000000000
PUBLIC	__real@40000000
PUBLIC	__real@4000000000000000
PUBLIC	__real@400ccccd
PUBLIC	__real@40133333
PUBLIC	__real@40c00000
PUBLIC	__real@40e00000
PUBLIC	__real@41200000
PUBLIC	__real@41700000
PUBLIC	__real@42080000
PUBLIC	__real@42240000
PUBLIC	__real@42280000
PUBLIC	__real@42440000
PUBLIC	__real@42800000
PUBLIC	__real@42fe0000
PUBLIC	__real@43000000
PUBLIC	__real@43020000
PUBLIC	__real@43908000
PUBLIC	__real@bf13cd3a
PUBLIC	__real@bfdc9f25c5bfedda
PUBLIC	__xmm@80000000800000008000000080000000
EXTRN	??2@YAPEAX_K@Z:PROC				; operator new
EXTRN	??3@YAXPEAX_K@Z:PROC				; operator delete
EXTRN	__imp__invalid_parameter:PROC
EXTRN	__imp__wassert:PROC
EXTRN	__imp__CrtDbgReport:PROC
EXTRN	__imp_??0_Lockit@std@@QEAA@H@Z:PROC
EXTRN	__imp_??1_Lockit@std@@QEAA@XZ:PROC
EXTRN	__imp__get_stream_buffer_pointers:PROC
EXTRN	__imp_fclose:PROC
EXTRN	__imp_fflush:PROC
EXTRN	__imp_fgetc:PROC
EXTRN	__imp_fgetpos:PROC
EXTRN	__imp_fputc:PROC
EXTRN	__imp_fread:PROC
EXTRN	__imp_fsetpos:PROC
EXTRN	__imp__fseeki64:PROC
EXTRN	__imp_fwrite:PROC
EXTRN	__imp_setvbuf:PROC
EXTRN	__imp_ungetc:PROC
EXTRN	__imp__lock_file:PROC
EXTRN	__imp__unlock_file:PROC
EXTRN	memcpy:PROC
EXTRN	memmove:PROC
EXTRN	memset:PROC
EXTRN	__std_exception_copy:PROC
EXTRN	__std_exception_destroy:PROC
EXTRN	??_Eexception@std@@UEAAPEAXI@Z:PROC		; std::exception::`vector deleting destructor'
EXTRN	??_Ebad_alloc@std@@UEAAPEAXI@Z:PROC		; std::bad_alloc::`vector deleting destructor'
EXTRN	??_Ebad_array_new_length@std@@UEAAPEAXI@Z:PROC	; std::bad_array_new_length::`vector deleting destructor'
EXTRN	strlen:PROC
EXTRN	?_Xlength_error@std@@YAXPEBD@Z:PROC		; std::_Xlength_error
EXTRN	?_Xout_of_range@std@@YAXPEBD@Z:PROC		; std::_Xout_of_range
EXTRN	??_Ebad_cast@std@@UEAAPEAXI@Z:PROC		; std::bad_cast::`vector deleting destructor'
EXTRN	?_Facet_Register@std@@YAXPEAV_Facet_base@1@@Z:PROC ; std::_Facet_Register
EXTRN	__imp_??Bid@locale@std@@QEAA_KXZ:PROC
EXTRN	?_Getgloballocale@locale@std@@CAPEAV_Locimp@12@XZ:PROC ; std::locale::_Getgloballocale
EXTRN	__imp_?always_noconv@codecvt_base@std@@QEBA_NXZ:PROC
EXTRN	__imp_?in@?$codecvt@DDU_Mbstatet@@@std@@QEBAHAEAU_Mbstatet@@PEBD1AEAPEBDPEAD3AEAPEAD@Z:PROC
EXTRN	__imp_?out@?$codecvt@DDU_Mbstatet@@@std@@QEBAHAEAU_Mbstatet@@PEBD1AEAPEBDPEAD3AEAPEAD@Z:PROC
EXTRN	__imp_?unshift@?$codecvt@DDU_Mbstatet@@@std@@QEBAHAEAU_Mbstatet@@PEAD1AEAPEAD@Z:PROC
EXTRN	__imp_?_Getcat@?$codecvt@DDU_Mbstatet@@@std@@SA_KPEAPEBVfacet@locale@2@PEBV42@@Z:PROC
EXTRN	__imp_??7ios_base@std@@QEBA_NXZ:PROC
EXTRN	__imp_?fail@ios_base@std@@QEBA_NXZ:PROC
EXTRN	__imp_?bad@ios_base@std@@QEBA_NXZ:PROC
EXTRN	__imp_??0?$basic_streambuf@DU?$char_traits@D@std@@@std@@IEAA@XZ:PROC
EXTRN	__imp_??1?$basic_streambuf@DU?$char_traits@D@std@@@std@@UEAA@XZ:PROC
EXTRN	__imp_?getloc@?$basic_streambuf@DU?$char_traits@D@std@@@std@@QEBA?AVlocale@2@XZ:PROC
EXTRN	__imp_?eback@?$basic_streambuf@DU?$char_traits@D@std@@@std@@IEBAPEADXZ:PROC
EXTRN	__imp_?gptr@?$basic_streambuf@DU?$char_traits@D@std@@@std@@IEBAPEADXZ:PROC
EXTRN	__imp_?pptr@?$basic_streambuf@DU?$char_traits@D@std@@@std@@IEBAPEADXZ:PROC
EXTRN	__imp_?egptr@?$basic_streambuf@DU?$char_traits@D@std@@@std@@IEBAPEADXZ:PROC
EXTRN	__imp_?gbump@?$basic_streambuf@DU?$char_traits@D@std@@@std@@IEAAXH@Z:PROC
EXTRN	__imp_?setg@?$basic_streambuf@DU?$char_traits@D@std@@@std@@IEAAXPEAD00@Z:PROC
EXTRN	__imp_?epptr@?$basic_streambuf@DU?$char_traits@D@std@@@std@@IEBAPEADXZ:PROC
EXTRN	__imp_?_Gndec@?$basic_streambuf@DU?$char_traits@D@std@@@std@@IEAAPEADXZ:PROC
EXTRN	__imp_?_Gninc@?$basic_streambuf@DU?$char_traits@D@std@@@std@@IEAAPEADXZ:PROC
EXTRN	__imp_?_Gnavail@?$basic_streambuf@DU?$char_traits@D@std@@@std@@IEBA_JXZ:PROC
EXTRN	__imp_?pbump@?$basic_streambuf@DU?$char_traits@D@std@@@std@@IEAAXH@Z:PROC
EXTRN	__imp_?_Pninc@?$basic_streambuf@DU?$char_traits@D@std@@@std@@IEAAPEADXZ:PROC
EXTRN	__imp_?_Pnavail@?$basic_streambuf@DU?$char_traits@D@std@@@std@@IEBA_JXZ:PROC
EXTRN	__imp_?_Init@?$basic_streambuf@DU?$char_traits@D@std@@@std@@IEAAXXZ:PROC
EXTRN	__imp_?_Init@?$basic_streambuf@DU?$char_traits@D@std@@@std@@IEAAXPEAPEAD0PEAH001@Z:PROC
EXTRN	__imp_?xsgetn@?$basic_streambuf@DU?$char_traits@D@std@@@std@@MEAA_JPEAD_J@Z:PROC
EXTRN	__imp_?xsputn@?$basic_streambuf@DU?$char_traits@D@std@@@std@@MEAA_JPEBD_J@Z:PROC
EXTRN	__imp_??1?$basic_ios@DU?$char_traits@D@std@@@std@@UEAA@XZ:PROC
EXTRN	__imp_?setstate@?$basic_ios@DU?$char_traits@D@std@@@std@@QEAAXH_N@Z:PROC
EXTRN	__imp_??0?$basic_ios@DU?$char_traits@D@std@@@std@@IEAA@XZ:PROC
EXTRN	__imp_??0?$basic_ostream@DU?$char_traits@D@std@@@std@@QEAA@PEAV?$basic_streambuf@DU?$char_traits@D@std@@@1@_N@Z:PROC
EXTRN	__imp_??1?$basic_ostream@DU?$char_traits@D@std@@@std@@UEAA@XZ:PROC
EXTRN	__imp_?write@?$basic_ostream@DU?$char_traits@D@std@@@std@@QEAAAEAV12@PEBD_J@Z:PROC
EXTRN	?_Fiopen@std@@YAPEAU_iobuf@@PEBDHH@Z:PROC	; std::_Fiopen
EXTRN	??_E?$basic_filebuf@DU?$char_traits@D@std@@@std@@UEAAPEAXI@Z:PROC ; std::basic_filebuf<char,std::char_traits<char> >::`vector deleting destructor'
EXTRN	??_E?$basic_ofstream@DU?$char_traits@D@std@@@std@@UEAAPEAXI@Z:PROC ; std::basic_ofstream<char,std::char_traits<char> >::`vector deleting destructor'
EXTRN	?showmanyc@?$basic_streambuf@DU?$char_traits@D@std@@@std@@MEAA_JXZ:PROC ; std::basic_streambuf<char,std::char_traits<char> >::showmanyc
EXTRN	_CxxThrowException:PROC
EXTRN	_RTC_CheckStackVars:PROC
EXTRN	_RTC_InitBase:PROC
EXTRN	_RTC_Shutdown:PROC
EXTRN	__CxxFrameHandler4:PROC
EXTRN	__GSHandlerCheck:PROC
EXTRN	__GSHandlerCheck_EH4:PROC
EXTRN	__chkstk:PROC
EXTRN	__security_check_cookie:PROC
EXTRN	floorf:PROC
EXTRN	??_7type_info@@6B@:BYTE				; type_info::`vftable'
EXTRN	__imp_?id@?$codecvt@DDU_Mbstatet@@@std@@2V0locale@2@A:QWORD
EXTRN	__ImageBase:BYTE
EXTRN	__security_cookie:QWORD
EXTRN	_fltused:DWORD
;	COMDAT ?_Stinit@?1??_Init@?$basic_filebuf@DU?$char_traits@D@std@@@std@@IEAAXPEAU_iobuf@@W4_Initfl@23@@Z@4U_Mbstatet@@A
_BSS	SEGMENT
?_Stinit@?1??_Init@?$basic_filebuf@DU?$char_traits@D@std@@@std@@IEAAXPEAU_iobuf@@W4_Initfl@23@@Z@4U_Mbstatet@@A DQ 01H DUP (?) ; `std::basic_filebuf<char,std::char_traits<char> >::_Init'::`2'::_Stinit
_BSS	ENDS
;	COMDAT ?_Psave@?$_Facetptr@V?$codecvt@DDU_Mbstatet@@@std@@@std@@2PEBVfacet@locale@2@EB
_BSS	SEGMENT
?_Psave@?$_Facetptr@V?$codecvt@DDU_Mbstatet@@@std@@@std@@2PEBVfacet@locale@2@EB DQ 01H DUP (?) ; std::_Facetptr<std::codecvt<char,char,_Mbstatet> >::_Psave
_BSS	ENDS
;	COMDAT pdata
pdata	SEGMENT
$pdata$?__empty_global_delete@@YAXPEAX@Z DD imagerel $LN3
	DD	imagerel $LN3+8
	DD	imagerel $unwind$?__empty_global_delete@@YAXPEAX@Z
pdata	ENDS
;	COMDAT pdata
pdata	SEGMENT
$pdata$?__empty_global_delete@@YAXPEAX_K@Z DD imagerel $LN3
	DD	imagerel $LN3+13
	DD	imagerel $unwind$?__empty_global_delete@@YAXPEAX_K@Z
pdata	ENDS
;	COMDAT pdata
pdata	SEGMENT
$pdata$??2@YAPEAX_KPEAX@Z DD imagerel $LN3
	DD	imagerel $LN3+18
	DD	imagerel $unwind$??2@YAPEAX_KPEAX@Z
pdata	ENDS
;	COMDAT pdata
pdata	SEGMENT
$pdata$?floor@@YAMM@Z DD imagerel $LN3
	DD	imagerel $LN3+28
	DD	imagerel $unwind$?floor@@YAMM@Z
pdata	ENDS
;	COMDAT pdata
pdata	SEGMENT
$pdata$?max@?$numeric_limits@_J@std@@SA_JXZ DD imagerel $LN3
	DD	imagerel $LN3+14
	DD	imagerel $unwind$?max@?$numeric_limits@_J@std@@SA_JXZ
pdata	ENDS
;	COMDAT pdata
pdata	SEGMENT
$pdata$??0exception@std@@QEAA@QEBDH@Z DD imagerel $LN3
	DD	imagerel $LN3+73
	DD	imagerel $unwind$??0exception@std@@QEAA@QEBDH@Z
pdata	ENDS
;	COMDAT pdata
pdata	SEGMENT
$pdata$??0exception@std@@QEAA@AEBV01@@Z DD imagerel $LN3
	DD	imagerel $LN3+88
	DD	imagerel $unwind$??0exception@std@@QEAA@AEBV01@@Z
pdata	ENDS
;	COMDAT pdata
pdata	SEGMENT
$pdata$??1exception@std@@UEAA@XZ DD imagerel $LN3
	DD	imagerel $LN3+48
	DD	imagerel $unwind$??1exception@std@@UEAA@XZ
pdata	ENDS
;	COMDAT pdata
pdata	SEGMENT
$pdata$?what@exception@std@@UEBAPEBDXZ DD imagerel $LN5
	DD	imagerel $LN5+58
	DD	imagerel $unwind$?what@exception@std@@UEBAPEBDXZ
pdata	ENDS
;	COMDAT pdata
pdata	SEGMENT
$pdata$??_Gexception@std@@UEAAPEAXI@Z DD imagerel $LN4
	DD	imagerel $LN4+61
	DD	imagerel $unwind$??_Gexception@std@@UEAAPEAXI@Z
pdata	ENDS
;	COMDAT pdata
pdata	SEGMENT
$pdata$??0bad_alloc@std@@AEAA@QEBD@Z DD imagerel $LN3
	DD	imagerel $LN3+62
	DD	imagerel $unwind$??0bad_alloc@std@@AEAA@QEBD@Z
pdata	ENDS
;	COMDAT pdata
pdata	SEGMENT
$pdata$??1bad_alloc@std@@UEAA@XZ DD imagerel $LN3
	DD	imagerel $LN3+26
	DD	imagerel $unwind$??1bad_alloc@std@@UEAA@XZ
pdata	ENDS
;	COMDAT pdata
pdata	SEGMENT
$pdata$??0bad_alloc@std@@QEAA@AEBV01@@Z DD imagerel $LN3
	DD	imagerel $LN3+56
	DD	imagerel $unwind$??0bad_alloc@std@@QEAA@AEBV01@@Z
pdata	ENDS
;	COMDAT pdata
pdata	SEGMENT
$pdata$??_Gbad_alloc@std@@UEAAPEAXI@Z DD imagerel $LN4
	DD	imagerel $LN4+61
	DD	imagerel $unwind$??_Gbad_alloc@std@@UEAAPEAXI@Z
pdata	ENDS
;	COMDAT pdata
pdata	SEGMENT
$pdata$??0bad_array_new_length@std@@QEAA@XZ DD imagerel $LN3
	DD	imagerel $LN3+53
	DD	imagerel $unwind$??0bad_array_new_length@std@@QEAA@XZ
pdata	ENDS
;	COMDAT pdata
pdata	SEGMENT
$pdata$??1bad_array_new_length@std@@UEAA@XZ DD imagerel $LN3
	DD	imagerel $LN3+26
	DD	imagerel $unwind$??1bad_array_new_length@std@@UEAA@XZ
pdata	ENDS
;	COMDAT pdata
pdata	SEGMENT
$pdata$??0bad_array_new_length@std@@QEAA@AEBV01@@Z DD imagerel $LN3
	DD	imagerel $LN3+56
	DD	imagerel $unwind$??0bad_array_new_length@std@@QEAA@AEBV01@@Z
pdata	ENDS
;	COMDAT pdata
pdata	SEGMENT
$pdata$??_Gbad_array_new_length@std@@UEAAPEAXI@Z DD imagerel $LN4
	DD	imagerel $LN4+61
	DD	imagerel $unwind$??_Gbad_array_new_length@std@@UEAAPEAXI@Z
pdata	ENDS
;	COMDAT pdata
pdata	SEGMENT
$pdata$?_Throw_bad_array_new_length@std@@YAXXZ DD imagerel $LN3
	DD	imagerel $LN3+39
	DD	imagerel $unwind$?_Throw_bad_array_new_length@std@@YAXXZ
pdata	ENDS
;	COMDAT pdata
pdata	SEGMENT
$pdata$?_Allocate@_Default_allocate_traits@std@@SAPEAX_K@Z DD imagerel $LN3
	DD	imagerel $LN3+26
	DD	imagerel $unwind$?_Allocate@_Default_allocate_traits@std@@SAPEAX_K@Z
pdata	ENDS
;	COMDAT pdata
pdata	SEGMENT
$pdata$?_Adjust_manually_vector_aligned@std@@YAXAEAPEAXAEA_K@Z DD imagerel $LN21
	DD	imagerel $LN21+404
	DD	imagerel $unwind$?_Adjust_manually_vector_aligned@std@@YAXAEAPEAXAEA_K@Z
pdata	ENDS
;	COMDAT pdata
pdata	SEGMENT
$pdata$??0_Container_proxy@std@@QEAA@PEAU_Container_base12@1@@Z DD imagerel $LN3
	DD	imagerel $LN3+44
	DD	imagerel $unwind$??0_Container_proxy@std@@QEAA@PEAU_Container_base12@1@@Z
pdata	ENDS
;	COMDAT pdata
pdata	SEGMENT
$pdata$??0_Container_base12@std@@QEAA@XZ DD imagerel $LN3
	DD	imagerel $LN3+25
	DD	imagerel $unwind$??0_Container_base12@std@@QEAA@XZ
pdata	ENDS
;	COMDAT pdata
pdata	SEGMENT
$pdata$?_Orphan_all@_Container_base12@std@@QEAAXXZ DD imagerel $LN3
	DD	imagerel $LN3+26
	DD	imagerel $unwind$?_Orphan_all@_Container_base12@std@@QEAAXXZ
pdata	ENDS
;	COMDAT pdata
pdata	SEGMENT
$pdata$?_Orphan_all_unlocked_v3@_Container_base12@std@@AEAAXXZ DD imagerel $LN7
	DD	imagerel $LN7+107
	DD	imagerel $unwind$?_Orphan_all_unlocked_v3@_Container_base12@std@@AEAAXXZ
pdata	ENDS
;	COMDAT pdata
pdata	SEGMENT
$pdata$?_Orphan_all_locked_v3@_Container_base12@std@@AEAAXXZ DD imagerel $LN3
	DD	imagerel $LN3+90
	DD	imagerel $unwind$?_Orphan_all_locked_v3@_Container_base12@std@@AEAAXXZ
pdata	ENDS
;	COMDAT pdata
pdata	SEGMENT
$pdata$?_Release@_Basic_container_proxy_ptr12@std@@QEAAXXZ DD imagerel $LN3
	DD	imagerel $LN3+20
	DD	imagerel $unwind$?_Release@_Basic_container_proxy_ptr12@std@@QEAAXXZ
pdata	ENDS
;	COMDAT pdata
pdata	SEGMENT
$pdata$??0_Basic_container_proxy_ptr12@std@@IEAA@XZ DD imagerel $LN3
	DD	imagerel $LN3+25
	DD	imagerel $unwind$??0_Basic_container_proxy_ptr12@std@@IEAA@XZ
pdata	ENDS
;	COMDAT pdata
pdata	SEGMENT
$pdata$??0?$tvec2@M$0A@@glm@@QEAA@M@Z DD imagerel $LN3
	DD	imagerel $LN3+50
	DD	imagerel $unwind$??0?$tvec2@M$0A@@glm@@QEAA@M@Z
pdata	ENDS
;	COMDAT pdata
pdata	SEGMENT
$pdata$??0?$tvec2@M$0A@@glm@@QEAA@MM@Z DD imagerel $LN3
	DD	imagerel $LN3+56
	DD	imagerel $unwind$??0?$tvec2@M$0A@@glm@@QEAA@MM@Z
pdata	ENDS
;	COMDAT pdata
pdata	SEGMENT
$pdata$??$?DM$0A@@glm@@YA?AU?$tvec2@M$0A@@0@AEBU10@M@Z DD imagerel $LN3
	DD	imagerel $LN3+76
	DD	imagerel $unwind$??$?DM$0A@@glm@@YA?AU?$tvec2@M$0A@@0@AEBU10@M@Z
pdata	ENDS
;	COMDAT pdata
pdata	SEGMENT
$pdata$?length@?$tvec4@M$0A@@glm@@SAHXZ DD imagerel $LN3
	DD	imagerel $LN3+9
	DD	imagerel $unwind$?length@?$tvec4@M$0A@@glm@@SAHXZ
pdata	ENDS
;	COMDAT pdata
pdata	SEGMENT
$pdata$??A?$tvec4@M$0A@@glm@@QEAAAEAMH@Z DD imagerel $LN5
	DD	imagerel $LN5+80
	DD	imagerel $unwind$??A?$tvec4@M$0A@@glm@@QEAAAEAMH@Z
pdata	ENDS
;	COMDAT pdata
pdata	SEGMENT
$pdata$??A?$tvec4@M$0A@@glm@@QEBAAEBMH@Z DD imagerel $LN5
	DD	imagerel $LN5+80
	DD	imagerel $unwind$??A?$tvec4@M$0A@@glm@@QEBAAEBMH@Z
pdata	ENDS
;	COMDAT pdata
pdata	SEGMENT
$pdata$??0?$tvec4@M$0A@@glm@@QEAA@XZ DD imagerel $LN3
	DD	imagerel $LN3+64
	DD	imagerel $unwind$??0?$tvec4@M$0A@@glm@@QEAA@XZ
pdata	ENDS
;	COMDAT pdata
pdata	SEGMENT
$pdata$??0?$tvec4@M$0A@@glm@@QEAA@W4ctor@1@@Z DD imagerel $LN3
	DD	imagerel $LN3+17
	DD	imagerel $unwind$??0?$tvec4@M$0A@@glm@@QEAA@W4ctor@1@@Z
pdata	ENDS
;	COMDAT pdata
pdata	SEGMENT
$pdata$??0?$tvec4@M$0A@@glm@@QEAA@M@Z DD imagerel $LN3
	DD	imagerel $LN3+82
	DD	imagerel $unwind$??0?$tvec4@M$0A@@glm@@QEAA@M@Z
pdata	ENDS
;	COMDAT pdata
pdata	SEGMENT
$pdata$??0?$tvec4@M$0A@@glm@@QEAA@MMMM@Z DD imagerel $LN3
	DD	imagerel $LN3+94
	DD	imagerel $unwind$??0?$tvec4@M$0A@@glm@@QEAA@MMMM@Z
pdata	ENDS
;	COMDAT pdata
pdata	SEGMENT
$pdata$??$clamp@M$0A@Utvec4@glm@@@glm@@YA?AU?$tvec4@M$0A@@0@AEBU10@MM@Z DD imagerel $LN3
	DD	imagerel $LN3+101
	DD	imagerel $unwind$??$clamp@M$0A@Utvec4@glm@@@glm@@YA?AU?$tvec4@M$0A@@0@AEBU10@MM@Z
pdata	ENDS
;	COMDAT pdata
pdata	SEGMENT
$pdata$??$?DM$0A@@glm@@YA?AU?$tvec4@M$0A@@0@AEBU10@M@Z DD imagerel $LN3
	DD	imagerel $LN3+85
	DD	imagerel $unwind$??$?DM$0A@@glm@@YA?AU?$tvec4@M$0A@@0@AEBU10@M@Z
pdata	ENDS
;	COMDAT pdata
pdata	SEGMENT
$pdata$?length@?$tvec2@I$0A@@glm@@SAHXZ DD imagerel $LN3
	DD	imagerel $LN3+9
	DD	imagerel $unwind$?length@?$tvec2@I$0A@@glm@@SAHXZ
pdata	ENDS
;	COMDAT pdata
pdata	SEGMENT
$pdata$??A?$tvec2@I$0A@@glm@@QEBAAEBIH@Z DD imagerel $LN5
	DD	imagerel $LN5+80
	DD	imagerel $unwind$??A?$tvec2@I$0A@@glm@@QEBAAEBIH@Z
pdata	ENDS
;	COMDAT pdata
pdata	SEGMENT
$pdata$??0?$tvec2@I$0A@@glm@@QEAA@I@Z DD imagerel $LN3
	DD	imagerel $LN3+40
	DD	imagerel $unwind$??0?$tvec2@I$0A@@glm@@QEAA@I@Z
pdata	ENDS
;	COMDAT pdata
pdata	SEGMENT
$pdata$??0?$tvec2@I$0A@@glm@@QEAA@II@Z DD imagerel $LN3
	DD	imagerel $LN3+45
	DD	imagerel $unwind$??0?$tvec2@I$0A@@glm@@QEAA@II@Z
pdata	ENDS
;	COMDAT pdata
pdata	SEGMENT
$pdata$??0image2D@gli@@QEAA@XZ DD imagerel $LN4
	DD	imagerel $LN4+78
	DD	imagerel $unwind$??0image2D@gli@@QEAA@XZ
pdata	ENDS
;	COMDAT pdata
pdata	SEGMENT
$pdata$?dtor$0@?0???0image2D@gli@@QEAA@XZ@4HA DD imagerel ?dtor$0@?0???0image2D@gli@@QEAA@XZ@4HA
	DD	imagerel ?dtor$0@?0???0image2D@gli@@QEAA@XZ@4HA+35
	DD	imagerel $unwind$?dtor$0@?0???0image2D@gli@@QEAA@XZ@4HA
pdata	ENDS
;	COMDAT pdata
pdata	SEGMENT
$pdata$??0image2D@gli@@QEAA@AEBV01@@Z DD imagerel $LN4
	DD	imagerel $LN4+78
	DD	imagerel $unwind$??0image2D@gli@@QEAA@AEBV01@@Z
pdata	ENDS
;	COMDAT pdata
pdata	SEGMENT
$pdata$??0image2D@gli@@QEAA@AEBU?$tvec2@I$0A@@glm@@AEBW4format@1@@Z DD imagerel $LN4
	DD	imagerel $LN4+136
	DD	imagerel $unwind$??0image2D@gli@@QEAA@AEBU?$tvec2@I$0A@@glm@@AEBW4format@1@@Z
pdata	ENDS
;	COMDAT pdata
pdata	SEGMENT
$pdata$??1image2D@gli@@QEAA@XZ DD imagerel $LN3
	DD	imagerel $LN3+29
	DD	imagerel $unwind$??1image2D@gli@@QEAA@XZ
pdata	ENDS
;	COMDAT pdata
pdata	SEGMENT
$pdata$?dimensions@image2D@gli@@QEBA?AU?$tvec2@I$0A@@glm@@XZ DD imagerel $LN3
	DD	imagerel $LN3+35
	DD	imagerel $unwind$?dimensions@image2D@gli@@QEBA?AU?$tvec2@I$0A@@glm@@XZ
pdata	ENDS
;	COMDAT pdata
pdata	SEGMENT
$pdata$?format@image2D@gli@@QEBA?AW402@XZ DD imagerel $LN3
	DD	imagerel $LN3+16
	DD	imagerel $unwind$?format@image2D@gli@@QEBA?AW402@XZ
pdata	ENDS
;	COMDAT pdata
pdata	SEGMENT
$pdata$?data@image2D@gli@@QEAAPEAEXZ DD imagerel $LN3
	DD	imagerel $LN3+31
	DD	imagerel $unwind$?data@image2D@gli@@QEAAPEAEXZ
pdata	ENDS
;	COMDAT pdata
pdata	SEGMENT
$pdata$?data@image2D@gli@@QEBAQEBEXZ DD imagerel $LN3
	DD	imagerel $LN3+31
	DD	imagerel $unwind$?data@image2D@gli@@QEBAQEBEXZ
pdata	ENDS
;	COMDAT pdata
pdata	SEGMENT
$pdata$??0?$allocator@E@std@@QEAA@XZ DD imagerel $LN3
	DD	imagerel $LN3+13
	DD	imagerel $unwind$??0?$allocator@E@std@@QEAA@XZ
pdata	ENDS
;	COMDAT pdata
pdata	SEGMENT
$pdata$?deallocate@?$allocator@E@std@@QEAAXQEAE_K@Z DD imagerel $LN13
	DD	imagerel $LN13+176
	DD	imagerel $unwind$?deallocate@?$allocator@E@std@@QEAAXQEAE_K@Z
pdata	ENDS
;	COMDAT pdata
pdata	SEGMENT
$pdata$?allocate@?$allocator@E@std@@QEAAPEAE_K@Z DD imagerel $LN3
	DD	imagerel $LN3+39
	DD	imagerel $unwind$?allocate@?$allocator@E@std@@QEAAPEAE_K@Z
pdata	ENDS
;	COMDAT pdata
pdata	SEGMENT
$pdata$?max_size@?$_Default_allocator_traits@V?$allocator@E@std@@@std@@SA_KAEBV?$allocator@E@2@@Z DD imagerel $LN3
	DD	imagerel $LN3+15
	DD	imagerel $unwind$?max_size@?$_Default_allocator_traits@V?$allocator@E@std@@@std@@SA_KAEBV?$allocator@E@2@@Z
pdata	ENDS
;	COMDAT pdata
pdata	SEGMENT
$pdata$?select_on_container_copy_construction@?$_Default_allocator_traits@V?$allocator@E@std@@@std@@SA?AV?$allocator@E@2@AEBV32@@Z DD imagerel $LN3
	DD	imagerel $LN3+18
	DD	imagerel $unwind$?select_on_container_copy_construction@?$_Default_allocator_traits@V?$allocator@E@std@@@std@@SA?AV?$allocator@E@2@AEBV32@@Z
pdata	ENDS
;	COMDAT pdata
pdata	SEGMENT
$pdata$??0?$vector@EV?$allocator@E@std@@@std@@QEAA@_KAEBV?$allocator@E@1@@Z DD imagerel $LN3
	DD	imagerel $LN3+69
	DD	imagerel $unwind$??0?$vector@EV?$allocator@E@std@@@std@@QEAA@_KAEBV?$allocator@E@1@@Z
pdata	ENDS
;	COMDAT pdata
pdata	SEGMENT
$pdata$??0?$vector@EV?$allocator@E@std@@@std@@QEAA@AEBV01@@Z DD imagerel $LN3
	DD	imagerel $LN3+142
	DD	imagerel $unwind$??0?$vector@EV?$allocator@E@std@@@std@@QEAA@AEBV01@@Z
pdata	ENDS
;	COMDAT pdata
pdata	SEGMENT
$pdata$??1?$vector@EV?$allocator@E@std@@@std@@QEAA@XZ DD imagerel $LN3
	DD	imagerel $LN3+136
	DD	imagerel $unwind$??1?$vector@EV?$allocator@E@std@@@std@@QEAA@XZ
pdata	ENDS
;	COMDAT pdata
pdata	SEGMENT
$pdata$??4?$vector@EV?$allocator@E@std@@@std@@QEAAAEAV01@AEBV01@@Z DD imagerel $LN4
	DD	imagerel $LN4+133
	DD	imagerel $unwind$??4?$vector@EV?$allocator@E@std@@@std@@QEAAAEAV01@AEBV01@@Z
pdata	ENDS
;	COMDAT pdata
pdata	SEGMENT
$pdata$?_Clear_and_reserve_geometric@?$vector@EV?$allocator@E@std@@@std@@AEAAX_K@Z DD imagerel $LN5
	DD	imagerel $LN5+258
	DD	imagerel $unwind$?_Clear_and_reserve_geometric@?$vector@EV?$allocator@E@std@@@std@@AEAAX_K@Z
pdata	ENDS
;	COMDAT pdata
pdata	SEGMENT
$pdata$?size@?$vector@EV?$allocator@E@std@@@std@@QEBA_KXZ DD imagerel $LN3
	DD	imagerel $LN3+44
	DD	imagerel $unwind$?size@?$vector@EV?$allocator@E@std@@@std@@QEBA_KXZ
pdata	ENDS
;	COMDAT pdata
pdata	SEGMENT
$pdata$?max_size@?$vector@EV?$allocator@E@std@@@std@@QEBA_KXZ DD imagerel $LN3
	DD	imagerel $LN3+67
	DD	imagerel $unwind$?max_size@?$vector@EV?$allocator@E@std@@@std@@QEBA_KXZ
pdata	ENDS
;	COMDAT pdata
pdata	SEGMENT
$pdata$?capacity@?$vector@EV?$allocator@E@std@@@std@@QEBA_KXZ DD imagerel $LN3
	DD	imagerel $LN3+44
	DD	imagerel $unwind$?capacity@?$vector@EV?$allocator@E@std@@@std@@QEBA_KXZ
pdata	ENDS
;	COMDAT pdata
pdata	SEGMENT
$pdata$??A?$vector@EV?$allocator@E@std@@@std@@QEAAAEAE_K@Z DD imagerel $LN12
	DD	imagerel $LN12+192
	DD	imagerel $unwind$??A?$vector@EV?$allocator@E@std@@@std@@QEAAAEAE_K@Z
pdata	ENDS
;	COMDAT pdata
pdata	SEGMENT
$pdata$??A?$vector@EV?$allocator@E@std@@@std@@QEBAAEBE_K@Z DD imagerel $LN12
	DD	imagerel $LN12+192
	DD	imagerel $unwind$??A?$vector@EV?$allocator@E@std@@@std@@QEBAAEBE_K@Z
pdata	ENDS
;	COMDAT pdata
pdata	SEGMENT
$pdata$?_Calculate_growth@?$vector@EV?$allocator@E@std@@@std@@AEBA_K_K@Z DD imagerel $LN5
	DD	imagerel $LN5+146
	DD	imagerel $unwind$?_Calculate_growth@?$vector@EV?$allocator@E@std@@@std@@AEBA_K_K@Z
pdata	ENDS
;	COMDAT pdata
pdata	SEGMENT
$pdata$?_Buy_raw@?$vector@EV?$allocator@E@std@@@std@@AEAAX_K@Z DD imagerel $LN3
	DD	imagerel $LN3+151
	DD	imagerel $unwind$?_Buy_raw@?$vector@EV?$allocator@E@std@@@std@@AEAAX_K@Z
pdata	ENDS
;	COMDAT pdata
pdata	SEGMENT
$pdata$?_Buy_nonzero@?$vector@EV?$allocator@E@std@@@std@@AEAAX_K@Z DD imagerel $LN4
	DD	imagerel $LN4+58
	DD	imagerel $unwind$?_Buy_nonzero@?$vector@EV?$allocator@E@std@@@std@@AEAAX_K@Z
pdata	ENDS
;	COMDAT pdata
pdata	SEGMENT
$pdata$?_Tidy@?$vector@EV?$allocator@E@std@@@std@@AEAAXXZ DD imagerel $LN4
	DD	imagerel $LN4+206
	DD	imagerel $unwind$?_Tidy@?$vector@EV?$allocator@E@std@@@std@@AEAAXXZ
pdata	ENDS
;	COMDAT pdata
pdata	SEGMENT
$pdata$?_Xlength@?$vector@EV?$allocator@E@std@@@std@@CAXXZ DD imagerel $LN3
	DD	imagerel $LN3+24
	DD	imagerel $unwind$?_Xlength@?$vector@EV?$allocator@E@std@@@std@@CAXXZ
pdata	ENDS
;	COMDAT pdata
pdata	SEGMENT
$pdata$?_Getal@?$vector@EV?$allocator@E@std@@@std@@AEAAAEAV?$allocator@E@2@XZ DD imagerel $LN3
	DD	imagerel $LN3+29
	DD	imagerel $unwind$?_Getal@?$vector@EV?$allocator@E@std@@@std@@AEAAAEAV?$allocator@E@2@XZ
pdata	ENDS
;	COMDAT pdata
pdata	SEGMENT
$pdata$?_Getal@?$vector@EV?$allocator@E@std@@@std@@AEBAAEBV?$allocator@E@2@XZ DD imagerel $LN3
	DD	imagerel $LN3+29
	DD	imagerel $unwind$?_Getal@?$vector@EV?$allocator@E@std@@@std@@AEBAAEBV?$allocator@E@2@XZ
pdata	ENDS
;	COMDAT pdata
pdata	SEGMENT
$pdata$??0?$_Vector_val@U?$_Simple_types@E@std@@@std@@QEAA@XZ DD imagerel $LN3
	DD	imagerel $LN3+70
	DD	imagerel $unwind$??0?$_Vector_val@U?$_Simple_types@E@std@@@std@@QEAA@XZ
pdata	ENDS
;	COMDAT pdata
pdata	SEGMENT
$pdata$?_Get_first@?$_Compressed_pair@V?$allocator@E@std@@V?$_Vector_val@U?$_Simple_types@E@std@@@2@$00@std@@QEAAAEAV?$allocator@E@2@XZ DD imagerel $LN3
	DD	imagerel $LN3+13
	DD	imagerel $unwind$?_Get_first@?$_Compressed_pair@V?$allocator@E@std@@V?$_Vector_val@U?$_Simple_types@E@std@@@2@$00@std@@QEAAAEAV?$allocator@E@2@XZ
pdata	ENDS
;	COMDAT pdata
pdata	SEGMENT
$pdata$?_Get_first@?$_Compressed_pair@V?$allocator@E@std@@V?$_Vector_val@U?$_Simple_types@E@std@@@2@$00@std@@QEBAAEBV?$allocator@E@2@XZ DD imagerel $LN3
	DD	imagerel $LN3+13
	DD	imagerel $unwind$?_Get_first@?$_Compressed_pair@V?$allocator@E@std@@V?$_Vector_val@U?$_Simple_types@E@std@@@2@$00@std@@QEBAAEBV?$allocator@E@2@XZ
pdata	ENDS
;	COMDAT pdata
pdata	SEGMENT
$pdata$??4image2D@gli@@QEAAAEAV01@AEBV01@@Z DD imagerel $LN3
	DD	imagerel $LN3+78
	DD	imagerel $unwind$??4image2D@gli@@QEAAAEAV01@AEBV01@@Z
pdata	ENDS
;	COMDAT pdata
pdata	SEGMENT
$pdata$??_Gimage2D@gli@@QEAAPEAXI@Z DD imagerel $LN4
	DD	imagerel $LN4+61
	DD	imagerel $unwind$??_Gimage2D@gli@@QEAAPEAXI@Z
pdata	ENDS
;	COMDAT pdata
pdata	SEGMENT
$pdata$?getFormatInfo@detail@gli@@YA?AUformat_desc@12@AEBW4format@2@@Z DD imagerel $LN3
	DD	imagerel $LN3+1874
	DD	imagerel $unwind$?getFormatInfo@detail@gli@@YA?AUformat_desc@12@AEBW4format@2@@Z
pdata	ENDS
;	COMDAT pdata
pdata	SEGMENT
$pdata$?sizeBlock@detail@gli@@YAIAEBW4format@2@@Z DD imagerel $LN3
	DD	imagerel $LN3+83
	DD	imagerel $unwind$?sizeBlock@detail@gli@@YAIAEBW4format@2@@Z
pdata	ENDS
;	COMDAT pdata
pdata	SEGMENT
$pdata$?sizeBitPerPixel@detail@gli@@YAIAEBW4format@2@@Z DD imagerel $LN3
	DD	imagerel $LN3+83
	DD	imagerel $unwind$?sizeBitPerPixel@detail@gli@@YAIAEBW4format@2@@Z
pdata	ENDS
;	COMDAT pdata
pdata	SEGMENT
$pdata$?sizeComponent@detail@gli@@YAIAEBW4format@2@@Z DD imagerel $LN3
	DD	imagerel $LN3+83
	DD	imagerel $unwind$?sizeComponent@detail@gli@@YAIAEBW4format@2@@Z
pdata	ENDS
;	COMDAT pdata
pdata	SEGMENT
$pdata$?sizeLinear@detail@gli@@YAIAEBVimage2D@2@@Z DD imagerel $LN5
	DD	imagerel $LN5+241
	DD	imagerel $unwind$?sizeLinear@detail@gli@@YAIAEBVimage2D@2@@Z
pdata	ENDS
;	COMDAT pdata
pdata	SEGMENT
$pdata$??$max@I$0A@Utvec2@glm@@@glm@@YA?AU?$tvec2@I$0A@@0@AEBU10@0@Z DD imagerel $LN3
	DD	imagerel $LN3+51
	DD	imagerel $unwind$??$max@I$0A@Utvec2@glm@@@glm@@YA?AU?$tvec2@I$0A@@0@AEBU10@0@Z
pdata	ENDS
;	COMDAT pdata
pdata	SEGMENT
$pdata$??$compMul@I$0A@Utvec2@glm@@@glm@@YAIAEBU?$tvec2@I$0A@@0@@Z DD imagerel $LN6
	DD	imagerel $LN6+96
	DD	imagerel $unwind$??$compMul@I$0A@Utvec2@glm@@@glm@@YAIAEBU?$tvec2@I$0A@@0@@Z
pdata	ENDS
;	COMDAT pdata
pdata	SEGMENT
$pdata$??0texture2D@gli@@QEAA@AEB_K@Z DD imagerel $LN4
	DD	imagerel $LN4+62
	DD	imagerel $unwind$??0texture2D@gli@@QEAA@AEB_K@Z
pdata	ENDS
;	COMDAT pdata
pdata	SEGMENT
$pdata$?dtor$0@?0???0texture2D@gli@@QEAA@AEB_K@Z@4HA DD imagerel ?dtor$0@?0???0texture2D@gli@@QEAA@AEB_K@Z@4HA
	DD	imagerel ?dtor$0@?0???0texture2D@gli@@QEAA@AEB_K@Z@4HA+35
	DD	imagerel $unwind$?dtor$0@?0???0texture2D@gli@@QEAA@AEB_K@Z@4HA
pdata	ENDS
;	COMDAT pdata
pdata	SEGMENT
$pdata$??1texture2D@gli@@QEAA@XZ DD imagerel $LN3
	DD	imagerel $LN3+29
	DD	imagerel $unwind$??1texture2D@gli@@QEAA@XZ
pdata	ENDS
;	COMDAT pdata
pdata	SEGMENT
$pdata$??Atexture2D@gli@@QEAAAEAVimage2D@1@AEB_K@Z DD imagerel $LN3
	DD	imagerel $LN3+42
	DD	imagerel $unwind$??Atexture2D@gli@@QEAAAEAVimage2D@1@AEB_K@Z
pdata	ENDS
;	COMDAT pdata
pdata	SEGMENT
$pdata$??Atexture2D@gli@@QEBAAEBVimage2D@1@AEB_K@Z DD imagerel $LN3
	DD	imagerel $LN3+42
	DD	imagerel $unwind$??Atexture2D@gli@@QEBAAEBVimage2D@1@AEB_K@Z
pdata	ENDS
;	COMDAT pdata
pdata	SEGMENT
$pdata$?format@texture2D@gli@@QEBA?AW402@XZ DD imagerel $LN5
	DD	imagerel $LN5+77
	DD	imagerel $unwind$?format@texture2D@gli@@QEBA?AW402@XZ
pdata	ENDS
;	COMDAT pdata
pdata	SEGMENT
$pdata$?levels@texture2D@gli@@QEBA_KXZ DD imagerel $LN3
	DD	imagerel $LN3+29
	DD	imagerel $unwind$?levels@texture2D@gli@@QEBA_KXZ
pdata	ENDS
;	COMDAT pdata
pdata	SEGMENT
$pdata$??0?$allocator@Vimage2D@gli@@@std@@QEAA@XZ DD imagerel $LN3
	DD	imagerel $LN3+13
	DD	imagerel $unwind$??0?$allocator@Vimage2D@gli@@@std@@QEAA@XZ
pdata	ENDS
;	COMDAT pdata
pdata	SEGMENT
$pdata$?deallocate@?$allocator@Vimage2D@gli@@@std@@QEAAXQEAVimage2D@gli@@_K@Z DD imagerel $LN13
	DD	imagerel $LN13+180
	DD	imagerel $unwind$?deallocate@?$allocator@Vimage2D@gli@@@std@@QEAAXQEAVimage2D@gli@@_K@Z
pdata	ENDS
;	COMDAT pdata
pdata	SEGMENT
$pdata$?allocate@?$allocator@Vimage2D@gli@@@std@@QEAAPEAVimage2D@gli@@_K@Z DD imagerel $LN3
	DD	imagerel $LN3+39
	DD	imagerel $unwind$?allocate@?$allocator@Vimage2D@gli@@@std@@QEAAPEAVimage2D@gli@@_K@Z
pdata	ENDS
;	COMDAT pdata
pdata	SEGMENT
$pdata$?max_size@?$_Default_allocator_traits@V?$allocator@Vimage2D@gli@@@std@@@std@@SA_KAEBV?$allocator@Vimage2D@gli@@@2@@Z DD imagerel $LN3
	DD	imagerel $LN3+18
	DD	imagerel $unwind$?max_size@?$_Default_allocator_traits@V?$allocator@Vimage2D@gli@@@std@@@std@@SA_KAEBV?$allocator@Vimage2D@gli@@@2@@Z
pdata	ENDS
;	COMDAT pdata
pdata	SEGMENT
$pdata$??0?$vector@Vimage2D@gli@@V?$allocator@Vimage2D@gli@@@std@@@std@@QEAA@XZ DD imagerel $LN3
	DD	imagerel $LN3+75
	DD	imagerel $unwind$??0?$vector@Vimage2D@gli@@V?$allocator@Vimage2D@gli@@@std@@@std@@QEAA@XZ
pdata	ENDS
;	COMDAT pdata
pdata	SEGMENT
$pdata$??1?$vector@Vimage2D@gli@@V?$allocator@Vimage2D@gli@@@std@@@std@@QEAA@XZ DD imagerel $LN3
	DD	imagerel $LN3+136
	DD	imagerel $unwind$??1?$vector@Vimage2D@gli@@V?$allocator@Vimage2D@gli@@@std@@@std@@QEAA@XZ
pdata	ENDS
;	COMDAT pdata
pdata	SEGMENT
$pdata$?resize@?$vector@Vimage2D@gli@@V?$allocator@Vimage2D@gli@@@std@@@std@@QEAAX_K@Z DD imagerel $LN3
	DD	imagerel $LN3+41
	DD	imagerel $unwind$?resize@?$vector@Vimage2D@gli@@V?$allocator@Vimage2D@gli@@@std@@@std@@QEAAX_K@Z
pdata	ENDS
;	COMDAT pdata
pdata	SEGMENT
$pdata$?empty@?$vector@Vimage2D@gli@@V?$allocator@Vimage2D@gli@@@std@@@std@@QEBA_NXZ DD imagerel $LN5
	DD	imagerel $LN5+66
	DD	imagerel $unwind$?empty@?$vector@Vimage2D@gli@@V?$allocator@Vimage2D@gli@@@std@@@std@@QEBA_NXZ
pdata	ENDS
;	COMDAT pdata
pdata	SEGMENT
$pdata$?size@?$vector@Vimage2D@gli@@V?$allocator@Vimage2D@gli@@@std@@@std@@QEBA_KXZ DD imagerel $LN3
	DD	imagerel $LN3+54
	DD	imagerel $unwind$?size@?$vector@Vimage2D@gli@@V?$allocator@Vimage2D@gli@@@std@@@std@@QEBA_KXZ
pdata	ENDS
;	COMDAT pdata
pdata	SEGMENT
$pdata$?max_size@?$vector@Vimage2D@gli@@V?$allocator@Vimage2D@gli@@@std@@@std@@QEBA_KXZ DD imagerel $LN3
	DD	imagerel $LN3+67
	DD	imagerel $unwind$?max_size@?$vector@Vimage2D@gli@@V?$allocator@Vimage2D@gli@@@std@@@std@@QEBA_KXZ
pdata	ENDS
;	COMDAT pdata
pdata	SEGMENT
$pdata$?capacity@?$vector@Vimage2D@gli@@V?$allocator@Vimage2D@gli@@@std@@@std@@QEBA_KXZ DD imagerel $LN3
	DD	imagerel $LN3+54
	DD	imagerel $unwind$?capacity@?$vector@Vimage2D@gli@@V?$allocator@Vimage2D@gli@@@std@@@std@@QEBA_KXZ
pdata	ENDS
;	COMDAT pdata
pdata	SEGMENT
$pdata$??A?$vector@Vimage2D@gli@@V?$allocator@Vimage2D@gli@@@std@@@std@@QEAAAEAVimage2D@gli@@_K@Z DD imagerel $LN12
	DD	imagerel $LN12+203
	DD	imagerel $unwind$??A?$vector@Vimage2D@gli@@V?$allocator@Vimage2D@gli@@@std@@@std@@QEAAAEAVimage2D@gli@@_K@Z
pdata	ENDS
;	COMDAT pdata
pdata	SEGMENT
$pdata$??A?$vector@Vimage2D@gli@@V?$allocator@Vimage2D@gli@@@std@@@std@@QEBAAEBVimage2D@gli@@_K@Z DD imagerel $LN12
	DD	imagerel $LN12+203
	DD	imagerel $unwind$??A?$vector@Vimage2D@gli@@V?$allocator@Vimage2D@gli@@@std@@@std@@QEBAAEBVimage2D@gli@@_K@Z
pdata	ENDS
;	COMDAT pdata
pdata	SEGMENT
$pdata$?_Calculate_growth@?$vector@Vimage2D@gli@@V?$allocator@Vimage2D@gli@@@std@@@std@@AEBA_K_K@Z DD imagerel $LN5
	DD	imagerel $LN5+146
	DD	imagerel $unwind$?_Calculate_growth@?$vector@Vimage2D@gli@@V?$allocator@Vimage2D@gli@@@std@@@std@@AEBA_K_K@Z
pdata	ENDS
;	COMDAT pdata
pdata	SEGMENT
$pdata$?_Change_array@?$vector@Vimage2D@gli@@V?$allocator@Vimage2D@gli@@@std@@@std@@AEAAXQEAVimage2D@gli@@_K1@Z DD imagerel $LN4
	DD	imagerel $LN4+258
	DD	imagerel $unwind$?_Change_array@?$vector@Vimage2D@gli@@V?$allocator@Vimage2D@gli@@@std@@@std@@AEAAXQEAVimage2D@gli@@_K1@Z
pdata	ENDS
;	COMDAT pdata
pdata	SEGMENT
$pdata$?_Tidy@?$vector@Vimage2D@gli@@V?$allocator@Vimage2D@gli@@@std@@@std@@AEAAXXZ DD imagerel $LN4
	DD	imagerel $LN4+216
	DD	imagerel $unwind$?_Tidy@?$vector@Vimage2D@gli@@V?$allocator@Vimage2D@gli@@@std@@@std@@AEAAXXZ
pdata	ENDS
;	COMDAT pdata
pdata	SEGMENT
$pdata$?_Xlength@?$vector@Vimage2D@gli@@V?$allocator@Vimage2D@gli@@@std@@@std@@CAXXZ DD imagerel $LN3
	DD	imagerel $LN3+24
	DD	imagerel $unwind$?_Xlength@?$vector@Vimage2D@gli@@V?$allocator@Vimage2D@gli@@@std@@@std@@CAXXZ
pdata	ENDS
;	COMDAT pdata
pdata	SEGMENT
$pdata$?_Orphan_range_unlocked@?$vector@Vimage2D@gli@@V?$allocator@Vimage2D@gli@@@std@@@std@@AEBAXPEAVimage2D@gli@@0@Z DD imagerel $LN8
	DD	imagerel $LN8+161
	DD	imagerel $unwind$?_Orphan_range_unlocked@?$vector@Vimage2D@gli@@V?$allocator@Vimage2D@gli@@@std@@@std@@AEBAXPEAVimage2D@gli@@0@Z
pdata	ENDS
;	COMDAT pdata
pdata	SEGMENT
$pdata$?_Orphan_range_locked@?$vector@Vimage2D@gli@@V?$allocator@Vimage2D@gli@@@std@@@std@@AEBAXPEAVimage2D@gli@@0@Z DD imagerel $LN4
	DD	imagerel $LN4+112
	DD	imagerel $unwind$?_Orphan_range_locked@?$vector@Vimage2D@gli@@V?$allocator@Vimage2D@gli@@@std@@@std@@AEBAXPEAVimage2D@gli@@0@Z
pdata	ENDS
;	COMDAT pdata
pdata	SEGMENT
$pdata$?dtor$0@?0??_Orphan_range_locked@?$vector@Vimage2D@gli@@V?$allocator@Vimage2D@gli@@@std@@@std@@AEBAXPEAVimage2D@gli@@0@Z@4HA DD imagerel ?dtor$0@?0??_Orphan_range_locked@?$vector@Vimage2D@gli@@V?$allocator@Vimage2D@gli@@@std@@@std@@AEBAXPEAVimage2D@gli@@0@Z@4HA
	DD	imagerel ?dtor$0@?0??_Orphan_range_locked@?$vector@Vimage2D@gli@@V?$allocator@Vimage2D@gli@@@std@@@std@@AEBAXPEAVimage2D@gli@@0@Z@4HA+36
	DD	imagerel $unwind$?dtor$0@?0??_Orphan_range_locked@?$vector@Vimage2D@gli@@V?$allocator@Vimage2D@gli@@@std@@@std@@AEBAXPEAVimage2D@gli@@0@Z@4HA
pdata	ENDS
;	COMDAT pdata
pdata	SEGMENT
$pdata$?_Orphan_range@?$vector@Vimage2D@gli@@V?$allocator@Vimage2D@gli@@@std@@@std@@AEBAXPEAVimage2D@gli@@0@Z DD imagerel $LN3
	DD	imagerel $LN3+46
	DD	imagerel $unwind$?_Orphan_range@?$vector@Vimage2D@gli@@V?$allocator@Vimage2D@gli@@@std@@@std@@AEBAXPEAVimage2D@gli@@0@Z
pdata	ENDS
;	COMDAT pdata
pdata	SEGMENT
$pdata$?_Getal@?$vector@Vimage2D@gli@@V?$allocator@Vimage2D@gli@@@std@@@std@@AEAAAEAV?$allocator@Vimage2D@gli@@@2@XZ DD imagerel $LN3
	DD	imagerel $LN3+29
	DD	imagerel $unwind$?_Getal@?$vector@Vimage2D@gli@@V?$allocator@Vimage2D@gli@@@std@@@std@@AEAAAEAV?$allocator@Vimage2D@gli@@@2@XZ
pdata	ENDS
;	COMDAT pdata
pdata	SEGMENT
$pdata$?_Getal@?$vector@Vimage2D@gli@@V?$allocator@Vimage2D@gli@@@std@@@std@@AEBAAEBV?$allocator@Vimage2D@gli@@@2@XZ DD imagerel $LN3
	DD	imagerel $LN3+29
	DD	imagerel $unwind$?_Getal@?$vector@Vimage2D@gli@@V?$allocator@Vimage2D@gli@@@std@@@std@@AEBAAEBV?$allocator@Vimage2D@gli@@@2@XZ
pdata	ENDS
;	COMDAT pdata
pdata	SEGMENT
$pdata$??0?$_Vector_val@U?$_Simple_types@Vimage2D@gli@@@std@@@std@@QEAA@XZ DD imagerel $LN3
	DD	imagerel $LN3+70
	DD	imagerel $unwind$??0?$_Vector_val@U?$_Simple_types@Vimage2D@gli@@@std@@@std@@QEAA@XZ
pdata	ENDS
;	COMDAT pdata
pdata	SEGMENT
$pdata$?_Get_first@?$_Compressed_pair@V?$allocator@Vimage2D@gli@@@std@@V?$_Vector_val@U?$_Simple_types@Vimage2D@gli@@@std@@@2@$00@std@@QEAAAEAV?$allocator@Vimage2D@gli@@@2@XZ DD imagerel $LN3
	DD	imagerel $LN3+13
	DD	imagerel $unwind$?_Get_first@?$_Compressed_pair@V?$allocator@Vimage2D@gli@@@std@@V?$_Vector_val@U?$_Simple_types@Vimage2D@gli@@@std@@@2@$00@std@@QEAAAEAV?$allocator@Vimage2D@gli@@@2@XZ
pdata	ENDS
;	COMDAT pdata
pdata	SEGMENT
$pdata$?_Get_first@?$_Compressed_pair@V?$allocator@Vimage2D@gli@@@std@@V?$_Vector_val@U?$_Simple_types@Vimage2D@gli@@@std@@@2@$00@std@@QEBAAEBV?$allocator@Vimage2D@gli@@@2@XZ DD imagerel $LN3
	DD	imagerel $LN3+13
	DD	imagerel $unwind$?_Get_first@?$_Compressed_pair@V?$allocator@Vimage2D@gli@@@std@@V?$_Vector_val@U?$_Simple_types@Vimage2D@gli@@@std@@@2@$00@std@@QEBAAEBV?$allocator@Vimage2D@gli@@@2@XZ
pdata	ENDS
;	COMDAT pdata
pdata	SEGMENT
$pdata$?size@gli@@YAIAEBVimage2D@1@AEBI@Z DD imagerel $LN11
	DD	imagerel $LN11+188
	DD	imagerel $unwind$?size@gli@@YAIAEBVimage2D@1@AEBI@Z
pdata	ENDS
;	COMDAT pdata
pdata	SEGMENT
$pdata$?size@gli@@YAIAEBVtexture2D@1@AEBI@Z DD imagerel $LN6
	DD	imagerel $LN6+157
	DD	imagerel $unwind$?size@gli@@YAIAEBVtexture2D@1@AEBI@Z
pdata	ENDS
;	COMDAT pdata
pdata	SEGMENT
$pdata$?copy@?$_Char_traits@DH@std@@SAPEADQEADQEBD_K@Z DD imagerel $LN3
	DD	imagerel $LN3+51
	DD	imagerel $unwind$?copy@?$_Char_traits@DH@std@@SAPEADQEADQEBD_K@Z
pdata	ENDS
;	COMDAT pdata
pdata	SEGMENT
$pdata$?move@?$_Char_traits@DH@std@@SAPEADQEADQEBD_K@Z DD imagerel $LN3
	DD	imagerel $LN3+51
	DD	imagerel $unwind$?move@?$_Char_traits@DH@std@@SAPEADQEADQEBD_K@Z
pdata	ENDS
;	COMDAT pdata
pdata	SEGMENT
$pdata$?length@?$_Narrow_char_traits@DH@std@@SA_KQEBD@Z DD imagerel $LN3
	DD	imagerel $LN3+26
	DD	imagerel $unwind$?length@?$_Narrow_char_traits@DH@std@@SA_KQEBD@Z
pdata	ENDS
;	COMDAT pdata
pdata	SEGMENT
$pdata$?assign@?$_Narrow_char_traits@DH@std@@SAXAEADAEBD@Z DD imagerel $LN3
	DD	imagerel $LN3+28
	DD	imagerel $unwind$?assign@?$_Narrow_char_traits@DH@std@@SAXAEADAEBD@Z
pdata	ENDS
;	COMDAT pdata
pdata	SEGMENT
$pdata$?to_char_type@?$_Narrow_char_traits@DH@std@@SADAEBH@Z DD imagerel $LN3
	DD	imagerel $LN3+16
	DD	imagerel $unwind$?to_char_type@?$_Narrow_char_traits@DH@std@@SADAEBH@Z
pdata	ENDS
;	COMDAT pdata
pdata	SEGMENT
$pdata$?to_int_type@?$_Narrow_char_traits@DH@std@@SAHAEBD@Z DD imagerel $LN3
	DD	imagerel $LN3+16
	DD	imagerel $unwind$?to_int_type@?$_Narrow_char_traits@DH@std@@SAHAEBD@Z
pdata	ENDS
;	COMDAT pdata
pdata	SEGMENT
$pdata$?eq_int_type@?$_Narrow_char_traits@DH@std@@SA_NAEBH0@Z DD imagerel $LN5
	DD	imagerel $LN5+57
	DD	imagerel $unwind$?eq_int_type@?$_Narrow_char_traits@DH@std@@SA_NAEBH0@Z
pdata	ENDS
;	COMDAT pdata
pdata	SEGMENT
$pdata$?not_eof@?$_Narrow_char_traits@DH@std@@SAHAEBH@Z DD imagerel $LN7
	DD	imagerel $LN7+82
	DD	imagerel $unwind$?not_eof@?$_Narrow_char_traits@DH@std@@SAHAEBH@Z
pdata	ENDS
;	COMDAT pdata
pdata	SEGMENT
$pdata$?eof@?$_Narrow_char_traits@DH@std@@SAHXZ DD imagerel $LN3
	DD	imagerel $LN3+9
	DD	imagerel $unwind$?eof@?$_Narrow_char_traits@DH@std@@SAHXZ
pdata	ENDS
;	COMDAT pdata
pdata	SEGMENT
$pdata$?_Xlen_string@std@@YAXXZ DD imagerel $LN3
	DD	imagerel $LN3+24
	DD	imagerel $unwind$?_Xlen_string@std@@YAXXZ
pdata	ENDS
;	COMDAT pdata
pdata	SEGMENT
$pdata$??0?$allocator@D@std@@QEAA@XZ DD imagerel $LN3
	DD	imagerel $LN3+13
	DD	imagerel $unwind$??0?$allocator@D@std@@QEAA@XZ
pdata	ENDS
;	COMDAT pdata
pdata	SEGMENT
$pdata$?deallocate@?$allocator@D@std@@QEAAXQEAD_K@Z DD imagerel $LN13
	DD	imagerel $LN13+176
	DD	imagerel $unwind$?deallocate@?$allocator@D@std@@QEAAXQEAD_K@Z
pdata	ENDS
;	COMDAT pdata
pdata	SEGMENT
$pdata$?allocate@?$allocator@D@std@@QEAAPEAD_K@Z DD imagerel $LN3
	DD	imagerel $LN3+39
	DD	imagerel $unwind$?allocate@?$allocator@D@std@@QEAAPEAD_K@Z
pdata	ENDS
;	COMDAT pdata
pdata	SEGMENT
$pdata$?max_size@?$_Default_allocator_traits@V?$allocator@D@std@@@std@@SA_KAEBV?$allocator@D@2@@Z DD imagerel $LN3
	DD	imagerel $LN3+15
	DD	imagerel $unwind$?max_size@?$_Default_allocator_traits@V?$allocator@D@std@@@std@@SA_KAEBV?$allocator@D@2@@Z
pdata	ENDS
;	COMDAT pdata
pdata	SEGMENT
$pdata$??0?$_String_val@U?$_Simple_types@D@std@@@std@@QEAA@XZ DD imagerel $LN3
	DD	imagerel $LN3+74
	DD	imagerel $unwind$??0?$_String_val@U?$_Simple_types@D@std@@@std@@QEAA@XZ
pdata	ENDS
;	COMDAT pdata
pdata	SEGMENT
$pdata$?_Myptr@?$_String_val@U?$_Simple_types@D@std@@@std@@QEAAPEADXZ DD imagerel $LN4
	DD	imagerel $LN4+71
	DD	imagerel $unwind$?_Myptr@?$_String_val@U?$_Simple_types@D@std@@@std@@QEAAPEADXZ
pdata	ENDS
;	COMDAT pdata
pdata	SEGMENT
$pdata$?_Myptr@?$_String_val@U?$_Simple_types@D@std@@@std@@QEBAPEBDXZ DD imagerel $LN4
	DD	imagerel $LN4+71
	DD	imagerel $unwind$?_Myptr@?$_String_val@U?$_Simple_types@D@std@@@std@@QEBAPEBDXZ
pdata	ENDS
;	COMDAT pdata
pdata	SEGMENT
$pdata$?_Large_string_engaged@?$_String_val@U?$_Simple_types@D@std@@@std@@QEBA_NXZ DD imagerel $LN5
	DD	imagerel $LN5+48
	DD	imagerel $unwind$?_Large_string_engaged@?$_String_val@U?$_Simple_types@D@std@@@std@@QEBA_NXZ
pdata	ENDS
;	COMDAT pdata
pdata	SEGMENT
$pdata$?_Check_offset@?$_String_val@U?$_Simple_types@D@std@@@std@@QEBAX_K@Z DD imagerel $LN4
	DD	imagerel $LN4+42
	DD	imagerel $unwind$?_Check_offset@?$_String_val@U?$_Simple_types@D@std@@@std@@QEBAX_K@Z
pdata	ENDS
;	COMDAT pdata
pdata	SEGMENT
$pdata$?_Xran@?$_String_val@U?$_Simple_types@D@std@@@std@@SAXXZ DD imagerel $LN3
	DD	imagerel $LN3+24
	DD	imagerel $unwind$?_Xran@?$_String_val@U?$_Simple_types@D@std@@@std@@SAXXZ
pdata	ENDS
;	COMDAT pdata
pdata	SEGMENT
$pdata$?_Clamp_suffix_size@?$_String_val@U?$_Simple_types@D@std@@@std@@QEBA_K_K0@Z DD imagerel $LN3
	DD	imagerel $LN3+66
	DD	imagerel $unwind$?_Clamp_suffix_size@?$_String_val@U?$_Simple_types@D@std@@@std@@QEBA_K_K0@Z
pdata	ENDS
;	COMDAT pdata
pdata	SEGMENT
$pdata$??0_Bxty@?$_String_val@U?$_Simple_types@D@std@@@std@@QEAA@XZ DD imagerel $LN3
	DD	imagerel $LN3+25
	DD	imagerel $unwind$??0_Bxty@?$_String_val@U?$_Simple_types@D@std@@@std@@QEAA@XZ
pdata	ENDS
;	COMDAT pdata
pdata	SEGMENT
$pdata$??1_Bxty@?$_String_val@U?$_Simple_types@D@std@@@std@@QEAA@XZ DD imagerel $LN3
	DD	imagerel $LN3+8
	DD	imagerel $unwind$??1_Bxty@?$_String_val@U?$_Simple_types@D@std@@@std@@QEAA@XZ
pdata	ENDS
;	COMDAT pdata
pdata	SEGMENT
$pdata$??1?$_String_val@U?$_Simple_types@D@std@@@std@@QEAA@XZ DD imagerel $LN3
	DD	imagerel $LN3+33
	DD	imagerel $unwind$??1?$_String_val@U?$_Simple_types@D@std@@@std@@QEAA@XZ
pdata	ENDS
;	COMDAT pdata
pdata	SEGMENT
$pdata$??0?$basic_string@DU?$char_traits@D@std@@V?$allocator@D@2@@std@@QEAA@XZ DD imagerel $LN3
	DD	imagerel $LN3+85
	DD	imagerel $unwind$??0?$basic_string@DU?$char_traits@D@std@@V?$allocator@D@2@@std@@QEAA@XZ
pdata	ENDS
;	COMDAT pdata
pdata	SEGMENT
$pdata$??0?$basic_string@DU?$char_traits@D@std@@V?$allocator@D@2@@std@@QEAA@QEBD@Z DD imagerel $LN5
	DD	imagerel $LN5+222
	DD	imagerel $unwind$??0?$basic_string@DU?$char_traits@D@std@@V?$allocator@D@2@@std@@QEAA@QEBD@Z
pdata	ENDS
;	COMDAT pdata
pdata	SEGMENT
$pdata$?dtor$0@?0???0?$basic_string@DU?$char_traits@D@std@@V?$allocator@D@2@@std@@QEAA@QEBD@Z@4HA DD imagerel ?dtor$0@?0???0?$basic_string@DU?$char_traits@D@std@@V?$allocator@D@2@@std@@QEAA@QEBD@Z@4HA
	DD	imagerel ?dtor$0@?0???0?$basic_string@DU?$char_traits@D@std@@V?$allocator@D@2@@std@@QEAA@QEBD@Z@4HA+38
	DD	imagerel $unwind$?dtor$0@?0???0?$basic_string@DU?$char_traits@D@std@@V?$allocator@D@2@@std@@QEAA@QEBD@Z@4HA
pdata	ENDS
;	COMDAT pdata
pdata	SEGMENT
$pdata$?dtor$1@?0???0?$basic_string@DU?$char_traits@D@std@@V?$allocator@D@2@@std@@QEAA@QEBD@Z@4HA DD imagerel ?dtor$1@?0???0?$basic_string@DU?$char_traits@D@std@@V?$allocator@D@2@@std@@QEAA@QEBD@Z@4HA
	DD	imagerel ?dtor$1@?0???0?$basic_string@DU?$char_traits@D@std@@V?$allocator@D@2@@std@@QEAA@QEBD@Z@4HA+35
	DD	imagerel $unwind$?dtor$1@?0???0?$basic_string@DU?$char_traits@D@std@@V?$allocator@D@2@@std@@QEAA@QEBD@Z@4HA
pdata	ENDS
;	COMDAT pdata
pdata	SEGMENT
$pdata$??1?$basic_string@DU?$char_traits@D@std@@V?$allocator@D@2@@std@@QEAA@XZ DD imagerel $LN3
	DD	imagerel $LN3+149
	DD	imagerel $unwind$??1?$basic_string@DU?$char_traits@D@std@@V?$allocator@D@2@@std@@QEAA@XZ
pdata	ENDS
;	COMDAT pdata
pdata	SEGMENT
$pdata$?assign@?$basic_string@DU?$char_traits@D@std@@V?$allocator@D@2@@std@@QEAAAEAV12@QEBD_K@Z DD imagerel $LN4
	DD	imagerel $LN4+178
	DD	imagerel $unwind$?assign@?$basic_string@DU?$char_traits@D@std@@V?$allocator@D@2@@std@@QEAAAEAV12@QEBD_K@Z
pdata	ENDS
;	COMDAT pdata
pdata	SEGMENT
$pdata$?assign@?$basic_string@DU?$char_traits@D@std@@V?$allocator@D@2@@std@@QEAAAEAV12@QEBD@Z DD imagerel $LN3
	DD	imagerel $LN3+57
	DD	imagerel $unwind$?assign@?$basic_string@DU?$char_traits@D@std@@V?$allocator@D@2@@std@@QEAAAEAV12@QEBD@Z
pdata	ENDS
;	COMDAT pdata
pdata	SEGMENT
$pdata$?_Erase_noexcept@?$basic_string@DU?$char_traits@D@std@@V?$allocator@D@2@@std@@AEAAAEAV12@_K_K@Z DD imagerel $LN3
	DD	imagerel $LN3+198
	DD	imagerel $unwind$?_Erase_noexcept@?$basic_string@DU?$char_traits@D@std@@V?$allocator@D@2@@std@@AEAAAEAV12@_K_K@Z
pdata	ENDS
;	COMDAT pdata
pdata	SEGMENT
$pdata$?erase@?$basic_string@DU?$char_traits@D@std@@V?$allocator@D@2@@std@@QEAAAEAV12@_K0@Z DD imagerel $LN3
	DD	imagerel $LN3+64
	DD	imagerel $unwind$?erase@?$basic_string@DU?$char_traits@D@std@@V?$allocator@D@2@@std@@QEAAAEAV12@_K0@Z
pdata	ENDS
;	COMDAT pdata
pdata	SEGMENT
$pdata$?push_back@?$basic_string@DU?$char_traits@D@std@@V?$allocator@D@2@@std@@QEAAXD@Z DD imagerel $LN4
	DD	imagerel $LN4+193
	DD	imagerel $unwind$?push_back@?$basic_string@DU?$char_traits@D@std@@V?$allocator@D@2@@std@@QEAAXD@Z
pdata	ENDS
;	COMDAT pdata
pdata	SEGMENT
$pdata$?front@?$basic_string@DU?$char_traits@D@std@@V?$allocator@D@2@@std@@QEAAAEADXZ DD imagerel $LN12
	DD	imagerel $LN12+168
	DD	imagerel $unwind$?front@?$basic_string@DU?$char_traits@D@std@@V?$allocator@D@2@@std@@QEAAAEADXZ
pdata	ENDS
;	COMDAT pdata
pdata	SEGMENT
$pdata$?c_str@?$basic_string@DU?$char_traits@D@std@@V?$allocator@D@2@@std@@QEBAPEBDXZ DD imagerel $LN3
	DD	imagerel $LN3+29
	DD	imagerel $unwind$?c_str@?$basic_string@DU?$char_traits@D@std@@V?$allocator@D@2@@std@@QEBAPEBDXZ
pdata	ENDS
;	COMDAT pdata
pdata	SEGMENT
$pdata$?data@?$basic_string@DU?$char_traits@D@std@@V?$allocator@D@2@@std@@QEBAPEBDXZ DD imagerel $LN3
	DD	imagerel $LN3+29
	DD	imagerel $unwind$?data@?$basic_string@DU?$char_traits@D@std@@V?$allocator@D@2@@std@@QEBAPEBDXZ
pdata	ENDS
;	COMDAT pdata
pdata	SEGMENT
$pdata$?size@?$basic_string@DU?$char_traits@D@std@@V?$allocator@D@2@@std@@QEBA_KXZ DD imagerel $LN3
	DD	imagerel $LN3+17
	DD	imagerel $unwind$?size@?$basic_string@DU?$char_traits@D@std@@V?$allocator@D@2@@std@@QEBA_KXZ
pdata	ENDS
;	COMDAT pdata
pdata	SEGMENT
$pdata$?max_size@?$basic_string@DU?$char_traits@D@std@@V?$allocator@D@2@@std@@QEBA_KXZ DD imagerel $LN3
	DD	imagerel $LN3+155
	DD	imagerel $unwind$?max_size@?$basic_string@DU?$char_traits@D@std@@V?$allocator@D@2@@std@@QEBA_KXZ
pdata	ENDS
;	COMDAT pdata
pdata	SEGMENT
$pdata$?_Calculate_growth@?$basic_string@DU?$char_traits@D@std@@V?$allocator@D@2@@std@@CA_K_K00@Z DD imagerel $LN5
	DD	imagerel $LN5+191
	DD	imagerel $unwind$?_Calculate_growth@?$basic_string@DU?$char_traits@D@std@@V?$allocator@D@2@@std@@CA_K_K00@Z
pdata	ENDS
;	COMDAT pdata
pdata	SEGMENT
$pdata$?_Calculate_growth@?$basic_string@DU?$char_traits@D@std@@V?$allocator@D@2@@std@@AEBA_K_K@Z DD imagerel $LN3
	DD	imagerel $LN3+53
	DD	imagerel $unwind$?_Calculate_growth@?$basic_string@DU?$char_traits@D@std@@V?$allocator@D@2@@std@@AEBA_K_K@Z
pdata	ENDS
;	COMDAT pdata
pdata	SEGMENT
$pdata$?_Tidy_init@?$basic_string@DU?$char_traits@D@std@@V?$allocator@D@2@@std@@AEAAXXZ DD imagerel $LN3
	DD	imagerel $LN3+89
	DD	imagerel $unwind$?_Tidy_init@?$basic_string@DU?$char_traits@D@std@@V?$allocator@D@2@@std@@AEAAXXZ
pdata	ENDS
;	COMDAT pdata
pdata	SEGMENT
$pdata$?_Tidy_deallocate@?$basic_string@DU?$char_traits@D@std@@V?$allocator@D@2@@std@@AEAAXXZ DD imagerel $LN4
	DD	imagerel $LN4+189
	DD	imagerel $unwind$?_Tidy_deallocate@?$basic_string@DU?$char_traits@D@std@@V?$allocator@D@2@@std@@AEAAXXZ
pdata	ENDS
;	COMDAT pdata
pdata	SEGMENT
$pdata$?_Getal@?$basic_string@DU?$char_traits@D@std@@V?$allocator@D@2@@std@@AEAAAEAV?$allocator@D@2@XZ DD imagerel $LN3
	DD	imagerel $LN3+29
	DD	imagerel $unwind$?_Getal@?$basic_string@DU?$char_traits@D@std@@V?$allocator@D@2@@std@@AEAAAEAV?$allocator@D@2@XZ
pdata	ENDS
;	COMDAT pdata
pdata	SEGMENT
$pdata$?_Getal@?$basic_string@DU?$char_traits@D@std@@V?$allocator@D@2@@std@@AEBAAEBV?$allocator@D@2@XZ DD imagerel $LN3
	DD	imagerel $LN3+29
	DD	imagerel $unwind$?_Getal@?$basic_string@DU?$char_traits@D@std@@V?$allocator@D@2@@std@@AEBAAEBV?$allocator@D@2@XZ
pdata	ENDS
;	COMDAT pdata
pdata	SEGMENT
$pdata$?_Get_first@?$_Compressed_pair@V?$allocator@D@std@@V?$_String_val@U?$_Simple_types@D@std@@@2@$00@std@@QEAAAEAV?$allocator@D@2@XZ DD imagerel $LN3
	DD	imagerel $LN3+13
	DD	imagerel $unwind$?_Get_first@?$_Compressed_pair@V?$allocator@D@std@@V?$_String_val@U?$_Simple_types@D@std@@@2@$00@std@@QEAAAEAV?$allocator@D@2@XZ
pdata	ENDS
;	COMDAT pdata
pdata	SEGMENT
$pdata$?_Get_first@?$_Compressed_pair@V?$allocator@D@std@@V?$_String_val@U?$_Simple_types@D@std@@@2@$00@std@@QEBAAEBV?$allocator@D@2@XZ DD imagerel $LN3
	DD	imagerel $LN3+13
	DD	imagerel $unwind$?_Get_first@?$_Compressed_pair@V?$allocator@D@std@@V?$_String_val@U?$_Simple_types@D@std@@@2@$00@std@@QEBAAEBV?$allocator@D@2@XZ
pdata	ENDS
;	COMDAT pdata
pdata	SEGMENT
$pdata$??1?$_Compressed_pair@V?$allocator@D@std@@V?$_String_val@U?$_Simple_types@D@std@@@2@$00@std@@QEAA@XZ DD imagerel $LN3
	DD	imagerel $LN3+29
	DD	imagerel $unwind$??1?$_Compressed_pair@V?$allocator@D@std@@V?$_String_val@U?$_Simple_types@D@std@@@2@$00@std@@QEAA@XZ
pdata	ENDS
;	COMDAT pdata
pdata	SEGMENT
$pdata$??0bad_cast@std@@QEAA@XZ DD imagerel $LN3
	DD	imagerel $LN3+59
	DD	imagerel $unwind$??0bad_cast@std@@QEAA@XZ
pdata	ENDS
;	COMDAT pdata
pdata	SEGMENT
$pdata$??1bad_cast@std@@UEAA@XZ DD imagerel $LN3
	DD	imagerel $LN3+26
	DD	imagerel $unwind$??1bad_cast@std@@UEAA@XZ
pdata	ENDS
;	COMDAT pdata
pdata	SEGMENT
$pdata$??0bad_cast@std@@QEAA@AEBV01@@Z DD imagerel $LN3
	DD	imagerel $LN3+56
	DD	imagerel $unwind$??0bad_cast@std@@QEAA@AEBV01@@Z
pdata	ENDS
;	COMDAT pdata
pdata	SEGMENT
$pdata$??_Gbad_cast@std@@UEAAPEAXI@Z DD imagerel $LN4
	DD	imagerel $LN4+61
	DD	imagerel $unwind$??_Gbad_cast@std@@UEAAPEAXI@Z
pdata	ENDS
;	COMDAT pdata
pdata	SEGMENT
$pdata$?_Throw_bad_cast@std@@YAXXZ DD imagerel $LN3
	DD	imagerel $LN3+39
	DD	imagerel $unwind$?_Throw_bad_cast@std@@YAXXZ
pdata	ENDS
;	COMDAT pdata
pdata	SEGMENT
$pdata$??1locale@std@@QEAA@XZ DD imagerel $LN6
	DD	imagerel $LN6+101
	DD	imagerel $unwind$??1locale@std@@QEAA@XZ
pdata	ENDS
;	COMDAT pdata
pdata	SEGMENT
$pdata$?_Getfacet@locale@std@@QEBAPEBVfacet@12@_K@Z DD imagerel $LN8
	DD	imagerel $LN8+169
	DD	imagerel $unwind$?_Getfacet@locale@std@@QEBAPEBVfacet@12@_K@Z
pdata	ENDS
;	COMDAT pdata
pdata	SEGMENT
$pdata$??$_Fgetc@D@std@@YA_NAEADPEAU_iobuf@@@Z DD imagerel $LN5
	DD	imagerel $LN5+63
	DD	imagerel $unwind$??$_Fgetc@D@std@@YA_NAEADPEAU_iobuf@@@Z
pdata	ENDS
;	COMDAT pdata
pdata	SEGMENT
$pdata$??$_Fputc@D@std@@YA_NDPEAU_iobuf@@@Z DD imagerel $LN5
	DD	imagerel $LN5+66
	DD	imagerel $unwind$??$_Fputc@D@std@@YA_NDPEAU_iobuf@@@Z
pdata	ENDS
;	COMDAT pdata
pdata	SEGMENT
$pdata$??$_Ungetc@D@std@@YA_NAEBDPEAU_iobuf@@@Z DD imagerel $LN5
	DD	imagerel $LN5+70
	DD	imagerel $unwind$??$_Ungetc@D@std@@YA_NAEBDPEAU_iobuf@@@Z
pdata	ENDS
;	COMDAT pdata
pdata	SEGMENT
$pdata$?saveDDS9@loader_dds9@gtx@gli@@YAXAEBVtexture2D@3@AEBV?$basic_string@DU?$char_traits@D@std@@V?$allocator@D@2@@std@@@Z DD imagerel $LN18
	DD	imagerel $LN18+1102
	DD	imagerel $unwind$?saveDDS9@loader_dds9@gtx@gli@@YAXAEBVtexture2D@3@AEBV?$basic_string@DU?$char_traits@D@std@@V?$allocator@D@2@@std@@@Z
pdata	ENDS
;	COMDAT pdata
pdata	SEGMENT
$pdata$?dtor$0@?0??saveDDS9@loader_dds9@gtx@gli@@YAXAEBVtexture2D@3@AEBV?$basic_string@DU?$char_traits@D@std@@V?$allocator@D@2@@std@@@Z@4HA DD imagerel ?dtor$0@?0??saveDDS9@loader_dds9@gtx@gli@@YAXAEBVtexture2D@3@AEBV?$basic_string@DU?$char_traits@D@std@@V?$allocator@D@2@@std@@@Z@4HA
	DD	imagerel ?dtor$0@?0??saveDDS9@loader_dds9@gtx@gli@@YAXAEBVtexture2D@3@AEBV?$basic_string@DU?$char_traits@D@std@@V?$allocator@D@2@@std@@@Z@4HA+35
	DD	imagerel $unwind$?dtor$0@?0??saveDDS9@loader_dds9@gtx@gli@@YAXAEBVtexture2D@3@AEBV?$basic_string@DU?$char_traits@D@std@@V?$allocator@D@2@@std@@@Z@4HA
pdata	ENDS
;	COMDAT pdata
pdata	SEGMENT
$pdata$?getFormatFourCC@detail@loader_dds9@gtx@gli@@YAIAEBVtexture2D@4@@Z DD imagerel $LN23
	DD	imagerel $LN23+260
	DD	imagerel $unwind$?getFormatFourCC@detail@loader_dds9@gtx@gli@@YAIAEBVtexture2D@4@@Z
pdata	ENDS
;	COMDAT pdata
pdata	SEGMENT
$pdata$?getFormatFlags@detail@loader_dds9@gtx@gli@@YAIAEBVtexture2D@4@@Z DD imagerel $LN60
	DD	imagerel $LN60+324
	DD	imagerel $unwind$?getFormatFlags@detail@loader_dds9@gtx@gli@@YAIAEBVtexture2D@4@@Z
pdata	ENDS
;	COMDAT pdata
pdata	SEGMENT
$pdata$?getFormatBPP@detail@loader_dds9@gtx@gli@@YAIAEBVtexture2D@4@@Z DD imagerel $LN26
	DD	imagerel $LN26+289
	DD	imagerel $unwind$?getFormatBPP@detail@loader_dds9@gtx@gli@@YAIAEBVtexture2D@4@@Z
pdata	ENDS
;	COMDAT pdata
pdata	SEGMENT
$pdata$?isCompressed@detail@loader_dds9@gtx@gli@@YA_NAEBVtexture2D@4@@Z DD imagerel $LN17
	DD	imagerel $LN17+124
	DD	imagerel $unwind$?isCompressed@detail@loader_dds9@gtx@gli@@YA_NAEBVtexture2D@4@@Z
pdata	ENDS
;	COMDAT pdata
pdata	SEGMENT
$pdata$??0?$basic_filebuf@DU?$char_traits@D@std@@@std@@QEAA@XZ DD imagerel $LN4
	DD	imagerel $LN4+64
	DD	imagerel $unwind$??0?$basic_filebuf@DU?$char_traits@D@std@@@std@@QEAA@XZ
pdata	ENDS
;	COMDAT pdata
pdata	SEGMENT
$pdata$?dtor$0@?0???0?$basic_filebuf@DU?$char_traits@D@std@@@std@@QEAA@XZ@4HA DD imagerel ?dtor$0@?0???0?$basic_filebuf@DU?$char_traits@D@std@@@std@@QEAA@XZ@4HA
	DD	imagerel ?dtor$0@?0???0?$basic_filebuf@DU?$char_traits@D@std@@@std@@QEAA@XZ@4HA+36
	DD	imagerel $unwind$?dtor$0@?0???0?$basic_filebuf@DU?$char_traits@D@std@@@std@@QEAA@XZ@4HA
pdata	ENDS
;	COMDAT pdata
pdata	SEGMENT
$pdata$??1?$basic_filebuf@DU?$char_traits@D@std@@@std@@UEAA@XZ DD imagerel $LN5
	DD	imagerel $LN5+91
	DD	imagerel $unwind$??1?$basic_filebuf@DU?$char_traits@D@std@@@std@@UEAA@XZ
pdata	ENDS
;	COMDAT pdata
pdata	SEGMENT
$pdata$?open@?$basic_filebuf@DU?$char_traits@D@std@@@std@@QEAAPEAV12@PEBDHH@Z DD imagerel $LN6
	DD	imagerel $LN6+177
	DD	imagerel $unwind$?open@?$basic_filebuf@DU?$char_traits@D@std@@@std@@QEAAPEAV12@PEBDHH@Z
pdata	ENDS
;	COMDAT pdata
pdata	SEGMENT
$pdata$?dtor$0@?0??open@?$basic_filebuf@DU?$char_traits@D@std@@@std@@QEAAPEAV12@PEBDHH@Z@4HA DD imagerel ?dtor$0@?0??open@?$basic_filebuf@DU?$char_traits@D@std@@@std@@QEAAPEAV12@PEBDHH@Z@4HA
	DD	imagerel ?dtor$0@?0??open@?$basic_filebuf@DU?$char_traits@D@std@@@std@@QEAAPEAV12@PEBDHH@Z@4HA+35
	DD	imagerel $unwind$?dtor$0@?0??open@?$basic_filebuf@DU?$char_traits@D@std@@@std@@QEAAPEAV12@PEBDHH@Z@4HA
pdata	ENDS
;	COMDAT pdata
pdata	SEGMENT
$pdata$?close@?$basic_filebuf@DU?$char_traits@D@std@@@std@@QEAAPEAV12@XZ DD imagerel $LN7
	DD	imagerel $LN7+142
	DD	imagerel $unwind$?close@?$basic_filebuf@DU?$char_traits@D@std@@@std@@QEAAPEAV12@XZ
pdata	ENDS
;	COMDAT pdata
pdata	SEGMENT
$pdata$?_Lock@?$basic_filebuf@DU?$char_traits@D@std@@@std@@UEAAXXZ DD imagerel $LN4
	DD	imagerel $LN4+49
	DD	imagerel $unwind$?_Lock@?$basic_filebuf@DU?$char_traits@D@std@@@std@@UEAAXXZ
pdata	ENDS
;	COMDAT pdata
pdata	SEGMENT
$pdata$?_Unlock@?$basic_filebuf@DU?$char_traits@D@std@@@std@@UEAAXXZ DD imagerel $LN4
	DD	imagerel $LN4+49
	DD	imagerel $unwind$?_Unlock@?$basic_filebuf@DU?$char_traits@D@std@@@std@@UEAAXXZ
pdata	ENDS
;	COMDAT pdata
pdata	SEGMENT
$pdata$?overflow@?$basic_filebuf@DU?$char_traits@D@std@@@std@@MEAAHH@Z DD imagerel $LN19
	DD	imagerel $LN19+814
	DD	imagerel $unwind$?overflow@?$basic_filebuf@DU?$char_traits@D@std@@@std@@MEAAHH@Z
pdata	ENDS
;	COMDAT pdata
pdata	SEGMENT
$pdata$?pbackfail@?$basic_filebuf@DU?$char_traits@D@std@@@std@@MEAAHH@Z DD imagerel $LN13
	DD	imagerel $LN13+386
	DD	imagerel $unwind$?pbackfail@?$basic_filebuf@DU?$char_traits@D@std@@@std@@MEAAHH@Z
pdata	ENDS
;	COMDAT pdata
pdata	SEGMENT
$pdata$?underflow@?$basic_filebuf@DU?$char_traits@D@std@@@std@@MEAAHXZ DD imagerel $LN7
	DD	imagerel $LN7+218
	DD	imagerel $unwind$?underflow@?$basic_filebuf@DU?$char_traits@D@std@@@std@@MEAAHXZ
pdata	ENDS
;	COMDAT pdata
pdata	SEGMENT
$pdata$?uflow@?$basic_filebuf@DU?$char_traits@D@std@@@std@@MEAAHXZ DD imagerel $LN22
	DD	imagerel $LN22+976
	DD	imagerel $unwind$?uflow@?$basic_filebuf@DU?$char_traits@D@std@@@std@@MEAAHXZ
pdata	ENDS
;	COMDAT pdata
pdata	SEGMENT
$pdata$?dtor$0@?0??uflow@?$basic_filebuf@DU?$char_traits@D@std@@@std@@MEAAHXZ@4HA DD imagerel ?dtor$0@?0??uflow@?$basic_filebuf@DU?$char_traits@D@std@@@std@@MEAAHXZ@4HA
	DD	imagerel ?dtor$0@?0??uflow@?$basic_filebuf@DU?$char_traits@D@std@@@std@@MEAAHXZ@4HA+35
	DD	imagerel $unwind$?dtor$0@?0??uflow@?$basic_filebuf@DU?$char_traits@D@std@@@std@@MEAAHXZ@4HA
pdata	ENDS
;	COMDAT pdata
pdata	SEGMENT
$pdata$?xsgetn@?$basic_filebuf@DU?$char_traits@D@std@@@std@@MEAA_JPEAD_J@Z DD imagerel $LN11
	DD	imagerel $LN11+578
	DD	imagerel $unwind$?xsgetn@?$basic_filebuf@DU?$char_traits@D@std@@@std@@MEAA_JPEAD_J@Z
pdata	ENDS
;	COMDAT pdata
pdata	SEGMENT
$pdata$?xsputn@?$basic_filebuf@DU?$char_traits@D@std@@@std@@MEAA_JPEBD_J@Z DD imagerel $LN7
	DD	imagerel $LN7+302
	DD	imagerel $unwind$?xsputn@?$basic_filebuf@DU?$char_traits@D@std@@@std@@MEAA_JPEBD_J@Z
pdata	ENDS
;	COMDAT pdata
pdata	SEGMENT
$pdata$?seekoff@?$basic_filebuf@DU?$char_traits@D@std@@@std@@MEAA?AV?$fpos@U_Mbstatet@@@2@_JHH@Z DD imagerel $LN8
	DD	imagerel $LN8+300
	DD	imagerel $unwind$?seekoff@?$basic_filebuf@DU?$char_traits@D@std@@@std@@MEAA?AV?$fpos@U_Mbstatet@@@2@_JHH@Z
pdata	ENDS
;	COMDAT pdata
pdata	SEGMENT
$pdata$?seekpos@?$basic_filebuf@DU?$char_traits@D@std@@@std@@MEAA?AV?$fpos@U_Mbstatet@@@2@V32@H@Z DD imagerel $LN5
	DD	imagerel $LN5+238
	DD	imagerel $unwind$?seekpos@?$basic_filebuf@DU?$char_traits@D@std@@@std@@MEAA?AV?$fpos@U_Mbstatet@@@2@V32@H@Z
pdata	ENDS
;	COMDAT pdata
pdata	SEGMENT
$pdata$?setbuf@?$basic_filebuf@DU?$char_traits@D@std@@@std@@MEAAPEAV?$basic_streambuf@DU?$char_traits@D@std@@@2@PEAD_J@Z DD imagerel $LN7
	DD	imagerel $LN7+159
	DD	imagerel $unwind$?setbuf@?$basic_filebuf@DU?$char_traits@D@std@@@std@@MEAAPEAV?$basic_streambuf@DU?$char_traits@D@std@@@2@PEAD_J@Z
pdata	ENDS
;	COMDAT pdata
pdata	SEGMENT
$pdata$?sync@?$basic_filebuf@DU?$char_traits@D@std@@@std@@MEAAHXZ DD imagerel $LN5
	DD	imagerel $LN5+130
	DD	imagerel $unwind$?sync@?$basic_filebuf@DU?$char_traits@D@std@@@std@@MEAAHXZ
pdata	ENDS
;	COMDAT pdata
pdata	SEGMENT
$pdata$?imbue@?$basic_filebuf@DU?$char_traits@D@std@@@std@@MEAAXAEBVlocale@2@@Z DD imagerel $LN3
	DD	imagerel $LN3+44
	DD	imagerel $unwind$?imbue@?$basic_filebuf@DU?$char_traits@D@std@@@std@@MEAAXAEBVlocale@2@@Z
pdata	ENDS
;	COMDAT pdata
pdata	SEGMENT
$pdata$?_Init@?$basic_filebuf@DU?$char_traits@D@std@@@std@@IEAAXPEAU_iobuf@@W4_Initfl@12@@Z DD imagerel $LN6
	DD	imagerel $LN6+378
	DD	imagerel $unwind$?_Init@?$basic_filebuf@DU?$char_traits@D@std@@@std@@IEAAXPEAU_iobuf@@W4_Initfl@12@@Z
pdata	ENDS
;	COMDAT pdata
pdata	SEGMENT
$pdata$?_Endwrite@?$basic_filebuf@DU?$char_traits@D@std@@@std@@IEAA_NXZ DD imagerel $LN15
	DD	imagerel $LN15+524
	DD	imagerel $unwind$?_Endwrite@?$basic_filebuf@DU?$char_traits@D@std@@@std@@IEAA_NXZ
pdata	ENDS
;	COMDAT pdata
pdata	SEGMENT
$pdata$?_Initcvt@?$basic_filebuf@DU?$char_traits@D@std@@@std@@IEAAXAEBV?$codecvt@DDU_Mbstatet@@@2@@Z DD imagerel $LN5
	DD	imagerel $LN5+84
	DD	imagerel $unwind$?_Initcvt@?$basic_filebuf@DU?$char_traits@D@std@@@std@@IEAAXAEBV?$codecvt@DDU_Mbstatet@@@2@@Z
pdata	ENDS
;	COMDAT pdata
pdata	SEGMENT
$pdata$?_Reset_back@?$basic_filebuf@DU?$char_traits@D@std@@@std@@AEAAXXZ DD imagerel $LN4
	DD	imagerel $LN4+88
	DD	imagerel $unwind$?_Reset_back@?$basic_filebuf@DU?$char_traits@D@std@@@std@@AEAAXXZ
pdata	ENDS
;	COMDAT pdata
pdata	SEGMENT
$pdata$?_Set_back@?$basic_filebuf@DU?$char_traits@D@std@@@std@@AEAAXXZ DD imagerel $LN4
	DD	imagerel $LN4+131
	DD	imagerel $unwind$?_Set_back@?$basic_filebuf@DU?$char_traits@D@std@@@std@@AEAAXXZ
pdata	ENDS
;	COMDAT pdata
pdata	SEGMENT
$pdata$??_G?$basic_filebuf@DU?$char_traits@D@std@@@std@@UEAAPEAXI@Z DD imagerel $LN4
	DD	imagerel $LN4+61
	DD	imagerel $unwind$??_G?$basic_filebuf@DU?$char_traits@D@std@@@std@@UEAAPEAXI@Z
pdata	ENDS
;	COMDAT pdata
pdata	SEGMENT
$pdata$??0?$fpos@U_Mbstatet@@@std@@QEAA@_J@Z DD imagerel $LN3
	DD	imagerel $LN3+65
	DD	imagerel $unwind$??0?$fpos@U_Mbstatet@@@std@@QEAA@_J@Z
pdata	ENDS
;	COMDAT pdata
pdata	SEGMENT
$pdata$??0?$fpos@U_Mbstatet@@@std@@QEAA@U_Mbstatet@@_J@Z DD imagerel $LN3
	DD	imagerel $LN3+63
	DD	imagerel $unwind$??0?$fpos@U_Mbstatet@@@std@@QEAA@U_Mbstatet@@_J@Z
pdata	ENDS
;	COMDAT pdata
pdata	SEGMENT
$pdata$?state@?$fpos@U_Mbstatet@@@std@@QEBA?AU_Mbstatet@@XZ DD imagerel $LN3
	DD	imagerel $LN3+35
	DD	imagerel $unwind$?state@?$fpos@U_Mbstatet@@@std@@QEBA?AU_Mbstatet@@XZ
pdata	ENDS
;	COMDAT pdata
pdata	SEGMENT
$pdata$??B?$fpos@U_Mbstatet@@@std@@QEBA_JXZ DD imagerel $LN3
	DD	imagerel $LN3+25
	DD	imagerel $unwind$??B?$fpos@U_Mbstatet@@@std@@QEBA_JXZ
pdata	ENDS
;	COMDAT pdata
pdata	SEGMENT
$pdata$??0?$basic_ofstream@DU?$char_traits@D@std@@@std@@QEAA@PEBDHH@Z DD imagerel $LN9
	DD	imagerel $LN9+301
	DD	imagerel $unwind$??0?$basic_ofstream@DU?$char_traits@D@std@@@std@@QEAA@PEBDHH@Z
pdata	ENDS
;	COMDAT pdata
pdata	SEGMENT
$pdata$?dtor$0@?0???0?$basic_ofstream@DU?$char_traits@D@std@@@std@@QEAA@PEBDHH@Z@4HA DD imagerel ?dtor$0@?0???0?$basic_ofstream@DU?$char_traits@D@std@@@std@@QEAA@PEBDHH@Z@4HA
	DD	imagerel ?dtor$0@?0???0?$basic_ofstream@DU?$char_traits@D@std@@@std@@QEAA@PEBDHH@Z@4HA+57
	DD	imagerel $unwind$?dtor$0@?0???0?$basic_ofstream@DU?$char_traits@D@std@@@std@@QEAA@PEBDHH@Z@4HA
pdata	ENDS
;	COMDAT pdata
pdata	SEGMENT
$pdata$?dtor$1@?0???0?$basic_ofstream@DU?$char_traits@D@std@@@std@@QEAA@PEBDHH@Z@4HA DD imagerel ?dtor$1@?0???0?$basic_ofstream@DU?$char_traits@D@std@@@std@@QEAA@PEBDHH@Z@4HA
	DD	imagerel ?dtor$1@?0???0?$basic_ofstream@DU?$char_traits@D@std@@@std@@QEAA@PEBDHH@Z@4HA+40
	DD	imagerel $unwind$?dtor$1@?0???0?$basic_ofstream@DU?$char_traits@D@std@@@std@@QEAA@PEBDHH@Z@4HA
pdata	ENDS
;	COMDAT pdata
pdata	SEGMENT
$pdata$?dtor$2@?0???0?$basic_ofstream@DU?$char_traits@D@std@@@std@@QEAA@PEBDHH@Z@4HA DD imagerel ?dtor$2@?0???0?$basic_ofstream@DU?$char_traits@D@std@@@std@@QEAA@PEBDHH@Z@4HA
	DD	imagerel ?dtor$2@?0???0?$basic_ofstream@DU?$char_traits@D@std@@@std@@QEAA@PEBDHH@Z@4HA+39
	DD	imagerel $unwind$?dtor$2@?0???0?$basic_ofstream@DU?$char_traits@D@std@@@std@@QEAA@PEBDHH@Z@4HA
pdata	ENDS
;	COMDAT pdata
pdata	SEGMENT
$pdata$??1?$basic_ofstream@DU?$char_traits@D@std@@@std@@UEAA@XZ DD imagerel $LN3
	DD	imagerel $LN3+141
	DD	imagerel $unwind$??1?$basic_ofstream@DU?$char_traits@D@std@@@std@@UEAA@XZ
pdata	ENDS
;	COMDAT pdata
pdata	SEGMENT
$pdata$?close@?$basic_ofstream@DU?$char_traits@D@std@@@std@@QEAAXXZ DD imagerel $LN4
	DD	imagerel $LN4+78
	DD	imagerel $unwind$?close@?$basic_ofstream@DU?$char_traits@D@std@@@std@@QEAAXXZ
pdata	ENDS
;	COMDAT pdata
pdata	SEGMENT
$pdata$??_G?$basic_ofstream@DU?$char_traits@D@std@@@std@@UEAAPEAXI@Z DD imagerel $LN4
	DD	imagerel $LN4+85
	DD	imagerel $unwind$??_G?$basic_ofstream@DU?$char_traits@D@std@@@std@@UEAAPEAXI@Z
pdata	ENDS
;	COMDAT pdata
pdata	SEGMENT
$pdata$??_D?$basic_ofstream@DU?$char_traits@D@std@@@std@@QEAAXXZ DD imagerel $LN3
	DD	imagerel $LN3+55
	DD	imagerel $unwind$??_D?$basic_ofstream@DU?$char_traits@D@std@@@std@@QEAAXXZ
pdata	ENDS
pdata	SEGMENT
$pdata$?test_simplex@@YAHXZ DD imagerel $LN45
	DD	imagerel $LN45+2868
	DD	imagerel $unwind$?test_simplex@@YAHXZ
pdata	ENDS
pdata	SEGMENT
$pdata$?dtor$0@?0??test_simplex@@YAHXZ@4HA DD imagerel ?dtor$0@?0??test_simplex@@YAHXZ@4HA
	DD	imagerel ?dtor$0@?0??test_simplex@@YAHXZ@4HA+35
	DD	imagerel $unwind$?dtor$0@?0??test_simplex@@YAHXZ@4HA
$pdata$?dtor$1@?0??test_simplex@@YAHXZ@4HA DD imagerel ?dtor$1@?0??test_simplex@@YAHXZ@4HA
	DD	imagerel ?dtor$1@?0??test_simplex@@YAHXZ@4HA+38
	DD	imagerel $unwind$?dtor$1@?0??test_simplex@@YAHXZ@4HA
$pdata$?dtor$2@?0??test_simplex@@YAHXZ@4HA DD imagerel ?dtor$2@?0??test_simplex@@YAHXZ@4HA
	DD	imagerel ?dtor$2@?0??test_simplex@@YAHXZ@4HA+38
	DD	imagerel $unwind$?dtor$2@?0??test_simplex@@YAHXZ@4HA
$pdata$?dtor$3@?0??test_simplex@@YAHXZ@4HA DD imagerel ?dtor$3@?0??test_simplex@@YAHXZ@4HA
	DD	imagerel ?dtor$3@?0??test_simplex@@YAHXZ@4HA+38
	DD	imagerel $unwind$?dtor$3@?0??test_simplex@@YAHXZ@4HA
$pdata$?dtor$4@?0??test_simplex@@YAHXZ@4HA DD imagerel ?dtor$4@?0??test_simplex@@YAHXZ@4HA
	DD	imagerel ?dtor$4@?0??test_simplex@@YAHXZ@4HA+38
	DD	imagerel $unwind$?dtor$4@?0??test_simplex@@YAHXZ@4HA
$pdata$?dtor$5@?0??test_simplex@@YAHXZ@4HA DD imagerel ?dtor$5@?0??test_simplex@@YAHXZ@4HA
	DD	imagerel ?dtor$5@?0??test_simplex@@YAHXZ@4HA+38
	DD	imagerel $unwind$?dtor$5@?0??test_simplex@@YAHXZ@4HA
$pdata$?dtor$6@?0??test_simplex@@YAHXZ@4HA DD imagerel ?dtor$6@?0??test_simplex@@YAHXZ@4HA
	DD	imagerel ?dtor$6@?0??test_simplex@@YAHXZ@4HA+38
	DD	imagerel $unwind$?dtor$6@?0??test_simplex@@YAHXZ@4HA
$pdata$?dtor$7@?0??test_simplex@@YAHXZ@4HA DD imagerel ?dtor$7@?0??test_simplex@@YAHXZ@4HA
	DD	imagerel ?dtor$7@?0??test_simplex@@YAHXZ@4HA+38
	DD	imagerel $unwind$?dtor$7@?0??test_simplex@@YAHXZ@4HA
$pdata$?dtor$8@?0??test_simplex@@YAHXZ@4HA DD imagerel ?dtor$8@?0??test_simplex@@YAHXZ@4HA
	DD	imagerel ?dtor$8@?0??test_simplex@@YAHXZ@4HA+38
	DD	imagerel $unwind$?dtor$8@?0??test_simplex@@YAHXZ@4HA
$pdata$?dtor$9@?0??test_simplex@@YAHXZ@4HA DD imagerel ?dtor$9@?0??test_simplex@@YAHXZ@4HA
	DD	imagerel ?dtor$9@?0??test_simplex@@YAHXZ@4HA+38
	DD	imagerel $unwind$?dtor$9@?0??test_simplex@@YAHXZ@4HA
$pdata$?dtor$10@?0??test_simplex@@YAHXZ@4HA DD imagerel ?dtor$10@?0??test_simplex@@YAHXZ@4HA
	DD	imagerel ?dtor$10@?0??test_simplex@@YAHXZ@4HA+38
	DD	imagerel $unwind$?dtor$10@?0??test_simplex@@YAHXZ@4HA
$pdata$?dtor$11@?0??test_simplex@@YAHXZ@4HA DD imagerel ?dtor$11@?0??test_simplex@@YAHXZ@4HA
	DD	imagerel ?dtor$11@?0??test_simplex@@YAHXZ@4HA+38
	DD	imagerel $unwind$?dtor$11@?0??test_simplex@@YAHXZ@4HA
pdata	ENDS
;	COMDAT pdata
pdata	SEGMENT
$pdata$??$simplex@M$0A@@glm@@YAMAEBU?$tvec2@M$0A@@0@@Z DD imagerel $LN5
	DD	imagerel $LN5+1915
	DD	imagerel $unwind$??$simplex@M$0A@@glm@@YAMAEBU?$tvec2@M$0A@@0@@Z
pdata	ENDS
;	COMDAT pdata
pdata	SEGMENT
$pdata$?length@?$tvec3@M$0A@@glm@@SAHXZ DD imagerel $LN3
	DD	imagerel $LN3+9
	DD	imagerel $unwind$?length@?$tvec3@M$0A@@glm@@SAHXZ
pdata	ENDS
;	COMDAT pdata
pdata	SEGMENT
$pdata$??A?$tvec3@M$0A@@glm@@QEAAAEAMH@Z DD imagerel $LN5
	DD	imagerel $LN5+80
	DD	imagerel $unwind$??A?$tvec3@M$0A@@glm@@QEAAAEAMH@Z
pdata	ENDS
;	COMDAT pdata
pdata	SEGMENT
$pdata$??A?$tvec3@M$0A@@glm@@QEBAAEBMH@Z DD imagerel $LN5
	DD	imagerel $LN5+80
	DD	imagerel $unwind$??A?$tvec3@M$0A@@glm@@QEBAAEBMH@Z
pdata	ENDS
;	COMDAT pdata
pdata	SEGMENT
$pdata$??0?$tvec3@M$0A@@glm@@QEAA@XZ DD imagerel $LN3
	DD	imagerel $LN3+51
	DD	imagerel $unwind$??0?$tvec3@M$0A@@glm@@QEAA@XZ
pdata	ENDS
;	COMDAT pdata
pdata	SEGMENT
$pdata$??0?$tvec3@M$0A@@glm@@QEAA@W4ctor@1@@Z DD imagerel $LN3
	DD	imagerel $LN3+17
	DD	imagerel $unwind$??0?$tvec3@M$0A@@glm@@QEAA@W4ctor@1@@Z
pdata	ENDS
;	COMDAT pdata
pdata	SEGMENT
$pdata$??0?$tvec3@M$0A@@glm@@QEAA@M@Z DD imagerel $LN3
	DD	imagerel $LN3+66
	DD	imagerel $unwind$??0?$tvec3@M$0A@@glm@@QEAA@M@Z
pdata	ENDS
;	COMDAT pdata
pdata	SEGMENT
$pdata$??0?$tvec3@M$0A@@glm@@QEAA@MMM@Z DD imagerel $LN3
	DD	imagerel $LN3+78
	DD	imagerel $unwind$??0?$tvec3@M$0A@@glm@@QEAA@MMM@Z
pdata	ENDS
;	COMDAT pdata
pdata	SEGMENT
$pdata$??$simplex@M$0A@@glm@@YAMAEBU?$tvec3@M$0A@@0@@Z DD imagerel $LN3
	DD	imagerel $LN3+3366
	DD	imagerel $unwind$??$simplex@M$0A@@glm@@YAMAEBU?$tvec3@M$0A@@0@@Z
pdata	ENDS
;	COMDAT pdata
pdata	SEGMENT
$pdata$??$simplex@M$0A@@glm@@YAMAEBU?$tvec4@M$0A@@0@@Z DD imagerel $LN3
	DD	imagerel $LN3+3108
	DD	imagerel $unwind$??$simplex@M$0A@@glm@@YAMAEBU?$tvec4@M$0A@@0@@Z
pdata	ENDS
pdata	SEGMENT
$pdata$?test_perlin@@YAHXZ DD imagerel $LN45
	DD	imagerel $LN45+2868
	DD	imagerel $unwind$?test_perlin@@YAHXZ
pdata	ENDS
pdata	SEGMENT
$pdata$?dtor$0@?0??test_perlin@@YAHXZ@4HA DD imagerel ?dtor$0@?0??test_perlin@@YAHXZ@4HA
	DD	imagerel ?dtor$0@?0??test_perlin@@YAHXZ@4HA+35
	DD	imagerel $unwind$?dtor$0@?0??test_perlin@@YAHXZ@4HA
$pdata$?dtor$1@?0??test_perlin@@YAHXZ@4HA DD imagerel ?dtor$1@?0??test_perlin@@YAHXZ@4HA
	DD	imagerel ?dtor$1@?0??test_perlin@@YAHXZ@4HA+38
	DD	imagerel $unwind$?dtor$1@?0??test_perlin@@YAHXZ@4HA
$pdata$?dtor$2@?0??test_perlin@@YAHXZ@4HA DD imagerel ?dtor$2@?0??test_perlin@@YAHXZ@4HA
	DD	imagerel ?dtor$2@?0??test_perlin@@YAHXZ@4HA+38
	DD	imagerel $unwind$?dtor$2@?0??test_perlin@@YAHXZ@4HA
$pdata$?dtor$3@?0??test_perlin@@YAHXZ@4HA DD imagerel ?dtor$3@?0??test_perlin@@YAHXZ@4HA
	DD	imagerel ?dtor$3@?0??test_perlin@@YAHXZ@4HA+38
	DD	imagerel $unwind$?dtor$3@?0??test_perlin@@YAHXZ@4HA
$pdata$?dtor$4@?0??test_perlin@@YAHXZ@4HA DD imagerel ?dtor$4@?0??test_perlin@@YAHXZ@4HA
	DD	imagerel ?dtor$4@?0??test_perlin@@YAHXZ@4HA+38
	DD	imagerel $unwind$?dtor$4@?0??test_perlin@@YAHXZ@4HA
$pdata$?dtor$5@?0??test_perlin@@YAHXZ@4HA DD imagerel ?dtor$5@?0??test_perlin@@YAHXZ@4HA
	DD	imagerel ?dtor$5@?0??test_perlin@@YAHXZ@4HA+38
	DD	imagerel $unwind$?dtor$5@?0??test_perlin@@YAHXZ@4HA
$pdata$?dtor$6@?0??test_perlin@@YAHXZ@4HA DD imagerel ?dtor$6@?0??test_perlin@@YAHXZ@4HA
	DD	imagerel ?dtor$6@?0??test_perlin@@YAHXZ@4HA+38
	DD	imagerel $unwind$?dtor$6@?0??test_perlin@@YAHXZ@4HA
$pdata$?dtor$7@?0??test_perlin@@YAHXZ@4HA DD imagerel ?dtor$7@?0??test_perlin@@YAHXZ@4HA
	DD	imagerel ?dtor$7@?0??test_perlin@@YAHXZ@4HA+38
	DD	imagerel $unwind$?dtor$7@?0??test_perlin@@YAHXZ@4HA
$pdata$?dtor$8@?0??test_perlin@@YAHXZ@4HA DD imagerel ?dtor$8@?0??test_perlin@@YAHXZ@4HA
	DD	imagerel ?dtor$8@?0??test_perlin@@YAHXZ@4HA+38
	DD	imagerel $unwind$?dtor$8@?0??test_perlin@@YAHXZ@4HA
$pdata$?dtor$9@?0??test_perlin@@YAHXZ@4HA DD imagerel ?dtor$9@?0??test_perlin@@YAHXZ@4HA
	DD	imagerel ?dtor$9@?0??test_perlin@@YAHXZ@4HA+38
	DD	imagerel $unwind$?dtor$9@?0??test_perlin@@YAHXZ@4HA
$pdata$?dtor$10@?0??test_perlin@@YAHXZ@4HA DD imagerel ?dtor$10@?0??test_perlin@@YAHXZ@4HA
	DD	imagerel ?dtor$10@?0??test_perlin@@YAHXZ@4HA+38
	DD	imagerel $unwind$?dtor$10@?0??test_perlin@@YAHXZ@4HA
$pdata$?dtor$11@?0??test_perlin@@YAHXZ@4HA DD imagerel ?dtor$11@?0??test_perlin@@YAHXZ@4HA
	DD	imagerel ?dtor$11@?0??test_perlin@@YAHXZ@4HA+38
	DD	imagerel $unwind$?dtor$11@?0??test_perlin@@YAHXZ@4HA
pdata	ENDS
;	COMDAT pdata
pdata	SEGMENT
$pdata$??$perlin@M$0A@@glm@@YAMAEBU?$tvec2@M$0A@@0@@Z DD imagerel $LN3
	DD	imagerel $LN3+1753
	DD	imagerel $unwind$??$perlin@M$0A@@glm@@YAMAEBU?$tvec2@M$0A@@0@@Z
pdata	ENDS
;	COMDAT pdata
pdata	SEGMENT
$pdata$??$perlin@M$0A@@glm@@YAMAEBU?$tvec3@M$0A@@0@@Z DD imagerel $LN3
	DD	imagerel $LN3+3206
	DD	imagerel $unwind$??$perlin@M$0A@@glm@@YAMAEBU?$tvec3@M$0A@@0@@Z
pdata	ENDS
;	COMDAT pdata
pdata	SEGMENT
$pdata$??$perlin@M$0A@@glm@@YAMAEBU?$tvec4@M$0A@@0@@Z DD imagerel $LN3
	DD	imagerel $LN3+7351
	DD	imagerel $unwind$??$perlin@M$0A@@glm@@YAMAEBU?$tvec4@M$0A@@0@@Z
pdata	ENDS
pdata	SEGMENT
$pdata$?test_perlin_pedioric@@YAHXZ DD imagerel $LN45
	DD	imagerel $LN45+2988
	DD	imagerel $unwind$?test_perlin_pedioric@@YAHXZ
pdata	ENDS
pdata	SEGMENT
$pdata$?dtor$0@?0??test_perlin_pedioric@@YAHXZ@4HA DD imagerel ?dtor$0@?0??test_perlin_pedioric@@YAHXZ@4HA
	DD	imagerel ?dtor$0@?0??test_perlin_pedioric@@YAHXZ@4HA+35
	DD	imagerel $unwind$?dtor$0@?0??test_perlin_pedioric@@YAHXZ@4HA
$pdata$?dtor$1@?0??test_perlin_pedioric@@YAHXZ@4HA DD imagerel ?dtor$1@?0??test_perlin_pedioric@@YAHXZ@4HA
	DD	imagerel ?dtor$1@?0??test_perlin_pedioric@@YAHXZ@4HA+38
	DD	imagerel $unwind$?dtor$1@?0??test_perlin_pedioric@@YAHXZ@4HA
$pdata$?dtor$2@?0??test_perlin_pedioric@@YAHXZ@4HA DD imagerel ?dtor$2@?0??test_perlin_pedioric@@YAHXZ@4HA
	DD	imagerel ?dtor$2@?0??test_perlin_pedioric@@YAHXZ@4HA+38
	DD	imagerel $unwind$?dtor$2@?0??test_perlin_pedioric@@YAHXZ@4HA
$pdata$?dtor$3@?0??test_perlin_pedioric@@YAHXZ@4HA DD imagerel ?dtor$3@?0??test_perlin_pedioric@@YAHXZ@4HA
	DD	imagerel ?dtor$3@?0??test_perlin_pedioric@@YAHXZ@4HA+38
	DD	imagerel $unwind$?dtor$3@?0??test_perlin_pedioric@@YAHXZ@4HA
$pdata$?dtor$4@?0??test_perlin_pedioric@@YAHXZ@4HA DD imagerel ?dtor$4@?0??test_perlin_pedioric@@YAHXZ@4HA
	DD	imagerel ?dtor$4@?0??test_perlin_pedioric@@YAHXZ@4HA+38
	DD	imagerel $unwind$?dtor$4@?0??test_perlin_pedioric@@YAHXZ@4HA
$pdata$?dtor$5@?0??test_perlin_pedioric@@YAHXZ@4HA DD imagerel ?dtor$5@?0??test_perlin_pedioric@@YAHXZ@4HA
	DD	imagerel ?dtor$5@?0??test_perlin_pedioric@@YAHXZ@4HA+38
	DD	imagerel $unwind$?dtor$5@?0??test_perlin_pedioric@@YAHXZ@4HA
$pdata$?dtor$6@?0??test_perlin_pedioric@@YAHXZ@4HA DD imagerel ?dtor$6@?0??test_perlin_pedioric@@YAHXZ@4HA
	DD	imagerel ?dtor$6@?0??test_perlin_pedioric@@YAHXZ@4HA+38
	DD	imagerel $unwind$?dtor$6@?0??test_perlin_pedioric@@YAHXZ@4HA
$pdata$?dtor$7@?0??test_perlin_pedioric@@YAHXZ@4HA DD imagerel ?dtor$7@?0??test_perlin_pedioric@@YAHXZ@4HA
	DD	imagerel ?dtor$7@?0??test_perlin_pedioric@@YAHXZ@4HA+38
	DD	imagerel $unwind$?dtor$7@?0??test_perlin_pedioric@@YAHXZ@4HA
$pdata$?dtor$8@?0??test_perlin_pedioric@@YAHXZ@4HA DD imagerel ?dtor$8@?0??test_perlin_pedioric@@YAHXZ@4HA
	DD	imagerel ?dtor$8@?0??test_perlin_pedioric@@YAHXZ@4HA+38
	DD	imagerel $unwind$?dtor$8@?0??test_perlin_pedioric@@YAHXZ@4HA
$pdata$?dtor$9@?0??test_perlin_pedioric@@YAHXZ@4HA DD imagerel ?dtor$9@?0??test_perlin_pedioric@@YAHXZ@4HA
	DD	imagerel ?dtor$9@?0??test_perlin_pedioric@@YAHXZ@4HA+38
	DD	imagerel $unwind$?dtor$9@?0??test_perlin_pedioric@@YAHXZ@4HA
$pdata$?dtor$10@?0??test_perlin_pedioric@@YAHXZ@4HA DD imagerel ?dtor$10@?0??test_perlin_pedioric@@YAHXZ@4HA
	DD	imagerel ?dtor$10@?0??test_perlin_pedioric@@YAHXZ@4HA+38
	DD	imagerel $unwind$?dtor$10@?0??test_perlin_pedioric@@YAHXZ@4HA
$pdata$?dtor$11@?0??test_perlin_pedioric@@YAHXZ@4HA DD imagerel ?dtor$11@?0??test_perlin_pedioric@@YAHXZ@4HA
	DD	imagerel ?dtor$11@?0??test_perlin_pedioric@@YAHXZ@4HA+38
	DD	imagerel $unwind$?dtor$11@?0??test_perlin_pedioric@@YAHXZ@4HA
pdata	ENDS
;	COMDAT pdata
pdata	SEGMENT
$pdata$??$perlin@M$0A@@glm@@YAMAEBU?$tvec2@M$0A@@0@0@Z DD imagerel $LN3
	DD	imagerel $LN3+1866
	DD	imagerel $unwind$??$perlin@M$0A@@glm@@YAMAEBU?$tvec2@M$0A@@0@0@Z
pdata	ENDS
;	COMDAT pdata
pdata	SEGMENT
$pdata$??$perlin@M$0A@@glm@@YAMAEBU?$tvec3@M$0A@@0@0@Z DD imagerel $LN3
	DD	imagerel $LN3+3309
	DD	imagerel $unwind$??$perlin@M$0A@@glm@@YAMAEBU?$tvec3@M$0A@@0@0@Z
pdata	ENDS
;	COMDAT pdata
pdata	SEGMENT
$pdata$??$perlin@M$0A@@glm@@YAMAEBU?$tvec4@M$0A@@0@0@Z DD imagerel $LN3
	DD	imagerel $LN3+7284
	DD	imagerel $unwind$??$perlin@M$0A@@glm@@YAMAEBU?$tvec4@M$0A@@0@0@Z
pdata	ENDS
pdata	SEGMENT
$pdata$main DD	imagerel $LN3
	DD	imagerel $LN3+75
	DD	imagerel $unwind$main
pdata	ENDS
;	COMDAT pdata
pdata	SEGMENT
$pdata$??$addressof@V?$basic_filebuf@DU?$char_traits@D@std@@@std@@@std@@YAPEAV?$basic_filebuf@DU?$char_traits@D@std@@@0@AEAV10@@Z DD imagerel $LN3
	DD	imagerel $LN3+13
	DD	imagerel $unwind$??$addressof@V?$basic_filebuf@DU?$char_traits@D@std@@@std@@@std@@YAPEAV?$basic_filebuf@DU?$char_traits@D@std@@@0@AEAV10@@Z
pdata	ENDS
;	COMDAT pdata
pdata	SEGMENT
$pdata$??$use_facet@V?$codecvt@DDU_Mbstatet@@@std@@@std@@YAAEBV?$codecvt@DDU_Mbstatet@@@0@AEBVlocale@0@@Z DD imagerel $LN11
	DD	imagerel $LN11+330
	DD	imagerel $unwind$??$use_facet@V?$codecvt@DDU_Mbstatet@@@std@@@std@@YAAEBV?$codecvt@DDU_Mbstatet@@@0@AEBVlocale@0@@Z
pdata	ENDS
;	COMDAT pdata
pdata	SEGMENT
$pdata$?dtor$0@?0???$use_facet@V?$codecvt@DDU_Mbstatet@@@std@@@std@@YAAEBV?$codecvt@DDU_Mbstatet@@@0@AEBVlocale@0@@Z@4HA DD imagerel ?dtor$0@?0???$use_facet@V?$codecvt@DDU_Mbstatet@@@std@@@std@@YAAEBV?$codecvt@DDU_Mbstatet@@@0@AEBVlocale@0@@Z@4HA
	DD	imagerel ?dtor$0@?0???$use_facet@V?$codecvt@DDU_Mbstatet@@@std@@@std@@YAAEBV?$codecvt@DDU_Mbstatet@@@0@AEBVlocale@0@@Z@4HA+36
	DD	imagerel $unwind$?dtor$0@?0???$use_facet@V?$codecvt@DDU_Mbstatet@@@std@@@std@@YAAEBV?$codecvt@DDU_Mbstatet@@@0@AEBVlocale@0@@Z@4HA
pdata	ENDS
;	COMDAT pdata
pdata	SEGMENT
$pdata$?dtor$1@?0???$use_facet@V?$codecvt@DDU_Mbstatet@@@std@@@std@@YAAEBV?$codecvt@DDU_Mbstatet@@@0@AEBVlocale@0@@Z@4HA DD imagerel ?dtor$1@?0???$use_facet@V?$codecvt@DDU_Mbstatet@@@std@@@std@@YAAEBV?$codecvt@DDU_Mbstatet@@@0@AEBVlocale@0@@Z@4HA
	DD	imagerel ?dtor$1@?0???$use_facet@V?$codecvt@DDU_Mbstatet@@@std@@@std@@YAAEBV?$codecvt@DDU_Mbstatet@@@0@AEBVlocale@0@@Z@4HA+35
	DD	imagerel $unwind$?dtor$1@?0???$use_facet@V?$codecvt@DDU_Mbstatet@@@std@@@std@@YAAEBV?$codecvt@DDU_Mbstatet@@@0@AEBVlocale@0@@Z@4HA
pdata	ENDS
;	COMDAT pdata
pdata	SEGMENT
$pdata$??$min@_K@std@@YAAEB_KAEB_K0@Z DD imagerel $LN5
	DD	imagerel $LN5+74
	DD	imagerel $unwind$??$min@_K@std@@YAAEB_KAEB_K0@Z
pdata	ENDS
;	COMDAT pdata
pdata	SEGMENT
$pdata$?allocate@?$allocator@U_Container_proxy@std@@@std@@QEAAPEAU_Container_proxy@2@_K@Z DD imagerel $LN3
	DD	imagerel $LN3+39
	DD	imagerel $unwind$?allocate@?$allocator@U_Container_proxy@std@@@std@@QEAAPEAU_Container_proxy@2@_K@Z
pdata	ENDS
;	COMDAT pdata
pdata	SEGMENT
$pdata$??$_Delete_plain_internal@V?$allocator@U_Container_proxy@std@@@std@@@std@@YAXAEAV?$allocator@U_Container_proxy@std@@@0@QEAU_Container_proxy@0@@Z DD imagerel $LN3
	DD	imagerel $LN3+36
	DD	imagerel $unwind$??$_Delete_plain_internal@V?$allocator@U_Container_proxy@std@@@std@@@std@@YAXAEAV?$allocator@U_Container_proxy@std@@@0@QEAU_Container_proxy@0@@Z
pdata	ENDS
;	COMDAT pdata
pdata	SEGMENT
$pdata$??0?$_Container_proxy_ptr12@V?$allocator@U_Container_proxy@std@@@std@@@std@@QEAA@AEAV?$allocator@U_Container_proxy@std@@@1@AEAU_Container_base12@1@@Z DD imagerel $LN3
	DD	imagerel $LN3+135
	DD	imagerel $unwind$??0?$_Container_proxy_ptr12@V?$allocator@U_Container_proxy@std@@@std@@@std@@QEAA@AEAV?$allocator@U_Container_proxy@std@@@1@AEAU_Container_base12@1@@Z
pdata	ENDS
;	COMDAT pdata
pdata	SEGMENT
$pdata$??1?$_Container_proxy_ptr12@V?$allocator@U_Container_proxy@std@@@std@@@std@@QEAA@XZ DD imagerel $LN4
	DD	imagerel $LN4+49
	DD	imagerel $unwind$??1?$_Container_proxy_ptr12@V?$allocator@U_Container_proxy@std@@@std@@@std@@QEAA@XZ
pdata	ENDS
;	COMDAT pdata
pdata	SEGMENT
$pdata$??$_Alloc_proxy@V?$allocator@U_Container_proxy@std@@@std@@@_Container_base12@std@@QEAAX$$QEAV?$allocator@U_Container_proxy@std@@@1@@Z DD imagerel $LN3
	DD	imagerel $LN3+100
	DD	imagerel $unwind$??$_Alloc_proxy@V?$allocator@U_Container_proxy@std@@@std@@@_Container_base12@std@@QEAAX$$QEAV?$allocator@U_Container_proxy@std@@@1@@Z
pdata	ENDS
;	COMDAT pdata
pdata	SEGMENT
$pdata$??$_Convert_size@_K@std@@YA_K_K@Z DD imagerel $LN3
	DD	imagerel $LN3+13
	DD	imagerel $unwind$??$_Convert_size@_K@std@@YA_K_K@Z
pdata	ENDS
;	COMDAT pdata
pdata	SEGMENT
$pdata$??$?0D@?$allocator@U_Container_proxy@std@@@std@@QEAA@AEBV?$allocator@D@1@@Z DD imagerel $LN3
	DD	imagerel $LN3+18
	DD	imagerel $unwind$??$?0D@?$allocator@U_Container_proxy@std@@@std@@QEAA@AEBV?$allocator@D@1@@Z
pdata	ENDS
;	COMDAT pdata
pdata	SEGMENT
$pdata$??$?0$$V@?$_Compressed_pair@V?$allocator@D@std@@V?$_String_val@U?$_Simple_types@D@std@@@2@$00@std@@QEAA@U_Zero_then_variadic_args_t@1@@Z DD imagerel $LN3
	DD	imagerel $LN3+48
	DD	imagerel $unwind$??$?0$$V@?$_Compressed_pair@V?$allocator@D@std@@V?$_String_val@U?$_Simple_types@D@std@@@2@$00@std@@QEAA@U_Zero_then_variadic_args_t@1@@Z
pdata	ENDS
;	COMDAT pdata
pdata	SEGMENT
$pdata$??$exchange@PEAU_Container_proxy@std@@$$T@std@@YAPEAU_Container_proxy@0@AEAPEAU10@$$QEA$$T@Z DD imagerel $LN3
	DD	imagerel $LN3+53
	DD	imagerel $unwind$??$exchange@PEAU_Container_proxy@std@@$$T@std@@YAPEAU_Container_proxy@0@AEAPEAU10@$$QEA$$T@Z
pdata	ENDS
;	COMDAT pdata
pdata	SEGMENT
$pdata$??$_Resize@U_Value_init_tag@std@@@?$vector@Vimage2D@gli@@V?$allocator@Vimage2D@gli@@@std@@@std@@AEAAX_KAEBU_Value_init_tag@1@@Z DD imagerel $LN6
	DD	imagerel $LN6+371
	DD	imagerel $unwind$??$_Resize@U_Value_init_tag@std@@@?$vector@Vimage2D@gli@@V?$allocator@Vimage2D@gli@@@std@@@std@@AEAAX_KAEBU_Value_init_tag@1@@Z
pdata	ENDS
;	COMDAT pdata
pdata	SEGMENT
$pdata$??$?0Vimage2D@gli@@@?$allocator@U_Container_proxy@std@@@std@@QEAA@AEBV?$allocator@Vimage2D@gli@@@1@@Z DD imagerel $LN3
	DD	imagerel $LN3+18
	DD	imagerel $unwind$??$?0Vimage2D@gli@@@?$allocator@U_Container_proxy@std@@@std@@QEAA@AEBV?$allocator@Vimage2D@gli@@@1@@Z
pdata	ENDS
;	COMDAT pdata
pdata	SEGMENT
$pdata$??$?0$$V@?$_Compressed_pair@V?$allocator@Vimage2D@gli@@@std@@V?$_Vector_val@U?$_Simple_types@Vimage2D@gli@@@std@@@2@$00@std@@QEAA@U_Zero_then_variadic_args_t@1@@Z DD imagerel $LN3
	DD	imagerel $LN3+48
	DD	imagerel $unwind$??$?0$$V@?$_Compressed_pair@V?$allocator@Vimage2D@gli@@@std@@V?$_Vector_val@U?$_Simple_types@Vimage2D@gli@@@std@@@2@$00@std@@QEAA@U_Zero_then_variadic_args_t@1@@Z
pdata	ENDS
;	COMDAT pdata
pdata	SEGMENT
$pdata$??$addressof@$$CBV?$vector@EV?$allocator@E@std@@@std@@@std@@YAPEBV?$vector@EV?$allocator@E@std@@@0@AEBV10@@Z DD imagerel $LN3
	DD	imagerel $LN3+13
	DD	imagerel $unwind$??$addressof@$$CBV?$vector@EV?$allocator@E@std@@@std@@@std@@YAPEBV?$vector@EV?$allocator@E@std@@@0@AEBV10@@Z
pdata	ENDS
;	COMDAT pdata
pdata	SEGMENT
$pdata$??$_Pocca@V?$allocator@E@std@@@std@@YAXAEAV?$allocator@E@0@AEBV10@@Z DD imagerel $LN3
	DD	imagerel $LN3+13
	DD	imagerel $unwind$??$_Pocca@V?$allocator@E@std@@@std@@YAXAEAV?$allocator@E@0@AEBV10@@Z
pdata	ENDS
;	COMDAT pdata
pdata	SEGMENT
$pdata$??$assign@PEAE$0A@@?$vector@EV?$allocator@E@std@@@std@@QEAAXPEAE0@Z DD imagerel $LN3
	DD	imagerel $LN3+93
	DD	imagerel $unwind$??$assign@PEAE$0A@@?$vector@EV?$allocator@E@std@@@std@@QEAAXPEAE0@Z
pdata	ENDS
;	COMDAT pdata
pdata	SEGMENT
$pdata$??$?0E@?$allocator@U_Container_proxy@std@@@std@@QEAA@AEBV?$allocator@E@1@@Z DD imagerel $LN3
	DD	imagerel $LN3+18
	DD	imagerel $unwind$??$?0E@?$allocator@U_Container_proxy@std@@@std@@QEAA@AEBV?$allocator@E@1@@Z
pdata	ENDS
;	COMDAT pdata
pdata	SEGMENT
$pdata$??$?0V?$allocator@E@std@@$$V@?$_Compressed_pair@V?$allocator@E@std@@V?$_Vector_val@U?$_Simple_types@E@std@@@2@$00@std@@QEAA@U_One_then_variadic_args_t@1@$$QEAV?$allocator@E@1@@Z DD imagerel $LN3
	DD	imagerel $LN3+53
	DD	imagerel $unwind$??$?0V?$allocator@E@std@@$$V@?$_Compressed_pair@V?$allocator@E@std@@V?$_Vector_val@U?$_Simple_types@E@std@@@2@$00@std@@QEAA@U_One_then_variadic_args_t@1@$$QEAV?$allocator@E@1@@Z
pdata	ENDS
;	COMDAT pdata
pdata	SEGMENT
$pdata$??$_Construct_n@AEBQEAEAEBQEAE@?$vector@EV?$allocator@E@std@@@std@@AEAAX_KAEBQEAE1@Z DD imagerel $LN6
	DD	imagerel $LN6+328
	DD	imagerel $unwind$??$_Construct_n@AEBQEAEAEBQEAE@?$vector@EV?$allocator@E@std@@@std@@AEAAX_KAEBQEAE1@Z
pdata	ENDS
;	COMDAT pdata
pdata	SEGMENT
$pdata$?dtor$0@?0???$_Construct_n@AEBQEAEAEBQEAE@?$vector@EV?$allocator@E@std@@@std@@AEAAX_KAEBQEAE1@Z@4HA DD imagerel ?dtor$0@?0???$_Construct_n@AEBQEAEAEBQEAE@?$vector@EV?$allocator@E@std@@@std@@AEAAX_KAEBQEAE1@Z@4HA
	DD	imagerel ?dtor$0@?0???$_Construct_n@AEBQEAEAEBQEAE@?$vector@EV?$allocator@E@std@@@std@@AEAAX_KAEBQEAE1@Z@4HA+35
	DD	imagerel $unwind$?dtor$0@?0???$_Construct_n@AEBQEAEAEBQEAE@?$vector@EV?$allocator@E@std@@@std@@AEAAX_KAEBQEAE1@Z@4HA
pdata	ENDS
;	COMDAT pdata
pdata	SEGMENT
$pdata$?dtor$1@?0???$_Construct_n@AEBQEAEAEBQEAE@?$vector@EV?$allocator@E@std@@@std@@AEAAX_KAEBQEAE1@Z@4HA DD imagerel ?dtor$1@?0???$_Construct_n@AEBQEAEAEBQEAE@?$vector@EV?$allocator@E@std@@@std@@AEAAX_KAEBQEAE1@Z@4HA
	DD	imagerel ?dtor$1@?0???$_Construct_n@AEBQEAEAEBQEAE@?$vector@EV?$allocator@E@std@@@std@@AEAAX_KAEBQEAE1@Z@4HA+38
	DD	imagerel $unwind$?dtor$1@?0???$_Construct_n@AEBQEAEAEBQEAE@?$vector@EV?$allocator@E@std@@@std@@AEAAX_KAEBQEAE1@Z@4HA
pdata	ENDS
;	COMDAT pdata
pdata	SEGMENT
$pdata$??$?0AEBV?$allocator@E@std@@$$V@?$_Compressed_pair@V?$allocator@E@std@@V?$_Vector_val@U?$_Simple_types@E@std@@@2@$00@std@@QEAA@U_One_then_variadic_args_t@1@AEBV?$allocator@E@1@@Z DD imagerel $LN3
	DD	imagerel $LN3+53
	DD	imagerel $unwind$??$?0AEBV?$allocator@E@std@@$$V@?$_Compressed_pair@V?$allocator@E@std@@V?$_Vector_val@U?$_Simple_types@E@std@@@2@$00@std@@QEAA@U_One_then_variadic_args_t@1@AEBV?$allocator@E@1@@Z
pdata	ENDS
;	COMDAT pdata
pdata	SEGMENT
$pdata$??$_Construct_n@$$V@?$vector@EV?$allocator@E@std@@@std@@AEAAX_K@Z DD imagerel $LN6
	DD	imagerel $LN6+274
	DD	imagerel $unwind$??$_Construct_n@$$V@?$vector@EV?$allocator@E@std@@@std@@AEAAX_K@Z
pdata	ENDS
;	COMDAT pdata
pdata	SEGMENT
$pdata$?dtor$0@?0???$_Construct_n@$$V@?$vector@EV?$allocator@E@std@@@std@@AEAAX_K@Z@4HA DD imagerel ?dtor$0@?0???$_Construct_n@$$V@?$vector@EV?$allocator@E@std@@@std@@AEAAX_K@Z@4HA
	DD	imagerel ?dtor$0@?0???$_Construct_n@$$V@?$vector@EV?$allocator@E@std@@@std@@AEAAX_K@Z@4HA+35
	DD	imagerel $unwind$?dtor$0@?0???$_Construct_n@$$V@?$vector@EV?$allocator@E@std@@@std@@AEAAX_K@Z@4HA
pdata	ENDS
;	COMDAT pdata
pdata	SEGMENT
$pdata$?dtor$1@?0???$_Construct_n@$$V@?$vector@EV?$allocator@E@std@@@std@@AEAAX_K@Z@4HA DD imagerel ?dtor$1@?0???$_Construct_n@$$V@?$vector@EV?$allocator@E@std@@@std@@AEAAX_K@Z@4HA
	DD	imagerel ?dtor$1@?0???$_Construct_n@$$V@?$vector@EV?$allocator@E@std@@@std@@AEAAX_K@Z@4HA+38
	DD	imagerel $unwind$?dtor$1@?0???$_Construct_n@$$V@?$vector@EV?$allocator@E@std@@@std@@AEAAX_K@Z@4HA
pdata	ENDS
;	COMDAT pdata
pdata	SEGMENT
$pdata$??$_Unfancy@U_Container_proxy@std@@@std@@YAPEAU_Container_proxy@0@PEAU10@@Z DD imagerel $LN3
	DD	imagerel $LN3+13
	DD	imagerel $unwind$??$_Unfancy@U_Container_proxy@std@@@std@@YAPEAU_Container_proxy@0@PEAU10@@Z
pdata	ENDS
;	COMDAT pdata
pdata	SEGMENT
$pdata$??$addressof@U_Container_base12@std@@@std@@YAPEAU_Container_base12@0@AEAU10@@Z DD imagerel $LN3
	DD	imagerel $LN3+13
	DD	imagerel $unwind$??$addressof@U_Container_base12@std@@@std@@YAPEAU_Container_base12@0@AEAU10@@Z
pdata	ENDS
;	COMDAT pdata
pdata	SEGMENT
$pdata$??$_Construct_in_place@U_Container_proxy@std@@PEAU_Container_base12@2@@std@@YAXAEAU_Container_proxy@0@$$QEAPEAU_Container_base12@0@@Z DD imagerel $LN3
	DD	imagerel $LN3+80
	DD	imagerel $unwind$??$_Construct_in_place@U_Container_proxy@std@@PEAU_Container_base12@2@@std@@YAXAEAU_Container_proxy@0@$$QEAPEAU_Container_base12@0@@Z
pdata	ENDS
;	COMDAT pdata
pdata	SEGMENT
$pdata$??$addressof@$$CBV?$codecvt@DDU_Mbstatet@@@std@@@std@@YAPEBV?$codecvt@DDU_Mbstatet@@@0@AEBV10@@Z DD imagerel $LN3
	DD	imagerel $LN3+13
	DD	imagerel $unwind$??$addressof@$$CBV?$codecvt@DDU_Mbstatet@@@std@@@std@@YAPEBV?$codecvt@DDU_Mbstatet@@@0@AEBV10@@Z
pdata	ENDS
;	COMDAT pdata
pdata	SEGMENT
$pdata$??$_Destroy_in_place@PEAD@std@@YAXAEAPEAD@Z DD imagerel $LN3
	DD	imagerel $LN3+8
	DD	imagerel $unwind$??$_Destroy_in_place@PEAD@std@@YAXAEAPEAD@Z
pdata	ENDS
;	COMDAT pdata
pdata	SEGMENT
$pdata$??R<lambda_319d5e083f45f90dcdce5dce53cbb275>@@QEBA@QEADQEBD_KD@Z DD imagerel $LN3
	DD	imagerel $LN3+113
	DD	imagerel $unwind$??R<lambda_319d5e083f45f90dcdce5dce53cbb275>@@QEBA@QEADQEBD_KD@Z
pdata	ENDS
;	COMDAT pdata
pdata	SEGMENT
$pdata$??$_Reallocate_grow_by@V<lambda_319d5e083f45f90dcdce5dce53cbb275>@@D@?$basic_string@DU?$char_traits@D@std@@V?$allocator@D@2@@std@@AEAAAEAV01@_KV<lambda_319d5e083f45f90dcdce5dce53cbb275>@@D@Z DD imagerel $LN6
	DD	imagerel $LN6+499
	DD	imagerel $unwind$??$_Reallocate_grow_by@V<lambda_319d5e083f45f90dcdce5dce53cbb275>@@D@?$basic_string@DU?$char_traits@D@std@@V?$allocator@D@2@@std@@AEAAAEAV01@_KV<lambda_319d5e083f45f90dcdce5dce53cbb275>@@D@Z
pdata	ENDS
;	COMDAT pdata
pdata	SEGMENT
$pdata$??R<lambda_66f57f934f28d61049862f64df852ff0>@@QEBA@QEAD_KQEBD@Z DD imagerel $LN3
	DD	imagerel $LN3+85
	DD	imagerel $unwind$??R<lambda_66f57f934f28d61049862f64df852ff0>@@QEBA@QEAD_KQEBD@Z
pdata	ENDS
;	COMDAT pdata
pdata	SEGMENT
$pdata$??$_Reallocate_for@V<lambda_66f57f934f28d61049862f64df852ff0>@@PEBD@?$basic_string@DU?$char_traits@D@std@@V?$allocator@D@2@@std@@AEAAAEAV01@_KV<lambda_66f57f934f28d61049862f64df852ff0>@@PEBD@Z DD imagerel $LN6
	DD	imagerel $LN6+332
	DD	imagerel $unwind$??$_Reallocate_for@V<lambda_66f57f934f28d61049862f64df852ff0>@@PEBD@?$basic_string@DU?$char_traits@D@std@@V?$allocator@D@2@@std@@AEAAAEAV01@_KV<lambda_66f57f934f28d61049862f64df852ff0>@@PEBD@Z
pdata	ENDS
;	COMDAT pdata
pdata	SEGMENT
$pdata$??$_Construct_in_place@PEADAEBQEAD@std@@YAXAEAPEADAEBQEAD@Z DD imagerel $LN3
	DD	imagerel $LN3+78
	DD	imagerel $unwind$??$_Construct_in_place@PEADAEBQEAD@std@@YAXAEAPEADAEBQEAD@Z
pdata	ENDS
;	COMDAT pdata
pdata	SEGMENT
$pdata$??$_Unfancy@D@std@@YAPEADPEAD@Z DD imagerel $LN3
	DD	imagerel $LN3+13
	DD	imagerel $unwind$??$_Unfancy@D@std@@YAPEADPEAD@Z
pdata	ENDS
;	COMDAT pdata
pdata	SEGMENT
$pdata$??$_Destroy_range@V?$allocator@Vimage2D@gli@@@std@@@std@@YAXPEAVimage2D@gli@@QEAV12@AEAV?$allocator@Vimage2D@gli@@@0@@Z DD imagerel $LN6
	DD	imagerel $LN6+79
	DD	imagerel $unwind$??$_Destroy_range@V?$allocator@Vimage2D@gli@@@std@@@std@@YAXPEAVimage2D@gli@@QEAV12@AEAV?$allocator@Vimage2D@gli@@@0@@Z
pdata	ENDS
;	COMDAT pdata
pdata	SEGMENT
$pdata$??$_Destroy_range@V?$allocator@E@std@@@std@@YAXPEAEQEAEAEAV?$allocator@E@0@@Z DD imagerel $LN3
	DD	imagerel $LN3+18
	DD	imagerel $unwind$??$_Destroy_range@V?$allocator@E@std@@@std@@YAXPEAEQEAEAEAV?$allocator@E@0@@Z
pdata	ENDS
;	COMDAT pdata
pdata	SEGMENT
$pdata$??$max@_K@std@@YAAEB_KAEB_K0@Z DD imagerel $LN5
	DD	imagerel $LN5+74
	DD	imagerel $unwind$??$max@_K@std@@YAAEB_KAEB_K0@Z
pdata	ENDS
;	COMDAT pdata
pdata	SEGMENT
$pdata$??$_Get_size_of_n@$0BA@@std@@YA_K_K@Z DD imagerel $LN4
	DD	imagerel $LN4+64
	DD	imagerel $unwind$??$_Get_size_of_n@$0BA@@std@@YA_K_K@Z
pdata	ENDS
;	COMDAT pdata
pdata	SEGMENT
$pdata$??$_Allocate@$0BA@U_Default_allocate_traits@std@@$0A@@std@@YAPEAX_K@Z DD imagerel $LN5
	DD	imagerel $LN5+61
	DD	imagerel $unwind$??$_Allocate@$0BA@U_Default_allocate_traits@std@@$0A@@std@@YAPEAX_K@Z
pdata	ENDS
;	COMDAT pdata
pdata	SEGMENT
$pdata$??$_Deallocate@$0BA@$0A@@std@@YAXPEAX_K@Z DD imagerel $LN4
	DD	imagerel $LN4+63
	DD	imagerel $unwind$??$_Deallocate@$0BA@$0A@@std@@YAXPEAX_K@Z
pdata	ENDS
;	COMDAT pdata
pdata	SEGMENT
$pdata$??$_Get_size_of_n@$00@std@@YA_K_K@Z DD imagerel $LN3
	DD	imagerel $LN3+25
	DD	imagerel $unwind$??$_Get_size_of_n@$00@std@@YA_K_K@Z
pdata	ENDS
;	COMDAT pdata
pdata	SEGMENT
$pdata$?call@?$compute_clamp_vector@M$0A@Utvec4@glm@@$0A@@detail@glm@@SA?AU?$tvec4@M$0A@@3@AEBU43@00@Z DD imagerel $LN3
	DD	imagerel $LN3+74
	DD	imagerel $unwind$?call@?$compute_clamp_vector@M$0A@Utvec4@glm@@$0A@@detail@glm@@SA?AU?$tvec4@M$0A@@3@AEBU43@00@Z
pdata	ENDS
;	COMDAT pdata
pdata	SEGMENT
$pdata$??$?XM@?$tvec4@M$0A@@glm@@QEAAAEAU01@M@Z DD imagerel $LN3
	DD	imagerel $LN3+78
	DD	imagerel $unwind$??$?XM@?$tvec4@M$0A@@glm@@QEAAAEAU01@M@Z
pdata	ENDS
;	COMDAT pdata
pdata	SEGMENT
$pdata$?call@?$compute_max_vector@I$0A@Utvec2@glm@@$0A@@detail@glm@@SA?AU?$tvec2@I$0A@@3@AEBU43@0@Z DD imagerel $LN3
	DD	imagerel $LN3+58
	DD	imagerel $unwind$?call@?$compute_max_vector@I$0A@Utvec2@glm@@$0A@@detail@glm@@SA?AU?$tvec2@I$0A@@3@AEBU43@0@Z
pdata	ENDS
;	COMDAT pdata
pdata	SEGMENT
$pdata$??R?$default_delete@V_Facet_base@std@@@std@@QEBAXPEAV_Facet_base@1@@Z DD imagerel $LN5
	DD	imagerel $LN5+75
	DD	imagerel $unwind$??R?$default_delete@V_Facet_base@std@@@std@@QEBAXPEAV_Facet_base@1@@Z
pdata	ENDS
;	COMDAT pdata
pdata	SEGMENT
$pdata$??1?$unique_ptr@V_Facet_base@std@@U?$default_delete@V_Facet_base@std@@@2@@std@@QEAA@XZ DD imagerel $LN4
	DD	imagerel $LN4+56
	DD	imagerel $unwind$??1?$unique_ptr@V_Facet_base@std@@U?$default_delete@V_Facet_base@std@@@2@@std@@QEAA@XZ
pdata	ENDS
;	COMDAT pdata
pdata	SEGMENT
$pdata$?release@?$unique_ptr@V_Facet_base@std@@U?$default_delete@V_Facet_base@std@@@2@@std@@QEAAPEAV_Facet_base@2@XZ DD imagerel $LN3
	DD	imagerel $LN3+43
	DD	imagerel $unwind$?release@?$unique_ptr@V_Facet_base@std@@U?$default_delete@V_Facet_base@std@@@2@@std@@QEAAPEAV_Facet_base@2@XZ
pdata	ENDS
;	COMDAT pdata
pdata	SEGMENT
$pdata$?_Get_first@?$_Compressed_pair@U?$default_delete@V_Facet_base@std@@@std@@PEAV_Facet_base@2@$00@std@@QEAAAEAU?$default_delete@V_Facet_base@std@@@2@XZ DD imagerel $LN3
	DD	imagerel $LN3+13
	DD	imagerel $unwind$?_Get_first@?$_Compressed_pair@U?$default_delete@V_Facet_base@std@@@std@@PEAV_Facet_base@2@$00@std@@QEAAAEAU?$default_delete@V_Facet_base@std@@@2@XZ
pdata	ENDS
;	COMDAT pdata
pdata	SEGMENT
$pdata$??$?0U?$default_delete@V_Facet_base@std@@@std@@$0A@@?$unique_ptr@V_Facet_base@std@@U?$default_delete@V_Facet_base@std@@@2@@std@@QEAA@PEAV_Facet_base@1@@Z DD imagerel $LN3
	DD	imagerel $LN3+49
	DD	imagerel $unwind$??$?0U?$default_delete@V_Facet_base@std@@@std@@$0A@@?$unique_ptr@V_Facet_base@std@@U?$default_delete@V_Facet_base@std@@@2@@std@@QEAA@PEAV_Facet_base@1@@Z
pdata	ENDS
;	COMDAT pdata
pdata	SEGMENT
$pdata$??$dot@M$0A@Utvec2@glm@@@glm@@YAMAEBU?$tvec2@M$0A@@0@0@Z DD imagerel $LN3
	DD	imagerel $LN3+36
	DD	imagerel $unwind$??$dot@M$0A@Utvec2@glm@@@glm@@YAMAEBU?$tvec2@M$0A@@0@0@Z
pdata	ENDS
;	COMDAT pdata
pdata	SEGMENT
$pdata$??$?HM$0A@@glm@@YA?AU?$tvec2@M$0A@@0@AEBU10@M@Z DD imagerel $LN3
	DD	imagerel $LN3+76
	DD	imagerel $unwind$??$?HM$0A@@glm@@YA?AU?$tvec2@M$0A@@0@AEBU10@M@Z
pdata	ENDS
;	COMDAT pdata
pdata	SEGMENT
$pdata$??$floor@M$0A@Utvec2@glm@@@glm@@YA?AU?$tvec2@M$0A@@0@AEBU10@@Z DD imagerel $LN3
	DD	imagerel $LN3+41
	DD	imagerel $unwind$??$floor@M$0A@Utvec2@glm@@@glm@@YA?AU?$tvec2@M$0A@@0@AEBU10@@Z
pdata	ENDS
;	COMDAT pdata
pdata	SEGMENT
$pdata$??$?GM$0A@@glm@@YA?AU?$tvec2@M$0A@@0@AEBU10@0@Z DD imagerel $LN3
	DD	imagerel $LN3+82
	DD	imagerel $unwind$??$?GM$0A@@glm@@YA?AU?$tvec2@M$0A@@0@AEBU10@0@Z
pdata	ENDS
;	COMDAT pdata
pdata	SEGMENT
$pdata$??$?0HH@?$tvec2@M$0A@@glm@@QEAA@HH@Z DD imagerel $LN3
	DD	imagerel $LN3+53
	DD	imagerel $unwind$??$?0HH@?$tvec2@M$0A@@glm@@QEAA@HH@Z
pdata	ENDS
;	COMDAT pdata
pdata	SEGMENT
$pdata$??$?HM$0A@@glm@@YA?AU?$tvec4@M$0A@@0@AEBU10@0@Z DD imagerel $LN3
	DD	imagerel $LN3+83
	DD	imagerel $unwind$??$?HM$0A@@glm@@YA?AU?$tvec4@M$0A@@0@AEBU10@0@Z
pdata	ENDS
;	COMDAT pdata
pdata	SEGMENT
$pdata$??$?0M$0A@@?$tvec2@M$0A@@glm@@QEAA@AEBU?$tvec4@M$0A@@1@@Z DD imagerel $LN3
	DD	imagerel $LN3+56
	DD	imagerel $unwind$??$?0M$0A@@?$tvec2@M$0A@@glm@@QEAA@AEBU?$tvec4@M$0A@@1@@Z
pdata	ENDS
;	COMDAT pdata
pdata	SEGMENT
$pdata$??$?0MMM$0A@@?$tvec4@M$0A@@glm@@QEAA@AEBU?$tvec2@M$0A@@1@MM@Z DD imagerel $LN3
	DD	imagerel $LN3+100
	DD	imagerel $unwind$??$?0MMM$0A@@?$tvec4@M$0A@@glm@@QEAA@AEBU?$tvec2@M$0A@@1@MM@Z
pdata	ENDS
;	COMDAT pdata
pdata	SEGMENT
$pdata$??$mod@M$0A@Utvec2@glm@@@glm@@YA?AU?$tvec2@M$0A@@0@AEBU10@0@Z DD imagerel $LN3
	DD	imagerel $LN3+51
	DD	imagerel $unwind$??$mod@M$0A@Utvec2@glm@@@glm@@YA?AU?$tvec2@M$0A@@0@AEBU10@0@Z
pdata	ENDS
;	COMDAT pdata
pdata	SEGMENT
$pdata$??$?HM$0A@@glm@@YA?AU?$tvec3@M$0A@@0@MAEBU10@@Z DD imagerel $LN3
	DD	imagerel $LN3+110
	DD	imagerel $unwind$??$?HM$0A@@glm@@YA?AU?$tvec3@M$0A@@0@MAEBU10@@Z
pdata	ENDS
;	COMDAT pdata
pdata	SEGMENT
$pdata$??$permute@M$0A@@detail@glm@@YA?AU?$tvec3@M$0A@@1@AEBU21@@Z DD imagerel $LN3
	DD	imagerel $LN3+101
	DD	imagerel $unwind$??$permute@M$0A@@detail@glm@@YA?AU?$tvec3@M$0A@@1@AEBU21@@Z
pdata	ENDS
;	COMDAT pdata
pdata	SEGMENT
$pdata$??$?HM$0A@@glm@@YA?AU?$tvec3@M$0A@@0@AEBU10@M@Z DD imagerel $LN3
	DD	imagerel $LN3+110
	DD	imagerel $unwind$??$?HM$0A@@glm@@YA?AU?$tvec3@M$0A@@0@AEBU10@M@Z
pdata	ENDS
;	COMDAT pdata
pdata	SEGMENT
$pdata$??$?HM$0A@@glm@@YA?AU?$tvec3@M$0A@@0@AEBU10@0@Z DD imagerel $LN3
	DD	imagerel $LN3+120
	DD	imagerel $unwind$??$?HM$0A@@glm@@YA?AU?$tvec3@M$0A@@0@AEBU10@0@Z
pdata	ENDS
;	COMDAT pdata
pdata	SEGMENT
$pdata$??$?GM$0A@@glm@@YA?AU?$tvec3@M$0A@@0@AEBU10@0@Z DD imagerel $LN3
	DD	imagerel $LN3+120
	DD	imagerel $unwind$??$?GM$0A@@glm@@YA?AU?$tvec3@M$0A@@0@AEBU10@0@Z
pdata	ENDS
;	COMDAT pdata
pdata	SEGMENT
$pdata$??$max@M$0A@Utvec3@glm@@@glm@@YA?AU?$tvec3@M$0A@@0@AEBU10@0@Z DD imagerel $LN3
	DD	imagerel $LN3+51
	DD	imagerel $unwind$??$max@M$0A@Utvec3@glm@@@glm@@YA?AU?$tvec3@M$0A@@0@AEBU10@0@Z
pdata	ENDS
;	COMDAT pdata
pdata	SEGMENT
$pdata$??$?DM$0A@@glm@@YA?AU?$tvec3@M$0A@@0@AEBU10@0@Z DD imagerel $LN3
	DD	imagerel $LN3+120
	DD	imagerel $unwind$??$?DM$0A@@glm@@YA?AU?$tvec3@M$0A@@0@AEBU10@0@Z
pdata	ENDS
;	COMDAT pdata
pdata	SEGMENT
$pdata$??$?DM$0A@@glm@@YA?AU?$tvec3@M$0A@@0@AEBU10@M@Z DD imagerel $LN3
	DD	imagerel $LN3+110
	DD	imagerel $unwind$??$?DM$0A@@glm@@YA?AU?$tvec3@M$0A@@0@AEBU10@M@Z
pdata	ENDS
;	COMDAT pdata
pdata	SEGMENT
$pdata$??$fract@M$0A@Utvec3@glm@@@glm@@YA?AU?$tvec3@M$0A@@0@AEBU10@@Z DD imagerel $LN3
	DD	imagerel $LN3+41
	DD	imagerel $unwind$??$fract@M$0A@Utvec3@glm@@@glm@@YA?AU?$tvec3@M$0A@@0@AEBU10@@Z
pdata	ENDS
;	COMDAT pdata
pdata	SEGMENT
$pdata$??$?DM$0A@@glm@@YA?AU?$tvec3@M$0A@@0@MAEBU10@@Z DD imagerel $LN3
	DD	imagerel $LN3+110
	DD	imagerel $unwind$??$?DM$0A@@glm@@YA?AU?$tvec3@M$0A@@0@MAEBU10@@Z
pdata	ENDS
;	COMDAT pdata
pdata	SEGMENT
$pdata$??$?GM$0A@@glm@@YA?AU?$tvec3@M$0A@@0@AEBU10@M@Z DD imagerel $LN3
	DD	imagerel $LN3+110
	DD	imagerel $unwind$??$?GM$0A@@glm@@YA?AU?$tvec3@M$0A@@0@AEBU10@M@Z
pdata	ENDS
;	COMDAT pdata
pdata	SEGMENT
$pdata$??$abs@M$0A@Utvec3@glm@@@glm@@YA?AU?$tvec3@M$0A@@0@AEBU10@@Z DD imagerel $LN3
	DD	imagerel $LN3+41
	DD	imagerel $unwind$??$abs@M$0A@Utvec3@glm@@@glm@@YA?AU?$tvec3@M$0A@@0@AEBU10@@Z
pdata	ENDS
;	COMDAT pdata
pdata	SEGMENT
$pdata$??$floor@M$0A@Utvec3@glm@@@glm@@YA?AU?$tvec3@M$0A@@0@AEBU10@@Z DD imagerel $LN3
	DD	imagerel $LN3+41
	DD	imagerel $unwind$??$floor@M$0A@Utvec3@glm@@@glm@@YA?AU?$tvec3@M$0A@@0@AEBU10@@Z
pdata	ENDS
;	COMDAT pdata
pdata	SEGMENT
$pdata$??$?GM$0A@@glm@@YA?AU?$tvec3@M$0A@@0@MAEBU10@@Z DD imagerel $LN3
	DD	imagerel $LN3+110
	DD	imagerel $unwind$??$?GM$0A@@glm@@YA?AU?$tvec3@M$0A@@0@MAEBU10@@Z
pdata	ENDS
;	COMDAT pdata
pdata	SEGMENT
$pdata$??$?XM@?$tvec3@M$0A@@glm@@QEAAAEAU01@AEBU01@@Z DD imagerel $LN3
	DD	imagerel $LN3+105
	DD	imagerel $unwind$??$?XM@?$tvec3@M$0A@@glm@@QEAAAEAU01@AEBU01@@Z
pdata	ENDS
;	COMDAT pdata
pdata	SEGMENT
$pdata$??$dot@M$0A@Utvec3@glm@@@glm@@YAMAEBU?$tvec3@M$0A@@0@0@Z DD imagerel $LN3
	DD	imagerel $LN3+36
	DD	imagerel $unwind$??$dot@M$0A@Utvec3@glm@@@glm@@YAMAEBU?$tvec3@M$0A@@0@0@Z
pdata	ENDS
;	COMDAT pdata
pdata	SEGMENT
$pdata$??$?0NN@?$tvec2@M$0A@@glm@@QEAA@NN@Z DD imagerel $LN3
	DD	imagerel $LN3+56
	DD	imagerel $unwind$??$?0NN@?$tvec2@M$0A@@glm@@QEAA@NN@Z
pdata	ENDS
;	COMDAT pdata
pdata	SEGMENT
$pdata$??$?0NNNN@?$tvec4@M$0A@@glm@@QEAA@NNNN@Z DD imagerel $LN3
	DD	imagerel $LN3+94
	DD	imagerel $unwind$??$?0NNNN@?$tvec4@M$0A@@glm@@QEAA@NNNN@Z
pdata	ENDS
;	COMDAT pdata
pdata	SEGMENT
$pdata$??$step@Utvec3@glm@@M$0A@@glm@@YA?AU?$tvec3@M$0A@@0@AEBU10@0@Z DD imagerel $LN3
	DD	imagerel $LN3+51
	DD	imagerel $unwind$??$step@Utvec3@glm@@M$0A@@glm@@YA?AU?$tvec3@M$0A@@0@AEBU10@0@Z
pdata	ENDS
;	COMDAT pdata
pdata	SEGMENT
$pdata$??$min@M$0A@Utvec3@glm@@@glm@@YA?AU?$tvec3@M$0A@@0@AEBU10@0@Z DD imagerel $LN3
	DD	imagerel $LN3+51
	DD	imagerel $unwind$??$min@M$0A@Utvec3@glm@@@glm@@YA?AU?$tvec3@M$0A@@0@AEBU10@0@Z
pdata	ENDS
;	COMDAT pdata
pdata	SEGMENT
$pdata$??$mod289@U?$tvec3@M$0A@@glm@@@detail@glm@@YA?AU?$tvec3@M$0A@@1@AEBU21@@Z DD imagerel $LN3
	DD	imagerel $LN3+205
	DD	imagerel $unwind$??$mod289@U?$tvec3@M$0A@@glm@@@detail@glm@@YA?AU?$tvec3@M$0A@@1@AEBU21@@Z
pdata	ENDS
;	COMDAT pdata
pdata	SEGMENT
$pdata$??$?HM$0A@@glm@@YA?AU?$tvec4@M$0A@@0@MAEBU10@@Z DD imagerel $LN3
	DD	imagerel $LN3+85
	DD	imagerel $unwind$??$?HM$0A@@glm@@YA?AU?$tvec4@M$0A@@0@MAEBU10@@Z
pdata	ENDS
;	COMDAT pdata
pdata	SEGMENT
$pdata$??$permute@M$0A@@detail@glm@@YA?AU?$tvec4@M$0A@@1@AEBU21@@Z DD imagerel $LN3
	DD	imagerel $LN3+101
	DD	imagerel $unwind$??$permute@M$0A@@detail@glm@@YA?AU?$tvec4@M$0A@@1@AEBU21@@Z
pdata	ENDS
;	COMDAT pdata
pdata	SEGMENT
$pdata$??$?HM$0A@@glm@@YA?AU?$tvec4@M$0A@@0@AEBU10@M@Z DD imagerel $LN3
	DD	imagerel $LN3+85
	DD	imagerel $unwind$??$?HM$0A@@glm@@YA?AU?$tvec4@M$0A@@0@AEBU10@M@Z
pdata	ENDS
;	COMDAT pdata
pdata	SEGMENT
$pdata$??$floor@M$0A@Utvec4@glm@@@glm@@YA?AU?$tvec4@M$0A@@0@AEBU10@@Z DD imagerel $LN3
	DD	imagerel $LN3+41
	DD	imagerel $unwind$??$floor@M$0A@Utvec4@glm@@@glm@@YA?AU?$tvec4@M$0A@@0@AEBU10@@Z
pdata	ENDS
;	COMDAT pdata
pdata	SEGMENT
$pdata$??$?DM$0A@@glm@@YA?AU?$tvec4@M$0A@@0@MAEBU10@@Z DD imagerel $LN3
	DD	imagerel $LN3+85
	DD	imagerel $unwind$??$?DM$0A@@glm@@YA?AU?$tvec4@M$0A@@0@MAEBU10@@Z
pdata	ENDS
;	COMDAT pdata
pdata	SEGMENT
$pdata$??$?GM$0A@@glm@@YA?AU?$tvec4@M$0A@@0@AEBU10@0@Z DD imagerel $LN3
	DD	imagerel $LN3+83
	DD	imagerel $unwind$??$?GM$0A@@glm@@YA?AU?$tvec4@M$0A@@0@AEBU10@0@Z
pdata	ENDS
;	COMDAT pdata
pdata	SEGMENT
$pdata$??$abs@M$0A@Utvec4@glm@@@glm@@YA?AU?$tvec4@M$0A@@0@AEBU10@@Z DD imagerel $LN3
	DD	imagerel $LN3+41
	DD	imagerel $unwind$??$abs@M$0A@Utvec4@glm@@@glm@@YA?AU?$tvec4@M$0A@@0@AEBU10@@Z
pdata	ENDS
;	COMDAT pdata
pdata	SEGMENT
$pdata$??$?GM$0A@@glm@@YA?AU?$tvec4@M$0A@@0@MAEBU10@@Z DD imagerel $LN3
	DD	imagerel $LN3+78
	DD	imagerel $unwind$??$?GM$0A@@glm@@YA?AU?$tvec4@M$0A@@0@MAEBU10@@Z
pdata	ENDS
;	COMDAT pdata
pdata	SEGMENT
$pdata$??$step@Utvec4@glm@@M$0A@@glm@@YA?AU?$tvec4@M$0A@@0@AEBU10@0@Z DD imagerel $LN3
	DD	imagerel $LN3+51
	DD	imagerel $unwind$??$step@Utvec4@glm@@M$0A@@glm@@YA?AU?$tvec4@M$0A@@0@AEBU10@0@Z
pdata	ENDS
;	COMDAT pdata
pdata	SEGMENT
$pdata$??$?GM$0A@@glm@@YA?AU?$tvec4@M$0A@@0@AEBU10@@Z DD imagerel $LN3
	DD	imagerel $LN3+69
	DD	imagerel $unwind$??$?GM$0A@@glm@@YA?AU?$tvec4@M$0A@@0@AEBU10@@Z
pdata	ENDS
;	COMDAT pdata
pdata	SEGMENT
$pdata$??$?DM$0A@@glm@@YA?AU?$tvec4@M$0A@@0@AEBU10@0@Z DD imagerel $LN3
	DD	imagerel $LN3+83
	DD	imagerel $unwind$??$?DM$0A@@glm@@YA?AU?$tvec4@M$0A@@0@AEBU10@0@Z
pdata	ENDS
;	COMDAT pdata
pdata	SEGMENT
$pdata$??$taylorInvSqrt@M$0A@@detail@glm@@YA?AU?$tvec4@M$0A@@1@AEBU21@@Z DD imagerel $LN3
	DD	imagerel $LN3+70
	DD	imagerel $unwind$??$taylorInvSqrt@M$0A@@detail@glm@@YA?AU?$tvec4@M$0A@@1@AEBU21@@Z
pdata	ENDS
;	COMDAT pdata
pdata	SEGMENT
$pdata$??$?XM@?$tvec3@M$0A@@glm@@QEAAAEAU01@M@Z DD imagerel $LN3
	DD	imagerel $LN3+95
	DD	imagerel $unwind$??$?XM@?$tvec3@M$0A@@glm@@QEAAAEAU01@M@Z
pdata	ENDS
;	COMDAT pdata
pdata	SEGMENT
$pdata$??$max@M$0A@Utvec4@glm@@@glm@@YA?AU?$tvec4@M$0A@@0@AEBU10@0@Z DD imagerel $LN3
	DD	imagerel $LN3+51
	DD	imagerel $unwind$??$max@M$0A@Utvec4@glm@@@glm@@YA?AU?$tvec4@M$0A@@0@AEBU10@0@Z
pdata	ENDS
;	COMDAT pdata
pdata	SEGMENT
$pdata$??$dot@M$0A@Utvec4@glm@@@glm@@YAMAEBU?$tvec4@M$0A@@0@0@Z DD imagerel $LN3
	DD	imagerel $LN3+36
	DD	imagerel $unwind$??$dot@M$0A@Utvec4@glm@@@glm@@YAMAEBU?$tvec4@M$0A@@0@0@Z
pdata	ENDS
;	COMDAT pdata
pdata	SEGMENT
$pdata$??$?0MM$0A@@?$tvec4@M$0A@@glm@@QEAA@MAEBU?$tvec3@M$0A@@1@@Z DD imagerel $LN3
	DD	imagerel $LN3+98
	DD	imagerel $unwind$??$?0MM$0A@@?$tvec4@M$0A@@glm@@QEAA@MAEBU?$tvec3@M$0A@@1@@Z
pdata	ENDS
;	COMDAT pdata
pdata	SEGMENT
$pdata$??$?GM$0A@@glm@@YA?AU?$tvec4@M$0A@@0@AEBU10@M@Z DD imagerel $LN3
	DD	imagerel $LN3+85
	DD	imagerel $unwind$??$?GM$0A@@glm@@YA?AU?$tvec4@M$0A@@0@AEBU10@M@Z
pdata	ENDS
;	COMDAT pdata
pdata	SEGMENT
$pdata$??$mod@M$0A@Utvec4@glm@@@glm@@YA?AU?$tvec4@M$0A@@0@AEBU10@0@Z DD imagerel $LN3
	DD	imagerel $LN3+51
	DD	imagerel $unwind$??$mod@M$0A@Utvec4@glm@@@glm@@YA?AU?$tvec4@M$0A@@0@AEBU10@0@Z
pdata	ENDS
;	COMDAT pdata
pdata	SEGMENT
$pdata$??$permute@M@detail@glm@@YAMAEBM@Z DD imagerel $LN3
	DD	imagerel $LN3+66
	DD	imagerel $unwind$??$permute@M@detail@glm@@YAMAEBM@Z
pdata	ENDS
;	COMDAT pdata
pdata	SEGMENT
$pdata$??$grad4@M$0A@@gtc@glm@@YA?AU?$tvec4@M$0A@@1@AEBMAEBU21@@Z DD imagerel $LN3
	DD	imagerel $LN3+623
	DD	imagerel $unwind$??$grad4@M$0A@@gtc@glm@@YA?AU?$tvec4@M$0A@@1@AEBMAEBU21@@Z
pdata	ENDS
;	COMDAT pdata
pdata	SEGMENT
$pdata$??$taylorInvSqrt@M@detail@glm@@YAMAEBM@Z DD imagerel $LN3
	DD	imagerel $LN3+48
	DD	imagerel $unwind$??$taylorInvSqrt@M@detail@glm@@YAMAEBM@Z
pdata	ENDS
;	COMDAT pdata
pdata	SEGMENT
$pdata$??$?GM$0A@@glm@@YA?AU?$tvec2@M$0A@@0@MAEBU10@@Z DD imagerel $LN3
	DD	imagerel $LN3+76
	DD	imagerel $unwind$??$?GM$0A@@glm@@YA?AU?$tvec2@M$0A@@0@MAEBU10@@Z
pdata	ENDS
;	COMDAT pdata
pdata	SEGMENT
$pdata$??$max@M$0A@Utvec2@glm@@@glm@@YA?AU?$tvec2@M$0A@@0@AEBU10@0@Z DD imagerel $LN3
	DD	imagerel $LN3+51
	DD	imagerel $unwind$??$max@M$0A@Utvec2@glm@@@glm@@YA?AU?$tvec2@M$0A@@0@AEBU10@0@Z
pdata	ENDS
;	COMDAT pdata
pdata	SEGMENT
$pdata$??$?DM$0A@@glm@@YA?AU?$tvec2@M$0A@@0@AEBU10@0@Z DD imagerel $LN3
	DD	imagerel $LN3+82
	DD	imagerel $unwind$??$?DM$0A@@glm@@YA?AU?$tvec2@M$0A@@0@AEBU10@0@Z
pdata	ENDS
;	COMDAT pdata
pdata	SEGMENT
$pdata$??$fract@M$0A@Utvec4@glm@@@glm@@YA?AU?$tvec4@M$0A@@0@AEBU10@@Z DD imagerel $LN3
	DD	imagerel $LN3+41
	DD	imagerel $unwind$??$fract@M$0A@Utvec4@glm@@@glm@@YA?AU?$tvec4@M$0A@@0@AEBU10@@Z
pdata	ENDS
;	COMDAT pdata
pdata	SEGMENT
$pdata$??$?KM$0A@@glm@@YA?AU?$tvec4@M$0A@@0@AEBU10@M@Z DD imagerel $LN3
	DD	imagerel $LN3+85
	DD	imagerel $unwind$??$?KM$0A@@glm@@YA?AU?$tvec4@M$0A@@0@AEBU10@M@Z
pdata	ENDS
;	COMDAT pdata
pdata	SEGMENT
$pdata$??$?XM@?$tvec2@M$0A@@glm@@QEAAAEAU01@M@Z DD imagerel $LN3
	DD	imagerel $LN3+69
	DD	imagerel $unwind$??$?XM@?$tvec2@M$0A@@glm@@QEAAAEAU01@M@Z
pdata	ENDS
;	COMDAT pdata
pdata	SEGMENT
$pdata$??$fade@M$0A@@detail@glm@@YA?AU?$tvec2@M$0A@@1@AEBU21@@Z DD imagerel $LN3
	DD	imagerel $LN3+173
	DD	imagerel $unwind$??$fade@M$0A@@detail@glm@@YA?AU?$tvec2@M$0A@@1@AEBU21@@Z
pdata	ENDS
;	COMDAT pdata
pdata	SEGMENT
$pdata$??$mix@MM$0A@Utvec2@glm@@@glm@@YA?AU?$tvec2@M$0A@@0@AEBU10@0M@Z DD imagerel $LN3
	DD	imagerel $LN3+62
	DD	imagerel $unwind$??$mix@MM$0A@Utvec2@glm@@@glm@@YA?AU?$tvec2@M$0A@@0@AEBU10@0M@Z
pdata	ENDS
;	COMDAT pdata
pdata	SEGMENT
$pdata$??$mix@MM@glm@@YAMMMM@Z DD imagerel $LN3
	DD	imagerel $LN3+49
	DD	imagerel $unwind$??$mix@MM@glm@@YAMMMM@Z
pdata	ENDS
;	COMDAT pdata
pdata	SEGMENT
$pdata$??$?0MM$0A@@?$tvec4@M$0A@@glm@@QEAA@AEBU?$tvec2@M$0A@@1@0@Z DD imagerel $LN3
	DD	imagerel $LN3+100
	DD	imagerel $unwind$??$?0MM$0A@@?$tvec4@M$0A@@glm@@QEAA@AEBU?$tvec2@M$0A@@1@0@Z
pdata	ENDS
;	COMDAT pdata
pdata	SEGMENT
$pdata$??$step@Utvec4@glm@@M$0A@@glm@@YA?AU?$tvec4@M$0A@@0@MAEBU10@@Z DD imagerel $LN3
	DD	imagerel $LN3+66
	DD	imagerel $unwind$??$step@Utvec4@glm@@M$0A@@glm@@YA?AU?$tvec4@M$0A@@0@MAEBU10@@Z
pdata	ENDS
;	COMDAT pdata
pdata	SEGMENT
$pdata$??$?ZM@?$tvec4@M$0A@@glm@@QEAAAEAU01@AEBU01@@Z DD imagerel $LN3
	DD	imagerel $LN3+83
	DD	imagerel $unwind$??$?ZM@?$tvec4@M$0A@@glm@@QEAAAEAU01@AEBU01@@Z
pdata	ENDS
;	COMDAT pdata
pdata	SEGMENT
$pdata$??$fade@M$0A@@detail@glm@@YA?AU?$tvec3@M$0A@@1@AEBU21@@Z DD imagerel $LN3
	DD	imagerel $LN3+194
	DD	imagerel $unwind$??$fade@M$0A@@detail@glm@@YA?AU?$tvec3@M$0A@@1@AEBU21@@Z
pdata	ENDS
;	COMDAT pdata
pdata	SEGMENT
$pdata$??$mix@MM$0A@Utvec4@glm@@@glm@@YA?AU?$tvec4@M$0A@@0@AEBU10@0M@Z DD imagerel $LN3
	DD	imagerel $LN3+62
	DD	imagerel $unwind$??$mix@MM$0A@Utvec4@glm@@@glm@@YA?AU?$tvec4@M$0A@@0@AEBU10@0M@Z
pdata	ENDS
;	COMDAT pdata
pdata	SEGMENT
$pdata$??$fade@M$0A@@detail@glm@@YA?AU?$tvec4@M$0A@@1@AEBU21@@Z DD imagerel $LN3
	DD	imagerel $LN3+206
	DD	imagerel $unwind$??$fade@M$0A@@detail@glm@@YA?AU?$tvec4@M$0A@@1@AEBU21@@Z
pdata	ENDS
;	COMDAT pdata
pdata	SEGMENT
$pdata$??$mod@M$0A@Utvec3@glm@@@glm@@YA?AU?$tvec3@M$0A@@0@AEBU10@0@Z DD imagerel $LN3
	DD	imagerel $LN3+51
	DD	imagerel $unwind$??$mod@M$0A@Utvec3@glm@@@glm@@YA?AU?$tvec3@M$0A@@0@AEBU10@0@Z
pdata	ENDS
;	COMDAT pdata
pdata	SEGMENT
$pdata$??$_Deallocate_plain@V?$allocator@U_Container_proxy@std@@@std@@@std@@YAXAEAV?$allocator@U_Container_proxy@std@@@0@QEAU_Container_proxy@0@@Z DD imagerel $LN3
	DD	imagerel $LN3+43
	DD	imagerel $unwind$??$_Deallocate_plain@V?$allocator@U_Container_proxy@std@@@std@@@std@@YAXAEAV?$allocator@U_Container_proxy@std@@@0@QEAU_Container_proxy@0@@Z
pdata	ENDS
;	COMDAT pdata
pdata	SEGMENT
$pdata$??$_Resize_reallocate@U_Value_init_tag@std@@@?$vector@Vimage2D@gli@@V?$allocator@Vimage2D@gli@@@std@@@std@@AEAAX_KAEBU_Value_init_tag@1@@Z DD imagerel $LN11
	DD	imagerel $LN11+342
	DD	imagerel $unwind$??$_Resize_reallocate@U_Value_init_tag@std@@@?$vector@Vimage2D@gli@@V?$allocator@Vimage2D@gli@@@std@@@std@@AEAAX_KAEBU_Value_init_tag@1@@Z
pdata	ENDS
;	COMDAT pdata
pdata	SEGMENT
$pdata$?catch$0@?0???$_Resize_reallocate@U_Value_init_tag@std@@@?$vector@Vimage2D@gli@@V?$allocator@Vimage2D@gli@@@std@@@std@@AEAAX_KAEBU_Value_init_tag@1@@Z@4HA DD imagerel ?catch$0@?0???$_Resize_reallocate@U_Value_init_tag@std@@@?$vector@Vimage2D@gli@@V?$allocator@Vimage2D@gli@@@std@@@std@@AEAAX_KAEBU_Value_init_tag@1@@Z@4HA
	DD	imagerel ?catch$0@?0???$_Resize_reallocate@U_Value_init_tag@std@@@?$vector@Vimage2D@gli@@V?$allocator@Vimage2D@gli@@@std@@@std@@AEAAX_KAEBU_Value_init_tag@1@@Z@4HA+78
	DD	imagerel $unwind$?catch$0@?0???$_Resize_reallocate@U_Value_init_tag@std@@@?$vector@Vimage2D@gli@@V?$allocator@Vimage2D@gli@@@std@@@std@@AEAAX_KAEBU_Value_init_tag@1@@Z@4HA
pdata	ENDS
;	COMDAT pdata
pdata	SEGMENT
$pdata$??$_Uninitialized_value_construct_n@V?$allocator@Vimage2D@gli@@@std@@@std@@YAPEAVimage2D@gli@@PEAV12@_KAEAV?$allocator@Vimage2D@gli@@@0@@Z DD imagerel $LN7
	DD	imagerel $LN7+155
	DD	imagerel $unwind$??$_Uninitialized_value_construct_n@V?$allocator@Vimage2D@gli@@@std@@@std@@YAPEAVimage2D@gli@@PEAV12@_KAEAV?$allocator@Vimage2D@gli@@@0@@Z
pdata	ENDS
;	COMDAT pdata
pdata	SEGMENT
$pdata$?dtor$0@?0???$_Uninitialized_value_construct_n@V?$allocator@Vimage2D@gli@@@std@@@std@@YAPEAVimage2D@gli@@PEAV12@_KAEAV?$allocator@Vimage2D@gli@@@0@@Z@4HA DD imagerel ?dtor$0@?0???$_Uninitialized_value_construct_n@V?$allocator@Vimage2D@gli@@@std@@@std@@YAPEAVimage2D@gli@@PEAV12@_KAEAV?$allocator@Vimage2D@gli@@@0@@Z@4HA
	DD	imagerel ?dtor$0@?0???$_Uninitialized_value_construct_n@V?$allocator@Vimage2D@gli@@@std@@@std@@YAPEAVimage2D@gli@@PEAV12@_KAEAV?$allocator@Vimage2D@gli@@@0@@Z@4HA+35
	DD	imagerel $unwind$?dtor$0@?0???$_Uninitialized_value_construct_n@V?$allocator@Vimage2D@gli@@@std@@@std@@YAPEAVimage2D@gli@@PEAV12@_KAEAV?$allocator@Vimage2D@gli@@@0@@Z@4HA
pdata	ENDS
;	COMDAT pdata
pdata	SEGMENT
$pdata$??$_Uninitialized_copy@PEAVimage2D@gli@@V?$allocator@Vimage2D@gli@@@std@@@std@@YAPEAVimage2D@gli@@QEAV12@0PEAV12@AEAV?$allocator@Vimage2D@gli@@@0@@Z DD imagerel $LN7
	DD	imagerel $LN7+206
	DD	imagerel $unwind$??$_Uninitialized_copy@PEAVimage2D@gli@@V?$allocator@Vimage2D@gli@@@std@@@std@@YAPEAVimage2D@gli@@QEAV12@0PEAV12@AEAV?$allocator@Vimage2D@gli@@@0@@Z
pdata	ENDS
;	COMDAT pdata
pdata	SEGMENT
$pdata$?dtor$0@?0???$_Uninitialized_copy@PEAVimage2D@gli@@V?$allocator@Vimage2D@gli@@@std@@@std@@YAPEAVimage2D@gli@@QEAV12@0PEAV12@AEAV?$allocator@Vimage2D@gli@@@0@@Z@4HA DD imagerel ?dtor$0@?0???$_Uninitialized_copy@PEAVimage2D@gli@@V?$allocator@Vimage2D@gli@@@std@@@std@@YAPEAVimage2D@gli@@QEAV12@0PEAV12@AEAV?$allocator@Vimage2D@gli@@@0@@Z@4HA
	DD	imagerel ?dtor$0@?0???$_Uninitialized_copy@PEAVimage2D@gli@@V?$allocator@Vimage2D@gli@@@std@@@std@@YAPEAVimage2D@gli@@QEAV12@0PEAV12@AEAV?$allocator@Vimage2D@gli@@@0@@Z@4HA+35
	DD	imagerel $unwind$?dtor$0@?0???$_Uninitialized_copy@PEAVimage2D@gli@@V?$allocator@Vimage2D@gli@@@std@@@std@@YAPEAVimage2D@gli@@QEAV12@0PEAV12@AEAV?$allocator@Vimage2D@gli@@@0@@Z@4HA
pdata	ENDS
;	COMDAT pdata
pdata	SEGMENT
$pdata$??$_Adl_verify_range@PEAEPEAE@std@@YAXAEBQEAE0@Z DD imagerel $LN3
	DD	imagerel $LN3+42
	DD	imagerel $unwind$??$_Adl_verify_range@PEAEPEAE@std@@YAXAEBQEAE0@Z
pdata	ENDS
;	COMDAT pdata
pdata	SEGMENT
$pdata$??$_Get_unwrapped@AEAPEAE@std@@YA?A_TAEAPEAE@Z DD imagerel $LN3
	DD	imagerel $LN3+16
	DD	imagerel $unwind$??$_Get_unwrapped@AEAPEAE@std@@YA?A_TAEAPEAE@Z
pdata	ENDS
;	COMDAT pdata
pdata	SEGMENT
$pdata$??$_Assign_range@PEAE@?$vector@EV?$allocator@E@std@@@std@@AEAAXPEAE0Uforward_iterator_tag@1@@Z DD imagerel $LN6
	DD	imagerel $LN6+469
	DD	imagerel $unwind$??$_Assign_range@PEAE@?$vector@EV?$allocator@E@std@@@std@@AEAAXPEAE0Uforward_iterator_tag@1@@Z
pdata	ENDS
;	COMDAT pdata
pdata	SEGMENT
$pdata$??$forward@V?$allocator@E@std@@@std@@YA$$QEAV?$allocator@E@0@AEAV10@@Z DD imagerel $LN3
	DD	imagerel $LN3+13
	DD	imagerel $unwind$??$forward@V?$allocator@E@std@@@std@@YA$$QEAV?$allocator@E@0@AEAV10@@Z
pdata	ENDS
;	COMDAT pdata
pdata	SEGMENT
$pdata$??1?$_Tidy_guard@V?$vector@EV?$allocator@E@std@@@std@@@std@@QEAA@XZ DD imagerel $LN4
	DD	imagerel $LN4+40
	DD	imagerel $unwind$??1?$_Tidy_guard@V?$vector@EV?$allocator@E@std@@@std@@@std@@QEAA@XZ
pdata	ENDS
;	COMDAT pdata
pdata	SEGMENT
$pdata$??$forward@AEBQEAE@std@@YAAEBQEAEAEBQEAE@Z DD imagerel $LN3
	DD	imagerel $LN3+13
	DD	imagerel $unwind$??$forward@AEBQEAE@std@@YAAEBQEAEAEBQEAE@Z
pdata	ENDS
;	COMDAT pdata
pdata	SEGMENT
$pdata$??$_Uninitialized_copy@PEAEV?$allocator@E@std@@@std@@YAPEAEQEAE0PEAEAEAV?$allocator@E@0@@Z DD imagerel $LN7
	DD	imagerel $LN7+283
	DD	imagerel $unwind$??$_Uninitialized_copy@PEAEV?$allocator@E@std@@@std@@YAPEAEQEAE0PEAEAEAV?$allocator@E@0@@Z
pdata	ENDS
;	COMDAT pdata
pdata	SEGMENT
$pdata$?dtor$0@?0???$_Uninitialized_copy@PEAEV?$allocator@E@std@@@std@@YAPEAEQEAE0PEAEAEAV?$allocator@E@0@@Z@4HA DD imagerel ?dtor$0@?0???$_Uninitialized_copy@PEAEV?$allocator@E@std@@@std@@YAPEAEQEAE0PEAEAEAV?$allocator@E@0@@Z@4HA
	DD	imagerel ?dtor$0@?0???$_Uninitialized_copy@PEAEV?$allocator@E@std@@@std@@YAPEAEQEAE0PEAEAEAV?$allocator@E@0@@Z@4HA+35
	DD	imagerel $unwind$?dtor$0@?0???$_Uninitialized_copy@PEAEV?$allocator@E@std@@@std@@YAPEAEQEAE0PEAEAEAV?$allocator@E@0@@Z@4HA
pdata	ENDS
;	COMDAT pdata
pdata	SEGMENT
$pdata$??$forward@AEBV?$allocator@E@std@@@std@@YAAEBV?$allocator@E@0@AEBV10@@Z DD imagerel $LN3
	DD	imagerel $LN3+13
	DD	imagerel $unwind$??$forward@AEBV?$allocator@E@std@@@std@@YAAEBV?$allocator@E@0@AEBV10@@Z
pdata	ENDS
;	COMDAT pdata
pdata	SEGMENT
$pdata$??$_Uninitialized_value_construct_n@V?$allocator@E@std@@@std@@YAPEAEPEAE_KAEAV?$allocator@E@0@@Z DD imagerel $LN7
	DD	imagerel $LN7+219
	DD	imagerel $unwind$??$_Uninitialized_value_construct_n@V?$allocator@E@std@@@std@@YAPEAEPEAE_KAEAV?$allocator@E@0@@Z
pdata	ENDS
;	COMDAT pdata
pdata	SEGMENT
$pdata$?dtor$0@?0???$_Uninitialized_value_construct_n@V?$allocator@E@std@@@std@@YAPEAEPEAE_KAEAV?$allocator@E@0@@Z@4HA DD imagerel ?dtor$0@?0???$_Uninitialized_value_construct_n@V?$allocator@E@std@@@std@@YAPEAEPEAE_KAEAV?$allocator@E@0@@Z@4HA
	DD	imagerel ?dtor$0@?0???$_Uninitialized_value_construct_n@V?$allocator@E@std@@@std@@YAPEAEPEAE_KAEAV?$allocator@E@0@@Z@4HA+35
	DD	imagerel $unwind$?dtor$0@?0???$_Uninitialized_value_construct_n@V?$allocator@E@std@@@std@@YAPEAEPEAE_KAEAV?$allocator@E@0@@Z@4HA
pdata	ENDS
;	COMDAT pdata
pdata	SEGMENT
$pdata$??$addressof@U_Container_proxy@std@@@std@@YAPEAU_Container_proxy@0@AEAU10@@Z DD imagerel $LN3
	DD	imagerel $LN3+13
	DD	imagerel $unwind$??$addressof@U_Container_proxy@std@@@std@@YAPEAU_Container_proxy@0@AEAU10@@Z
pdata	ENDS
;	COMDAT pdata
pdata	SEGMENT
$pdata$??$_Voidify_iter@PEAU_Container_proxy@std@@@std@@YAPEAXPEAU_Container_proxy@0@@Z DD imagerel $LN3
	DD	imagerel $LN3+13
	DD	imagerel $unwind$??$_Voidify_iter@PEAU_Container_proxy@std@@@std@@YAPEAXPEAU_Container_proxy@0@@Z
pdata	ENDS
;	COMDAT pdata
pdata	SEGMENT
$pdata$??$forward@PEAU_Container_base12@std@@@std@@YA$$QEAPEAU_Container_base12@0@AEAPEAU10@@Z DD imagerel $LN3
	DD	imagerel $LN3+13
	DD	imagerel $unwind$??$forward@PEAU_Container_base12@std@@@std@@YA$$QEAPEAU_Container_base12@0@AEAPEAU10@@Z
pdata	ENDS
;	COMDAT pdata
pdata	SEGMENT
$pdata$??$addressof@PEAD@std@@YAPEAPEADAEAPEAD@Z DD imagerel $LN3
	DD	imagerel $LN3+13
	DD	imagerel $unwind$??$addressof@PEAD@std@@YAPEAPEADAEAPEAD@Z
pdata	ENDS
;	COMDAT pdata
pdata	SEGMENT
$pdata$??$_Voidify_iter@PEAPEAD@std@@YAPEAXPEAPEAD@Z DD imagerel $LN3
	DD	imagerel $LN3+13
	DD	imagerel $unwind$??$_Voidify_iter@PEAPEAD@std@@YAPEAXPEAPEAD@Z
pdata	ENDS
;	COMDAT pdata
pdata	SEGMENT
$pdata$??$forward@AEBQEAD@std@@YAAEBQEADAEBQEAD@Z DD imagerel $LN3
	DD	imagerel $LN3+13
	DD	imagerel $unwind$??$forward@AEBQEAD@std@@YAAEBQEADAEBQEAD@Z
pdata	ENDS
;	COMDAT pdata
pdata	SEGMENT
$pdata$??$_Unfancy@Vimage2D@gli@@@std@@YAPEAVimage2D@gli@@PEAV12@@Z DD imagerel $LN3
	DD	imagerel $LN3+13
	DD	imagerel $unwind$??$_Unfancy@Vimage2D@gli@@@std@@YAPEAVimage2D@gli@@PEAV12@@Z
pdata	ENDS
;	COMDAT pdata
pdata	SEGMENT
$pdata$??$destroy@Vimage2D@gli@@@?$_Default_allocator_traits@V?$allocator@Vimage2D@gli@@@std@@@std@@SAXAEAV?$allocator@Vimage2D@gli@@@1@QEAVimage2D@gli@@@Z DD imagerel $LN3
	DD	imagerel $LN3+33
	DD	imagerel $unwind$??$destroy@Vimage2D@gli@@@?$_Default_allocator_traits@V?$allocator@Vimage2D@gli@@@std@@@std@@SAXAEAV?$allocator@Vimage2D@gli@@@1@QEAVimage2D@gli@@@Z
pdata	ENDS
;	COMDAT pdata
pdata	SEGMENT
$pdata$??$_Allocate_manually_vector_aligned@U_Default_allocate_traits@std@@@std@@YAPEAX_K@Z DD imagerel $LN13
	DD	imagerel $LN13+259
	DD	imagerel $unwind$??$_Allocate_manually_vector_aligned@U_Default_allocate_traits@std@@@std@@YAPEAX_K@Z
pdata	ENDS
;	COMDAT pdata
pdata	SEGMENT
$pdata$??$exchange@PEAV_Facet_base@std@@$$T@std@@YAPEAV_Facet_base@0@AEAPEAV10@$$QEA$$T@Z DD imagerel $LN3
	DD	imagerel $LN3+53
	DD	imagerel $unwind$??$exchange@PEAV_Facet_base@std@@$$T@std@@YAPEAV_Facet_base@0@AEAPEAV10@$$QEA$$T@Z
pdata	ENDS
;	COMDAT pdata
pdata	SEGMENT
$pdata$?call@?$functor2@I$0A@Utvec2@glm@@@detail@glm@@SA?AU?$tvec2@I$0A@@3@P6AIII@ZAEBU43@1@Z DD imagerel $LN3
	DD	imagerel $LN3+97
	DD	imagerel $unwind$?call@?$functor2@I$0A@Utvec2@glm@@@detail@glm@@SA?AU?$tvec2@I$0A@@3@P6AIII@ZAEBU43@1@Z
pdata	ENDS
;	COMDAT pdata
pdata	SEGMENT
$pdata$??$max@I@glm@@YAIII@Z DD imagerel $LN5
	DD	imagerel $LN5+48
	DD	imagerel $unwind$??$max@I@glm@@YAIII@Z
pdata	ENDS
;	COMDAT pdata
pdata	SEGMENT
$pdata$?call@?$functor1@MM$0A@Utvec4@glm@@@detail@glm@@SA?AU?$tvec4@M$0A@@3@P6AMM@ZAEBU43@@Z DD imagerel $LN3
	DD	imagerel $LN3+147
	DD	imagerel $unwind$?call@?$functor1@MM$0A@Utvec4@glm@@@detail@glm@@SA?AU?$tvec4@M$0A@@3@P6AMM@ZAEBU43@@Z
pdata	ENDS
;	COMDAT pdata
pdata	SEGMENT
$pdata$??$min@M$0A@Utvec4@glm@@@glm@@YA?AU?$tvec4@M$0A@@0@AEBU10@0@Z DD imagerel $LN3
	DD	imagerel $LN3+51
	DD	imagerel $unwind$??$min@M$0A@Utvec4@glm@@@glm@@YA?AU?$tvec4@M$0A@@0@AEBU10@0@Z
pdata	ENDS
;	COMDAT pdata
pdata	SEGMENT
$pdata$?call@?$functor1@MM$0A@Utvec2@glm@@@detail@glm@@SA?AU?$tvec2@M$0A@@3@P6AMM@ZAEBU43@@Z DD imagerel $LN3
	DD	imagerel $LN3+86
	DD	imagerel $unwind$?call@?$functor1@MM$0A@Utvec2@glm@@@detail@glm@@SA?AU?$tvec2@M$0A@@3@P6AMM@ZAEBU43@@Z
pdata	ENDS
;	COMDAT pdata
pdata	SEGMENT
$pdata$??$_Get_size_of_n@$0DA@@std@@YA_K_K@Z DD imagerel $LN4
	DD	imagerel $LN4+64
	DD	imagerel $unwind$??$_Get_size_of_n@$0DA@@std@@YA_K_K@Z
pdata	ENDS
;	COMDAT pdata
pdata	SEGMENT
$pdata$?call@?$compute_vec4_mul@M$0A@$0A@@detail@glm@@SA?AU?$tvec4@M$0A@@3@AEBU43@0@Z DD imagerel $LN3
	DD	imagerel $LN3+143
	DD	imagerel $unwind$?call@?$compute_vec4_mul@M$0A@$0A@@detail@glm@@SA?AU?$tvec4@M$0A@@3@AEBU43@0@Z
pdata	ENDS
;	COMDAT pdata
pdata	SEGMENT
$pdata$??$?0AEAPEAV_Facet_base@std@@@?$_Compressed_pair@U?$default_delete@V_Facet_base@std@@@std@@PEAV_Facet_base@2@$00@std@@QEAA@U_Zero_then_variadic_args_t@1@AEAPEAV_Facet_base@1@@Z DD imagerel $LN3
	DD	imagerel $LN3+51
	DD	imagerel $unwind$??$?0AEAPEAV_Facet_base@std@@@?$_Compressed_pair@U?$default_delete@V_Facet_base@std@@@std@@PEAV_Facet_base@2@$00@std@@QEAA@U_Zero_then_variadic_args_t@1@AEAPEAV_Facet_base@1@@Z
pdata	ENDS
;	COMDAT pdata
pdata	SEGMENT
$pdata$?call@?$compute_dot@Utvec2@glm@@M$0A@$0A@@detail@glm@@SAMAEBU?$tvec2@M$0A@@3@0@Z DD imagerel $LN3
	DD	imagerel $LN3+102
	DD	imagerel $unwind$?call@?$compute_dot@Utvec2@glm@@M$0A@$0A@@detail@glm@@SAMAEBU?$tvec2@M$0A@@3@0@Z
pdata	ENDS
;	COMDAT pdata
pdata	SEGMENT
$pdata$?call@?$compute_floor@M$0A@Utvec2@glm@@$0A@@detail@glm@@SA?AU?$tvec2@M$0A@@3@AEBU43@@Z DD imagerel $LN3
	DD	imagerel $LN3+48
	DD	imagerel $unwind$?call@?$compute_floor@M$0A@Utvec2@glm@@$0A@@detail@glm@@SA?AU?$tvec2@M$0A@@3@AEBU43@@Z
pdata	ENDS
;	COMDAT pdata
pdata	SEGMENT
$pdata$??$?YM@?$tvec4@M$0A@@glm@@QEAAAEAU01@AEBU01@@Z DD imagerel $LN3
	DD	imagerel $LN3+83
	DD	imagerel $unwind$??$?YM@?$tvec4@M$0A@@glm@@QEAAAEAU01@AEBU01@@Z
pdata	ENDS
;	COMDAT pdata
pdata	SEGMENT
$pdata$?call@?$compute_mod@M$0A@Utvec2@glm@@$0A@@detail@glm@@SA?AU?$tvec2@M$0A@@3@AEBU43@0@Z DD imagerel $LN3
	DD	imagerel $LN3+100
	DD	imagerel $unwind$?call@?$compute_mod@M$0A@Utvec2@glm@@$0A@@detail@glm@@SA?AU?$tvec2@M$0A@@3@AEBU43@0@Z
pdata	ENDS
;	COMDAT pdata
pdata	SEGMENT
$pdata$?call@?$compute_max_vector@M$0A@Utvec3@glm@@$0A@@detail@glm@@SA?AU?$tvec3@M$0A@@3@AEBU43@0@Z DD imagerel $LN3
	DD	imagerel $LN3+58
	DD	imagerel $unwind$?call@?$compute_max_vector@M$0A@Utvec3@glm@@$0A@@detail@glm@@SA?AU?$tvec3@M$0A@@3@AEBU43@0@Z
pdata	ENDS
;	COMDAT pdata
pdata	SEGMENT
$pdata$?call@?$compute_fract@M$0A@Utvec3@glm@@$0A@@detail@glm@@SA?AU?$tvec3@M$0A@@3@AEBU43@@Z DD imagerel $LN3
	DD	imagerel $LN3+59
	DD	imagerel $unwind$?call@?$compute_fract@M$0A@Utvec3@glm@@$0A@@detail@glm@@SA?AU?$tvec3@M$0A@@3@AEBU43@@Z
pdata	ENDS
;	COMDAT pdata
pdata	SEGMENT
$pdata$?call@?$compute_abs_vector@M$0A@Utvec3@glm@@$0A@@detail@glm@@SA?AU?$tvec3@M$0A@@3@AEBU43@@Z DD imagerel $LN3
	DD	imagerel $LN3+48
	DD	imagerel $unwind$?call@?$compute_abs_vector@M$0A@Utvec3@glm@@$0A@@detail@glm@@SA?AU?$tvec3@M$0A@@3@AEBU43@@Z
pdata	ENDS
;	COMDAT pdata
pdata	SEGMENT
$pdata$?call@?$compute_floor@M$0A@Utvec3@glm@@$0A@@detail@glm@@SA?AU?$tvec3@M$0A@@3@AEBU43@@Z DD imagerel $LN3
	DD	imagerel $LN3+48
	DD	imagerel $unwind$?call@?$compute_floor@M$0A@Utvec3@glm@@$0A@@detail@glm@@SA?AU?$tvec3@M$0A@@3@AEBU43@@Z
pdata	ENDS
;	COMDAT pdata
pdata	SEGMENT
$pdata$?call@?$compute_dot@Utvec3@glm@@M$0A@$0A@@detail@glm@@SAMAEBU?$tvec3@M$0A@@3@0@Z DD imagerel $LN3
	DD	imagerel $LN3+108
	DD	imagerel $unwind$?call@?$compute_dot@Utvec3@glm@@M$0A@$0A@@detail@glm@@SAMAEBU?$tvec3@M$0A@@3@0@Z
pdata	ENDS
;	COMDAT pdata
pdata	SEGMENT
$pdata$?call@?$compute_step_vector@M$0A@Utvec3@glm@@$0A@@detail@glm@@SA?AU?$tvec3@M$0A@@3@AEBU43@0@Z DD imagerel $LN3
	DD	imagerel $LN3+121
	DD	imagerel $unwind$?call@?$compute_step_vector@M$0A@Utvec3@glm@@$0A@@detail@glm@@SA?AU?$tvec3@M$0A@@3@AEBU43@0@Z
pdata	ENDS
;	COMDAT pdata
pdata	SEGMENT
$pdata$?call@?$compute_min_vector@M$0A@Utvec3@glm@@$0A@@detail@glm@@SA?AU?$tvec3@M$0A@@3@AEBU43@0@Z DD imagerel $LN3
	DD	imagerel $LN3+58
	DD	imagerel $unwind$?call@?$compute_min_vector@M$0A@Utvec3@glm@@$0A@@detail@glm@@SA?AU?$tvec3@M$0A@@3@AEBU43@0@Z
pdata	ENDS
;	COMDAT pdata
pdata	SEGMENT
$pdata$??$?KM$0A@@glm@@YA?AU?$tvec3@M$0A@@0@AEBU10@0@Z DD imagerel $LN3
	DD	imagerel $LN3+120
	DD	imagerel $unwind$??$?KM$0A@@glm@@YA?AU?$tvec3@M$0A@@0@AEBU10@0@Z
pdata	ENDS
;	COMDAT pdata
pdata	SEGMENT
$pdata$??$?YM@?$tvec4@M$0A@@glm@@QEAAAEAU01@M@Z DD imagerel $LN3
	DD	imagerel $LN3+78
	DD	imagerel $unwind$??$?YM@?$tvec4@M$0A@@glm@@QEAAAEAU01@M@Z
pdata	ENDS
;	COMDAT pdata
pdata	SEGMENT
$pdata$??$mod289@U?$tvec4@M$0A@@glm@@@detail@glm@@YA?AU?$tvec4@M$0A@@1@AEBU21@@Z DD imagerel $LN3
	DD	imagerel $LN3+214
	DD	imagerel $unwind$??$mod289@U?$tvec4@M$0A@@glm@@@detail@glm@@YA?AU?$tvec4@M$0A@@1@AEBU21@@Z
pdata	ENDS
;	COMDAT pdata
pdata	SEGMENT
$pdata$?call@?$compute_floor@M$0A@Utvec4@glm@@$0A@@detail@glm@@SA?AU?$tvec4@M$0A@@3@AEBU43@@Z DD imagerel $LN3
	DD	imagerel $LN3+48
	DD	imagerel $unwind$?call@?$compute_floor@M$0A@Utvec4@glm@@$0A@@detail@glm@@SA?AU?$tvec4@M$0A@@3@AEBU43@@Z
pdata	ENDS
;	COMDAT pdata
pdata	SEGMENT
$pdata$?call@?$compute_abs_vector@M$0A@Utvec4@glm@@$0A@@detail@glm@@SA?AU?$tvec4@M$0A@@3@AEBU43@@Z DD imagerel $LN3
	DD	imagerel $LN3+48
	DD	imagerel $unwind$?call@?$compute_abs_vector@M$0A@Utvec4@glm@@$0A@@detail@glm@@SA?AU?$tvec4@M$0A@@3@AEBU43@@Z
pdata	ENDS
;	COMDAT pdata
pdata	SEGMENT
$pdata$?call@?$compute_step_vector@M$0A@Utvec4@glm@@$0A@@detail@glm@@SA?AU?$tvec4@M$0A@@3@AEBU43@0@Z DD imagerel $LN3
	DD	imagerel $LN3+124
	DD	imagerel $unwind$?call@?$compute_step_vector@M$0A@Utvec4@glm@@$0A@@detail@glm@@SA?AU?$tvec4@M$0A@@3@AEBU43@0@Z
pdata	ENDS
;	COMDAT pdata
pdata	SEGMENT
$pdata$??$?XM@?$tvec4@M$0A@@glm@@QEAAAEAU01@AEBU01@@Z DD imagerel $LN3
	DD	imagerel $LN3+83
	DD	imagerel $unwind$??$?XM@?$tvec4@M$0A@@glm@@QEAAAEAU01@AEBU01@@Z
pdata	ENDS
;	COMDAT pdata
pdata	SEGMENT
$pdata$?call@?$compute_max_vector@M$0A@Utvec4@glm@@$0A@@detail@glm@@SA?AU?$tvec4@M$0A@@3@AEBU43@0@Z DD imagerel $LN3
	DD	imagerel $LN3+58
	DD	imagerel $unwind$?call@?$compute_max_vector@M$0A@Utvec4@glm@@$0A@@detail@glm@@SA?AU?$tvec4@M$0A@@3@AEBU43@0@Z
pdata	ENDS
;	COMDAT pdata
pdata	SEGMENT
$pdata$?call@?$compute_dot@Utvec4@glm@@M$0A@$0A@@detail@glm@@SAMAEBU?$tvec4@M$0A@@3@0@Z DD imagerel $LN3
	DD	imagerel $LN3+118
	DD	imagerel $unwind$?call@?$compute_dot@Utvec4@glm@@M$0A@$0A@@detail@glm@@SAMAEBU?$tvec4@M$0A@@3@0@Z
pdata	ENDS
;	COMDAT pdata
pdata	SEGMENT
$pdata$??$?ZM@?$tvec4@M$0A@@glm@@QEAAAEAU01@M@Z DD imagerel $LN3
	DD	imagerel $LN3+78
	DD	imagerel $unwind$??$?ZM@?$tvec4@M$0A@@glm@@QEAAAEAU01@M@Z
pdata	ENDS
;	COMDAT pdata
pdata	SEGMENT
$pdata$?call@?$compute_mod@M$0A@Utvec4@glm@@$0A@@detail@glm@@SA?AU?$tvec4@M$0A@@3@AEBU43@0@Z DD imagerel $LN3
	DD	imagerel $LN3+100
	DD	imagerel $unwind$?call@?$compute_mod@M$0A@Utvec4@glm@@$0A@@detail@glm@@SA?AU?$tvec4@M$0A@@3@AEBU43@0@Z
pdata	ENDS
;	COMDAT pdata
pdata	SEGMENT
$pdata$??$mod289@M@detail@glm@@YAMAEBM@Z DD imagerel $LN3
	DD	imagerel $LN3+70
	DD	imagerel $unwind$??$mod289@M@detail@glm@@YAMAEBM@Z
pdata	ENDS
;	COMDAT pdata
pdata	SEGMENT
$pdata$??$?0M$0A@@?$tvec3@M$0A@@glm@@QEAA@AEBU?$tvec4@M$0A@@1@@Z DD imagerel $LN3
	DD	imagerel $LN3+76
	DD	imagerel $unwind$??$?0M$0A@@?$tvec3@M$0A@@glm@@QEAA@AEBU?$tvec4@M$0A@@1@@Z
pdata	ENDS
;	COMDAT pdata
pdata	SEGMENT
$pdata$??$?0MM$0A@@?$tvec4@M$0A@@glm@@QEAA@AEBU?$tvec3@M$0A@@1@M@Z DD imagerel $LN3
	DD	imagerel $LN3+98
	DD	imagerel $unwind$??$?0MM$0A@@?$tvec4@M$0A@@glm@@QEAA@AEBU?$tvec3@M$0A@@1@M@Z
pdata	ENDS
;	COMDAT pdata
pdata	SEGMENT
$pdata$??$lessThan@M$0A@Utvec4@glm@@@glm@@YA?AU?$tvec4@_N$0A@@0@AEBU?$tvec4@M$0A@@0@0@Z DD imagerel $LN9
	DD	imagerel $LN9+266
	DD	imagerel $unwind$??$lessThan@M$0A@Utvec4@glm@@@glm@@YA?AU?$tvec4@_N$0A@@0@AEBU?$tvec4@M$0A@@0@0@Z
pdata	ENDS
;	COMDAT pdata
pdata	SEGMENT
$pdata$?length@?$tvec4@_N$0A@@glm@@SAHXZ DD imagerel $LN3
	DD	imagerel $LN3+9
	DD	imagerel $unwind$?length@?$tvec4@_N$0A@@glm@@SAHXZ
pdata	ENDS
;	COMDAT pdata
pdata	SEGMENT
$pdata$??A?$tvec4@_N$0A@@glm@@QEAAAEA_NH@Z DD imagerel $LN5
	DD	imagerel $LN5+82
	DD	imagerel $unwind$??A?$tvec4@_N$0A@@glm@@QEAAAEA_NH@Z
pdata	ENDS
;	COMDAT pdata
pdata	SEGMENT
$pdata$??A?$tvec4@_N$0A@@glm@@QEBAAEB_NH@Z DD imagerel $LN5
	DD	imagerel $LN5+82
	DD	imagerel $unwind$??A?$tvec4@_N$0A@@glm@@QEBAAEB_NH@Z
pdata	ENDS
;	COMDAT pdata
pdata	SEGMENT
$pdata$??0?$tvec4@_N$0A@@glm@@QEAA@W4ctor@1@@Z DD imagerel $LN3
	DD	imagerel $LN3+17
	DD	imagerel $unwind$??0?$tvec4@_N$0A@@glm@@QEAA@W4ctor@1@@Z
pdata	ENDS
;	COMDAT pdata
pdata	SEGMENT
$pdata$??$?0_N$0A@@?$tvec4@M$0A@@glm@@QEAA@AEBU?$tvec4@_N$0A@@1@@Z DD imagerel $LN3
	DD	imagerel $LN3+108
	DD	imagerel $unwind$??$?0_N$0A@@?$tvec4@M$0A@@glm@@QEAA@AEBU?$tvec4@_N$0A@@1@@Z
pdata	ENDS
;	COMDAT pdata
pdata	SEGMENT
$pdata$?call@?$compute_max_vector@M$0A@Utvec2@glm@@$0A@@detail@glm@@SA?AU?$tvec2@M$0A@@3@AEBU43@0@Z DD imagerel $LN3
	DD	imagerel $LN3+58
	DD	imagerel $unwind$?call@?$compute_max_vector@M$0A@Utvec2@glm@@$0A@@detail@glm@@SA?AU?$tvec2@M$0A@@3@AEBU43@0@Z
pdata	ENDS
;	COMDAT pdata
pdata	SEGMENT
$pdata$?call@?$compute_fract@M$0A@Utvec4@glm@@$0A@@detail@glm@@SA?AU?$tvec4@M$0A@@3@AEBU43@@Z DD imagerel $LN3
	DD	imagerel $LN3+59
	DD	imagerel $unwind$?call@?$compute_fract@M$0A@Utvec4@glm@@$0A@@detail@glm@@SA?AU?$tvec4@M$0A@@3@AEBU43@@Z
pdata	ENDS
;	COMDAT pdata
pdata	SEGMENT
$pdata$??$?_0M@?$tvec4@M$0A@@glm@@QEAAAEAU01@M@Z DD imagerel $LN3
	DD	imagerel $LN3+78
	DD	imagerel $unwind$??$?_0M@?$tvec4@M$0A@@glm@@QEAAAEAU01@M@Z
pdata	ENDS
;	COMDAT pdata
pdata	SEGMENT
$pdata$??$?GM$0A@@glm@@YA?AU?$tvec2@M$0A@@0@AEBU10@M@Z DD imagerel $LN3
	DD	imagerel $LN3+76
	DD	imagerel $unwind$??$?GM$0A@@glm@@YA?AU?$tvec2@M$0A@@0@AEBU10@M@Z
pdata	ENDS
;	COMDAT pdata
pdata	SEGMENT
$pdata$?call@?$compute_mix_scalar@MM$0A@Utvec2@glm@@$0A@@detail@glm@@SA?AU?$tvec2@M$0A@@3@AEBU43@0AEBM@Z DD imagerel $LN3
	DD	imagerel $LN3+109
	DD	imagerel $unwind$?call@?$compute_mix_scalar@MM$0A@Utvec2@glm@@$0A@@detail@glm@@SA?AU?$tvec2@M$0A@@3@AEBU43@0AEBM@Z
pdata	ENDS
;	COMDAT pdata
pdata	SEGMENT
$pdata$?call@?$compute_mix@MM@detail@glm@@SAMAEBM00@Z DD imagerel $LN3
	DD	imagerel $LN3+76
	DD	imagerel $unwind$?call@?$compute_mix@MM@detail@glm@@SAMAEBM00@Z
pdata	ENDS
;	COMDAT pdata
pdata	SEGMENT
$pdata$?call@?$compute_vec4_sub@M$0A@$0A@@detail@glm@@SA?AU?$tvec4@M$0A@@3@AEBU43@0@Z DD imagerel $LN3
	DD	imagerel $LN3+143
	DD	imagerel $unwind$?call@?$compute_vec4_sub@M$0A@$0A@@detail@glm@@SA?AU?$tvec4@M$0A@@3@AEBU43@0@Z
pdata	ENDS
;	COMDAT pdata
pdata	SEGMENT
$pdata$?call@?$compute_mix_scalar@MM$0A@Utvec4@glm@@$0A@@detail@glm@@SA?AU?$tvec4@M$0A@@3@AEBU43@0AEBM@Z DD imagerel $LN3
	DD	imagerel $LN3+124
	DD	imagerel $unwind$?call@?$compute_mix_scalar@MM$0A@Utvec4@glm@@$0A@@detail@glm@@SA?AU?$tvec4@M$0A@@3@AEBU43@0AEBM@Z
pdata	ENDS
;	COMDAT pdata
pdata	SEGMENT
$pdata$?call@?$compute_mod@M$0A@Utvec3@glm@@$0A@@detail@glm@@SA?AU?$tvec3@M$0A@@3@AEBU43@0@Z DD imagerel $LN3
	DD	imagerel $LN3+100
	DD	imagerel $unwind$?call@?$compute_mod@M$0A@Utvec3@glm@@$0A@@detail@glm@@SA?AU?$tvec3@M$0A@@3@AEBU43@0@Z
pdata	ENDS
;	COMDAT pdata
pdata	SEGMENT
$pdata$?deallocate@?$_Default_allocator_traits@V?$allocator@U_Container_proxy@std@@@std@@@std@@SAXAEAV?$allocator@U_Container_proxy@std@@@2@QEAU_Container_proxy@2@_K@Z DD imagerel $LN3
	DD	imagerel $LN3+45
	DD	imagerel $unwind$?deallocate@?$_Default_allocator_traits@V?$allocator@U_Container_proxy@std@@@std@@@std@@SAXAEAV?$allocator@U_Container_proxy@std@@@2@QEAU_Container_proxy@2@_K@Z
pdata	ENDS
;	COMDAT pdata
pdata	SEGMENT
$pdata$??0?$_Uninitialized_backout_al@V?$allocator@Vimage2D@gli@@@std@@@std@@QEAA@PEAVimage2D@gli@@AEAV?$allocator@Vimage2D@gli@@@1@@Z DD imagerel $LN3
	DD	imagerel $LN3+64
	DD	imagerel $unwind$??0?$_Uninitialized_backout_al@V?$allocator@Vimage2D@gli@@@std@@@std@@QEAA@PEAVimage2D@gli@@AEAV?$allocator@Vimage2D@gli@@@1@@Z
pdata	ENDS
;	COMDAT pdata
pdata	SEGMENT
$pdata$??1?$_Uninitialized_backout_al@V?$allocator@Vimage2D@gli@@@std@@@std@@QEAA@XZ DD imagerel $LN3
	DD	imagerel $LN3+47
	DD	imagerel $unwind$??1?$_Uninitialized_backout_al@V?$allocator@Vimage2D@gli@@@std@@@std@@QEAA@XZ
pdata	ENDS
;	COMDAT pdata
pdata	SEGMENT
$pdata$?_Release@?$_Uninitialized_backout_al@V?$allocator@Vimage2D@gli@@@std@@@std@@QEAAPEAVimage2D@gli@@XZ DD imagerel $LN3
	DD	imagerel $LN3+34
	DD	imagerel $unwind$?_Release@?$_Uninitialized_backout_al@V?$allocator@Vimage2D@gli@@@std@@@std@@QEAAPEAVimage2D@gli@@XZ
pdata	ENDS
;	COMDAT pdata
pdata	SEGMENT
$pdata$??$_Emplace_back@$$V@?$_Uninitialized_backout_al@V?$allocator@Vimage2D@gli@@@std@@@std@@QEAAXXZ DD imagerel $LN3
	DD	imagerel $LN3+69
	DD	imagerel $unwind$??$_Emplace_back@$$V@?$_Uninitialized_backout_al@V?$allocator@Vimage2D@gli@@@std@@@std@@QEAAXXZ
pdata	ENDS
;	COMDAT pdata
pdata	SEGMENT
$pdata$??$_Get_unwrapped@AEBQEAVimage2D@gli@@@std@@YA?A_TAEBQEAVimage2D@gli@@@Z DD imagerel $LN3
	DD	imagerel $LN3+16
	DD	imagerel $unwind$??$_Get_unwrapped@AEBQEAVimage2D@gli@@@std@@YA?A_TAEBQEAVimage2D@gli@@@Z
pdata	ENDS
;	COMDAT pdata
pdata	SEGMENT
$pdata$??$_Emplace_back@AEAVimage2D@gli@@@?$_Uninitialized_backout_al@V?$allocator@Vimage2D@gli@@@std@@@std@@QEAAXAEAVimage2D@gli@@@Z DD imagerel $LN3
	DD	imagerel $LN3+97
	DD	imagerel $unwind$??$_Emplace_back@AEAVimage2D@gli@@@?$_Uninitialized_backout_al@V?$allocator@Vimage2D@gli@@@std@@@std@@QEAAXAEAVimage2D@gli@@@Z
pdata	ENDS
;	COMDAT pdata
pdata	SEGMENT
$pdata$??$_Verify_range@E@std@@YAXQEBE0@Z DD imagerel $LN12
	DD	imagerel $LN12+148
	DD	imagerel $unwind$??$_Verify_range@E@std@@YAXQEBE0@Z
pdata	ENDS
;	COMDAT pdata
pdata	SEGMENT
$pdata$??$distance@PEAE@std@@YA_JPEAE0@Z DD imagerel $LN3
	DD	imagerel $LN3+29
	DD	imagerel $unwind$??$distance@PEAE@std@@YA_JPEAE0@Z
pdata	ENDS
;	COMDAT pdata
pdata	SEGMENT
$pdata$??$next@PEAE@std@@YAPEAEPEAE_J@Z DD imagerel $LN3
	DD	imagerel $LN3+41
	DD	imagerel $unwind$??$next@PEAE@std@@YAPEAEPEAE_J@Z
pdata	ENDS
;	COMDAT pdata
pdata	SEGMENT
$pdata$??$_Copy_unchecked@PEAEPEAE@std@@YAPEAEPEAE00@Z DD imagerel $LN6
	DD	imagerel $LN6+110
	DD	imagerel $unwind$??$_Copy_unchecked@PEAEPEAE@std@@YAPEAEPEAE00@Z
pdata	ENDS
;	COMDAT pdata
pdata	SEGMENT
$pdata$??$_Get_unwrapped@AEBQEAE@std@@YA?A_TAEBQEAE@Z DD imagerel $LN3
	DD	imagerel $LN3+16
	DD	imagerel $unwind$??$_Get_unwrapped@AEBQEAE@std@@YA?A_TAEBQEAE@Z
pdata	ENDS
;	COMDAT pdata
pdata	SEGMENT
$pdata$??$_Unfancy@E@std@@YAPEAEPEAE@Z DD imagerel $LN3
	DD	imagerel $LN3+13
	DD	imagerel $unwind$??$_Unfancy@E@std@@YAPEAEPEAE@Z
pdata	ENDS
;	COMDAT pdata
pdata	SEGMENT
$pdata$??$_Copy_memmove@PEAEPEAE@std@@YAPEAEPEAE00@Z DD imagerel $LN3
	DD	imagerel $LN3+161
	DD	imagerel $unwind$??$_Copy_memmove@PEAEPEAE@std@@YAPEAEPEAE00@Z
pdata	ENDS
;	COMDAT pdata
pdata	SEGMENT
$pdata$??0?$_Uninitialized_backout_al@V?$allocator@E@std@@@std@@QEAA@PEAEAEAV?$allocator@E@1@@Z DD imagerel $LN3
	DD	imagerel $LN3+64
	DD	imagerel $unwind$??0?$_Uninitialized_backout_al@V?$allocator@E@std@@@std@@QEAA@PEAEAEAV?$allocator@E@1@@Z
pdata	ENDS
;	COMDAT pdata
pdata	SEGMENT
$pdata$??1?$_Uninitialized_backout_al@V?$allocator@E@std@@@std@@QEAA@XZ DD imagerel $LN3
	DD	imagerel $LN3+47
	DD	imagerel $unwind$??1?$_Uninitialized_backout_al@V?$allocator@E@std@@@std@@QEAA@XZ
pdata	ENDS
;	COMDAT pdata
pdata	SEGMENT
$pdata$?_Release@?$_Uninitialized_backout_al@V?$allocator@E@std@@@std@@QEAAPEAEXZ DD imagerel $LN3
	DD	imagerel $LN3+34
	DD	imagerel $unwind$?_Release@?$_Uninitialized_backout_al@V?$allocator@E@std@@@std@@QEAAPEAEXZ
pdata	ENDS
;	COMDAT pdata
pdata	SEGMENT
$pdata$??$_Emplace_back@AEAE@?$_Uninitialized_backout_al@V?$allocator@E@std@@@std@@QEAAXAEAE@Z DD imagerel $LN3
	DD	imagerel $LN3+96
	DD	imagerel $unwind$??$_Emplace_back@AEAE@?$_Uninitialized_backout_al@V?$allocator@E@std@@@std@@QEAAXAEAE@Z
pdata	ENDS
;	COMDAT pdata
pdata	SEGMENT
$pdata$??$_Zero_range@PEAE@std@@YAPEAEQEAE0@Z DD imagerel $LN3
	DD	imagerel $LN3+87
	DD	imagerel $unwind$??$_Zero_range@PEAE@std@@YAPEAEQEAE0@Z
pdata	ENDS
;	COMDAT pdata
pdata	SEGMENT
$pdata$??$_Emplace_back@$$V@?$_Uninitialized_backout_al@V?$allocator@E@std@@@std@@QEAAXXZ DD imagerel $LN3
	DD	imagerel $LN3+68
	DD	imagerel $unwind$??$_Emplace_back@$$V@?$_Uninitialized_backout_al@V?$allocator@E@std@@@std@@QEAAXXZ
pdata	ENDS
;	COMDAT pdata
pdata	SEGMENT
$pdata$?call@?$compute_min_vector@M$0A@Utvec4@glm@@$0A@@detail@glm@@SA?AU?$tvec4@M$0A@@3@AEBU43@0@Z DD imagerel $LN3
	DD	imagerel $LN3+58
	DD	imagerel $unwind$?call@?$compute_min_vector@M$0A@Utvec4@glm@@$0A@@detail@glm@@SA?AU?$tvec4@M$0A@@3@AEBU43@0@Z
pdata	ENDS
;	COMDAT pdata
pdata	SEGMENT
$pdata$?call@?$functor2@M$0A@Utvec2@glm@@@detail@glm@@SA?AU?$tvec2@M$0A@@3@P6AMMM@ZAEBU43@1@Z DD imagerel $LN3
	DD	imagerel $LN3+110
	DD	imagerel $unwind$?call@?$functor2@M$0A@Utvec2@glm@@@detail@glm@@SA?AU?$tvec2@M$0A@@3@P6AMMM@ZAEBU43@1@Z
pdata	ENDS
;	COMDAT pdata
pdata	SEGMENT
$pdata$??$min@M@glm@@YAMMM@Z DD imagerel $LN5
	DD	imagerel $LN5+68
	DD	imagerel $unwind$??$min@M@glm@@YAMMM@Z
pdata	ENDS
;	COMDAT pdata
pdata	SEGMENT
$pdata$?call@?$functor2@M$0A@Utvec4@glm@@@detail@glm@@SA?AU?$tvec4@M$0A@@3@P6AMMM@ZAEBU43@1@Z DD imagerel $LN3
	DD	imagerel $LN3+191
	DD	imagerel $unwind$?call@?$functor2@M$0A@Utvec4@glm@@@detail@glm@@SA?AU?$tvec4@M$0A@@3@P6AMMM@ZAEBU43@1@Z
pdata	ENDS
;	COMDAT pdata
pdata	SEGMENT
$pdata$??$?DM$0A@@glm@@YA?AU?$tvec2@M$0A@@0@MAEBU10@@Z DD imagerel $LN3
	DD	imagerel $LN3+76
	DD	imagerel $unwind$??$?DM$0A@@glm@@YA?AU?$tvec2@M$0A@@0@MAEBU10@@Z
pdata	ENDS
;	COMDAT pdata
pdata	SEGMENT
$pdata$??$?HM$0A@@glm@@YA?AU?$tvec2@M$0A@@0@AEBU10@0@Z DD imagerel $LN3
	DD	imagerel $LN3+82
	DD	imagerel $unwind$??$?HM$0A@@glm@@YA?AU?$tvec2@M$0A@@0@AEBU10@0@Z
pdata	ENDS
;	COMDAT pdata
pdata	SEGMENT
$pdata$??$max@M@glm@@YAMMM@Z DD imagerel $LN5
	DD	imagerel $LN5+68
	DD	imagerel $unwind$??$max@M@glm@@YAMMM@Z
pdata	ENDS
;	COMDAT pdata
pdata	SEGMENT
$pdata$??$?KM$0A@@glm@@YA?AU?$tvec4@M$0A@@0@AEBU10@0@Z DD imagerel $LN3
	DD	imagerel $LN3+83
	DD	imagerel $unwind$??$?KM$0A@@glm@@YA?AU?$tvec4@M$0A@@0@AEBU10@0@Z
pdata	ENDS
;	COMDAT pdata
pdata	SEGMENT
$pdata$??$mix@M_N$0A@Utvec4@glm@@@glm@@YA?AU?$tvec4@M$0A@@0@AEBU10@0AEBU?$tvec4@_N$0A@@0@@Z DD imagerel $LN3
	DD	imagerel $LN3+61
	DD	imagerel $unwind$??$mix@M_N$0A@Utvec4@glm@@@glm@@YA?AU?$tvec4@M$0A@@0@AEBU10@0AEBU?$tvec4@_N$0A@@0@@Z
pdata	ENDS
;	COMDAT pdata
pdata	SEGMENT
$pdata$??$abs@M@glm@@YAMM@Z DD imagerel $LN3
	DD	imagerel $LN3+28
	DD	imagerel $unwind$??$abs@M@glm@@YAMM@Z
pdata	ENDS
;	COMDAT pdata
pdata	SEGMENT
$pdata$?call@?$functor2@M$0A@Utvec3@glm@@@detail@glm@@SA?AU?$tvec3@M$0A@@3@P6AMMM@ZAEBU43@1@Z DD imagerel $LN3
	DD	imagerel $LN3+149
	DD	imagerel $unwind$?call@?$functor2@M$0A@Utvec3@glm@@@detail@glm@@SA?AU?$tvec3@M$0A@@3@P6AMMM@ZAEBU43@1@Z
pdata	ENDS
;	COMDAT pdata
pdata	SEGMENT
$pdata$??$lessThan@M$0A@Utvec3@glm@@@glm@@YA?AU?$tvec3@_N$0A@@0@AEBU?$tvec3@M$0A@@0@0@Z DD imagerel $LN9
	DD	imagerel $LN9+280
	DD	imagerel $unwind$??$lessThan@M$0A@Utvec3@glm@@@glm@@YA?AU?$tvec3@_N$0A@@0@AEBU?$tvec3@M$0A@@0@0@Z
pdata	ENDS
;	COMDAT pdata
pdata	SEGMENT
$pdata$?length@?$tvec3@_N$0A@@glm@@SAHXZ DD imagerel $LN3
	DD	imagerel $LN3+9
	DD	imagerel $unwind$?length@?$tvec3@_N$0A@@glm@@SAHXZ
pdata	ENDS
;	COMDAT pdata
pdata	SEGMENT
$pdata$??A?$tvec3@_N$0A@@glm@@QEAAAEA_NH@Z DD imagerel $LN5
	DD	imagerel $LN5+82
	DD	imagerel $unwind$??A?$tvec3@_N$0A@@glm@@QEAAAEA_NH@Z
pdata	ENDS
;	COMDAT pdata
pdata	SEGMENT
$pdata$??A?$tvec3@_N$0A@@glm@@QEBAAEB_NH@Z DD imagerel $LN5
	DD	imagerel $LN5+82
	DD	imagerel $unwind$??A?$tvec3@_N$0A@@glm@@QEBAAEB_NH@Z
pdata	ENDS
;	COMDAT pdata
pdata	SEGMENT
$pdata$??0?$tvec3@_N$0A@@glm@@QEAA@W4ctor@1@@Z DD imagerel $LN3
	DD	imagerel $LN3+17
	DD	imagerel $unwind$??0?$tvec3@_N$0A@@glm@@QEAA@W4ctor@1@@Z
pdata	ENDS
;	COMDAT pdata
pdata	SEGMENT
$pdata$??$mix@M_N$0A@Utvec3@glm@@@glm@@YA?AU?$tvec3@M$0A@@0@AEBU10@0AEBU?$tvec3@_N$0A@@0@@Z DD imagerel $LN3
	DD	imagerel $LN3+61
	DD	imagerel $unwind$??$mix@M_N$0A@Utvec3@glm@@@glm@@YA?AU?$tvec3@M$0A@@0@AEBU10@0AEBU?$tvec3@_N$0A@@0@@Z
pdata	ENDS
;	COMDAT pdata
pdata	SEGMENT
$pdata$?call@?$functor1@MM$0A@Utvec3@glm@@@detail@glm@@SA?AU?$tvec3@M$0A@@3@P6AMM@ZAEBU43@@Z DD imagerel $LN3
	DD	imagerel $LN3+115
	DD	imagerel $unwind$?call@?$functor1@MM$0A@Utvec3@glm@@@detail@glm@@SA?AU?$tvec3@M$0A@@3@P6AMM@ZAEBU43@@Z
pdata	ENDS
;	COMDAT pdata
pdata	SEGMENT
$pdata$??$?KM$0A@@glm@@YA?AU?$tvec2@M$0A@@0@AEBU10@0@Z DD imagerel $LN3
	DD	imagerel $LN3+82
	DD	imagerel $unwind$??$?KM$0A@@glm@@YA?AU?$tvec2@M$0A@@0@AEBU10@0@Z
pdata	ENDS
;	COMDAT pdata
pdata	SEGMENT
$pdata$??$forward@AEAPEAV_Facet_base@std@@@std@@YAAEAPEAV_Facet_base@0@AEAPEAV10@@Z DD imagerel $LN3
	DD	imagerel $LN3+13
	DD	imagerel $unwind$??$forward@AEAPEAV_Facet_base@std@@@std@@YAAEAPEAV_Facet_base@0@AEAPEAV10@@Z
pdata	ENDS
;	COMDAT pdata
pdata	SEGMENT
$pdata$?call@?$compute_vec4_add@M$0A@$0A@@detail@glm@@SA?AU?$tvec4@M$0A@@3@AEBU43@0@Z DD imagerel $LN3
	DD	imagerel $LN3+143
	DD	imagerel $unwind$?call@?$compute_vec4_add@M$0A@$0A@@detail@glm@@SA?AU?$tvec4@M$0A@@3@AEBU43@0@Z
pdata	ENDS
;	COMDAT pdata
pdata	SEGMENT
$pdata$?call@?$compute_vec4_div@M$0A@$0A@@detail@glm@@SA?AU?$tvec4@M$0A@@3@AEBU43@0@Z DD imagerel $LN3
	DD	imagerel $LN3+143
	DD	imagerel $unwind$?call@?$compute_vec4_div@M$0A@$0A@@detail@glm@@SA?AU?$tvec4@M$0A@@3@AEBU43@0@Z
pdata	ENDS
;	COMDAT pdata
pdata	SEGMENT
$pdata$??$construct@Vimage2D@gli@@$$V@?$_Default_allocator_traits@V?$allocator@Vimage2D@gli@@@std@@@std@@SAXAEAV?$allocator@Vimage2D@gli@@@1@QEAVimage2D@gli@@@Z DD imagerel $LN3
	DD	imagerel $LN3+59
	DD	imagerel $unwind$??$construct@Vimage2D@gli@@$$V@?$_Default_allocator_traits@V?$allocator@Vimage2D@gli@@@std@@@std@@SAXAEAV?$allocator@Vimage2D@gli@@@1@QEAVimage2D@gli@@@Z
pdata	ENDS
;	COMDAT pdata
pdata	SEGMENT
$pdata$??$forward@AEAVimage2D@gli@@@std@@YAAEAVimage2D@gli@@AEAV12@@Z DD imagerel $LN3
	DD	imagerel $LN3+13
	DD	imagerel $unwind$??$forward@AEAVimage2D@gli@@@std@@YAAEAVimage2D@gli@@AEAV12@@Z
pdata	ENDS
;	COMDAT pdata
pdata	SEGMENT
$pdata$??$construct@Vimage2D@gli@@AEAV12@@?$_Default_allocator_traits@V?$allocator@Vimage2D@gli@@@std@@@std@@SAXAEAV?$allocator@Vimage2D@gli@@@1@QEAVimage2D@gli@@AEAV34@@Z DD imagerel $LN3
	DD	imagerel $LN3+77
	DD	imagerel $unwind$??$construct@Vimage2D@gli@@AEAV12@@?$_Default_allocator_traits@V?$allocator@Vimage2D@gli@@@std@@@std@@SAXAEAV?$allocator@Vimage2D@gli@@@1@QEAVimage2D@gli@@AEAV34@@Z
pdata	ENDS
;	COMDAT pdata
pdata	SEGMENT
$pdata$??$advance@PEAE_J@std@@YAXAEAPEAE_J@Z DD imagerel $LN3
	DD	imagerel $LN3+34
	DD	imagerel $unwind$??$advance@PEAE_J@std@@YAXAEAPEAE_J@Z
pdata	ENDS
;	COMDAT pdata
pdata	SEGMENT
$pdata$??$_To_address@PEAE@std@@YA?A_PAEBQEAE@Z DD imagerel $LN3
	DD	imagerel $LN3+16
	DD	imagerel $unwind$??$_To_address@PEAE@std@@YA?A_PAEBQEAE@Z
pdata	ENDS
;	COMDAT pdata
pdata	SEGMENT
$pdata$??$forward@AEAE@std@@YAAEAEAEAE@Z DD imagerel $LN3
	DD	imagerel $LN3+13
	DD	imagerel $unwind$??$forward@AEAE@std@@YAAEAEAEAE@Z
pdata	ENDS
;	COMDAT pdata
pdata	SEGMENT
$pdata$??$construct@EAEAE@?$_Default_allocator_traits@V?$allocator@E@std@@@std@@SAXAEAV?$allocator@E@1@QEAEAEAE@Z DD imagerel $LN3
	DD	imagerel $LN3+74
	DD	imagerel $unwind$??$construct@EAEAE@?$_Default_allocator_traits@V?$allocator@E@std@@@std@@SAXAEAV?$allocator@E@1@QEAEAEAE@Z
pdata	ENDS
;	COMDAT pdata
pdata	SEGMENT
$pdata$??$construct@E$$V@?$_Default_allocator_traits@V?$allocator@E@std@@@std@@SAXAEAV?$allocator@E@1@QEAE@Z DD imagerel $LN3
	DD	imagerel $LN3+72
	DD	imagerel $unwind$??$construct@E$$V@?$_Default_allocator_traits@V?$allocator@E@std@@@std@@SAXAEAV?$allocator@E@1@QEAE@Z
pdata	ENDS
;	COMDAT pdata
pdata	SEGMENT
$pdata$??$?_0M@?$tvec4@M$0A@@glm@@QEAAAEAU01@AEBU01@@Z DD imagerel $LN3
	DD	imagerel $LN3+83
	DD	imagerel $unwind$??$?_0M@?$tvec4@M$0A@@glm@@QEAAAEAU01@AEBU01@@Z
pdata	ENDS
;	COMDAT pdata
pdata	SEGMENT
$pdata$?call@?$compute_mix_vector@M_N$0A@Utvec4@glm@@$0A@@detail@glm@@SA?AU?$tvec4@M$0A@@3@AEBU43@0AEBU?$tvec4@_N$0A@@3@@Z DD imagerel $LN8
	DD	imagerel $LN8+247
	DD	imagerel $unwind$?call@?$compute_mix_vector@M_N$0A@Utvec4@glm@@$0A@@detail@glm@@SA?AU?$tvec4@M$0A@@3@AEBU43@0AEBU?$tvec4@_N$0A@@3@@Z
pdata	ENDS
;	COMDAT pdata
pdata	SEGMENT
$pdata$?call@?$compute_abs@M$00@detail@glm@@SAMM@Z DD imagerel $LN5
	DD	imagerel $LN5+71
	DD	imagerel $unwind$?call@?$compute_abs@M$00@detail@glm@@SAMM@Z
pdata	ENDS
;	COMDAT pdata
pdata	SEGMENT
$pdata$?call@?$compute_mix_vector@M_N$0A@Utvec3@glm@@$0A@@detail@glm@@SA?AU?$tvec3@M$0A@@3@AEBU43@0AEBU?$tvec3@_N$0A@@3@@Z DD imagerel $LN8
	DD	imagerel $LN8+247
	DD	imagerel $unwind$?call@?$compute_mix_vector@M_N$0A@Utvec3@glm@@$0A@@detail@glm@@SA?AU?$tvec3@M$0A@@3@AEBU43@0AEBU?$tvec3@_N$0A@@3@@Z
pdata	ENDS
;	COMDAT pdata
pdata	SEGMENT
$pdata$??$_Voidify_iter@PEAVimage2D@gli@@@std@@YAPEAXPEAVimage2D@gli@@@Z DD imagerel $LN3
	DD	imagerel $LN3+13
	DD	imagerel $unwind$??$_Voidify_iter@PEAVimage2D@gli@@@std@@YAPEAXPEAVimage2D@gli@@@Z
pdata	ENDS
;	COMDAT pdata
pdata	SEGMENT
$pdata$??$_Voidify_iter@PEAE@std@@YAPEAXPEAE@Z DD imagerel $LN3
	DD	imagerel $LN3+13
	DD	imagerel $unwind$??$_Voidify_iter@PEAE@std@@YAPEAXPEAE@Z
pdata	ENDS
;	COMDAT __xmm@80000000800000008000000080000000
CONST	SEGMENT
__xmm@80000000800000008000000080000000 DB 00H, 00H, 00H, 080H, 00H, 00H, 00H
	DB	080H, 00H, 00H, 00H, 080H, 00H, 00H, 00H, 080H
CONST	ENDS
;	COMDAT __real@bfdc9f25c5bfedda
CONST	SEGMENT
__real@bfdc9f25c5bfedda DQ 0bfdc9f25c5bfeddar	; -0.447214
CONST	ENDS
;	COMDAT __real@bf13cd3a
CONST	SEGMENT
__real@bf13cd3a DD 0bf13cd3ar			; -0.57735
CONST	ENDS
;	COMDAT __real@43908000
CONST	SEGMENT
__real@43908000 DD 043908000r			; 289
CONST	ENDS
;	COMDAT __real@43020000
CONST	SEGMENT
__real@43020000 DD 043020000r			; 130
CONST	ENDS
;	COMDAT __real@43000000
CONST	SEGMENT
__real@43000000 DD 043000000r			; 128
CONST	ENDS
;	COMDAT __real@42fe0000
CONST	SEGMENT
__real@42fe0000 DD 042fe0000r			; 127
CONST	ENDS
;	COMDAT __real@42800000
CONST	SEGMENT
__real@42800000 DD 042800000r			; 64
CONST	ENDS
;	COMDAT __real@42440000
CONST	SEGMENT
__real@42440000 DD 042440000r			; 49
CONST	ENDS
;	COMDAT __real@42280000
CONST	SEGMENT
__real@42280000 DD 042280000r			; 42
CONST	ENDS
;	COMDAT __real@42240000
CONST	SEGMENT
__real@42240000 DD 042240000r			; 41
CONST	ENDS
;	COMDAT __real@42080000
CONST	SEGMENT
__real@42080000 DD 042080000r			; 34
CONST	ENDS
;	COMDAT __real@41700000
CONST	SEGMENT
__real@41700000 DD 041700000r			; 15
CONST	ENDS
;	COMDAT __real@41200000
CONST	SEGMENT
__real@41200000 DD 041200000r			; 10
CONST	ENDS
;	COMDAT __real@40e00000
CONST	SEGMENT
__real@40e00000 DD 040e00000r			; 7
CONST	ENDS
;	COMDAT __real@40c00000
CONST	SEGMENT
__real@40c00000 DD 040c00000r			; 6
CONST	ENDS
;	COMDAT __real@40133333
CONST	SEGMENT
__real@40133333 DD 040133333r			; 2.3
CONST	ENDS
;	COMDAT __real@400ccccd
CONST	SEGMENT
__real@400ccccd DD 0400ccccdr			; 2.2
CONST	ENDS
;	COMDAT __real@4000000000000000
CONST	SEGMENT
__real@4000000000000000 DQ 04000000000000000r	; 2
CONST	ENDS
;	COMDAT __real@40000000
CONST	SEGMENT
__real@40000000 DD 040000000r			; 2
CONST	ENDS
;	COMDAT __real@3ff0000000000000
CONST	SEGMENT
__real@3ff0000000000000 DQ 03ff0000000000000r	; 1
CONST	ENDS
;	COMDAT __real@3fe57be0
CONST	SEGMENT
__real@3fe57be0 DD 03fe57be0r			; 1.79284
CONST	ENDS
;	COMDAT __real@3fe0000000000000
CONST	SEGMENT
__real@3fe0000000000000 DQ 03fe0000000000000r	; 0.5
CONST	ENDS
;	COMDAT __real@3fda88a3abb00da5
CONST	SEGMENT
__real@3fda88a3abb00da5 DQ 03fda88a3abb00da5r	; 0.41459
CONST	ENDS
;	COMDAT __real@3fd5555555555555
CONST	SEGMENT
__real@3fd5555555555555 DQ 03fd5555555555555r	; 0.333333
CONST	ENDS
;	COMDAT __real@3fd1b06d1d200913
CONST	SEGMENT
__real@3fd1b06d1d200913 DQ 03fd1b06d1d200913r	; 0.276393
CONST	ENDS
;	COMDAT __real@3fc5555555555555
CONST	SEGMENT
__real@3fc5555555555555 DQ 03fc5555555555555r	; 0.166667
CONST	ENDS
;	COMDAT __real@3fc1b06d1d200925
CONST	SEGMENT
__real@3fc1b06d1d200925 DQ 03fc1b06d1d200925r	; 0.138197
CONST	ENDS
;	COMDAT __real@3fc00000
CONST	SEGMENT
__real@3fc00000 DD 03fc00000r			; 1.5
CONST	ENDS
;	COMDAT __real@3f800000
CONST	SEGMENT
__real@3f800000 DD 03f800000r			; 1
CONST	ENDS
;	COMDAT __real@3f5a8e5c
CONST	SEGMENT
__real@3f5a8e5c DD 03f5a8e5cr			; 0.853735
CONST	ENDS
;	COMDAT __real@3f400000
CONST	SEGMENT
__real@3f400000 DD 03f400000r			; 0.75
CONST	ENDS
;	COMDAT __real@3f19999a
CONST	SEGMENT
__real@3f19999a DD 03f19999ar			; 0.6
CONST	ENDS
;	COMDAT __real@3f000000
CONST	SEGMENT
__real@3f000000 DD 03f000000r			; 0.5
CONST	ENDS
;	COMDAT __real@3ebb67af
CONST	SEGMENT
__real@3ebb67af DD 03ebb67afr			; 0.366025
CONST	ENDS
;	COMDAT __real@3e9e377a
CONST	SEGMENT
__real@3e9e377a DD 03e9e377ar			; 0.309017
CONST	ENDS
;	COMDAT __real@3e58658c
CONST	SEGMENT
__real@3e58658c DD 03e58658cr			; 0.211325
CONST	ENDS
;	COMDAT __real@3e124925
CONST	SEGMENT
__real@3e124925 DD 03e124925r			; 0.142857
CONST	ENDS
;	COMDAT __real@3cc7ce0c
CONST	SEGMENT
__real@3cc7ce0c DD 03cc7ce0cr			; 0.0243902
CONST	ENDS
;	COMDAT __real@3ca72f05
CONST	SEGMENT
__real@3ca72f05 DD 03ca72f05r			; 0.0204082
CONST	ENDS
;	COMDAT __real@3b5ee95c
CONST	SEGMENT
__real@3b5ee95c DD 03b5ee95cr			; 0.00340136
CONST	ENDS
;	COMDAT __real@00000000
CONST	SEGMENT
__real@00000000 DD 000000000r			; 0
CONST	ENDS
;	COMDAT rtc$TMZ
rtc$TMZ	SEGMENT
_RTC_Shutdown.rtc$TMZ DQ FLAT:_RTC_Shutdown
rtc$TMZ	ENDS
;	COMDAT rtc$IMZ
rtc$IMZ	SEGMENT
_RTC_InitBase.rtc$IMZ DQ FLAT:_RTC_InitBase
rtc$IMZ	ENDS
;	COMDAT ??_R1A@?0A@EA@bad_cast@std@@8
rdata$r	SEGMENT
??_R1A@?0A@EA@bad_cast@std@@8 DD imagerel ??_R0?AVbad_cast@std@@@8 ; std::bad_cast::`RTTI Base Class Descriptor at (0,-1,0,64)'
	DD	01H
	DD	00H
	DD	0ffffffffH
	DD	00H
	DD	040H
	DD	imagerel ??_R3bad_cast@std@@8
rdata$r	ENDS
;	COMDAT ??_R2bad_cast@std@@8
rdata$r	SEGMENT
??_R2bad_cast@std@@8 DD imagerel ??_R1A@?0A@EA@bad_cast@std@@8 ; std::bad_cast::`RTTI Base Class Array'
	DD	imagerel ??_R1A@?0A@EA@exception@std@@8
	ORG $+3
rdata$r	ENDS
;	COMDAT ??_R3bad_cast@std@@8
rdata$r	SEGMENT
??_R3bad_cast@std@@8 DD 00H				; std::bad_cast::`RTTI Class Hierarchy Descriptor'
	DD	00H
	DD	02H
	DD	imagerel ??_R2bad_cast@std@@8
rdata$r	ENDS
;	COMDAT ??_R4bad_cast@std@@6B@
rdata$r	SEGMENT
??_R4bad_cast@std@@6B@ DD 01H				; std::bad_cast::`RTTI Complete Object Locator'
	DD	00H
	DD	00H
	DD	imagerel ??_R0?AVbad_cast@std@@@8
	DD	imagerel ??_R3bad_cast@std@@8
	DD	imagerel ??_R4bad_cast@std@@6B@
rdata$r	ENDS
;	COMDAT ??_R2?$basic_ostream@DU?$char_traits@D@std@@@std@@8
rdata$r	SEGMENT
??_R2?$basic_ostream@DU?$char_traits@D@std@@@std@@8 DD imagerel ??_R1A@?0A@EA@?$basic_ostream@DU?$char_traits@D@std@@@std@@8 ; std::basic_ostream<char,std::char_traits<char> >::`RTTI Base Class Array'
	DD	imagerel ??_R1A@A@3FA@?$basic_ios@DU?$char_traits@D@std@@@std@@8
	DD	imagerel ??_R1A@A@3EA@ios_base@std@@8
	DD	imagerel ??_R17A@3EA@?$_Iosb@H@std@@8
	ORG $+3
rdata$r	ENDS
;	COMDAT ??_R3?$basic_ostream@DU?$char_traits@D@std@@@std@@8
rdata$r	SEGMENT
??_R3?$basic_ostream@DU?$char_traits@D@std@@@std@@8 DD 00H ; std::basic_ostream<char,std::char_traits<char> >::`RTTI Class Hierarchy Descriptor'
	DD	00H
	DD	04H
	DD	imagerel ??_R2?$basic_ostream@DU?$char_traits@D@std@@@std@@8
rdata$r	ENDS
;	COMDAT ??_R0?AV?$basic_ostream@DU?$char_traits@D@std@@@std@@@8
data$rs	SEGMENT
??_R0?AV?$basic_ostream@DU?$char_traits@D@std@@@std@@@8 DQ FLAT:??_7type_info@@6B@ ; std::basic_ostream<char,std::char_traits<char> > `RTTI Type Descriptor'
	DQ	0000000000000000H
	DB	'.?AV?$basic_ostream@DU?$char_traits@D@std@@@std@@', 00H
data$rs	ENDS
;	COMDAT ??_R1A@?0A@EA@?$basic_ostream@DU?$char_traits@D@std@@@std@@8
rdata$r	SEGMENT
??_R1A@?0A@EA@?$basic_ostream@DU?$char_traits@D@std@@@std@@8 DD imagerel ??_R0?AV?$basic_ostream@DU?$char_traits@D@std@@@std@@@8 ; std::basic_ostream<char,std::char_traits<char> >::`RTTI Base Class Descriptor at (0,-1,0,64)'
	DD	03H
	DD	00H
	DD	0ffffffffH
	DD	00H
	DD	040H
	DD	imagerel ??_R3?$basic_ostream@DU?$char_traits@D@std@@@std@@8
rdata$r	ENDS
;	COMDAT ??_R1A@?0A@EA@?$basic_ofstream@DU?$char_traits@D@std@@@std@@8
rdata$r	SEGMENT
??_R1A@?0A@EA@?$basic_ofstream@DU?$char_traits@D@std@@@std@@8 DD imagerel ??_R0?AV?$basic_ofstream@DU?$char_traits@D@std@@@std@@@8 ; std::basic_ofstream<char,std::char_traits<char> >::`RTTI Base Class Descriptor at (0,-1,0,64)'
	DD	04H
	DD	00H
	DD	0ffffffffH
	DD	00H
	DD	040H
	DD	imagerel ??_R3?$basic_ofstream@DU?$char_traits@D@std@@@std@@8
rdata$r	ENDS
;	COMDAT ??_R2?$basic_ofstream@DU?$char_traits@D@std@@@std@@8
rdata$r	SEGMENT
??_R2?$basic_ofstream@DU?$char_traits@D@std@@@std@@8 DD imagerel ??_R1A@?0A@EA@?$basic_ofstream@DU?$char_traits@D@std@@@std@@8 ; std::basic_ofstream<char,std::char_traits<char> >::`RTTI Base Class Array'
	DD	imagerel ??_R1A@?0A@EA@?$basic_ostream@DU?$char_traits@D@std@@@std@@8
	DD	imagerel ??_R1A@A@3FA@?$basic_ios@DU?$char_traits@D@std@@@std@@8
	DD	imagerel ??_R1A@A@3EA@ios_base@std@@8
	DD	imagerel ??_R17A@3EA@?$_Iosb@H@std@@8
	ORG $+3
rdata$r	ENDS
;	COMDAT ??_R3?$basic_ofstream@DU?$char_traits@D@std@@@std@@8
rdata$r	SEGMENT
??_R3?$basic_ofstream@DU?$char_traits@D@std@@@std@@8 DD 00H ; std::basic_ofstream<char,std::char_traits<char> >::`RTTI Class Hierarchy Descriptor'
	DD	00H
	DD	05H
	DD	imagerel ??_R2?$basic_ofstream@DU?$char_traits@D@std@@@std@@8
rdata$r	ENDS
;	COMDAT ??_R0?AV?$basic_ofstream@DU?$char_traits@D@std@@@std@@@8
data$rs	SEGMENT
??_R0?AV?$basic_ofstream@DU?$char_traits@D@std@@@std@@@8 DQ FLAT:??_7type_info@@6B@ ; std::basic_ofstream<char,std::char_traits<char> > `RTTI Type Descriptor'
	DQ	0000000000000000H
	DB	'.?AV?$basic_ofstream@DU?$char_traits@D@std@@@std@@', 00H
data$rs	ENDS
;	COMDAT ??_R4?$basic_ofstream@DU?$char_traits@D@std@@@std@@6B@
rdata$r	SEGMENT
??_R4?$basic_ofstream@DU?$char_traits@D@std@@@std@@6B@ DD 01H ; std::basic_ofstream<char,std::char_traits<char> >::`RTTI Complete Object Locator'
	DD	0a8H
	DD	04H
	DD	imagerel ??_R0?AV?$basic_ofstream@DU?$char_traits@D@std@@@std@@@8
	DD	imagerel ??_R3?$basic_ofstream@DU?$char_traits@D@std@@@std@@8
	DD	imagerel ??_R4?$basic_ofstream@DU?$char_traits@D@std@@@std@@6B@
rdata$r	ENDS
;	COMDAT ??_R17A@3EA@?$_Iosb@H@std@@8
rdata$r	SEGMENT
??_R17A@3EA@?$_Iosb@H@std@@8 DD imagerel ??_R0?AV?$_Iosb@H@std@@@8 ; std::_Iosb<int>::`RTTI Base Class Descriptor at (8,0,4,64)'
	DD	00H
	DD	08H
	DD	00H
	DD	04H
	DD	040H
	DD	imagerel ??_R3?$_Iosb@H@std@@8
rdata$r	ENDS
;	COMDAT ??_R1A@A@3EA@ios_base@std@@8
rdata$r	SEGMENT
??_R1A@A@3EA@ios_base@std@@8 DD imagerel ??_R0?AVios_base@std@@@8 ; std::ios_base::`RTTI Base Class Descriptor at (0,0,4,64)'
	DD	01H
	DD	00H
	DD	00H
	DD	04H
	DD	040H
	DD	imagerel ??_R3ios_base@std@@8
rdata$r	ENDS
;	COMDAT ??_R1A@?0A@EA@?$_Iosb@H@std@@8
rdata$r	SEGMENT
??_R1A@?0A@EA@?$_Iosb@H@std@@8 DD imagerel ??_R0?AV?$_Iosb@H@std@@@8 ; std::_Iosb<int>::`RTTI Base Class Descriptor at (0,-1,0,64)'
	DD	00H
	DD	00H
	DD	0ffffffffH
	DD	00H
	DD	040H
	DD	imagerel ??_R3?$_Iosb@H@std@@8
rdata$r	ENDS
;	COMDAT ??_R2?$_Iosb@H@std@@8
rdata$r	SEGMENT
??_R2?$_Iosb@H@std@@8 DD imagerel ??_R1A@?0A@EA@?$_Iosb@H@std@@8 ; std::_Iosb<int>::`RTTI Base Class Array'
	ORG $+3
rdata$r	ENDS
;	COMDAT ??_R3?$_Iosb@H@std@@8
rdata$r	SEGMENT
??_R3?$_Iosb@H@std@@8 DD 00H				; std::_Iosb<int>::`RTTI Class Hierarchy Descriptor'
	DD	00H
	DD	01H
	DD	imagerel ??_R2?$_Iosb@H@std@@8
rdata$r	ENDS
;	COMDAT ??_R0?AV?$_Iosb@H@std@@@8
data$rs	SEGMENT
??_R0?AV?$_Iosb@H@std@@@8 DQ FLAT:??_7type_info@@6B@	; std::_Iosb<int> `RTTI Type Descriptor'
	DQ	0000000000000000H
	DB	'.?AV?$_Iosb@H@std@@', 00H
data$rs	ENDS
;	COMDAT ??_R17?0A@EA@?$_Iosb@H@std@@8
rdata$r	SEGMENT
??_R17?0A@EA@?$_Iosb@H@std@@8 DD imagerel ??_R0?AV?$_Iosb@H@std@@@8 ; std::_Iosb<int>::`RTTI Base Class Descriptor at (8,-1,0,64)'
	DD	00H
	DD	08H
	DD	0ffffffffH
	DD	00H
	DD	040H
	DD	imagerel ??_R3?$_Iosb@H@std@@8
rdata$r	ENDS
;	COMDAT ??_R2ios_base@std@@8
rdata$r	SEGMENT
??_R2ios_base@std@@8 DD imagerel ??_R1A@?0A@EA@ios_base@std@@8 ; std::ios_base::`RTTI Base Class Array'
	DD	imagerel ??_R17?0A@EA@?$_Iosb@H@std@@8
	ORG $+3
rdata$r	ENDS
;	COMDAT ??_R3ios_base@std@@8
rdata$r	SEGMENT
??_R3ios_base@std@@8 DD 00H				; std::ios_base::`RTTI Class Hierarchy Descriptor'
	DD	00H
	DD	02H
	DD	imagerel ??_R2ios_base@std@@8
rdata$r	ENDS
;	COMDAT ??_R0?AVios_base@std@@@8
data$rs	SEGMENT
??_R0?AVios_base@std@@@8 DQ FLAT:??_7type_info@@6B@	; std::ios_base `RTTI Type Descriptor'
	DQ	0000000000000000H
	DB	'.?AVios_base@std@@', 00H
data$rs	ENDS
;	COMDAT ??_R1A@?0A@EA@ios_base@std@@8
rdata$r	SEGMENT
??_R1A@?0A@EA@ios_base@std@@8 DD imagerel ??_R0?AVios_base@std@@@8 ; std::ios_base::`RTTI Base Class Descriptor at (0,-1,0,64)'
	DD	01H
	DD	00H
	DD	0ffffffffH
	DD	00H
	DD	040H
	DD	imagerel ??_R3ios_base@std@@8
rdata$r	ENDS
;	COMDAT ??_R1A@?0A@EA@?$basic_ios@DU?$char_traits@D@std@@@std@@8
rdata$r	SEGMENT
??_R1A@?0A@EA@?$basic_ios@DU?$char_traits@D@std@@@std@@8 DD imagerel ??_R0?AV?$basic_ios@DU?$char_traits@D@std@@@std@@@8 ; std::basic_ios<char,std::char_traits<char> >::`RTTI Base Class Descriptor at (0,-1,0,64)'
	DD	02H
	DD	00H
	DD	0ffffffffH
	DD	00H
	DD	040H
	DD	imagerel ??_R3?$basic_ios@DU?$char_traits@D@std@@@std@@8
rdata$r	ENDS
;	COMDAT ??_R2?$basic_ios@DU?$char_traits@D@std@@@std@@8
rdata$r	SEGMENT
??_R2?$basic_ios@DU?$char_traits@D@std@@@std@@8 DD imagerel ??_R1A@?0A@EA@?$basic_ios@DU?$char_traits@D@std@@@std@@8 ; std::basic_ios<char,std::char_traits<char> >::`RTTI Base Class Array'
	DD	imagerel ??_R1A@?0A@EA@ios_base@std@@8
	DD	imagerel ??_R17?0A@EA@?$_Iosb@H@std@@8
	ORG $+3
rdata$r	ENDS
;	COMDAT ??_R3?$basic_ios@DU?$char_traits@D@std@@@std@@8
rdata$r	SEGMENT
??_R3?$basic_ios@DU?$char_traits@D@std@@@std@@8 DD 00H	; std::basic_ios<char,std::char_traits<char> >::`RTTI Class Hierarchy Descriptor'
	DD	00H
	DD	03H
	DD	imagerel ??_R2?$basic_ios@DU?$char_traits@D@std@@@std@@8
rdata$r	ENDS
;	COMDAT ??_R0?AV?$basic_ios@DU?$char_traits@D@std@@@std@@@8
data$rs	SEGMENT
??_R0?AV?$basic_ios@DU?$char_traits@D@std@@@std@@@8 DQ FLAT:??_7type_info@@6B@ ; std::basic_ios<char,std::char_traits<char> > `RTTI Type Descriptor'
	DQ	0000000000000000H
	DB	'.?AV?$basic_ios@DU?$char_traits@D@std@@@std@@', 00H
data$rs	ENDS
;	COMDAT ??_R1A@A@3FA@?$basic_ios@DU?$char_traits@D@std@@@std@@8
rdata$r	SEGMENT
??_R1A@A@3FA@?$basic_ios@DU?$char_traits@D@std@@@std@@8 DD imagerel ??_R0?AV?$basic_ios@DU?$char_traits@D@std@@@std@@@8 ; std::basic_ios<char,std::char_traits<char> >::`RTTI Base Class Descriptor at (0,0,4,80)'
	DD	02H
	DD	00H
	DD	00H
	DD	04H
	DD	050H
	DD	imagerel ??_R3?$basic_ios@DU?$char_traits@D@std@@@std@@8
rdata$r	ENDS
;	COMDAT ??_R2?$basic_streambuf@DU?$char_traits@D@std@@@std@@8
rdata$r	SEGMENT
??_R2?$basic_streambuf@DU?$char_traits@D@std@@@std@@8 DD imagerel ??_R1A@?0A@EA@?$basic_streambuf@DU?$char_traits@D@std@@@std@@8 ; std::basic_streambuf<char,std::char_traits<char> >::`RTTI Base Class Array'
	ORG $+3
rdata$r	ENDS
;	COMDAT ??_R3?$basic_streambuf@DU?$char_traits@D@std@@@std@@8
rdata$r	SEGMENT
??_R3?$basic_streambuf@DU?$char_traits@D@std@@@std@@8 DD 00H ; std::basic_streambuf<char,std::char_traits<char> >::`RTTI Class Hierarchy Descriptor'
	DD	00H
	DD	01H
	DD	imagerel ??_R2?$basic_streambuf@DU?$char_traits@D@std@@@std@@8
rdata$r	ENDS
;	COMDAT ??_R0?AV?$basic_streambuf@DU?$char_traits@D@std@@@std@@@8
data$rs	SEGMENT
??_R0?AV?$basic_streambuf@DU?$char_traits@D@std@@@std@@@8 DQ FLAT:??_7type_info@@6B@ ; std::basic_streambuf<char,std::char_traits<char> > `RTTI Type Descriptor'
	DQ	0000000000000000H
	DB	'.?AV?$basic_streambuf@DU?$char_traits@D@std@@@std@@', 00H
data$rs	ENDS
;	COMDAT ??_R1A@?0A@EA@?$basic_streambuf@DU?$char_traits@D@std@@@std@@8
rdata$r	SEGMENT
??_R1A@?0A@EA@?$basic_streambuf@DU?$char_traits@D@std@@@std@@8 DD imagerel ??_R0?AV?$basic_streambuf@DU?$char_traits@D@std@@@std@@@8 ; std::basic_streambuf<char,std::char_traits<char> >::`RTTI Base Class Descriptor at (0,-1,0,64)'
	DD	00H
	DD	00H
	DD	0ffffffffH
	DD	00H
	DD	040H
	DD	imagerel ??_R3?$basic_streambuf@DU?$char_traits@D@std@@@std@@8
rdata$r	ENDS
;	COMDAT ??_R1A@?0A@EA@?$basic_filebuf@DU?$char_traits@D@std@@@std@@8
rdata$r	SEGMENT
??_R1A@?0A@EA@?$basic_filebuf@DU?$char_traits@D@std@@@std@@8 DD imagerel ??_R0?AV?$basic_filebuf@DU?$char_traits@D@std@@@std@@@8 ; std::basic_filebuf<char,std::char_traits<char> >::`RTTI Base Class Descriptor at (0,-1,0,64)'
	DD	01H
	DD	00H
	DD	0ffffffffH
	DD	00H
	DD	040H
	DD	imagerel ??_R3?$basic_filebuf@DU?$char_traits@D@std@@@std@@8
rdata$r	ENDS
;	COMDAT ??_R2?$basic_filebuf@DU?$char_traits@D@std@@@std@@8
rdata$r	SEGMENT
??_R2?$basic_filebuf@DU?$char_traits@D@std@@@std@@8 DD imagerel ??_R1A@?0A@EA@?$basic_filebuf@DU?$char_traits@D@std@@@std@@8 ; std::basic_filebuf<char,std::char_traits<char> >::`RTTI Base Class Array'
	DD	imagerel ??_R1A@?0A@EA@?$basic_streambuf@DU?$char_traits@D@std@@@std@@8
	ORG $+3
rdata$r	ENDS
;	COMDAT ??_R3?$basic_filebuf@DU?$char_traits@D@std@@@std@@8
rdata$r	SEGMENT
??_R3?$basic_filebuf@DU?$char_traits@D@std@@@std@@8 DD 00H ; std::basic_filebuf<char,std::char_traits<char> >::`RTTI Class Hierarchy Descriptor'
	DD	00H
	DD	02H
	DD	imagerel ??_R2?$basic_filebuf@DU?$char_traits@D@std@@@std@@8
rdata$r	ENDS
;	COMDAT ??_R0?AV?$basic_filebuf@DU?$char_traits@D@std@@@std@@@8
data$rs	SEGMENT
??_R0?AV?$basic_filebuf@DU?$char_traits@D@std@@@std@@@8 DQ FLAT:??_7type_info@@6B@ ; std::basic_filebuf<char,std::char_traits<char> > `RTTI Type Descriptor'
	DQ	0000000000000000H
	DB	'.?AV?$basic_filebuf@DU?$char_traits@D@std@@@std@@', 00H
data$rs	ENDS
;	COMDAT ??_R4?$basic_filebuf@DU?$char_traits@D@std@@@std@@6B@
rdata$r	SEGMENT
??_R4?$basic_filebuf@DU?$char_traits@D@std@@@std@@6B@ DD 01H ; std::basic_filebuf<char,std::char_traits<char> >::`RTTI Complete Object Locator'
	DD	00H
	DD	00H
	DD	imagerel ??_R0?AV?$basic_filebuf@DU?$char_traits@D@std@@@std@@@8
	DD	imagerel ??_R3?$basic_filebuf@DU?$char_traits@D@std@@@std@@8
	DD	imagerel ??_R4?$basic_filebuf@DU?$char_traits@D@std@@@std@@6B@
rdata$r	ENDS
;	COMDAT ??_R1A@?0A@EA@bad_array_new_length@std@@8
rdata$r	SEGMENT
??_R1A@?0A@EA@bad_array_new_length@std@@8 DD imagerel ??_R0?AVbad_array_new_length@std@@@8 ; std::bad_array_new_length::`RTTI Base Class Descriptor at (0,-1,0,64)'
	DD	02H
	DD	00H
	DD	0ffffffffH
	DD	00H
	DD	040H
	DD	imagerel ??_R3bad_array_new_length@std@@8
rdata$r	ENDS
;	COMDAT ??_R2bad_array_new_length@std@@8
rdata$r	SEGMENT
??_R2bad_array_new_length@std@@8 DD imagerel ??_R1A@?0A@EA@bad_array_new_length@std@@8 ; std::bad_array_new_length::`RTTI Base Class Array'
	DD	imagerel ??_R1A@?0A@EA@bad_alloc@std@@8
	DD	imagerel ??_R1A@?0A@EA@exception@std@@8
	ORG $+3
rdata$r	ENDS
;	COMDAT ??_R3bad_array_new_length@std@@8
rdata$r	SEGMENT
??_R3bad_array_new_length@std@@8 DD 00H			; std::bad_array_new_length::`RTTI Class Hierarchy Descriptor'
	DD	00H
	DD	03H
	DD	imagerel ??_R2bad_array_new_length@std@@8
rdata$r	ENDS
;	COMDAT ??_R4bad_array_new_length@std@@6B@
rdata$r	SEGMENT
??_R4bad_array_new_length@std@@6B@ DD 01H		; std::bad_array_new_length::`RTTI Complete Object Locator'
	DD	00H
	DD	00H
	DD	imagerel ??_R0?AVbad_array_new_length@std@@@8
	DD	imagerel ??_R3bad_array_new_length@std@@8
	DD	imagerel ??_R4bad_array_new_length@std@@6B@
rdata$r	ENDS
;	COMDAT ??_R1A@?0A@EA@bad_alloc@std@@8
rdata$r	SEGMENT
??_R1A@?0A@EA@bad_alloc@std@@8 DD imagerel ??_R0?AVbad_alloc@std@@@8 ; std::bad_alloc::`RTTI Base Class Descriptor at (0,-1,0,64)'
	DD	01H
	DD	00H
	DD	0ffffffffH
	DD	00H
	DD	040H
	DD	imagerel ??_R3bad_alloc@std@@8
rdata$r	ENDS
;	COMDAT ??_R2bad_alloc@std@@8
rdata$r	SEGMENT
??_R2bad_alloc@std@@8 DD imagerel ??_R1A@?0A@EA@bad_alloc@std@@8 ; std::bad_alloc::`RTTI Base Class Array'
	DD	imagerel ??_R1A@?0A@EA@exception@std@@8
	ORG $+3
rdata$r	ENDS
;	COMDAT ??_R3bad_alloc@std@@8
rdata$r	SEGMENT
??_R3bad_alloc@std@@8 DD 00H				; std::bad_alloc::`RTTI Class Hierarchy Descriptor'
	DD	00H
	DD	02H
	DD	imagerel ??_R2bad_alloc@std@@8
rdata$r	ENDS
;	COMDAT ??_R4bad_alloc@std@@6B@
rdata$r	SEGMENT
??_R4bad_alloc@std@@6B@ DD 01H				; std::bad_alloc::`RTTI Complete Object Locator'
	DD	00H
	DD	00H
	DD	imagerel ??_R0?AVbad_alloc@std@@@8
	DD	imagerel ??_R3bad_alloc@std@@8
	DD	imagerel ??_R4bad_alloc@std@@6B@
rdata$r	ENDS
;	COMDAT ??_R1A@?0A@EA@exception@std@@8
rdata$r	SEGMENT
??_R1A@?0A@EA@exception@std@@8 DD imagerel ??_R0?AVexception@std@@@8 ; std::exception::`RTTI Base Class Descriptor at (0,-1,0,64)'
	DD	00H
	DD	00H
	DD	0ffffffffH
	DD	00H
	DD	040H
	DD	imagerel ??_R3exception@std@@8
rdata$r	ENDS
;	COMDAT ??_R2exception@std@@8
rdata$r	SEGMENT
??_R2exception@std@@8 DD imagerel ??_R1A@?0A@EA@exception@std@@8 ; std::exception::`RTTI Base Class Array'
	ORG $+3
rdata$r	ENDS
;	COMDAT ??_R3exception@std@@8
rdata$r	SEGMENT
??_R3exception@std@@8 DD 00H				; std::exception::`RTTI Class Hierarchy Descriptor'
	DD	00H
	DD	01H
	DD	imagerel ??_R2exception@std@@8
rdata$r	ENDS
;	COMDAT ??_R4exception@std@@6B@
rdata$r	SEGMENT
??_R4exception@std@@6B@ DD 01H				; std::exception::`RTTI Complete Object Locator'
	DD	00H
	DD	00H
	DD	imagerel ??_R0?AVexception@std@@@8
	DD	imagerel ??_R3exception@std@@8
	DD	imagerel ??_R4exception@std@@6B@
rdata$r	ENDS
;	COMDAT ??_C@_1DC@HHLCGOLC@?$AAx?$AA?4?$AAl?$AAe?$AAn?$AAg?$AAt?$AAh?$AA?$CI?$AA?$CJ?$AA?5?$AA?$DN?$AA?$DN?$AA?5?$AAy@
CONST	SEGMENT
??_C@_1DC@HHLCGOLC@?$AAx?$AA?4?$AAl?$AAe?$AAn?$AAg?$AAt?$AAh?$AA?$CI?$AA?$CJ?$AA?5?$AA?$DN?$AA?$DN?$AA?5?$AAy@ DB 'x'
	DB	00H, '.', 00H, 'l', 00H, 'e', 00H, 'n', 00H, 'g', 00H, 't', 00H
	DB	'h', 00H, '(', 00H, ')', 00H, ' ', 00H, '=', 00H, '=', 00H, ' '
	DB	00H, 'y', 00H, '.', 00H, 'l', 00H, 'e', 00H, 'n', 00H, 'g', 00H
	DB	't', 00H, 'h', 00H, '(', 00H, ')', 00H, 00H, 00H ; `string'
CONST	ENDS
;	COMDAT ??_C@_1NA@OPABFNEN@?$AAC?$AA?3?$AA?2?$AAU?$AAs?$AAe?$AAr?$AAs?$AA?2?$AAk?$AAs?$AAa?$AAr?$AAt?$AA?2@
CONST	SEGMENT
??_C@_1NA@OPABFNEN@?$AAC?$AA?3?$AA?2?$AAU?$AAs?$AAe?$AAr?$AAs?$AA?2?$AAk?$AAs?$AAa?$AAr?$AAt?$AA?2@ DB 'C'
	DB	00H, ':', 00H, '\', 00H, 'U', 00H, 's', 00H, 'e', 00H, 'r', 00H
	DB	's', 00H, '\', 00H, 'k', 00H, 's', 00H, 'a', 00H, 'r', 00H, 't'
	DB	00H, '\', 00H, 'O', 00H, 'n', 00H, 'e', 00H, 'D', 00H, 'r', 00H
	DB	'i', 00H, 'v', 00H, 'e', 00H, '\', 00H, 'D', 00H, 'e', 00H, 's'
	DB	00H, 'k', 00H, 't', 00H, 'o', 00H, 'p', 00H, '\', 00H, 'F', 00H
	DB	'l', 00H, 'a', 00H, 'p', 00H, 'p', 00H, 'y', 00H, 'B', 00H, 'i'
	DB	00H, 'r', 00H, 'd', 00H, '\', 00H, 'l', 00H, 'i', 00H, 'b', 00H
	DB	'r', 00H, 'a', 00H, 'r', 00H, 'i', 00H, 'e', 00H, 's', 00H, '\'
	DB	00H, 'e', 00H, 'x', 00H, 't', 00H, 'e', 00H, 'r', 00H, 'n', 00H
	DB	'a', 00H, 'l', 00H, '\', 00H, 'g', 00H, 'l', 00H, 'm', 00H, '\'
	DB	00H, 'g', 00H, 'l', 00H, 'm', 00H, '\', 00H, 'd', 00H, 'e', 00H
	DB	't', 00H, 'a', 00H, 'i', 00H, 'l', 00H, '\', 00H, 'f', 00H, 'u'
	DB	00H, 'n', 00H, 'c', 00H, '_', 00H, 'v', 00H, 'e', 00H, 'c', 00H
	DB	't', 00H, 'o', 00H, 'r', 00H, '_', 00H, 'r', 00H, 'e', 00H, 'l'
	DB	00H, 'a', 00H, 't', 00H, 'i', 00H, 'o', 00H, 'n', 00H, 'a', 00H
	DB	'l', 00H, '.', 00H, 'i', 00H, 'n', 00H, 'l', 00H, 00H, 00H ; `string'
CONST	ENDS
;	COMDAT ??_C@_1DG@FJIKMGFD@?$AA?$CC?$AAt?$AAr?$AAa?$AAn?$AAs?$AAp?$AAo?$AAs?$AAe?$AAd?$AA?5?$AAp?$AAo?$AAi@
CONST	SEGMENT
??_C@_1DG@FJIKMGFD@?$AA?$CC?$AAt?$AAr?$AAa?$AAn?$AAs?$AAp?$AAo?$AAs?$AAe?$AAd?$AA?5?$AAp?$AAo?$AAi@ DB '"'
	DB	00H, 't', 00H, 'r', 00H, 'a', 00H, 'n', 00H, 's', 00H, 'p', 00H
	DB	'o', 00H, 's', 00H, 'e', 00H, 'd', 00H, ' ', 00H, 'p', 00H, 'o'
	DB	00H, 'i', 00H, 'n', 00H, 't', 00H, 'e', 00H, 'r', 00H, ' ', 00H
	DB	'r', 00H, 'a', 00H, 'n', 00H, 'g', 00H, 'e', 00H, '"', 00H, 00H
	DB	00H						; `string'
CONST	ENDS
;	COMDAT ??_C@_1MG@NOLPABAB@?$AAC?$AA?3?$AA?2?$AAP?$AAr?$AAo?$AAg?$AAr?$AAa?$AAm?$AA?5?$AAF?$AAi?$AAl?$AAe@
CONST	SEGMENT
??_C@_1MG@NOLPABAB@?$AAC?$AA?3?$AA?2?$AAP?$AAr?$AAo?$AAg?$AAr?$AAa?$AAm?$AA?5?$AAF?$AAi?$AAl?$AAe@ DB 'C'
	DB	00H, ':', 00H, '\', 00H, 'P', 00H, 'r', 00H, 'o', 00H, 'g', 00H
	DB	'r', 00H, 'a', 00H, 'm', 00H, ' ', 00H, 'F', 00H, 'i', 00H, 'l'
	DB	00H, 'e', 00H, 's', 00H, '\', 00H, 'M', 00H, 'i', 00H, 'c', 00H
	DB	'r', 00H, 'o', 00H, 's', 00H, 'o', 00H, 'f', 00H, 't', 00H, ' '
	DB	00H, 'V', 00H, 'i', 00H, 's', 00H, 'u', 00H, 'a', 00H, 'l', 00H
	DB	' ', 00H, 'S', 00H, 't', 00H, 'u', 00H, 'd', 00H, 'i', 00H, 'o'
	DB	00H, '\', 00H, '2', 00H, '0', 00H, '2', 00H, '2', 00H, '\', 00H
	DB	'C', 00H, 'o', 00H, 'm', 00H, 'm', 00H, 'u', 00H, 'n', 00H, 'i'
	DB	00H, 't', 00H, 'y', 00H, '\', 00H, 'V', 00H, 'C', 00H, '\', 00H
	DB	'T', 00H, 'o', 00H, 'o', 00H, 'l', 00H, 's', 00H, '\', 00H, 'M'
	DB	00H, 'S', 00H, 'V', 00H, 'C', 00H, '\', 00H, '1', 00H, '4', 00H
	DB	'.', 00H, '3', 00H, '2', 00H, '.', 00H, '3', 00H, '1', 00H, '3'
	DB	00H, '2', 00H, '6', 00H, '\', 00H, 'i', 00H, 'n', 00H, 'c', 00H
	DB	'l', 00H, 'u', 00H, 'd', 00H, 'e', 00H, '\', 00H, 'x', 00H, 'u'
	DB	00H, 't', 00H, 'i', 00H, 'l', 00H, 'i', 00H, 't', 00H, 'y', 00H
	DB	00H, 00H					; `string'
CONST	ENDS
;	COMDAT ??_C@_0GD@GLKFIMHC@C?3?2Program?5Files?2Microsoft?5Visu@
CONST	SEGMENT
??_C@_0GD@GLKFIMHC@C?3?2Program?5Files?2Microsoft?5Visu@ DB 'C:\Program F'
	DB	'iles\Microsoft Visual Studio\2022\Community\VC\Tools\MSVC\14.'
	DB	'32.31326\include\xutility', 00H		; `string'
CONST	ENDS
;	COMDAT ??_C@_0BJ@HAJGEHKO@transposed?5pointer?5range@
CONST	SEGMENT
??_C@_0BJ@HAJGEHKO@transposed?5pointer?5range@ DB 'transposed pointer ran'
	DB	'ge', 00H					; `string'
CONST	ENDS
;	COMDAT ??_C@_1LG@MEJFBKPC@?$AAC?$AA?3?$AA?2?$AAU?$AAs?$AAe?$AAr?$AAs?$AA?2?$AAk?$AAs?$AAa?$AAr?$AAt?$AA?2@
CONST	SEGMENT
??_C@_1LG@MEJFBKPC@?$AAC?$AA?3?$AA?2?$AAU?$AAs?$AAe?$AAr?$AAs?$AA?2?$AAk?$AAs?$AAa?$AAr?$AAt?$AA?2@ DB 'C'
	DB	00H, ':', 00H, '\', 00H, 'U', 00H, 's', 00H, 'e', 00H, 'r', 00H
	DB	's', 00H, '\', 00H, 'k', 00H, 's', 00H, 'a', 00H, 'r', 00H, 't'
	DB	00H, '\', 00H, 'O', 00H, 'n', 00H, 'e', 00H, 'D', 00H, 'r', 00H
	DB	'i', 00H, 'v', 00H, 'e', 00H, '\', 00H, 'D', 00H, 'e', 00H, 's'
	DB	00H, 'k', 00H, 't', 00H, 'o', 00H, 'p', 00H, '\', 00H, 'F', 00H
	DB	'l', 00H, 'a', 00H, 'p', 00H, 'p', 00H, 'y', 00H, 'B', 00H, 'i'
	DB	00H, 'r', 00H, 'd', 00H, '\', 00H, 'l', 00H, 'i', 00H, 'b', 00H
	DB	'r', 00H, 'a', 00H, 'r', 00H, 'i', 00H, 'e', 00H, 's', 00H, '\'
	DB	00H, 'e', 00H, 'x', 00H, 't', 00H, 'e', 00H, 'r', 00H, 'n', 00H
	DB	'a', 00H, 'l', 00H, '\', 00H, 'g', 00H, 'l', 00H, 'm', 00H, '\'
	DB	00H, 'g', 00H, 'l', 00H, 'm', 00H, '\', 00H, 'd', 00H, 'e', 00H
	DB	't', 00H, 'a', 00H, 'i', 00H, 'l', 00H, '\', 00H, 't', 00H, 'y'
	DB	00H, 'p', 00H, 'e', 00H, '_', 00H, 'v', 00H, 'e', 00H, 'c', 00H
	DB	'3', 00H, '.', 00H, 'i', 00H, 'n', 00H, 'l', 00H, 00H, 00H ; `string'
CONST	ENDS
;	COMDAT ??_C@_0BA@FOIKENOD@vector?5too?5long@
CONST	SEGMENT
??_C@_0BA@FOIKENOD@vector?5too?5long@ DB 'vector too long', 00H ; `string'
CONST	ENDS
;	COMDAT ??_C@_1LG@LAANPDHN@?$AAC?$AA?3?$AA?2?$AAU?$AAs?$AAe?$AAr?$AAs?$AA?2?$AAk?$AAs?$AAa?$AAr?$AAt?$AA?2@
CONST	SEGMENT
??_C@_1LG@LAANPDHN@?$AAC?$AA?3?$AA?2?$AAU?$AAs?$AAe?$AAr?$AAs?$AA?2?$AAk?$AAs?$AAa?$AAr?$AAt?$AA?2@ DB 'C'
	DB	00H, ':', 00H, '\', 00H, 'U', 00H, 's', 00H, 'e', 00H, 'r', 00H
	DB	's', 00H, '\', 00H, 'k', 00H, 's', 00H, 'a', 00H, 'r', 00H, 't'
	DB	00H, '\', 00H, 'O', 00H, 'n', 00H, 'e', 00H, 'D', 00H, 'r', 00H
	DB	'i', 00H, 'v', 00H, 'e', 00H, '\', 00H, 'D', 00H, 'e', 00H, 's'
	DB	00H, 'k', 00H, 't', 00H, 'o', 00H, 'p', 00H, '\', 00H, 'F', 00H
	DB	'l', 00H, 'a', 00H, 'p', 00H, 'p', 00H, 'y', 00H, 'B', 00H, 'i'
	DB	00H, 'r', 00H, 'd', 00H, '\', 00H, 'l', 00H, 'i', 00H, 'b', 00H
	DB	'r', 00H, 'a', 00H, 'r', 00H, 'i', 00H, 'e', 00H, 's', 00H, '\'
	DB	00H, 'e', 00H, 'x', 00H, 't', 00H, 'e', 00H, 'r', 00H, 'n', 00H
	DB	'a', 00H, 'l', 00H, '\', 00H, 'g', 00H, 'l', 00H, 'm', 00H, '\'
	DB	00H, 'g', 00H, 'l', 00H, 'm', 00H, '\', 00H, 'd', 00H, 'e', 00H
	DB	't', 00H, 'a', 00H, 'i', 00H, 'l', 00H, '\', 00H, 't', 00H, 'y'
	DB	00H, 'p', 00H, 'e', 00H, '_', 00H, 'v', 00H, 'e', 00H, 'c', 00H
	DB	'4', 00H, '.', 00H, 'i', 00H, 'n', 00H, 'l', 00H, 00H, 00H ; `string'
CONST	ENDS
;	COMDAT ??_C@_1DK@BGNCJAPL@?$AAi?$AA?5?$AA?$DO?$AA?$DN?$AA?5?$AA0?$AA?5?$AA?$CG?$AA?$CG?$AA?5?$AAi?$AA?5?$AA?$DM?$AA?5?$AAt@
CONST	SEGMENT
??_C@_1DK@BGNCJAPL@?$AAi?$AA?5?$AA?$DO?$AA?$DN?$AA?5?$AA0?$AA?5?$AA?$CG?$AA?$CG?$AA?5?$AAi?$AA?5?$AA?$DM?$AA?5?$AAt@ DB 'i'
	DB	00H, ' ', 00H, '>', 00H, '=', 00H, ' ', 00H, '0', 00H, ' ', 00H
	DB	'&', 00H, '&', 00H, ' ', 00H, 'i', 00H, ' ', 00H, '<', 00H, ' '
	DB	00H, 't', 00H, 'h', 00H, 'i', 00H, 's', 00H, '-', 00H, '>', 00H
	DB	'l', 00H, 'e', 00H, 'n', 00H, 'g', 00H, 't', 00H, 'h', 00H, '('
	DB	00H, ')', 00H, 00H, 00H			; `string'
CONST	ENDS
;	COMDAT ??_C@_1LG@FPDAFGJN@?$AAC?$AA?3?$AA?2?$AAU?$AAs?$AAe?$AAr?$AAs?$AA?2?$AAk?$AAs?$AAa?$AAr?$AAt?$AA?2@
CONST	SEGMENT
??_C@_1LG@FPDAFGJN@?$AAC?$AA?3?$AA?2?$AAU?$AAs?$AAe?$AAr?$AAs?$AA?2?$AAk?$AAs?$AAa?$AAr?$AAt?$AA?2@ DB 'C'
	DB	00H, ':', 00H, '\', 00H, 'U', 00H, 's', 00H, 'e', 00H, 'r', 00H
	DB	's', 00H, '\', 00H, 'k', 00H, 's', 00H, 'a', 00H, 'r', 00H, 't'
	DB	00H, '\', 00H, 'O', 00H, 'n', 00H, 'e', 00H, 'D', 00H, 'r', 00H
	DB	'i', 00H, 'v', 00H, 'e', 00H, '\', 00H, 'D', 00H, 'e', 00H, 's'
	DB	00H, 'k', 00H, 't', 00H, 'o', 00H, 'p', 00H, '\', 00H, 'F', 00H
	DB	'l', 00H, 'a', 00H, 'p', 00H, 'p', 00H, 'y', 00H, 'B', 00H, 'i'
	DB	00H, 'r', 00H, 'd', 00H, '\', 00H, 'l', 00H, 'i', 00H, 'b', 00H
	DB	'r', 00H, 'a', 00H, 'r', 00H, 'i', 00H, 'e', 00H, 's', 00H, '\'
	DB	00H, 'e', 00H, 'x', 00H, 't', 00H, 'e', 00H, 'r', 00H, 'n', 00H
	DB	'a', 00H, 'l', 00H, '\', 00H, 'g', 00H, 'l', 00H, 'm', 00H, '\'
	DB	00H, 'g', 00H, 'l', 00H, 'm', 00H, '\', 00H, 'd', 00H, 'e', 00H
	DB	't', 00H, 'a', 00H, 'i', 00H, 'l', 00H, '\', 00H, 't', 00H, 'y'
	DB	00H, 'p', 00H, 'e', 00H, '_', 00H, 'v', 00H, 'e', 00H, 'c', 00H
	DB	'2', 00H, '.', 00H, 'i', 00H, 'n', 00H, 'l', 00H, 00H, 00H ; `string'
CONST	ENDS
;	COMDAT ??_C@_0BI@CFPLBAOH@invalid?5string?5position@
CONST	SEGMENT
??_C@_0BI@CFPLBAOH@invalid?5string?5position@ DB 'invalid string position'
	DB	00H						; `string'
CONST	ENDS
;	COMDAT ??_C@_1HA@FACCKGGH@?$AA?$CC?$AAn?$AAu?$AAl?$AAl?$AA?5?$AAp?$AAo?$AAi?$AAn?$AAt?$AAe?$AAr?$AA?5?$AAc@
CONST	SEGMENT
??_C@_1HA@FACCKGGH@?$AA?$CC?$AAn?$AAu?$AAl?$AAl?$AA?5?$AAp?$AAo?$AAi?$AAn?$AAt?$AAe?$AAr?$AA?5?$AAc@ DB '"'
	DB	00H, 'n', 00H, 'u', 00H, 'l', 00H, 'l', 00H, ' ', 00H, 'p', 00H
	DB	'o', 00H, 'i', 00H, 'n', 00H, 't', 00H, 'e', 00H, 'r', 00H, ' '
	DB	00H, 'c', 00H, 'a', 00H, 'n', 00H, 'n', 00H, 'o', 00H, 't', 00H
	DB	' ', 00H, 'p', 00H, 'o', 00H, 'i', 00H, 'n', 00H, 't', 00H, ' '
	DB	00H, 't', 00H, 'o', 00H, ' ', 00H, 'a', 00H, ' ', 00H, 'b', 00H
	DB	'l', 00H, 'o', 00H, 'c', 00H, 'k', 00H, ' ', 00H, 'o', 00H, 'f'
	DB	00H, ' ', 00H, 'n', 00H, 'o', 00H, 'n', 00H, '-', 00H, 'z', 00H
	DB	'e', 00H, 'r', 00H, 'o', 00H, ' ', 00H, 's', 00H, 'i', 00H, 'z'
	DB	00H, 'e', 00H, '"', 00H, 00H, 00H		; `string'
CONST	ENDS
;	COMDAT ??_C@_0DG@KGHKKGBC@null?5pointer?5cannot?5point?5to?5a?5@
CONST	SEGMENT
??_C@_0DG@KGHKKGBC@null?5pointer?5cannot?5point?5to?5a?5@ DB 'null pointe'
	DB	'r cannot point to a block of non-zero size', 00H ; `string'
CONST	ENDS
;	COMDAT ??_C@_1EC@DINNLDHA@?$AA?$CC?$AAf?$AAr?$AAo?$AAn?$AAt?$AA?$CI?$AA?$CJ?$AA?5?$AAc?$AAa?$AAl?$AAl?$AAe?$AAd@
CONST	SEGMENT
??_C@_1EC@DINNLDHA@?$AA?$CC?$AAf?$AAr?$AAo?$AAn?$AAt?$AA?$CI?$AA?$CJ?$AA?5?$AAc?$AAa?$AAl?$AAl?$AAe?$AAd@ DB '"'
	DB	00H, 'f', 00H, 'r', 00H, 'o', 00H, 'n', 00H, 't', 00H, '(', 00H
	DB	')', 00H, ' ', 00H, 'c', 00H, 'a', 00H, 'l', 00H, 'l', 00H, 'e'
	DB	00H, 'd', 00H, ' ', 00H, 'o', 00H, 'n', 00H, ' ', 00H, 'e', 00H
	DB	'm', 00H, 'p', 00H, 't', 00H, 'y', 00H, ' ', 00H, 's', 00H, 't'
	DB	00H, 'r', 00H, 'i', 00H, 'n', 00H, 'g', 00H, '"', 00H, 00H, 00H ; `string'
CONST	ENDS
;	COMDAT ??_C@_0BP@PFIPNLNI@front?$CI?$CJ?5called?5on?5empty?5string@
CONST	SEGMENT
??_C@_0BP@PFIPNLNI@front?$CI?$CJ?5called?5on?5empty?5string@ DB 'front() '
	DB	'called on empty string', 00H		; `string'
CONST	ENDS
;	COMDAT ??_C@_1EA@LEKOKFNB@?$AA?$CC?$AAv?$AAe?$AAc?$AAt?$AAo?$AAr?$AA?5?$AAs?$AAu?$AAb?$AAs?$AAc?$AAr?$AAi@
CONST	SEGMENT
??_C@_1EA@LEKOKFNB@?$AA?$CC?$AAv?$AAe?$AAc?$AAt?$AAo?$AAr?$AA?5?$AAs?$AAu?$AAb?$AAs?$AAc?$AAr?$AAi@ DB '"'
	DB	00H, 'v', 00H, 'e', 00H, 'c', 00H, 't', 00H, 'o', 00H, 'r', 00H
	DB	' ', 00H, 's', 00H, 'u', 00H, 'b', 00H, 's', 00H, 'c', 00H, 'r'
	DB	00H, 'i', 00H, 'p', 00H, 't', 00H, ' ', 00H, 'o', 00H, 'u', 00H
	DB	't', 00H, ' ', 00H, 'o', 00H, 'f', 00H, ' ', 00H, 'r', 00H, 'a'
	DB	00H, 'n', 00H, 'g', 00H, 'e', 00H, '"', 00H, 00H, 00H ; `string'
CONST	ENDS
;	COMDAT ??_C@_1MC@BJDJHFOD@?$AAC?$AA?3?$AA?2?$AAP?$AAr?$AAo?$AAg?$AAr?$AAa?$AAm?$AA?5?$AAF?$AAi?$AAl?$AAe@
CONST	SEGMENT
??_C@_1MC@BJDJHFOD@?$AAC?$AA?3?$AA?2?$AAP?$AAr?$AAo?$AAg?$AAr?$AAa?$AAm?$AA?5?$AAF?$AAi?$AAl?$AAe@ DB 'C'
	DB	00H, ':', 00H, '\', 00H, 'P', 00H, 'r', 00H, 'o', 00H, 'g', 00H
	DB	'r', 00H, 'a', 00H, 'm', 00H, ' ', 00H, 'F', 00H, 'i', 00H, 'l'
	DB	00H, 'e', 00H, 's', 00H, '\', 00H, 'M', 00H, 'i', 00H, 'c', 00H
	DB	'r', 00H, 'o', 00H, 's', 00H, 'o', 00H, 'f', 00H, 't', 00H, ' '
	DB	00H, 'V', 00H, 'i', 00H, 's', 00H, 'u', 00H, 'a', 00H, 'l', 00H
	DB	' ', 00H, 'S', 00H, 't', 00H, 'u', 00H, 'd', 00H, 'i', 00H, 'o'
	DB	00H, '\', 00H, '2', 00H, '0', 00H, '2', 00H, '2', 00H, '\', 00H
	DB	'C', 00H, 'o', 00H, 'm', 00H, 'm', 00H, 'u', 00H, 'n', 00H, 'i'
	DB	00H, 't', 00H, 'y', 00H, '\', 00H, 'V', 00H, 'C', 00H, '\', 00H
	DB	'T', 00H, 'o', 00H, 'o', 00H, 'l', 00H, 's', 00H, '\', 00H, 'M'
	DB	00H, 'S', 00H, 'V', 00H, 'C', 00H, '\', 00H, '1', 00H, '4', 00H
	DB	'.', 00H, '3', 00H, '2', 00H, '.', 00H, '3', 00H, '1', 00H, '3'
	DB	00H, '2', 00H, '6', 00H, '\', 00H, 'i', 00H, 'n', 00H, 'c', 00H
	DB	'l', 00H, 'u', 00H, 'd', 00H, 'e', 00H, '\', 00H, 'v', 00H, 'e'
	DB	00H, 'c', 00H, 't', 00H, 'o', 00H, 'r', 00H, 00H, 00H ; `string'
CONST	ENDS
;	COMDAT ??_C@_0GB@GDCALCPO@C?3?2Program?5Files?2Microsoft?5Visu@
CONST	SEGMENT
??_C@_0GB@GDCALCPO@C?3?2Program?5Files?2Microsoft?5Visu@ DB 'C:\Program F'
	DB	'iles\Microsoft Visual Studio\2022\Community\VC\Tools\MSVC\14.'
	DB	'32.31326\include\vector', 00H		; `string'
CONST	ENDS
;	COMDAT ??_C@_0BO@PFKOHNJC@vector?5subscript?5out?5of?5range@
CONST	SEGMENT
??_C@_0BO@PFKOHNJC@vector?5subscript?5out?5of?5range@ DB 'vector subscrip'
	DB	't out of range', 00H			; `string'
CONST	ENDS
;	COMDAT ??_C@_1ME@IKNKMNDN@?$AAC?$AA?3?$AA?2?$AAP?$AAr?$AAo?$AAg?$AAr?$AAa?$AAm?$AA?5?$AAF?$AAi?$AAl?$AAe@
CONST	SEGMENT
??_C@_1ME@IKNKMNDN@?$AAC?$AA?3?$AA?2?$AAP?$AAr?$AAo?$AAg?$AAr?$AAa?$AAm?$AA?5?$AAF?$AAi?$AAl?$AAe@ DB 'C'
	DB	00H, ':', 00H, '\', 00H, 'P', 00H, 'r', 00H, 'o', 00H, 'g', 00H
	DB	'r', 00H, 'a', 00H, 'm', 00H, ' ', 00H, 'F', 00H, 'i', 00H, 'l'
	DB	00H, 'e', 00H, 's', 00H, '\', 00H, 'M', 00H, 'i', 00H, 'c', 00H
	DB	'r', 00H, 'o', 00H, 's', 00H, 'o', 00H, 'f', 00H, 't', 00H, ' '
	DB	00H, 'V', 00H, 'i', 00H, 's', 00H, 'u', 00H, 'a', 00H, 'l', 00H
	DB	' ', 00H, 'S', 00H, 't', 00H, 'u', 00H, 'd', 00H, 'i', 00H, 'o'
	DB	00H, '\', 00H, '2', 00H, '0', 00H, '2', 00H, '2', 00H, '\', 00H
	DB	'C', 00H, 'o', 00H, 'm', 00H, 'm', 00H, 'u', 00H, 'n', 00H, 'i'
	DB	00H, 't', 00H, 'y', 00H, '\', 00H, 'V', 00H, 'C', 00H, '\', 00H
	DB	'T', 00H, 'o', 00H, 'o', 00H, 'l', 00H, 's', 00H, '\', 00H, 'M'
	DB	00H, 'S', 00H, 'V', 00H, 'C', 00H, '\', 00H, '1', 00H, '4', 00H
	DB	'.', 00H, '3', 00H, '2', 00H, '.', 00H, '3', 00H, '1', 00H, '3'
	DB	00H, '2', 00H, '6', 00H, '\', 00H, 'i', 00H, 'n', 00H, 'c', 00H
	DB	'l', 00H, 'u', 00H, 'd', 00H, 'e', 00H, '\', 00H, 'x', 00H, 's'
	DB	00H, 't', 00H, 'r', 00H, 'i', 00H, 'n', 00H, 'g', 00H, 00H, 00H ; `string'
CONST	ENDS
;	COMDAT ??_C@_0GC@MAJKHLEE@C?3?2Program?5Files?2Microsoft?5Visu@
CONST	SEGMENT
??_C@_0GC@MAJKHLEE@C?3?2Program?5Files?2Microsoft?5Visu@ DB 'C:\Program F'
	DB	'iles\Microsoft Visual Studio\2022\Community\VC\Tools\MSVC\14.'
	DB	'32.31326\include\xstring', 00H		; `string'
CONST	ENDS
;	COMDAT ??_8?$basic_ofstream@DU?$char_traits@D@std@@@std@@7B@
CONST	SEGMENT
??_8?$basic_ofstream@DU?$char_traits@D@std@@@std@@7B@ DD 00H ; std::basic_ofstream<char,std::char_traits<char> >::`vbtable'
	DD	0a8H
CONST	ENDS
;	COMDAT ??_7?$basic_ofstream@DU?$char_traits@D@std@@@std@@6B@
CONST	SEGMENT
??_7?$basic_ofstream@DU?$char_traits@D@std@@@std@@6B@ DQ FLAT:??_R4?$basic_ofstream@DU?$char_traits@D@std@@@std@@6B@ ; std::basic_ofstream<char,std::char_traits<char> >::`vftable'
	DQ	FLAT:??_E?$basic_ofstream@DU?$char_traits@D@std@@@std@@$4PPPPPPPM@A@EAAPEAXI@Z
CONST	ENDS
;	COMDAT ??_C@_04HLKGINEK@DDS?5@
CONST	SEGMENT
??_C@_04HLKGINEK@DDS?5@ DB 'DDS ', 00H			; `string'
CONST	ENDS
;	COMDAT ??_7?$basic_filebuf@DU?$char_traits@D@std@@@std@@6B@
CONST	SEGMENT
??_7?$basic_filebuf@DU?$char_traits@D@std@@@std@@6B@ DQ FLAT:??_R4?$basic_filebuf@DU?$char_traits@D@std@@@std@@6B@ ; std::basic_filebuf<char,std::char_traits<char> >::`vftable'
	DQ	FLAT:??_E?$basic_filebuf@DU?$char_traits@D@std@@@std@@UEAAPEAXI@Z
	DQ	FLAT:?_Lock@?$basic_filebuf@DU?$char_traits@D@std@@@std@@UEAAXXZ
	DQ	FLAT:?_Unlock@?$basic_filebuf@DU?$char_traits@D@std@@@std@@UEAAXXZ
	DQ	FLAT:?overflow@?$basic_filebuf@DU?$char_traits@D@std@@@std@@MEAAHH@Z
	DQ	FLAT:?pbackfail@?$basic_filebuf@DU?$char_traits@D@std@@@std@@MEAAHH@Z
	DQ	FLAT:?showmanyc@?$basic_streambuf@DU?$char_traits@D@std@@@std@@MEAA_JXZ
	DQ	FLAT:?underflow@?$basic_filebuf@DU?$char_traits@D@std@@@std@@MEAAHXZ
	DQ	FLAT:?uflow@?$basic_filebuf@DU?$char_traits@D@std@@@std@@MEAAHXZ
	DQ	FLAT:?xsgetn@?$basic_filebuf@DU?$char_traits@D@std@@@std@@MEAA_JPEAD_J@Z
	DQ	FLAT:?xsputn@?$basic_filebuf@DU?$char_traits@D@std@@@std@@MEAA_JPEBD_J@Z
	DQ	FLAT:?seekoff@?$basic_filebuf@DU?$char_traits@D@std@@@std@@MEAA?AV?$fpos@U_Mbstatet@@@2@_JHH@Z
	DQ	FLAT:?seekpos@?$basic_filebuf@DU?$char_traits@D@std@@@std@@MEAA?AV?$fpos@U_Mbstatet@@@2@V32@H@Z
	DQ	FLAT:?setbuf@?$basic_filebuf@DU?$char_traits@D@std@@@std@@MEAAPEAV?$basic_streambuf@DU?$char_traits@D@std@@@2@PEAD_J@Z
	DQ	FLAT:?sync@?$basic_filebuf@DU?$char_traits@D@std@@@std@@MEAAHXZ
	DQ	FLAT:?imbue@?$basic_filebuf@DU?$char_traits@D@std@@@std@@MEAAXAEBVlocale@2@@Z
CONST	ENDS
;	COMDAT _CT??_R0?AVbad_cast@std@@@8??0bad_cast@std@@QEAA@AEBV01@@Z24
xdata$x	SEGMENT
_CT??_R0?AVbad_cast@std@@@8??0bad_cast@std@@QEAA@AEBV01@@Z24 DD 00H
	DD	imagerel ??_R0?AVbad_cast@std@@@8
	DD	00H
	DD	0ffffffffH
	ORG $+4
	DD	018H
	DD	imagerel ??0bad_cast@std@@QEAA@AEBV01@@Z
xdata$x	ENDS
;	COMDAT ??_R0?AVbad_cast@std@@@8
data$r	SEGMENT
??_R0?AVbad_cast@std@@@8 DQ FLAT:??_7type_info@@6B@	; std::bad_cast `RTTI Type Descriptor'
	DQ	0000000000000000H
	DB	'.?AVbad_cast@std@@', 00H
data$r	ENDS
;	COMDAT _CTA2?AVbad_cast@std@@
xdata$x	SEGMENT
_CTA2?AVbad_cast@std@@ DD 02H
	DD	imagerel _CT??_R0?AVbad_cast@std@@@8??0bad_cast@std@@QEAA@AEBV01@@Z24
	DD	imagerel _CT??_R0?AVexception@std@@@8??0exception@std@@QEAA@AEBV01@@Z24
xdata$x	ENDS
;	COMDAT _TI2?AVbad_cast@std@@
xdata$x	SEGMENT
_TI2?AVbad_cast@std@@ DD 00H
	DD	imagerel ??1bad_cast@std@@UEAA@XZ
	DD	00H
	DD	imagerel _CTA2?AVbad_cast@std@@
xdata$x	ENDS
;	COMDAT ??_C@_08EPJLHIJG@bad?5cast@
CONST	SEGMENT
??_C@_08EPJLHIJG@bad?5cast@ DB 'bad cast', 00H		; `string'
CONST	ENDS
;	COMDAT ??_7bad_cast@std@@6B@
CONST	SEGMENT
??_7bad_cast@std@@6B@ DQ FLAT:??_R4bad_cast@std@@6B@	; std::bad_cast::`vftable'
	DQ	FLAT:??_Ebad_cast@std@@UEAAPEAXI@Z
	DQ	FLAT:?what@exception@std@@UEBAPEBDXZ
CONST	ENDS
;	COMDAT ??_C@_0BA@JFNIOLAK@string?5too?5long@
CONST	SEGMENT
??_C@_0BA@JFNIOLAK@string?5too?5long@ DB 'string too long', 00H ; `string'
CONST	ENDS
;	COMDAT ??_C@_13COJANIEC@?$AA0@
CONST	SEGMENT
??_C@_13COJANIEC@?$AA0@ DB '0', 00H, 00H, 00H		; `string'
CONST	ENDS
;	COMDAT ??_C@_1ME@ILJMNGPA@?$AAC?$AA?3?$AA?2?$AAU?$AAs?$AAe?$AAr?$AAs?$AA?2?$AAk?$AAs?$AAa?$AAr?$AAt?$AA?2@
CONST	SEGMENT
??_C@_1ME@ILJMNGPA@?$AAC?$AA?3?$AA?2?$AAU?$AAs?$AAe?$AAr?$AAs?$AA?2?$AAk?$AAs?$AAa?$AAr?$AAt?$AA?2@ DB 'C'
	DB	00H, ':', 00H, '\', 00H, 'U', 00H, 's', 00H, 'e', 00H, 'r', 00H
	DB	's', 00H, '\', 00H, 'k', 00H, 's', 00H, 'a', 00H, 'r', 00H, 't'
	DB	00H, '\', 00H, 'O', 00H, 'n', 00H, 'e', 00H, 'D', 00H, 'r', 00H
