; Listing generated by Microsoft (R) Optimizing Compiler Version 19.32.31329.0 

include listing.inc

INCLUDELIB MSVCRTD

CONST	SEGMENT
$SG57654 DB	'fastCosNew %ld clocks', 0aH, 00H
	ORG $+1
$SG57696 DB	'fastCosDeterminisctic %ld clocks', 0aH, 00H
	ORG $+2
$SG61098 DB	'%s', 00H
	ORG $+1
$SG57737 DB	'fastCosRef %ld clocks', 0aH, 00H
	ORG $+1
$SG57771 DB	'fastCosOld %ld clocks', 0aH, 00H
	ORG $+1
$SG57801 DB	'cos %ld clocks', 0aH, 00H
$SG57957 DB	'C', 00H, ':', 00H, '\', 00H, 'U', 00H, 's', 00H, 'e', 00H
	DB	'r', 00H, 's', 00H, '\', 00H, 'k', 00H, 's', 00H, 'a', 00H, 'r'
	DB	00H, 't', 00H, '\', 00H, 'O', 00H, 'n', 00H, 'e', 00H, 'D', 00H
	DB	'r', 00H, 'i', 00H, 'v', 00H, 'e', 00H, '\', 00H, 'D', 00H, 'e'
	DB	00H, 's', 00H, 'k', 00H, 't', 00H, 'o', 00H, 'p', 00H, '\', 00H
	DB	'F', 00H, 'l', 00H, 'a', 00H, 'p', 00H, 'p', 00H, 'y', 00H, 'B'
	DB	00H, 'i', 00H, 'r', 00H, 'd', 00H, '\', 00H, 'l', 00H, 'i', 00H
	DB	'b', 00H, 'r', 00H, 'a', 00H, 'r', 00H, 'i', 00H, 'e', 00H, 's'
	DB	00H, '\', 00H, 'e', 00H, 'x', 00H, 't', 00H, 'e', 00H, 'r', 00H
	DB	'n', 00H, 'a', 00H, 'l', 00H, '\', 00H, 'g', 00H, 'l', 00H, 'm'
	DB	00H, '\', 00H, 't', 00H, 'e', 00H, 's', 00H, 't', 00H, '\', 00H
	DB	'g', 00H, 't', 00H, 'x', 00H, '\', 00H, 'g', 00H, 't', 00H, 'x'
	DB	00H, '_', 00H, 'f', 00H, 'a', 00H, 's', 00H, 't', 00H, '_', 00H
	DB	't', 00H, 'r', 00H, 'i', 00H, 'g', 00H, 'o', 00H, 'n', 00H, 'o'
	DB	00H, 'm', 00H, 'e', 00H, 't', 00H, 'r', 00H, 'y', 00H, '.', 00H
	DB	'c', 00H, 'p', 00H, 'p', 00H, 00H, 00H
	ORG $+6
$SG57958 DB	'm', 00H, 'o', 00H, 'd', 00H, 'A', 00H, 'n', 00H, 'g', 00H
	DB	'l', 00H, 'e', 00H, ' ', 00H, '>', 00H, '=', 00H, ' ', 00H, '0'
	DB	00H, '.', 00H, '0', 00H, 'f', 00H, ' ', 00H, '&', 00H, '&', 00H
	DB	' ', 00H, 'm', 00H, 'o', 00H, 'd', 00H, 'A', 00H, 'n', 00H, 'g'
	DB	00H, 'l', 00H, 'e', 00H, ' ', 00H, '<', 00H, '=', 00H, ' ', 00H
	DB	'3', 00H, '6', 00H, '0', 00H, '.', 00H, 'f', 00H, 00H, 00H
	ORG $+4
$SG57959 DB	'C', 00H, ':', 00H, '\', 00H, 'U', 00H, 's', 00H, 'e', 00H
	DB	'r', 00H, 's', 00H, '\', 00H, 'k', 00H, 's', 00H, 'a', 00H, 'r'
	DB	00H, 't', 00H, '\', 00H, 'O', 00H, 'n', 00H, 'e', 00H, 'D', 00H
	DB	'r', 00H, 'i', 00H, 'v', 00H, 'e', 00H, '\', 00H, 'D', 00H, 'e'
	DB	00H, 's', 00H, 'k', 00H, 't', 00H, 'o', 00H, 'p', 00H, '\', 00H
	DB	'F', 00H, 'l', 00H, 'a', 00H, 'p', 00H, 'p', 00H, 'y', 00H, 'B'
	DB	00H, 'i', 00H, 'r', 00H, 'd', 00H, '\', 00H, 'l', 00H, 'i', 00H
	DB	'b', 00H, 'r', 00H, 'a', 00H, 'r', 00H, 'i', 00H, 'e', 00H, 's'
	DB	00H, '\', 00H, 'e', 00H, 'x', 00H, 't', 00H, 'e', 00H, 'r', 00H
	DB	'n', 00H, 'a', 00H, 'l', 00H, '\', 00H, 'g', 00H, 'l', 00H, 'm'
	DB	00H, '\', 00H, 't', 00H, 'e', 00H, 's', 00H, 't', 00H, '\', 00H
	DB	'g', 00H, 't', 00H, 'x', 00H, '\', 00H, 'g', 00H, 't', 00H, 'x'
	DB	00H, '_', 00H, 'f', 00H, 'a', 00H, 's', 00H, 't', 00H, '_', 00H
	DB	't', 00H, 'r', 00H, 'i', 00H, 'g', 00H, 'o', 00H, 'n', 00H, 'o'
	DB	00H, 'm', 00H, 'e', 00H, 't', 00H, 'r', 00H, 'y', 00H, '.', 00H
	DB	'c', 00H, 'p', 00H, 'p', 00H, 00H, 00H
	ORG $+2
$SG61101 DB	00H, 00H
	ORG $+2
$SG57960 DB	'!', 00H, 'E', 00H, 'r', 00H, 'r', 00H, 'o', 00H, 'r', 00H
	DB	00H, 00H
	ORG $+2
$SG61097 DB	'invalid argument', 00H
	ORG $+7
$SG61102 DB	'"', 00H, 'i', 00H, 'n', 00H, 'v', 00H, 'a', 00H, 'l', 00H
	DB	'i', 00H, 'd', 00H, ' ', 00H, 'a', 00H, 'r', 00H, 'g', 00H, 'u'
	DB	00H, 'm', 00H, 'e', 00H, 'n', 00H, 't', 00H, '"', 00H, 00H, 00H
	ORG $+2
$SG61099 DB	'C:\Program Files\Microsoft Visual Studio\2022\Community\'
	DB	'VC\Tools\MSVC\14.32.31326\include\xmemory', 00H
	ORG $+6
$SG56877 DB	'fastCos Time %d clocks', 0aH, 00H
$SG61100 DB	'C', 00H, ':', 00H, '\', 00H, 'P', 00H, 'r', 00H, 'o', 00H
	DB	'g', 00H, 'r', 00H, 'a', 00H, 'm', 00H, ' ', 00H, 'F', 00H, 'i'
	DB	00H, 'l', 00H, 'e', 00H, 's', 00H, '\', 00H, 'M', 00H, 'i', 00H
	DB	'c', 00H, 'r', 00H, 'o', 00H, 's', 00H, 'o', 00H, 'f', 00H, 't'
	DB	00H, ' ', 00H, 'V', 00H, 'i', 00H, 's', 00H, 'u', 00H, 'a', 00H
	DB	'l', 00H, ' ', 00H, 'S', 00H, 't', 00H, 'u', 00H, 'd', 00H, 'i'
	DB	00H, 'o', 00H, '\', 00H, '2', 00H, '0', 00H, '2', 00H, '2', 00H
	DB	'\', 00H, 'C', 00H, 'o', 00H, 'm', 00H, 'm', 00H, 'u', 00H, 'n'
	DB	00H, 'i', 00H, 't', 00H, 'y', 00H, '\', 00H, 'V', 00H, 'C', 00H
	DB	'\', 00H, 'T', 00H, 'o', 00H, 'o', 00H, 'l', 00H, 's', 00H, '\'
	DB	00H, 'M', 00H, 'S', 00H, 'V', 00H, 'C', 00H, '\', 00H, '1', 00H
	DB	'4', 00H, '.', 00H, '3', 00H, '2', 00H, '.', 00H, '3', 00H, '1'
	DB	00H, '3', 00H, '2', 00H, '6', 00H, '\', 00H, 'i', 00H, 'n', 00H
	DB	'c', 00H, 'l', 00H, 'u', 00H, 'd', 00H, 'e', 00H, '\', 00H, 'x'
	DB	00H, 'm', 00H, 'e', 00H, 'm', 00H, 'o', 00H, 'r', 00H, 'y', 00H
	DB	00H, 00H
	ORG $+4
$SG56878 DB	'cos Time %d clocks', 0aH, 00H
	ORG $+4
$SG56906 DB	'fastSin Time %d clocks', 0aH, 00H
$SG56907 DB	'sin Time %d clocks', 0aH, 00H
	ORG $+4
$SG56935 DB	'fastTan Time %d clocks', 0aH, 00H
$SG56936 DB	'tan Time %d clocks', 0aH, 00H
	ORG $+4
$SG56964 DB	'fastAcos Time %d clocks', 0aH, 00H
	ORG $+7
$SG56965 DB	'acos Time %d clocks', 0aH, 00H
	ORG $+3
$SG56993 DB	'fastAsin Time %d clocks', 0aH, 00H
	ORG $+7
$SG56994 DB	'asin Time %d clocks', 0aH, 00H
	ORG $+3
$SG57022 DB	'fastAtan Time %d clocks', 0aH, 00H
	ORG $+7
$SG57023 DB	'atan Time %d clocks', 0aH, 00H
CONST	ENDS
PUBLIC	__local_stdio_printf_options
PUBLIC	_vfprintf_l
PUBLIC	printf
PUBLIC	?max@?$numeric_limits@_J@std@@SA_JXZ		; std::numeric_limits<__int64>::max
PUBLIC	?max@?$numeric_limits@M@std@@SAMXZ		; std::numeric_limits<float>::max
PUBLIC	??2@YAPEAX_KPEAX@Z				; operator new
PUBLIC	?acos@@YAMM@Z					; acos
PUBLIC	?asin@@YAMM@Z					; asin
PUBLIC	?atan@@YAMM@Z					; atan
PUBLIC	?cos@@YAMM@Z					; cos
PUBLIC	?floor@@YAMM@Z					; floor
PUBLIC	?fmod@@YAMMM@Z					; fmod
PUBLIC	?nextafter@@YAMMM@Z				; nextafter
PUBLIC	?sin@@YAMM@Z					; sin
PUBLIC	?tan@@YAMM@Z					; tan
PUBLIC	?trunc@@YAMM@Z					; trunc
PUBLIC	?length@?$tvec4@M$0A@@glm@@SAHXZ		; glm::tvec4<float,0>::length
PUBLIC	??A?$tvec4@M$0A@@glm@@QEAAAEAMH@Z		; glm::tvec4<float,0>::operator[]
PUBLIC	??A?$tvec4@M$0A@@glm@@QEBAAEBMH@Z		; glm::tvec4<float,0>::operator[]
PUBLIC	??0?$tvec4@M$0A@@glm@@QEAA@XZ			; glm::tvec4<float,0>::tvec4<float,0>
PUBLIC	??0?$tvec4@M$0A@@glm@@QEAA@W4ctor@1@@Z		; glm::tvec4<float,0>::tvec4<float,0>
PUBLIC	??0?$tvec4@M$0A@@glm@@QEAA@M@Z			; glm::tvec4<float,0>::tvec4<float,0>
PUBLIC	??0?$tvec4@M$0A@@glm@@QEAA@MMMM@Z		; glm::tvec4<float,0>::tvec4<float,0>
PUBLIC	??$?DM$0A@@glm@@YA?AU?$tvec4@M$0A@@0@AEBU10@M@Z	; glm::operator*<float,0>
PUBLIC	??$next_float@M@glm@@YAMAEBM@Z			; glm::next_float<float>
PUBLIC	??0exception@std@@QEAA@QEBDH@Z			; std::exception::exception
PUBLIC	??0exception@std@@QEAA@AEBV01@@Z		; std::exception::exception
PUBLIC	??1exception@std@@UEAA@XZ			; std::exception::~exception
PUBLIC	?what@exception@std@@UEBAPEBDXZ			; std::exception::what
PUBLIC	??_Gexception@std@@UEAAPEAXI@Z			; std::exception::`scalar deleting destructor'
PUBLIC	??0bad_alloc@std@@AEAA@QEBD@Z			; std::bad_alloc::bad_alloc
PUBLIC	??1bad_alloc@std@@UEAA@XZ			; std::bad_alloc::~bad_alloc
PUBLIC	??0bad_alloc@std@@QEAA@AEBV01@@Z		; std::bad_alloc::bad_alloc
PUBLIC	??_Gbad_alloc@std@@UEAAPEAXI@Z			; std::bad_alloc::`scalar deleting destructor'
PUBLIC	??0bad_array_new_length@std@@QEAA@XZ		; std::bad_array_new_length::bad_array_new_length
PUBLIC	??1bad_array_new_length@std@@UEAA@XZ		; std::bad_array_new_length::~bad_array_new_length
PUBLIC	??0bad_array_new_length@std@@QEAA@AEBV01@@Z	; std::bad_array_new_length::bad_array_new_length
PUBLIC	??_Gbad_array_new_length@std@@UEAAPEAXI@Z	; std::bad_array_new_length::`scalar deleting destructor'
PUBLIC	?_Throw_bad_array_new_length@std@@YAXXZ		; std::_Throw_bad_array_new_length
PUBLIC	?_Allocate@_Default_allocate_traits@std@@SAPEAX_K@Z ; std::_Default_allocate_traits::_Allocate
PUBLIC	?_Adjust_manually_vector_aligned@std@@YAXAEAPEAXAEA_K@Z ; std::_Adjust_manually_vector_aligned
PUBLIC	??0_Container_proxy@std@@QEAA@PEAU_Container_base12@1@@Z ; std::_Container_proxy::_Container_proxy
PUBLIC	??0_Container_base12@std@@QEAA@XZ		; std::_Container_base12::_Container_base12
PUBLIC	?_Orphan_all@_Container_base12@std@@QEAAXXZ	; std::_Container_base12::_Orphan_all
PUBLIC	?_Orphan_all_unlocked_v3@_Container_base12@std@@AEAAXXZ ; std::_Container_base12::_Orphan_all_unlocked_v3
PUBLIC	?_Orphan_all_locked_v3@_Container_base12@std@@AEAAXXZ ; std::_Container_base12::_Orphan_all_locked_v3
PUBLIC	?perf@fastCos@@YAH_N@Z				; fastCos::perf
PUBLIC	??$pi@M@glm@@YAMXZ				; glm::pi<float>
PUBLIC	??$fastCos@M@glm@@YAMM@Z			; glm::fastCos<float>
PUBLIC	?perf@fastSin@@YAH_N@Z				; fastSin::perf
PUBLIC	??$fastSin@M@glm@@YAMM@Z			; glm::fastSin<float>
PUBLIC	?perf@fastTan@@YAH_N@Z				; fastTan::perf
PUBLIC	??$fastTan@M@glm@@YAMM@Z			; glm::fastTan<float>
PUBLIC	?perf@fastAcos@@YAH_N@Z				; fastAcos::perf
PUBLIC	??$fastAcos@M@glm@@YAMM@Z			; glm::fastAcos<float>
PUBLIC	?perf@fastAsin@@YAH_N@Z				; fastAsin::perf
PUBLIC	??$fastAsin@M@glm@@YAMM@Z			; glm::fastAsin<float>
PUBLIC	?perf@fastAtan@@YAH_N@Z				; fastAtan::perf
PUBLIC	??$fastAtan@M@glm@@YAMM@Z			; glm::fastAtan<float>
PUBLIC	?perf_fastCosNew@taylorCos@@YAHMM_K@Z		; taylorCos::perf_fastCosNew
PUBLIC	??0?$allocator@U?$tvec4@M$0A@@glm@@@std@@QEAA@XZ ; std::allocator<glm::tvec4<float,0> >::allocator<glm::tvec4<float,0> >
PUBLIC	?deallocate@?$allocator@U?$tvec4@M$0A@@glm@@@std@@QEAAXQEAU?$tvec4@M$0A@@glm@@_K@Z ; std::allocator<glm::tvec4<float,0> >::deallocate
PUBLIC	?allocate@?$allocator@U?$tvec4@M$0A@@glm@@@std@@QEAAPEAU?$tvec4@M$0A@@glm@@_K@Z ; std::allocator<glm::tvec4<float,0> >::allocate
PUBLIC	?max_size@?$_Default_allocator_traits@V?$allocator@U?$tvec4@M$0A@@glm@@@std@@@std@@SA_KAEBV?$allocator@U?$tvec4@M$0A@@glm@@@2@@Z ; std::_Default_allocator_traits<std::allocator<glm::tvec4<float,0> > >::max_size
PUBLIC	??0?$vector@U?$tvec4@M$0A@@glm@@V?$allocator@U?$tvec4@M$0A@@glm@@@std@@@std@@QEAA@XZ ; std::vector<glm::tvec4<float,0>,std::allocator<glm::tvec4<float,0> > >::vector<glm::tvec4<float,0>,std::allocator<glm::tvec4<float,0> > >
PUBLIC	??1?$vector@U?$tvec4@M$0A@@glm@@V?$allocator@U?$tvec4@M$0A@@glm@@@std@@@std@@QEAA@XZ ; std::vector<glm::tvec4<float,0>,std::allocator<glm::tvec4<float,0> > >::~vector<glm::tvec4<float,0>,std::allocator<glm::tvec4<float,0> > >
PUBLIC	?resize@?$vector@U?$tvec4@M$0A@@glm@@V?$allocator@U?$tvec4@M$0A@@glm@@@std@@@std@@QEAAX_K@Z ; std::vector<glm::tvec4<float,0>,std::allocator<glm::tvec4<float,0> > >::resize
PUBLIC	?max_size@?$vector@U?$tvec4@M$0A@@glm@@V?$allocator@U?$tvec4@M$0A@@glm@@@std@@@std@@QEBA_KXZ ; std::vector<glm::tvec4<float,0>,std::allocator<glm::tvec4<float,0> > >::max_size
PUBLIC	?capacity@?$vector@U?$tvec4@M$0A@@glm@@V?$allocator@U?$tvec4@M$0A@@glm@@@std@@@std@@QEBA_KXZ ; std::vector<glm::tvec4<float,0>,std::allocator<glm::tvec4<float,0> > >::capacity
PUBLIC	??A?$vector@U?$tvec4@M$0A@@glm@@V?$allocator@U?$tvec4@M$0A@@glm@@@std@@@std@@QEAAAEAU?$tvec4@M$0A@@glm@@_K@Z ; std::vector<glm::tvec4<float,0>,std::allocator<glm::tvec4<float,0> > >::operator[]
PUBLIC	?_Calculate_growth@?$vector@U?$tvec4@M$0A@@glm@@V?$allocator@U?$tvec4@M$0A@@glm@@@std@@@std@@AEBA_K_K@Z ; std::vector<glm::tvec4<float,0>,std::allocator<glm::tvec4<float,0> > >::_Calculate_growth
PUBLIC	?_Change_array@?$vector@U?$tvec4@M$0A@@glm@@V?$allocator@U?$tvec4@M$0A@@glm@@@std@@@std@@AEAAXQEAU?$tvec4@M$0A@@glm@@_K1@Z ; std::vector<glm::tvec4<float,0>,std::allocator<glm::tvec4<float,0> > >::_Change_array
PUBLIC	?_Tidy@?$vector@U?$tvec4@M$0A@@glm@@V?$allocator@U?$tvec4@M$0A@@glm@@@std@@@std@@AEAAXXZ ; std::vector<glm::tvec4<float,0>,std::allocator<glm::tvec4<float,0> > >::_Tidy
PUBLIC	?_Xlength@?$vector@U?$tvec4@M$0A@@glm@@V?$allocator@U?$tvec4@M$0A@@glm@@@std@@@std@@CAXXZ ; std::vector<glm::tvec4<float,0>,std::allocator<glm::tvec4<float,0> > >::_Xlength
PUBLIC	?_Orphan_range_unlocked@?$vector@U?$tvec4@M$0A@@glm@@V?$allocator@U?$tvec4@M$0A@@glm@@@std@@@std@@AEBAXPEAU?$tvec4@M$0A@@glm@@0@Z ; std::vector<glm::tvec4<float,0>,std::allocator<glm::tvec4<float,0> > >::_Orphan_range_unlocked
PUBLIC	?_Orphan_range_locked@?$vector@U?$tvec4@M$0A@@glm@@V?$allocator@U?$tvec4@M$0A@@glm@@@std@@@std@@AEBAXPEAU?$tvec4@M$0A@@glm@@0@Z ; std::vector<glm::tvec4<float,0>,std::allocator<glm::tvec4<float,0> > >::_Orphan_range_locked
PUBLIC	?_Orphan_range@?$vector@U?$tvec4@M$0A@@glm@@V?$allocator@U?$tvec4@M$0A@@glm@@@std@@@std@@AEBAXPEAU?$tvec4@M$0A@@glm@@0@Z ; std::vector<glm::tvec4<float,0>,std::allocator<glm::tvec4<float,0> > >::_Orphan_range
PUBLIC	?_Getal@?$vector@U?$tvec4@M$0A@@glm@@V?$allocator@U?$tvec4@M$0A@@glm@@@std@@@std@@AEAAAEAV?$allocator@U?$tvec4@M$0A@@glm@@@2@XZ ; std::vector<glm::tvec4<float,0>,std::allocator<glm::tvec4<float,0> > >::_Getal
PUBLIC	?_Getal@?$vector@U?$tvec4@M$0A@@glm@@V?$allocator@U?$tvec4@M$0A@@glm@@@std@@@std@@AEBAAEBV?$allocator@U?$tvec4@M$0A@@glm@@@2@XZ ; std::vector<glm::tvec4<float,0>,std::allocator<glm::tvec4<float,0> > >::_Getal
PUBLIC	??0?$_Vector_val@U?$_Simple_types@U?$tvec4@M$0A@@glm@@@std@@@std@@QEAA@XZ ; std::_Vector_val<std::_Simple_types<glm::tvec4<float,0> > >::_Vector_val<std::_Simple_types<glm::tvec4<float,0> > >
PUBLIC	?_Get_first@?$_Compressed_pair@V?$allocator@U?$tvec4@M$0A@@glm@@@std@@V?$_Vector_val@U?$_Simple_types@U?$tvec4@M$0A@@glm@@@std@@@2@$00@std@@QEAAAEAV?$allocator@U?$tvec4@M$0A@@glm@@@2@XZ ; std::_Compressed_pair<std::allocator<glm::tvec4<float,0> >,std::_Vector_val<std::_Simple_types<glm::tvec4<float,0> > >,1>::_Get_first
PUBLIC	?_Get_first@?$_Compressed_pair@V?$allocator@U?$tvec4@M$0A@@glm@@@std@@V?$_Vector_val@U?$_Simple_types@U?$tvec4@M$0A@@glm@@@std@@@2@$00@std@@QEBAAEBV?$allocator@U?$tvec4@M$0A@@glm@@@2@XZ ; std::_Compressed_pair<std::allocator<glm::tvec4<float,0> >,std::_Vector_val<std::_Simple_types<glm::tvec4<float,0> > >,1>::_Get_first
PUBLIC	??$?HM$0A@@glm@@YA?AU?$tvec4@M$0A@@0@AEBU10@0@Z	; glm::operator+<float,0>
PUBLIC	??$fastCosNew@M$0A@Utvec4@glm@@@taylorCos@@YA?AU?$tvec4@M$0A@@glm@@AEBU12@@Z ; taylorCos::fastCosNew<float,0,glm::tvec4>
PUBLIC	?perf_fastCosDeterminisctic@taylorCos@@YAHMM_K@Z ; taylorCos::perf_fastCosDeterminisctic
PUBLIC	??$fastCosDeterminisctic@M$0A@Utvec4@glm@@@taylorCos@@YA?AU?$tvec4@M$0A@@glm@@AEBU12@@Z ; taylorCos::fastCosDeterminisctic<float,0,glm::tvec4>
PUBLIC	?perf_fastCosRef@taylorCos@@YAHMM_K@Z		; taylorCos::perf_fastCosRef
PUBLIC	??$fastRefCos@M$0A@Utvec4@glm@@@taylorCos@@YA?AU?$tvec4@M$0A@@glm@@AEBU12@@Z ; taylorCos::fastRefCos<float,0,glm::tvec4>
PUBLIC	?perf_fastCosOld@taylorCos@@YAHMM_K@Z		; taylorCos::perf_fastCosOld
PUBLIC	??$fastCos@M$0A@Utvec4@glm@@@glm@@YA?AU?$tvec4@M$0A@@0@AEBU10@@Z ; glm::fastCos<float,0,glm::tvec4>
PUBLIC	?perf_cos@taylorCos@@YAHMM_K@Z			; taylorCos::perf_cos
PUBLIC	??$cos@M$0A@Utvec4@glm@@@glm@@YA?AU?$tvec4@M$0A@@0@AEBU10@@Z ; glm::cos<float,0,glm::tvec4>
PUBLIC	?perf@taylorCos@@YAH_K@Z			; taylorCos::perf
PUBLIC	?test@taylorCos@@YAHXZ				; taylorCos::test
PUBLIC	??$abs@M@glm@@YAMM@Z				; glm::abs<float>
PUBLIC	??$radians@M@glm@@YAMM@Z			; glm::radians<float>
PUBLIC	?length@?$tvec1@M$0A@@glm@@SAHXZ		; glm::tvec1<float,0>::length
PUBLIC	??A?$tvec1@M$0A@@glm@@QEAAAEAMH@Z		; glm::tvec1<float,0>::operator[]
PUBLIC	??A?$tvec1@M$0A@@glm@@QEBAAEBMH@Z		; glm::tvec1<float,0>::operator[]
PUBLIC	??0?$tvec1@M$0A@@glm@@QEAA@W4ctor@1@@Z		; glm::tvec1<float,0>::tvec1<float,0>
PUBLIC	??0?$tvec1@M$0A@@glm@@QEAA@M@Z			; glm::tvec1<float,0>::tvec1<float,0>
PUBLIC	??$fastRefCos@M$0A@Utvec1@glm@@@taylorCos@@YA?AU?$tvec1@M$0A@@glm@@AEBU12@@Z ; taylorCos::fastRefCos<float,0,glm::tvec1>
PUBLIC	??$fastCosNew@M$0A@Utvec1@glm@@@taylorCos@@YA?AU?$tvec1@M$0A@@glm@@AEBU12@@Z ; taylorCos::fastCosNew<float,0,glm::tvec1>
PUBLIC	main
PUBLIC	??$_Resize@U_Value_init_tag@std@@@?$vector@U?$tvec4@M$0A@@glm@@V?$allocator@U?$tvec4@M$0A@@glm@@@std@@@std@@AEAAX_KAEBU_Value_init_tag@1@@Z ; std::vector<glm::tvec4<float,0>,std::allocator<glm::tvec4<float,0> > >::_Resize<std::_Value_init_tag>
PUBLIC	?allocate@?$allocator@U_Container_proxy@std@@@std@@QEAAPEAU_Container_proxy@2@_K@Z ; std::allocator<std::_Container_proxy>::allocate
PUBLIC	??$?0U?$tvec4@M$0A@@glm@@@?$allocator@U_Container_proxy@std@@@std@@QEAA@AEBV?$allocator@U?$tvec4@M$0A@@glm@@@1@@Z ; std::allocator<std::_Container_proxy>::allocator<std::_Container_proxy><glm::tvec4<float,0> >
PUBLIC	??$exchange@PEAU_Container_proxy@std@@$$T@std@@YAPEAU_Container_proxy@0@AEAPEAU10@$$QEA$$T@Z ; std::exchange<std::_Container_proxy *,std::nullptr_t>
PUBLIC	??$_Delete_plain_internal@V?$allocator@U_Container_proxy@std@@@std@@@std@@YAXAEAV?$allocator@U_Container_proxy@std@@@0@QEAU_Container_proxy@0@@Z ; std::_Delete_plain_internal<std::allocator<std::_Container_proxy> >
PUBLIC	??$?0$$V@?$_Compressed_pair@V?$allocator@U?$tvec4@M$0A@@glm@@@std@@V?$_Vector_val@U?$_Simple_types@U?$tvec4@M$0A@@glm@@@std@@@2@$00@std@@QEAA@U_Zero_then_variadic_args_t@1@@Z ; std::_Compressed_pair<std::allocator<glm::tvec4<float,0> >,std::_Vector_val<std::_Simple_types<glm::tvec4<float,0> > >,1>::_Compressed_pair<std::allocator<glm::tvec4<float,0> >,std::_Vector_val<std::_Simple_types<glm::tvec4<float,0> > >,1><>
PUBLIC	??$_Alloc_proxy@V?$allocator@U_Container_proxy@std@@@std@@@_Container_base12@std@@QEAAX$$QEAV?$allocator@U_Container_proxy@std@@@1@@Z ; std::_Container_base12::_Alloc_proxy<std::allocator<std::_Container_proxy> >
PUBLIC	??$_Destroy_range@V?$allocator@U?$tvec4@M$0A@@glm@@@std@@@std@@YAXPEAU?$tvec4@M$0A@@glm@@QEAU12@AEAV?$allocator@U?$tvec4@M$0A@@glm@@@0@@Z ; std::_Destroy_range<std::allocator<glm::tvec4<float,0> > >
PUBLIC	??$_Deallocate@$0BA@$0A@@std@@YAXPEAX_K@Z	; std::_Deallocate<16,0>
PUBLIC	??$?XM@?$tvec4@M$0A@@glm@@QEAAAEAU01@M@Z	; glm::tvec4<float,0>::operator*=<float>
PUBLIC	??$wrapAngle@M@glm@@YAMM@Z			; glm::wrapAngle<float>
PUBLIC	??$half_pi@M@glm@@YAMXZ				; glm::half_pi<float>
PUBLIC	??$cos_52s@M@detail@glm@@YAMM@Z			; glm::detail::cos_52s<float>
PUBLIC	??$two_pi@M@glm@@YAMXZ				; glm::two_pi<float>
PUBLIC	??$?YM@?$tvec4@M$0A@@glm@@QEAAAEAU01@AEBU01@@Z	; glm::tvec4<float,0>::operator+=<float>
PUBLIC	??$?HM$0A@@glm@@YA?AU?$tvec4@M$0A@@0@AEBU10@M@Z	; glm::operator+<float,0>
PUBLIC	??$fmod@M$0A@Utvec4@glm@@@glm@@YA?AU?$tvec4@M$0A@@0@AEBU10@M@Z ; glm::fmod<float,0,glm::tvec4>
PUBLIC	??$?GM$0A@@glm@@YA?AU?$tvec4@M$0A@@0@AEBU10@M@Z	; glm::operator-<float,0>
PUBLIC	??$fastAbs@$0A@Utvec4@glm@@@taylorCos@@YA?AU?$tvec4@M$0A@@glm@@U12@@Z ; taylorCos::fastAbs<0,glm::tvec4>
PUBLIC	??$taylorSeriesNewCos6@M$0A@Utvec4@glm@@@taylorCos@@YA?AU?$tvec4@M$0A@@glm@@AEBU12@@Z ; taylorCos::taylorSeriesNewCos6<float,0,glm::tvec4>
PUBLIC	??$deterministic_fmod@M$0A@Utvec4@glm@@@taylorCos@@YA?AU?$tvec4@M$0A@@glm@@AEBU12@M@Z ; taylorCos::deterministic_fmod<float,0,glm::tvec4>
PUBLIC	??$abs@M$0A@Utvec4@glm@@@glm@@YA?AU?$tvec4@M$0A@@0@AEBU10@@Z ; glm::abs<float,0,glm::tvec4>
PUBLIC	??$lessThanEqual@M$0A@Utvec4@glm@@@glm@@YA?AU?$tvec4@_N$0A@@0@AEBU?$tvec4@M$0A@@0@0@Z ; glm::lessThanEqual<float,0,glm::tvec4>
PUBLIC	?length@?$tvec4@_N$0A@@glm@@SAHXZ		; glm::tvec4<bool,0>::length
PUBLIC	??A?$tvec4@_N$0A@@glm@@QEAAAEA_NH@Z		; glm::tvec4<bool,0>::operator[]
PUBLIC	??A?$tvec4@_N$0A@@glm@@QEBAAEB_NH@Z		; glm::tvec4<bool,0>::operator[]
PUBLIC	??0?$tvec4@_N$0A@@glm@@QEAA@W4ctor@1@@Z		; glm::tvec4<bool,0>::tvec4<bool,0>
PUBLIC	??$mix@M_N$0A@Utvec4@glm@@@glm@@YA?AU?$tvec4@M$0A@@0@AEBU10@0AEBU?$tvec4@_N$0A@@0@@Z ; glm::mix<float,bool,0,glm::tvec4>
PUBLIC	??$?GM$0A@@glm@@YA?AU?$tvec4@M$0A@@0@AEBU10@0@Z	; glm::operator-<float,0>
PUBLIC	??$taylorSeriesNewCos@M$0A@Utvec4@glm@@@taylorCos@@YA?AU?$tvec4@M$0A@@glm@@AEBU12@@Z ; taylorCos::taylorSeriesNewCos<float,0,glm::tvec4>
PUBLIC	??$?DM$0A@@glm@@YA?AU?$tvec4@M$0A@@0@AEBU10@0@Z	; glm::operator*<float,0>
PUBLIC	??$taylorSeriesRefCos@M$0A@Utvec4@glm@@@taylorCos@@YA?AU?$tvec4@M$0A@@glm@@AEBU12@@Z ; taylorCos::taylorSeriesRefCos<float,0,glm::tvec4>
PUBLIC	?call@?$functor1@MM$0A@Utvec4@glm@@@detail@glm@@SA?AU?$tvec4@M$0A@@3@P6AMM@ZAEBU43@@Z ; glm::detail::functor1<float,float,0,glm::tvec4>::call
PUBLIC	?call@?$compute_abs@M$00@detail@glm@@SAMM@Z	; glm::detail::compute_abs<float,1>::call
PUBLIC	??$?HM$0A@@glm@@YA?AU?$tvec1@M$0A@@0@AEBU10@M@Z	; glm::operator+<float,0>
PUBLIC	??$fmod@M$0A@Utvec1@glm@@@glm@@YA?AU?$tvec1@M$0A@@0@AEBU10@M@Z ; glm::fmod<float,0,glm::tvec1>
PUBLIC	??$?GM$0A@@glm@@YA?AU?$tvec1@M$0A@@0@AEBU10@M@Z	; glm::operator-<float,0>
PUBLIC	??$abs@M$0A@Utvec1@glm@@@glm@@YA?AU?$tvec1@M$0A@@0@AEBU10@@Z ; glm::abs<float,0,glm::tvec1>
PUBLIC	??$lessThanEqual@M$0A@Utvec1@glm@@@glm@@YA?AU?$tvec1@_N$0A@@0@AEBU?$tvec1@M$0A@@0@0@Z ; glm::lessThanEqual<float,0,glm::tvec1>
PUBLIC	?length@?$tvec1@_N$0A@@glm@@SAHXZ		; glm::tvec1<bool,0>::length
PUBLIC	??A?$tvec1@_N$0A@@glm@@QEAAAEA_NH@Z		; glm::tvec1<bool,0>::operator[]
PUBLIC	??A?$tvec1@_N$0A@@glm@@QEBAAEB_NH@Z		; glm::tvec1<bool,0>::operator[]
PUBLIC	??0?$tvec1@_N$0A@@glm@@QEAA@W4ctor@1@@Z		; glm::tvec1<bool,0>::tvec1<bool,0>
PUBLIC	??$mix@M_N$0A@Utvec1@glm@@@glm@@YA?AU?$tvec1@M$0A@@0@AEBU10@0AEBU?$tvec1@_N$0A@@0@@Z ; glm::mix<float,bool,0,glm::tvec1>
PUBLIC	??$?GM$0A@@glm@@YA?AU?$tvec1@M$0A@@0@AEBU10@0@Z	; glm::operator-<float,0>
PUBLIC	??$taylorSeriesRefCos@M$0A@Utvec1@glm@@@taylorCos@@YA?AU?$tvec1@M$0A@@glm@@AEBU12@@Z ; taylorCos::taylorSeriesRefCos<float,0,glm::tvec1>
PUBLIC	??$?DM$0A@@glm@@YA?AU?$tvec1@M$0A@@0@AEBU10@0@Z	; glm::operator*<float,0>
PUBLIC	??$fastAbs@$0A@Utvec1@glm@@@taylorCos@@YA?AU?$tvec1@M$0A@@glm@@U12@@Z ; taylorCos::fastAbs<0,glm::tvec1>
PUBLIC	??$taylorSeriesNewCos6@M$0A@Utvec1@glm@@@taylorCos@@YA?AU?$tvec1@M$0A@@glm@@AEBU12@@Z ; taylorCos::taylorSeriesNewCos6<float,0,glm::tvec1>
PUBLIC	??$_Resize_reallocate@U_Value_init_tag@std@@@?$vector@U?$tvec4@M$0A@@glm@@V?$allocator@U?$tvec4@M$0A@@glm@@@std@@@std@@AEAAX_KAEBU_Value_init_tag@1@@Z ; std::vector<glm::tvec4<float,0>,std::allocator<glm::tvec4<float,0> > >::_Resize_reallocate<std::_Value_init_tag>
PUBLIC	??$_Uninitialized_value_construct_n@V?$allocator@U?$tvec4@M$0A@@glm@@@std@@@std@@YAPEAU?$tvec4@M$0A@@glm@@PEAU12@_KAEAV?$allocator@U?$tvec4@M$0A@@glm@@@0@@Z ; std::_Uninitialized_value_construct_n<std::allocator<glm::tvec4<float,0> > >
PUBLIC	??$_Deallocate_plain@V?$allocator@U_Container_proxy@std@@@std@@@std@@YAXAEAV?$allocator@U_Container_proxy@std@@@0@QEAU_Container_proxy@0@@Z ; std::_Deallocate_plain<std::allocator<std::_Container_proxy> >
PUBLIC	??$_Unfancy@U_Container_proxy@std@@@std@@YAPEAU_Container_proxy@0@PEAU10@@Z ; std::_Unfancy<std::_Container_proxy>
PUBLIC	??$_Construct_in_place@U_Container_proxy@std@@PEAU_Container_base12@2@@std@@YAXAEAU_Container_proxy@0@$$QEAPEAU_Container_base12@0@@Z ; std::_Construct_in_place<std::_Container_proxy,std::_Container_base12 *>
PUBLIC	??$_Get_size_of_n@$0BA@@std@@YA_K_K@Z		; std::_Get_size_of_n<16>
PUBLIC	??$_Allocate@$0BA@U_Default_allocate_traits@std@@$0A@@std@@YAPEAX_K@Z ; std::_Allocate<16,std::_Default_allocate_traits,0>
PUBLIC	?call@?$compute_vec4_mul@M$0A@$0A@@detail@glm@@SA?AU?$tvec4@M$0A@@3@AEBU43@0@Z ; glm::detail::compute_vec4_mul<float,0,0>::call
PUBLIC	??$mod@M@glm@@YAMMM@Z				; glm::mod<float>
PUBLIC	?call@?$compute_vec4_add@M$0A@$0A@@detail@glm@@SA?AU?$tvec4@M$0A@@3@AEBU43@0@Z ; glm::detail::compute_vec4_add<float,0,0>::call
PUBLIC	??$?YM@?$tvec4@M$0A@@glm@@QEAAAEAU01@M@Z	; glm::tvec4<float,0>::operator+=<float>
PUBLIC	?call@?$compute_fmod@M$0A@Utvec4@glm@@$00@detail@glm@@SA?AU?$tvec4@M$0A@@3@AEBU43@0@Z ; glm::detail::compute_fmod<float,0,glm::tvec4,1>::call
PUBLIC	??$?ZM@?$tvec4@M$0A@@glm@@QEAAAEAU01@M@Z	; glm::tvec4<float,0>::operator-=<float>
PUBLIC	??$?GM$0A@@glm@@YA?AU?$tvec4@M$0A@@0@MAEBU10@@Z	; glm::operator-<float,0>
PUBLIC	??$?KM$0A@@glm@@YA?AU?$tvec4@M$0A@@0@AEBU10@M@Z	; glm::operator/<float,0>
PUBLIC	??$trunc@M$0A@Utvec4@glm@@@glm@@YA?AU?$tvec4@M$0A@@0@AEBU10@@Z ; glm::trunc<float,0,glm::tvec4>
PUBLIC	??$?DM$0A@@glm@@YA?AU?$tvec4@M$0A@@0@MAEBU10@@Z	; glm::operator*<float,0>
PUBLIC	?call@?$compute_abs_vector@M$0A@Utvec4@glm@@$0A@@detail@glm@@SA?AU?$tvec4@M$0A@@3@AEBU43@@Z ; glm::detail::compute_abs_vector<float,0,glm::tvec4,0>::call
PUBLIC	?call@?$compute_mix_vector@M_N$0A@Utvec4@glm@@$0A@@detail@glm@@SA?AU?$tvec4@M$0A@@3@AEBU43@0AEBU?$tvec4@_N$0A@@3@@Z ; glm::detail::compute_mix_vector<float,bool,0,glm::tvec4,0>::call
PUBLIC	??$?ZM@?$tvec4@M$0A@@glm@@QEAAAEAU01@AEBU01@@Z	; glm::tvec4<float,0>::operator-=<float>
PUBLIC	??$?XM@?$tvec4@M$0A@@glm@@QEAAAEAU01@AEBU01@@Z	; glm::tvec4<float,0>::operator*=<float>
PUBLIC	??$factorial@M@glm@@YAMAEBM@Z			; glm::factorial<float>
PUBLIC	?call@?$compute_fmod@M$0A@Utvec1@glm@@$00@detail@glm@@SA?AU?$tvec1@M$0A@@3@AEBU43@0@Z ; glm::detail::compute_fmod<float,0,glm::tvec1,1>::call
PUBLIC	?call@?$compute_abs_vector@M$0A@Utvec1@glm@@$0A@@detail@glm@@SA?AU?$tvec1@M$0A@@3@AEBU43@@Z ; glm::detail::compute_abs_vector<float,0,glm::tvec1,0>::call
PUBLIC	?call@?$compute_mix_vector@M_N$0A@Utvec1@glm@@$0A@@detail@glm@@SA?AU?$tvec1@M$0A@@3@AEBU43@0AEBU?$tvec1@_N$0A@@3@@Z ; glm::detail::compute_mix_vector<float,bool,0,glm::tvec1,0>::call
PUBLIC	??$?KM$0A@@glm@@YA?AU?$tvec1@M$0A@@0@AEBU10@M@Z	; glm::operator/<float,0>
PUBLIC	??$?GM$0A@@glm@@YA?AU?$tvec1@M$0A@@0@MAEBU10@@Z	; glm::operator-<float,0>
PUBLIC	??$?HM$0A@@glm@@YA?AU?$tvec1@M$0A@@0@AEBU10@0@Z	; glm::operator+<float,0>
PUBLIC	??$?DM$0A@@glm@@YA?AU?$tvec1@M$0A@@0@AEBU10@M@Z	; glm::operator*<float,0>
PUBLIC	??$_Uninitialized_move@PEAU?$tvec4@M$0A@@glm@@V?$allocator@U?$tvec4@M$0A@@glm@@@std@@@std@@YAPEAU?$tvec4@M$0A@@glm@@QEAU12@0PEAU12@AEAV?$allocator@U?$tvec4@M$0A@@glm@@@0@@Z ; std::_Uninitialized_move<glm::tvec4<float,0> *,std::allocator<glm::tvec4<float,0> > >
PUBLIC	??0?$_Uninitialized_backout_al@V?$allocator@U?$tvec4@M$0A@@glm@@@std@@@std@@QEAA@PEAU?$tvec4@M$0A@@glm@@AEAV?$allocator@U?$tvec4@M$0A@@glm@@@1@@Z ; std::_Uninitialized_backout_al<std::allocator<glm::tvec4<float,0> > >::_Uninitialized_backout_al<std::allocator<glm::tvec4<float,0> > >
PUBLIC	??1?$_Uninitialized_backout_al@V?$allocator@U?$tvec4@M$0A@@glm@@@std@@@std@@QEAA@XZ ; std::_Uninitialized_backout_al<std::allocator<glm::tvec4<float,0> > >::~_Uninitialized_backout_al<std::allocator<glm::tvec4<float,0> > >
PUBLIC	?_Release@?$_Uninitialized_backout_al@V?$allocator@U?$tvec4@M$0A@@glm@@@std@@@std@@QEAAPEAU?$tvec4@M$0A@@glm@@XZ ; std::_Uninitialized_backout_al<std::allocator<glm::tvec4<float,0> > >::_Release
PUBLIC	??$_Emplace_back@$$V@?$_Uninitialized_backout_al@V?$allocator@U?$tvec4@M$0A@@glm@@@std@@@std@@QEAAXXZ ; std::_Uninitialized_backout_al<std::allocator<glm::tvec4<float,0> > >::_Emplace_back<>
PUBLIC	?deallocate@?$_Default_allocator_traits@V?$allocator@U_Container_proxy@std@@@std@@@std@@SAXAEAV?$allocator@U_Container_proxy@std@@@2@QEAU_Container_proxy@2@_K@Z ; std::_Default_allocator_traits<std::allocator<std::_Container_proxy> >::deallocate
PUBLIC	??$addressof@U_Container_proxy@std@@@std@@YAPEAU_Container_proxy@0@AEAU10@@Z ; std::addressof<std::_Container_proxy>
PUBLIC	??$_Voidify_iter@PEAU_Container_proxy@std@@@std@@YAPEAXPEAU_Container_proxy@0@@Z ; std::_Voidify_iter<std::_Container_proxy *>
PUBLIC	??$forward@PEAU_Container_base12@std@@@std@@YA$$QEAPEAU_Container_base12@0@AEAPEAU10@@Z ; std::forward<std::_Container_base12 *>
PUBLIC	??$_Allocate_manually_vector_aligned@U_Default_allocate_traits@std@@@std@@YAPEAX_K@Z ; std::_Allocate_manually_vector_aligned<std::_Default_allocate_traits>
PUBLIC	?call@?$functor2@M$0A@Utvec4@glm@@@detail@glm@@SA?AU?$tvec4@M$0A@@3@P6AMMM@ZAEBU43@1@Z ; glm::detail::functor2<float,0,glm::tvec4>::call
PUBLIC	?call@?$functor1@MM$0A@Utvec1@glm@@@detail@glm@@SA?AU?$tvec1@M$0A@@3@P6AMM@ZAEBU43@@Z ; glm::detail::functor1<float,float,0,glm::tvec1>::call
PUBLIC	?call@?$functor2@M$0A@Utvec1@glm@@@detail@glm@@SA?AU?$tvec1@M$0A@@3@P6AMMM@ZAEBU43@1@Z ; glm::detail::functor2<float,0,glm::tvec1>::call
PUBLIC	??$min@_K@std@@YAAEB_KAEB_K0@Z			; std::min<unsigned __int64>
PUBLIC	??$mod@M$0A@Utvec1@glm@@@glm@@YA?AU?$tvec1@M$0A@@0@AEBU10@M@Z ; glm::mod<float,0,glm::tvec1>
PUBLIC	?call@?$compute_vec4_sub@M$0A@$0A@@detail@glm@@SA?AU?$tvec4@M$0A@@3@AEBU43@0@Z ; glm::detail::compute_vec4_sub<float,0,0>::call
PUBLIC	??$?_0M@?$tvec4@M$0A@@glm@@QEAAAEAU01@M@Z	; glm::tvec4<float,0>::operator/=<float>
PUBLIC	?call@?$compute_trunc@M$0A@Utvec4@glm@@$0A@@detail@glm@@SA?AU?$tvec4@M$0A@@3@AEBU43@@Z ; glm::detail::compute_trunc<float,0,glm::tvec4,0>::call
PUBLIC	??$_Get_unwrapped@AEBQEAU?$tvec4@M$0A@@glm@@@std@@YA?A_TAEBQEAU?$tvec4@M$0A@@glm@@@Z ; std::_Get_unwrapped<glm::tvec4<float,0> * const &>
PUBLIC	??$move@AEAU?$tvec4@M$0A@@glm@@@std@@YA$$QEAU?$tvec4@M$0A@@glm@@AEAU12@@Z ; std::move<glm::tvec4<float,0> &>
PUBLIC	??$_Unfancy@U?$tvec4@M$0A@@glm@@@std@@YAPEAU?$tvec4@M$0A@@glm@@PEAU12@@Z ; std::_Unfancy<glm::tvec4<float,0> >
PUBLIC	??$_Copy_memmove@PEAU?$tvec4@M$0A@@glm@@PEAU12@@std@@YAPEAU?$tvec4@M$0A@@glm@@PEAU12@00@Z ; std::_Copy_memmove<glm::tvec4<float,0> *,glm::tvec4<float,0> *>
PUBLIC	??$_Emplace_back@U?$tvec4@M$0A@@glm@@@?$_Uninitialized_backout_al@V?$allocator@U?$tvec4@M$0A@@glm@@@std@@@std@@QEAAX$$QEAU?$tvec4@M$0A@@glm@@@Z ; std::_Uninitialized_backout_al<std::allocator<glm::tvec4<float,0> > >::_Emplace_back<glm::tvec4<float,0> >
PUBLIC	??$construct@U?$tvec4@M$0A@@glm@@$$V@?$_Default_allocator_traits@V?$allocator@U?$tvec4@M$0A@@glm@@@std@@@std@@SAXAEAV?$allocator@U?$tvec4@M$0A@@glm@@@1@QEAU?$tvec4@M$0A@@glm@@@Z ; std::_Default_allocator_traits<std::allocator<glm::tvec4<float,0> > >::construct<glm::tvec4<float,0> >
PUBLIC	?call@?$compute_mod@M$0A@Utvec1@glm@@$0A@@detail@glm@@SA?AU?$tvec1@M$0A@@3@AEBU43@0@Z ; glm::detail::compute_mod<float,0,glm::tvec1,0>::call
PUBLIC	?call@?$compute_vec4_div@M$0A@$0A@@detail@glm@@SA?AU?$tvec4@M$0A@@3@AEBU43@0@Z ; glm::detail::compute_vec4_div<float,0,0>::call
PUBLIC	??$_To_address@PEAU?$tvec4@M$0A@@glm@@@std@@YA?A_PAEBQEAU?$tvec4@M$0A@@glm@@@Z ; std::_To_address<glm::tvec4<float,0> *>
PUBLIC	??$forward@U?$tvec4@M$0A@@glm@@@std@@YA$$QEAU?$tvec4@M$0A@@glm@@AEAU12@@Z ; std::forward<glm::tvec4<float,0> >
PUBLIC	??$construct@U?$tvec4@M$0A@@glm@@U12@@?$_Default_allocator_traits@V?$allocator@U?$tvec4@M$0A@@glm@@@std@@@std@@SAXAEAV?$allocator@U?$tvec4@M$0A@@glm@@@1@QEAU?$tvec4@M$0A@@glm@@$$QEAU34@@Z ; std::_Default_allocator_traits<std::allocator<glm::tvec4<float,0> > >::construct<glm::tvec4<float,0>,glm::tvec4<float,0> >
PUBLIC	??$_Voidify_iter@PEAU?$tvec4@M$0A@@glm@@@std@@YAPEAXPEAU?$tvec4@M$0A@@glm@@@Z ; std::_Voidify_iter<glm::tvec4<float,0> *>
PUBLIC	??$?KM$0A@@glm@@YA?AU?$tvec1@M$0A@@0@AEBU10@0@Z	; glm::operator/<float,0>
PUBLIC	??$floor@M$0A@Utvec1@glm@@@glm@@YA?AU?$tvec1@M$0A@@0@AEBU10@@Z ; glm::floor<float,0,glm::tvec1>
PUBLIC	?call@?$compute_floor@M$0A@Utvec1@glm@@$0A@@detail@glm@@SA?AU?$tvec1@M$0A@@3@AEBU43@@Z ; glm::detail::compute_floor<float,0,glm::tvec1,0>::call
PUBLIC	?_OptionsStorage@?1??__local_stdio_printf_options@@9@4_KA ; `__local_stdio_printf_options'::`2'::_OptionsStorage
PUBLIC	??_7exception@std@@6B@				; std::exception::`vftable'
PUBLIC	??_C@_0BC@EOODALEL@Unknown?5exception@		; `string'
PUBLIC	??_7bad_alloc@std@@6B@				; std::bad_alloc::`vftable'
PUBLIC	??_7bad_array_new_length@std@@6B@		; std::bad_array_new_length::`vftable'
PUBLIC	??_C@_0BF@KINCDENJ@bad?5array?5new?5length@	; `string'
PUBLIC	_TI3?AVbad_array_new_length@std@@
PUBLIC	_CTA3?AVbad_array_new_length@std@@
PUBLIC	??_R0?AVbad_array_new_length@std@@@8		; std::bad_array_new_length `RTTI Type Descriptor'
PUBLIC	_CT??_R0?AVbad_array_new_length@std@@@8??0bad_array_new_length@std@@QEAA@AEBV01@@Z24
PUBLIC	??_R0?AVbad_alloc@std@@@8			; std::bad_alloc `RTTI Type Descriptor'
PUBLIC	_CT??_R0?AVbad_alloc@std@@@8??0bad_alloc@std@@QEAA@AEBV01@@Z24
PUBLIC	??_R0?AVexception@std@@@8			; std::exception `RTTI Type Descriptor'
PUBLIC	_CT??_R0?AVexception@std@@@8??0exception@std@@QEAA@AEBV01@@Z24
PUBLIC	??_C@_0BB@FCMFBGOM@invalid?5argument@		; `string'
PUBLIC	??_C@_02DKCKIIND@?$CFs@				; `string'
PUBLIC	??_C@_0GC@DJFHHHKN@C?3?2Program?5Files?2Microsoft?5Visu@ ; `string'
PUBLIC	??_C@_1ME@GEFGDEOM@?$AAC?$AA?3?$AA?2?$AAP?$AAr?$AAo?$AAg?$AAr?$AAa?$AAm?$AA?5?$AAF?$AAi?$AAl?$AAe@ ; `string'
PUBLIC	??_C@_11LOCGONAA@@				; `string'
PUBLIC	??_C@_1CG@JNLFBNGN@?$AA?$CC?$AAi?$AAn?$AAv?$AAa?$AAl?$AAi?$AAd?$AA?5?$AAa?$AAr?$AAg?$AAu?$AAm?$AAe@ ; `string'
PUBLIC	??_C@_0BO@PFKOHNJC@vector?5subscript?5out?5of?5range@ ; `string'
PUBLIC	??_C@_0GB@GDCALCPO@C?3?2Program?5Files?2Microsoft?5Visu@ ; `string'
PUBLIC	??_C@_1MC@BJDJHFOD@?$AAC?$AA?3?$AA?2?$AAP?$AAr?$AAo?$AAg?$AAr?$AAa?$AAm?$AA?5?$AAF?$AAi?$AAl?$AAe@ ; `string'
PUBLIC	??_C@_1EA@LEKOKFNB@?$AA?$CC?$AAv?$AAe?$AAc?$AAt?$AAo?$AAr?$AA?5?$AAs?$AAu?$AAb?$AAs?$AAc?$AAr?$AAi@ ; `string'
PUBLIC	??_C@_0DG@KGHKKGBC@null?5pointer?5cannot?5point?5to?5a?5@ ; `string'
PUBLIC	??_C@_1HA@FACCKGGH@?$AA?$CC?$AAn?$AAu?$AAl?$AAl?$AA?5?$AAp?$AAo?$AAi?$AAn?$AAt?$AAe?$AAr?$AA?5?$AAc@ ; `string'
PUBLIC	??_C@_1DK@BGNCJAPL@?$AAi?$AA?5?$AA?$DO?$AA?$DN?$AA?5?$AA0?$AA?5?$AA?$CG?$AA?$CG?$AA?5?$AAi?$AA?5?$AA?$DM?$AA?5?$AAt@ ; `string'
PUBLIC	??_C@_1LG@LAANPDHN@?$AAC?$AA?3?$AA?2?$AAU?$AAs?$AAe?$AAr?$AAs?$AA?2?$AAk?$AAs?$AAa?$AAr?$AAt?$AA?2@ ; `string'
PUBLIC	??_C@_1NA@OPABFNEN@?$AAC?$AA?3?$AA?2?$AAU?$AAs?$AAe?$AAr?$AAs?$AA?2?$AAk?$AAs?$AAa?$AAr?$AAt?$AA?2@ ; `string'
PUBLIC	??_C@_1DC@HHLCGOLC@?$AAx?$AA?4?$AAl?$AAe?$AAn?$AAg?$AAt?$AAh?$AA?$CI?$AA?$CJ?$AA?5?$AA?$DN?$AA?$DN?$AA?5?$AAy@ ; `string'
PUBLIC	??_C@_0BA@FOIKENOD@vector?5too?5long@		; `string'
PUBLIC	??_C@_1LG@CIKOIEGN@?$AAC?$AA?3?$AA?2?$AAU?$AAs?$AAe?$AAr?$AAs?$AA?2?$AAk?$AAs?$AAa?$AAr?$AAt?$AA?2@ ; `string'
PUBLIC	??_R4exception@std@@6B@				; std::exception::`RTTI Complete Object Locator'
PUBLIC	??_R3exception@std@@8				; std::exception::`RTTI Class Hierarchy Descriptor'
PUBLIC	??_R2exception@std@@8				; std::exception::`RTTI Base Class Array'
PUBLIC	??_R1A@?0A@EA@exception@std@@8			; std::exception::`RTTI Base Class Descriptor at (0,-1,0,64)'
PUBLIC	??_R4bad_alloc@std@@6B@				; std::bad_alloc::`RTTI Complete Object Locator'
PUBLIC	??_R3bad_alloc@std@@8				; std::bad_alloc::`RTTI Class Hierarchy Descriptor'
PUBLIC	??_R2bad_alloc@std@@8				; std::bad_alloc::`RTTI Base Class Array'
PUBLIC	??_R1A@?0A@EA@bad_alloc@std@@8			; std::bad_alloc::`RTTI Base Class Descriptor at (0,-1,0,64)'
PUBLIC	??_R4bad_array_new_length@std@@6B@		; std::bad_array_new_length::`RTTI Complete Object Locator'
PUBLIC	??_R3bad_array_new_length@std@@8		; std::bad_array_new_length::`RTTI Class Hierarchy Descriptor'
PUBLIC	??_R2bad_array_new_length@std@@8		; std::bad_array_new_length::`RTTI Base Class Array'
PUBLIC	??_R1A@?0A@EA@bad_array_new_length@std@@8	; std::bad_array_new_length::`RTTI Base Class Descriptor at (0,-1,0,64)'
PUBLIC	__real@00000000
PUBLIC	__real@37d00d01
PUBLIC	__real@3ab60b61
PUBLIC	__real@3c8efa35
PUBLIC	__real@3cf8e38e
PUBLIC	__real@3d29ef0e
PUBLIC	__real@3d2aaaab
PUBLIC	__real@3d36db6e
PUBLIC	__real@3d5d0dd1
PUBLIC	__real@3d99999a
PUBLIC	__real@3dba2e8c
PUBLIC	__real@3dcccccd
PUBLIC	__real@3de38e39
PUBLIC	__real@3e088889
PUBLIC	__real@3e124925
PUBLIC	__real@3e2aaaab
PUBLIC	__real@3e4ccccd
PUBLIC	__real@3eaaaaab
PUBLIC	__real@3f000000
PUBLIC	__real@3f7fff90
PUBLIC	__real@3f800000
PUBLIC	__real@3fc00000
PUBLIC	__real@3fc90fdb
PUBLIC	__real@40000000
PUBLIC	__real@40400000
PUBLIC	__real@40490fdb
PUBLIC	__real@40800000
PUBLIC	__real@40c00000
PUBLIC	__real@40c90fdb
PUBLIC	__real@41000000
PUBLIC	__real@43340000
PUBLIC	__real@43b40000
PUBLIC	__real@7f7fffff
PUBLIC	__real@baa69eb6
PUBLIC	__real@befff486
PUBLIC	__real@bf800000
PUBLIC	__real@c0490fdb
PUBLIC	__xmm@80000000800000008000000080000000
EXTRN	??2@YAPEAX_K@Z:PROC				; operator new
EXTRN	??3@YAXPEAX_K@Z:PROC				; operator delete
EXTRN	__imp__invalid_parameter:PROC
EXTRN	__imp__wassert:PROC
EXTRN	__imp_nextafterf:PROC
EXTRN	__imp_acosf:PROC
EXTRN	__imp_asinf:PROC
EXTRN	__imp_atanf:PROC
EXTRN	__imp_cosf:PROC
EXTRN	__imp_fmodf:PROC
EXTRN	__imp_sinf:PROC
EXTRN	__imp_tanf:PROC
EXTRN	__imp___acrt_iob_func:PROC
EXTRN	__imp___stdio_common_vfprintf:PROC
EXTRN	memmove:PROC
EXTRN	__imp__CrtDbgReport:PROC
EXTRN	__imp_??0_Lockit@std@@QEAA@H@Z:PROC
EXTRN	__imp_??1_Lockit@std@@QEAA@XZ:PROC
EXTRN	__imp_clock:PROC
EXTRN	__std_exception_copy:PROC
EXTRN	__std_exception_destroy:PROC
EXTRN	??_Eexception@std@@UEAAPEAXI@Z:PROC		; std::exception::`vector deleting destructor'
EXTRN	??_Ebad_alloc@std@@UEAAPEAXI@Z:PROC		; std::bad_alloc::`vector deleting destructor'
EXTRN	??_Ebad_array_new_length@std@@UEAAPEAXI@Z:PROC	; std::bad_array_new_length::`vector deleting destructor'
EXTRN	?_Xlength_error@std@@YAXPEBD@Z:PROC		; std::_Xlength_error
EXTRN	_CxxThrowException:PROC
EXTRN	_RTC_CheckStackVars:PROC
EXTRN	_RTC_InitBase:PROC
EXTRN	_RTC_Shutdown:PROC
EXTRN	__CxxFrameHandler4:PROC
EXTRN	floorf:PROC
EXTRN	truncf:PROC
EXTRN	??_7type_info@@6B@:BYTE				; type_info::`vftable'
EXTRN	_fltused:DWORD
;	COMDAT ?_OptionsStorage@?1??__local_stdio_printf_options@@9@4_KA
_BSS	SEGMENT
?_OptionsStorage@?1??__local_stdio_printf_options@@9@4_KA DQ 01H DUP (?) ; `__local_stdio_printf_options'::`2'::_OptionsStorage
_BSS	ENDS
_BSS	SEGMENT
?AngleShift@taylorCos@@3U?$tvec4@M$0A@@glm@@B DB 010H DUP (?) ; taylorCos::AngleShift
_BSS	ENDS
;	COMDAT pdata
pdata	SEGMENT
$pdata$__local_stdio_printf_options DD imagerel $LN3
	DD	imagerel $LN3+11
	DD	imagerel $unwind$__local_stdio_printf_options
pdata	ENDS
;	COMDAT pdata
pdata	SEGMENT
$pdata$_vfprintf_l DD imagerel $LN3
	DD	imagerel $LN3+70
	DD	imagerel $unwind$_vfprintf_l
pdata	ENDS
;	COMDAT pdata
pdata	SEGMENT
$pdata$printf DD imagerel $LN3
	DD	imagerel $LN3+131
	DD	imagerel $unwind$printf
pdata	ENDS
;	COMDAT pdata
pdata	SEGMENT
$pdata$?max@?$numeric_limits@_J@std@@SA_JXZ DD imagerel $LN3
	DD	imagerel $LN3+14
	DD	imagerel $unwind$?max@?$numeric_limits@_J@std@@SA_JXZ
pdata	ENDS
;	COMDAT pdata
pdata	SEGMENT
$pdata$?max@?$numeric_limits@M@std@@SAMXZ DD imagerel $LN3
	DD	imagerel $LN3+20
	DD	imagerel $unwind$?max@?$numeric_limits@M@std@@SAMXZ
pdata	ENDS
;	COMDAT pdata
pdata	SEGMENT
$pdata$??2@YAPEAX_KPEAX@Z DD imagerel $LN3
	DD	imagerel $LN3+18
	DD	imagerel $unwind$??2@YAPEAX_KPEAX@Z
pdata	ENDS
;	COMDAT pdata
pdata	SEGMENT
$pdata$?acos@@YAMM@Z DD imagerel $LN3
	DD	imagerel $LN3+29
	DD	imagerel $unwind$?acos@@YAMM@Z
pdata	ENDS
;	COMDAT pdata
pdata	SEGMENT
$pdata$?asin@@YAMM@Z DD imagerel $LN3
	DD	imagerel $LN3+29
	DD	imagerel $unwind$?asin@@YAMM@Z
pdata	ENDS
;	COMDAT pdata
pdata	SEGMENT
$pdata$?atan@@YAMM@Z DD imagerel $LN3
	DD	imagerel $LN3+29
	DD	imagerel $unwind$?atan@@YAMM@Z
pdata	ENDS
;	COMDAT pdata
pdata	SEGMENT
$pdata$?cos@@YAMM@Z DD imagerel $LN3
	DD	imagerel $LN3+29
	DD	imagerel $unwind$?cos@@YAMM@Z
pdata	ENDS
;	COMDAT pdata
pdata	SEGMENT
$pdata$?floor@@YAMM@Z DD imagerel $LN3
	DD	imagerel $LN3+28
	DD	imagerel $unwind$?floor@@YAMM@Z
pdata	ENDS
;	COMDAT pdata
pdata	SEGMENT
$pdata$?fmod@@YAMMM@Z DD imagerel $LN3
	DD	imagerel $LN3+41
	DD	imagerel $unwind$?fmod@@YAMMM@Z
pdata	ENDS
;	COMDAT pdata
pdata	SEGMENT
$pdata$?nextafter@@YAMMM@Z DD imagerel $LN3
	DD	imagerel $LN3+41
	DD	imagerel $unwind$?nextafter@@YAMMM@Z
pdata	ENDS
;	COMDAT pdata
pdata	SEGMENT
$pdata$?sin@@YAMM@Z DD imagerel $LN3
	DD	imagerel $LN3+29
	DD	imagerel $unwind$?sin@@YAMM@Z
pdata	ENDS
;	COMDAT pdata
pdata	SEGMENT
$pdata$?tan@@YAMM@Z DD imagerel $LN3
	DD	imagerel $LN3+29
	DD	imagerel $unwind$?tan@@YAMM@Z
pdata	ENDS
;	COMDAT pdata
pdata	SEGMENT
$pdata$?trunc@@YAMM@Z DD imagerel $LN3
	DD	imagerel $LN3+28
	DD	imagerel $unwind$?trunc@@YAMM@Z
pdata	ENDS
;	COMDAT pdata
pdata	SEGMENT
$pdata$?length@?$tvec4@M$0A@@glm@@SAHXZ DD imagerel $LN3
	DD	imagerel $LN3+9
	DD	imagerel $unwind$?length@?$tvec4@M$0A@@glm@@SAHXZ
pdata	ENDS
;	COMDAT pdata
pdata	SEGMENT
$pdata$??A?$tvec4@M$0A@@glm@@QEAAAEAMH@Z DD imagerel $LN5
	DD	imagerel $LN5+80
	DD	imagerel $unwind$??A?$tvec4@M$0A@@glm@@QEAAAEAMH@Z
pdata	ENDS
;	COMDAT pdata
pdata	SEGMENT
$pdata$??A?$tvec4@M$0A@@glm@@QEBAAEBMH@Z DD imagerel $LN5
	DD	imagerel $LN5+80
	DD	imagerel $unwind$??A?$tvec4@M$0A@@glm@@QEBAAEBMH@Z
pdata	ENDS
;	COMDAT pdata
pdata	SEGMENT
$pdata$??0?$tvec4@M$0A@@glm@@QEAA@XZ DD imagerel $LN3
	DD	imagerel $LN3+64
	DD	imagerel $unwind$??0?$tvec4@M$0A@@glm@@QEAA@XZ
pdata	ENDS
;	COMDAT pdata
pdata	SEGMENT
$pdata$??0?$tvec4@M$0A@@glm@@QEAA@W4ctor@1@@Z DD imagerel $LN3
	DD	imagerel $LN3+17
	DD	imagerel $unwind$??0?$tvec4@M$0A@@glm@@QEAA@W4ctor@1@@Z
pdata	ENDS
;	COMDAT pdata
pdata	SEGMENT
$pdata$??0?$tvec4@M$0A@@glm@@QEAA@M@Z DD imagerel $LN3
	DD	imagerel $LN3+82
	DD	imagerel $unwind$??0?$tvec4@M$0A@@glm@@QEAA@M@Z
pdata	ENDS
;	COMDAT pdata
pdata	SEGMENT
$pdata$??0?$tvec4@M$0A@@glm@@QEAA@MMMM@Z DD imagerel $LN3
	DD	imagerel $LN3+94
	DD	imagerel $unwind$??0?$tvec4@M$0A@@glm@@QEAA@MMMM@Z
pdata	ENDS
;	COMDAT pdata
pdata	SEGMENT
$pdata$??$?DM$0A@@glm@@YA?AU?$tvec4@M$0A@@0@AEBU10@M@Z DD imagerel $LN3
	DD	imagerel $LN3+85
	DD	imagerel $unwind$??$?DM$0A@@glm@@YA?AU?$tvec4@M$0A@@0@AEBU10@M@Z
pdata	ENDS
;	COMDAT pdata
pdata	SEGMENT
$pdata$??$next_float@M@glm@@YAMAEBM@Z DD imagerel $LN3
	DD	imagerel $LN3+38
	DD	imagerel $unwind$??$next_float@M@glm@@YAMAEBM@Z
pdata	ENDS
;	COMDAT pdata
pdata	SEGMENT
$pdata$??0exception@std@@QEAA@QEBDH@Z DD imagerel $LN3
	DD	imagerel $LN3+73
	DD	imagerel $unwind$??0exception@std@@QEAA@QEBDH@Z
pdata	ENDS
;	COMDAT pdata
pdata	SEGMENT
$pdata$??0exception@std@@QEAA@AEBV01@@Z DD imagerel $LN3
	DD	imagerel $LN3+88
	DD	imagerel $unwind$??0exception@std@@QEAA@AEBV01@@Z
pdata	ENDS
;	COMDAT pdata
pdata	SEGMENT
$pdata$??1exception@std@@UEAA@XZ DD imagerel $LN3
	DD	imagerel $LN3+48
	DD	imagerel $unwind$??1exception@std@@UEAA@XZ
pdata	ENDS
;	COMDAT pdata
pdata	SEGMENT
$pdata$?what@exception@std@@UEBAPEBDXZ DD imagerel $LN5
	DD	imagerel $LN5+58
	DD	imagerel $unwind$?what@exception@std@@UEBAPEBDXZ
pdata	ENDS
;	COMDAT pdata
pdata	SEGMENT
$pdata$??_Gexception@std@@UEAAPEAXI@Z DD imagerel $LN4
	DD	imagerel $LN4+61
	DD	imagerel $unwind$??_Gexception@std@@UEAAPEAXI@Z
pdata	ENDS
;	COMDAT pdata
pdata	SEGMENT
$pdata$??0bad_alloc@std@@AEAA@QEBD@Z DD imagerel $LN3
	DD	imagerel $LN3+62
	DD	imagerel $unwind$??0bad_alloc@std@@AEAA@QEBD@Z
pdata	ENDS
;	COMDAT pdata
pdata	SEGMENT
$pdata$??1bad_alloc@std@@UEAA@XZ DD imagerel $LN3
	DD	imagerel $LN3+26
	DD	imagerel $unwind$??1bad_alloc@std@@UEAA@XZ
pdata	ENDS
;	COMDAT pdata
pdata	SEGMENT
$pdata$??0bad_alloc@std@@QEAA@AEBV01@@Z DD imagerel $LN3
	DD	imagerel $LN3+56
	DD	imagerel $unwind$??0bad_alloc@std@@QEAA@AEBV01@@Z
pdata	ENDS
;	COMDAT pdata
pdata	SEGMENT
$pdata$??_Gbad_alloc@std@@UEAAPEAXI@Z DD imagerel $LN4
	DD	imagerel $LN4+61
	DD	imagerel $unwind$??_Gbad_alloc@std@@UEAAPEAXI@Z
pdata	ENDS
;	COMDAT pdata
pdata	SEGMENT
$pdata$??0bad_array_new_length@std@@QEAA@XZ DD imagerel $LN3
	DD	imagerel $LN3+53
	DD	imagerel $unwind$??0bad_array_new_length@std@@QEAA@XZ
pdata	ENDS
;	COMDAT pdata
pdata	SEGMENT
$pdata$??1bad_array_new_length@std@@UEAA@XZ DD imagerel $LN3
	DD	imagerel $LN3+26
	DD	imagerel $unwind$??1bad_array_new_length@std@@UEAA@XZ
pdata	ENDS
;	COMDAT pdata
pdata	SEGMENT
$pdata$??0bad_array_new_length@std@@QEAA@AEBV01@@Z DD imagerel $LN3
	DD	imagerel $LN3+56
	DD	imagerel $unwind$??0bad_array_new_length@std@@QEAA@AEBV01@@Z
pdata	ENDS
;	COMDAT pdata
pdata	SEGMENT
$pdata$??_Gbad_array_new_length@std@@UEAAPEAXI@Z DD imagerel $LN4
	DD	imagerel $LN4+61
	DD	imagerel $unwind$??_Gbad_array_new_length@std@@UEAAPEAXI@Z
pdata	ENDS
;	COMDAT pdata
pdata	SEGMENT
$pdata$?_Throw_bad_array_new_length@std@@YAXXZ DD imagerel $LN3
	DD	imagerel $LN3+39
	DD	imagerel $unwind$?_Throw_bad_array_new_length@std@@YAXXZ
pdata	ENDS
;	COMDAT pdata
pdata	SEGMENT
$pdata$?_Allocate@_Default_allocate_traits@std@@SAPEAX_K@Z DD imagerel $LN3
	DD	imagerel $LN3+26
	DD	imagerel $unwind$?_Allocate@_Default_allocate_traits@std@@SAPEAX_K@Z
pdata	ENDS
;	COMDAT pdata
pdata	SEGMENT
$pdata$?_Adjust_manually_vector_aligned@std@@YAXAEAPEAXAEA_K@Z DD imagerel $LN21
	DD	imagerel $LN21+404
	DD	imagerel $unwind$?_Adjust_manually_vector_aligned@std@@YAXAEAPEAXAEA_K@Z
pdata	ENDS
;	COMDAT pdata
pdata	SEGMENT
$pdata$??0_Container_proxy@std@@QEAA@PEAU_Container_base12@1@@Z DD imagerel $LN3
	DD	imagerel $LN3+44
	DD	imagerel $unwind$??0_Container_proxy@std@@QEAA@PEAU_Container_base12@1@@Z
pdata	ENDS
;	COMDAT pdata
pdata	SEGMENT
$pdata$??0_Container_base12@std@@QEAA@XZ DD imagerel $LN3
	DD	imagerel $LN3+25
	DD	imagerel $unwind$??0_Container_base12@std@@QEAA@XZ
pdata	ENDS
;	COMDAT pdata
pdata	SEGMENT
$pdata$?_Orphan_all@_Container_base12@std@@QEAAXXZ DD imagerel $LN3
	DD	imagerel $LN3+26
	DD	imagerel $unwind$?_Orphan_all@_Container_base12@std@@QEAAXXZ
pdata	ENDS
;	COMDAT pdata
pdata	SEGMENT
$pdata$?_Orphan_all_unlocked_v3@_Container_base12@std@@AEAAXXZ DD imagerel $LN7
	DD	imagerel $LN7+107
	DD	imagerel $unwind$?_Orphan_all_unlocked_v3@_Container_base12@std@@AEAAXXZ
pdata	ENDS
;	COMDAT pdata
pdata	SEGMENT
$pdata$?_Orphan_all_locked_v3@_Container_base12@std@@AEAAXXZ DD imagerel $LN3
	DD	imagerel $LN3+90
	DD	imagerel $unwind$?_Orphan_all_locked_v3@_Container_base12@std@@AEAAXXZ
pdata	ENDS
pdata	SEGMENT
$pdata$?perf@fastCos@@YAH_N@Z DD imagerel $LN15
	DD	imagerel $LN15+477
	DD	imagerel $unwind$?perf@fastCos@@YAH_N@Z
pdata	ENDS
;	COMDAT pdata
pdata	SEGMENT
$pdata$??$pi@M@glm@@YAMXZ DD imagerel $LN3
	DD	imagerel $LN3+20
	DD	imagerel $unwind$??$pi@M@glm@@YAMXZ
pdata	ENDS
;	COMDAT pdata
pdata	SEGMENT
$pdata$??$fastCos@M@glm@@YAMM@Z DD imagerel $LN6
	DD	imagerel $LN6+171
	DD	imagerel $unwind$??$fastCos@M@glm@@YAMM@Z
pdata	ENDS
pdata	SEGMENT
$pdata$?perf@fastSin@@YAH_N@Z DD imagerel $LN15
	DD	imagerel $LN15+477
	DD	imagerel $unwind$?perf@fastSin@@YAH_N@Z
pdata	ENDS
;	COMDAT pdata
pdata	SEGMENT
$pdata$??$fastSin@M@glm@@YAMM@Z DD imagerel $LN3
	DD	imagerel $LN3+33
	DD	imagerel $unwind$??$fastSin@M@glm@@YAMM@Z
pdata	ENDS
pdata	SEGMENT
$pdata$?perf@fastTan@@YAH_N@Z DD imagerel $LN15
	DD	imagerel $LN15+477
	DD	imagerel $unwind$?perf@fastTan@@YAH_N@Z
pdata	ENDS
;	COMDAT pdata
pdata	SEGMENT
$pdata$??$fastTan@M@glm@@YAMM@Z DD imagerel $LN3
	DD	imagerel $LN3+152
	DD	imagerel $unwind$??$fastTan@M@glm@@YAMM@Z
pdata	ENDS
pdata	SEGMENT
$pdata$?perf@fastAcos@@YAH_N@Z DD imagerel $LN15
	DD	imagerel $LN15+477
	DD	imagerel $unwind$?perf@fastAcos@@YAH_N@Z
pdata	ENDS
;	COMDAT pdata
pdata	SEGMENT
$pdata$??$fastAcos@M@glm@@YAMM@Z DD imagerel $LN3
	DD	imagerel $LN3+43
	DD	imagerel $unwind$??$fastAcos@M@glm@@YAMM@Z
pdata	ENDS
pdata	SEGMENT
$pdata$?perf@fastAsin@@YAH_N@Z DD imagerel $LN15
	DD	imagerel $LN15+477
	DD	imagerel $unwind$?perf@fastAsin@@YAH_N@Z
pdata	ENDS
;	COMDAT pdata
pdata	SEGMENT
$pdata$??$fastAsin@M@glm@@YAMM@Z DD imagerel $LN3
	DD	imagerel $LN3+218
	DD	imagerel $unwind$??$fastAsin@M@glm@@YAMM@Z
pdata	ENDS
pdata	SEGMENT
$pdata$?perf@fastAtan@@YAH_N@Z DD imagerel $LN15
	DD	imagerel $LN15+477
	DD	imagerel $unwind$?perf@fastAtan@@YAH_N@Z
pdata	ENDS
;	COMDAT pdata
pdata	SEGMENT
$pdata$??$fastAtan@M@glm@@YAMM@Z DD imagerel $LN3
	DD	imagerel $LN3+296
	DD	imagerel $unwind$??$fastAtan@M@glm@@YAMM@Z
pdata	ENDS
;	COMDAT pdata
pdata	SEGMENT
$pdata$??__EAngleShift@taylorCos@@YAXXZ DD imagerel ??__EAngleShift@taylorCos@@YAXXZ
	DD	imagerel ??__EAngleShift@taylorCos@@YAXXZ+102
	DD	imagerel $unwind$??__EAngleShift@taylorCos@@YAXXZ
pdata	ENDS
pdata	SEGMENT
$pdata$?perf_fastCosNew@taylorCos@@YAHMM_K@Z DD imagerel $LN16
	DD	imagerel $LN16+614
	DD	imagerel $unwind$?perf_fastCosNew@taylorCos@@YAHMM_K@Z
pdata	ENDS
pdata	SEGMENT
$pdata$?dtor$0@?0??perf_fastCosNew@taylorCos@@YAHMM_K@Z@4HA DD imagerel ?dtor$0@?0??perf_fastCosNew@taylorCos@@YAHMM_K@Z@4HA
	DD	imagerel ?dtor$0@?0??perf_fastCosNew@taylorCos@@YAHMM_K@Z@4HA+35
	DD	imagerel $unwind$?dtor$0@?0??perf_fastCosNew@taylorCos@@YAHMM_K@Z@4HA
pdata	ENDS
;	COMDAT pdata
pdata	SEGMENT
$pdata$??0?$allocator@U?$tvec4@M$0A@@glm@@@std@@QEAA@XZ DD imagerel $LN3
	DD	imagerel $LN3+13
	DD	imagerel $unwind$??0?$allocator@U?$tvec4@M$0A@@glm@@@std@@QEAA@XZ
pdata	ENDS
;	COMDAT pdata
pdata	SEGMENT
$pdata$?deallocate@?$allocator@U?$tvec4@M$0A@@glm@@@std@@QEAAXQEAU?$tvec4@M$0A@@glm@@_K@Z DD imagerel $LN13
	DD	imagerel $LN13+180
	DD	imagerel $unwind$?deallocate@?$allocator@U?$tvec4@M$0A@@glm@@@std@@QEAAXQEAU?$tvec4@M$0A@@glm@@_K@Z
pdata	ENDS
;	COMDAT pdata
pdata	SEGMENT
$pdata$?allocate@?$allocator@U?$tvec4@M$0A@@glm@@@std@@QEAAPEAU?$tvec4@M$0A@@glm@@_K@Z DD imagerel $LN3
	DD	imagerel $LN3+39
	DD	imagerel $unwind$?allocate@?$allocator@U?$tvec4@M$0A@@glm@@@std@@QEAAPEAU?$tvec4@M$0A@@glm@@_K@Z
pdata	ENDS
;	COMDAT pdata
pdata	SEGMENT
$pdata$?max_size@?$_Default_allocator_traits@V?$allocator@U?$tvec4@M$0A@@glm@@@std@@@std@@SA_KAEBV?$allocator@U?$tvec4@M$0A@@glm@@@2@@Z DD imagerel $LN3
	DD	imagerel $LN3+18
	DD	imagerel $unwind$?max_size@?$_Default_allocator_traits@V?$allocator@U?$tvec4@M$0A@@glm@@@std@@@std@@SA_KAEBV?$allocator@U?$tvec4@M$0A@@glm@@@2@@Z
pdata	ENDS
;	COMDAT pdata
pdata	SEGMENT
$pdata$??0?$vector@U?$tvec4@M$0A@@glm@@V?$allocator@U?$tvec4@M$0A@@glm@@@std@@@std@@QEAA@XZ DD imagerel $LN3
	DD	imagerel $LN3+75
	DD	imagerel $unwind$??0?$vector@U?$tvec4@M$0A@@glm@@V?$allocator@U?$tvec4@M$0A@@glm@@@std@@@std@@QEAA@XZ
pdata	ENDS
;	COMDAT pdata
pdata	SEGMENT
$pdata$??1?$vector@U?$tvec4@M$0A@@glm@@V?$allocator@U?$tvec4@M$0A@@glm@@@std@@@std@@QEAA@XZ DD imagerel $LN3
	DD	imagerel $LN3+136
	DD	imagerel $unwind$??1?$vector@U?$tvec4@M$0A@@glm@@V?$allocator@U?$tvec4@M$0A@@glm@@@std@@@std@@QEAA@XZ
pdata	ENDS
;	COMDAT pdata
pdata	SEGMENT
$pdata$?resize@?$vector@U?$tvec4@M$0A@@glm@@V?$allocator@U?$tvec4@M$0A@@glm@@@std@@@std@@QEAAX_K@Z DD imagerel $LN3
	DD	imagerel $LN3+41
	DD	imagerel $unwind$?resize@?$vector@U?$tvec4@M$0A@@glm@@V?$allocator@U?$tvec4@M$0A@@glm@@@std@@@std@@QEAAX_K@Z
pdata	ENDS
;	COMDAT pdata
pdata	SEGMENT
$pdata$?max_size@?$vector@U?$tvec4@M$0A@@glm@@V?$allocator@U?$tvec4@M$0A@@glm@@@std@@@std@@QEBA_KXZ DD imagerel $LN3
	DD	imagerel $LN3+67
	DD	imagerel $unwind$?max_size@?$vector@U?$tvec4@M$0A@@glm@@V?$allocator@U?$tvec4@M$0A@@glm@@@std@@@std@@QEBA_KXZ
pdata	ENDS
;	COMDAT pdata
pdata	SEGMENT
$pdata$?capacity@?$vector@U?$tvec4@M$0A@@glm@@V?$allocator@U?$tvec4@M$0A@@glm@@@std@@@std@@QEBA_KXZ DD imagerel $LN3
	DD	imagerel $LN3+48
	DD	imagerel $unwind$?capacity@?$vector@U?$tvec4@M$0A@@glm@@V?$allocator@U?$tvec4@M$0A@@glm@@@std@@@std@@QEBA_KXZ
pdata	ENDS
;	COMDAT pdata
pdata	SEGMENT
$pdata$??A?$vector@U?$tvec4@M$0A@@glm@@V?$allocator@U?$tvec4@M$0A@@glm@@@std@@@std@@QEAAAEAU?$tvec4@M$0A@@glm@@_K@Z DD imagerel $LN12
	DD	imagerel $LN12+197
	DD	imagerel $unwind$??A?$vector@U?$tvec4@M$0A@@glm@@V?$allocator@U?$tvec4@M$0A@@glm@@@std@@@std@@QEAAAEAU?$tvec4@M$0A@@glm@@_K@Z
pdata	ENDS
;	COMDAT pdata
pdata	SEGMENT
$pdata$?_Calculate_growth@?$vector@U?$tvec4@M$0A@@glm@@V?$allocator@U?$tvec4@M$0A@@glm@@@std@@@std@@AEBA_K_K@Z DD imagerel $LN5
	DD	imagerel $LN5+146
	DD	imagerel $unwind$?_Calculate_growth@?$vector@U?$tvec4@M$0A@@glm@@V?$allocator@U?$tvec4@M$0A@@glm@@@std@@@std@@AEBA_K_K@Z
pdata	ENDS
;	COMDAT pdata
pdata	SEGMENT
$pdata$?_Change_array@?$vector@U?$tvec4@M$0A@@glm@@V?$allocator@U?$tvec4@M$0A@@glm@@@std@@@std@@AEAAXQEAU?$tvec4@M$0A@@glm@@_K1@Z DD imagerel $LN4
	DD	imagerel $LN4+252
	DD	imagerel $unwind$?_Change_array@?$vector@U?$tvec4@M$0A@@glm@@V?$allocator@U?$tvec4@M$0A@@glm@@@std@@@std@@AEAAXQEAU?$tvec4@M$0A@@glm@@_K1@Z
pdata	ENDS
;	COMDAT pdata
pdata	SEGMENT
$pdata$?_Tidy@?$vector@U?$tvec4@M$0A@@glm@@V?$allocator@U?$tvec4@M$0A@@glm@@@std@@@std@@AEAAXXZ DD imagerel $LN4
	DD	imagerel $LN4+210
	DD	imagerel $unwind$?_Tidy@?$vector@U?$tvec4@M$0A@@glm@@V?$allocator@U?$tvec4@M$0A@@glm@@@std@@@std@@AEAAXXZ
pdata	ENDS
;	COMDAT pdata
pdata	SEGMENT
$pdata$?_Xlength@?$vector@U?$tvec4@M$0A@@glm@@V?$allocator@U?$tvec4@M$0A@@glm@@@std@@@std@@CAXXZ DD imagerel $LN3
	DD	imagerel $LN3+24
	DD	imagerel $unwind$?_Xlength@?$vector@U?$tvec4@M$0A@@glm@@V?$allocator@U?$tvec4@M$0A@@glm@@@std@@@std@@CAXXZ
pdata	ENDS
;	COMDAT pdata
pdata	SEGMENT
$pdata$?_Orphan_range_unlocked@?$vector@U?$tvec4@M$0A@@glm@@V?$allocator@U?$tvec4@M$0A@@glm@@@std@@@std@@AEBAXPEAU?$tvec4@M$0A@@glm@@0@Z DD imagerel $LN8
	DD	imagerel $LN8+161
	DD	imagerel $unwind$?_Orphan_range_unlocked@?$vector@U?$tvec4@M$0A@@glm@@V?$allocator@U?$tvec4@M$0A@@glm@@@std@@@std@@AEBAXPEAU?$tvec4@M$0A@@glm@@0@Z
pdata	ENDS
;	COMDAT pdata
pdata	SEGMENT
$pdata$?_Orphan_range_locked@?$vector@U?$tvec4@M$0A@@glm@@V?$allocator@U?$tvec4@M$0A@@glm@@@std@@@std@@AEBAXPEAU?$tvec4@M$0A@@glm@@0@Z DD imagerel $LN4
	DD	imagerel $LN4+112
	DD	imagerel $unwind$?_Orphan_range_locked@?$vector@U?$tvec4@M$0A@@glm@@V?$allocator@U?$tvec4@M$0A@@glm@@@std@@@std@@AEBAXPEAU?$tvec4@M$0A@@glm@@0@Z
pdata	ENDS
;	COMDAT pdata
pdata	SEGMENT
$pdata$?dtor$0@?0??_Orphan_range_locked@?$vector@U?$tvec4@M$0A@@glm@@V?$allocator@U?$tvec4@M$0A@@glm@@@std@@@std@@AEBAXPEAU?$tvec4@M$0A@@glm@@0@Z@4HA DD imagerel ?dtor$0@?0??_Orphan_range_locked@?$vector@U?$tvec4@M$0A@@glm@@V?$allocator@U?$tvec4@M$0A@@glm@@@std@@@std@@AEBAXPEAU?$tvec4@M$0A@@glm@@0@Z@4HA
	DD	imagerel ?dtor$0@?0??_Orphan_range_locked@?$vector@U?$tvec4@M$0A@@glm@@V?$allocator@U?$tvec4@M$0A@@glm@@@std@@@std@@AEBAXPEAU?$tvec4@M$0A@@glm@@0@Z@4HA+36
	DD	imagerel $unwind$?dtor$0@?0??_Orphan_range_locked@?$vector@U?$tvec4@M$0A@@glm@@V?$allocator@U?$tvec4@M$0A@@glm@@@std@@@std@@AEBAXPEAU?$tvec4@M$0A@@glm@@0@Z@4HA
pdata	ENDS
;	COMDAT pdata
pdata	SEGMENT
$pdata$?_Orphan_range@?$vector@U?$tvec4@M$0A@@glm@@V?$allocator@U?$tvec4@M$0A@@glm@@@std@@@std@@AEBAXPEAU?$tvec4@M$0A@@glm@@0@Z DD imagerel $LN3
	DD	imagerel $LN3+46
	DD	imagerel $unwind$?_Orphan_range@?$vector@U?$tvec4@M$0A@@glm@@V?$allocator@U?$tvec4@M$0A@@glm@@@std@@@std@@AEBAXPEAU?$tvec4@M$0A@@glm@@0@Z
pdata	ENDS
;	COMDAT pdata
pdata	SEGMENT
$pdata$?_Getal@?$vector@U?$tvec4@M$0A@@glm@@V?$allocator@U?$tvec4@M$0A@@glm@@@std@@@std@@AEAAAEAV?$allocator@U?$tvec4@M$0A@@glm@@@2@XZ DD imagerel $LN3
	DD	imagerel $LN3+29
	DD	imagerel $unwind$?_Getal@?$vector@U?$tvec4@M$0A@@glm@@V?$allocator@U?$tvec4@M$0A@@glm@@@std@@@std@@AEAAAEAV?$allocator@U?$tvec4@M$0A@@glm@@@2@XZ
pdata	ENDS
;	COMDAT pdata
pdata	SEGMENT
$pdata$?_Getal@?$vector@U?$tvec4@M$0A@@glm@@V?$allocator@U?$tvec4@M$0A@@glm@@@std@@@std@@AEBAAEBV?$allocator@U?$tvec4@M$0A@@glm@@@2@XZ DD imagerel $LN3
	DD	imagerel $LN3+29
	DD	imagerel $unwind$?_Getal@?$vector@U?$tvec4@M$0A@@glm@@V?$allocator@U?$tvec4@M$0A@@glm@@@std@@@std@@AEBAAEBV?$allocator@U?$tvec4@M$0A@@glm@@@2@XZ
pdata	ENDS
;	COMDAT pdata
pdata	SEGMENT
$pdata$??0?$_Vector_val@U?$_Simple_types@U?$tvec4@M$0A@@glm@@@std@@@std@@QEAA@XZ DD imagerel $LN3
	DD	imagerel $LN3+70
	DD	imagerel $unwind$??0?$_Vector_val@U?$_Simple_types@U?$tvec4@M$0A@@glm@@@std@@@std@@QEAA@XZ
pdata	ENDS
;	COMDAT pdata
pdata	SEGMENT
$pdata$?_Get_first@?$_Compressed_pair@V?$allocator@U?$tvec4@M$0A@@glm@@@std@@V?$_Vector_val@U?$_Simple_types@U?$tvec4@M$0A@@glm@@@std@@@2@$00@std@@QEAAAEAV?$allocator@U?$tvec4@M$0A@@glm@@@2@XZ DD imagerel $LN3
	DD	imagerel $LN3+13
	DD	imagerel $unwind$?_Get_first@?$_Compressed_pair@V?$allocator@U?$tvec4@M$0A@@glm@@@std@@V?$_Vector_val@U?$_Simple_types@U?$tvec4@M$0A@@glm@@@std@@@2@$00@std@@QEAAAEAV?$allocator@U?$tvec4@M$0A@@glm@@@2@XZ
pdata	ENDS
;	COMDAT pdata
pdata	SEGMENT
$pdata$?_Get_first@?$_Compressed_pair@V?$allocator@U?$tvec4@M$0A@@glm@@@std@@V?$_Vector_val@U?$_Simple_types@U?$tvec4@M$0A@@glm@@@std@@@2@$00@std@@QEBAAEBV?$allocator@U?$tvec4@M$0A@@glm@@@2@XZ DD imagerel $LN3
	DD	imagerel $LN3+13
	DD	imagerel $unwind$?_Get_first@?$_Compressed_pair@V?$allocator@U?$tvec4@M$0A@@glm@@@std@@V?$_Vector_val@U?$_Simple_types@U?$tvec4@M$0A@@glm@@@std@@@2@$00@std@@QEBAAEBV?$allocator@U?$tvec4@M$0A@@glm@@@2@XZ
pdata	ENDS
;	COMDAT pdata
pdata	SEGMENT
$pdata$??$?HM$0A@@glm@@YA?AU?$tvec4@M$0A@@0@AEBU10@0@Z DD imagerel $LN3
	DD	imagerel $LN3+83
	DD	imagerel $unwind$??$?HM$0A@@glm@@YA?AU?$tvec4@M$0A@@0@AEBU10@0@Z
pdata	ENDS
;	COMDAT pdata
pdata	SEGMENT
$pdata$??$fastCosNew@M$0A@Utvec4@glm@@@taylorCos@@YA?AU?$tvec4@M$0A@@glm@@AEBU12@@Z DD imagerel $LN3
	DD	imagerel $LN3+247
	DD	imagerel $unwind$??$fastCosNew@M$0A@Utvec4@glm@@@taylorCos@@YA?AU?$tvec4@M$0A@@glm@@AEBU12@@Z
pdata	ENDS
pdata	SEGMENT
$pdata$?perf_fastCosDeterminisctic@taylorCos@@YAHMM_K@Z DD imagerel $LN16
	DD	imagerel $LN16+614
	DD	imagerel $unwind$?perf_fastCosDeterminisctic@taylorCos@@YAHMM_K@Z
pdata	ENDS
pdata	SEGMENT
$pdata$?dtor$0@?0??perf_fastCosDeterminisctic@taylorCos@@YAHMM_K@Z@4HA DD imagerel ?dtor$0@?0??perf_fastCosDeterminisctic@taylorCos@@YAHMM_K@Z@4HA
	DD	imagerel ?dtor$0@?0??perf_fastCosDeterminisctic@taylorCos@@YAHMM_K@Z@4HA+35
	DD	imagerel $unwind$?dtor$0@?0??perf_fastCosDeterminisctic@taylorCos@@YAHMM_K@Z@4HA
pdata	ENDS
;	COMDAT pdata
pdata	SEGMENT
$pdata$??$fastCosDeterminisctic@M$0A@Utvec4@glm@@@taylorCos@@YA?AU?$tvec4@M$0A@@glm@@AEBU12@@Z DD imagerel $LN3
	DD	imagerel $LN3+470
	DD	imagerel $unwind$??$fastCosDeterminisctic@M$0A@Utvec4@glm@@@taylorCos@@YA?AU?$tvec4@M$0A@@glm@@AEBU12@@Z
pdata	ENDS
pdata	SEGMENT
$pdata$?perf_fastCosRef@taylorCos@@YAHMM_K@Z DD imagerel $LN16
	DD	imagerel $LN16+614
	DD	imagerel $unwind$?perf_fastCosRef@taylorCos@@YAHMM_K@Z
pdata	ENDS
pdata	SEGMENT
$pdata$?dtor$0@?0??perf_fastCosRef@taylorCos@@YAHMM_K@Z@4HA DD imagerel ?dtor$0@?0??perf_fastCosRef@taylorCos@@YAHMM_K@Z@4HA
	DD	imagerel ?dtor$0@?0??perf_fastCosRef@taylorCos@@YAHMM_K@Z@4HA+35
	DD	imagerel $unwind$?dtor$0@?0??perf_fastCosRef@taylorCos@@YAHMM_K@Z@4HA
pdata	ENDS
;	COMDAT pdata
pdata	SEGMENT
$pdata$??$fastRefCos@M$0A@Utvec4@glm@@@taylorCos@@YA?AU?$tvec4@M$0A@@glm@@AEBU12@@Z DD imagerel $LN3
	DD	imagerel $LN3+470
	DD	imagerel $unwind$??$fastRefCos@M$0A@Utvec4@glm@@@taylorCos@@YA?AU?$tvec4@M$0A@@glm@@AEBU12@@Z
pdata	ENDS
pdata	SEGMENT
$pdata$?perf_fastCosOld@taylorCos@@YAHMM_K@Z DD imagerel $LN16
	DD	imagerel $LN16+614
	DD	imagerel $unwind$?perf_fastCosOld@taylorCos@@YAHMM_K@Z
pdata	ENDS
pdata	SEGMENT
$pdata$?dtor$0@?0??perf_fastCosOld@taylorCos@@YAHMM_K@Z@4HA DD imagerel ?dtor$0@?0??perf_fastCosOld@taylorCos@@YAHMM_K@Z@4HA
	DD	imagerel ?dtor$0@?0??perf_fastCosOld@taylorCos@@YAHMM_K@Z@4HA+35
	DD	imagerel $unwind$?dtor$0@?0??perf_fastCosOld@taylorCos@@YAHMM_K@Z@4HA
pdata	ENDS
;	COMDAT pdata
pdata	SEGMENT
$pdata$??$fastCos@M$0A@Utvec4@glm@@@glm@@YA?AU?$tvec4@M$0A@@0@AEBU10@@Z DD imagerel $LN3
	DD	imagerel $LN3+48
	DD	imagerel $unwind$??$fastCos@M$0A@Utvec4@glm@@@glm@@YA?AU?$tvec4@M$0A@@0@AEBU10@@Z
pdata	ENDS
pdata	SEGMENT
$pdata$?perf_cos@taylorCos@@YAHMM_K@Z DD imagerel $LN16
	DD	imagerel $LN16+614
	DD	imagerel $unwind$?perf_cos@taylorCos@@YAHMM_K@Z
pdata	ENDS
pdata	SEGMENT
$pdata$?dtor$0@?0??perf_cos@taylorCos@@YAHMM_K@Z@4HA DD imagerel ?dtor$0@?0??perf_cos@taylorCos@@YAHMM_K@Z@4HA
	DD	imagerel ?dtor$0@?0??perf_cos@taylorCos@@YAHMM_K@Z@4HA+35
	DD	imagerel $unwind$?dtor$0@?0??perf_cos@taylorCos@@YAHMM_K@Z@4HA
pdata	ENDS
;	COMDAT pdata
pdata	SEGMENT
$pdata$??$cos@M$0A@Utvec4@glm@@@glm@@YA?AU?$tvec4@M$0A@@0@AEBU10@@Z DD imagerel $LN3
	DD	imagerel $LN3+48
	DD	imagerel $unwind$??$cos@M$0A@Utvec4@glm@@@glm@@YA?AU?$tvec4@M$0A@@0@AEBU10@@Z
pdata	ENDS
pdata	SEGMENT
$pdata$?perf@taylorCos@@YAH_K@Z DD imagerel $LN3
	DD	imagerel $LN3+209
	DD	imagerel $unwind$?perf@taylorCos@@YAH_K@Z
$pdata$?test@taylorCos@@YAHXZ DD imagerel $LN11
	DD	imagerel $LN11+378
	DD	imagerel $unwind$?test@taylorCos@@YAHXZ
pdata	ENDS
;	COMDAT pdata
pdata	SEGMENT
$pdata$??$abs@M@glm@@YAMM@Z DD imagerel $LN3
	DD	imagerel $LN3+28
	DD	imagerel $unwind$??$abs@M@glm@@YAMM@Z
pdata	ENDS
;	COMDAT pdata
pdata	SEGMENT
$pdata$??$radians@M@glm@@YAMM@Z DD imagerel $LN3
	DD	imagerel $LN3+31
	DD	imagerel $unwind$??$radians@M@glm@@YAMM@Z
pdata	ENDS
;	COMDAT pdata
pdata	SEGMENT
$pdata$?length@?$tvec1@M$0A@@glm@@SAHXZ DD imagerel $LN3
	DD	imagerel $LN3+9
	DD	imagerel $unwind$?length@?$tvec1@M$0A@@glm@@SAHXZ
pdata	ENDS
;	COMDAT pdata
pdata	SEGMENT
$pdata$??A?$tvec1@M$0A@@glm@@QEAAAEAMH@Z DD imagerel $LN5
	DD	imagerel $LN5+80
	DD	imagerel $unwind$??A?$tvec1@M$0A@@glm@@QEAAAEAMH@Z
pdata	ENDS
;	COMDAT pdata
pdata	SEGMENT
$pdata$??A?$tvec1@M$0A@@glm@@QEBAAEBMH@Z DD imagerel $LN5
	DD	imagerel $LN5+80
	DD	imagerel $unwind$??A?$tvec1@M$0A@@glm@@QEBAAEBMH@Z
pdata	ENDS
;	COMDAT pdata
pdata	SEGMENT
$pdata$??0?$tvec1@M$0A@@glm@@QEAA@W4ctor@1@@Z DD imagerel $LN3
	DD	imagerel $LN3+17
	DD	imagerel $unwind$??0?$tvec1@M$0A@@glm@@QEAA@W4ctor@1@@Z
pdata	ENDS
;	COMDAT pdata
pdata	SEGMENT
$pdata$??0?$tvec1@M$0A@@glm@@QEAA@M@Z DD imagerel $LN3
	DD	imagerel $LN3+34
	DD	imagerel $unwind$??0?$tvec1@M$0A@@glm@@QEAA@M@Z
pdata	ENDS
;	COMDAT pdata
pdata	SEGMENT
$pdata$??$fastRefCos@M$0A@Utvec1@glm@@@taylorCos@@YA?AU?$tvec1@M$0A@@glm@@AEBU12@@Z DD imagerel $LN3
	DD	imagerel $LN3+470
	DD	imagerel $unwind$??$fastRefCos@M$0A@Utvec1@glm@@@taylorCos@@YA?AU?$tvec1@M$0A@@glm@@AEBU12@@Z
pdata	ENDS
;	COMDAT pdata
pdata	SEGMENT
$pdata$??$fastCosNew@M$0A@Utvec1@glm@@@taylorCos@@YA?AU?$tvec1@M$0A@@glm@@AEBU12@@Z DD imagerel $LN3
	DD	imagerel $LN3+185
	DD	imagerel $unwind$??$fastCosNew@M$0A@Utvec1@glm@@@taylorCos@@YA?AU?$tvec1@M$0A@@glm@@AEBU12@@Z
pdata	ENDS
pdata	SEGMENT
$pdata$main DD	imagerel $LN3
	DD	imagerel $LN3+63
	DD	imagerel $unwind$main
pdata	ENDS
;	COMDAT pdata
pdata	SEGMENT
$pdata$??$_Resize@U_Value_init_tag@std@@@?$vector@U?$tvec4@M$0A@@glm@@V?$allocator@U?$tvec4@M$0A@@glm@@@std@@@std@@AEAAX_KAEBU_Value_init_tag@1@@Z DD imagerel $LN6
	DD	imagerel $LN6+359
	DD	imagerel $unwind$??$_Resize@U_Value_init_tag@std@@@?$vector@U?$tvec4@M$0A@@glm@@V?$allocator@U?$tvec4@M$0A@@glm@@@std@@@std@@AEAAX_KAEBU_Value_init_tag@1@@Z
pdata	ENDS
;	COMDAT pdata
pdata	SEGMENT
$pdata$?allocate@?$allocator@U_Container_proxy@std@@@std@@QEAAPEAU_Container_proxy@2@_K@Z DD imagerel $LN3
	DD	imagerel $LN3+39
	DD	imagerel $unwind$?allocate@?$allocator@U_Container_proxy@std@@@std@@QEAAPEAU_Container_proxy@2@_K@Z
pdata	ENDS
;	COMDAT pdata
pdata	SEGMENT
$pdata$??$?0U?$tvec4@M$0A@@glm@@@?$allocator@U_Container_proxy@std@@@std@@QEAA@AEBV?$allocator@U?$tvec4@M$0A@@glm@@@1@@Z DD imagerel $LN3
	DD	imagerel $LN3+18
	DD	imagerel $unwind$??$?0U?$tvec4@M$0A@@glm@@@?$allocator@U_Container_proxy@std@@@std@@QEAA@AEBV?$allocator@U?$tvec4@M$0A@@glm@@@1@@Z
pdata	ENDS
;	COMDAT pdata
pdata	SEGMENT
$pdata$??$exchange@PEAU_Container_proxy@std@@$$T@std@@YAPEAU_Container_proxy@0@AEAPEAU10@$$QEA$$T@Z DD imagerel $LN3
	DD	imagerel $LN3+53
	DD	imagerel $unwind$??$exchange@PEAU_Container_proxy@std@@$$T@std@@YAPEAU_Container_proxy@0@AEAPEAU10@$$QEA$$T@Z
pdata	ENDS
;	COMDAT pdata
pdata	SEGMENT
$pdata$??$_Delete_plain_internal@V?$allocator@U_Container_proxy@std@@@std@@@std@@YAXAEAV?$allocator@U_Container_proxy@std@@@0@QEAU_Container_proxy@0@@Z DD imagerel $LN3
	DD	imagerel $LN3+36
	DD	imagerel $unwind$??$_Delete_plain_internal@V?$allocator@U_Container_proxy@std@@@std@@@std@@YAXAEAV?$allocator@U_Container_proxy@std@@@0@QEAU_Container_proxy@0@@Z
pdata	ENDS
;	COMDAT pdata
pdata	SEGMENT
$pdata$??$?0$$V@?$_Compressed_pair@V?$allocator@U?$tvec4@M$0A@@glm@@@std@@V?$_Vector_val@U?$_Simple_types@U?$tvec4@M$0A@@glm@@@std@@@2@$00@std@@QEAA@U_Zero_then_variadic_args_t@1@@Z DD imagerel $LN3
	DD	imagerel $LN3+48
	DD	imagerel $unwind$??$?0$$V@?$_Compressed_pair@V?$allocator@U?$tvec4@M$0A@@glm@@@std@@V?$_Vector_val@U?$_Simple_types@U?$tvec4@M$0A@@glm@@@std@@@2@$00@std@@QEAA@U_Zero_then_variadic_args_t@1@@Z
pdata	ENDS
;	COMDAT pdata
pdata	SEGMENT
$pdata$??$_Alloc_proxy@V?$allocator@U_Container_proxy@std@@@std@@@_Container_base12@std@@QEAAX$$QEAV?$allocator@U_Container_proxy@std@@@1@@Z DD imagerel $LN3
	DD	imagerel $LN3+100
	DD	imagerel $unwind$??$_Alloc_proxy@V?$allocator@U_Container_proxy@std@@@std@@@_Container_base12@std@@QEAAX$$QEAV?$allocator@U_Container_proxy@std@@@1@@Z
pdata	ENDS
;	COMDAT pdata
pdata	SEGMENT
$pdata$??$_Destroy_range@V?$allocator@U?$tvec4@M$0A@@glm@@@std@@@std@@YAXPEAU?$tvec4@M$0A@@glm@@QEAU12@AEAV?$allocator@U?$tvec4@M$0A@@glm@@@0@@Z DD imagerel $LN3
	DD	imagerel $LN3+18
	DD	imagerel $unwind$??$_Destroy_range@V?$allocator@U?$tvec4@M$0A@@glm@@@std@@@std@@YAXPEAU?$tvec4@M$0A@@glm@@QEAU12@AEAV?$allocator@U?$tvec4@M$0A@@glm@@@0@@Z
pdata	ENDS
;	COMDAT pdata
pdata	SEGMENT
$pdata$??$_Deallocate@$0BA@$0A@@std@@YAXPEAX_K@Z DD imagerel $LN4
	DD	imagerel $LN4+63
	DD	imagerel $unwind$??$_Deallocate@$0BA@$0A@@std@@YAXPEAX_K@Z
pdata	ENDS
;	COMDAT pdata
pdata	SEGMENT
$pdata$??$?XM@?$tvec4@M$0A@@glm@@QEAAAEAU01@M@Z DD imagerel $LN3
	DD	imagerel $LN3+78
	DD	imagerel $unwind$??$?XM@?$tvec4@M$0A@@glm@@QEAAAEAU01@M@Z
pdata	ENDS
;	COMDAT pdata
pdata	SEGMENT
$pdata$??$wrapAngle@M@glm@@YAMM@Z DD imagerel $LN3
	DD	imagerel $LN3+41
	DD	imagerel $unwind$??$wrapAngle@M@glm@@YAMM@Z
pdata	ENDS
;	COMDAT pdata
pdata	SEGMENT
$pdata$??$half_pi@M@glm@@YAMXZ DD imagerel $LN3
	DD	imagerel $LN3+20
	DD	imagerel $unwind$??$half_pi@M@glm@@YAMXZ
pdata	ENDS
;	COMDAT pdata
pdata	SEGMENT
$pdata$??$cos_52s@M@detail@glm@@YAMM@Z DD imagerel $LN3
	DD	imagerel $LN3+120
	DD	imagerel $unwind$??$cos_52s@M@detail@glm@@YAMM@Z
pdata	ENDS
;	COMDAT pdata
pdata	SEGMENT
$pdata$??$two_pi@M@glm@@YAMXZ DD imagerel $LN3
	DD	imagerel $LN3+20
	DD	imagerel $unwind$??$two_pi@M@glm@@YAMXZ
pdata	ENDS
;	COMDAT pdata
pdata	SEGMENT
$pdata$??$?YM@?$tvec4@M$0A@@glm@@QEAAAEAU01@AEBU01@@Z DD imagerel $LN3
	DD	imagerel $LN3+83
	DD	imagerel $unwind$??$?YM@?$tvec4@M$0A@@glm@@QEAAAEAU01@AEBU01@@Z
pdata	ENDS
;	COMDAT pdata
pdata	SEGMENT
$pdata$??$?HM$0A@@glm@@YA?AU?$tvec4@M$0A@@0@AEBU10@M@Z DD imagerel $LN3
	DD	imagerel $LN3+85
	DD	imagerel $unwind$??$?HM$0A@@glm@@YA?AU?$tvec4@M$0A@@0@AEBU10@M@Z
pdata	ENDS
;	COMDAT pdata
pdata	SEGMENT
$pdata$??$fmod@M$0A@Utvec4@glm@@@glm@@YA?AU?$tvec4@M$0A@@0@AEBU10@M@Z DD imagerel $LN3
	DD	imagerel $LN3+66
	DD	imagerel $unwind$??$fmod@M$0A@Utvec4@glm@@@glm@@YA?AU?$tvec4@M$0A@@0@AEBU10@M@Z
pdata	ENDS
;	COMDAT pdata
pdata	SEGMENT
$pdata$??$?GM$0A@@glm@@YA?AU?$tvec4@M$0A@@0@AEBU10@M@Z DD imagerel $LN3
	DD	imagerel $LN3+85
	DD	imagerel $unwind$??$?GM$0A@@glm@@YA?AU?$tvec4@M$0A@@0@AEBU10@M@Z
pdata	ENDS
;	COMDAT pdata
pdata	SEGMENT
$pdata$??$fastAbs@$0A@Utvec4@glm@@@taylorCos@@YA?AU?$tvec4@M$0A@@glm@@U12@@Z DD imagerel $LN3
	DD	imagerel $LN3+214
	DD	imagerel $unwind$??$fastAbs@$0A@Utvec4@glm@@@taylorCos@@YA?AU?$tvec4@M$0A@@glm@@U12@@Z
pdata	ENDS
;	COMDAT pdata
pdata	SEGMENT
$pdata$??$taylorSeriesNewCos6@M$0A@Utvec4@glm@@@taylorCos@@YA?AU?$tvec4@M$0A@@glm@@AEBU12@@Z DD imagerel $LN3
	DD	imagerel $LN3+325
	DD	imagerel $unwind$??$taylorSeriesNewCos6@M$0A@Utvec4@glm@@@taylorCos@@YA?AU?$tvec4@M$0A@@glm@@AEBU12@@Z
pdata	ENDS
;	COMDAT pdata
pdata	SEGMENT
$pdata$??$deterministic_fmod@M$0A@Utvec4@glm@@@taylorCos@@YA?AU?$tvec4@M$0A@@glm@@AEBU12@M@Z DD imagerel $LN3
	DD	imagerel $LN3+103
	DD	imagerel $unwind$??$deterministic_fmod@M$0A@Utvec4@glm@@@taylorCos@@YA?AU?$tvec4@M$0A@@glm@@AEBU12@M@Z
pdata	ENDS
;	COMDAT pdata
pdata	SEGMENT
$pdata$??$abs@M$0A@Utvec4@glm@@@glm@@YA?AU?$tvec4@M$0A@@0@AEBU10@@Z DD imagerel $LN3
	DD	imagerel $LN3+41
	DD	imagerel $unwind$??$abs@M$0A@Utvec4@glm@@@glm@@YA?AU?$tvec4@M$0A@@0@AEBU10@@Z
pdata	ENDS
;	COMDAT pdata
pdata	SEGMENT
$pdata$??$lessThanEqual@M$0A@Utvec4@glm@@@glm@@YA?AU?$tvec4@_N$0A@@0@AEBU?$tvec4@M$0A@@0@0@Z DD imagerel $LN9
	DD	imagerel $LN9+266
	DD	imagerel $unwind$??$lessThanEqual@M$0A@Utvec4@glm@@@glm@@YA?AU?$tvec4@_N$0A@@0@AEBU?$tvec4@M$0A@@0@0@Z
pdata	ENDS
;	COMDAT pdata
pdata	SEGMENT
$pdata$?length@?$tvec4@_N$0A@@glm@@SAHXZ DD imagerel $LN3
	DD	imagerel $LN3+9
	DD	imagerel $unwind$?length@?$tvec4@_N$0A@@glm@@SAHXZ
pdata	ENDS
;	COMDAT pdata
pdata	SEGMENT
$pdata$??A?$tvec4@_N$0A@@glm@@QEAAAEA_NH@Z DD imagerel $LN5
	DD	imagerel $LN5+82
	DD	imagerel $unwind$??A?$tvec4@_N$0A@@glm@@QEAAAEA_NH@Z
pdata	ENDS
;	COMDAT pdata
pdata	SEGMENT
$pdata$??A?$tvec4@_N$0A@@glm@@QEBAAEB_NH@Z DD imagerel $LN5
	DD	imagerel $LN5+82
	DD	imagerel $unwind$??A?$tvec4@_N$0A@@glm@@QEBAAEB_NH@Z
pdata	ENDS
;	COMDAT pdata
pdata	SEGMENT
$pdata$??0?$tvec4@_N$0A@@glm@@QEAA@W4ctor@1@@Z DD imagerel $LN3
	DD	imagerel $LN3+17
	DD	imagerel $unwind$??0?$tvec4@_N$0A@@glm@@QEAA@W4ctor@1@@Z
pdata	ENDS
;	COMDAT pdata
pdata	SEGMENT
$pdata$??$mix@M_N$0A@Utvec4@glm@@@glm@@YA?AU?$tvec4@M$0A@@0@AEBU10@0AEBU?$tvec4@_N$0A@@0@@Z DD imagerel $LN3
	DD	imagerel $LN3+61
	DD	imagerel $unwind$??$mix@M_N$0A@Utvec4@glm@@@glm@@YA?AU?$tvec4@M$0A@@0@AEBU10@0AEBU?$tvec4@_N$0A@@0@@Z
pdata	ENDS
;	COMDAT pdata
pdata	SEGMENT
$pdata$??$?GM$0A@@glm@@YA?AU?$tvec4@M$0A@@0@AEBU10@0@Z DD imagerel $LN3
	DD	imagerel $LN3+83
	DD	imagerel $unwind$??$?GM$0A@@glm@@YA?AU?$tvec4@M$0A@@0@AEBU10@0@Z
pdata	ENDS
;	COMDAT pdata
pdata	SEGMENT
$pdata$??$taylorSeriesNewCos@M$0A@Utvec4@glm@@@taylorCos@@YA?AU?$tvec4@M$0A@@glm@@AEBU12@@Z DD imagerel $LN3
	DD	imagerel $LN3+412
	DD	imagerel $unwind$??$taylorSeriesNewCos@M$0A@Utvec4@glm@@@taylorCos@@YA?AU?$tvec4@M$0A@@glm@@AEBU12@@Z
pdata	ENDS
;	COMDAT pdata
pdata	SEGMENT
$pdata$??$?DM$0A@@glm@@YA?AU?$tvec4@M$0A@@0@AEBU10@0@Z DD imagerel $LN3
	DD	imagerel $LN3+83
	DD	imagerel $unwind$??$?DM$0A@@glm@@YA?AU?$tvec4@M$0A@@0@AEBU10@0@Z
pdata	ENDS
;	COMDAT pdata
pdata	SEGMENT
$pdata$??$taylorSeriesRefCos@M$0A@Utvec4@glm@@@taylorCos@@YA?AU?$tvec4@M$0A@@glm@@AEBU12@@Z DD imagerel $LN3
	DD	imagerel $LN3+812
	DD	imagerel $unwind$??$taylorSeriesRefCos@M$0A@Utvec4@glm@@@taylorCos@@YA?AU?$tvec4@M$0A@@glm@@AEBU12@@Z
pdata	ENDS
;	COMDAT pdata
pdata	SEGMENT
$pdata$?call@?$functor1@MM$0A@Utvec4@glm@@@detail@glm@@SA?AU?$tvec4@M$0A@@3@P6AMM@ZAEBU43@@Z DD imagerel $LN3
	DD	imagerel $LN3+147
	DD	imagerel $unwind$?call@?$functor1@MM$0A@Utvec4@glm@@@detail@glm@@SA?AU?$tvec4@M$0A@@3@P6AMM@ZAEBU43@@Z
pdata	ENDS
;	COMDAT pdata
pdata	SEGMENT
$pdata$?call@?$compute_abs@M$00@detail@glm@@SAMM@Z DD imagerel $LN5
	DD	imagerel $LN5+71
	DD	imagerel $unwind$?call@?$compute_abs@M$00@detail@glm@@SAMM@Z
pdata	ENDS
;	COMDAT pdata
pdata	SEGMENT
$pdata$??$?HM$0A@@glm@@YA?AU?$tvec1@M$0A@@0@AEBU10@M@Z DD imagerel $LN3
	DD	imagerel $LN3+60
	DD	imagerel $unwind$??$?HM$0A@@glm@@YA?AU?$tvec1@M$0A@@0@AEBU10@M@Z
pdata	ENDS
;	COMDAT pdata
pdata	SEGMENT
$pdata$??$fmod@M$0A@Utvec1@glm@@@glm@@YA?AU?$tvec1@M$0A@@0@AEBU10@M@Z DD imagerel $LN3
	DD	imagerel $LN3+66
	DD	imagerel $unwind$??$fmod@M$0A@Utvec1@glm@@@glm@@YA?AU?$tvec1@M$0A@@0@AEBU10@M@Z
pdata	ENDS
;	COMDAT pdata
pdata	SEGMENT
$pdata$??$?GM$0A@@glm@@YA?AU?$tvec1@M$0A@@0@AEBU10@M@Z DD imagerel $LN3
	DD	imagerel $LN3+60
	DD	imagerel $unwind$??$?GM$0A@@glm@@YA?AU?$tvec1@M$0A@@0@AEBU10@M@Z
pdata	ENDS
;	COMDAT pdata
pdata	SEGMENT
$pdata$??$abs@M$0A@Utvec1@glm@@@glm@@YA?AU?$tvec1@M$0A@@0@AEBU10@@Z DD imagerel $LN3
	DD	imagerel $LN3+41
	DD	imagerel $unwind$??$abs@M$0A@Utvec1@glm@@@glm@@YA?AU?$tvec1@M$0A@@0@AEBU10@@Z
pdata	ENDS
;	COMDAT pdata
pdata	SEGMENT
$pdata$??$lessThanEqual@M$0A@Utvec1@glm@@@glm@@YA?AU?$tvec1@_N$0A@@0@AEBU?$tvec1@M$0A@@0@0@Z DD imagerel $LN9
	DD	imagerel $LN9+267
	DD	imagerel $unwind$??$lessThanEqual@M$0A@Utvec1@glm@@@glm@@YA?AU?$tvec1@_N$0A@@0@AEBU?$tvec1@M$0A@@0@0@Z
pdata	ENDS
;	COMDAT pdata
pdata	SEGMENT
$pdata$?length@?$tvec1@_N$0A@@glm@@SAHXZ DD imagerel $LN3
	DD	imagerel $LN3+9
	DD	imagerel $unwind$?length@?$tvec1@_N$0A@@glm@@SAHXZ
pdata	ENDS
;	COMDAT pdata
pdata	SEGMENT
$pdata$??A?$tvec1@_N$0A@@glm@@QEAAAEA_NH@Z DD imagerel $LN5
	DD	imagerel $LN5+82
	DD	imagerel $unwind$??A?$tvec1@_N$0A@@glm@@QEAAAEA_NH@Z
pdata	ENDS
;	COMDAT pdata
pdata	SEGMENT
$pdata$??A?$tvec1@_N$0A@@glm@@QEBAAEB_NH@Z DD imagerel $LN5
	DD	imagerel $LN5+82
	DD	imagerel $unwind$??A?$tvec1@_N$0A@@glm@@QEBAAEB_NH@Z
pdata	ENDS
;	COMDAT pdata
pdata	SEGMENT
$pdata$??0?$tvec1@_N$0A@@glm@@QEAA@W4ctor@1@@Z DD imagerel $LN3
	DD	imagerel $LN3+17
	DD	imagerel $unwind$??0?$tvec1@_N$0A@@glm@@QEAA@W4ctor@1@@Z
pdata	ENDS
;	COMDAT pdata
pdata	SEGMENT
$pdata$??$mix@M_N$0A@Utvec1@glm@@@glm@@YA?AU?$tvec1@M$0A@@0@AEBU10@0AEBU?$tvec1@_N$0A@@0@@Z DD imagerel $LN3
	DD	imagerel $LN3+61
	DD	imagerel $unwind$??$mix@M_N$0A@Utvec1@glm@@@glm@@YA?AU?$tvec1@M$0A@@0@AEBU10@0AEBU?$tvec1@_N$0A@@0@@Z
pdata	ENDS
;	COMDAT pdata
pdata	SEGMENT
$pdata$??$?GM$0A@@glm@@YA?AU?$tvec1@M$0A@@0@AEBU10@0@Z DD imagerel $LN3
	DD	imagerel $LN3+62
	DD	imagerel $unwind$??$?GM$0A@@glm@@YA?AU?$tvec1@M$0A@@0@AEBU10@0@Z
pdata	ENDS
;	COMDAT pdata
pdata	SEGMENT
$pdata$??$taylorSeriesRefCos@M$0A@Utvec1@glm@@@taylorCos@@YA?AU?$tvec1@M$0A@@glm@@AEBU12@@Z DD imagerel $LN3
	DD	imagerel $LN3+752
	DD	imagerel $unwind$??$taylorSeriesRefCos@M$0A@Utvec1@glm@@@taylorCos@@YA?AU?$tvec1@M$0A@@glm@@AEBU12@@Z
pdata	ENDS
;	COMDAT pdata
pdata	SEGMENT
$pdata$??$?DM$0A@@glm@@YA?AU?$tvec1@M$0A@@0@AEBU10@0@Z DD imagerel $LN3
	DD	imagerel $LN3+62
	DD	imagerel $unwind$??$?DM$0A@@glm@@YA?AU?$tvec1@M$0A@@0@AEBU10@0@Z
pdata	ENDS
;	COMDAT pdata
pdata	SEGMENT
$pdata$??$fastAbs@$0A@Utvec1@glm@@@taylorCos@@YA?AU?$tvec1@M$0A@@glm@@U12@@Z DD imagerel $LN3
	DD	imagerel $LN3+205
	DD	imagerel $unwind$??$fastAbs@$0A@Utvec1@glm@@@taylorCos@@YA?AU?$tvec1@M$0A@@glm@@U12@@Z
pdata	ENDS
;	COMDAT pdata
pdata	SEGMENT
$pdata$??$taylorSeriesNewCos6@M$0A@Utvec1@glm@@@taylorCos@@YA?AU?$tvec1@M$0A@@glm@@AEBU12@@Z DD imagerel $LN3
	DD	imagerel $LN3+310
	DD	imagerel $unwind$??$taylorSeriesNewCos6@M$0A@Utvec1@glm@@@taylorCos@@YA?AU?$tvec1@M$0A@@glm@@AEBU12@@Z
pdata	ENDS
;	COMDAT pdata
pdata	SEGMENT
$pdata$??$_Resize_reallocate@U_Value_init_tag@std@@@?$vector@U?$tvec4@M$0A@@glm@@V?$allocator@U?$tvec4@M$0A@@glm@@@std@@@std@@AEAAX_KAEBU_Value_init_tag@1@@Z DD imagerel $LN11
	DD	imagerel $LN11+336
	DD	imagerel $unwind$??$_Resize_reallocate@U_Value_init_tag@std@@@?$vector@U?$tvec4@M$0A@@glm@@V?$allocator@U?$tvec4@M$0A@@glm@@@std@@@std@@AEAAX_KAEBU_Value_init_tag@1@@Z
pdata	ENDS
;	COMDAT pdata
pdata	SEGMENT
$pdata$?catch$0@?0???$_Resize_reallocate@U_Value_init_tag@std@@@?$vector@U?$tvec4@M$0A@@glm@@V?$allocator@U?$tvec4@M$0A@@glm@@@std@@@std@@AEAAX_KAEBU_Value_init_tag@1@@Z@4HA DD imagerel ?catch$0@?0???$_Resize_reallocate@U_Value_init_tag@std@@@?$vector@U?$tvec4@M$0A@@glm@@V?$allocator@U?$tvec4@M$0A@@glm@@@std@@@std@@AEAAX_KAEBU_Value_init_tag@1@@Z@4HA
	DD	imagerel ?catch$0@?0???$_Resize_reallocate@U_Value_init_tag@std@@@?$vector@U?$tvec4@M$0A@@glm@@V?$allocator@U?$tvec4@M$0A@@glm@@@std@@@std@@AEAAX_KAEBU_Value_init_tag@1@@Z@4HA+78
	DD	imagerel $unwind$?catch$0@?0???$_Resize_reallocate@U_Value_init_tag@std@@@?$vector@U?$tvec4@M$0A@@glm@@V?$allocator@U?$tvec4@M$0A@@glm@@@std@@@std@@AEAAX_KAEBU_Value_init_tag@1@@Z@4HA
pdata	ENDS
;	COMDAT pdata
pdata	SEGMENT
$pdata$??$_Uninitialized_value_construct_n@V?$allocator@U?$tvec4@M$0A@@glm@@@std@@@std@@YAPEAU?$tvec4@M$0A@@glm@@PEAU12@_KAEAV?$allocator@U?$tvec4@M$0A@@glm@@@0@@Z DD imagerel $LN7
	DD	imagerel $LN7+155
	DD	imagerel $unwind$??$_Uninitialized_value_construct_n@V?$allocator@U?$tvec4@M$0A@@glm@@@std@@@std@@YAPEAU?$tvec4@M$0A@@glm@@PEAU12@_KAEAV?$allocator@U?$tvec4@M$0A@@glm@@@0@@Z
pdata	ENDS
;	COMDAT pdata
pdata	SEGMENT
$pdata$?dtor$0@?0???$_Uninitialized_value_construct_n@V?$allocator@U?$tvec4@M$0A@@glm@@@std@@@std@@YAPEAU?$tvec4@M$0A@@glm@@PEAU12@_KAEAV?$allocator@U?$tvec4@M$0A@@glm@@@0@@Z@4HA DD imagerel ?dtor$0@?0???$_Uninitialized_value_construct_n@V?$allocator@U?$tvec4@M$0A@@glm@@@std@@@std@@YAPEAU?$tvec4@M$0A@@glm@@PEAU12@_KAEAV?$allocator@U?$tvec4@M$0A@@glm@@@0@@Z@4HA
	DD	imagerel ?dtor$0@?0???$_Uninitialized_value_construct_n@V?$allocator@U?$tvec4@M$0A@@glm@@@std@@@std@@YAPEAU?$tvec4@M$0A@@glm@@PEAU12@_KAEAV?$allocator@U?$tvec4@M$0A@@glm@@@0@@Z@4HA+35
	DD	imagerel $unwind$?dtor$0@?0???$_Uninitialized_value_construct_n@V?$allocator@U?$tvec4@M$0A@@glm@@@std@@@std@@YAPEAU?$tvec4@M$0A@@glm@@PEAU12@_KAEAV?$allocator@U?$tvec4@M$0A@@glm@@@0@@Z@4HA
pdata	ENDS
;	COMDAT pdata
pdata	SEGMENT
$pdata$??$_Deallocate_plain@V?$allocator@U_Container_proxy@std@@@std@@@std@@YAXAEAV?$allocator@U_Container_proxy@std@@@0@QEAU_Container_proxy@0@@Z DD imagerel $LN3
	DD	imagerel $LN3+43
	DD	imagerel $unwind$??$_Deallocate_plain@V?$allocator@U_Container_proxy@std@@@std@@@std@@YAXAEAV?$allocator@U_Container_proxy@std@@@0@QEAU_Container_proxy@0@@Z
pdata	ENDS
;	COMDAT pdata
pdata	SEGMENT
$pdata$??$_Unfancy@U_Container_proxy@std@@@std@@YAPEAU_Container_proxy@0@PEAU10@@Z DD imagerel $LN3
	DD	imagerel $LN3+13
	DD	imagerel $unwind$??$_Unfancy@U_Container_proxy@std@@@std@@YAPEAU_Container_proxy@0@PEAU10@@Z
pdata	ENDS
;	COMDAT pdata
pdata	SEGMENT
$pdata$??$_Construct_in_place@U_Container_proxy@std@@PEAU_Container_base12@2@@std@@YAXAEAU_Container_proxy@0@$$QEAPEAU_Container_base12@0@@Z DD imagerel $LN3
	DD	imagerel $LN3+80
	DD	imagerel $unwind$??$_Construct_in_place@U_Container_proxy@std@@PEAU_Container_base12@2@@std@@YAXAEAU_Container_proxy@0@$$QEAPEAU_Container_base12@0@@Z
pdata	ENDS
;	COMDAT pdata
pdata	SEGMENT
$pdata$??$_Get_size_of_n@$0BA@@std@@YA_K_K@Z DD imagerel $LN4
	DD	imagerel $LN4+64
	DD	imagerel $unwind$??$_Get_size_of_n@$0BA@@std@@YA_K_K@Z
pdata	ENDS
;	COMDAT pdata
pdata	SEGMENT
$pdata$??$_Allocate@$0BA@U_Default_allocate_traits@std@@$0A@@std@@YAPEAX_K@Z DD imagerel $LN5
	DD	imagerel $LN5+61
	DD	imagerel $unwind$??$_Allocate@$0BA@U_Default_allocate_traits@std@@$0A@@std@@YAPEAX_K@Z
pdata	ENDS
;	COMDAT pdata
pdata	SEGMENT
$pdata$?call@?$compute_vec4_mul@M$0A@$0A@@detail@glm@@SA?AU?$tvec4@M$0A@@3@AEBU43@0@Z DD imagerel $LN3
	DD	imagerel $LN3+143
	DD	imagerel $unwind$?call@?$compute_vec4_mul@M$0A@$0A@@detail@glm@@SA?AU?$tvec4@M$0A@@3@AEBU43@0@Z
pdata	ENDS
;	COMDAT pdata
pdata	SEGMENT
$pdata$??$mod@M@glm@@YAMMM@Z DD imagerel $LN3
	DD	imagerel $LN3+62
	DD	imagerel $unwind$??$mod@M@glm@@YAMMM@Z
pdata	ENDS
;	COMDAT pdata
pdata	SEGMENT
$pdata$?call@?$compute_vec4_add@M$0A@$0A@@detail@glm@@SA?AU?$tvec4@M$0A@@3@AEBU43@0@Z DD imagerel $LN3
	DD	imagerel $LN3+143
	DD	imagerel $unwind$?call@?$compute_vec4_add@M$0A@$0A@@detail@glm@@SA?AU?$tvec4@M$0A@@3@AEBU43@0@Z
pdata	ENDS
;	COMDAT pdata
pdata	SEGMENT
$pdata$??$?YM@?$tvec4@M$0A@@glm@@QEAAAEAU01@M@Z DD imagerel $LN3
	DD	imagerel $LN3+78
	DD	imagerel $unwind$??$?YM@?$tvec4@M$0A@@glm@@QEAAAEAU01@M@Z
pdata	ENDS
;	COMDAT pdata
pdata	SEGMENT
$pdata$?call@?$compute_fmod@M$0A@Utvec4@glm@@$00@detail@glm@@SA?AU?$tvec4@M$0A@@3@AEBU43@0@Z DD imagerel $LN3
	DD	imagerel $LN3+58
	DD	imagerel $unwind$?call@?$compute_fmod@M$0A@Utvec4@glm@@$00@detail@glm@@SA?AU?$tvec4@M$0A@@3@AEBU43@0@Z
pdata	ENDS
;	COMDAT pdata
pdata	SEGMENT
$pdata$??$?ZM@?$tvec4@M$0A@@glm@@QEAAAEAU01@M@Z DD imagerel $LN3
	DD	imagerel $LN3+78
	DD	imagerel $unwind$??$?ZM@?$tvec4@M$0A@@glm@@QEAAAEAU01@M@Z
pdata	ENDS
;	COMDAT pdata
pdata	SEGMENT
$pdata$??$?GM$0A@@glm@@YA?AU?$tvec4@M$0A@@0@MAEBU10@@Z DD imagerel $LN3
	DD	imagerel $LN3+78
	DD	imagerel $unwind$??$?GM$0A@@glm@@YA?AU?$tvec4@M$0A@@0@MAEBU10@@Z
pdata	ENDS
;	COMDAT pdata
pdata	SEGMENT
$pdata$??$?KM$0A@@glm@@YA?AU?$tvec4@M$0A@@0@AEBU10@M@Z DD imagerel $LN3
	DD	imagerel $LN3+85
	DD	imagerel $unwind$??$?KM$0A@@glm@@YA?AU?$tvec4@M$0A@@0@AEBU10@M@Z
pdata	ENDS
;	COMDAT pdata
pdata	SEGMENT
$pdata$??$trunc@M$0A@Utvec4@glm@@@glm@@YA?AU?$tvec4@M$0A@@0@AEBU10@@Z DD imagerel $LN3
	DD	imagerel $LN3+41
	DD	imagerel $unwind$??$trunc@M$0A@Utvec4@glm@@@glm@@YA?AU?$tvec4@M$0A@@0@AEBU10@@Z
pdata	ENDS
;	COMDAT pdata
pdata	SEGMENT
$pdata$??$?DM$0A@@glm@@YA?AU?$tvec4@M$0A@@0@MAEBU10@@Z DD imagerel $LN3
	DD	imagerel $LN3+85
	DD	imagerel $unwind$??$?DM$0A@@glm@@YA?AU?$tvec4@M$0A@@0@MAEBU10@@Z
pdata	ENDS
;	COMDAT pdata
pdata	SEGMENT
$pdata$?call@?$compute_abs_vector@M$0A@Utvec4@glm@@$0A@@detail@glm@@SA?AU?$tvec4@M$0A@@3@AEBU43@@Z DD imagerel $LN3
	DD	imagerel $LN3+48
	DD	imagerel $unwind$?call@?$compute_abs_vector@M$0A@Utvec4@glm@@$0A@@detail@glm@@SA?AU?$tvec4@M$0A@@3@AEBU43@@Z
pdata	ENDS
;	COMDAT pdata
pdata	SEGMENT
$pdata$?call@?$compute_mix_vector@M_N$0A@Utvec4@glm@@$0A@@detail@glm@@SA?AU?$tvec4@M$0A@@3@AEBU43@0AEBU?$tvec4@_N$0A@@3@@Z DD imagerel $LN8
	DD	imagerel $LN8+247
	DD	imagerel $unwind$?call@?$compute_mix_vector@M_N$0A@Utvec4@glm@@$0A@@detail@glm@@SA?AU?$tvec4@M$0A@@3@AEBU43@0AEBU?$tvec4@_N$0A@@3@@Z
pdata	ENDS
;	COMDAT pdata
pdata	SEGMENT
$pdata$??$?ZM@?$tvec4@M$0A@@glm@@QEAAAEAU01@AEBU01@@Z DD imagerel $LN3
	DD	imagerel $LN3+83
	DD	imagerel $unwind$??$?ZM@?$tvec4@M$0A@@glm@@QEAAAEAU01@AEBU01@@Z
pdata	ENDS
;	COMDAT pdata
pdata	SEGMENT
$pdata$??$?XM@?$tvec4@M$0A@@glm@@QEAAAEAU01@AEBU01@@Z DD imagerel $LN3
	DD	imagerel $LN3+83
	DD	imagerel $unwind$??$?XM@?$tvec4@M$0A@@glm@@QEAAAEAU01@AEBU01@@Z
pdata	ENDS
;	COMDAT pdata
pdata	SEGMENT
$pdata$??$factorial@M@glm@@YAMAEBM@Z DD imagerel $LN6
	DD	imagerel $LN6+108
	DD	imagerel $unwind$??$factorial@M@glm@@YAMAEBM@Z
pdata	ENDS
;	COMDAT pdata
pdata	SEGMENT
$pdata$?call@?$compute_fmod@M$0A@Utvec1@glm@@$00@detail@glm@@SA?AU?$tvec1@M$0A@@3@AEBU43@0@Z DD imagerel $LN3
	DD	imagerel $LN3+58
	DD	imagerel $unwind$?call@?$compute_fmod@M$0A@Utvec1@glm@@$00@detail@glm@@SA?AU?$tvec1@M$0A@@3@AEBU43@0@Z
pdata	ENDS
;	COMDAT pdata
pdata	SEGMENT
$pdata$?call@?$compute_abs_vector@M$0A@Utvec1@glm@@$0A@@detail@glm@@SA?AU?$tvec1@M$0A@@3@AEBU43@@Z DD imagerel $LN3
	DD	imagerel $LN3+48
	DD	imagerel $unwind$?call@?$compute_abs_vector@M$0A@Utvec1@glm@@$0A@@detail@glm@@SA?AU?$tvec1@M$0A@@3@AEBU43@@Z
pdata	ENDS
;	COMDAT pdata
pdata	SEGMENT
$pdata$?call@?$compute_mix_vector@M_N$0A@Utvec1@glm@@$0A@@detail@glm@@SA?AU?$tvec1@M$0A@@3@AEBU43@0AEBU?$tvec1@_N$0A@@3@@Z DD imagerel $LN8
	DD	imagerel $LN8+230
	DD	imagerel $unwind$?call@?$compute_mix_vector@M_N$0A@Utvec1@glm@@$0A@@detail@glm@@SA?AU?$tvec1@M$0A@@3@AEBU43@0AEBU?$tvec1@_N$0A@@3@@Z
pdata	ENDS
;	COMDAT pdata
pdata	SEGMENT
$pdata$??$?KM$0A@@glm@@YA?AU?$tvec1@M$0A@@0@AEBU10@M@Z DD imagerel $LN3
	DD	imagerel $LN3+60
	DD	imagerel $unwind$??$?KM$0A@@glm@@YA?AU?$tvec1@M$0A@@0@AEBU10@M@Z
pdata	ENDS
;	COMDAT pdata
pdata	SEGMENT
$pdata$??$?GM$0A@@glm@@YA?AU?$tvec1@M$0A@@0@MAEBU10@@Z DD imagerel $LN3
	DD	imagerel $LN3+60
	DD	imagerel $unwind$??$?GM$0A@@glm@@YA?AU?$tvec1@M$0A@@0@MAEBU10@@Z
pdata	ENDS
;	COMDAT pdata
pdata	SEGMENT
$pdata$??$?HM$0A@@glm@@YA?AU?$tvec1@M$0A@@0@AEBU10@0@Z DD imagerel $LN3
	DD	imagerel $LN3+62
	DD	imagerel $unwind$??$?HM$0A@@glm@@YA?AU?$tvec1@M$0A@@0@AEBU10@0@Z
pdata	ENDS
;	COMDAT pdata
pdata	SEGMENT
$pdata$??$?DM$0A@@glm@@YA?AU?$tvec1@M$0A@@0@AEBU10@M@Z DD imagerel $LN3
	DD	imagerel $LN3+60
	DD	imagerel $unwind$??$?DM$0A@@glm@@YA?AU?$tvec1@M$0A@@0@AEBU10@M@Z
pdata	ENDS
;	COMDAT pdata
pdata	SEGMENT
$pdata$??$_Uninitialized_move@PEAU?$tvec4@M$0A@@glm@@V?$allocator@U?$tvec4@M$0A@@glm@@@std@@@std@@YAPEAU?$tvec4@M$0A@@glm@@QEAU12@0PEAU12@AEAV?$allocator@U?$tvec4@M$0A@@glm@@@0@@Z DD imagerel $LN7
	DD	imagerel $LN7+284
	DD	imagerel $unwind$??$_Uninitialized_move@PEAU?$tvec4@M$0A@@glm@@V?$allocator@U?$tvec4@M$0A@@glm@@@std@@@std@@YAPEAU?$tvec4@M$0A@@glm@@QEAU12@0PEAU12@AEAV?$allocator@U?$tvec4@M$0A@@glm@@@0@@Z
pdata	ENDS
;	COMDAT pdata
pdata	SEGMENT
$pdata$?dtor$0@?0???$_Uninitialized_move@PEAU?$tvec4@M$0A@@glm@@V?$allocator@U?$tvec4@M$0A@@glm@@@std@@@std@@YAPEAU?$tvec4@M$0A@@glm@@QEAU12@0PEAU12@AEAV?$allocator@U?$tvec4@M$0A@@glm@@@0@@Z@4HA DD imagerel ?dtor$0@?0???$_Uninitialized_move@PEAU?$tvec4@M$0A@@glm@@V?$allocator@U?$tvec4@M$0A@@glm@@@std@@@std@@YAPEAU?$tvec4@M$0A@@glm@@QEAU12@0PEAU12@AEAV?$allocator@U?$tvec4@M$0A@@glm@@@0@@Z@4HA
	DD	imagerel ?dtor$0@?0???$_Uninitialized_move@PEAU?$tvec4@M$0A@@glm@@V?$allocator@U?$tvec4@M$0A@@glm@@@std@@@std@@YAPEAU?$tvec4@M$0A@@glm@@QEAU12@0PEAU12@AEAV?$allocator@U?$tvec4@M$0A@@glm@@@0@@Z@4HA+35
	DD	imagerel $unwind$?dtor$0@?0???$_Uninitialized_move@PEAU?$tvec4@M$0A@@glm@@V?$allocator@U?$tvec4@M$0A@@glm@@@std@@@std@@YAPEAU?$tvec4@M$0A@@glm@@QEAU12@0PEAU12@AEAV?$allocator@U?$tvec4@M$0A@@glm@@@0@@Z@4HA
pdata	ENDS
;	COMDAT pdata
pdata	SEGMENT
$pdata$??0?$_Uninitialized_backout_al@V?$allocator@U?$tvec4@M$0A@@glm@@@std@@@std@@QEAA@PEAU?$tvec4@M$0A@@glm@@AEAV?$allocator@U?$tvec4@M$0A@@glm@@@1@@Z DD imagerel $LN3
	DD	imagerel $LN3+64
	DD	imagerel $unwind$??0?$_Uninitialized_backout_al@V?$allocator@U?$tvec4@M$0A@@glm@@@std@@@std@@QEAA@PEAU?$tvec4@M$0A@@glm@@AEAV?$allocator@U?$tvec4@M$0A@@glm@@@1@@Z
pdata	ENDS
;	COMDAT pdata
pdata	SEGMENT
$pdata$??1?$_Uninitialized_backout_al@V?$allocator@U?$tvec4@M$0A@@glm@@@std@@@std@@QEAA@XZ DD imagerel $LN3
	DD	imagerel $LN3+47
	DD	imagerel $unwind$??1?$_Uninitialized_backout_al@V?$allocator@U?$tvec4@M$0A@@glm@@@std@@@std@@QEAA@XZ
pdata	ENDS
;	COMDAT pdata
pdata	SEGMENT
$pdata$?_Release@?$_Uninitialized_backout_al@V?$allocator@U?$tvec4@M$0A@@glm@@@std@@@std@@QEAAPEAU?$tvec4@M$0A@@glm@@XZ DD imagerel $LN3
	DD	imagerel $LN3+34
	DD	imagerel $unwind$?_Release@?$_Uninitialized_backout_al@V?$allocator@U?$tvec4@M$0A@@glm@@@std@@@std@@QEAAPEAU?$tvec4@M$0A@@glm@@XZ
pdata	ENDS
;	COMDAT pdata
pdata	SEGMENT
$pdata$??$_Emplace_back@$$V@?$_Uninitialized_backout_al@V?$allocator@U?$tvec4@M$0A@@glm@@@std@@@std@@QEAAXXZ DD imagerel $LN3
	DD	imagerel $LN3+69
	DD	imagerel $unwind$??$_Emplace_back@$$V@?$_Uninitialized_backout_al@V?$allocator@U?$tvec4@M$0A@@glm@@@std@@@std@@QEAAXXZ
pdata	ENDS
;	COMDAT pdata
pdata	SEGMENT
$pdata$?deallocate@?$_Default_allocator_traits@V?$allocator@U_Container_proxy@std@@@std@@@std@@SAXAEAV?$allocator@U_Container_proxy@std@@@2@QEAU_Container_proxy@2@_K@Z DD imagerel $LN3
	DD	imagerel $LN3+45
	DD	imagerel $unwind$?deallocate@?$_Default_allocator_traits@V?$allocator@U_Container_proxy@std@@@std@@@std@@SAXAEAV?$allocator@U_Container_proxy@std@@@2@QEAU_Container_proxy@2@_K@Z
pdata	ENDS
;	COMDAT pdata
pdata	SEGMENT
$pdata$??$addressof@U_Container_proxy@std@@@std@@YAPEAU_Container_proxy@0@AEAU10@@Z DD imagerel $LN3
	DD	imagerel $LN3+13
	DD	imagerel $unwind$??$addressof@U_Container_proxy@std@@@std@@YAPEAU_Container_proxy@0@AEAU10@@Z
pdata	ENDS
;	COMDAT pdata
pdata	SEGMENT
$pdata$??$_Voidify_iter@PEAU_Container_proxy@std@@@std@@YAPEAXPEAU_Container_proxy@0@@Z DD imagerel $LN3
	DD	imagerel $LN3+13
	DD	imagerel $unwind$??$_Voidify_iter@PEAU_Container_proxy@std@@@std@@YAPEAXPEAU_Container_proxy@0@@Z
pdata	ENDS
;	COMDAT pdata
pdata	SEGMENT
$pdata$??$forward@PEAU_Container_base12@std@@@std@@YA$$QEAPEAU_Container_base12@0@AEAPEAU10@@Z DD imagerel $LN3
	DD	imagerel $LN3+13
	DD	imagerel $unwind$??$forward@PEAU_Container_base12@std@@@std@@YA$$QEAPEAU_Container_base12@0@AEAPEAU10@@Z
pdata	ENDS
;	COMDAT pdata
pdata	SEGMENT
$pdata$??$_Allocate_manually_vector_aligned@U_Default_allocate_traits@std@@@std@@YAPEAX_K@Z DD imagerel $LN13
	DD	imagerel $LN13+259
	DD	imagerel $unwind$??$_Allocate_manually_vector_aligned@U_Default_allocate_traits@std@@@std@@YAPEAX_K@Z
pdata	ENDS
;	COMDAT pdata
pdata	SEGMENT
$pdata$?call@?$functor2@M$0A@Utvec4@glm@@@detail@glm@@SA?AU?$tvec4@M$0A@@3@P6AMMM@ZAEBU43@1@Z DD imagerel $LN3
	DD	imagerel $LN3+191
	DD	imagerel $unwind$?call@?$functor2@M$0A@Utvec4@glm@@@detail@glm@@SA?AU?$tvec4@M$0A@@3@P6AMMM@ZAEBU43@1@Z
pdata	ENDS
;	COMDAT pdata
pdata	SEGMENT
$pdata$?call@?$functor1@MM$0A@Utvec1@glm@@@detail@glm@@SA?AU?$tvec1@M$0A@@3@P6AMM@ZAEBU43@@Z DD imagerel $LN3
	DD	imagerel $LN3+57
	DD	imagerel $unwind$?call@?$functor1@MM$0A@Utvec1@glm@@@detail@glm@@SA?AU?$tvec1@M$0A@@3@P6AMM@ZAEBU43@@Z
pdata	ENDS
;	COMDAT pdata
pdata	SEGMENT
$pdata$?call@?$functor2@M$0A@Utvec1@glm@@@detail@glm@@SA?AU?$tvec1@M$0A@@3@P6AMMM@ZAEBU43@1@Z DD imagerel $LN3
	DD	imagerel $LN3+71
	DD	imagerel $unwind$?call@?$functor2@M$0A@Utvec1@glm@@@detail@glm@@SA?AU?$tvec1@M$0A@@3@P6AMMM@ZAEBU43@1@Z
pdata	ENDS
;	COMDAT pdata
pdata	SEGMENT
$pdata$??$min@_K@std@@YAAEB_KAEB_K0@Z DD imagerel $LN5
	DD	imagerel $LN5+74
	DD	imagerel $unwind$??$min@_K@std@@YAAEB_KAEB_K0@Z
pdata	ENDS
;	COMDAT pdata
pdata	SEGMENT
$pdata$??$mod@M$0A@Utvec1@glm@@@glm@@YA?AU?$tvec1@M$0A@@0@AEBU10@M@Z DD imagerel $LN3
	DD	imagerel $LN3+66
	DD	imagerel $unwind$??$mod@M$0A@Utvec1@glm@@@glm@@YA?AU?$tvec1@M$0A@@0@AEBU10@M@Z
pdata	ENDS
;	COMDAT pdata
pdata	SEGMENT
$pdata$?call@?$compute_vec4_sub@M$0A@$0A@@detail@glm@@SA?AU?$tvec4@M$0A@@3@AEBU43@0@Z DD imagerel $LN3
	DD	imagerel $LN3+143
	DD	imagerel $unwind$?call@?$compute_vec4_sub@M$0A@$0A@@detail@glm@@SA?AU?$tvec4@M$0A@@3@AEBU43@0@Z
pdata	ENDS
;	COMDAT pdata
pdata	SEGMENT
$pdata$??$?_0M@?$tvec4@M$0A@@glm@@QEAAAEAU01@M@Z DD imagerel $LN3
	DD	imagerel $LN3+78
	DD	imagerel $unwind$??$?_0M@?$tvec4@M$0A@@glm@@QEAAAEAU01@M@Z
pdata	ENDS
;	COMDAT pdata
pdata	SEGMENT
$pdata$?call@?$compute_trunc@M$0A@Utvec4@glm@@$0A@@detail@glm@@SA?AU?$tvec4@M$0A@@3@AEBU43@@Z DD imagerel $LN3
	DD	imagerel $LN3+48
	DD	imagerel $unwind$?call@?$compute_trunc@M$0A@Utvec4@glm@@$0A@@detail@glm@@SA?AU?$tvec4@M$0A@@3@AEBU43@@Z
pdata	ENDS
;	COMDAT pdata
pdata	SEGMENT
$pdata$??$_Get_unwrapped@AEBQEAU?$tvec4@M$0A@@glm@@@std@@YA?A_TAEBQEAU?$tvec4@M$0A@@glm@@@Z DD imagerel $LN3
	DD	imagerel $LN3+16
	DD	imagerel $unwind$??$_Get_unwrapped@AEBQEAU?$tvec4@M$0A@@glm@@@std@@YA?A_TAEBQEAU?$tvec4@M$0A@@glm@@@Z
pdata	ENDS
;	COMDAT pdata
pdata	SEGMENT
$pdata$??$move@AEAU?$tvec4@M$0A@@glm@@@std@@YA$$QEAU?$tvec4@M$0A@@glm@@AEAU12@@Z DD imagerel $LN3
	DD	imagerel $LN3+13
	DD	imagerel $unwind$??$move@AEAU?$tvec4@M$0A@@glm@@@std@@YA$$QEAU?$tvec4@M$0A@@glm@@AEAU12@@Z
pdata	ENDS
;	COMDAT pdata
pdata	SEGMENT
$pdata$??$_Unfancy@U?$tvec4@M$0A@@glm@@@std@@YAPEAU?$tvec4@M$0A@@glm@@PEAU12@@Z DD imagerel $LN3
	DD	imagerel $LN3+13
	DD	imagerel $unwind$??$_Unfancy@U?$tvec4@M$0A@@glm@@@std@@YAPEAU?$tvec4@M$0A@@glm@@PEAU12@@Z
pdata	ENDS
;	COMDAT pdata
pdata	SEGMENT
$pdata$??$_Copy_memmove@PEAU?$tvec4@M$0A@@glm@@PEAU12@@std@@YAPEAU?$tvec4@M$0A@@glm@@PEAU12@00@Z DD imagerel $LN3
	DD	imagerel $LN3+161
	DD	imagerel $unwind$??$_Copy_memmove@PEAU?$tvec4@M$0A@@glm@@PEAU12@@std@@YAPEAU?$tvec4@M$0A@@glm@@PEAU12@00@Z
pdata	ENDS
;	COMDAT pdata
pdata	SEGMENT
$pdata$??$_Emplace_back@U?$tvec4@M$0A@@glm@@@?$_Uninitialized_backout_al@V?$allocator@U?$tvec4@M$0A@@glm@@@std@@@std@@QEAAX$$QEAU?$tvec4@M$0A@@glm@@@Z DD imagerel $LN3
	DD	imagerel $LN3+97
	DD	imagerel $unwind$??$_Emplace_back@U?$tvec4@M$0A@@glm@@@?$_Uninitialized_backout_al@V?$allocator@U?$tvec4@M$0A@@glm@@@std@@@std@@QEAAX$$QEAU?$tvec4@M$0A@@glm@@@Z
pdata	ENDS
;	COMDAT pdata
pdata	SEGMENT
$pdata$??$construct@U?$tvec4@M$0A@@glm@@$$V@?$_Default_allocator_traits@V?$allocator@U?$tvec4@M$0A@@glm@@@std@@@std@@SAXAEAV?$allocator@U?$tvec4@M$0A@@glm@@@1@QEAU?$tvec4@M$0A@@glm@@@Z DD imagerel $LN3
	DD	imagerel $LN3+59
	DD	imagerel $unwind$??$construct@U?$tvec4@M$0A@@glm@@$$V@?$_Default_allocator_traits@V?$allocator@U?$tvec4@M$0A@@glm@@@std@@@std@@SAXAEAV?$allocator@U?$tvec4@M$0A@@glm@@@1@QEAU?$tvec4@M$0A@@glm@@@Z
pdata	ENDS
;	COMDAT pdata
pdata	SEGMENT
$pdata$?call@?$compute_mod@M$0A@Utvec1@glm@@$0A@@detail@glm@@SA?AU?$tvec1@M$0A@@3@AEBU43@0@Z DD imagerel $LN3
	DD	imagerel $LN3+100
	DD	imagerel $unwind$?call@?$compute_mod@M$0A@Utvec1@glm@@$0A@@detail@glm@@SA?AU?$tvec1@M$0A@@3@AEBU43@0@Z
pdata	ENDS
;	COMDAT pdata
pdata	SEGMENT
$pdata$?call@?$compute_vec4_div@M$0A@$0A@@detail@glm@@SA?AU?$tvec4@M$0A@@3@AEBU43@0@Z DD imagerel $LN3
	DD	imagerel $LN3+143
	DD	imagerel $unwind$?call@?$compute_vec4_div@M$0A@$0A@@detail@glm@@SA?AU?$tvec4@M$0A@@3@AEBU43@0@Z
pdata	ENDS
;	COMDAT pdata
pdata	SEGMENT
$pdata$??$_To_address@PEAU?$tvec4@M$0A@@glm@@@std@@YA?A_PAEBQEAU?$tvec4@M$0A@@glm@@@Z DD imagerel $LN3
	DD	imagerel $LN3+16
	DD	imagerel $unwind$??$_To_address@PEAU?$tvec4@M$0A@@glm@@@std@@YA?A_PAEBQEAU?$tvec4@M$0A@@glm@@@Z
pdata	ENDS
;	COMDAT pdata
pdata	SEGMENT
$pdata$??$forward@U?$tvec4@M$0A@@glm@@@std@@YA$$QEAU?$tvec4@M$0A@@glm@@AEAU12@@Z DD imagerel $LN3
	DD	imagerel $LN3+13
	DD	imagerel $unwind$??$forward@U?$tvec4@M$0A@@glm@@@std@@YA$$QEAU?$tvec4@M$0A@@glm@@AEAU12@@Z
pdata	ENDS
;	COMDAT pdata
pdata	SEGMENT
$pdata$??$construct@U?$tvec4@M$0A@@glm@@U12@@?$_Default_allocator_traits@V?$allocator@U?$tvec4@M$0A@@glm@@@std@@@std@@SAXAEAV?$allocator@U?$tvec4@M$0A@@glm@@@1@QEAU?$tvec4@M$0A@@glm@@$$QEAU34@@Z DD imagerel $LN3
	DD	imagerel $LN3+81
	DD	imagerel $unwind$??$construct@U?$tvec4@M$0A@@glm@@U12@@?$_Default_allocator_traits@V?$allocator@U?$tvec4@M$0A@@glm@@@std@@@std@@SAXAEAV?$allocator@U?$tvec4@M$0A@@glm@@@1@QEAU?$tvec4@M$0A@@glm@@$$QEAU34@@Z
pdata	ENDS
;	COMDAT pdata
pdata	SEGMENT
$pdata$??$_Voidify_iter@PEAU?$tvec4@M$0A@@glm@@@std@@YAPEAXPEAU?$tvec4@M$0A@@glm@@@Z DD imagerel $LN3
	DD	imagerel $LN3+13
	DD	imagerel $unwind$??$_Voidify_iter@PEAU?$tvec4@M$0A@@glm@@@std@@YAPEAXPEAU?$tvec4@M$0A@@glm@@@Z
pdata	ENDS
;	COMDAT pdata
pdata	SEGMENT
$pdata$??$?KM$0A@@glm@@YA?AU?$tvec1@M$0A@@0@AEBU10@0@Z DD imagerel $LN3
	DD	imagerel $LN3+62
	DD	imagerel $unwind$??$?KM$0A@@glm@@YA?AU?$tvec1@M$0A@@0@AEBU10@0@Z
pdata	ENDS
;	COMDAT pdata
pdata	SEGMENT
$pdata$??$floor@M$0A@Utvec1@glm@@@glm@@YA?AU?$tvec1@M$0A@@0@AEBU10@@Z DD imagerel $LN3
	DD	imagerel $LN3+41
	DD	imagerel $unwind$??$floor@M$0A@Utvec1@glm@@@glm@@YA?AU?$tvec1@M$0A@@0@AEBU10@@Z
pdata	ENDS
;	COMDAT pdata
pdata	SEGMENT
$pdata$?call@?$compute_floor@M$0A@Utvec1@glm@@$0A@@detail@glm@@SA?AU?$tvec1@M$0A@@3@AEBU43@@Z DD imagerel $LN3
	DD	imagerel $LN3+48
	DD	imagerel $unwind$?call@?$compute_floor@M$0A@Utvec1@glm@@$0A@@detail@glm@@SA?AU?$tvec1@M$0A@@3@AEBU43@@Z
pdata	ENDS
CRT$XCU	SEGMENT
?AngleShift$initializer$@taylorCos@@3P6AXXZEA DQ FLAT:??__EAngleShift@taylorCos@@YAXXZ ; taylorCos::AngleShift$initializer$
CRT$XCU	ENDS
;	COMDAT __xmm@80000000800000008000000080000000
CONST	SEGMENT
__xmm@80000000800000008000000080000000 DB 00H, 00H, 00H, 080H, 00H, 00H, 00H
	DB	080H, 00H, 00H, 00H, 080H, 00H, 00H, 00H, 080H
CONST	ENDS
;	COMDAT __real@c0490fdb
CONST	SEGMENT
__real@c0490fdb DD 0c0490fdbr			; -3.14159
CONST	ENDS
;	COMDAT __real@bf800000
CONST	SEGMENT
__real@bf800000 DD 0bf800000r			; -1
CONST	ENDS
;	COMDAT __real@befff486
CONST	SEGMENT
__real@befff486 DD 0befff486r			; -0.499912
CONST	ENDS
;	COMDAT __real@baa69eb6
CONST	SEGMENT
__real@baa69eb6 DD 0baa69eb6r			; -0.00127121
CONST	ENDS
;	COMDAT __real@7f7fffff
CONST	SEGMENT
__real@7f7fffff DD 07f7fffffr			; 3.40282e+38
CONST	ENDS
;	COMDAT __real@43b40000
CONST	SEGMENT
__real@43b40000 DD 043b40000r			; 360
CONST	ENDS
;	COMDAT __real@43340000
CONST	SEGMENT
__real@43340000 DD 043340000r			; 180
CONST	ENDS
;	COMDAT __real@41000000
CONST	SEGMENT
__real@41000000 DD 041000000r			; 8
CONST	ENDS
;	COMDAT __real@40c90fdb
CONST	SEGMENT
__real@40c90fdb DD 040c90fdbr			; 6.28319
CONST	ENDS
;	COMDAT __real@40c00000
CONST	SEGMENT
__real@40c00000 DD 040c00000r			; 6
CONST	ENDS
;	COMDAT __real@40800000
CONST	SEGMENT
__real@40800000 DD 040800000r			; 4
CONST	ENDS
;	COMDAT __real@40490fdb
CONST	SEGMENT
__real@40490fdb DD 040490fdbr			; 3.14159
CONST	ENDS
;	COMDAT __real@40400000
CONST	SEGMENT
__real@40400000 DD 040400000r			; 3
CONST	ENDS
;	COMDAT __real@40000000
CONST	SEGMENT
__real@40000000 DD 040000000r			; 2
CONST	ENDS
;	COMDAT __real@3fc90fdb
CONST	SEGMENT
__real@3fc90fdb DD 03fc90fdbr			; 1.5708
CONST	ENDS
;	COMDAT __real@3fc00000
CONST	SEGMENT
__real@3fc00000 DD 03fc00000r			; 1.5
CONST	ENDS
;	COMDAT __real@3f800000
CONST	SEGMENT
__real@3f800000 DD 03f800000r			; 1
CONST	ENDS
;	COMDAT __real@3f7fff90
CONST	SEGMENT
__real@3f7fff90 DD 03f7fff90r			; 0.999993
CONST	ENDS
;	COMDAT __real@3f000000
CONST	SEGMENT
__real@3f000000 DD 03f000000r			; 0.5
CONST	ENDS
;	COMDAT __real@3eaaaaab
CONST	SEGMENT
__real@3eaaaaab DD 03eaaaaabr			; 0.333333
CONST	ENDS
;	COMDAT __real@3e4ccccd
CONST	SEGMENT
__real@3e4ccccd DD 03e4ccccdr			; 0.2
CONST	ENDS
;	COMDAT __real@3e2aaaab
CONST	SEGMENT
__real@3e2aaaab DD 03e2aaaabr			; 0.166667
CONST	ENDS
;	COMDAT __real@3e124925
CONST	SEGMENT
__real@3e124925 DD 03e124925r			; 0.142857
CONST	ENDS
;	COMDAT __real@3e088889
CONST	SEGMENT
__real@3e088889 DD 03e088889r			; 0.133333
CONST	ENDS
;	COMDAT __real@3de38e39
CONST	SEGMENT
__real@3de38e39 DD 03de38e39r			; 0.111111
CONST	ENDS
;	COMDAT __real@3dcccccd
CONST	SEGMENT
__real@3dcccccd DD 03dcccccdr			; 0.1
CONST	ENDS
;	COMDAT __real@3dba2e8c
CONST	SEGMENT
__real@3dba2e8c DD 03dba2e8cr			; 0.0909091
CONST	ENDS
;	COMDAT __real@3d99999a
CONST	SEGMENT
__real@3d99999a DD 03d99999ar			; 0.075
CONST	ENDS
;	COMDAT __real@3d5d0dd1
CONST	SEGMENT
__real@3d5d0dd1 DD 03d5d0dd1r			; 0.0539683
CONST	ENDS
;	COMDAT __real@3d36db6e
CONST	SEGMENT
__real@3d36db6e DD 03d36db6er			; 0.0446429
CONST	ENDS
;	COMDAT __real@3d2aaaab
CONST	SEGMENT
__real@3d2aaaab DD 03d2aaaabr			; 0.0416667
CONST	ENDS
;	COMDAT __real@3d29ef0e
CONST	SEGMENT
__real@3d29ef0e DD 03d29ef0er			; 0.0414877
CONST	ENDS
;	COMDAT __real@3cf8e38e
CONST	SEGMENT
__real@3cf8e38e DD 03cf8e38er			; 0.0303819
CONST	ENDS
;	COMDAT __real@3c8efa35
CONST	SEGMENT
__real@3c8efa35 DD 03c8efa35r			; 0.0174533
CONST	ENDS
;	COMDAT __real@3ab60b61
CONST	SEGMENT
__real@3ab60b61 DD 03ab60b61r			; 0.00138889
CONST	ENDS
;	COMDAT __real@37d00d01
CONST	SEGMENT
__real@37d00d01 DD 037d00d01r			; 2.48016e-05
CONST	ENDS
;	COMDAT __real@00000000
CONST	SEGMENT
__real@00000000 DD 000000000r			; 0
CONST	ENDS
;	COMDAT rtc$TMZ
rtc$TMZ	SEGMENT
_RTC_Shutdown.rtc$TMZ DQ FLAT:_RTC_Shutdown
rtc$TMZ	ENDS
;	COMDAT rtc$IMZ
rtc$IMZ	SEGMENT
_RTC_InitBase.rtc$IMZ DQ FLAT:_RTC_InitBase
rtc$IMZ	ENDS
;	COMDAT ??_R1A@?0A@EA@bad_array_new_length@std@@8
rdata$r	SEGMENT
??_R1A@?0A@EA@bad_array_new_length@std@@8 DD imagerel ??_R0?AVbad_array_new_length@std@@@8 ; std::bad_array_new_length::`RTTI Base Class Descriptor at (0,-1,0,64)'
	DD	02H
	DD	00H
	DD	0ffffffffH
	DD	00H
	DD	040H
	DD	imagerel ??_R3bad_array_new_length@std@@8
rdata$r	ENDS
;	COMDAT ??_R2bad_array_new_length@std@@8
rdata$r	SEGMENT
??_R2bad_array_new_length@std@@8 DD imagerel ??_R1A@?0A@EA@bad_array_new_length@std@@8 ; std::bad_array_new_length::`RTTI Base Class Array'
	DD	imagerel ??_R1A@?0A@EA@bad_alloc@std@@8
	DD	imagerel ??_R1A@?0A@EA@exception@std@@8
	ORG $+3
rdata$r	ENDS
;	COMDAT ??_R3bad_array_new_length@std@@8
rdata$r	SEGMENT
??_R3bad_array_new_length@std@@8 DD 00H			; std::bad_array_new_length::`RTTI Class Hierarchy Descriptor'
	DD	00H
	DD	03H
	DD	imagerel ??_R2bad_array_new_length@std@@8
rdata$r	ENDS
;	COMDAT ??_R4bad_array_new_length@std@@6B@
rdata$r	SEGMENT
??_R4bad_array_new_length@std@@6B@ DD 01H		; std::bad_array_new_length::`RTTI Complete Object Locator'
	DD	00H
	DD	00H
	DD	imagerel ??_R0?AVbad_array_new_length@std@@@8
	DD	imagerel ??_R3bad_array_new_length@std@@8
	DD	imagerel ??_R4bad_array_new_length@std@@6B@
rdata$r	ENDS
;	COMDAT ??_R1A@?0A@EA@bad_alloc@std@@8
rdata$r	SEGMENT
??_R1A@?0A@EA@bad_alloc@std@@8 DD imagerel ??_R0?AVbad_alloc@std@@@8 ; std::bad_alloc::`RTTI Base Class Descriptor at (0,-1,0,64)'
	DD	01H
	DD	00H
	DD	0ffffffffH
	DD	00H
	DD	040H
	DD	imagerel ??_R3bad_alloc@std@@8
rdata$r	ENDS
;	COMDAT ??_R2bad_alloc@std@@8
rdata$r	SEGMENT
??_R2bad_alloc@std@@8 DD imagerel ??_R1A@?0A@EA@bad_alloc@std@@8 ; std::bad_alloc::`RTTI Base Class Array'
	DD	imagerel ??_R1A@?0A@EA@exception@std@@8
	ORG $+3
rdata$r	ENDS
;	COMDAT ??_R3bad_alloc@std@@8
rdata$r	SEGMENT
??_R3bad_alloc@std@@8 DD 00H				; std::bad_alloc::`RTTI Class Hierarchy Descriptor'
	DD	00H
	DD	02H
	DD	imagerel ??_R2bad_alloc@std@@8
rdata$r	ENDS
;	COMDAT ??_R4bad_alloc@std@@6B@
rdata$r	SEGMENT
??_R4bad_alloc@std@@6B@ DD 01H				; std::bad_alloc::`RTTI Complete Object Locator'
	DD	00H
	DD	00H
	DD	imagerel ??_R0?AVbad_alloc@std@@@8
	DD	imagerel ??_R3bad_alloc@std@@8
	DD	imagerel ??_R4bad_alloc@std@@6B@
rdata$r	ENDS
;	COMDAT ??_R1A@?0A@EA@exception@std@@8
rdata$r	SEGMENT
??_R1A@?0A@EA@exception@std@@8 DD imagerel ??_R0?AVexception@std@@@8 ; std::exception::`RTTI Base Class Descriptor at (0,-1,0,64)'
	DD	00H
	DD	00H
	DD	0ffffffffH
	DD	00H
	DD	040H
	DD	imagerel ??_R3exception@std@@8
rdata$r	ENDS
;	COMDAT ??_R2exception@std@@8
rdata$r	SEGMENT
??_R2exception@std@@8 DD imagerel ??_R1A@?0A@EA@exception@std@@8 ; std::exception::`RTTI Base Class Array'
	ORG $+3
rdata$r	ENDS
;	COMDAT ??_R3exception@std@@8
rdata$r	SEGMENT
??_R3exception@std@@8 DD 00H				; std::exception::`RTTI Class Hierarchy Descriptor'
	DD	00H
	DD	01H
	DD	imagerel ??_R2exception@std@@8
rdata$r	ENDS
;	COMDAT ??_R4exception@std@@6B@
rdata$r	SEGMENT
??_R4exception@std@@6B@ DD 01H				; std::exception::`RTTI Complete Object Locator'
	DD	00H
	DD	00H
	DD	imagerel ??_R0?AVexception@std@@@8
	DD	imagerel ??_R3exception@std@@8
	DD	imagerel ??_R4exception@std@@6B@
rdata$r	ENDS
;	COMDAT ??_C@_1LG@CIKOIEGN@?$AAC?$AA?3?$AA?2?$AAU?$AAs?$AAe?$AAr?$AAs?$AA?2?$AAk?$AAs?$AAa?$AAr?$AAt?$AA?2@
CONST	SEGMENT
??_C@_1LG@CIKOIEGN@?$AAC?$AA?3?$AA?2?$AAU?$AAs?$AAe?$AAr?$AAs?$AA?2?$AAk?$AAs?$AAa?$AAr?$AAt?$AA?2@ DB 'C'
	DB	00H, ':', 00H, '\', 00H, 'U', 00H, 's', 00H, 'e', 00H, 'r', 00H
	DB	's', 00H, '\', 00H, 'k', 00H, 's', 00H, 'a', 00H, 'r', 00H, 't'
	DB	00H, '\', 00H, 'O', 00H, 'n', 00H, 'e', 00H, 'D', 00H, 'r', 00H
	DB	'i', 00H, 'v', 00H, 'e', 00H, '\', 00H, 'D', 00H, 'e', 00H, 's'
	DB	00H, 'k', 00H, 't', 00H, 'o', 00H, 'p', 00H, '\', 00H, 'F', 00H
	DB	'l', 00H, 'a', 00H, 'p', 00H, 'p', 00H, 'y', 00H, 'B', 00H, 'i'
	DB	00H, 'r', 00H, 'd', 00H, '\', 00H, 'l', 00H, 'i', 00H, 'b', 00H
	DB	'r', 00H, 'a', 00H, 'r', 00H, 'i', 00H, 'e', 00H, 's', 00H, '\'
	DB	00H, 'e', 00H, 'x', 00H, 't', 00H, 'e', 00H, 'r', 00H, 'n', 00H
	DB	'a', 00H, 'l', 00H, '\', 00H, 'g', 00H, 'l', 00H, 'm', 00H, '\'
	DB	00H, 'g', 00H, 'l', 00H, 'm', 00H, '\', 00H, 'd', 00H, 'e', 00H
	DB	't', 00H, 'a', 00H, 'i', 00H, 'l', 00H, '\', 00H, 't', 00H, 'y'
	DB	00H, 'p', 00H, 'e', 00H, '_', 00H, 'v', 00H, 'e', 00H, 'c', 00H
	DB	'1', 00H, '.', 00H, 'i', 00H, 'n', 00H, 'l', 00H, 00H, 00H ; `string'
CONST	ENDS
;	COMDAT ??_C@_0BA@FOIKENOD@vector?5too?5long@
CONST	SEGMENT
??_C@_0BA@FOIKENOD@vector?5too?5long@ DB 'vector too long', 00H ; `string'
CONST	ENDS
;	COMDAT ??_C@_1DC@HHLCGOLC@?$AAx?$AA?4?$AAl?$AAe?$AAn?$AAg?$AAt?$AAh?$AA?$CI?$AA?$CJ?$AA?5?$AA?$DN?$AA?$DN?$AA?5?$AAy@
CONST	SEGMENT
??_C@_1DC@HHLCGOLC@?$AAx?$AA?4?$AAl?$AAe?$AAn?$AAg?$AAt?$AAh?$AA?$CI?$AA?$CJ?$AA?5?$AA?$DN?$AA?$DN?$AA?5?$AAy@ DB 'x'
	DB	00H, '.', 00H, 'l', 00H, 'e', 00H, 'n', 00H, 'g', 00H, 't', 00H
	DB	'h', 00H, '(', 00H, ')', 00H, ' ', 00H, '=', 00H, '=', 00H, ' '
	DB	00H, 'y', 00H, '.', 00H, 'l', 00H, 'e', 00H, 'n', 00H, 'g', 00H
	DB	't', 00H, 'h', 00H, '(', 00H, ')', 00H, 00H, 00H ; `string'
CONST	ENDS
;	COMDAT ??_C@_1NA@OPABFNEN@?$AAC?$AA?3?$AA?2?$AAU?$AAs?$AAe?$AAr?$AAs?$AA?2?$AAk?$AAs?$AAa?$AAr?$AAt?$AA?2@
CONST	SEGMENT
??_C@_1NA@OPABFNEN@?$AAC?$AA?3?$AA?2?$AAU?$AAs?$AAe?$AAr?$AAs?$AA?2?$AAk?$AAs?$AAa?$AAr?$AAt?$AA?2@ DB 'C'
	DB	00H, ':', 00H, '\', 00H, 'U', 00H, 's', 00H, 'e', 00H, 'r', 00H
	DB	's', 00H, '\', 00H, 'k', 00H, 's', 00H, 'a', 00H, 'r', 00H, 't'
	DB	00H, '\', 00H, 'O', 00H, 'n', 00H, 'e', 00H, 'D', 00H, 'r', 00H
	DB	'i', 00H, 'v', 00H, 'e', 00H, '\', 00H, 'D', 00H, 'e', 00H, 's'
	DB	00H, 'k', 00H, 't', 00H, 'o', 00H, 'p', 00H, '\', 00H, 'F', 00H
	DB	'l', 00H, 'a', 00H, 'p', 00H, 'p', 00H, 'y', 00H, 'B', 00H, 'i'
	DB	00H, 'r', 00H, 'd', 00H, '\', 00H, 'l', 00H, 'i', 00H, 'b', 00H
	DB	'r', 00H, 'a', 00H, 'r', 00H, 'i', 00H, 'e', 00H, 's', 00H, '\'
	DB	00H, 'e', 00H, 'x', 00H, 't', 00H, 'e', 00H, 'r', 00H, 'n', 00H
	DB	'a', 00H, 'l', 00H, '\', 00H, 'g', 00H, 'l', 00H, 'm', 00H, '\'
	DB	00H, 'g', 00H, 'l', 00H, 'm', 00H, '\', 00H, 'd', 00H, 'e', 00H
	DB	't', 00H, 'a', 00H, 'i', 00H, 'l', 00H, '\', 00H, 'f', 00H, 'u'
	DB	00H, 'n', 00H, 'c', 00H, '_', 00H, 'v', 00H, 'e', 00H, 'c', 00H
	DB	't', 00H, 'o', 00H, 'r', 00H, '_', 00H, 'r', 00H, 'e', 00H, 'l'
	DB	00H, 'a', 00H, 't', 00H, 'i', 00H, 'o', 00H, 'n', 00H, 'a', 00H
	DB	'l', 00H, '.', 00H, 'i', 00H, 'n', 00H, 'l', 00H, 00H, 00H ; `string'
CONST	ENDS
;	COMDAT ??_C@_1LG@LAANPDHN@?$AAC?$AA?3?$AA?2?$AAU?$AAs?$AAe?$AAr?$AAs?$AA?2?$AAk?$AAs?$AAa?$AAr?$AAt?$AA?2@
CONST	SEGMENT
??_C@_1LG@LAANPDHN@?$AAC?$AA?3?$AA?2?$AAU?$AAs?$AAe?$AAr?$AAs?$AA?2?$AAk?$AAs?$AAa?$AAr?$AAt?$AA?2@ DB 'C'
	DB	00H, ':', 00H, '\', 00H, 'U', 00H, 's', 00H, 'e', 00H, 'r', 00H
	DB	's', 00H, '\', 00H, 'k', 00H, 's', 00H, 'a', 00H, 'r', 00H, 't'
	DB	00H, '\', 00H, 'O', 00H, 'n', 00H, 'e', 00H, 'D', 00H, 'r', 00H
	DB	'i', 00H, 'v', 00H, 'e', 00H, '\', 00H, 'D', 00H, 'e', 00H, 's'
	DB	00H, 'k', 00H, 't', 00H, 'o', 00H, 'p', 00H, '\', 00H, 'F', 00H
	DB	'l', 00H, 'a', 00H, 'p', 00H, 'p', 00H, 'y', 00H, 'B', 00H, 'i'
	DB	00H, 'r', 00H, 'd', 00H, '\', 00H, 'l', 00H, 'i', 00H, 'b', 00H
	DB	'r', 00H, 'a', 00H, 'r', 00H, 'i', 00H, 'e', 00H, 's', 00H, '\'
	DB	00H, 'e', 00H, 'x', 00H, 't', 00H, 'e', 00H, 'r', 00H, 'n', 00H
	DB	'a', 00H, 'l', 00H, '\', 00H, 'g', 00H, 'l', 00H, 'm', 00H, '\'
	DB	00H, 'g', 00H, 'l', 00H, 'm', 00H, '\', 00H, 'd', 00H, 'e', 00H
	DB	't', 00H, 'a', 00H, 'i', 00H, 'l', 00H, '\', 00H, 't', 00H, 'y'
	DB	00H, 'p', 00H, 'e', 00H, '_', 00H, 'v', 00H, 'e', 00H, 'c', 00H
	DB	'4', 00H, '.', 00H, 'i', 00H, 'n', 00H, 'l', 00H, 00H, 00H ; `string'
CONST	ENDS
;	COMDAT ??_C@_1DK@BGNCJAPL@?$AAi?$AA?5?$AA?$DO?$AA?$DN?$AA?5?$AA0?$AA?5?$AA?$CG?$AA?$CG?$AA?5?$AAi?$AA?5?$AA?$DM?$AA?5?$AAt@
CONST	SEGMENT
??_C@_1DK@BGNCJAPL@?$AAi?$AA?5?$AA?$DO?$AA?$DN?$AA?5?$AA0?$AA?5?$AA?$CG?$AA?$CG?$AA?5?$AAi?$AA?5?$AA?$DM?$AA?5?$AAt@ DB 'i'
	DB	00H, ' ', 00H, '>', 00H, '=', 00H, ' ', 00H, '0', 00H, ' ', 00H
	DB	'&', 00H, '&', 00H, ' ', 00H, 'i', 00H, ' ', 00H, '<', 00H, ' '
	DB	00H, 't', 00H, 'h', 00H, 'i', 00H, 's', 00H, '-', 00H, '>', 00H
	DB	'l', 00H, 'e', 00H, 'n', 00H, 'g', 00H, 't', 00H, 'h', 00H, '('
	DB	00H, ')', 00H, 00H, 00H			; `string'
CONST	ENDS
;	COMDAT ??_C@_1HA@FACCKGGH@?$AA?$CC?$AAn?$AAu?$AAl?$AAl?$AA?5?$AAp?$AAo?$AAi?$AAn?$AAt?$AAe?$AAr?$AA?5?$AAc@
CONST	SEGMENT
??_C@_1HA@FACCKGGH@?$AA?$CC?$AAn?$AAu?$AAl?$AAl?$AA?5?$AAp?$AAo?$AAi?$AAn?$AAt?$AAe?$AAr?$AA?5?$AAc@ DB '"'
	DB	00H, 'n', 00H, 'u', 00H, 'l', 00H, 'l', 00H, ' ', 00H, 'p', 00H
	DB	'o', 00H, 'i', 00H, 'n', 00H, 't', 00H, 'e', 00H, 'r', 00H, ' '
	DB	00H, 'c', 00H, 'a', 00H, 'n', 00H, 'n', 00H, 'o', 00H, 't', 00H
	DB	' ', 00H, 'p', 00H, 'o', 00H, 'i', 00H, 'n', 00H, 't', 00H, ' '
	DB	00H, 't', 00H, 'o', 00H, ' ', 00H, 'a', 00H, ' ', 00H, 'b', 00H
	DB	'l', 00H, 'o', 00H, 'c', 00H, 'k', 00H, ' ', 00H, 'o', 00H, 'f'
	DB	00H, ' ', 00H, 'n', 00H, 'o', 00H, 'n', 00H, '-', 00H, 'z', 00H
	DB	'e', 00H, 'r', 00H, 'o', 00H, ' ', 00H, 's', 00H, 'i', 00H, 'z'
	DB	00H, 'e', 00H, '"', 00H, 00H, 00H		; `string'
CONST	ENDS
;	COMDAT ??_C@_0DG@KGHKKGBC@null?5pointer?5cannot?5point?5to?5a?5@
CONST	SEGMENT
??_C@_0DG@KGHKKGBC@null?5pointer?5cannot?5point?5to?5a?5@ DB 'null pointe'
	DB	'r cannot point to a block of non-zero size', 00H ; `string'
CONST	ENDS
;	COMDAT ??_C@_1EA@LEKOKFNB@?$AA?$CC?$AAv?$AAe?$AAc?$AAt?$AAo?$AAr?$AA?5?$AAs?$AAu?$AAb?$AAs?$AAc?$AAr?$AAi@
CONST	SEGMENT
??_C@_1EA@LEKOKFNB@?$AA?$CC?$AAv?$AAe?$AAc?$AAt?$AAo?$AAr?$AA?5?$AAs?$AAu?$AAb?$AAs?$AAc?$AAr?$AAi@ DB '"'
	DB	00H, 'v', 00H, 'e', 00H, 'c', 00H, 't', 00H, 'o', 00H, 'r', 00H
	DB	' ', 00H, 's', 00H, 'u', 00H, 'b', 00H, 's', 00H, 'c', 00H, 'r'
	DB	00H, 'i', 00H, 'p', 00H, 't', 00H, ' ', 00H, 'o', 00H, 'u', 00H
	DB	't', 00H, ' ', 00H, 'o', 00H, 'f', 00H, ' ', 00H, 'r', 00H, 'a'
	DB	00H, 'n', 00H, 'g', 00H, 'e', 00H, '"', 00H, 00H, 00H ; `string'
CONST	ENDS
;	COMDAT ??_C@_1MC@BJDJHFOD@?$AAC?$AA?3?$AA?2?$AAP?$AAr?$AAo?$AAg?$AAr?$AAa?$AAm?$AA?5?$AAF?$AAi?$AAl?$AAe@
CONST	SEGMENT
??_C@_1MC@BJDJHFOD@?$AAC?$AA?3?$AA?2?$AAP?$AAr?$AAo?$AAg?$AAr?$AAa?$AAm?$AA?5?$AAF?$AAi?$AAl?$AAe@ DB 'C'
	DB	00H, ':', 00H, '\', 00H, 'P', 00H, 'r', 00H, 'o', 00H, 'g', 00H
	DB	'r', 00H, 'a', 00H, 'm', 00H, ' ', 00H, 'F', 00H, 'i', 00H, 'l'
	DB	00H, 'e', 00H, 's', 00H, '\', 00H, 'M', 00H, 'i', 00H, 'c', 00H
	DB	'r', 00H, 'o', 00H, 's', 00H, 'o', 00H, 'f', 00H, 't', 00H, ' '
	DB	00H, 'V', 00H, 'i', 00H, 's', 00H, 'u', 00H, 'a', 00H, 'l', 00H
	DB	' ', 00H, 'S', 00H, 't', 00H, 'u', 00H, 'd', 00H, 'i', 00H, 'o'
	DB	00H, '\', 00H, '2', 00H, '0', 00H, '2', 00H, '2', 00H, '\', 00H
	DB	'C', 00H, 'o', 00H, 'm', 00H, 'm', 00H, 'u', 00H, 'n', 00H, 'i'
	DB	00H, 't', 00H, 'y', 00H, '\', 00H, 'V', 00H, 'C', 00H, '\', 00H
	DB	'T', 00H, 'o', 00H, 'o', 00H, 'l', 00H, 's', 00H, '\', 00H, 'M'
	DB	00H, 'S', 00H, 'V', 00H, 'C', 00H, '\', 00H, '1', 00H, '4', 00H
	DB	'.', 00H, '3', 00H, '2', 00H, '.', 00H, '3', 00H, '1', 00H, '3'
	DB	00H, '2', 00H, '6', 00H, '\', 00H, 'i', 00H, 'n', 00H, 'c', 00H
	DB	'l', 00H, 'u', 00H, 'd', 00H, 'e', 00H, '\', 00H, 'v', 00H, 'e'
	DB	00H, 'c', 00H, 't', 00H, 'o', 00H, 'r', 00H, 00H, 00H ; `string'
CONST	ENDS
;	COMDAT ??_C@_0GB@GDCALCPO@C?3?2Program?5Files?2Microsoft?5Visu@
CONST	SEGMENT
??_C@_0GB@GDCALCPO@C?3?2Program?5Files?2Microsoft?5Visu@ DB 'C:\Program F'
	DB	'iles\Microsoft Visual Studio\2022\Community\VC\Tools\MSVC\14.'
	DB	'32.31326\include\vector', 00H		; `string'
CONST	ENDS
;	COMDAT ??_C@_0BO@PFKOHNJC@vector?5subscript?5out?5of?5range@
CONST	SEGMENT
??_C@_0BO@PFKOHNJC@vector?5subscript?5out?5of?5range@ DB 'vector subscrip'
	DB	't out of range', 00H			; `string'
CONST	ENDS
;	COMDAT ??_C@_1CG@JNLFBNGN@?$AA?$CC?$AAi?$AAn?$AAv?$AAa?$AAl?$AAi?$AAd?$AA?5?$AAa?$AAr?$AAg?$AAu?$AAm?$AAe@
CONST	SEGMENT
??_C@_1CG@JNLFBNGN@?$AA?$CC?$AAi?$AAn?$AAv?$AAa?$AAl?$AAi?$AAd?$AA?5?$AAa?$AAr?$AAg?$AAu?$AAm?$AAe@ DB '"'
	DB	00H, 'i', 00H, 'n', 00H, 'v', 00H, 'a', 00H, 'l', 00H, 'i', 00H
	DB	'd', 00H, ' ', 00H, 'a', 00H, 'r', 00H, 'g', 00H, 'u', 00H, 'm'
	DB	00H, 'e', 00H, 'n', 00H, 't', 00H, '"', 00H, 00H, 00H ; `string'
CONST	ENDS
;	COMDAT ??_C@_11LOCGONAA@@
CONST	SEGMENT
??_C@_11LOCGONAA@@ DB 00H, 00H				; `string'
CONST	ENDS
;	COMDAT ??_C@_1ME@GEFGDEOM@?$AAC?$AA?3?$AA?2?$AAP?$AAr?$AAo?$AAg?$AAr?$AAa?$AAm?$AA?5?$AAF?$AAi?$AAl?$AAe@
CONST	SEGMENT
??_C@_1ME@GEFGDEOM@?$AAC?$AA?3?$AA?2?$AAP?$AAr?$AAo?$AAg?$AAr?$AAa?$AAm?$AA?5?$AAF?$AAi?$AAl?$AAe@ DB 'C'
	DB	00H, ':', 00H, '\', 00H, 'P', 00H, 'r', 00H, 'o', 00H, 'g', 00H
	DB	'r', 00H, 'a', 00H, 'm', 00H, ' ', 00H, 'F', 00H, 'i', 00H, 'l'
	DB	00H, 'e', 00H, 's', 00H, '\', 00H, 'M', 00H, 'i', 00H, 'c', 00H
	DB	'r', 00H, 'o', 00H, 's', 00H, 'o', 00H, 'f', 00H, 't', 00H, ' '
	DB	00H, 'V', 00H, 'i', 00H, 's', 00H, 'u', 00H, 'a', 00H, 'l', 00H
	DB	' ', 00H, 'S', 00H, 't', 00H, 'u', 00H, 'd', 00H, 'i', 00H, 'o'
	DB	00H, '\', 00H, '2', 00H, '0', 00H, '2', 00H, '2', 00H, '\', 00H
	DB	'C', 00H, 'o', 00H, 'm', 00H, 'm', 00H, 'u', 00H, 'n', 00H, 'i'
	DB	00H, 't', 00H, 'y', 00H, '\', 00H, 'V', 00H, 'C', 00H, '\', 00H
	DB	'T', 00H, 'o', 00H, 'o', 00H, 'l', 00H, 's', 00H, '\', 00H, 'M'
	DB	00H, 'S', 00H, 'V', 00H, 'C', 00H, '\', 00H, '1', 00H, '4', 00H
	DB	'.', 00H, '3', 00H, '2', 00H, '.', 00H, '3', 00H, '1', 00H, '3'
	DB	00H, '2', 00H, '6', 00H, '\', 00H, 'i', 00H, 'n', 00H, 'c', 00H
	DB	'l', 00H, 'u', 00H, 'd', 00H, 'e', 00H, '\', 00H, 'x', 00H, 'm'
	DB	00H, 'e', 00H, 'm', 00H, 'o', 00H, 'r', 00H, 'y', 00H, 00H, 00H ; `string'
CONST	ENDS
;	COMDAT ??_C@_0GC@DJFHHHKN@C?3?2Program?5Files?2Microsoft?5Visu@
CONST	SEGMENT
??_C@_0GC@DJFHHHKN@C?3?2Program?5Files?2Microsoft?5Visu@ DB 'C:\Program F'
	DB	'iles\Microsoft Visual Studio\2022\Community\VC\Tools\MSVC\14.'
	DB	'32.31326\include\xmemory', 00H		; `string'
CONST	ENDS
;	COMDAT ??_C@_02DKCKIIND@?$CFs@
CONST	SEGMENT
??_C@_02DKCKIIND@?$CFs@ DB '%s', 00H			; `string'
CONST	ENDS
;	COMDAT ??_C@_0BB@FCMFBGOM@invalid?5argument@
CONST	SEGMENT
??_C@_0BB@FCMFBGOM@invalid?5argument@ DB 'invalid argument', 00H ; `string'
CONST	ENDS
;	COMDAT _CT??_R0?AVexception@std@@@8??0exception@std@@QEAA@AEBV01@@Z24
xdata$x	SEGMENT
_CT??_R0?AVexception@std@@@8??0exception@std@@QEAA@AEBV01@@Z24 DD 00H
	DD	imagerel ??_R0?AVexception@std@@@8
	DD	00H
	DD	0ffffffffH
	ORG $+4
	DD	018H
	DD	imagerel ??0exception@std@@QEAA@AEBV01@@Z
xdata$x	ENDS
;	COMDAT ??_R0?AVexception@std@@@8
data$r	SEGMENT
??_R0?AVexception@std@@@8 DQ FLAT:??_7type_info@@6B@	; std::exception `RTTI Type Descriptor'
	DQ	0000000000000000H
	DB	'.?AVexception@std@@', 00H
data$r	ENDS
;	COMDAT _CT??_R0?AVbad_alloc@std@@@8??0bad_alloc@std@@QEAA@AEBV01@@Z24
xdata$x	SEGMENT
_CT??_R0?AVbad_alloc@std@@@8??0bad_alloc@std@@QEAA@AEBV01@@Z24 DD 010H
	DD	imagerel ??_R0?AVbad_alloc@std@@@8
	DD	00H
	DD	0ffffffffH
	ORG $+4
	DD	018H
	DD	imagerel ??0bad_alloc@std@@QEAA@AEBV01@@Z
xdata$x	ENDS
;	COMDAT ??_R0?AVbad_alloc@std@@@8
data$r	SEGMENT
??_R0?AVbad_alloc@std@@@8 DQ FLAT:??_7type_info@@6B@	; std::bad_alloc `RTTI Type Descriptor'
	DQ	0000000000000000H
	DB	'.?AVbad_alloc@std@@', 00H
data$r	ENDS
;	COMDAT _CT??_R0?AVbad_array_new_length@std@@@8??0bad_array_new_length@std@@QEAA@AEBV01@@Z24
xdata$x	SEGMENT
_CT??_R0?AVbad_array_new_length@std@@@8??0bad_array_new_length@std@@QEAA@AEBV01@@Z24 DD 00H
	DD	imagerel ??_R0?AVbad_array_new_length@std@@@8
	DD	00H
	DD	0ffffffffH
	ORG $+4
	DD	018H
	DD	imagerel ??0bad_array_new_length@std@@QEAA@AEBV01@@Z
xdata$x	ENDS
;	COMDAT ??_R0?AVbad_array_new_length@std@@@8
data$r	SEGMENT
??_R0?AVbad_array_new_length@std@@@8 DQ FLAT:??_7type_info@@6B@ ; std::bad_array_new_length `RTTI Type Descriptor'
	DQ	0000000000000000H
	DB	'.?AVbad_array_new_length@std@@', 00H
data$r	ENDS
;	COMDAT _CTA3?AVbad_array_new_length@std@@
xdata$x	SEGMENT
_CTA3?AVbad_array_new_length@std@@ DD 03H
	DD	imagerel _CT??_R0?AVbad_array_new_length@std@@@8??0bad_array_new_length@std@@QEAA@AEBV01@@Z24
	DD	imagerel _CT??_R0?AVbad_alloc@std@@@8??0bad_alloc@std@@QEAA@AEBV01@@Z24
	DD	imagerel _CT??_R0?AVexception@std@@@8??0exception@std@@QEAA@AEBV01@@Z24
xdata$x	ENDS
;	COMDAT _TI3?AVbad_array_new_length@std@@
xdata$x	SEGMENT
_TI3?AVbad_array_new_length@std@@ DD 00H
	DD	imagerel ??1bad_array_new_length@std@@UEAA@XZ
	DD	00H
	DD	imagerel _CTA3?AVbad_array_new_length@std@@
xdata$x	ENDS
;	COMDAT ??_C@_0BF@KINCDENJ@bad?5array?5new?5length@
CONST	SEGMENT
??_C@_0BF@KINCDENJ@bad?5array?5new?5length@ DB 'bad array new length', 00H ; `string'
CONST	ENDS
;	COMDAT ??_7bad_array_new_length@std@@6B@
CONST	SEGMENT
??_7bad_array_new_length@std@@6B@ DQ FLAT:??_R4bad_array_new_length@std@@6B@ ; std::bad_array_new_length::`vftable'
	DQ	FLAT:??_Ebad_array_new_length@std@@UEAAPEAXI@Z
	DQ	FLAT:?what@exception@std@@UEBAPEBDXZ
CONST	ENDS
;	COMDAT ??_7bad_alloc@std@@6B@
CONST	SEGMENT
??_7bad_alloc@std@@6B@ DQ FLAT:??_R4bad_alloc@std@@6B@	; std::bad_alloc::`vftable'
	DQ	FLAT:??_Ebad_alloc@std@@UEAAPEAXI@Z
	DQ	FLAT:?what@exception@std@@UEBAPEBDXZ
CONST	ENDS
;	COMDAT ??_C@_0BC@EOODALEL@Unknown?5exception@
CONST	SEGMENT
??_C@_0BC@EOODALEL@Unknown?5exception@ DB 'Unknown exception', 00H ; `string'
CONST	ENDS
;	COMDAT ??_7exception@std@@6B@
CONST	SEGMENT
??_7exception@std@@6B@ DQ FLAT:??_R4exception@std@@6B@	; std::exception::`vftable'
	DQ	FLAT:??_Eexception@std@@UEAAPEAXI@Z
	DQ	FLAT:?what@exception@std@@UEBAPEBDXZ
CONST	ENDS
;	COMDAT xdata
xdata	SEGMENT
$unwind$?call@?$compute_floor@M$0A@Utvec1@glm@@$0A@@detail@glm@@SA?AU?$tvec1@M$0A@@3@AEBU43@@Z DD 020f01H
	DD	0700b320fH
xdata	ENDS
;	COMDAT xdata
xdata	SEGMENT
$unwind$??$floor@M$0A@Utvec1@glm@@@glm@@YA?AU?$tvec1@M$0A@@0@AEBU10@@Z DD 020f01H
	DD	0700b320fH
xdata	ENDS
;	COMDAT xdata
xdata	SEGMENT
$unwind$??$?KM$0A@@glm@@YA?AU?$tvec1@M$0A@@0@AEBU10@0@Z DD 021401H
	DD	070103214H
xdata	ENDS
;	COMDAT xdata
xdata	SEGMENT
$unwind$??$_Voidify_iter@PEAU?$tvec4@M$0A@@glm@@@std@@YAPEAXPEAU?$tvec4@M$0A@@glm@@@Z DD 010601H
	DD	07006H
xdata	ENDS
;	COMDAT xdata
xdata	SEGMENT
$unwind$??$construct@U?$tvec4@M$0A@@glm@@U12@@?$_Default_allocator_traits@V?$allocator@U?$tvec4@M$0A@@glm@@@std@@@std@@SAXAEAV?$allocator@U?$tvec4@M$0A@@glm@@@1@QEAU?$tvec4@M$0A@@glm@@$$QEAU34@@Z DD 031501H
	DD	070116215H
	DD	06010H
xdata	ENDS
;	COMDAT xdata
xdata	SEGMENT
$unwind$??$forward@U?$tvec4@M$0A@@glm@@@std@@YA$$QEAU?$tvec4@M$0A@@glm@@AEAU12@@Z DD 010601H
	DD	07006H
xdata	ENDS
;	COMDAT xdata
xdata	SEGMENT
$unwind$??$_To_address@PEAU?$tvec4@M$0A@@glm@@@std@@YA?A_PAEBQEAU?$tvec4@M$0A@@glm@@@Z DD 010601H
	DD	07006H
xdata	ENDS
;	COMDAT xdata
xdata	SEGMENT
$unwind$?call@?$compute_vec4_div@M$0A@$0A@@detail@glm@@SA?AU?$tvec4@M$0A@@3@AEBU43@0@Z DD 021401H
	DD	070107214H
xdata	ENDS
;	COMDAT xdata
xdata	SEGMENT
$unwind$?call@?$compute_mod@M$0A@Utvec1@glm@@$0A@@detail@glm@@SA?AU?$tvec1@M$0A@@3@AEBU43@0@Z DD 021401H
	DD	070105214H
xdata	ENDS
;	COMDAT xdata
xdata	SEGMENT
$unwind$??$construct@U?$tvec4@M$0A@@glm@@$$V@?$_Default_allocator_traits@V?$allocator@U?$tvec4@M$0A@@glm@@@std@@@std@@SAXAEAV?$allocator@U?$tvec4@M$0A@@glm@@@1@QEAU?$tvec4@M$0A@@glm@@@Z DD 020f01H
	DD	0700b520fH
xdata	ENDS
;	COMDAT xdata
xdata	SEGMENT
$unwind$??$_Emplace_back@U?$tvec4@M$0A@@glm@@@?$_Uninitialized_backout_al@V?$allocator@U?$tvec4@M$0A@@glm@@@std@@@std@@QEAAX$$QEAU?$tvec4@M$0A@@glm@@@Z DD 020f01H
	DD	0700b520fH
xdata	ENDS
;	COMDAT xdata
xdata	SEGMENT
$unwind$??$_Copy_memmove@PEAU?$tvec4@M$0A@@glm@@PEAU12@@std@@YAPEAU?$tvec4@M$0A@@glm@@PEAU12@00@Z DD 021401H
	DD	07010b214H
xdata	ENDS
;	COMDAT xdata
xdata	SEGMENT
$unwind$??$_Unfancy@U?$tvec4@M$0A@@glm@@@std@@YAPEAU?$tvec4@M$0A@@glm@@PEAU12@@Z DD 010601H
	DD	07006H
xdata	ENDS
;	COMDAT xdata
xdata	SEGMENT
$unwind$??$move@AEAU?$tvec4@M$0A@@glm@@@std@@YA$$QEAU?$tvec4@M$0A@@glm@@AEAU12@@Z DD 010601H
	DD	07006H
xdata	ENDS
;	COMDAT xdata
xdata	SEGMENT
$unwind$??$_Get_unwrapped@AEBQEAU?$tvec4@M$0A@@glm@@@std@@YA?A_TAEBQEAU?$tvec4@M$0A@@glm@@@Z DD 010601H
	DD	07006H
xdata	ENDS
;	COMDAT xdata
xdata	SEGMENT
$unwind$?call@?$compute_trunc@M$0A@Utvec4@glm@@$0A@@detail@glm@@SA?AU?$tvec4@M$0A@@3@AEBU43@@Z DD 020f01H
	DD	0700b320fH
xdata	ENDS
;	COMDAT xdata
xdata	SEGMENT
$unwind$??$?_0M@?$tvec4@M$0A@@glm@@QEAAAEAU01@M@Z DD 031101H
	DD	0700d8211H
	DD	0600cH
xdata	ENDS
;	COMDAT xdata
xdata	SEGMENT
$unwind$?call@?$compute_vec4_sub@M$0A@$0A@@detail@glm@@SA?AU?$tvec4@M$0A@@3@AEBU43@0@Z DD 021401H
	DD	070107214H
xdata	ENDS
;	COMDAT xdata
xdata	SEGMENT
$unwind$??$mod@M$0A@Utvec1@glm@@@glm@@YA?AU?$tvec1@M$0A@@0@AEBU10@M@Z DD 021501H
	DD	070115215H
xdata	ENDS
;	COMDAT xdata
xdata	SEGMENT
$unwind$??$min@_K@std@@YAAEB_KAEB_K0@Z DD 020f01H
	DD	0700b120fH
xdata	ENDS
;	COMDAT xdata
xdata	SEGMENT
$unwind$?call@?$functor2@M$0A@Utvec1@glm@@@detail@glm@@SA?AU?$tvec1@M$0A@@3@P6AMMM@ZAEBU43@1@Z DD 021901H
	DD	070153219H
xdata	ENDS
;	COMDAT xdata
xdata	SEGMENT
$unwind$?call@?$functor1@MM$0A@Utvec1@glm@@@detail@glm@@SA?AU?$tvec1@M$0A@@3@P6AMM@ZAEBU43@@Z DD 021401H
	DD	070103214H
xdata	ENDS
;	COMDAT xdata
xdata	SEGMENT
$unwind$?call@?$functor2@M$0A@Utvec4@glm@@@detail@glm@@SA?AU?$tvec4@M$0A@@3@P6AMMM@ZAEBU43@1@Z DD 021901H
	DD	070157219H
xdata	ENDS
;	COMDAT xdata
xdata	SEGMENT
$unwind$??$_Allocate_manually_vector_aligned@U_Default_allocate_traits@std@@@std@@YAPEAX_K@Z DD 020a01H
	DD	07006920aH
xdata	ENDS
;	COMDAT xdata
xdata	SEGMENT
$unwind$??$forward@PEAU_Container_base12@std@@@std@@YA$$QEAPEAU_Container_base12@0@AEAPEAU10@@Z DD 010601H
	DD	07006H
xdata	ENDS
;	COMDAT xdata
xdata	SEGMENT
$unwind$??$_Voidify_iter@PEAU_Container_proxy@std@@@std@@YAPEAXPEAU_Container_proxy@0@@Z DD 010601H
	DD	07006H
xdata	ENDS
;	COMDAT xdata
xdata	SEGMENT
$unwind$??$addressof@U_Container_proxy@std@@@std@@YAPEAU_Container_proxy@0@AEAU10@@Z DD 010601H
	DD	07006H
xdata	ENDS
;	COMDAT xdata
xdata	SEGMENT
$unwind$?deallocate@?$_Default_allocator_traits@V?$allocator@U_Container_proxy@std@@@std@@@std@@SAXAEAV?$allocator@U_Container_proxy@std@@@2@QEAU_Container_proxy@2@_K@Z DD 021401H
	DD	070103214H
xdata	ENDS
;	COMDAT xdata
xdata	SEGMENT
$unwind$??$_Emplace_back@$$V@?$_Uninitialized_backout_al@V?$allocator@U?$tvec4@M$0A@@glm@@@std@@@std@@QEAAXXZ DD 020a01H
	DD	07006320aH
xdata	ENDS
;	COMDAT xdata
xdata	SEGMENT
$unwind$?_Release@?$_Uninitialized_backout_al@V?$allocator@U?$tvec4@M$0A@@glm@@@std@@@std@@QEAAPEAU?$tvec4@M$0A@@glm@@XZ DD 010601H
	DD	07006H
xdata	ENDS
;	COMDAT xdata
xdata	SEGMENT
$unwind$??1?$_Uninitialized_backout_al@V?$allocator@U?$tvec4@M$0A@@glm@@@std@@@std@@QEAA@XZ DD 020a01H
	DD	07006320aH
xdata	ENDS
;	COMDAT xdata
xdata	SEGMENT
$unwind$??0?$_Uninitialized_backout_al@V?$allocator@U?$tvec4@M$0A@@glm@@@std@@@std@@QEAA@PEAU?$tvec4@M$0A@@glm@@AEAV?$allocator@U?$tvec4@M$0A@@glm@@@1@@Z DD 011001H
	DD	07010H
xdata	ENDS
;	COMDAT voltbl
voltbl	SEGMENT
_volmd	DB	00H
	DB	05H
voltbl	ENDS
;	COMDAT xdata
xdata	SEGMENT
$unwind$?dtor$0@?0???$_Uninitialized_move@PEAU?$tvec4@M$0A@@glm@@V?$allocator@U?$tvec4@M$0A@@glm@@@std@@@std@@YAPEAU?$tvec4@M$0A@@glm@@QEAU12@0PEAU12@AEAV?$allocator@U?$tvec4@M$0A@@glm@@@0@@Z@4HA DD 031001H
	DD	0700c4210H
	DD	0500bH
xdata	ENDS
;	COMDAT xdata
xdata	SEGMENT
$ip2state$??$_Uninitialized_move@PEAU?$tvec4@M$0A@@glm@@V?$allocator@U?$tvec4@M$0A@@glm@@@std@@@std@@YAPEAU?$tvec4@M$0A@@glm@@QEAU12@0PEAU12@AEAV?$allocator@U?$tvec4@M$0A@@glm@@@0@@Z DB 02H
	DB	00H
	DB	00H
xdata	ENDS
;	COMDAT xdata
xdata	SEGMENT
$stateUnwindMap$??$_Uninitialized_move@PEAU?$tvec4@M$0A@@glm@@V?$allocator@U?$tvec4@M$0A@@glm@@@std@@@std@@YAPEAU?$tvec4@M$0A@@glm@@QEAU12@0PEAU12@AEAV?$allocator@U?$tvec4@M$0A@@glm@@@0@@Z DB 02H
	DB	0eH
	DD	imagerel ?dtor$0@?0???$_Uninitialized_move@PEAU?$tvec4@M$0A@@glm@@V?$allocator@U?$tvec4@M$0A@@glm@@@std@@@std@@YAPEAU?$tvec4@M$0A@@glm@@QEAU12@0PEAU12@AEAV?$allocator@U?$tvec4@M$0A@@glm@@@0@@Z@4HA
xdata	ENDS
;	COMDAT xdata
xdata	SEGMENT
$cppxdata$??$_Uninitialized_move@PEAU?$tvec4@M$0A@@glm@@V?$allocator@U?$tvec4@M$0A@@glm@@@std@@@std@@YAPEAU?$tvec4@M$0A@@glm@@QEAU12@0PEAU12@AEAV?$allocator@U?$tvec4@M$0A@@glm@@@0@@Z DB 028H
	DD	imagerel $stateUnwindMap$??$_Uninitialized_move@PEAU?$tvec4@M$0A@@glm@@V?$allocator@U?$tvec4@M$0A@@glm@@@std@@@std@@YAPEAU?$tvec4@M$0A@@glm@@QEAU12@0PEAU12@AEAV?$allocator@U?$tvec4@M$0A@@glm@@@0@@Z
	DD	imagerel $ip2state$??$_Uninitialized_move@PEAU?$tvec4@M$0A@@glm@@V?$allocator@U?$tvec4@M$0A@@glm@@@std@@@std@@YAPEAU?$tvec4@M$0A@@glm@@QEAU12@0PEAU12@AEAV?$allocator@U?$tvec4@M$0A@@glm@@@0@@Z
xdata	ENDS
;	COMDAT xdata
xdata	SEGMENT
$unwind$??$_Uninitialized_move@PEAU?$tvec4@M$0A@@glm@@V?$allocator@U?$tvec4@M$0A@@glm@@@std@@@std@@YAPEAU?$tvec4@M$0A@@glm@@QEAU12@0PEAU12@AEAV?$allocator@U?$tvec4@M$0A@@glm@@@0@@Z DD 022f11H
	DD	07015b219H
	DD	imagerel __CxxFrameHandler4
	DD	imagerel $cppxdata$??$_Uninitialized_move@PEAU?$tvec4@M$0A@@glm@@V?$allocator@U?$tvec4@M$0A@@glm@@@std@@@std@@YAPEAU?$tvec4@M$0A@@glm@@QEAU12@0PEAU12@AEAV?$allocator@U?$tvec4@M$0A@@glm@@@0@@Z
xdata	ENDS
;	COMDAT CONST
CONST	SEGMENT
??$_Uninitialized_move@PEAU?$tvec4@M$0A@@glm@@V?$allocator@U?$tvec4@M$0A@@glm@@@std@@@std@@YAPEAU?$tvec4@M$0A@@glm@@QEAU12@0PEAU12@AEAV?$allocator@U?$tvec4@M$0A@@glm@@@0@@Z$rtcName$0 DB 05fH ; std::_Uninitialized_move<glm::tvec4<float,0> *,std::allocator<glm::tvec4<float,0> > >
	DB	042H
	DB	061H
	DB	063H
	DB	06bH
	DB	06fH
	DB	075H
	DB	074H
	DB	00H
	ORG $+7
??$_Uninitialized_move@PEAU?$tvec4@M$0A@@glm@@V?$allocator@U?$tvec4@M$0A@@glm@@@std@@@std@@YAPEAU?$tvec4@M$0A@@glm@@QEAU12@0PEAU12@AEAV?$allocator@U?$tvec4@M$0A@@glm@@@0@@Z$rtcVarDesc DD 038H ; std::_Uninitialized_move<glm::tvec4<float,0> *,std::allocator<glm::tvec4<float,0> > >
	DD	018H
	DQ	FLAT:??$_Uninitialized_move@PEAU?$tvec4@M$0A@@glm@@V?$allocator@U?$tvec4@M$0A@@glm@@@std@@@std@@YAPEAU?$tvec4@M$0A@@glm@@QEAU12@0PEAU12@AEAV?$allocator@U?$tvec4@M$0A@@glm@@@0@@Z$rtcName$0
	ORG $+48
??$_Uninitialized_move@PEAU?$tvec4@M$0A@@glm@@V?$allocator@U?$tvec4@M$0A@@glm@@@std@@@std@@YAPEAU?$tvec4@M$0A@@glm@@QEAU12@0PEAU12@AEAV?$allocator@U?$tvec4@M$0A@@glm@@@0@@Z$rtcFrameData DD 01H ; std::_Uninitialized_move<glm::tvec4<float,0> *,std::allocator<glm::tvec4<float,0> > >
	DD	00H
	DQ	FLAT:??$_Uninitialized_move@PEAU?$tvec4@M$0A@@glm@@V?$allocator@U?$tvec4@M$0A@@glm@@@std@@@std@@YAPEAU?$tvec4@M$0A@@glm@@QEAU12@0PEAU12@AEAV?$allocator@U?$tvec4@M$0A@@glm@@@0@@Z$rtcVarDesc
CONST	ENDS
;	COMDAT xdata
xdata	SEGMENT
$unwind$??$?DM$0A@@glm@@YA?AU?$tvec1@M$0A@@0@AEBU10@M@Z DD 021501H
	DD	070113215H
xdata	ENDS
;	COMDAT xdata
xdata	SEGMENT
$unwind$??$?HM$0A@@glm@@YA?AU?$tvec1@M$0A@@0@AEBU10@0@Z DD 021401H
	DD	070103214H
xdata	ENDS
;	COMDAT xdata
xdata	SEGMENT
$unwind$??$?GM$0A@@glm@@YA?AU?$tvec1@M$0A@@0@MAEBU10@@Z DD 021501H
	DD	070113215H
xdata	ENDS
;	COMDAT xdata
xdata	SEGMENT
$unwind$??$?KM$0A@@glm@@YA?AU?$tvec1@M$0A@@0@AEBU10@M@Z DD 021501H
	DD	070113215H
xdata	ENDS
;	COMDAT xdata
xdata	SEGMENT
$unwind$?call@?$compute_mix_vector@M_N$0A@Utvec1@glm@@$0A@@detail@glm@@SA?AU?$tvec1@M$0A@@3@AEBU43@0AEBU?$tvec1@_N$0A@@3@@Z DD 022f01H
	DD	070157219H
xdata	ENDS
;	COMDAT CONST
CONST	SEGMENT
?call@?$compute_mix_vector@M_N$0A@Utvec1@glm@@$0A@@detail@glm@@SA?AU?$tvec1@M$0A@@3@AEBU43@0AEBU?$tvec1@_N$0A@@3@@Z$rtcName$0 DB 052H ; glm::detail::compute_mix_vector<float,bool,0,glm::tvec1,0>::call
	DB	065H
	DB	073H
	DB	075H
	DB	06cH
	DB	074H
	DB	00H
	ORG $+9
?call@?$compute_mix_vector@M_N$0A@Utvec1@glm@@$0A@@detail@glm@@SA?AU?$tvec1@M$0A@@3@AEBU43@0AEBU?$tvec1@_N$0A@@3@@Z$rtcVarDesc DD 024H ; glm::detail::compute_mix_vector<float,bool,0,glm::tvec1,0>::call
	DD	04H
	DQ	FLAT:?call@?$compute_mix_vector@M_N$0A@Utvec1@glm@@$0A@@detail@glm@@SA?AU?$tvec1@M$0A@@3@AEBU43@0AEBU?$tvec1@_N$0A@@3@@Z$rtcName$0
	ORG $+48
?call@?$compute_mix_vector@M_N$0A@Utvec1@glm@@$0A@@detail@glm@@SA?AU?$tvec1@M$0A@@3@AEBU43@0AEBU?$tvec1@_N$0A@@3@@Z$rtcFrameData DD 01H ; glm::detail::compute_mix_vector<float,bool,0,glm::tvec1,0>::call
	DD	00H
	DQ	FLAT:?call@?$compute_mix_vector@M_N$0A@Utvec1@glm@@$0A@@detail@glm@@SA?AU?$tvec1@M$0A@@3@AEBU43@0AEBU?$tvec1@_N$0A@@3@@Z$rtcVarDesc
CONST	ENDS
;	COMDAT xdata
xdata	SEGMENT
$unwind$?call@?$compute_abs_vector@M$0A@Utvec1@glm@@$0A@@detail@glm@@SA?AU?$tvec1@M$0A@@3@AEBU43@@Z DD 020f01H
	DD	0700b320fH
xdata	ENDS
;	COMDAT xdata
xdata	SEGMENT
$unwind$?call@?$compute_fmod@M$0A@Utvec1@glm@@$00@detail@glm@@SA?AU?$tvec1@M$0A@@3@AEBU43@0@Z DD 021401H
	DD	070103214H
xdata	ENDS
;	COMDAT xdata
xdata	SEGMENT
$unwind$??$factorial@M@glm@@YAMAEBM@Z DD 020a01H
	DD	07006320aH
xdata	ENDS
;	COMDAT xdata
xdata	SEGMENT
$unwind$??$?XM@?$tvec4@M$0A@@glm@@QEAAAEAU01@AEBU01@@Z DD 031001H
	DD	0700c8210H
	DD	0600bH
xdata	ENDS
;	COMDAT xdata
xdata	SEGMENT
$unwind$??$?ZM@?$tvec4@M$0A@@glm@@QEAAAEAU01@AEBU01@@Z DD 031001H
	DD	0700c8210H
	DD	0600bH
xdata	ENDS
;	COMDAT xdata
xdata	SEGMENT
$unwind$?call@?$compute_mix_vector@M_N$0A@Utvec4@glm@@$0A@@detail@glm@@SA?AU?$tvec4@M$0A@@3@AEBU43@0AEBU?$tvec4@_N$0A@@3@@Z DD 033001H
	DD	07016a21aH
	DD	06015H
xdata	ENDS
;	COMDAT CONST
CONST	SEGMENT
?call@?$compute_mix_vector@M_N$0A@Utvec4@glm@@$0A@@detail@glm@@SA?AU?$tvec4@M$0A@@3@AEBU43@0AEBU?$tvec4@_N$0A@@3@@Z$rtcName$0 DB 052H ; glm::detail::compute_mix_vector<float,bool,0,glm::tvec4,0>::call
	DB	065H
	DB	073H
	DB	075H
	DB	06cH
	DB	074H
	DB	00H
	ORG $+9
?call@?$compute_mix_vector@M_N$0A@Utvec4@glm@@$0A@@detail@glm@@SA?AU?$tvec4@M$0A@@3@AEBU43@0AEBU?$tvec4@_N$0A@@3@@Z$rtcVarDesc DD 028H ; glm::detail::compute_mix_vector<float,bool,0,glm::tvec4,0>::call
	DD	010H
	DQ	FLAT:?call@?$compute_mix_vector@M_N$0A@Utvec4@glm@@$0A@@detail@glm@@SA?AU?$tvec4@M$0A@@3@AEBU43@0AEBU?$tvec4@_N$0A@@3@@Z$rtcName$0
	ORG $+48
?call@?$compute_mix_vector@M_N$0A@Utvec4@glm@@$0A@@detail@glm@@SA?AU?$tvec4@M$0A@@3@AEBU43@0AEBU?$tvec4@_N$0A@@3@@Z$rtcFrameData DD 01H ; glm::detail::compute_mix_vector<float,bool,0,glm::tvec4,0>::call
	DD	00H
	DQ	FLAT:?call@?$compute_mix_vector@M_N$0A@Utvec4@glm@@$0A@@detail@glm@@SA?AU?$tvec4@M$0A@@3@AEBU43@0AEBU?$tvec4@_N$0A@@3@@Z$rtcVarDesc
CONST	ENDS
;	COMDAT xdata
xdata	SEGMENT
$unwind$?call@?$compute_abs_vector@M$0A@Utvec4@glm@@$0A@@detail@glm@@SA?AU?$tvec4@M$0A@@3@AEBU43@@Z DD 020f01H
	DD	0700b320fH
xdata	ENDS
;	COMDAT xdata
xdata	SEGMENT
$unwind$??$?DM$0A@@glm@@YA?AU?$tvec4@M$0A@@0@MAEBU10@@Z DD 031601H
	DD	070126216H
	DD	06011H
xdata	ENDS
;	COMDAT xdata
xdata	SEGMENT
$unwind$??$trunc@M$0A@Utvec4@glm@@@glm@@YA?AU?$tvec4@M$0A@@0@AEBU10@@Z DD 020f01H
	DD	0700b320fH
xdata	ENDS
;	COMDAT xdata
xdata	SEGMENT
$unwind$??$?KM$0A@@glm@@YA?AU?$tvec4@M$0A@@0@AEBU10@M@Z DD 031601H
	DD	070126216H
	DD	06011H
xdata	ENDS
;	COMDAT xdata
xdata	SEGMENT
$unwind$??$?GM$0A@@glm@@YA?AU?$tvec4@M$0A@@0@MAEBU10@@Z DD 031601H
	DD	070126216H
	DD	06011H
xdata	ENDS
;	COMDAT xdata
xdata	SEGMENT
$unwind$??$?ZM@?$tvec4@M$0A@@glm@@QEAAAEAU01@M@Z DD 031101H
	DD	0700d8211H
	DD	0600cH
xdata	ENDS
;	COMDAT xdata
xdata	SEGMENT
$unwind$?call@?$compute_fmod@M$0A@Utvec4@glm@@$00@detail@glm@@SA?AU?$tvec4@M$0A@@3@AEBU43@0@Z DD 021401H
	DD	070103214H
xdata	ENDS
;	COMDAT xdata
xdata	SEGMENT
$unwind$??$?YM@?$tvec4@M$0A@@glm@@QEAAAEAU01@M@Z DD 031101H
	DD	0700d8211H
	DD	0600cH
xdata	ENDS
;	COMDAT xdata
xdata	SEGMENT
$unwind$?call@?$compute_vec4_add@M$0A@$0A@@detail@glm@@SA?AU?$tvec4@M$0A@@3@AEBU43@0@Z DD 021401H
	DD	070107214H
xdata	ENDS
;	COMDAT xdata
xdata	SEGMENT
$unwind$??$mod@M@glm@@YAMMM@Z DD 021101H
	DD	0700d7211H
xdata	ENDS
;	COMDAT xdata
xdata	SEGMENT
$unwind$?call@?$compute_vec4_mul@M$0A@$0A@@detail@glm@@SA?AU?$tvec4@M$0A@@3@AEBU43@0@Z DD 021401H
	DD	070107214H
xdata	ENDS
;	COMDAT xdata
xdata	SEGMENT
$unwind$??$_Allocate@$0BA@U_Default_allocate_traits@std@@$0A@@std@@YAPEAX_K@Z DD 020a01H
	DD	07006320aH
xdata	ENDS
;	COMDAT xdata
xdata	SEGMENT
$unwind$??$_Get_size_of_n@$0BA@@std@@YA_K_K@Z DD 020a01H
	DD	07006520aH
xdata	ENDS
;	COMDAT xdata
xdata	SEGMENT
$unwind$??$_Construct_in_place@U_Container_proxy@std@@PEAU_Container_base12@2@@std@@YAXAEAU_Container_proxy@0@$$QEAPEAU_Container_base12@0@@Z DD 020f01H
	DD	0700b520fH
xdata	ENDS
;	COMDAT xdata
xdata	SEGMENT
$unwind$??$_Unfancy@U_Container_proxy@std@@@std@@YAPEAU_Container_proxy@0@PEAU10@@Z DD 010601H
	DD	07006H
xdata	ENDS
;	COMDAT xdata
xdata	SEGMENT
$ip2state$??$_Deallocate_plain@V?$allocator@U_Container_proxy@std@@@std@@@std@@YAXAEAV?$allocator@U_Container_proxy@std@@@0@QEAU_Container_proxy@0@@Z DB 02H
	DB	00H
	DB	00H
xdata	ENDS
;	COMDAT xdata
xdata	SEGMENT
$cppxdata$??$_Deallocate_plain@V?$allocator@U_Container_proxy@std@@@std@@@std@@YAXAEAV?$allocator@U_Container_proxy@std@@@0@QEAU_Container_proxy@0@@Z DB 060H
	DD	imagerel $ip2state$??$_Deallocate_plain@V?$allocator@U_Container_proxy@std@@@std@@@std@@YAXAEAV?$allocator@U_Container_proxy@std@@@0@QEAU_Container_proxy@0@@Z
xdata	ENDS
;	COMDAT xdata
xdata	SEGMENT
$unwind$??$_Deallocate_plain@V?$allocator@U_Container_proxy@std@@@std@@@std@@YAXAEAV?$allocator@U_Container_proxy@std@@@0@QEAU_Container_proxy@0@@Z DD 020f19H
	DD	0700b320fH
	DD	imagerel __CxxFrameHandler4
	DD	imagerel $cppxdata$??$_Deallocate_plain@V?$allocator@U_Container_proxy@std@@@std@@@std@@YAXAEAV?$allocator@U_Container_proxy@std@@@0@QEAU_Container_proxy@0@@Z
xdata	ENDS
;	COMDAT voltbl
voltbl	SEGMENT
_volmd	DB	00H
	DB	05H
voltbl	ENDS
;	COMDAT xdata
xdata	SEGMENT
$unwind$?dtor$0@?0???$_Uninitialized_value_construct_n@V?$allocator@U?$tvec4@M$0A@@glm@@@std@@@std@@YAPEAU?$tvec4@M$0A@@glm@@PEAU12@_KAEAV?$allocator@U?$tvec4@M$0A@@glm@@@0@@Z@4HA DD 031001H
	DD	0700c4210H
	DD	0500bH
xdata	ENDS
;	COMDAT xdata
xdata	SEGMENT
$ip2state$??$_Uninitialized_value_construct_n@V?$allocator@U?$tvec4@M$0A@@glm@@@std@@@std@@YAPEAU?$tvec4@M$0A@@glm@@PEAU12@_KAEAV?$allocator@U?$tvec4@M$0A@@glm@@@0@@Z DB 06H
	DB	00H
	DB	00H
	DB	'~'
	DB	02H
	DB	'd'
	DB	00H
xdata	ENDS
;	COMDAT xdata
xdata	SEGMENT
$stateUnwindMap$??$_Uninitialized_value_construct_n@V?$allocator@U?$tvec4@M$0A@@glm@@@std@@@std@@YAPEAU?$tvec4@M$0A@@glm@@PEAU12@_KAEAV?$allocator@U?$tvec4@M$0A@@glm@@@0@@Z DB 02H
	DB	0eH
	DD	imagerel ?dtor$0@?0???$_Uninitialized_value_construct_n@V?$allocator@U?$tvec4@M$0A@@glm@@@std@@@std@@YAPEAU?$tvec4@M$0A@@glm@@PEAU12@_KAEAV?$allocator@U?$tvec4@M$0A@@glm@@@0@@Z@4HA
xdata	ENDS
;	COMDAT xdata
xdata	SEGMENT
$cppxdata$??$_Uninitialized_value_construct_n@V?$allocator@U?$tvec4@M$0A@@glm@@@std@@@std@@YAPEAU?$tvec4@M$0A@@glm@@PEAU12@_KAEAV?$allocator@U?$tvec4@M$0A@@glm@@@0@@Z DB 028H
	DD	imagerel $stateUnwindMap$??$_Uninitialized_value_construct_n@V?$allocator@U?$tvec4@M$0A@@glm@@@std@@@std@@YAPEAU?$tvec4@M$0A@@glm@@PEAU12@_KAEAV?$allocator@U?$tvec4@M$0A@@glm@@@0@@Z
	DD	imagerel $ip2state$??$_Uninitialized_value_construct_n@V?$allocator@U?$tvec4@M$0A@@glm@@@std@@@std@@YAPEAU?$tvec4@M$0A@@glm@@PEAU12@_KAEAV?$allocator@U?$tvec4@M$0A@@glm@@@0@@Z
xdata	ENDS
;	COMDAT xdata
xdata	SEGMENT
$unwind$??$_Uninitialized_value_construct_n@V?$allocator@U?$tvec4@M$0A@@glm@@@std@@@std@@YAPEAU?$tvec4@M$0A@@glm@@PEAU12@_KAEAV?$allocator@U?$tvec4@M$0A@@glm@@@0@@Z DD 022a11H
	DD	070109214H
	DD	imagerel __CxxFrameHandler4
	DD	imagerel $cppxdata$??$_Uninitialized_value_construct_n@V?$allocator@U?$tvec4@M$0A@@glm@@@std@@@std@@YAPEAU?$tvec4@M$0A@@glm@@PEAU12@_KAEAV?$allocator@U?$tvec4@M$0A@@glm@@@0@@Z
xdata	ENDS
;	COMDAT CONST
CONST	SEGMENT
??$_Uninitialized_value_construct_n@V?$allocator@U?$tvec4@M$0A@@glm@@@std@@@std@@YAPEAU?$tvec4@M$0A@@glm@@PEAU12@_KAEAV?$allocator@U?$tvec4@M$0A@@glm@@@0@@Z$rtcName$0 DB 05fH ; std::_Uninitialized_value_construct_n<std::allocator<glm::tvec4<float,0> > >
	DB	042H
	DB	061H
	DB	063H
	DB	06bH
	DB	06fH
	DB	075H
	DB	074H
	DB	00H
	ORG $+7
??$_Uninitialized_value_construct_n@V?$allocator@U?$tvec4@M$0A@@glm@@@std@@@std@@YAPEAU?$tvec4@M$0A@@glm@@PEAU12@_KAEAV?$allocator@U?$tvec4@M$0A@@glm@@@0@@Z$rtcVarDesc DD 028H ; std::_Uninitialized_value_construct_n<std::allocator<glm::tvec4<float,0> > >
	DD	018H
	DQ	FLAT:??$_Uninitialized_value_construct_n@V?$allocator@U?$tvec4@M$0A@@glm@@@std@@@std@@YAPEAU?$tvec4@M$0A@@glm@@PEAU12@_KAEAV?$allocator@U?$tvec4@M$0A@@glm@@@0@@Z$rtcName$0
	ORG $+48
??$_Uninitialized_value_construct_n@V?$allocator@U?$tvec4@M$0A@@glm@@@std@@@std@@YAPEAU?$tvec4@M$0A@@glm@@PEAU12@_KAEAV?$allocator@U?$tvec4@M$0A@@glm@@@0@@Z$rtcFrameData DD 01H ; std::_Uninitialized_value_construct_n<std::allocator<glm::tvec4<float,0> > >
	DD	00H
	DQ	FLAT:??$_Uninitialized_value_construct_n@V?$allocator@U?$tvec4@M$0A@@glm@@@std@@@std@@YAPEAU?$tvec4@M$0A@@glm@@PEAU12@_KAEAV?$allocator@U?$tvec4@M$0A@@glm@@@0@@Z$rtcVarDesc
CONST	ENDS
;	COMDAT voltbl
voltbl	SEGMENT
_volmd	DB	00H
	DB	05H
voltbl	ENDS
;	COMDAT xdata
xdata	SEGMENT
$unwind$?catch$0@?0???$_Resize_reallocate@U_Value_init_tag@std@@@?$vector@U?$tvec4@M$0A@@glm@@V?$allocator@U?$tvec4@M$0A@@glm@@@std@@@std@@AEAAX_KAEBU_Value_init_tag@1@@Z@4HA DD 031001H
	DD	0700c4210H
	DD	0500bH
xdata	ENDS
;	COMDAT xdata
xdata	SEGMENT
$ip2state$??$_Resize_reallocate@U_Value_init_tag@std@@@?$vector@U?$tvec4@M$0A@@glm@@V?$allocator@U?$tvec4@M$0A@@glm@@@std@@@std@@AEAAX_KAEBU_Value_init_tag@1@@Z DB 06H
	DB	00H
	DB	00H
	DB	'U', 03H
	DB	02H
	DB	0a8H
	DB	00H
xdata	ENDS
;	COMDAT xdata
xdata	SEGMENT
$handlerMap$??$_Resize_reallocate@U_Value_init_tag@std@@@?$vector@U?$tvec4@M$0A@@glm@@V?$allocator@U?$tvec4@M$0A@@glm@@@std@@@std@@AEAAX_KAEBU_Value_init_tag@1@@Z DB 02H
	DB	01H
	DB	080H
	DD	imagerel ?catch$0@?0???$_Resize_reallocate@U_Value_init_tag@std@@@?$vector@U?$tvec4@M$0A@@glm@@V?$allocator@U?$tvec4@M$0A@@glm@@@std@@@std@@AEAAX_KAEBU_Value_init_tag@1@@Z@4HA
xdata	ENDS
;	COMDAT xdata
xdata	SEGMENT
$tryMap$??$_Resize_reallocate@U_Value_init_tag@std@@@?$vector@U?$tvec4@M$0A@@glm@@V?$allocator@U?$tvec4@M$0A@@glm@@@std@@@std@@AEAAX_KAEBU_Value_init_tag@1@@Z DB 02H
	DB	00H
	DB	00H
	DB	02H
	DD	imagerel $handlerMap$??$_Resize_reallocate@U_Value_init_tag@std@@@?$vector@U?$tvec4@M$0A@@glm@@V?$allocator@U?$tvec4@M$0A@@glm@@@std@@@std@@AEAAX_KAEBU_Value_init_tag@1@@Z
xdata	ENDS
;	COMDAT xdata
xdata	SEGMENT
$stateUnwindMap$??$_Resize_reallocate@U_Value_init_tag@std@@@?$vector@U?$tvec4@M$0A@@glm@@V?$allocator@U?$tvec4@M$0A@@glm@@@std@@@std@@AEAAX_KAEBU_Value_init_tag@1@@Z DB 04H
	DB	08H
	DB	010H
xdata	ENDS
;	COMDAT xdata
xdata	SEGMENT
$cppxdata$??$_Resize_reallocate@U_Value_init_tag@std@@@?$vector@U?$tvec4@M$0A@@glm@@V?$allocator@U?$tvec4@M$0A@@glm@@@std@@@std@@AEAAX_KAEBU_Value_init_tag@1@@Z DB 038H
	DD	imagerel $stateUnwindMap$??$_Resize_reallocate@U_Value_init_tag@std@@@?$vector@U?$tvec4@M$0A@@glm@@V?$allocator@U?$tvec4@M$0A@@glm@@@std@@@std@@AEAAX_KAEBU_Value_init_tag@1@@Z
	DD	imagerel $tryMap$??$_Resize_reallocate@U_Value_init_tag@std@@@?$vector@U?$tvec4@M$0A@@glm@@V?$allocator@U?$tvec4@M$0A@@glm@@@std@@@std@@AEAAX_KAEBU_Value_init_tag@1@@Z
	DD	imagerel $ip2state$??$_Resize_reallocate@U_Value_init_tag@std@@@?$vector@U?$tvec4@M$0A@@glm@@V?$allocator@U?$tvec4@M$0A@@glm@@@std@@@std@@AEAAX_KAEBU_Value_init_tag@1@@Z
xdata	ENDS
;	COMDAT xdata
xdata	SEGMENT
$unwind$??$_Resize_reallocate@U_Value_init_tag@std@@@?$vector@U?$tvec4@M$0A@@glm@@V?$allocator@U?$tvec4@M$0A@@glm@@@std@@@std@@AEAAX_KAEBU_Value_init_tag@1@@Z DD 021419H
	DD	07010d214H
	DD	imagerel __CxxFrameHandler4
	DD	imagerel $cppxdata$??$_Resize_reallocate@U_Value_init_tag@std@@@?$vector@U?$tvec4@M$0A@@glm@@V?$allocator@U?$tvec4@M$0A@@glm@@@std@@@std@@AEAAX_KAEBU_Value_init_tag@1@@Z
xdata	ENDS
;	COMDAT xdata
xdata	SEGMENT
$unwind$??$taylorSeriesNewCos6@M$0A@Utvec1@glm@@@taylorCos@@YA?AU?$tvec1@M$0A@@glm@@AEBU12@@Z DD 032b01H
	DD	0140112H
	DD	0700bH
xdata	ENDS
;	COMDAT CONST
CONST	SEGMENT
??$taylorSeriesNewCos6@M$0A@Utvec1@glm@@@taylorCos@@YA?AU?$tvec1@M$0A@@glm@@AEBU12@@Z$rtcName$0 DB 050H ; taylorCos::taylorSeriesNewCos6<float,0,glm::tvec1>
	DB	06fH
	DB	077H
	DB	065H
	DB	064H
	DB	032H
	DB	00H
	ORG $+1
??$taylorSeriesNewCos6@M$0A@Utvec1@glm@@@taylorCos@@YA?AU?$tvec1@M$0A@@glm@@AEBU12@@Z$rtcName$1 DB 050H ; taylorCos::taylorSeriesNewCos6<float,0,glm::tvec1>
	DB	06fH
	DB	077H
	DB	065H
	DB	064H
	DB	034H
	DB	00H
	ORG $+1
??$taylorSeriesNewCos6@M$0A@Utvec1@glm@@@taylorCos@@YA?AU?$tvec1@M$0A@@glm@@AEBU12@@Z$rtcName$2 DB 050H ; taylorCos::taylorSeriesNewCos6<float,0,glm::tvec1>
	DB	06fH
	DB	077H
	DB	065H
	DB	064H
	DB	036H
	DB	00H
	ORG $+1
??$taylorSeriesNewCos6@M$0A@Utvec1@glm@@@taylorCos@@YA?AU?$tvec1@M$0A@@glm@@AEBU12@@Z$rtcFrameData DD 03H ; taylorCos::taylorSeriesNewCos6<float,0,glm::tvec1>
	DD	00H
	DQ	FLAT:??$taylorSeriesNewCos6@M$0A@Utvec1@glm@@@taylorCos@@YA?AU?$tvec1@M$0A@@glm@@AEBU12@@Z$rtcVarDesc
	ORG $+8
??$taylorSeriesNewCos6@M$0A@Utvec1@glm@@@taylorCos@@YA?AU?$tvec1@M$0A@@glm@@AEBU12@@Z$rtcVarDesc DD 064H ; taylorCos::taylorSeriesNewCos6<float,0,glm::tvec1>
	DD	04H
	DQ	FLAT:??$taylorSeriesNewCos6@M$0A@Utvec1@glm@@@taylorCos@@YA?AU?$tvec1@M$0A@@glm@@AEBU12@@Z$rtcName$2
	DD	044H
	DD	04H
	DQ	FLAT:??$taylorSeriesNewCos6@M$0A@Utvec1@glm@@@taylorCos@@YA?AU?$tvec1@M$0A@@glm@@AEBU12@@Z$rtcName$1
	DD	024H
	DD	04H
	DQ	FLAT:??$taylorSeriesNewCos6@M$0A@Utvec1@glm@@@taylorCos@@YA?AU?$tvec1@M$0A@@glm@@AEBU12@@Z$rtcName$0
CONST	ENDS
;	COMDAT xdata
xdata	SEGMENT
$unwind$??$fastAbs@$0A@Utvec1@glm@@@taylorCos@@YA?AU?$tvec1@M$0A@@glm@@U12@@Z DD 020e01H
	DD	0700a520eH
xdata	ENDS
;	COMDAT xdata
xdata	SEGMENT
$unwind$??$?DM$0A@@glm@@YA?AU?$tvec1@M$0A@@0@AEBU10@0@Z DD 021401H
	DD	070103214H
xdata	ENDS
;	COMDAT xdata
xdata	SEGMENT
$unwind$??$taylorSeriesRefCos@M$0A@Utvec1@glm@@@taylorCos@@YA?AU?$tvec1@M$0A@@glm@@AEBU12@@Z DD 031201H
	DD	0180112H
	DD	0700bH
xdata	ENDS
;	COMDAT xdata
xdata	SEGMENT
$unwind$??$?GM$0A@@glm@@YA?AU?$tvec1@M$0A@@0@AEBU10@0@Z DD 021401H
	DD	070103214H
xdata	ENDS
;	COMDAT xdata
xdata	SEGMENT
$unwind$??$mix@M_N$0A@Utvec1@glm@@@glm@@YA?AU?$tvec1@M$0A@@0@AEBU10@0AEBU?$tvec1@_N$0A@@0@@Z DD 021901H
	DD	070153219H
xdata	ENDS
;	COMDAT xdata
xdata	SEGMENT
$unwind$??0?$tvec1@_N$0A@@glm@@QEAA@W4ctor@1@@Z DD 010a01H
	DD	0700aH
xdata	ENDS
;	COMDAT xdata
xdata	SEGMENT
$unwind$??A?$tvec1@_N$0A@@glm@@QEBAAEB_NH@Z DD 020e01H
	DD	0700a320eH
xdata	ENDS
;	COMDAT xdata
xdata	SEGMENT
$unwind$??A?$tvec1@_N$0A@@glm@@QEAAAEA_NH@Z DD 020e01H
	DD	0700a320eH
xdata	ENDS
;	COMDAT xdata
xdata	SEGMENT
$unwind$?length@?$tvec1@_N$0A@@glm@@SAHXZ DD 010201H
	DD	07002H
xdata	ENDS
;	COMDAT xdata
xdata	SEGMENT
$unwind$??$lessThanEqual@M$0A@Utvec1@glm@@@glm@@YA?AU?$tvec1@_N$0A@@0@AEBU?$tvec1@M$0A@@0@0@Z DD 022a01H
	DD	070109214H
xdata	ENDS
;	COMDAT CONST
CONST	SEGMENT
??$lessThanEqual@M$0A@Utvec1@glm@@@glm@@YA?AU?$tvec1@_N$0A@@0@AEBU?$tvec1@M$0A@@0@0@Z$rtcName$0 DB 052H ; glm::lessThanEqual<float,0,glm::tvec1>
	DB	065H
	DB	073H
	DB	075H
	DB	06cH
	DB	074H
	DB	00H
	ORG $+9
??$lessThanEqual@M$0A@Utvec1@glm@@@glm@@YA?AU?$tvec1@_N$0A@@0@AEBU?$tvec1@M$0A@@0@0@Z$rtcVarDesc DD 024H ; glm::lessThanEqual<float,0,glm::tvec1>
	DD	01H
	DQ	FLAT:??$lessThanEqual@M$0A@Utvec1@glm@@@glm@@YA?AU?$tvec1@_N$0A@@0@AEBU?$tvec1@M$0A@@0@0@Z$rtcName$0
	ORG $+48
??$lessThanEqual@M$0A@Utvec1@glm@@@glm@@YA?AU?$tvec1@_N$0A@@0@AEBU?$tvec1@M$0A@@0@0@Z$rtcFrameData DD 01H ; glm::lessThanEqual<float,0,glm::tvec1>
	DD	00H
	DQ	FLAT:??$lessThanEqual@M$0A@Utvec1@glm@@@glm@@YA?AU?$tvec1@_N$0A@@0@AEBU?$tvec1@M$0A@@0@0@Z$rtcVarDesc
CONST	ENDS
;	COMDAT xdata
xdata	SEGMENT
$unwind$??$abs@M$0A@Utvec1@glm@@@glm@@YA?AU?$tvec1@M$0A@@0@AEBU10@@Z DD 020f01H
	DD	0700b320fH
xdata	ENDS
;	COMDAT xdata
xdata	SEGMENT
$unwind$??$?GM$0A@@glm@@YA?AU?$tvec1@M$0A@@0@AEBU10@M@Z DD 021501H
	DD	070113215H
xdata	ENDS
;	COMDAT xdata
xdata	SEGMENT
$unwind$??$fmod@M$0A@Utvec1@glm@@@glm@@YA?AU?$tvec1@M$0A@@0@AEBU10@M@Z DD 021501H
	DD	070115215H
xdata	ENDS
;	COMDAT xdata
xdata	SEGMENT
$unwind$??$?HM$0A@@glm@@YA?AU?$tvec1@M$0A@@0@AEBU10@M@Z DD 021501H
	DD	070113215H
xdata	ENDS
;	COMDAT xdata
xdata	SEGMENT
$unwind$?call@?$compute_abs@M$00@detail@glm@@SAMM@Z DD 020b01H
	DD	07007320bH
xdata	ENDS
;	COMDAT xdata
xdata	SEGMENT
$unwind$?call@?$functor1@MM$0A@Utvec4@glm@@@detail@glm@@SA?AU?$tvec4@M$0A@@3@P6AMM@ZAEBU43@@Z DD 021401H
	DD	070107214H
xdata	ENDS
;	COMDAT xdata
xdata	SEGMENT
$unwind$??$taylorSeriesRefCos@M$0A@Utvec4@glm@@@taylorCos@@YA?AU?$tvec4@M$0A@@glm@@AEBU12@@Z DD 031201H
	DD	03c0112H
	DD	0700bH
xdata	ENDS
;	COMDAT xdata
xdata	SEGMENT
$unwind$??$?DM$0A@@glm@@YA?AU?$tvec4@M$0A@@0@AEBU10@0@Z DD 031501H
	DD	070116215H
	DD	06010H
xdata	ENDS
;	COMDAT xdata
xdata	SEGMENT
$unwind$??$taylorSeriesNewCos@M$0A@Utvec4@glm@@@taylorCos@@YA?AU?$tvec4@M$0A@@glm@@AEBU12@@Z DD 032b01H
	DD	02c0112H
	DD	0700bH
xdata	ENDS
;	COMDAT CONST
CONST	SEGMENT
??$taylorSeriesNewCos@M$0A@Utvec4@glm@@@taylorCos@@YA?AU?$tvec4@M$0A@@glm@@AEBU12@@Z$rtcName$0 DB 050H ; taylorCos::taylorSeriesNewCos<float,0,glm::tvec4>
	DB	06fH
	DB	077H
	DB	065H
	DB	064H
	DB	032H
	DB	00H
	ORG $+1
??$taylorSeriesNewCos@M$0A@Utvec4@glm@@@taylorCos@@YA?AU?$tvec4@M$0A@@glm@@AEBU12@@Z$rtcName$1 DB 050H ; taylorCos::taylorSeriesNewCos<float,0,glm::tvec4>
	DB	06fH
	DB	077H
	DB	065H
	DB	064H
	DB	034H
	DB	00H
	ORG $+1
??$taylorSeriesNewCos@M$0A@Utvec4@glm@@@taylorCos@@YA?AU?$tvec4@M$0A@@glm@@AEBU12@@Z$rtcName$2 DB 050H ; taylorCos::taylorSeriesNewCos<float,0,glm::tvec4>
	DB	06fH
	DB	077H
	DB	065H
	DB	064H
	DB	036H
	DB	00H
	ORG $+1
??$taylorSeriesNewCos@M$0A@Utvec4@glm@@@taylorCos@@YA?AU?$tvec4@M$0A@@glm@@AEBU12@@Z$rtcName$3 DB 050H ; taylorCos::taylorSeriesNewCos<float,0,glm::tvec4>
	DB	06fH
	DB	077H
	DB	065H
	DB	064H
	DB	038H
	DB	00H
	ORG $+1
??$taylorSeriesNewCos@M$0A@Utvec4@glm@@@taylorCos@@YA?AU?$tvec4@M$0A@@glm@@AEBU12@@Z$rtcVarDesc DD 0b8H ; taylorCos::taylorSeriesNewCos<float,0,glm::tvec4>
	DD	010H
	DQ	FLAT:??$taylorSeriesNewCos@M$0A@Utvec4@glm@@@taylorCos@@YA?AU?$tvec4@M$0A@@glm@@AEBU12@@Z$rtcName$3
	DD	088H
	DD	010H
	DQ	FLAT:??$taylorSeriesNewCos@M$0A@Utvec4@glm@@@taylorCos@@YA?AU?$tvec4@M$0A@@glm@@AEBU12@@Z$rtcName$2
	DD	058H
	DD	010H
	DQ	FLAT:??$taylorSeriesNewCos@M$0A@Utvec4@glm@@@taylorCos@@YA?AU?$tvec4@M$0A@@glm@@AEBU12@@Z$rtcName$1
	DD	028H
	DD	010H
	DQ	FLAT:??$taylorSeriesNewCos@M$0A@Utvec4@glm@@@taylorCos@@YA?AU?$tvec4@M$0A@@glm@@AEBU12@@Z$rtcName$0
	ORG $+192
??$taylorSeriesNewCos@M$0A@Utvec4@glm@@@taylorCos@@YA?AU?$tvec4@M$0A@@glm@@AEBU12@@Z$rtcFrameData DD 04H ; taylorCos::taylorSeriesNewCos<float,0,glm::tvec4>
	DD	00H
	DQ	FLAT:??$taylorSeriesNewCos@M$0A@Utvec4@glm@@@taylorCos@@YA?AU?$tvec4@M$0A@@glm@@AEBU12@@Z$rtcVarDesc
CONST	ENDS
;	COMDAT xdata
xdata	SEGMENT
$unwind$??$?GM$0A@@glm@@YA?AU?$tvec4@M$0A@@0@AEBU10@0@Z DD 031501H
	DD	070116215H
	DD	06010H
xdata	ENDS
;	COMDAT xdata
xdata	SEGMENT
$unwind$??$mix@M_N$0A@Utvec4@glm@@@glm@@YA?AU?$tvec4@M$0A@@0@AEBU10@0AEBU?$tvec4@_N$0A@@0@@Z DD 021901H
	DD	070153219H
xdata	ENDS
;	COMDAT xdata
xdata	SEGMENT
$unwind$??0?$tvec4@_N$0A@@glm@@QEAA@W4ctor@1@@Z DD 010a01H
	DD	0700aH
xdata	ENDS
;	COMDAT xdata
xdata	SEGMENT
$unwind$??A?$tvec4@_N$0A@@glm@@QEBAAEB_NH@Z DD 020e01H
	DD	0700a320eH
xdata	ENDS
;	COMDAT xdata
xdata	SEGMENT
$unwind$??A?$tvec4@_N$0A@@glm@@QEAAAEA_NH@Z DD 020e01H
	DD	0700a320eH
xdata	ENDS
;	COMDAT xdata
xdata	SEGMENT
$unwind$?length@?$tvec4@_N$0A@@glm@@SAHXZ DD 010201H
	DD	07002H
xdata	ENDS
;	COMDAT xdata
xdata	SEGMENT
$unwind$??$lessThanEqual@M$0A@Utvec4@glm@@@glm@@YA?AU?$tvec4@_N$0A@@0@AEBU?$tvec4@M$0A@@0@0@Z DD 022a01H
	DD	070109214H
xdata	ENDS
;	COMDAT CONST
CONST	SEGMENT
??$lessThanEqual@M$0A@Utvec4@glm@@@glm@@YA?AU?$tvec4@_N$0A@@0@AEBU?$tvec4@M$0A@@0@0@Z$rtcName$0 DB 052H ; glm::lessThanEqual<float,0,glm::tvec4>
	DB	065H
	DB	073H
	DB	075H
	DB	06cH
	DB	074H
	DB	00H
	ORG $+9
??$lessThanEqual@M$0A@Utvec4@glm@@@glm@@YA?AU?$tvec4@_N$0A@@0@AEBU?$tvec4@M$0A@@0@0@Z$rtcVarDesc DD 024H ; glm::lessThanEqual<float,0,glm::tvec4>
	DD	04H
	DQ	FLAT:??$lessThanEqual@M$0A@Utvec4@glm@@@glm@@YA?AU?$tvec4@_N$0A@@0@AEBU?$tvec4@M$0A@@0@0@Z$rtcName$0
	ORG $+48
??$lessThanEqual@M$0A@Utvec4@glm@@@glm@@YA?AU?$tvec4@_N$0A@@0@AEBU?$tvec4@M$0A@@0@0@Z$rtcFrameData DD 01H ; glm::lessThanEqual<float,0,glm::tvec4>
	DD	00H
	DQ	FLAT:??$lessThanEqual@M$0A@Utvec4@glm@@@glm@@YA?AU?$tvec4@_N$0A@@0@AEBU?$tvec4@M$0A@@0@0@Z$rtcVarDesc
CONST	ENDS
;	COMDAT xdata
xdata	SEGMENT
$unwind$??$abs@M$0A@Utvec4@glm@@@glm@@YA?AU?$tvec4@M$0A@@0@AEBU10@@Z DD 020f01H
	DD	0700b320fH
xdata	ENDS
;	COMDAT xdata
xdata	SEGMENT
$unwind$??$deterministic_fmod@M$0A@Utvec4@glm@@@taylorCos@@YA?AU?$tvec4@M$0A@@glm@@AEBU12@M@Z DD 021501H
	DD	070119215H
xdata	ENDS
;	COMDAT xdata
xdata	SEGMENT
$unwind$??$taylorSeriesNewCos6@M$0A@Utvec4@glm@@@taylorCos@@YA?AU?$tvec4@M$0A@@glm@@AEBU12@@Z DD 032b01H
	DD	0220112H
	DD	0700bH
xdata	ENDS
;	COMDAT CONST
CONST	SEGMENT
??$taylorSeriesNewCos6@M$0A@Utvec4@glm@@@taylorCos@@YA?AU?$tvec4@M$0A@@glm@@AEBU12@@Z$rtcName$0 DB 050H ; taylorCos::taylorSeriesNewCos6<float,0,glm::tvec4>
	DB	06fH
	DB	077H
	DB	065H
	DB	064H
	DB	032H
	DB	00H
	ORG $+1
??$taylorSeriesNewCos6@M$0A@Utvec4@glm@@@taylorCos@@YA?AU?$tvec4@M$0A@@glm@@AEBU12@@Z$rtcName$1 DB 050H ; taylorCos::taylorSeriesNewCos6<float,0,glm::tvec4>
	DB	06fH
	DB	077H
	DB	065H
	DB	064H
	DB	034H
	DB	00H
	ORG $+1
??$taylorSeriesNewCos6@M$0A@Utvec4@glm@@@taylorCos@@YA?AU?$tvec4@M$0A@@glm@@AEBU12@@Z$rtcName$2 DB 050H ; taylorCos::taylorSeriesNewCos6<float,0,glm::tvec4>
	DB	06fH
	DB	077H
	DB	065H
	DB	064H
	DB	036H
	DB	00H
	ORG $+1
??$taylorSeriesNewCos6@M$0A@Utvec4@glm@@@taylorCos@@YA?AU?$tvec4@M$0A@@glm@@AEBU12@@Z$rtcFrameData DD 03H ; taylorCos::taylorSeriesNewCos6<float,0,glm::tvec4>
	DD	00H
	DQ	FLAT:??$taylorSeriesNewCos6@M$0A@Utvec4@glm@@@taylorCos@@YA?AU?$tvec4@M$0A@@glm@@AEBU12@@Z$rtcVarDesc
	ORG $+8
??$taylorSeriesNewCos6@M$0A@Utvec4@glm@@@taylorCos@@YA?AU?$tvec4@M$0A@@glm@@AEBU12@@Z$rtcVarDesc DD 088H ; taylorCos::taylorSeriesNewCos6<float,0,glm::tvec4>
	DD	010H
	DQ	FLAT:??$taylorSeriesNewCos6@M$0A@Utvec4@glm@@@taylorCos@@YA?AU?$tvec4@M$0A@@glm@@AEBU12@@Z$rtcName$2
	DD	058H
	DD	010H
	DQ	FLAT:??$taylorSeriesNewCos6@M$0A@Utvec4@glm@@@taylorCos@@YA?AU?$tvec4@M$0A@@glm@@AEBU12@@Z$rtcName$1
	DD	028H
	DD	010H
	DQ	FLAT:??$taylorSeriesNewCos6@M$0A@Utvec4@glm@@@taylorCos@@YA?AU?$tvec4@M$0A@@glm@@AEBU12@@Z$rtcName$0
CONST	ENDS
;	COMDAT xdata
xdata	SEGMENT
$unwind$??$fastAbs@$0A@Utvec4@glm@@@taylorCos@@YA?AU?$tvec4@M$0A@@glm@@U12@@Z DD 031001H
	DD	0700c6210H
	DD	0600bH
xdata	ENDS
;	COMDAT xdata
xdata	SEGMENT
$unwind$??$?GM$0A@@glm@@YA?AU?$tvec4@M$0A@@0@AEBU10@M@Z DD 031601H
	DD	070126216H
	DD	06011H
xdata	ENDS
;	COMDAT xdata
xdata	SEGMENT
$unwind$??$fmod@M$0A@Utvec4@glm@@@glm@@YA?AU?$tvec4@M$0A@@0@AEBU10@M@Z DD 021501H
	DD	070115215H
xdata	ENDS
;	COMDAT xdata
xdata	SEGMENT
$unwind$??$?HM$0A@@glm@@YA?AU?$tvec4@M$0A@@0@AEBU10@M@Z DD 031601H
	DD	070126216H
	DD	06011H
xdata	ENDS
;	COMDAT xdata
xdata	SEGMENT
$unwind$??$?YM@?$tvec4@M$0A@@glm@@QEAAAEAU01@AEBU01@@Z DD 031001H
	DD	0700c8210H
	DD	0600bH
xdata	ENDS
;	COMDAT xdata
xdata	SEGMENT
$unwind$??$two_pi@M@glm@@YAMXZ DD 020601H
	DD	070021206H
xdata	ENDS
;	COMDAT xdata
xdata	SEGMENT
$unwind$??$cos_52s@M@detail@glm@@YAMM@Z DD 020b01H
	DD	07007320bH
xdata	ENDS
;	COMDAT xdata
xdata	SEGMENT
$unwind$??$half_pi@M@glm@@YAMXZ DD 020601H
	DD	070021206H
xdata	ENDS
;	COMDAT xdata
xdata	SEGMENT
$unwind$??$wrapAngle@M@glm@@YAMM@Z DD 020b01H
	DD	07007520bH
xdata	ENDS
;	COMDAT xdata
xdata	SEGMENT
$unwind$??$?XM@?$tvec4@M$0A@@glm@@QEAAAEAU01@M@Z DD 031101H
	DD	0700d8211H
	DD	0600cH
xdata	ENDS
;	COMDAT xdata
xdata	SEGMENT
$ip2state$??$_Deallocate@$0BA@$0A@@std@@YAXPEAX_K@Z DB 02H
	DB	00H
	DB	00H
xdata	ENDS
;	COMDAT xdata
xdata	SEGMENT
$cppxdata$??$_Deallocate@$0BA@$0A@@std@@YAXPEAX_K@Z DB 060H
	DD	imagerel $ip2state$??$_Deallocate@$0BA@$0A@@std@@YAXPEAX_K@Z
xdata	ENDS
;	COMDAT xdata
xdata	SEGMENT
$unwind$??$_Deallocate@$0BA@$0A@@std@@YAXPEAX_K@Z DD 020f19H
	DD	0700b320fH
	DD	imagerel __CxxFrameHandler4
	DD	imagerel $cppxdata$??$_Deallocate@$0BA@$0A@@std@@YAXPEAX_K@Z
xdata	ENDS
;	COMDAT xdata
xdata	SEGMENT
$unwind$??$_Destroy_range@V?$allocator@U?$tvec4@M$0A@@glm@@@std@@@std@@YAXPEAU?$tvec4@M$0A@@glm@@QEAU12@AEAV?$allocator@U?$tvec4@M$0A@@glm@@@0@@Z DD 011001H
	DD	07010H
xdata	ENDS
;	COMDAT xdata
xdata	SEGMENT
$unwind$??$_Alloc_proxy@V?$allocator@U_Container_proxy@std@@@std@@@_Container_base12@std@@QEAAX$$QEAV?$allocator@U_Container_proxy@std@@@1@@Z DD 020f01H
	DD	0700b520fH
xdata	ENDS
;	COMDAT xdata
xdata	SEGMENT
$unwind$??$?0$$V@?$_Compressed_pair@V?$allocator@U?$tvec4@M$0A@@glm@@@std@@V?$_Vector_val@U?$_Simple_types@U?$tvec4@M$0A@@glm@@@std@@@2@$00@std@@QEAA@U_Zero_then_variadic_args_t@1@@Z DD 020e01H
	DD	0700a320eH
xdata	ENDS
;	COMDAT xdata
xdata	SEGMENT
$unwind$??$_Delete_plain_internal@V?$allocator@U_Container_proxy@std@@@std@@@std@@YAXAEAV?$allocator@U_Container_proxy@std@@@0@QEAU_Container_proxy@0@@Z DD 020f01H
	DD	0700b320fH
xdata	ENDS
;	COMDAT xdata
xdata	SEGMENT
$unwind$??$exchange@PEAU_Container_proxy@std@@$$T@std@@YAPEAU_Container_proxy@0@AEAPEAU10@$$QEA$$T@Z DD 020f01H
	DD	0700b120fH
xdata	ENDS
;	COMDAT xdata
xdata	SEGMENT
$unwind$??$?0U?$tvec4@M$0A@@glm@@@?$allocator@U_Container_proxy@std@@@std@@QEAA@AEBV?$allocator@U?$tvec4@M$0A@@glm@@@1@@Z DD 010b01H
	DD	0700bH
xdata	ENDS
;	COMDAT xdata
xdata	SEGMENT
$unwind$?allocate@?$allocator@U_Container_proxy@std@@@std@@QEAAPEAU_Container_proxy@2@_K@Z DD 020f01H
	DD	0700b320fH
xdata	ENDS
;	COMDAT xdata
xdata	SEGMENT
$unwind$??$_Resize@U_Value_init_tag@std@@@?$vector@U?$tvec4@M$0A@@glm@@V?$allocator@U?$tvec4@M$0A@@glm@@@std@@@std@@AEAAX_KAEBU_Value_init_tag@1@@Z DD 021401H
	DD	07010b214H
xdata	ENDS
;	COMDAT xdata
xdata	SEGMENT
$unwind$??$fastCosNew@M$0A@Utvec1@glm@@@taylorCos@@YA?AU?$tvec1@M$0A@@glm@@AEBU12@@Z DD 022501H
	DD	0700b920fH
xdata	ENDS
;	COMDAT CONST
CONST	SEGMENT
??$fastCosNew@M$0A@Utvec1@glm@@@taylorCos@@YA?AU?$tvec1@M$0A@@glm@@AEBU12@@Z$rtcName$0 DB 041H ; taylorCos::fastCosNew<float,0,glm::tvec1>
	DB	06eH
	DB	067H
	DB	06cH
	DB	065H
	DB	030H
	DB	05fH
	DB	050H
	DB	049H
	DB	00H
	ORG $+6
??$fastCosNew@M$0A@Utvec1@glm@@@taylorCos@@YA?AU?$tvec1@M$0A@@glm@@AEBU12@@Z$rtcVarDesc DD 024H ; taylorCos::fastCosNew<float,0,glm::tvec1>
	DD	04H
	DQ	FLAT:??$fastCosNew@M$0A@Utvec1@glm@@@taylorCos@@YA?AU?$tvec1@M$0A@@glm@@AEBU12@@Z$rtcName$0
	ORG $+48
??$fastCosNew@M$0A@Utvec1@glm@@@taylorCos@@YA?AU?$tvec1@M$0A@@glm@@AEBU12@@Z$rtcFrameData DD 01H ; taylorCos::fastCosNew<float,0,glm::tvec1>
	DD	00H
	DQ	FLAT:??$fastCosNew@M$0A@Utvec1@glm@@@taylorCos@@YA?AU?$tvec1@M$0A@@glm@@AEBU12@@Z$rtcVarDesc
CONST	ENDS
;	COMDAT xdata
xdata	SEGMENT
$unwind$??$fastRefCos@M$0A@Utvec1@glm@@@taylorCos@@YA?AU?$tvec1@M$0A@@glm@@AEBU12@@Z DD 032b01H
	DD	01e0112H
	DD	0700bH
xdata	ENDS
;	COMDAT CONST
CONST	SEGMENT
??$fastRefCos@M$0A@Utvec1@glm@@@taylorCos@@YA?AU?$tvec1@M$0A@@glm@@AEBU12@@Z$rtcName$0 DB 041H ; taylorCos::fastRefCos<float,0,glm::tvec1>
	DB	06eH
	DB	067H
	DB	06cH
	DB	065H
	DB	030H
	DB	05fH
	DB	050H
	DB	049H
	DB	00H
	ORG $+6
??$fastRefCos@M$0A@Utvec1@glm@@@taylorCos@@YA?AU?$tvec1@M$0A@@glm@@AEBU12@@Z$rtcName$1 DB 046H ; taylorCos::fastRefCos<float,0,glm::tvec1>
	DB	069H
	DB	072H
	DB	073H
	DB	074H
	DB	051H
	DB	075H
	DB	061H
	DB	072H
	DB	074H
	DB	065H
	DB	072H
	DB	050H
	DB	069H
	DB	00H
	ORG $+1
??$fastRefCos@M$0A@Utvec1@glm@@@taylorCos@@YA?AU?$tvec1@M$0A@@glm@@AEBU12@@Z$rtcName$2 DB 052H ; taylorCos::fastRefCos<float,0,glm::tvec1>
	DB	065H
	DB	076H
	DB	065H
	DB	072H
	DB	074H
	DB	041H
	DB	06eH
	DB	067H
	DB	06cH
	DB	065H
	DB	00H
	ORG $+4
??$fastRefCos@M$0A@Utvec1@glm@@@taylorCos@@YA?AU?$tvec1@M$0A@@glm@@AEBU12@@Z$rtcName$3 DB 052H ; taylorCos::fastRefCos<float,0,glm::tvec1>
	DB	065H
	DB	074H
	DB	075H
	DB	072H
	DB	06eH
	DB	053H
	DB	069H
	DB	067H
	DB	06eH
	DB	00H
	ORG $+5
??$fastRefCos@M$0A@Utvec1@glm@@@taylorCos@@YA?AU?$tvec1@M$0A@@glm@@AEBU12@@Z$rtcName$4 DB 053H ; taylorCos::fastRefCos<float,0,glm::tvec1>
	DB	065H
	DB	063H
	DB	074H
	DB	069H
	DB	06fH
	DB	06eH
	DB	041H
	DB	06eH
	DB	067H
	DB	06cH
	DB	065H
	DB	00H
	ORG $+3
??$fastRefCos@M$0A@Utvec1@glm@@@taylorCos@@YA?AU?$tvec1@M$0A@@glm@@AEBU12@@Z$rtcVarDesc DD 0a4H ; taylorCos::fastRefCos<float,0,glm::tvec1>
	DD	04H
	DQ	FLAT:??$fastRefCos@M$0A@Utvec1@glm@@@taylorCos@@YA?AU?$tvec1@M$0A@@glm@@AEBU12@@Z$rtcName$4
	DD	084H
	DD	04H
	DQ	FLAT:??$fastRefCos@M$0A@Utvec1@glm@@@taylorCos@@YA?AU?$tvec1@M$0A@@glm@@AEBU12@@Z$rtcName$3
	DD	064H
	DD	04H
	DQ	FLAT:??$fastRefCos@M$0A@Utvec1@glm@@@taylorCos@@YA?AU?$tvec1@M$0A@@glm@@AEBU12@@Z$rtcName$2
	DD	044H
	DD	01H
	DQ	FLAT:??$fastRefCos@M$0A@Utvec1@glm@@@taylorCos@@YA?AU?$tvec1@M$0A@@glm@@AEBU12@@Z$rtcName$1
	DD	024H
	DD	04H
	DQ	FLAT:??$fastRefCos@M$0A@Utvec1@glm@@@taylorCos@@YA?AU?$tvec1@M$0A@@glm@@AEBU12@@Z$rtcName$0
	ORG $+240
??$fastRefCos@M$0A@Utvec1@glm@@@taylorCos@@YA?AU?$tvec1@M$0A@@glm@@AEBU12@@Z$rtcFrameData DD 05H ; taylorCos::fastRefCos<float,0,glm::tvec1>
	DD	00H
	DQ	FLAT:??$fastRefCos@M$0A@Utvec1@glm@@@taylorCos@@YA?AU?$tvec1@M$0A@@glm@@AEBU12@@Z$rtcVarDesc
CONST	ENDS
;	COMDAT xdata
xdata	SEGMENT
$unwind$??0?$tvec1@M$0A@@glm@@QEAA@M@Z DD 010c01H
	DD	0700cH
xdata	ENDS
;	COMDAT xdata
xdata	SEGMENT
$unwind$??0?$tvec1@M$0A@@glm@@QEAA@W4ctor@1@@Z DD 010a01H
	DD	0700aH
xdata	ENDS
;	COMDAT xdata
xdata	SEGMENT
$unwind$??A?$tvec1@M$0A@@glm@@QEBAAEBMH@Z DD 020e01H
	DD	0700a320eH
xdata	ENDS
;	COMDAT xdata
xdata	SEGMENT
$unwind$??A?$tvec1@M$0A@@glm@@QEAAAEAMH@Z DD 020e01H
	DD	0700a320eH
xdata	ENDS
;	COMDAT xdata
xdata	SEGMENT
$unwind$?length@?$tvec1@M$0A@@glm@@SAHXZ DD 010201H
	DD	07002H
xdata	ENDS
;	COMDAT xdata
xdata	SEGMENT
$unwind$??$radians@M@glm@@YAMM@Z DD 020b01H
	DD	07007120bH
xdata	ENDS
;	COMDAT xdata
xdata	SEGMENT
$unwind$??$abs@M@glm@@YAMM@Z DD 020b01H
	DD	07007520bH
xdata	ENDS
;	COMDAT xdata
xdata	SEGMENT
$unwind$??$cos@M$0A@Utvec4@glm@@@glm@@YA?AU?$tvec4@M$0A@@0@AEBU10@@Z DD 020f01H
	DD	0700b320fH
xdata	ENDS
;	COMDAT xdata
xdata	SEGMENT
$unwind$??$fastCos@M$0A@Utvec4@glm@@@glm@@YA?AU?$tvec4@M$0A@@0@AEBU10@@Z DD 020f01H
	DD	0700b320fH
xdata	ENDS
;	COMDAT xdata
xdata	SEGMENT
$unwind$??$fastRefCos@M$0A@Utvec4@glm@@@taylorCos@@YA?AU?$tvec4@M$0A@@glm@@AEBU12@@Z DD 032b01H
	DD	0340112H
	DD	0700bH
xdata	ENDS
;	COMDAT CONST
CONST	SEGMENT
??$fastRefCos@M$0A@Utvec4@glm@@@taylorCos@@YA?AU?$tvec4@M$0A@@glm@@AEBU12@@Z$rtcName$0 DB 041H ; taylorCos::fastRefCos<float,0,glm::tvec4>
	DB	06eH
	DB	067H
	DB	06cH
	DB	065H
	DB	030H
	DB	05fH
	DB	050H
	DB	049H
	DB	00H
	ORG $+6
??$fastRefCos@M$0A@Utvec4@glm@@@taylorCos@@YA?AU?$tvec4@M$0A@@glm@@AEBU12@@Z$rtcName$1 DB 046H ; taylorCos::fastRefCos<float,0,glm::tvec4>
	DB	069H
	DB	072H
	DB	073H
	DB	074H
	DB	051H
	DB	075H
	DB	061H
	DB	072H
	DB	074H
	DB	065H
	DB	072H
	DB	050H
	DB	069H
	DB	00H
	ORG $+1
??$fastRefCos@M$0A@Utvec4@glm@@@taylorCos@@YA?AU?$tvec4@M$0A@@glm@@AEBU12@@Z$rtcName$2 DB 052H ; taylorCos::fastRefCos<float,0,glm::tvec4>
	DB	065H
	DB	076H
	DB	065H
	DB	072H
	DB	074H
	DB	041H
	DB	06eH
	DB	067H
	DB	06cH
	DB	065H
	DB	00H
	ORG $+4
??$fastRefCos@M$0A@Utvec4@glm@@@taylorCos@@YA?AU?$tvec4@M$0A@@glm@@AEBU12@@Z$rtcName$3 DB 052H ; taylorCos::fastRefCos<float,0,glm::tvec4>
	DB	065H
	DB	074H
	DB	075H
	DB	072H
	DB	06eH
	DB	053H
	DB	069H
	DB	067H
	DB	06eH
	DB	00H
	ORG $+5
??$fastRefCos@M$0A@Utvec4@glm@@@taylorCos@@YA?AU?$tvec4@M$0A@@glm@@AEBU12@@Z$rtcName$4 DB 053H ; taylorCos::fastRefCos<float,0,glm::tvec4>
	DB	065H
	DB	063H
	DB	074H
	DB	069H
	DB	06fH
	DB	06eH
	DB	041H
	DB	06eH
	DB	067H
	DB	06cH
	DB	065H
	DB	00H
	ORG $+3
??$fastRefCos@M$0A@Utvec4@glm@@@taylorCos@@YA?AU?$tvec4@M$0A@@glm@@AEBU12@@Z$rtcVarDesc DD 0d8H ; taylorCos::fastRefCos<float,0,glm::tvec4>
	DD	010H
	DQ	FLAT:??$fastRefCos@M$0A@Utvec4@glm@@@taylorCos@@YA?AU?$tvec4@M$0A@@glm@@AEBU12@@Z$rtcName$4
	DD	0a8H
	DD	010H
	DQ	FLAT:??$fastRefCos@M$0A@Utvec4@glm@@@taylorCos@@YA?AU?$tvec4@M$0A@@glm@@AEBU12@@Z$rtcName$3
	DD	078H
	DD	010H
	DQ	FLAT:??$fastRefCos@M$0A@Utvec4@glm@@@taylorCos@@YA?AU?$tvec4@M$0A@@glm@@AEBU12@@Z$rtcName$2
	DD	054H
	DD	04H
	DQ	FLAT:??$fastRefCos@M$0A@Utvec4@glm@@@taylorCos@@YA?AU?$tvec4@M$0A@@glm@@AEBU12@@Z$rtcName$1
	DD	028H
	DD	010H
	DQ	FLAT:??$fastRefCos@M$0A@Utvec4@glm@@@taylorCos@@YA?AU?$tvec4@M$0A@@glm@@AEBU12@@Z$rtcName$0
	ORG $+240
??$fastRefCos@M$0A@Utvec4@glm@@@taylorCos@@YA?AU?$tvec4@M$0A@@glm@@AEBU12@@Z$rtcFrameData DD 05H ; taylorCos::fastRefCos<float,0,glm::tvec4>
	DD	00H
	DQ	FLAT:??$fastRefCos@M$0A@Utvec4@glm@@@taylorCos@@YA?AU?$tvec4@M$0A@@glm@@AEBU12@@Z$rtcVarDesc
CONST	ENDS
;	COMDAT xdata
xdata	SEGMENT
$unwind$??$fastCosDeterminisctic@M$0A@Utvec4@glm@@@taylorCos@@YA?AU?$tvec4@M$0A@@glm@@AEBU12@@Z DD 032b01H
	DD	0340112H
	DD	0700bH
xdata	ENDS
;	COMDAT CONST
CONST	SEGMENT
??$fastCosDeterminisctic@M$0A@Utvec4@glm@@@taylorCos@@YA?AU?$tvec4@M$0A@@glm@@AEBU12@@Z$rtcName$0 DB 041H ; taylorCos::fastCosDeterminisctic<float,0,glm::tvec4>
	DB	06eH
	DB	067H
	DB	06cH
	DB	065H
	DB	030H
	DB	05fH
	DB	050H
	DB	049H
	DB	00H
	ORG $+6
??$fastCosDeterminisctic@M$0A@Utvec4@glm@@@taylorCos@@YA?AU?$tvec4@M$0A@@glm@@AEBU12@@Z$rtcName$1 DB 046H ; taylorCos::fastCosDeterminisctic<float,0,glm::tvec4>
	DB	069H
	DB	072H
	DB	073H
	DB	074H
	DB	051H
	DB	075H
	DB	061H
	DB	072H
	DB	074H
	DB	065H
	DB	072H
	DB	050H
	DB	069H
	DB	00H
	ORG $+1
??$fastCosDeterminisctic@M$0A@Utvec4@glm@@@taylorCos@@YA?AU?$tvec4@M$0A@@glm@@AEBU12@@Z$rtcName$2 DB 052H ; taylorCos::fastCosDeterminisctic<float,0,glm::tvec4>
	DB	065H
	DB	076H
	DB	065H
	DB	072H
	DB	074H
	DB	041H
	DB	06eH
	DB	067H
	DB	06cH
	DB	065H
	DB	00H
	ORG $+4
??$fastCosDeterminisctic@M$0A@Utvec4@glm@@@taylorCos@@YA?AU?$tvec4@M$0A@@glm@@AEBU12@@Z$rtcName$3 DB 052H ; taylorCos::fastCosDeterminisctic<float,0,glm::tvec4>
	DB	065H
	DB	074H
	DB	075H
	DB	072H
	DB	06eH
	DB	053H
	DB	069H
	DB	067H
	DB	06eH
	DB	00H
	ORG $+5
??$fastCosDeterminisctic@M$0A@Utvec4@glm@@@taylorCos@@YA?AU?$tvec4@M$0A@@glm@@AEBU12@@Z$rtcName$4 DB 053H ; taylorCos::fastCosDeterminisctic<float,0,glm::tvec4>
	DB	065H
	DB	063H
	DB	074H
	DB	069H
	DB	06fH
	DB	06eH
	DB	041H
	DB	06eH
	DB	067H
	DB	06cH
	DB	065H
	DB	00H
	ORG $+3
??$fastCosDeterminisctic@M$0A@Utvec4@glm@@@taylorCos@@YA?AU?$tvec4@M$0A@@glm@@AEBU12@@Z$rtcVarDesc DD 0d8H ; taylorCos::fastCosDeterminisctic<float,0,glm::tvec4>
	DD	010H
	DQ	FLAT:??$fastCosDeterminisctic@M$0A@Utvec4@glm@@@taylorCos@@YA?AU?$tvec4@M$0A@@glm@@AEBU12@@Z$rtcName$4
	DD	0a8H
	DD	010H
	DQ	FLAT:??$fastCosDeterminisctic@M$0A@Utvec4@glm@@@taylorCos@@YA?AU?$tvec4@M$0A@@glm@@AEBU12@@Z$rtcName$3
	DD	078H
	DD	010H
	DQ	FLAT:??$fastCosDeterminisctic@M$0A@Utvec4@glm@@@taylorCos@@YA?AU?$tvec4@M$0A@@glm@@AEBU12@@Z$rtcName$2
	DD	054H
	DD	04H
	DQ	FLAT:??$fastCosDeterminisctic@M$0A@Utvec4@glm@@@taylorCos@@YA?AU?$tvec4@M$0A@@glm@@AEBU12@@Z$rtcName$1
	DD	028H
	DD	010H
	DQ	FLAT:??$fastCosDeterminisctic@M$0A@Utvec4@glm@@@taylorCos@@YA?AU?$tvec4@M$0A@@glm@@AEBU12@@Z$rtcName$0
	ORG $+240
??$fastCosDeterminisctic@M$0A@Utvec4@glm@@@taylorCos@@YA?AU?$tvec4@M$0A@@glm@@AEBU12@@Z$rtcFrameData DD 05H ; taylorCos::fastCosDeterminisctic<float,0,glm::tvec4>
	DD	00H
	DQ	FLAT:??$fastCosDeterminisctic@M$0A@Utvec4@glm@@@taylorCos@@YA?AU?$tvec4@M$0A@@glm@@AEBU12@@Z$rtcVarDesc
CONST	ENDS
;	COMDAT xdata
xdata	SEGMENT
$unwind$??$fastCosNew@M$0A@Utvec4@glm@@@taylorCos@@YA?AU?$tvec4@M$0A@@glm@@AEBU12@@Z DD 042c01H
	DD	0150113H
	DD	0600b700cH
xdata	ENDS
;	COMDAT CONST
CONST	SEGMENT
??$fastCosNew@M$0A@Utvec4@glm@@@taylorCos@@YA?AU?$tvec4@M$0A@@glm@@AEBU12@@Z$rtcName$0 DB 041H ; taylorCos::fastCosNew<float,0,glm::tvec4>
	DB	06eH
	DB	067H
	DB	06cH
	DB	065H
	DB	030H
	DB	05fH
	DB	050H
	DB	049H
	DB	00H
	ORG $+6
??$fastCosNew@M$0A@Utvec4@glm@@@taylorCos@@YA?AU?$tvec4@M$0A@@glm@@AEBU12@@Z$rtcVarDesc DD 028H ; taylorCos::fastCosNew<float,0,glm::tvec4>
	DD	010H
	DQ	FLAT:??$fastCosNew@M$0A@Utvec4@glm@@@taylorCos@@YA?AU?$tvec4@M$0A@@glm@@AEBU12@@Z$rtcName$0
	ORG $+48
??$fastCosNew@M$0A@Utvec4@glm@@@taylorCos@@YA?AU?$tvec4@M$0A@@glm@@AEBU12@@Z$rtcFrameData DD 01H ; taylorCos::fastCosNew<float,0,glm::tvec4>
	DD	00H
	DQ	FLAT:??$fastCosNew@M$0A@Utvec4@glm@@@taylorCos@@YA?AU?$tvec4@M$0A@@glm@@AEBU12@@Z$rtcVarDesc
CONST	ENDS
;	COMDAT xdata
xdata	SEGMENT
$unwind$??$?HM$0A@@glm@@YA?AU?$tvec4@M$0A@@0@AEBU10@0@Z DD 031501H
	DD	070116215H
	DD	06010H
xdata	ENDS
;	COMDAT xdata
xdata	SEGMENT
$unwind$?_Get_first@?$_Compressed_pair@V?$allocator@U?$tvec4@M$0A@@glm@@@std@@V?$_Vector_val@U?$_Simple_types@U?$tvec4@M$0A@@glm@@@std@@@2@$00@std@@QEBAAEBV?$allocator@U?$tvec4@M$0A@@glm@@@2@XZ DD 010601H
	DD	07006H
xdata	ENDS
;	COMDAT xdata
xdata	SEGMENT
$unwind$?_Get_first@?$_Compressed_pair@V?$allocator@U?$tvec4@M$0A@@glm@@@std@@V?$_Vector_val@U?$_Simple_types@U?$tvec4@M$0A@@glm@@@std@@@2@$00@std@@QEAAAEAV?$allocator@U?$tvec4@M$0A@@glm@@@2@XZ DD 010601H
	DD	07006H
xdata	ENDS
;	COMDAT xdata
xdata	SEGMENT
$unwind$??0?$_Vector_val@U?$_Simple_types@U?$tvec4@M$0A@@glm@@@std@@@std@@QEAA@XZ DD 020a01H
	DD	07006320aH
xdata	ENDS
;	COMDAT xdata
xdata	SEGMENT
$unwind$?_Getal@?$vector@U?$tvec4@M$0A@@glm@@V?$allocator@U?$tvec4@M$0A@@glm@@@std@@@std@@AEBAAEBV?$allocator@U?$tvec4@M$0A@@glm@@@2@XZ DD 020a01H
	DD	07006320aH
xdata	ENDS
;	COMDAT xdata
xdata	SEGMENT
$unwind$?_Getal@?$vector@U?$tvec4@M$0A@@glm@@V?$allocator@U?$tvec4@M$0A@@glm@@@std@@@std@@AEAAAEAV?$allocator@U?$tvec4@M$0A@@glm@@@2@XZ DD 020a01H
	DD	07006320aH
xdata	ENDS
;	COMDAT xdata
xdata	SEGMENT
$unwind$?_Orphan_range@?$vector@U?$tvec4@M$0A@@glm@@V?$allocator@U?$tvec4@M$0A@@glm@@@std@@@std@@AEBAXPEAU?$tvec4@M$0A@@glm@@0@Z DD 021401H
	DD	070103214H
xdata	ENDS
;	COMDAT voltbl
voltbl	SEGMENT
_volmd	DB	00H
	DB	05H
voltbl	ENDS
;	COMDAT xdata
xdata	SEGMENT
$unwind$?dtor$0@?0??_Orphan_range_locked@?$vector@U?$tvec4@M$0A@@glm@@V?$allocator@U?$tvec4@M$0A@@glm@@@std@@@std@@AEBAXPEAU?$tvec4@M$0A@@glm@@0@Z@4HA DD 031001H
	DD	0700c4210H
	DD	0500bH
xdata	ENDS
;	COMDAT xdata
xdata	SEGMENT
$ip2state$?_Orphan_range_locked@?$vector@U?$tvec4@M$0A@@glm@@V?$allocator@U?$tvec4@M$0A@@glm@@@std@@@std@@AEBAXPEAU?$tvec4@M$0A@@glm@@0@Z DB 06H
	DB	00H
	DB	00H
	DB	'v'
	DB	02H
	DB	'*'
	DB	00H
xdata	ENDS
;	COMDAT xdata
xdata	SEGMENT
$stateUnwindMap$?_Orphan_range_locked@?$vector@U?$tvec4@M$0A@@glm@@V?$allocator@U?$tvec4@M$0A@@glm@@@std@@@std@@AEBAXPEAU?$tvec4@M$0A@@glm@@0@Z DB 02H
	DB	0eH
	DD	imagerel ?dtor$0@?0??_Orphan_range_locked@?$vector@U?$tvec4@M$0A@@glm@@V?$allocator@U?$tvec4@M$0A@@glm@@@std@@@std@@AEBAXPEAU?$tvec4@M$0A@@glm@@0@Z@4HA
xdata	ENDS
;	COMDAT xdata
xdata	SEGMENT
$cppxdata$?_Orphan_range_locked@?$vector@U?$tvec4@M$0A@@glm@@V?$allocator@U?$tvec4@M$0A@@glm@@@std@@@std@@AEBAXPEAU?$tvec4@M$0A@@glm@@0@Z DB 028H
	DD	imagerel $stateUnwindMap$?_Orphan_range_locked@?$vector@U?$tvec4@M$0A@@glm@@V?$allocator@U?$tvec4@M$0A@@glm@@@std@@@std@@AEBAXPEAU?$tvec4@M$0A@@glm@@0@Z
	DD	imagerel $ip2state$?_Orphan_range_locked@?$vector@U?$tvec4@M$0A@@glm@@V?$allocator@U?$tvec4@M$0A@@glm@@@std@@@std@@AEBAXPEAU?$tvec4@M$0A@@glm@@0@Z
xdata	ENDS
;	COMDAT xdata
xdata	SEGMENT
$unwind$?_Orphan_range_locked@?$vector@U?$tvec4@M$0A@@glm@@V?$allocator@U?$tvec4@M$0A@@glm@@@std@@@std@@AEBAXPEAU?$tvec4@M$0A@@glm@@0@Z DD 022a11H
	DD	070107214H
	DD	imagerel __CxxFrameHandler4
	DD	imagerel $cppxdata$?_Orphan_range_locked@?$vector@U?$tvec4@M$0A@@glm@@V?$allocator@U?$tvec4@M$0A@@glm@@@std@@@std@@AEBAXPEAU?$tvec4@M$0A@@glm@@0@Z
xdata	ENDS
;	COMDAT CONST
CONST	SEGMENT
?_Orphan_range_locked@?$vector@U?$tvec4@M$0A@@glm@@V?$allocator@U?$tvec4@M$0A@@glm@@@std@@@std@@AEBAXPEAU?$tvec4@M$0A@@glm@@0@Z$rtcName$0 DB 05fH ; std::vector<glm::tvec4<float,0>,std::allocator<glm::tvec4<float,0> > >::_Orphan_range_locked
	DB	04cH
	DB	06fH
	DB	063H
	DB	06bH
	DB	00H
	ORG $+10
?_Orphan_range_locked@?$vector@U?$tvec4@M$0A@@glm@@V?$allocator@U?$tvec4@M$0A@@glm@@@std@@@std@@AEBAXPEAU?$tvec4@M$0A@@glm@@0@Z$rtcVarDesc DD 024H ; std::vector<glm::tvec4<float,0>,std::allocator<glm::tvec4<float,0> > >::_Orphan_range_locked
	DD	04H
	DQ	FLAT:?_Orphan_range_locked@?$vector@U?$tvec4@M$0A@@glm@@V?$allocator@U?$tvec4@M$0A@@glm@@@std@@@std@@AEBAXPEAU?$tvec4@M$0A@@glm@@0@Z$rtcName$0
	ORG $+48
?_Orphan_range_locked@?$vector@U?$tvec4@M$0A@@glm@@V?$allocator@U?$tvec4@M$0A@@glm@@@std@@@std@@AEBAXPEAU?$tvec4@M$0A@@glm@@0@Z$rtcFrameData DD 01H ; std::vector<glm::tvec4<float,0>,std::allocator<glm::tvec4<float,0> > >::_Orphan_range_locked
	DD	00H
	DQ	FLAT:?_Orphan_range_locked@?$vector@U?$tvec4@M$0A@@glm@@V?$allocator@U?$tvec4@M$0A@@glm@@@std@@@std@@AEBAXPEAU?$tvec4@M$0A@@glm@@0@Z$rtcVarDesc
CONST	ENDS
;	COMDAT xdata
xdata	SEGMENT
$unwind$?_Orphan_range_unlocked@?$vector@U?$tvec4@M$0A@@glm@@V?$allocator@U?$tvec4@M$0A@@glm@@@std@@@std@@AEBAXPEAU?$tvec4@M$0A@@glm@@0@Z DD 021401H
	DD	070103214H
xdata	ENDS
;	COMDAT xdata
xdata	SEGMENT
$unwind$?_Xlength@?$vector@U?$tvec4@M$0A@@glm@@V?$allocator@U?$tvec4@M$0A@@glm@@@std@@@std@@CAXXZ DD 020601H
	DD	070023206H
xdata	ENDS
;	COMDAT xdata
xdata	SEGMENT
$ip2state$?_Tidy@?$vector@U?$tvec4@M$0A@@glm@@V?$allocator@U?$tvec4@M$0A@@glm@@@std@@@std@@AEAAXXZ DB 02H
	DB	00H
	DB	00H
xdata	ENDS
;	COMDAT xdata
xdata	SEGMENT
$cppxdata$?_Tidy@?$vector@U?$tvec4@M$0A@@glm@@V?$allocator@U?$tvec4@M$0A@@glm@@@std@@@std@@AEAAXXZ DB 060H
	DD	imagerel $ip2state$?_Tidy@?$vector@U?$tvec4@M$0A@@glm@@V?$allocator@U?$tvec4@M$0A@@glm@@@std@@@std@@AEAAXXZ
xdata	ENDS
;	COMDAT xdata
xdata	SEGMENT
$unwind$?_Tidy@?$vector@U?$tvec4@M$0A@@glm@@V?$allocator@U?$tvec4@M$0A@@glm@@@std@@@std@@AEAAXXZ DD 020a19H
	DD	07006920aH
	DD	imagerel __CxxFrameHandler4
	DD	imagerel $cppxdata$?_Tidy@?$vector@U?$tvec4@M$0A@@glm@@V?$allocator@U?$tvec4@M$0A@@glm@@@std@@@std@@AEAAXXZ
xdata	ENDS
;	COMDAT xdata
xdata	SEGMENT
$unwind$?_Change_array@?$vector@U?$tvec4@M$0A@@glm@@V?$allocator@U?$tvec4@M$0A@@glm@@@std@@@std@@AEAAXQEAU?$tvec4@M$0A@@glm@@_K1@Z DD 021901H
	DD	070159219H
xdata	ENDS
;	COMDAT xdata
xdata	SEGMENT
$unwind$?_Calculate_growth@?$vector@U?$tvec4@M$0A@@glm@@V?$allocator@U?$tvec4@M$0A@@glm@@@std@@@std@@AEBA_K_K@Z DD 020f01H
	DD	0700b720fH
xdata	ENDS
;	COMDAT xdata
xdata	SEGMENT
$unwind$??A?$vector@U?$tvec4@M$0A@@glm@@V?$allocator@U?$tvec4@M$0A@@glm@@@std@@@std@@QEAAAEAU?$tvec4@M$0A@@glm@@_K@Z DD 020f01H
	DD	0700b720fH
xdata	ENDS
;	COMDAT xdata
xdata	SEGMENT
$unwind$?capacity@?$vector@U?$tvec4@M$0A@@glm@@V?$allocator@U?$tvec4@M$0A@@glm@@@std@@@std@@QEBA_KXZ DD 020a01H
	DD	07006120aH
xdata	ENDS
;	COMDAT xdata
xdata	SEGMENT
$unwind$?max_size@?$vector@U?$tvec4@M$0A@@glm@@V?$allocator@U?$tvec4@M$0A@@glm@@@std@@@std@@QEBA_KXZ DD 020a01H
	DD	07006520aH
xdata	ENDS
;	COMDAT xdata
xdata	SEGMENT
$unwind$?resize@?$vector@U?$tvec4@M$0A@@glm@@V?$allocator@U?$tvec4@M$0A@@glm@@@std@@@std@@QEAAX_K@Z DD 020f01H
	DD	0700b520fH
xdata	ENDS
;	COMDAT xdata
xdata	SEGMENT
$unwind$??1?$vector@U?$tvec4@M$0A@@glm@@V?$allocator@U?$tvec4@M$0A@@glm@@@std@@@std@@QEAA@XZ DD 022001H
	DD	07006920aH
xdata	ENDS
;	COMDAT CONST
CONST	SEGMENT
??1?$vector@U?$tvec4@M$0A@@glm@@V?$allocator@U?$tvec4@M$0A@@glm@@@std@@@std@@QEAA@XZ$rtcName$0 DB 024H ; std::vector<glm::tvec4<float,0>,std::allocator<glm::tvec4<float,0> > >::~vector<glm::tvec4<float,0>,std::allocator<glm::tvec4<float,0> > >
	DB	053H
	DB	031H
	DB	00H
	ORG $+12
??1?$vector@U?$tvec4@M$0A@@glm@@V?$allocator@U?$tvec4@M$0A@@glm@@@std@@@std@@QEAA@XZ$rtcVarDesc DD 034H ; std::vector<glm::tvec4<float,0>,std::allocator<glm::tvec4<float,0> > >::~vector<glm::tvec4<float,0>,std::allocator<glm::tvec4<float,0> > >
	DD	01H
	DQ	FLAT:??1?$vector@U?$tvec4@M$0A@@glm@@V?$allocator@U?$tvec4@M$0A@@glm@@@std@@@std@@QEAA@XZ$rtcName$0
	ORG $+48
??1?$vector@U?$tvec4@M$0A@@glm@@V?$allocator@U?$tvec4@M$0A@@glm@@@std@@@std@@QEAA@XZ$rtcFrameData DD 01H ; std::vector<glm::tvec4<float,0>,std::allocator<glm::tvec4<float,0> > >::~vector<glm::tvec4<float,0>,std::allocator<glm::tvec4<float,0> > >
	DD	00H
	DQ	FLAT:??1?$vector@U?$tvec4@M$0A@@glm@@V?$allocator@U?$tvec4@M$0A@@glm@@@std@@@std@@QEAA@XZ$rtcVarDesc
CONST	ENDS
;	COMDAT xdata
xdata	SEGMENT
$ip2state$??0?$vector@U?$tvec4@M$0A@@glm@@V?$allocator@U?$tvec4@M$0A@@glm@@@std@@@std@@QEAA@XZ DB 02H
	DB	00H
	DB	00H
xdata	ENDS
;	COMDAT xdata
xdata	SEGMENT
$cppxdata$??0?$vector@U?$tvec4@M$0A@@glm@@V?$allocator@U?$tvec4@M$0A@@glm@@@std@@@std@@QEAA@XZ DB 060H
	DD	imagerel $ip2state$??0?$vector@U?$tvec4@M$0A@@glm@@V?$allocator@U?$tvec4@M$0A@@glm@@@std@@@std@@QEAA@XZ
xdata	ENDS
;	COMDAT xdata
xdata	SEGMENT
$unwind$??0?$vector@U?$tvec4@M$0A@@glm@@V?$allocator@U?$tvec4@M$0A@@glm@@@std@@@std@@QEAA@XZ DD 020a19H
	DD	07006520aH
	DD	imagerel __CxxFrameHandler4
	DD	imagerel $cppxdata$??0?$vector@U?$tvec4@M$0A@@glm@@V?$allocator@U?$tvec4@M$0A@@glm@@@std@@@std@@QEAA@XZ
xdata	ENDS
;	COMDAT xdata
xdata	SEGMENT
$unwind$?max_size@?$_Default_allocator_traits@V?$allocator@U?$tvec4@M$0A@@glm@@@std@@@std@@SA_KAEBV?$allocator@U?$tvec4@M$0A@@glm@@@2@@Z DD 010601H
	DD	07006H
xdata	ENDS
;	COMDAT xdata
xdata	SEGMENT
$unwind$?allocate@?$allocator@U?$tvec4@M$0A@@glm@@@std@@QEAAPEAU?$tvec4@M$0A@@glm@@_K@Z DD 020f01H
	DD	0700b320fH
xdata	ENDS
;	COMDAT xdata
xdata	SEGMENT
$unwind$?deallocate@?$allocator@U?$tvec4@M$0A@@glm@@@std@@QEAAXQEAU?$tvec4@M$0A@@glm@@_K@Z DD 021401H
	DD	070105214H
xdata	ENDS
;	COMDAT xdata
xdata	SEGMENT
$unwind$??0?$allocator@U?$tvec4@M$0A@@glm@@@std@@QEAA@XZ DD 010601H
	DD	07006H
xdata	ENDS
voltbl	SEGMENT
_volmd	DD	0ffffffffH
	DDSymXIndex: 	FLAT:?dtor$0@?0??perf_cos@taylorCos@@YAHMM_K@Z@4HA
	DD	00H
	DD	05H
_volmd	DD	0ffffffffH
	DDSymXIndex: 	FLAT:?dtor$0@?0??perf_fastCosOld@taylorCos@@YAHMM_K@Z@4HA
	DD	00H
	DD	05H
_volmd	DD	0ffffffffH
	DDSymXIndex: 	FLAT:?dtor$0@?0??perf_fastCosRef@taylorCos@@YAHMM_K@Z@4HA
	DD	00H
	DD	05H
_volmd	DD	0ffffffffH
	DDSymXIndex: 	FLAT:?dtor$0@?0??perf_fastCosDeterminisctic@taylorCos@@YAHMM_K@Z@4HA
	DD	00H
	DD	05H
_volmd	DD	0ffffffffH
	DDSymXIndex: 	FLAT:?dtor$0@?0??perf_fastCosNew@taylorCos@@YAHMM_K@Z@4HA
	DD	00H
	DD	05H
voltbl	ENDS
;	COMDAT xdata
xdata	SEGMENT
$unwind$??__EAngleShift@taylorCos@@YAXXZ DD 020601H
	DD	070027206H
xdata	ENDS
;	COMDAT xdata
xdata	SEGMENT
$unwind$??$fastAtan@M@glm@@YAMM@Z DD 020b01H
	DD	07007120bH
xdata	ENDS
;	COMDAT xdata
xdata	SEGMENT
$unwind$??$fastAsin@M@glm@@YAMM@Z DD 020b01H
	DD	07007120bH
xdata	ENDS
;	COMDAT xdata
xdata	SEGMENT
$unwind$??$fastAcos@M@glm@@YAMM@Z DD 020b01H
	DD	07007520bH
xdata	ENDS
;	COMDAT xdata
xdata	SEGMENT
$unwind$??$fastTan@M@glm@@YAMM@Z DD 020b01H
	DD	07007120bH
xdata	ENDS
;	COMDAT xdata
xdata	SEGMENT
$unwind$??$fastSin@M@glm@@YAMM@Z DD 020b01H
	DD	07007520bH
xdata	ENDS
;	COMDAT xdata
xdata	SEGMENT
$unwind$??$fastCos@M@glm@@YAMM@Z DD 020b01H
	DD	07007720bH
xdata	ENDS
;	COMDAT xdata
xdata	SEGMENT
$unwind$??$pi@M@glm@@YAMXZ DD 020601H
	DD	070021206H
xdata	ENDS
xdata	SEGMENT
$unwind$?perf@fastCos@@YAH_N@Z DD 022501H
	DD	07005f20cH
$unwind$?perf@fastSin@@YAH_N@Z DD 022501H
	DD	07005f20cH
$unwind$?perf@fastTan@@YAH_N@Z DD 022501H
	DD	07005f20cH
$unwind$?perf@fastAcos@@YAH_N@Z DD 022501H
	DD	07005f20cH
$unwind$?perf@fastAsin@@YAH_N@Z DD 022501H
	DD	07005f20cH
$unwind$?perf@fastAtan@@YAH_N@Z DD 022501H
	DD	07005f20cH
$unwind$?perf_fastCosNew@taylorCos@@YAHMM_K@Z DD 042b11H
	DD	019011aH
	DD	060127013H
	DD	imagerel __CxxFrameHandler4
	DD	imagerel $cppxdata$?perf_fastCosNew@taylorCos@@YAHMM_K@Z
$cppxdata$?perf_fastCosNew@taylorCos@@YAHMM_K@Z DB 028H
	DD	imagerel $stateUnwindMap$?perf_fastCosNew@taylorCos@@YAHMM_K@Z
	DD	imagerel $ip2state$?perf_fastCosNew@taylorCos@@YAHMM_K@Z
$stateUnwindMap$?perf_fastCosNew@taylorCos@@YAHMM_K@Z DB 02H
	DB	0eH
	DD	imagerel ?dtor$0@?0??perf_fastCosNew@taylorCos@@YAHMM_K@Z@4HA
$ip2state$?perf_fastCosNew@taylorCos@@YAHMM_K@Z DB 06H
	DB	00H
	DB	00H
	DB	'l'
	DB	02H
	DB	09H, 08H
	DB	00H
$cppxdata$?perf_fastCosDeterminisctic@taylorCos@@YAHMM_K@Z DB 028H
	DD	imagerel $stateUnwindMap$?perf_fastCosDeterminisctic@taylorCos@@YAHMM_K@Z
	DD	imagerel $ip2state$?perf_fastCosDeterminisctic@taylorCos@@YAHMM_K@Z
$unwind$?dtor$0@?0??perf_fastCosNew@taylorCos@@YAHMM_K@Z@4HA DD 031001H
	DD	0700c4210H
	DD	0500bH
$unwind$?perf_fastCosDeterminisctic@taylorCos@@YAHMM_K@Z DD 042b11H
	DD	019011aH
	DD	060127013H
	DD	imagerel __CxxFrameHandler4
	DD	imagerel $cppxdata$?perf_fastCosDeterminisctic@taylorCos@@YAHMM_K@Z
$stateUnwindMap$?perf_fastCosDeterminisctic@taylorCos@@YAHMM_K@Z DB 02H
	DB	0eH
	DD	imagerel ?dtor$0@?0??perf_fastCosDeterminisctic@taylorCos@@YAHMM_K@Z@4HA
$ip2state$?perf_fastCosDeterminisctic@taylorCos@@YAHMM_K@Z DB 06H
	DB	00H
	DB	00H
	DB	'l'
	DB	02H
	DB	09H, 08H
	DB	00H
$cppxdata$?perf_fastCosRef@taylorCos@@YAHMM_K@Z DB 028H
	DD	imagerel $stateUnwindMap$?perf_fastCosRef@taylorCos@@YAHMM_K@Z
	DD	imagerel $ip2state$?perf_fastCosRef@taylorCos@@YAHMM_K@Z
$cppxdata$?perf_fastCosOld@taylorCos@@YAHMM_K@Z DB 028H
	DD	imagerel $stateUnwindMap$?perf_fastCosOld@taylorCos@@YAHMM_K@Z
	DD	imagerel $ip2state$?perf_fastCosOld@taylorCos@@YAHMM_K@Z
$unwind$?dtor$0@?0??perf_fastCosDeterminisctic@taylorCos@@YAHMM_K@Z@4HA DD 031001H
	DD	0700c4210H
	DD	0500bH
$unwind$?perf_fastCosRef@taylorCos@@YAHMM_K@Z DD 042b11H
	DD	019011aH
	DD	060127013H
	DD	imagerel __CxxFrameHandler4
	DD	imagerel $cppxdata$?perf_fastCosRef@taylorCos@@YAHMM_K@Z
$stateUnwindMap$?perf_fastCosRef@taylorCos@@YAHMM_K@Z DB 02H
	DB	0eH
	DD	imagerel ?dtor$0@?0??perf_fastCosRef@taylorCos@@YAHMM_K@Z@4HA
$ip2state$?perf_fastCosRef@taylorCos@@YAHMM_K@Z DB 06H
	DB	00H
	DB	00H
	DB	'l'
	DB	02H
	DB	09H, 08H
	DB	00H
$stateUnwindMap$?perf_fastCosOld@taylorCos@@YAHMM_K@Z DB 02H
	DB	0eH
	DD	imagerel ?dtor$0@?0??perf_fastCosOld@taylorCos@@YAHMM_K@Z@4HA
$unwind$?dtor$0@?0??perf_fastCosRef@taylorCos@@YAHMM_K@Z@4HA DD 031001H
	DD	0700c4210H
	DD	0500bH
$unwind$?perf_fastCosOld@taylorCos@@YAHMM_K@Z DD 042b11H
	DD	019011aH
	DD	060127013H
	DD	imagerel __CxxFrameHandler4
	DD	imagerel $cppxdata$?perf_fastCosOld@taylorCos@@YAHMM_K@Z
$ip2state$?perf_fastCosOld@taylorCos@@YAHMM_K@Z DB 06H
	DB	00H
	DB	00H
	DB	'l'
	DB	02H
	DB	09H, 08H
	DB	00H
$unwind$?dtor$0@?0??perf_fastCosOld@taylorCos@@YAHMM_K@Z@4HA DD 031001H
	DD	0700c4210H
	DD	0500bH
$unwind$?perf_cos@taylorCos@@YAHMM_K@Z DD 042b11H
	DD	019011aH
	DD	060127013H
	DD	imagerel __CxxFrameHandler4
	DD	imagerel $cppxdata$?perf_cos@taylorCos@@YAHMM_K@Z
$cppxdata$?perf_cos@taylorCos@@YAHMM_K@Z DB 028H
	DD	imagerel $stateUnwindMap$?perf_cos@taylorCos@@YAHMM_K@Z
	DD	imagerel $ip2state$?perf_cos@taylorCos@@YAHMM_K@Z
$stateUnwindMap$?perf_cos@taylorCos@@YAHMM_K@Z DB 02H
	DB	0eH
	DD	imagerel ?dtor$0@?0??perf_cos@taylorCos@@YAHMM_K@Z@4HA
$ip2state$?perf_cos@taylorCos@@YAHMM_K@Z DB 06H
	DB	00H
	DB	00H
	DB	'l'
	DB	02H
	DB	09H, 08H
	DB	00H
	ORG $+1
$unwind$?dtor$0@?0??perf_cos@taylorCos@@YAHMM_K@Z@4HA DD 031001H
	DD	0700c4210H
	DD	0500bH
$unwind$?perf@taylorCos@@YAH_K@Z DD 020a01H
	DD	07006520aH
$unwind$?test@taylorCos@@YAHXZ DD 020601H
	DD	070029206H
$unwind$main DD	020601H
	DD	070025206H
xdata	ENDS
CONST	SEGMENT
	ORG $+3
?perf@fastCos@@YAH_N@Z$rtcName$0 DB 069H		; fastCos::perf
	DB	00H
	ORG $+2
?perf@fastCos@@YAH_N@Z$rtcName$1 DB 069H		; fastCos::perf
	DB	00H
	ORG $+2
?perf@fastCos@@YAH_N@Z$rtcVarDesc DD 054H		; fastCos::perf
	DD	04H
	DQ	FLAT:?perf@fastCos@@YAH_N@Z$rtcName$1
	DD	034H
	DD	04H
	DQ	FLAT:?perf@fastCos@@YAH_N@Z$rtcName$0
	ORG $+96
?perf@fastCos@@YAH_N@Z$rtcFrameData DD 02H		; fastCos::perf
	DD	00H
	DQ	FLAT:?perf@fastCos@@YAH_N@Z$rtcVarDesc
?perf@fastSin@@YAH_N@Z$rtcName$0 DB 069H		; fastSin::perf
	DB	00H
	ORG $+2
?perf@fastSin@@YAH_N@Z$rtcName$1 DB 069H		; fastSin::perf
	DB	00H
	ORG $+2
?perf@fastSin@@YAH_N@Z$rtcFrameData DD 02H		; fastSin::perf
	DD	00H
	DQ	FLAT:?perf@fastSin@@YAH_N@Z$rtcVarDesc
?perf@fastTan@@YAH_N@Z$rtcName$0 DB 069H		; fastTan::perf
	DB	00H
	ORG $+6
?perf@fastSin@@YAH_N@Z$rtcVarDesc DD 054H		; fastSin::perf
	DD	04H
	DQ	FLAT:?perf@fastSin@@YAH_N@Z$rtcName$1
	DD	034H
	DD	04H
	DQ	FLAT:?perf@fastSin@@YAH_N@Z$rtcName$0
	ORG $+96
?perf@fastTan@@YAH_N@Z$rtcName$1 DB 069H		; fastTan::perf
	DB	00H
	ORG $+6
?perf@fastTan@@YAH_N@Z$rtcFrameData DD 02H		; fastTan::perf
	DD	00H
	DQ	FLAT:?perf@fastTan@@YAH_N@Z$rtcVarDesc
?perf@fastAcos@@YAH_N@Z$rtcName$0 DB 069H		; fastAcos::perf
	DB	00H
	ORG $+6
?perf@fastTan@@YAH_N@Z$rtcVarDesc DD 054H		; fastTan::perf
	DD	04H
	DQ	FLAT:?perf@fastTan@@YAH_N@Z$rtcName$1
	DD	034H
	DD	04H
	DQ	FLAT:?perf@fastTan@@YAH_N@Z$rtcName$0
	ORG $+96
?perf@fastAcos@@YAH_N@Z$rtcName$1 DB 069H		; fastAcos::perf
	DB	00H
	ORG $+6
?perf@fastAcos@@YAH_N@Z$rtcFrameData DD 02H		; fastAcos::perf
	DD	00H
	DQ	FLAT:?perf@fastAcos@@YAH_N@Z$rtcVarDesc
?perf@fastAsin@@YAH_N@Z$rtcName$0 DB 069H		; fastAsin::perf
	DB	00H
	ORG $+6
?perf@fastAcos@@YAH_N@Z$rtcVarDesc DD 054H		; fastAcos::perf
	DD	04H
	DQ	FLAT:?perf@fastAcos@@YAH_N@Z$rtcName$1
	DD	034H
	DD	04H
	DQ	FLAT:?perf@fastAcos@@YAH_N@Z$rtcName$0
	ORG $+96
?perf@fastAsin@@YAH_N@Z$rtcName$1 DB 069H		; fastAsin::perf
	DB	00H
	ORG $+6
?perf@fastAsin@@YAH_N@Z$rtcFrameData DD 02H		; fastAsin::perf
	DD	00H
	DQ	FLAT:?perf@fastAsin@@YAH_N@Z$rtcVarDesc
?perf@fastAtan@@YAH_N@Z$rtcName$0 DB 069H		; fastAtan::perf
	DB	00H
	ORG $+6
?perf@fastAsin@@YAH_N@Z$rtcVarDesc DD 054H		; fastAsin::perf
	DD	04H
	DQ	FLAT:?perf@fastAsin@@YAH_N@Z$rtcName$1
	DD	034H
	DD	04H
	DQ	FLAT:?perf@fastAsin@@YAH_N@Z$rtcName$0
	ORG $+96
?perf@fastAtan@@YAH_N@Z$rtcName$1 DB 069H		; fastAtan::perf
	DB	00H
	ORG $+6
?perf@fastAtan@@YAH_N@Z$rtcFrameData DD 02H		; fastAtan::perf
	DD	00H
	DQ	FLAT:?perf@fastAtan@@YAH_N@Z$rtcVarDesc
?perf_fastCosNew@taylorCos@@YAHMM_K@Z$rtcName$0 DB 052H	; taylorCos::perf_fastCosNew
	DB	065H
	DB	073H
	DB	075H
	DB	06cH
	DB	074H
	DB	073H
	DB	00H
?perf@fastAtan@@YAH_N@Z$rtcVarDesc DD 054H		; fastAtan::perf
	DD	04H
	DQ	FLAT:?perf@fastAtan@@YAH_N@Z$rtcName$1
	DD	034H
	DD	04H
	DQ	FLAT:?perf@fastAtan@@YAH_N@Z$rtcName$0
	ORG $+96
?perf_fastCosNew@taylorCos@@YAHMM_K@Z$rtcVarDesc DD 028H ; taylorCos::perf_fastCosNew
	DD	020H
	DQ	FLAT:?perf_fastCosNew@taylorCos@@YAHMM_K@Z$rtcName$0
	ORG $+48
?perf_fastCosNew@taylorCos@@YAHMM_K@Z$rtcFrameData DD 01H ; taylorCos::perf_fastCosNew
	DD	00H
	DQ	FLAT:?perf_fastCosNew@taylorCos@@YAHMM_K@Z$rtcVarDesc
?perf_fastCosDeterminisctic@taylorCos@@YAHMM_K@Z$rtcName$0 DB 052H ; taylorCos::perf_fastCosDeterminisctic
	DB	065H
	DB	073H
	DB	075H
	DB	06cH
	DB	074H
	DB	073H
	DB	00H
?perf_fastCosRef@taylorCos@@YAHMM_K@Z$rtcName$0 DB 052H	; taylorCos::perf_fastCosRef
	DB	065H
	DB	073H
	DB	075H
	DB	06cH
	DB	074H
	DB	073H
	DB	00H
?perf_fastCosDeterminisctic@taylorCos@@YAHMM_K@Z$rtcVarDesc DD 028H ; taylorCos::perf_fastCosDeterminisctic
	DD	020H
	DQ	FLAT:?perf_fastCosDeterminisctic@taylorCos@@YAHMM_K@Z$rtcName$0
	ORG $+48
?perf_fastCosDeterminisctic@taylorCos@@YAHMM_K@Z$rtcFrameData DD 01H ; taylorCos::perf_fastCosDeterminisctic
	DD	00H
	DQ	FLAT:?perf_fastCosDeterminisctic@taylorCos@@YAHMM_K@Z$rtcVarDesc
?perf_fastCosRef@taylorCos@@YAHMM_K@Z$rtcVarDesc DD 028H ; taylorCos::perf_fastCosRef
	DD	020H
	DQ	FLAT:?perf_fastCosRef@taylorCos@@YAHMM_K@Z$rtcName$0
	ORG $+48
?perf_fastCosRef@taylorCos@@YAHMM_K@Z$rtcFrameData DD 01H ; taylorCos::perf_fastCosRef
	DD	00H
	DQ	FLAT:?perf_fastCosRef@taylorCos@@YAHMM_K@Z$rtcVarDesc
?perf_fastCosOld@taylorCos@@YAHMM_K@Z$rtcName$0 DB 052H	; taylorCos::perf_fastCosOld
	DB	065H
	DB	073H
	DB	075H
	DB	06cH
	DB	074H
	DB	073H
	DB	00H
?perf_cos@taylorCos@@YAHMM_K@Z$rtcName$0 DB 052H	; taylorCos::perf_cos
	DB	065H
	DB	073H
	DB	075H
	DB	06cH
	DB	074H
	DB	073H
	DB	00H
?perf_fastCosOld@taylorCos@@YAHMM_K@Z$rtcVarDesc DD 028H ; taylorCos::perf_fastCosOld
	DD	020H
	DQ	FLAT:?perf_fastCosOld@taylorCos@@YAHMM_K@Z$rtcName$0
	ORG $+48
?perf_fastCosOld@taylorCos@@YAHMM_K@Z$rtcFrameData DD 01H ; taylorCos::perf_fastCosOld
	DD	00H
	DQ	FLAT:?perf_fastCosOld@taylorCos@@YAHMM_K@Z$rtcVarDesc
?perf_cos@taylorCos@@YAHMM_K@Z$rtcVarDesc DD 028H	; taylorCos::perf_cos
	DD	020H
	DQ	FLAT:?perf_cos@taylorCos@@YAHMM_K@Z$rtcName$0
	ORG $+48
?perf_cos@taylorCos@@YAHMM_K@Z$rtcFrameData DD 01H	; taylorCos::perf_cos
	DD	00H
	DQ	FLAT:?perf_cos@taylorCos@@YAHMM_K@Z$rtcVarDesc
CONST	ENDS
;	COMDAT xdata
xdata	SEGMENT
$unwind$?_Orphan_all_locked_v3@_Container_base12@std@@AEAAXXZ DD 022001H
	DD	07006720aH
xdata	ENDS
;	COMDAT CONST
CONST	SEGMENT
?_Orphan_all_locked_v3@_Container_base12@std@@AEAAXXZ$rtcName$0 DB 05fH ; std::_Container_base12::_Orphan_all_locked_v3
	DB	04cH
	DB	06fH
	DB	063H
	DB	06bH
	DB	00H
	ORG $+10
?_Orphan_all_locked_v3@_Container_base12@std@@AEAAXXZ$rtcVarDesc DD 024H ; std::_Container_base12::_Orphan_all_locked_v3
	DD	04H
	DQ	FLAT:?_Orphan_all_locked_v3@_Container_base12@std@@AEAAXXZ$rtcName$0
	ORG $+48
?_Orphan_all_locked_v3@_Container_base12@std@@AEAAXXZ$rtcFrameData DD 01H ; std::_Container_base12::_Orphan_all_locked_v3
	DD	00H
	DQ	FLAT:?_Orphan_all_locked_v3@_Container_base12@std@@AEAAXXZ$rtcVarDesc
CONST	ENDS
;	COMDAT xdata
xdata	SEGMENT
$unwind$?_Orphan_all_unlocked_v3@_Container_base12@std@@AEAAXXZ DD 020a01H
	DD	07006120aH
xdata	ENDS
;	COMDAT xdata
xdata	SEGMENT
$unwind$?_Orphan_all@_Container_base12@std@@QEAAXXZ DD 020a01H
	DD	07006320aH
xdata	ENDS
;	COMDAT xdata
xdata	SEGMENT
$unwind$??0_Container_base12@std@@QEAA@XZ DD 010601H
	DD	07006H
xdata	ENDS
;	COMDAT xdata
xdata	SEGMENT
$unwind$??0_Container_proxy@std@@QEAA@PEAU_Container_base12@1@@Z DD 010b01H
	DD	0700bH
xdata	ENDS
;	COMDAT xdata
xdata	SEGMENT
$unwind$?_Adjust_manually_vector_aligned@std@@YAXAEAPEAXAEA_K@Z DD 020f01H
	DD	0700b920fH
xdata	ENDS
;	COMDAT xdata
xdata	SEGMENT
$unwind$?_Allocate@_Default_allocate_traits@std@@SAPEAX_K@Z DD 020a01H
	DD	07006320aH
xdata	ENDS
;	COMDAT xdata
xdata	SEGMENT
$unwind$?_Throw_bad_array_new_length@std@@YAXXZ DD 020601H
	DD	070027206H
xdata	ENDS
;	COMDAT xdata
xdata	SEGMENT
$unwind$??_Gbad_array_new_length@std@@UEAAPEAXI@Z DD 020e01H
	DD	0700a320eH
xdata	ENDS
;	COMDAT xdata
xdata	SEGMENT
$unwind$??0bad_array_new_length@std@@QEAA@AEBV01@@Z DD 020f01H
	DD	0700b320fH
xdata	ENDS
;	COMDAT xdata
xdata	SEGMENT
$unwind$??1bad_array_new_length@std@@UEAA@XZ DD 020a01H
	DD	07006320aH
xdata	ENDS
;	COMDAT xdata
xdata	SEGMENT
$unwind$??0bad_array_new_length@std@@QEAA@XZ DD 020a01H
	DD	07006320aH
xdata	ENDS
;	COMDAT xdata
xdata	SEGMENT
$unwind$??_Gbad_alloc@std@@UEAAPEAXI@Z DD 020e01H
	DD	0700a320eH
xdata	ENDS
;	COMDAT xdata
xdata	SEGMENT
$unwind$??0bad_alloc@std@@QEAA@AEBV01@@Z DD 020f01H
	DD	0700b320fH
xdata	ENDS
;	COMDAT xdata
xdata	SEGMENT
$unwind$??1bad_alloc@std@@UEAA@XZ DD 020a01H
	DD	07006320aH
xdata	ENDS
;	COMDAT xdata
xdata	SEGMENT
$unwind$??0bad_alloc@std@@AEAA@QEBD@Z DD 020f01H
	DD	0700b320fH
xdata	ENDS
;	COMDAT xdata
xdata	SEGMENT
$unwind$??_Gexception@std@@UEAAPEAXI@Z DD 020e01H
	DD	0700a320eH
xdata	ENDS
;	COMDAT xdata
xdata	SEGMENT
$unwind$?what@exception@std@@UEBAPEBDXZ DD 020a01H
	DD	07006120aH
xdata	ENDS
;	COMDAT xdata
xdata	SEGMENT
$unwind$??1exception@std@@UEAA@XZ DD 020a01H
	DD	07006320aH
xdata	ENDS
;	COMDAT xdata
xdata	SEGMENT
$unwind$??0exception@std@@QEAA@AEBV01@@Z DD 020f01H
	DD	0700b320fH
xdata	ENDS
;	COMDAT xdata
xdata	SEGMENT
$unwind$??0exception@std@@QEAA@QEBDH@Z DD 011001H
	DD	07010H
xdata	ENDS
;	COMDAT xdata
xdata	SEGMENT
$unwind$??$next_float@M@glm@@YAMAEBM@Z DD 020a01H
	DD	07006520aH
xdata	ENDS
;	COMDAT xdata
xdata	SEGMENT
$unwind$??$?DM$0A@@glm@@YA?AU?$tvec4@M$0A@@0@AEBU10@M@Z DD 031601H
	DD	070126216H
	DD	06011H
xdata	ENDS
;	COMDAT xdata
xdata	SEGMENT
$unwind$??0?$tvec4@M$0A@@glm@@QEAA@MMMM@Z DD 011801H
	DD	07018H
xdata	ENDS
;	COMDAT xdata
xdata	SEGMENT
$unwind$??0?$tvec4@M$0A@@glm@@QEAA@M@Z DD 010c01H
	DD	0700cH
xdata	ENDS
;	COMDAT xdata
xdata	SEGMENT
$unwind$??0?$tvec4@M$0A@@glm@@QEAA@W4ctor@1@@Z DD 010a01H
	DD	0700aH
xdata	ENDS
;	COMDAT xdata
xdata	SEGMENT
$unwind$??0?$tvec4@M$0A@@glm@@QEAA@XZ DD 010601H
	DD	07006H
xdata	ENDS
;	COMDAT xdata
xdata	SEGMENT
$unwind$??A?$tvec4@M$0A@@glm@@QEBAAEBMH@Z DD 020e01H
	DD	0700a320eH
xdata	ENDS
;	COMDAT xdata
xdata	SEGMENT
$unwind$??A?$tvec4@M$0A@@glm@@QEAAAEAMH@Z DD 020e01H
	DD	0700a320eH
xdata	ENDS
;	COMDAT xdata
xdata	SEGMENT
$unwind$?length@?$tvec4@M$0A@@glm@@SAHXZ DD 010201H
	DD	07002H
xdata	ENDS
;	COMDAT xdata
xdata	SEGMENT
$unwind$?trunc@@YAMM@Z DD 020b01H
	DD	07007520bH
xdata	ENDS
;	COMDAT xdata
xdata	SEGMENT
$unwind$?tan@@YAMM@Z DD 020b01H
	DD	07007520bH
xdata	ENDS
;	COMDAT xdata
xdata	SEGMENT
$unwind$?sin@@YAMM@Z DD 020b01H
	DD	07007520bH
xdata	ENDS
;	COMDAT xdata
xdata	SEGMENT
$unwind$?nextafter@@YAMMM@Z DD 021101H
	DD	0700d5211H
xdata	ENDS
;	COMDAT xdata
xdata	SEGMENT
$unwind$?fmod@@YAMMM@Z DD 021101H
	DD	0700d5211H
xdata	ENDS
;	COMDAT xdata
xdata	SEGMENT
$unwind$?floor@@YAMM@Z DD 020b01H
	DD	07007520bH
xdata	ENDS
;	COMDAT xdata
xdata	SEGMENT
$unwind$?cos@@YAMM@Z DD 020b01H
	DD	07007520bH
xdata	ENDS
;	COMDAT xdata
xdata	SEGMENT
$unwind$?atan@@YAMM@Z DD 020b01H
	DD	07007520bH
xdata	ENDS
;	COMDAT xdata
xdata	SEGMENT
$unwind$?asin@@YAMM@Z DD 020b01H
	DD	07007520bH
xdata	ENDS
;	COMDAT xdata
xdata	SEGMENT
$unwind$?acos@@YAMM@Z DD 020b01H
	DD	07007520bH
xdata	ENDS
;	COMDAT xdata
xdata	SEGMENT
$unwind$??2@YAPEAX_KPEAX@Z DD 010b01H
	DD	0700bH
xdata	ENDS
;	COMDAT xdata
xdata	SEGMENT
$unwind$?max@?$numeric_limits@M@std@@SAMXZ DD 020601H
	DD	070021206H
xdata	ENDS
;	COMDAT xdata
xdata	SEGMENT
$unwind$?max@?$numeric_limits@_J@std@@SA_JXZ DD 010201H
	DD	07002H
xdata	ENDS
;	COMDAT xdata
xdata	SEGMENT
$unwind$printf DD 022f01H
	DD	070159219H
xdata	ENDS
;	COMDAT CONST
CONST	SEGMENT
printf$rtcName$0 DB 05fH
	DB	041H
	DB	072H
	DB	067H
	DB	04cH
	DB	069H
	DB	073H
	DB	074H
	DB	00H
	ORG $+7
printf$rtcVarDesc DD 038H
	DD	08H
	DQ	FLAT:printf$rtcName$0
	ORG $+48
printf$rtcFrameData DD 01H
	DD	00H
	DQ	FLAT:printf$rtcVarDesc
CONST	ENDS
;	COMDAT xdata
xdata	SEGMENT
$unwind$_vfprintf_l DD 021901H
	DD	070155219H
xdata	ENDS
;	COMDAT xdata
xdata	SEGMENT
$unwind$__local_stdio_printf_options DD 010201H
	DD	07002H
xdata	ENDS
; Function compile flags: /Odtp /RTCsu
; File C:\Users\ksart\OneDrive\Desktop\FlappyBird\libraries\external\glm\glm\detail\func_common.inl
;	COMDAT ?call@?$compute_floor@M$0A@Utvec1@glm@@$0A@@detail@glm@@SA?AU?$tvec1@M$0A@@3@AEBU43@@Z
_TEXT	SEGMENT
__$ReturnUdt$ = 48
x$ = 56
?call@?$compute_floor@M$0A@Utvec1@glm@@$0A@@detail@glm@@SA?AU?$tvec1@M$0A@@3@AEBU43@@Z PROC ; glm::detail::compute_floor<float,0,glm::tvec1,0>::call, COMDAT

; 209  : 		{

$LN3:
	mov	QWORD PTR [rsp+16], rdx
	mov	QWORD PTR [rsp+8], rcx
	push	rdi
	sub	rsp, 32					; 00000020H

; 210  : 			return detail::functor1<T, T, P, vecType>::call(std::floor, x);

	mov	r8, QWORD PTR x$[rsp]
	lea	rdx, OFFSET FLAT:?floor@@YAMM@Z		; floor
	mov	rcx, QWORD PTR __$ReturnUdt$[rsp]
	call	?call@?$functor1@MM$0A@Utvec1@glm@@@detail@glm@@SA?AU?$tvec1@M$0A@@3@P6AMM@ZAEBU43@@Z ; glm::detail::functor1<float,float,0,glm::tvec1>::call
	mov	rax, QWORD PTR __$ReturnUdt$[rsp]

; 211  : 		}

	add	rsp, 32					; 00000020H
	pop	rdi
	ret	0
?call@?$compute_floor@M$0A@Utvec1@glm@@$0A@@detail@glm@@SA?AU?$tvec1@M$0A@@3@AEBU43@@Z ENDP ; glm::detail::compute_floor<float,0,glm::tvec1,0>::call
_TEXT	ENDS
; Function compile flags: /Odtp /RTCsu
; File C:\Users\ksart\OneDrive\Desktop\FlappyBird\libraries\external\glm\glm\detail\func_common.inl
;	COMDAT ??$floor@M$0A@Utvec1@glm@@@glm@@YA?AU?$tvec1@M$0A@@0@AEBU10@@Z
_TEXT	SEGMENT
__$ReturnUdt$ = 48
x$ = 56
??$floor@M$0A@Utvec1@glm@@@glm@@YA?AU?$tvec1@M$0A@@0@AEBU10@@Z PROC ; glm::floor<float,0,glm::tvec1>, COMDAT

; 346  : 	{

$LN3:
	mov	QWORD PTR [rsp+16], rdx
	mov	QWORD PTR [rsp+8], rcx
	push	rdi
	sub	rsp, 32					; 00000020H

; 347  : 		GLM_STATIC_ASSERT(std::numeric_limits<T>::is_iec559, "'floor' only accept floating-point inputs.");
; 348  : 		return detail::compute_floor<T, P, vecType, detail::is_aligned<P>::value>::call(x);

	mov	rdx, QWORD PTR x$[rsp]
	mov	rcx, QWORD PTR __$ReturnUdt$[rsp]
	call	?call@?$compute_floor@M$0A@Utvec1@glm@@$0A@@detail@glm@@SA?AU?$tvec1@M$0A@@3@AEBU43@@Z ; glm::detail::compute_floor<float,0,glm::tvec1,0>::call
	mov	rax, QWORD PTR __$ReturnUdt$[rsp]

; 349  : 	}

	add	rsp, 32					; 00000020H
	pop	rdi
	ret	0
??$floor@M$0A@Utvec1@glm@@@glm@@YA?AU?$tvec1@M$0A@@0@AEBU10@@Z ENDP ; glm::floor<float,0,glm::tvec1>
_TEXT	ENDS
; Function compile flags: /Odtp /RTCsu
; File C:\Users\ksart\OneDrive\Desktop\FlappyBird\libraries\external\glm\glm\detail\type_vec1.inl
;	COMDAT ??$?KM$0A@@glm@@YA?AU?$tvec1@M$0A@@0@AEBU10@0@Z
_TEXT	SEGMENT
__$ReturnUdt$ = 48
v1$ = 56
v2$ = 64
??$?KM$0A@@glm@@YA?AU?$tvec1@M$0A@@0@AEBU10@0@Z PROC	; glm::operator/<float,0>, COMDAT

; 393  : 	{

$LN3:
	mov	QWORD PTR [rsp+24], r8
	mov	QWORD PTR [rsp+16], rdx
	mov	QWORD PTR [rsp+8], rcx
	push	rdi
	sub	rsp, 32					; 00000020H

; 394  : 		return tvec1<T, P>(

	mov	rax, QWORD PTR v1$[rsp]
	mov	rcx, QWORD PTR v2$[rsp]
	movss	xmm0, DWORD PTR [rax]
	divss	xmm0, DWORD PTR [rcx]
	movaps	xmm1, xmm0
	mov	rcx, QWORD PTR __$ReturnUdt$[rsp]
	call	??0?$tvec1@M$0A@@glm@@QEAA@M@Z		; glm::tvec1<float,0>::tvec1<float,0>
	mov	rax, QWORD PTR __$ReturnUdt$[rsp]

; 395  : 			v1.x / v2.x);
; 396  : 	}

	add	rsp, 32					; 00000020H
	pop	rdi
	ret	0
??$?KM$0A@@glm@@YA?AU?$tvec1@M$0A@@0@AEBU10@0@Z ENDP	; glm::operator/<float,0>
_TEXT	ENDS
; Function compile flags: /Odtp /RTCsu
; File C:\Program Files\Microsoft Visual Studio\2022\Community\VC\Tools\MSVC\14.32.31326\include\xutility
;	COMDAT ??$_Voidify_iter@PEAU?$tvec4@M$0A@@glm@@@std@@YAPEAXPEAU?$tvec4@M$0A@@glm@@@Z
_TEXT	SEGMENT
_It$ = 16
??$_Voidify_iter@PEAU?$tvec4@M$0A@@glm@@@std@@YAPEAXPEAU?$tvec4@M$0A@@glm@@@Z PROC ; std::_Voidify_iter<glm::tvec4<float,0> *>, COMDAT

; 123  : _NODISCARD constexpr void* _Voidify_iter(_Iter _It) noexcept {

$LN3:
	mov	QWORD PTR [rsp+8], rcx
	push	rdi

; 124  :     if constexpr (is_pointer_v<_Iter>) {
; 125  :         return const_cast<void*>(static_cast<const volatile void*>(_It));

	mov	rax, QWORD PTR _It$[rsp]

; 126  :     } else {
; 127  :         return const_cast<void*>(static_cast<const volatile void*>(_STD addressof(*_It)));
; 128  :     }
; 129  : }

	pop	rdi
	ret	0
??$_Voidify_iter@PEAU?$tvec4@M$0A@@glm@@@std@@YAPEAXPEAU?$tvec4@M$0A@@glm@@@Z ENDP ; std::_Voidify_iter<glm::tvec4<float,0> *>
_TEXT	ENDS
; Function compile flags: /Odtp /RTCsu
; File C:\Program Files\Microsoft Visual Studio\2022\Community\VC\Tools\MSVC\14.32.31326\include\xmemory
;	COMDAT ??$construct@U?$tvec4@M$0A@@glm@@U12@@?$_Default_allocator_traits@V?$allocator@U?$tvec4@M$0A@@glm@@@std@@@std@@SAXAEAV?$allocator@U?$tvec4@M$0A@@glm@@@1@QEAU?$tvec4@M$0A@@glm@@$$QEAU34@@Z
_TEXT	SEGMENT
$T1 = 32
__formal$ = 80
_Ptr$ = 88
<_Args_0>$ = 96
??$construct@U?$tvec4@M$0A@@glm@@U12@@?$_Default_allocator_traits@V?$allocator@U?$tvec4@M$0A@@glm@@@std@@@std@@SAXAEAV?$allocator@U?$tvec4@M$0A@@glm@@@1@QEAU?$tvec4@M$0A@@glm@@$$QEAU34@@Z PROC ; std::_Default_allocator_traits<std::allocator<glm::tvec4<float,0> > >::construct<glm::tvec4<float,0>,glm::tvec4<float,0> >, COMDAT

; 673  :     static _CONSTEXPR20 void construct(_Alloc&, _Objty* const _Ptr, _Types&&... _Args) {

$LN3:
	mov	QWORD PTR [rsp+24], r8
	mov	QWORD PTR [rsp+16], rdx
	mov	QWORD PTR [rsp+8], rcx
	push	rsi
	push	rdi
	sub	rsp, 56					; 00000038H

; 674  : #if _HAS_CXX20
; 675  :         if (_STD is_constant_evaluated()) {
; 676  :             _STD construct_at(_Ptr, _STD forward<_Types>(_Args)...);
; 677  :         } else
; 678  : #endif // _HAS_CXX20
; 679  :         {
; 680  :             ::new (_Voidify_iter(_Ptr)) _Objty(_STD forward<_Types>(_Args)...);

	mov	rcx, QWORD PTR _Ptr$[rsp]
	call	??$_Voidify_iter@PEAU?$tvec4@M$0A@@glm@@@std@@YAPEAXPEAU?$tvec4@M$0A@@glm@@@Z ; std::_Voidify_iter<glm::tvec4<float,0> *>
	mov	rdx, rax
	mov	ecx, 16
	call	??2@YAPEAX_KPEAX@Z			; operator new
	mov	QWORD PTR $T1[rsp], rax
	mov	rcx, QWORD PTR <_Args_0>$[rsp]
	call	??$forward@U?$tvec4@M$0A@@glm@@@std@@YA$$QEAU?$tvec4@M$0A@@glm@@AEAU12@@Z ; std::forward<glm::tvec4<float,0> >
	mov	rdi, QWORD PTR $T1[rsp]
	mov	rsi, rax
	mov	ecx, 16
	rep movsb

; 681  :         }
; 682  :     }

	add	rsp, 56					; 00000038H
	pop	rdi
	pop	rsi
	ret	0
??$construct@U?$tvec4@M$0A@@glm@@U12@@?$_Default_allocator_traits@V?$allocator@U?$tvec4@M$0A@@glm@@@std@@@std@@SAXAEAV?$allocator@U?$tvec4@M$0A@@glm@@@1@QEAU?$tvec4@M$0A@@glm@@$$QEAU34@@Z ENDP ; std::_Default_allocator_traits<std::allocator<glm::tvec4<float,0> > >::construct<glm::tvec4<float,0>,glm::tvec4<float,0> >
_TEXT	ENDS
; Function compile flags: /Odtp /RTCsu
; File C:\Program Files\Microsoft Visual Studio\2022\Community\VC\Tools\MSVC\14.32.31326\include\type_traits
;	COMDAT ??$forward@U?$tvec4@M$0A@@glm@@@std@@YA$$QEAU?$tvec4@M$0A@@glm@@AEAU12@@Z
_TEXT	SEGMENT
_Arg$ = 16
??$forward@U?$tvec4@M$0A@@glm@@@std@@YA$$QEAU?$tvec4@M$0A@@glm@@AEAU12@@Z PROC ; std::forward<glm::tvec4<float,0> >, COMDAT

; 1341 :     remove_reference_t<_Ty>& _Arg) noexcept { // forward an lvalue as either an lvalue or an rvalue

$LN3:
	mov	QWORD PTR [rsp+8], rcx
	push	rdi

; 1342 :     return static_cast<_Ty&&>(_Arg);

	mov	rax, QWORD PTR _Arg$[rsp]

; 1343 : }

	pop	rdi
	ret	0
??$forward@U?$tvec4@M$0A@@glm@@@std@@YA$$QEAU?$tvec4@M$0A@@glm@@AEAU12@@Z ENDP ; std::forward<glm::tvec4<float,0> >
_TEXT	ENDS
; Function compile flags: /Odtp /RTCsu
; File C:\Program Files\Microsoft Visual Studio\2022\Community\VC\Tools\MSVC\14.32.31326\include\xutility
;	COMDAT ??$_To_address@PEAU?$tvec4@M$0A@@glm@@@std@@YA?A_PAEBQEAU?$tvec4@M$0A@@glm@@@Z
_TEXT	SEGMENT
_Val$ = 16
??$_To_address@PEAU?$tvec4@M$0A@@glm@@@std@@YA?A_PAEBQEAU?$tvec4@M$0A@@glm@@@Z PROC ; std::_To_address<glm::tvec4<float,0> *>, COMDAT

; 3946 : _NODISCARD constexpr auto _To_address(const _Iter& _Val) noexcept {

$LN3:
	mov	QWORD PTR [rsp+8], rcx
	push	rdi

; 3947 :     _STL_INTERNAL_STATIC_ASSERT(is_pointer_v<_Iter>);
; 3948 :     return _Val;

	mov	rax, QWORD PTR _Val$[rsp]
	mov	rax, QWORD PTR [rax]

; 3949 : }

	pop	rdi
	ret	0
??$_To_address@PEAU?$tvec4@M$0A@@glm@@@std@@YA?A_PAEBQEAU?$tvec4@M$0A@@glm@@@Z ENDP ; std::_To_address<glm::tvec4<float,0> *>
_TEXT	ENDS
; Function compile flags: /Odtp /RTCsu
; File C:\Users\ksart\OneDrive\Desktop\FlappyBird\libraries\external\glm\glm\detail\type_vec4.inl
;	COMDAT ?call@?$compute_vec4_div@M$0A@$0A@@detail@glm@@SA?AU?$tvec4@M$0A@@3@AEBU43@0@Z
_TEXT	SEGMENT
tv80 = 48
__$ReturnUdt$ = 80
a$ = 88
b$ = 96
?call@?$compute_vec4_div@M$0A@$0A@@detail@glm@@SA?AU?$tvec4@M$0A@@3@AEBU43@0@Z PROC ; glm::detail::compute_vec4_div<float,0,0>::call, COMDAT

; 68   : 		{

$LN3:
	mov	QWORD PTR [rsp+24], r8
	mov	QWORD PTR [rsp+16], rdx
	mov	QWORD PTR [rsp+8], rcx
	push	rdi
	sub	rsp, 64					; 00000040H

; 69   : 			return tvec4<T, P>(a.x / b.x, a.y / b.y, a.z / b.z, a.w / b.w);

	mov	rax, QWORD PTR a$[rsp]
	mov	rcx, QWORD PTR b$[rsp]
	movss	xmm0, DWORD PTR [rax+12]
	divss	xmm0, DWORD PTR [rcx+12]
	mov	rax, QWORD PTR a$[rsp]
	mov	rcx, QWORD PTR b$[rsp]
	movss	xmm1, DWORD PTR [rax+8]
	divss	xmm1, DWORD PTR [rcx+8]
	mov	rax, QWORD PTR a$[rsp]
	mov	rcx, QWORD PTR b$[rsp]
	movss	xmm2, DWORD PTR [rax+4]
	divss	xmm2, DWORD PTR [rcx+4]
	mov	rax, QWORD PTR a$[rsp]
	mov	rcx, QWORD PTR b$[rsp]
	movss	xmm3, DWORD PTR [rax]
	divss	xmm3, DWORD PTR [rcx]
	movss	DWORD PTR tv80[rsp], xmm3
	movss	DWORD PTR [rsp+32], xmm0
	movaps	xmm3, xmm1
	movss	xmm0, DWORD PTR tv80[rsp]
	movaps	xmm1, xmm0
	mov	rcx, QWORD PTR __$ReturnUdt$[rsp]
	call	??0?$tvec4@M$0A@@glm@@QEAA@MMMM@Z	; glm::tvec4<float,0>::tvec4<float,0>
	mov	rax, QWORD PTR __$ReturnUdt$[rsp]

; 70   : 		}

	add	rsp, 64					; 00000040H
	pop	rdi
	ret	0
?call@?$compute_vec4_div@M$0A@$0A@@detail@glm@@SA?AU?$tvec4@M$0A@@3@AEBU43@0@Z ENDP ; glm::detail::compute_vec4_div<float,0,0>::call
_TEXT	ENDS
; Function compile flags: /Odtp /RTCsu
; File C:\Users\ksart\OneDrive\Desktop\FlappyBird\libraries\external\glm\glm\detail\func_common.inl
;	COMDAT ?call@?$compute_mod@M$0A@Utvec1@glm@@$0A@@detail@glm@@SA?AU?$tvec1@M$0A@@3@AEBU43@0@Z
_TEXT	SEGMENT
$T1 = 32
$T2 = 36
$T3 = 40
__$ReturnUdt$ = 64
a$ = 72
b$ = 80
?call@?$compute_mod@M$0A@Utvec1@glm@@$0A@@detail@glm@@SA?AU?$tvec1@M$0A@@3@AEBU43@0@Z PROC ; glm::detail::compute_mod<float,0,glm::tvec1,0>::call, COMDAT

; 254  : 		{

$LN3:
	mov	QWORD PTR [rsp+24], r8
	mov	QWORD PTR [rsp+16], rdx
	mov	QWORD PTR [rsp+8], rcx
	push	rdi
	sub	rsp, 48					; 00000030H

; 255  : 			GLM_STATIC_ASSERT(std::numeric_limits<T>::is_iec559, "'mod' only accept floating-point inputs. Include <glm/gtc/integer.hpp> for integer inputs.");
; 256  : 			return a - b * floor(a / b);

	mov	r8, QWORD PTR b$[rsp]
	mov	rdx, QWORD PTR a$[rsp]
	lea	rcx, QWORD PTR $T1[rsp]
	call	??$?KM$0A@@glm@@YA?AU?$tvec1@M$0A@@0@AEBU10@0@Z ; glm::operator/<float,0>
	mov	rdx, rax
	lea	rcx, QWORD PTR $T2[rsp]
	call	??$floor@M$0A@Utvec1@glm@@@glm@@YA?AU?$tvec1@M$0A@@0@AEBU10@@Z ; glm::floor<float,0,glm::tvec1>
	mov	r8, rax
	mov	rdx, QWORD PTR b$[rsp]
	lea	rcx, QWORD PTR $T3[rsp]
	call	??$?DM$0A@@glm@@YA?AU?$tvec1@M$0A@@0@AEBU10@0@Z ; glm::operator*<float,0>
	mov	r8, rax
	mov	rdx, QWORD PTR a$[rsp]
	mov	rcx, QWORD PTR __$ReturnUdt$[rsp]
	call	??$?GM$0A@@glm@@YA?AU?$tvec1@M$0A@@0@AEBU10@0@Z ; glm::operator-<float,0>
	mov	rax, QWORD PTR __$ReturnUdt$[rsp]

; 257  : 		}

	add	rsp, 48					; 00000030H
	pop	rdi
	ret	0
?call@?$compute_mod@M$0A@Utvec1@glm@@$0A@@detail@glm@@SA?AU?$tvec1@M$0A@@3@AEBU43@0@Z ENDP ; glm::detail::compute_mod<float,0,glm::tvec1,0>::call
_TEXT	ENDS
; Function compile flags: /Odtp /RTCsu
; File C:\Program Files\Microsoft Visual Studio\2022\Community\VC\Tools\MSVC\14.32.31326\include\xmemory
;	COMDAT ??$construct@U?$tvec4@M$0A@@glm@@$$V@?$_Default_allocator_traits@V?$allocator@U?$tvec4@M$0A@@glm@@@std@@@std@@SAXAEAV?$allocator@U?$tvec4@M$0A@@glm@@@1@QEAU?$tvec4@M$0A@@glm@@@Z
_TEXT	SEGMENT
$T1 = 32
__formal$ = 64
_Ptr$ = 72
??$construct@U?$tvec4@M$0A@@glm@@$$V@?$_Default_allocator_traits@V?$allocator@U?$tvec4@M$0A@@glm@@@std@@@std@@SAXAEAV?$allocator@U?$tvec4@M$0A@@glm@@@1@QEAU?$tvec4@M$0A@@glm@@@Z PROC ; std::_Default_allocator_traits<std::allocator<glm::tvec4<float,0> > >::construct<glm::tvec4<float,0> >, COMDAT

; 673  :     static _CONSTEXPR20 void construct(_Alloc&, _Objty* const _Ptr, _Types&&... _Args) {

$LN3:
	mov	QWORD PTR [rsp+16], rdx
	mov	QWORD PTR [rsp+8], rcx
	push	rdi
	sub	rsp, 48					; 00000030H

; 674  : #if _HAS_CXX20
; 675  :         if (_STD is_constant_evaluated()) {
; 676  :             _STD construct_at(_Ptr, _STD forward<_Types>(_Args)...);
; 677  :         } else
; 678  : #endif // _HAS_CXX20
; 679  :         {
; 680  :             ::new (_Voidify_iter(_Ptr)) _Objty(_STD forward<_Types>(_Args)...);

	mov	rcx, QWORD PTR _Ptr$[rsp]
	call	??$_Voidify_iter@PEAU?$tvec4@M$0A@@glm@@@std@@YAPEAXPEAU?$tvec4@M$0A@@glm@@@Z ; std::_Voidify_iter<glm::tvec4<float,0> *>
	mov	rdx, rax
	mov	ecx, 16
	call	??2@YAPEAX_KPEAX@Z			; operator new
	mov	QWORD PTR $T1[rsp], rax
	mov	rcx, QWORD PTR $T1[rsp]
	call	??0?$tvec4@M$0A@@glm@@QEAA@XZ		; glm::tvec4<float,0>::tvec4<float,0>

; 681  :         }
; 682  :     }

	add	rsp, 48					; 00000030H
	pop	rdi
	ret	0
??$construct@U?$tvec4@M$0A@@glm@@$$V@?$_Default_allocator_traits@V?$allocator@U?$tvec4@M$0A@@glm@@@std@@@std@@SAXAEAV?$allocator@U?$tvec4@M$0A@@glm@@@1@QEAU?$tvec4@M$0A@@glm@@@Z ENDP ; std::_Default_allocator_traits<std::allocator<glm::tvec4<float,0> > >::construct<glm::tvec4<float,0> >
_TEXT	ENDS
; Function compile flags: /Odtp /RTCsu
; File C:\Program Files\Microsoft Visual Studio\2022\Community\VC\Tools\MSVC\14.32.31326\include\xmemory
;	COMDAT ??$_Emplace_back@U?$tvec4@M$0A@@glm@@@?$_Uninitialized_backout_al@V?$allocator@U?$tvec4@M$0A@@glm@@@std@@@std@@QEAAX$$QEAU?$tvec4@M$0A@@glm@@@Z
_TEXT	SEGMENT
tv64 = 32
this$ = 64
<_Vals_0>$ = 72
??$_Emplace_back@U?$tvec4@M$0A@@glm@@@?$_Uninitialized_backout_al@V?$allocator@U?$tvec4@M$0A@@glm@@@std@@@std@@QEAAX$$QEAU?$tvec4@M$0A@@glm@@@Z PROC ; std::_Uninitialized_backout_al<std::allocator<glm::tvec4<float,0> > >::_Emplace_back<glm::tvec4<float,0> >, COMDAT

; 1655 :     _CONSTEXPR20 void _Emplace_back(_Types&&... _Vals) { // construct a new element at *_Last and increment

$LN3:
	mov	QWORD PTR [rsp+16], rdx
	mov	QWORD PTR [rsp+8], rcx
	push	rdi
	sub	rsp, 48					; 00000030H

; 1656 :         allocator_traits<_Alloc>::construct(_Al, _Unfancy(_Last), _STD forward<_Types>(_Vals)...);

	mov	rcx, QWORD PTR <_Vals_0>$[rsp]
	call	??$forward@U?$tvec4@M$0A@@glm@@@std@@YA$$QEAU?$tvec4@M$0A@@glm@@AEAU12@@Z ; std::forward<glm::tvec4<float,0> >
	mov	QWORD PTR tv64[rsp], rax
	mov	rcx, QWORD PTR this$[rsp]
	mov	rcx, QWORD PTR [rcx+8]
	call	??$_Unfancy@U?$tvec4@M$0A@@glm@@@std@@YAPEAU?$tvec4@M$0A@@glm@@PEAU12@@Z ; std::_Unfancy<glm::tvec4<float,0> >
	mov	rcx, QWORD PTR tv64[rsp]
	mov	r8, rcx
	mov	rdx, rax
	mov	rax, QWORD PTR this$[rsp]
	mov	rcx, QWORD PTR [rax+16]
	call	??$construct@U?$tvec4@M$0A@@glm@@U12@@?$_Default_allocator_traits@V?$allocator@U?$tvec4@M$0A@@glm@@@std@@@std@@SAXAEAV?$allocator@U?$tvec4@M$0A@@glm@@@1@QEAU?$tvec4@M$0A@@glm@@$$QEAU34@@Z ; std::_Default_allocator_traits<std::allocator<glm::tvec4<float,0> > >::construct<glm::tvec4<float,0>,glm::tvec4<float,0> >

; 1657 :         ++_Last;

	mov	rax, QWORD PTR this$[rsp]
	mov	rax, QWORD PTR [rax+8]
	add	rax, 16
	mov	rcx, QWORD PTR this$[rsp]
	mov	QWORD PTR [rcx+8], rax

; 1658 :     }

	add	rsp, 48					; 00000030H
	pop	rdi
	ret	0
??$_Emplace_back@U?$tvec4@M$0A@@glm@@@?$_Uninitialized_backout_al@V?$allocator@U?$tvec4@M$0A@@glm@@@std@@@std@@QEAAX$$QEAU?$tvec4@M$0A@@glm@@@Z ENDP ; std::_Uninitialized_backout_al<std::allocator<glm::tvec4<float,0> > >::_Emplace_back<glm::tvec4<float,0> >
_TEXT	ENDS
; Function compile flags: /Odtp /RTCsu
; File C:\Program Files\Microsoft Visual Studio\2022\Community\VC\Tools\MSVC\14.32.31326\include\xutility
;	COMDAT ??$_Copy_memmove@PEAU?$tvec4@M$0A@@glm@@PEAU12@@std@@YAPEAU?$tvec4@M$0A@@glm@@PEAU12@00@Z
_TEXT	SEGMENT
_FirstPtr$ = 32
_LastPtr$ = 40
_DestPtr$ = 48
_First_ch$ = 56
_Last_ch$ = 64
_Dest_ch$ = 72
_Count$ = 80
_First$ = 112
_Last$ = 120
_Dest$ = 128
??$_Copy_memmove@PEAU?$tvec4@M$0A@@glm@@PEAU12@@std@@YAPEAU?$tvec4@M$0A@@glm@@PEAU12@00@Z PROC ; std::_Copy_memmove<glm::tvec4<float,0> *,glm::tvec4<float,0> *>, COMDAT

; 4035 : _OutCtgIt _Copy_memmove(_CtgIt _First, _CtgIt _Last, _OutCtgIt _Dest) {

$LN3:
	mov	QWORD PTR [rsp+24], r8
	mov	QWORD PTR [rsp+16], rdx
	mov	QWORD PTR [rsp+8], rcx
	push	rdi
	sub	rsp, 96					; 00000060H

; 4036 :     auto _FirstPtr              = _To_address(_First);

	lea	rcx, QWORD PTR _First$[rsp]
	call	??$_To_address@PEAU?$tvec4@M$0A@@glm@@@std@@YA?A_PAEBQEAU?$tvec4@M$0A@@glm@@@Z ; std::_To_address<glm::tvec4<float,0> *>
	mov	QWORD PTR _FirstPtr$[rsp], rax

; 4037 :     auto _LastPtr               = _To_address(_Last);

	lea	rcx, QWORD PTR _Last$[rsp]
	call	??$_To_address@PEAU?$tvec4@M$0A@@glm@@@std@@YA?A_PAEBQEAU?$tvec4@M$0A@@glm@@@Z ; std::_To_address<glm::tvec4<float,0> *>
	mov	QWORD PTR _LastPtr$[rsp], rax

; 4038 :     auto _DestPtr               = _To_address(_Dest);

	lea	rcx, QWORD PTR _Dest$[rsp]
	call	??$_To_address@PEAU?$tvec4@M$0A@@glm@@@std@@YA?A_PAEBQEAU?$tvec4@M$0A@@glm@@@Z ; std::_To_address<glm::tvec4<float,0> *>
	mov	QWORD PTR _DestPtr$[rsp], rax

; 4039 :     const char* const _First_ch = const_cast<const char*>(reinterpret_cast<const volatile char*>(_FirstPtr));

	mov	rax, QWORD PTR _FirstPtr$[rsp]
	mov	QWORD PTR _First_ch$[rsp], rax

; 4040 :     const char* const _Last_ch  = const_cast<const char*>(reinterpret_cast<const volatile char*>(_LastPtr));

	mov	rax, QWORD PTR _LastPtr$[rsp]
	mov	QWORD PTR _Last_ch$[rsp], rax

; 4041 :     char* const _Dest_ch        = const_cast<char*>(reinterpret_cast<const volatile char*>(_DestPtr));

	mov	rax, QWORD PTR _DestPtr$[rsp]
	mov	QWORD PTR _Dest_ch$[rsp], rax

; 4042 :     const auto _Count           = static_cast<size_t>(_Last_ch - _First_ch);

	mov	rax, QWORD PTR _First_ch$[rsp]
	mov	rcx, QWORD PTR _Last_ch$[rsp]
	sub	rcx, rax
	mov	rax, rcx
	mov	QWORD PTR _Count$[rsp], rax

; 4043 :     _CSTD memmove(_Dest_ch, _First_ch, _Count);

	mov	r8, QWORD PTR _Count$[rsp]
	mov	rdx, QWORD PTR _First_ch$[rsp]
	mov	rcx, QWORD PTR _Dest_ch$[rsp]
	call	memmove

; 4044 :     if constexpr (is_pointer_v<_OutCtgIt>) {
; 4045 :         return reinterpret_cast<_OutCtgIt>(_Dest_ch + _Count);

	mov	rax, QWORD PTR _Count$[rsp]
	mov	rcx, QWORD PTR _Dest_ch$[rsp]
	add	rcx, rax
	mov	rax, rcx

; 4046 :     } else {
; 4047 :         return _Dest + (_LastPtr - _FirstPtr);
; 4048 :     }
; 4049 : }

	add	rsp, 96					; 00000060H
	pop	rdi
	ret	0
??$_Copy_memmove@PEAU?$tvec4@M$0A@@glm@@PEAU12@@std@@YAPEAU?$tvec4@M$0A@@glm@@PEAU12@00@Z ENDP ; std::_Copy_memmove<glm::tvec4<float,0> *,glm::tvec4<float,0> *>
_TEXT	ENDS
; Function compile flags: /Odtp /RTCsu
; File C:\Program Files\Microsoft Visual Studio\2022\Community\VC\Tools\MSVC\14.32.31326\include\xstddef
;	COMDAT ??$_Unfancy@U?$tvec4@M$0A@@glm@@@std@@YAPEAU?$tvec4@M$0A@@glm@@PEAU12@@Z
_TEXT	SEGMENT
_Ptr$ = 16
??$_Unfancy@U?$tvec4@M$0A@@glm@@@std@@YAPEAU?$tvec4@M$0A@@glm@@PEAU12@@Z PROC ; std::_Unfancy<glm::tvec4<float,0> >, COMDAT

; 265  : _NODISCARD constexpr _Ty* _Unfancy(_Ty* _Ptr) noexcept { // do nothing for plain pointers

$LN3:
	mov	QWORD PTR [rsp+8], rcx
	push	rdi

; 266  :     return _Ptr;

	mov	rax, QWORD PTR _Ptr$[rsp]

; 267  : }

	pop	rdi
	ret	0
??$_Unfancy@U?$tvec4@M$0A@@glm@@@std@@YAPEAU?$tvec4@M$0A@@glm@@PEAU12@@Z ENDP ; std::_Unfancy<glm::tvec4<float,0> >
_TEXT	ENDS
; Function compile flags: /Odtp /RTCsu
; File C:\Program Files\Microsoft Visual Studio\2022\Community\VC\Tools\MSVC\14.32.31326\include\type_traits
;	COMDAT ??$move@AEAU?$tvec4@M$0A@@glm@@@std@@YA$$QEAU?$tvec4@M$0A@@glm@@AEAU12@@Z
_TEXT	SEGMENT
_Arg$ = 16
??$move@AEAU?$tvec4@M$0A@@glm@@@std@@YA$$QEAU?$tvec4@M$0A@@glm@@AEAU12@@Z PROC ; std::move<glm::tvec4<float,0> &>, COMDAT

; 1352 : _NODISCARD constexpr remove_reference_t<_Ty>&& move(_Ty&& _Arg) noexcept { // forward _Arg as movable

$LN3:
	mov	QWORD PTR [rsp+8], rcx
	push	rdi

; 1353 :     return static_cast<remove_reference_t<_Ty>&&>(_Arg);

	mov	rax, QWORD PTR _Arg$[rsp]

; 1354 : }

	pop	rdi
	ret	0
??$move@AEAU?$tvec4@M$0A@@glm@@@std@@YA$$QEAU?$tvec4@M$0A@@glm@@AEAU12@@Z ENDP ; std::move<glm::tvec4<float,0> &>
_TEXT	ENDS
; Function compile flags: /Odtp /RTCsu
; File C:\Program Files\Microsoft Visual Studio\2022\Community\VC\Tools\MSVC\14.32.31326\include\xutility
;	COMDAT ??$_Get_unwrapped@AEBQEAU?$tvec4@M$0A@@glm@@@std@@YA?A_TAEBQEAU?$tvec4@M$0A@@glm@@@Z
_TEXT	SEGMENT
_It$ = 16
??$_Get_unwrapped@AEBQEAU?$tvec4@M$0A@@glm@@@std@@YA?A_TAEBQEAU?$tvec4@M$0A@@glm@@@Z PROC ; std::_Get_unwrapped<glm::tvec4<float,0> * const &>, COMDAT

; 1270 : _NODISCARD constexpr decltype(auto) _Get_unwrapped(_Iter&& _It) {

$LN3:
	mov	QWORD PTR [rsp+8], rcx
	push	rdi

; 1271 :     // unwrap an iterator previously subjected to _Adl_verify_range or otherwise validated
; 1272 :     if constexpr (is_pointer_v<decay_t<_Iter>>) { // special-case pointers and arrays
; 1273 :         return _It + 0;

	mov	rax, QWORD PTR _It$[rsp]
	mov	rax, QWORD PTR [rax]

; 1274 :     } else if constexpr (_Unwrappable_v<_Iter>) {
; 1275 :         return static_cast<_Iter&&>(_It)._Unwrapped();
; 1276 :     } else {
; 1277 :         return static_cast<_Iter&&>(_It);
; 1278 :     }
; 1279 : }

	pop	rdi
	ret	0
??$_Get_unwrapped@AEBQEAU?$tvec4@M$0A@@glm@@@std@@YA?A_TAEBQEAU?$tvec4@M$0A@@glm@@@Z ENDP ; std::_Get_unwrapped<glm::tvec4<float,0> * const &>
_TEXT	ENDS
; Function compile flags: /Odtp /RTCsu
; File C:\Users\ksart\OneDrive\Desktop\FlappyBird\libraries\external\glm\glm\detail\func_common.inl
;	COMDAT ?call@?$compute_trunc@M$0A@Utvec4@glm@@$0A@@detail@glm@@SA?AU?$tvec4@M$0A@@3@AEBU43@@Z
_TEXT	SEGMENT
__$ReturnUdt$ = 48
x$ = 56
?call@?$compute_trunc@M$0A@Utvec4@glm@@$0A@@detail@glm@@SA?AU?$tvec4@M$0A@@3@AEBU43@@Z PROC ; glm::detail::compute_trunc<float,0,glm::tvec4,0>::call, COMDAT

; 236  : 		{

$LN3:
	mov	QWORD PTR [rsp+16], rdx
	mov	QWORD PTR [rsp+8], rcx
	push	rdi
	sub	rsp, 32					; 00000020H

; 237  : 			return detail::functor1<T, T, P, vecType>::call(trunc, x);

	mov	r8, QWORD PTR x$[rsp]
	lea	rdx, OFFSET FLAT:?trunc@@YAMM@Z		; trunc
	mov	rcx, QWORD PTR __$ReturnUdt$[rsp]
	call	?call@?$functor1@MM$0A@Utvec4@glm@@@detail@glm@@SA?AU?$tvec4@M$0A@@3@P6AMM@ZAEBU43@@Z ; glm::detail::functor1<float,float,0,glm::tvec4>::call
	mov	rax, QWORD PTR __$ReturnUdt$[rsp]

; 238  : 		}

	add	rsp, 32					; 00000020H
	pop	rdi
	ret	0
?call@?$compute_trunc@M$0A@Utvec4@glm@@$0A@@detail@glm@@SA?AU?$tvec4@M$0A@@3@AEBU43@@Z ENDP ; glm::detail::compute_trunc<float,0,glm::tvec4,0>::call
_TEXT	ENDS
; Function compile flags: /Odtp /RTCsu
; File C:\Users\ksart\OneDrive\Desktop\FlappyBird\libraries\external\glm\glm\detail\type_vec4.inl
;	COMDAT ??$?_0M@?$tvec4@M$0A@@glm@@QEAAAEAU01@M@Z
_TEXT	SEGMENT
$T1 = 32
$T2 = 48
this$ = 96
scalar$ = 104
??$?_0M@?$tvec4@M$0A@@glm@@QEAAAEAU01@M@Z PROC		; glm::tvec4<float,0>::operator/=<float>, COMDAT

; 432  : 	{

$LN3:
	movss	DWORD PTR [rsp+16], xmm1
	mov	QWORD PTR [rsp+8], rcx
	push	rsi
	push	rdi
	sub	rsp, 72					; 00000048H

; 433  : 		return (*this = detail::compute_vec4_div<T, P, detail::is_aligned<P>::value>::call(*this, tvec4<T, P>(scalar)));

	movss	xmm1, DWORD PTR scalar$[rsp]
	lea	rcx, QWORD PTR $T1[rsp]
	call	??0?$tvec4@M$0A@@glm@@QEAA@M@Z		; glm::tvec4<float,0>::tvec4<float,0>
	mov	r8, rax
	mov	rdx, QWORD PTR this$[rsp]
	lea	rcx, QWORD PTR $T2[rsp]
	call	?call@?$compute_vec4_div@M$0A@$0A@@detail@glm@@SA?AU?$tvec4@M$0A@@3@AEBU43@0@Z ; glm::detail::compute_vec4_div<float,0,0>::call
	mov	rdi, QWORD PTR this$[rsp]
	mov	rsi, rax
	mov	ecx, 16
	rep movsb
	mov	rax, QWORD PTR this$[rsp]

; 434  : 	}

	add	rsp, 72					; 00000048H
	pop	rdi
	pop	rsi
	ret	0
??$?_0M@?$tvec4@M$0A@@glm@@QEAAAEAU01@M@Z ENDP		; glm::tvec4<float,0>::operator/=<float>
_TEXT	ENDS
; Function compile flags: /Odtp /RTCsu
; File C:\Users\ksart\OneDrive\Desktop\FlappyBird\libraries\external\glm\glm\detail\type_vec4.inl
;	COMDAT ?call@?$compute_vec4_sub@M$0A@$0A@@detail@glm@@SA?AU?$tvec4@M$0A@@3@AEBU43@0@Z
_TEXT	SEGMENT
tv80 = 48
__$ReturnUdt$ = 80
a$ = 88
b$ = 96
?call@?$compute_vec4_sub@M$0A@$0A@@detail@glm@@SA?AU?$tvec4@M$0A@@3@AEBU43@0@Z PROC ; glm::detail::compute_vec4_sub<float,0,0>::call, COMDAT

; 50   : 		{

$LN3:
	mov	QWORD PTR [rsp+24], r8
	mov	QWORD PTR [rsp+16], rdx
	mov	QWORD PTR [rsp+8], rcx
	push	rdi
	sub	rsp, 64					; 00000040H

; 51   : 			return tvec4<T, P>(a.x - b.x, a.y - b.y, a.z - b.z, a.w - b.w);

	mov	rax, QWORD PTR a$[rsp]
	mov	rcx, QWORD PTR b$[rsp]
	movss	xmm0, DWORD PTR [rax+12]
	subss	xmm0, DWORD PTR [rcx+12]
	mov	rax, QWORD PTR a$[rsp]
	mov	rcx, QWORD PTR b$[rsp]
	movss	xmm1, DWORD PTR [rax+8]
	subss	xmm1, DWORD PTR [rcx+8]
	mov	rax, QWORD PTR a$[rsp]
	mov	rcx, QWORD PTR b$[rsp]
	movss	xmm2, DWORD PTR [rax+4]
	subss	xmm2, DWORD PTR [rcx+4]
	mov	rax, QWORD PTR a$[rsp]
	mov	rcx, QWORD PTR b$[rsp]
	movss	xmm3, DWORD PTR [rax]
	subss	xmm3, DWORD PTR [rcx]
	movss	DWORD PTR tv80[rsp], xmm3
	movss	DWORD PTR [rsp+32], xmm0
	movaps	xmm3, xmm1
	movss	xmm0, DWORD PTR tv80[rsp]
	movaps	xmm1, xmm0
	mov	rcx, QWORD PTR __$ReturnUdt$[rsp]
	call	??0?$tvec4@M$0A@@glm@@QEAA@MMMM@Z	; glm::tvec4<float,0>::tvec4<float,0>
	mov	rax, QWORD PTR __$ReturnUdt$[rsp]

; 52   : 		}

	add	rsp, 64					; 00000040H
	pop	rdi
	ret	0
?call@?$compute_vec4_sub@M$0A@$0A@@detail@glm@@SA?AU?$tvec4@M$0A@@3@AEBU43@0@Z ENDP ; glm::detail::compute_vec4_sub<float,0,0>::call
_TEXT	ENDS
; Function compile flags: /Odtp /RTCsu
; File C:\Users\ksart\OneDrive\Desktop\FlappyBird\libraries\external\glm\glm\detail\func_common.inl
;	COMDAT ??$mod@M$0A@Utvec1@glm@@@glm@@YA?AU?$tvec1@M$0A@@0@AEBU10@M@Z
_TEXT	SEGMENT
$T1 = 32
__$ReturnUdt$ = 64
x$ = 72
y$ = 80
??$mod@M$0A@Utvec1@glm@@@glm@@YA?AU?$tvec1@M$0A@@0@AEBU10@M@Z PROC ; glm::mod<float,0,glm::tvec1>, COMDAT

; 453  : 	{

$LN3:
	movss	DWORD PTR [rsp+24], xmm2
	mov	QWORD PTR [rsp+16], rdx
	mov	QWORD PTR [rsp+8], rcx
	push	rdi
	sub	rsp, 48					; 00000030H

; 454  : 		return detail::compute_mod<T, P, vecType, detail::is_aligned<P>::value>::call(x, vecType<T, P>(y));

	movss	xmm1, DWORD PTR y$[rsp]
	lea	rcx, QWORD PTR $T1[rsp]
	call	??0?$tvec1@M$0A@@glm@@QEAA@M@Z		; glm::tvec1<float,0>::tvec1<float,0>
	mov	r8, rax
	mov	rdx, QWORD PTR x$[rsp]
	mov	rcx, QWORD PTR __$ReturnUdt$[rsp]
	call	?call@?$compute_mod@M$0A@Utvec1@glm@@$0A@@detail@glm@@SA?AU?$tvec1@M$0A@@3@AEBU43@0@Z ; glm::detail::compute_mod<float,0,glm::tvec1,0>::call
	mov	rax, QWORD PTR __$ReturnUdt$[rsp]

; 455  : 	}

	add	rsp, 48					; 00000030H
	pop	rdi
	ret	0
??$mod@M$0A@Utvec1@glm@@@glm@@YA?AU?$tvec1@M$0A@@0@AEBU10@M@Z ENDP ; glm::mod<float,0,glm::tvec1>
_TEXT	ENDS
; Function compile flags: /Odtp /RTCsu
; File C:\Program Files\Microsoft Visual Studio\2022\Community\VC\Tools\MSVC\14.32.31326\include\utility
;	COMDAT ??$min@_K@std@@YAAEB_KAEB_K0@Z
_TEXT	SEGMENT
$T1 = 0
tv65 = 8
_Left$ = 32
_Right$ = 40
??$min@_K@std@@YAAEB_KAEB_K0@Z PROC			; std::min<unsigned __int64>, COMDAT

; 64   :     (min) (const _Ty& _Left, const _Ty& _Right) noexcept(noexcept(_Right < _Left)) /* strengthened */ {

$LN5:
	mov	QWORD PTR [rsp+16], rdx
	mov	QWORD PTR [rsp+8], rcx
	push	rdi
	sub	rsp, 16

; 65   :     // return smaller of _Left and _Right
; 66   :     return _Right < _Left ? _Right : _Left;

	mov	rax, QWORD PTR _Right$[rsp]
	mov	rcx, QWORD PTR _Left$[rsp]
	mov	rcx, QWORD PTR [rcx]
	cmp	QWORD PTR [rax], rcx
	jae	SHORT $LN3@min
	mov	rax, QWORD PTR _Right$[rsp]
	mov	QWORD PTR tv65[rsp], rax
	jmp	SHORT $LN4@min
$LN3@min:
	mov	rax, QWORD PTR _Left$[rsp]
	mov	QWORD PTR tv65[rsp], rax
$LN4@min:
	mov	rax, QWORD PTR tv65[rsp]
	mov	QWORD PTR $T1[rsp], rax
	mov	rax, QWORD PTR $T1[rsp]

; 67   : }

	add	rsp, 16
	pop	rdi
	ret	0
??$min@_K@std@@YAAEB_KAEB_K0@Z ENDP			; std::min<unsigned __int64>
_TEXT	ENDS
; Function compile flags: /Odtp /RTCsu
; File C:\Users\ksart\OneDrive\Desktop\FlappyBird\libraries\external\glm\glm\detail\_vectorize.hpp
;	COMDAT ?call@?$functor2@M$0A@Utvec1@glm@@@detail@glm@@SA?AU?$tvec1@M$0A@@3@P6AMMM@ZAEBU43@1@Z
_TEXT	SEGMENT
__$ReturnUdt$ = 48
Func$ = 56
a$ = 64
b$ = 72
?call@?$functor2@M$0A@Utvec1@glm@@@detail@glm@@SA?AU?$tvec1@M$0A@@3@P6AMMM@ZAEBU43@1@Z PROC ; glm::detail::functor2<float,0,glm::tvec1>::call, COMDAT

; 60   : 		{

$LN3:
	mov	QWORD PTR [rsp+32], r9
	mov	QWORD PTR [rsp+24], r8
	mov	QWORD PTR [rsp+16], rdx
	mov	QWORD PTR [rsp+8], rcx
	push	rdi
	sub	rsp, 32					; 00000020H

; 61   : 			return tvec1<T, P>(Func(a.x, b.x));

	mov	rax, QWORD PTR b$[rsp]
	movss	xmm1, DWORD PTR [rax]
	mov	rax, QWORD PTR a$[rsp]
	movss	xmm0, DWORD PTR [rax]
	call	QWORD PTR Func$[rsp]
	movaps	xmm1, xmm0
	mov	rcx, QWORD PTR __$ReturnUdt$[rsp]
	call	??0?$tvec1@M$0A@@glm@@QEAA@M@Z		; glm::tvec1<float,0>::tvec1<float,0>
	mov	rax, QWORD PTR __$ReturnUdt$[rsp]

; 62   : 		}

	add	rsp, 32					; 00000020H
	pop	rdi
	ret	0
?call@?$functor2@M$0A@Utvec1@glm@@@detail@glm@@SA?AU?$tvec1@M$0A@@3@P6AMMM@ZAEBU43@1@Z ENDP ; glm::detail::functor2<float,0,glm::tvec1>::call
_TEXT	ENDS
; Function compile flags: /Odtp /RTCsu
; File C:\Users\ksart\OneDrive\Desktop\FlappyBird\libraries\external\glm\glm\detail\_vectorize.hpp
;	COMDAT ?call@?$functor1@MM$0A@Utvec1@glm@@@detail@glm@@SA?AU?$tvec1@M$0A@@3@P6AMM@ZAEBU43@@Z
_TEXT	SEGMENT
__$ReturnUdt$ = 48
Func$ = 56
v$ = 64
?call@?$functor1@MM$0A@Utvec1@glm@@@detail@glm@@SA?AU?$tvec1@M$0A@@3@P6AMM@ZAEBU43@@Z PROC ; glm::detail::functor1<float,float,0,glm::tvec1>::call, COMDAT

; 21   : 		{

$LN3:
	mov	QWORD PTR [rsp+24], r8
	mov	QWORD PTR [rsp+16], rdx
	mov	QWORD PTR [rsp+8], rcx
	push	rdi
	sub	rsp, 32					; 00000020H

; 22   : 			return tvec1<R, P>(Func(v.x));

	mov	rax, QWORD PTR v$[rsp]
	movss	xmm0, DWORD PTR [rax]
	call	QWORD PTR Func$[rsp]
	movaps	xmm1, xmm0
	mov	rcx, QWORD PTR __$ReturnUdt$[rsp]
	call	??0?$tvec1@M$0A@@glm@@QEAA@M@Z		; glm::tvec1<float,0>::tvec1<float,0>
	mov	rax, QWORD PTR __$ReturnUdt$[rsp]

; 23   : 		}

	add	rsp, 32					; 00000020H
	pop	rdi
	ret	0
?call@?$functor1@MM$0A@Utvec1@glm@@@detail@glm@@SA?AU?$tvec1@M$0A@@3@P6AMM@ZAEBU43@@Z ENDP ; glm::detail::functor1<float,float,0,glm::tvec1>::call
_TEXT	ENDS
; Function compile flags: /Odtp /RTCsu
; File C:\Users\ksart\OneDrive\Desktop\FlappyBird\libraries\external\glm\glm\detail\_vectorize.hpp
;	COMDAT ?call@?$functor2@M$0A@Utvec4@glm@@@detail@glm@@SA?AU?$tvec4@M$0A@@3@P6AMMM@ZAEBU43@1@Z
_TEXT	SEGMENT
tv66 = 48
tv72 = 52
tv78 = 56
__$ReturnUdt$ = 80
Func$ = 88
a$ = 96
b$ = 104
?call@?$functor2@M$0A@Utvec4@glm@@@detail@glm@@SA?AU?$tvec4@M$0A@@3@P6AMMM@ZAEBU43@1@Z PROC ; glm::detail::functor2<float,0,glm::tvec4>::call, COMDAT

; 87   : 		{

$LN3:
	mov	QWORD PTR [rsp+32], r9
	mov	QWORD PTR [rsp+24], r8
	mov	QWORD PTR [rsp+16], rdx
	mov	QWORD PTR [rsp+8], rcx
	push	rdi
	sub	rsp, 64					; 00000040H

; 88   : 			return tvec4<T, P>(Func(a.x, b.x), Func(a.y, b.y), Func(a.z, b.z), Func(a.w, b.w));

	mov	rax, QWORD PTR b$[rsp]
	movss	xmm1, DWORD PTR [rax+12]
	mov	rax, QWORD PTR a$[rsp]
	movss	xmm0, DWORD PTR [rax+12]
	call	QWORD PTR Func$[rsp]
	movss	DWORD PTR tv66[rsp], xmm0
	mov	rax, QWORD PTR b$[rsp]
	movss	xmm1, DWORD PTR [rax+8]
	mov	rax, QWORD PTR a$[rsp]
	movss	xmm0, DWORD PTR [rax+8]
	call	QWORD PTR Func$[rsp]
	movss	DWORD PTR tv72[rsp], xmm0
	mov	rax, QWORD PTR b$[rsp]
	movss	xmm1, DWORD PTR [rax+4]
	mov	rax, QWORD PTR a$[rsp]
	movss	xmm0, DWORD PTR [rax+4]
	call	QWORD PTR Func$[rsp]
	movss	DWORD PTR tv78[rsp], xmm0
	mov	rax, QWORD PTR b$[rsp]
	movss	xmm1, DWORD PTR [rax]
	mov	rax, QWORD PTR a$[rsp]
	movss	xmm0, DWORD PTR [rax]
	call	QWORD PTR Func$[rsp]
	movss	xmm1, DWORD PTR tv66[rsp]
	movss	DWORD PTR [rsp+32], xmm1
	movss	xmm1, DWORD PTR tv72[rsp]
	movaps	xmm3, xmm1
	movss	xmm1, DWORD PTR tv78[rsp]
	movaps	xmm2, xmm1
	movaps	xmm1, xmm0
	mov	rcx, QWORD PTR __$ReturnUdt$[rsp]
	call	??0?$tvec4@M$0A@@glm@@QEAA@MMMM@Z	; glm::tvec4<float,0>::tvec4<float,0>
	mov	rax, QWORD PTR __$ReturnUdt$[rsp]

; 89   : 		}

	add	rsp, 64					; 00000040H
	pop	rdi
	ret	0
?call@?$functor2@M$0A@Utvec4@glm@@@detail@glm@@SA?AU?$tvec4@M$0A@@3@P6AMMM@ZAEBU43@1@Z ENDP ; glm::detail::functor2<float,0,glm::tvec4>::call
_TEXT	ENDS
; Function compile flags: /Odtp /RTCsu
; File C:\Program Files\Microsoft Visual Studio\2022\Community\VC\Tools\MSVC\14.32.31326\include\xmemory
;	COMDAT ??$_Allocate_manually_vector_aligned@U_Default_allocate_traits@std@@@std@@YAPEAX_K@Z
_TEXT	SEGMENT
_Block_size$ = 48
_Ptr_container$ = 56
_Ptr$ = 64
_Bytes$ = 96
??$_Allocate_manually_vector_aligned@U_Default_allocate_traits@std@@@std@@YAPEAX_K@Z PROC ; std::_Allocate_manually_vector_aligned<std::_Default_allocate_traits>, COMDAT

; 127  : __declspec(allocator) void* _Allocate_manually_vector_aligned(const size_t _Bytes) {

$LN13:
	mov	QWORD PTR [rsp+8], rcx
	push	rdi
	sub	rsp, 80					; 00000050H

; 128  :     // allocate _Bytes manually aligned to at least _Big_allocation_alignment
; 129  :     const size_t _Block_size = _Non_user_size + _Bytes;

	mov	rax, QWORD PTR _Bytes$[rsp]
	add	rax, 47					; 0000002fH
	mov	QWORD PTR _Block_size$[rsp], rax

; 130  :     if (_Block_size <= _Bytes) {

	mov	rax, QWORD PTR _Bytes$[rsp]
	cmp	QWORD PTR _Block_size$[rsp], rax
	ja	SHORT $LN8@Allocate_m

; 131  :         _Throw_bad_array_new_length(); // add overflow

	call	?_Throw_bad_array_new_length@std@@YAXXZ	; std::_Throw_bad_array_new_length
$LN8@Allocate_m:

; 132  :     }
; 133  : 
; 134  :     const uintptr_t _Ptr_container = reinterpret_cast<uintptr_t>(_Traits::_Allocate(_Block_size));

	mov	rcx, QWORD PTR _Block_size$[rsp]
	call	?_Allocate@_Default_allocate_traits@std@@SAPEAX_K@Z ; std::_Default_allocate_traits::_Allocate
	mov	QWORD PTR _Ptr_container$[rsp], rax
$LN4@Allocate_m:

; 135  :     _STL_VERIFY(_Ptr_container != 0, "invalid argument"); // validate even in release since we're doing p[-1]

	cmp	QWORD PTR _Ptr_container$[rsp], 0
	je	SHORT $LN9@Allocate_m
	jmp	SHORT $LN10@Allocate_m
$LN9@Allocate_m:
$LN7@Allocate_m:
	lea	rax, OFFSET FLAT:$SG61097
	mov	QWORD PTR [rsp+40], rax
	lea	rax, OFFSET FLAT:$SG61098
	mov	QWORD PTR [rsp+32], rax
	xor	r9d, r9d
	mov	r8d, 135				; 00000087H
	lea	rdx, OFFSET FLAT:$SG61099
	mov	ecx, 2
	call	QWORD PTR __imp__CrtDbgReport
	cmp	eax, 1
	jne	SHORT $LN12@Allocate_m
	int	3
	xor	eax, eax
$LN12@Allocate_m:
	mov	QWORD PTR [rsp+32], 0
	mov	r9d, 135				; 00000087H
	lea	r8, OFFSET FLAT:$SG61100
	lea	rdx, OFFSET FLAT:$SG61101
	lea	rcx, OFFSET FLAT:$SG61102
	call	QWORD PTR __imp__invalid_parameter
	xor	eax, eax
	test	eax, eax
	jne	SHORT $LN7@Allocate_m
$LN10@Allocate_m:
	xor	eax, eax
	test	eax, eax
	jne	SHORT $LN4@Allocate_m

; 136  :     void* const _Ptr = reinterpret_cast<void*>((_Ptr_container + _Non_user_size) & ~(_Big_allocation_alignment - 1));

	mov	rax, QWORD PTR _Ptr_container$[rsp]
	add	rax, 47					; 0000002fH
	and	rax, -32				; ffffffffffffffe0H
	mov	QWORD PTR _Ptr$[rsp], rax

; 137  :     static_cast<uintptr_t*>(_Ptr)[-1] = _Ptr_container;

	mov	eax, 8
	imul	rax, rax, -1
	mov	rcx, QWORD PTR _Ptr$[rsp]
	mov	rdx, QWORD PTR _Ptr_container$[rsp]
	mov	QWORD PTR [rcx+rax], rdx

; 138  : 
; 139  : #ifdef _DEBUG
; 140  :     static_cast<uintptr_t*>(_Ptr)[-2] = _Big_allocation_sentinel;

	mov	eax, 8
	imul	rax, rax, -2
	mov	rcx, QWORD PTR _Ptr$[rsp]
	mov	rdx, -361700864190383366		; fafafafafafafafaH
	mov	QWORD PTR [rcx+rax], rdx

; 141  : #endif // _DEBUG
; 142  :     return _Ptr;

	mov	rax, QWORD PTR _Ptr$[rsp]
$LN11@Allocate_m:

; 143  : }

	add	rsp, 80					; 00000050H
	pop	rdi
	ret	0
??$_Allocate_manually_vector_aligned@U_Default_allocate_traits@std@@@std@@YAPEAX_K@Z ENDP ; std::_Allocate_manually_vector_aligned<std::_Default_allocate_traits>
_TEXT	ENDS
; Function compile flags: /Odtp /RTCsu
; File C:\Program Files\Microsoft Visual Studio\2022\Community\VC\Tools\MSVC\14.32.31326\include\type_traits
;	COMDAT ??$forward@PEAU_Container_base12@std@@@std@@YA$$QEAPEAU_Container_base12@0@AEAPEAU10@@Z
_TEXT	SEGMENT
_Arg$ = 16
??$forward@PEAU_Container_base12@std@@@std@@YA$$QEAPEAU_Container_base12@0@AEAPEAU10@@Z PROC ; std::forward<std::_Container_base12 *>, COMDAT

; 1341 :     remove_reference_t<_Ty>& _Arg) noexcept { // forward an lvalue as either an lvalue or an rvalue

$LN3:
	mov	QWORD PTR [rsp+8], rcx
	push	rdi

; 1342 :     return static_cast<_Ty&&>(_Arg);

	mov	rax, QWORD PTR _Arg$[rsp]

; 1343 : }

	pop	rdi
	ret	0
??$forward@PEAU_Container_base12@std@@@std@@YA$$QEAPEAU_Container_base12@0@AEAPEAU10@@Z ENDP ; std::forward<std::_Container_base12 *>
_TEXT	ENDS
; Function compile flags: /Odtp /RTCsu
; File C:\Program Files\Microsoft Visual Studio\2022\Community\VC\Tools\MSVC\14.32.31326\include\xutility
;	COMDAT ??$_Voidify_iter@PEAU_Container_proxy@std@@@std@@YAPEAXPEAU_Container_proxy@0@@Z
_TEXT	SEGMENT
_It$ = 16
??$_Voidify_iter@PEAU_Container_proxy@std@@@std@@YAPEAXPEAU_Container_proxy@0@@Z PROC ; std::_Voidify_iter<std::_Container_proxy *>, COMDAT

; 123  : _NODISCARD constexpr void* _Voidify_iter(_Iter _It) noexcept {

$LN3:
	mov	QWORD PTR [rsp+8], rcx
	push	rdi

; 124  :     if constexpr (is_pointer_v<_Iter>) {
; 125  :         return const_cast<void*>(static_cast<const volatile void*>(_It));

	mov	rax, QWORD PTR _It$[rsp]

; 126  :     } else {
; 127  :         return const_cast<void*>(static_cast<const volatile void*>(_STD addressof(*_It)));
; 128  :     }
; 129  : }

	pop	rdi
	ret	0
??$_Voidify_iter@PEAU_Container_proxy@std@@@std@@YAPEAXPEAU_Container_proxy@0@@Z ENDP ; std::_Voidify_iter<std::_Container_proxy *>
_TEXT	ENDS
; Function compile flags: /Odtp /RTCsu
; File C:\Program Files\Microsoft Visual Studio\2022\Community\VC\Tools\MSVC\14.32.31326\include\xstddef
;	COMDAT ??$addressof@U_Container_proxy@std@@@std@@YAPEAU_Container_proxy@0@AEAU10@@Z
_TEXT	SEGMENT
_Val$ = 16
??$addressof@U_Container_proxy@std@@@std@@YAPEAU_Container_proxy@0@AEAU10@@Z PROC ; std::addressof<std::_Container_proxy>, COMDAT

; 252  : _NODISCARD constexpr _Ty* addressof(_Ty& _Val) noexcept {

$LN3:
	mov	QWORD PTR [rsp+8], rcx
	push	rdi

; 253  :     return __builtin_addressof(_Val);

	mov	rax, QWORD PTR _Val$[rsp]

; 254  : }

	pop	rdi
	ret	0
??$addressof@U_Container_proxy@std@@@std@@YAPEAU_Container_proxy@0@AEAU10@@Z ENDP ; std::addressof<std::_Container_proxy>
_TEXT	ENDS
; Function compile flags: /Odtp /RTCsu
; File C:\Program Files\Microsoft Visual Studio\2022\Community\VC\Tools\MSVC\14.32.31326\include\xmemory
;	COMDAT ?deallocate@?$_Default_allocator_traits@V?$allocator@U_Container_proxy@std@@@std@@@std@@SAXAEAV?$allocator@U_Container_proxy@std@@@2@QEAU_Container_proxy@2@_K@Z
_TEXT	SEGMENT
_Al$ = 48
_Ptr$ = 56
_Count$ = 64
?deallocate@?$_Default_allocator_traits@V?$allocator@U_Container_proxy@std@@@std@@@std@@SAXAEAV?$allocator@U_Container_proxy@std@@@2@QEAU_Container_proxy@2@_K@Z PROC ; std::_Default_allocator_traits<std::allocator<std::_Container_proxy> >::deallocate, COMDAT

; 659  :     static _CONSTEXPR20 void deallocate(_Alloc& _Al, const pointer _Ptr, const size_type _Count) {

$LN3:
	mov	QWORD PTR [rsp+24], r8
	mov	QWORD PTR [rsp+16], rdx
	mov	QWORD PTR [rsp+8], rcx
	push	rdi
	sub	rsp, 32					; 00000020H

; 660  :         // no overflow check on the following multiply; we assume _Allocate did that check
; 661  : #if _HAS_CXX20 // TRANSITION, GH-1532
; 662  :         if (_STD is_constant_evaluated()) {
; 663  :             _Al.deallocate(_Ptr, _Count);
; 664  :         } else
; 665  : #endif // _HAS_CXX20
; 666  :         {
; 667  :             (void) _Al;
; 668  :             _Deallocate<_New_alignof<value_type>>(_Ptr, sizeof(value_type) * _Count);

	imul	rax, QWORD PTR _Count$[rsp], 16
	mov	rdx, rax
	mov	rcx, QWORD PTR _Ptr$[rsp]
	call	??$_Deallocate@$0BA@$0A@@std@@YAXPEAX_K@Z ; std::_Deallocate<16,0>

; 669  :         }
; 670  :     }

	add	rsp, 32					; 00000020H
	pop	rdi
	ret	0
?deallocate@?$_Default_allocator_traits@V?$allocator@U_Container_proxy@std@@@std@@@std@@SAXAEAV?$allocator@U_Container_proxy@std@@@2@QEAU_Container_proxy@2@_K@Z ENDP ; std::_Default_allocator_traits<std::allocator<std::_Container_proxy> >::deallocate
_TEXT	ENDS
; Function compile flags: /Odtp /RTCsu
; File C:\Program Files\Microsoft Visual Studio\2022\Community\VC\Tools\MSVC\14.32.31326\include\xmemory
;	COMDAT ??$_Emplace_back@$$V@?$_Uninitialized_backout_al@V?$allocator@U?$tvec4@M$0A@@glm@@@std@@@std@@QEAAXXZ
_TEXT	SEGMENT
this$ = 48
??$_Emplace_back@$$V@?$_Uninitialized_backout_al@V?$allocator@U?$tvec4@M$0A@@glm@@@std@@@std@@QEAAXXZ PROC ; std::_Uninitialized_backout_al<std::allocator<glm::tvec4<float,0> > >::_Emplace_back<>, COMDAT

; 1655 :     _CONSTEXPR20 void _Emplace_back(_Types&&... _Vals) { // construct a new element at *_Last and increment

$LN3:
	mov	QWORD PTR [rsp+8], rcx
	push	rdi
	sub	rsp, 32					; 00000020H

; 1656 :         allocator_traits<_Alloc>::construct(_Al, _Unfancy(_Last), _STD forward<_Types>(_Vals)...);

	mov	rax, QWORD PTR this$[rsp]
	mov	rcx, QWORD PTR [rax+8]
	call	??$_Unfancy@U?$tvec4@M$0A@@glm@@@std@@YAPEAU?$tvec4@M$0A@@glm@@PEAU12@@Z ; std::_Unfancy<glm::tvec4<float,0> >
	mov	rdx, rax
	mov	rax, QWORD PTR this$[rsp]
	mov	rcx, QWORD PTR [rax+16]
	call	??$construct@U?$tvec4@M$0A@@glm@@$$V@?$_Default_allocator_traits@V?$allocator@U?$tvec4@M$0A@@glm@@@std@@@std@@SAXAEAV?$allocator@U?$tvec4@M$0A@@glm@@@1@QEAU?$tvec4@M$0A@@glm@@@Z ; std::_Default_allocator_traits<std::allocator<glm::tvec4<float,0> > >::construct<glm::tvec4<float,0> >

; 1657 :         ++_Last;

	mov	rax, QWORD PTR this$[rsp]
	mov	rax, QWORD PTR [rax+8]
	add	rax, 16
	mov	rcx, QWORD PTR this$[rsp]
	mov	QWORD PTR [rcx+8], rax

; 1658 :     }

	add	rsp, 32					; 00000020H
	pop	rdi
	ret	0
??$_Emplace_back@$$V@?$_Uninitialized_backout_al@V?$allocator@U?$tvec4@M$0A@@glm@@@std@@@std@@QEAAXXZ ENDP ; std::_Uninitialized_backout_al<std::allocator<glm::tvec4<float,0> > >::_Emplace_back<>
_TEXT	ENDS
; Function compile flags: /Odtp /RTCsu
; File C:\Program Files\Microsoft Visual Studio\2022\Community\VC\Tools\MSVC\14.32.31326\include\xmemory
;	COMDAT ?_Release@?$_Uninitialized_backout_al@V?$allocator@U?$tvec4@M$0A@@glm@@@std@@@std@@QEAAPEAU?$tvec4@M$0A@@glm@@XZ
_TEXT	SEGMENT
this$ = 16
?_Release@?$_Uninitialized_backout_al@V?$allocator@U?$tvec4@M$0A@@glm@@@std@@@std@@QEAAPEAU?$tvec4@M$0A@@glm@@XZ PROC ; std::_Uninitialized_backout_al<std::allocator<glm::tvec4<float,0> > >::_Release, COMDAT

; 1660 :     constexpr pointer _Release() { // suppress any exception handling backout and return _Last

$LN3:
	mov	QWORD PTR [rsp+8], rcx
	push	rdi

; 1661 :         _First = _Last;

	mov	rax, QWORD PTR this$[rsp]
	mov	rcx, QWORD PTR this$[rsp]
	mov	rcx, QWORD PTR [rcx+8]
	mov	QWORD PTR [rax], rcx

; 1662 :         return _Last;

	mov	rax, QWORD PTR this$[rsp]
	mov	rax, QWORD PTR [rax+8]

; 1663 :     }

	pop	rdi
	ret	0
?_Release@?$_Uninitialized_backout_al@V?$allocator@U?$tvec4@M$0A@@glm@@@std@@@std@@QEAAPEAU?$tvec4@M$0A@@glm@@XZ ENDP ; std::_Uninitialized_backout_al<std::allocator<glm::tvec4<float,0> > >::_Release
_TEXT	ENDS
; Function compile flags: /Odtp /RTCsu
; File C:\Program Files\Microsoft Visual Studio\2022\Community\VC\Tools\MSVC\14.32.31326\include\xmemory
;	COMDAT ??1?$_Uninitialized_backout_al@V?$allocator@U?$tvec4@M$0A@@glm@@@std@@@std@@QEAA@XZ
_TEXT	SEGMENT
this$ = 48
??1?$_Uninitialized_backout_al@V?$allocator@U?$tvec4@M$0A@@glm@@@std@@@std@@QEAA@XZ PROC ; std::_Uninitialized_backout_al<std::allocator<glm::tvec4<float,0> > >::~_Uninitialized_backout_al<std::allocator<glm::tvec4<float,0> > >, COMDAT

; 1650 :     _CONSTEXPR20 ~_Uninitialized_backout_al() {

$LN3:
	mov	QWORD PTR [rsp+8], rcx
	push	rdi
	sub	rsp, 32					; 00000020H

; 1651 :         _Destroy_range(_First, _Last, _Al);

	mov	rax, QWORD PTR this$[rsp]
	mov	r8, QWORD PTR [rax+16]
	mov	rax, QWORD PTR this$[rsp]
	mov	rdx, QWORD PTR [rax+8]
	mov	rax, QWORD PTR this$[rsp]
	mov	rcx, QWORD PTR [rax]
	call	??$_Destroy_range@V?$allocator@U?$tvec4@M$0A@@glm@@@std@@@std@@YAXPEAU?$tvec4@M$0A@@glm@@QEAU12@AEAV?$allocator@U?$tvec4@M$0A@@glm@@@0@@Z ; std::_Destroy_range<std::allocator<glm::tvec4<float,0> > >

; 1652 :     }

	add	rsp, 32					; 00000020H
	pop	rdi
	ret	0
??1?$_Uninitialized_backout_al@V?$allocator@U?$tvec4@M$0A@@glm@@@std@@@std@@QEAA@XZ ENDP ; std::_Uninitialized_backout_al<std::allocator<glm::tvec4<float,0> > >::~_Uninitialized_backout_al<std::allocator<glm::tvec4<float,0> > >
_TEXT	ENDS
; Function compile flags: /Odtp /RTCsu
; File C:\Program Files\Microsoft Visual Studio\2022\Community\VC\Tools\MSVC\14.32.31326\include\xmemory
;	COMDAT ??0?$_Uninitialized_backout_al@V?$allocator@U?$tvec4@M$0A@@glm@@@std@@@std@@QEAA@PEAU?$tvec4@M$0A@@glm@@AEAV?$allocator@U?$tvec4@M$0A@@glm@@@1@@Z
_TEXT	SEGMENT
this$ = 16
_Dest$ = 24
_Al_$ = 32
??0?$_Uninitialized_backout_al@V?$allocator@U?$tvec4@M$0A@@glm@@@std@@@std@@QEAA@PEAU?$tvec4@M$0A@@glm@@AEAV?$allocator@U?$tvec4@M$0A@@glm@@@1@@Z PROC ; std::_Uninitialized_backout_al<std::allocator<glm::tvec4<float,0> > >::_Uninitialized_backout_al<std::allocator<glm::tvec4<float,0> > >, COMDAT

; 1645 :     _CONSTEXPR20 _Uninitialized_backout_al(pointer _Dest, _Alloc& _Al_) : _First(_Dest), _Last(_Dest), _Al(_Al_) {}

$LN3:
	mov	QWORD PTR [rsp+24], r8
	mov	QWORD PTR [rsp+16], rdx
	mov	QWORD PTR [rsp+8], rcx
	push	rdi
	mov	rax, QWORD PTR this$[rsp]
	mov	rcx, QWORD PTR _Dest$[rsp]
	mov	QWORD PTR [rax], rcx
	mov	rax, QWORD PTR this$[rsp]
	mov	rcx, QWORD PTR _Dest$[rsp]
	mov	QWORD PTR [rax+8], rcx
	mov	rax, QWORD PTR this$[rsp]
	mov	rcx, QWORD PTR _Al_$[rsp]
	mov	QWORD PTR [rax+16], rcx
	mov	rax, QWORD PTR this$[rsp]
	pop	rdi
	ret	0
??0?$_Uninitialized_backout_al@V?$allocator@U?$tvec4@M$0A@@glm@@@std@@@std@@QEAA@PEAU?$tvec4@M$0A@@glm@@AEAV?$allocator@U?$tvec4@M$0A@@glm@@@1@@Z ENDP ; std::_Uninitialized_backout_al<std::allocator<glm::tvec4<float,0> > >::_Uninitialized_backout_al<std::allocator<glm::tvec4<float,0> > >
_TEXT	ENDS
; Function compile flags: /Odtp /RTCsu
; File C:\Program Files\Microsoft Visual Studio\2022\Community\VC\Tools\MSVC\14.32.31326\include\xmemory
;	COMDAT ??$_Uninitialized_move@PEAU?$tvec4@M$0A@@glm@@V?$allocator@U?$tvec4@M$0A@@glm@@@std@@@std@@YAPEAU?$tvec4@M$0A@@glm@@QEAU12@0PEAU12@AEAV?$allocator@U?$tvec4@M$0A@@glm@@@0@@Z
_TEXT	SEGMENT
_UFirst$ = 32
_ULast$ = 40
_Backout$ = 56
$T4 = 88
_First$ = 112
_Last$ = 120
_Dest$ = 128
_Al$ = 136
??$_Uninitialized_move@PEAU?$tvec4@M$0A@@glm@@V?$allocator@U?$tvec4@M$0A@@glm@@@std@@@std@@YAPEAU?$tvec4@M$0A@@glm@@QEAU12@0PEAU12@AEAV?$allocator@U?$tvec4@M$0A@@glm@@@0@@Z PROC ; std::_Uninitialized_move<glm::tvec4<float,0> *,std::allocator<glm::tvec4<float,0> > >, COMDAT

; 1734 :     const _InIt _First, const _InIt _Last, _Alloc_ptr_t<_Alloc> _Dest, _Alloc& _Al) {

$LN7:
	mov	QWORD PTR [rsp+32], r9
	mov	QWORD PTR [rsp+24], r8
	mov	QWORD PTR [rsp+16], rdx
	mov	QWORD PTR [rsp+8], rcx
	push	rdi
	sub	rsp, 96					; 00000060H
	lea	rdi, QWORD PTR [rsp+32]
	mov	ecx, 16
	mov	eax, -858993460				; ccccccccH
	rep stosd
	mov	rcx, QWORD PTR [rsp+112]

; 1735 :     // move [_First, _Last) to raw _Dest, using _Al
; 1736 :     // note: only called internally from elsewhere in the STL
; 1737 :     using _Ptrval     = typename _Alloc::value_type*;
; 1738 :     auto _UFirst      = _Get_unwrapped(_First);

	lea	rcx, QWORD PTR _First$[rsp]
	call	??$_Get_unwrapped@AEBQEAU?$tvec4@M$0A@@glm@@@std@@YA?A_TAEBQEAU?$tvec4@M$0A@@glm@@@Z ; std::_Get_unwrapped<glm::tvec4<float,0> * const &>
	mov	QWORD PTR _UFirst$[rsp], rax

; 1739 :     const auto _ULast = _Get_unwrapped(_Last);

	lea	rcx, QWORD PTR _Last$[rsp]
	call	??$_Get_unwrapped@AEBQEAU?$tvec4@M$0A@@glm@@@std@@YA?A_TAEBQEAU?$tvec4@M$0A@@glm@@@Z ; std::_Get_unwrapped<glm::tvec4<float,0> * const &>
	mov	QWORD PTR _ULast$[rsp], rax

; 1740 :     if constexpr (conjunction_v<bool_constant<_Iter_move_cat<decltype(_UFirst), _Ptrval>::_Bitcopy_constructible>,
; 1741 :                       _Uses_default_construct<_Alloc, _Ptrval, decltype(_STD move(*_UFirst))>>) {
; 1742 : #if _HAS_CXX20
; 1743 :         if (!_STD is_constant_evaluated())
; 1744 : #endif // _HAS_CXX20
; 1745 :         {
; 1746 :             _Copy_memmove(_UFirst, _ULast, _Unfancy(_Dest));

	mov	rcx, QWORD PTR _Dest$[rsp]
	call	??$_Unfancy@U?$tvec4@M$0A@@glm@@@std@@YAPEAU?$tvec4@M$0A@@glm@@PEAU12@@Z ; std::_Unfancy<glm::tvec4<float,0> >
	mov	r8, rax
	mov	rdx, QWORD PTR _ULast$[rsp]
	mov	rcx, QWORD PTR _UFirst$[rsp]
	call	??$_Copy_memmove@PEAU?$tvec4@M$0A@@glm@@PEAU12@@std@@YAPEAU?$tvec4@M$0A@@glm@@PEAU12@00@Z ; std::_Copy_memmove<glm::tvec4<float,0> *,glm::tvec4<float,0> *>

; 1747 :             return _Dest + (_ULast - _UFirst);

	mov	rax, QWORD PTR _UFirst$[rsp]
	mov	rcx, QWORD PTR _ULast$[rsp]
	sub	rcx, rax
	mov	rax, rcx
	sar	rax, 4
	imul	rax, rax, 16
	mov	rcx, QWORD PTR _Dest$[rsp]
	add	rcx, rax
	mov	rax, rcx
	jmp	SHORT $LN1@Uninitiali

; 1748 :         }
; 1749 :     }
; 1750 : 
; 1751 :     _Uninitialized_backout_al<_Alloc> _Backout{_Dest, _Al};

	mov	r8, QWORD PTR _Al$[rsp]
	mov	rdx, QWORD PTR _Dest$[rsp]
	lea	rcx, QWORD PTR _Backout$[rsp]
	call	??0?$_Uninitialized_backout_al@V?$allocator@U?$tvec4@M$0A@@glm@@@std@@@std@@QEAA@PEAU?$tvec4@M$0A@@glm@@AEAV?$allocator@U?$tvec4@M$0A@@glm@@@1@@Z ; std::_Uninitialized_backout_al<std::allocator<glm::tvec4<float,0> > >::_Uninitialized_backout_al<std::allocator<glm::tvec4<float,0> > >

; 1752 :     for (; _UFirst != _ULast; ++_UFirst) {

	jmp	SHORT $LN4@Uninitiali
$LN2@Uninitiali:
	mov	rax, QWORD PTR _UFirst$[rsp]
	add	rax, 16
	mov	QWORD PTR _UFirst$[rsp], rax
$LN4@Uninitiali:
	mov	rax, QWORD PTR _ULast$[rsp]
	cmp	QWORD PTR _UFirst$[rsp], rax
	je	SHORT $LN3@Uninitiali

; 1753 :         _Backout._Emplace_back(_STD move(*_UFirst));

	mov	rcx, QWORD PTR _UFirst$[rsp]
	call	??$move@AEAU?$tvec4@M$0A@@glm@@@std@@YA$$QEAU?$tvec4@M$0A@@glm@@AEAU12@@Z ; std::move<glm::tvec4<float,0> &>
	mov	rdx, rax
	lea	rcx, QWORD PTR _Backout$[rsp]
	call	??$_Emplace_back@U?$tvec4@M$0A@@glm@@@?$_Uninitialized_backout_al@V?$allocator@U?$tvec4@M$0A@@glm@@@std@@@std@@QEAAX$$QEAU?$tvec4@M$0A@@glm@@@Z ; std::_Uninitialized_backout_al<std::allocator<glm::tvec4<float,0> > >::_Emplace_back<glm::tvec4<float,0> >

; 1754 :     }

	jmp	SHORT $LN2@Uninitiali
$LN3@Uninitiali:

; 1755 : 
; 1756 :     return _Backout._Release();

	lea	rcx, QWORD PTR _Backout$[rsp]
	call	?_Release@?$_Uninitialized_backout_al@V?$allocator@U?$tvec4@M$0A@@glm@@@std@@@std@@QEAAPEAU?$tvec4@M$0A@@glm@@XZ ; std::_Uninitialized_backout_al<std::allocator<glm::tvec4<float,0> > >::_Release
	mov	QWORD PTR $T4[rsp], rax
	lea	rcx, QWORD PTR _Backout$[rsp]
	call	??1?$_Uninitialized_backout_al@V?$allocator@U?$tvec4@M$0A@@glm@@@std@@@std@@QEAA@XZ ; std::_Uninitialized_backout_al<std::allocator<glm::tvec4<float,0> > >::~_Uninitialized_backout_al<std::allocator<glm::tvec4<float,0> > >
	mov	rax, QWORD PTR $T4[rsp]
$LN1@Uninitiali:

; 1757 : }

	mov	rdi, rax
	mov	rcx, rsp
	lea	rdx, OFFSET FLAT:??$_Uninitialized_move@PEAU?$tvec4@M$0A@@glm@@V?$allocator@U?$tvec4@M$0A@@glm@@@std@@@std@@YAPEAU?$tvec4@M$0A@@glm@@QEAU12@0PEAU12@AEAV?$allocator@U?$tvec4@M$0A@@glm@@@0@@Z$rtcFrameData
	call	_RTC_CheckStackVars
	mov	rax, rdi
	add	rsp, 96					; 00000060H
	pop	rdi
	ret	0
??$_Uninitialized_move@PEAU?$tvec4@M$0A@@glm@@V?$allocator@U?$tvec4@M$0A@@glm@@@std@@@std@@YAPEAU?$tvec4@M$0A@@glm@@QEAU12@0PEAU12@AEAV?$allocator@U?$tvec4@M$0A@@glm@@@0@@Z ENDP ; std::_Uninitialized_move<glm::tvec4<float,0> *,std::allocator<glm::tvec4<float,0> > >
_TEXT	ENDS
; Function compile flags: /Odtp /RTCsu
;	COMDAT text$x
text$x	SEGMENT
_UFirst$ = 32
_ULast$ = 40
_Backout$ = 56
$T4 = 88
_First$ = 112
_Last$ = 120
_Dest$ = 128
_Al$ = 136
?dtor$0@?0???$_Uninitialized_move@PEAU?$tvec4@M$0A@@glm@@V?$allocator@U?$tvec4@M$0A@@glm@@@std@@@std@@YAPEAU?$tvec4@M$0A@@glm@@QEAU12@0PEAU12@AEAV?$allocator@U?$tvec4@M$0A@@glm@@@0@@Z@4HA PROC ; `std::_Uninitialized_move<glm::tvec4<float,0> *,std::allocator<glm::tvec4<float,0> > >'::`1'::dtor$0
	mov	QWORD PTR [rsp+8], rcx
	mov	QWORD PTR [rsp+16], rdx
	push	rbp
	push	rdi
	sub	rsp, 40					; 00000028H
	mov	rbp, rdx
	lea	rcx, QWORD PTR _Backout$[rbp]
	call	??1?$_Uninitialized_backout_al@V?$allocator@U?$tvec4@M$0A@@glm@@@std@@@std@@QEAA@XZ ; std::_Uninitialized_backout_al<std::allocator<glm::tvec4<float,0> > >::~_Uninitialized_backout_al<std::allocator<glm::tvec4<float,0> > >
	add	rsp, 40					; 00000028H
	pop	rdi
	pop	rbp
	ret	0
?dtor$0@?0???$_Uninitialized_move@PEAU?$tvec4@M$0A@@glm@@V?$allocator@U?$tvec4@M$0A@@glm@@@std@@@std@@YAPEAU?$tvec4@M$0A@@glm@@QEAU12@0PEAU12@AEAV?$allocator@U?$tvec4@M$0A@@glm@@@0@@Z@4HA ENDP ; `std::_Uninitialized_move<glm::tvec4<float,0> *,std::allocator<glm::tvec4<float,0> > >'::`1'::dtor$0
text$x	ENDS
; Function compile flags: /Odtp /RTCsu
; File C:\Users\ksart\OneDrive\Desktop\FlappyBird\libraries\external\glm\glm\detail\type_vec1.inl
;	COMDAT ??$?DM$0A@@glm@@YA?AU?$tvec1@M$0A@@0@AEBU10@M@Z
_TEXT	SEGMENT
__$ReturnUdt$ = 48
v$ = 56
scalar$ = 64
??$?DM$0A@@glm@@YA?AU?$tvec1@M$0A@@0@AEBU10@M@Z PROC	; glm::operator*<float,0>, COMDAT

; 358  : 	{

$LN3:
	movss	DWORD PTR [rsp+24], xmm2
	mov	QWORD PTR [rsp+16], rdx
	mov	QWORD PTR [rsp+8], rcx
	push	rdi
	sub	rsp, 32					; 00000020H

; 359  : 		return tvec1<T, P>(

	mov	rax, QWORD PTR v$[rsp]
	movss	xmm0, DWORD PTR [rax]
	mulss	xmm0, DWORD PTR scalar$[rsp]
	movaps	xmm1, xmm0
	mov	rcx, QWORD PTR __$ReturnUdt$[rsp]
	call	??0?$tvec1@M$0A@@glm@@QEAA@M@Z		; glm::tvec1<float,0>::tvec1<float,0>
	mov	rax, QWORD PTR __$ReturnUdt$[rsp]

; 360  : 			v.x * scalar);
; 361  : 	}

	add	rsp, 32					; 00000020H
	pop	rdi
	ret	0
??$?DM$0A@@glm@@YA?AU?$tvec1@M$0A@@0@AEBU10@M@Z ENDP	; glm::operator*<float,0>
_TEXT	ENDS
; Function compile flags: /Odtp /RTCsu
; File C:\Users\ksart\OneDrive\Desktop\FlappyBird\libraries\external\glm\glm\detail\type_vec1.inl
;	COMDAT ??$?HM$0A@@glm@@YA?AU?$tvec1@M$0A@@0@AEBU10@0@Z
_TEXT	SEGMENT
__$ReturnUdt$ = 48
v1$ = 56
v2$ = 64
??$?HM$0A@@glm@@YA?AU?$tvec1@M$0A@@0@AEBU10@0@Z PROC	; glm::operator+<float,0>, COMDAT

; 329  : 	{

$LN3:
	mov	QWORD PTR [rsp+24], r8
	mov	QWORD PTR [rsp+16], rdx
	mov	QWORD PTR [rsp+8], rcx
	push	rdi
	sub	rsp, 32					; 00000020H

; 330  : 		return tvec1<T, P>(

	mov	rax, QWORD PTR v1$[rsp]
	mov	rcx, QWORD PTR v2$[rsp]
	movss	xmm0, DWORD PTR [rax]
	addss	xmm0, DWORD PTR [rcx]
	movaps	xmm1, xmm0
	mov	rcx, QWORD PTR __$ReturnUdt$[rsp]
	call	??0?$tvec1@M$0A@@glm@@QEAA@M@Z		; glm::tvec1<float,0>::tvec1<float,0>
	mov	rax, QWORD PTR __$ReturnUdt$[rsp]

; 331  : 			v1.x + v2.x);
; 332  : 	}

	add	rsp, 32					; 00000020H
	pop	rdi
	ret	0
??$?HM$0A@@glm@@YA?AU?$tvec1@M$0A@@0@AEBU10@0@Z ENDP	; glm::operator+<float,0>
_TEXT	ENDS
; Function compile flags: /Odtp /RTCsu
; File C:\Users\ksart\OneDrive\Desktop\FlappyBird\libraries\external\glm\glm\detail\type_vec1.inl
;	COMDAT ??$?GM$0A@@glm@@YA?AU?$tvec1@M$0A@@0@MAEBU10@@Z
_TEXT	SEGMENT
__$ReturnUdt$ = 48
scalar$ = 56
v$ = 64
??$?GM$0A@@glm@@YA?AU?$tvec1@M$0A@@0@MAEBU10@@Z PROC	; glm::operator-<float,0>, COMDAT

; 344  : 	{

$LN3:
	mov	QWORD PTR [rsp+24], r8
	movss	DWORD PTR [rsp+16], xmm1
	mov	QWORD PTR [rsp+8], rcx
	push	rdi
	sub	rsp, 32					; 00000020H

; 345  : 		return tvec1<T, P>(

	mov	rax, QWORD PTR v$[rsp]
	movss	xmm0, DWORD PTR scalar$[rsp]
	subss	xmm0, DWORD PTR [rax]
	movaps	xmm1, xmm0
	mov	rcx, QWORD PTR __$ReturnUdt$[rsp]
	call	??0?$tvec1@M$0A@@glm@@QEAA@M@Z		; glm::tvec1<float,0>::tvec1<float,0>
	mov	rax, QWORD PTR __$ReturnUdt$[rsp]

; 346  : 			scalar - v.x);
; 347  : 	}

	add	rsp, 32					; 00000020H
	pop	rdi
	ret	0
??$?GM$0A@@glm@@YA?AU?$tvec1@M$0A@@0@MAEBU10@@Z ENDP	; glm::operator-<float,0>
_TEXT	ENDS
; Function compile flags: /Odtp /RTCsu
; File C:\Users\ksart\OneDrive\Desktop\FlappyBird\libraries\external\glm\glm\detail\type_vec1.inl
;	COMDAT ??$?KM$0A@@glm@@YA?AU?$tvec1@M$0A@@0@AEBU10@M@Z
_TEXT	SEGMENT
__$ReturnUdt$ = 48
v$ = 56
scalar$ = 64
??$?KM$0A@@glm@@YA?AU?$tvec1@M$0A@@0@AEBU10@M@Z PROC	; glm::operator/<float,0>, COMDAT

; 379  : 	{

$LN3:
	movss	DWORD PTR [rsp+24], xmm2
	mov	QWORD PTR [rsp+16], rdx
	mov	QWORD PTR [rsp+8], rcx
	push	rdi
	sub	rsp, 32					; 00000020H

; 380  : 		return tvec1<T, P>(

	mov	rax, QWORD PTR v$[rsp]
	movss	xmm0, DWORD PTR [rax]
	divss	xmm0, DWORD PTR scalar$[rsp]
	movaps	xmm1, xmm0
	mov	rcx, QWORD PTR __$ReturnUdt$[rsp]
	call	??0?$tvec1@M$0A@@glm@@QEAA@M@Z		; glm::tvec1<float,0>::tvec1<float,0>
	mov	rax, QWORD PTR __$ReturnUdt$[rsp]

; 381  : 			v.x / scalar);
; 382  : 	}

	add	rsp, 32					; 00000020H
	pop	rdi
	ret	0
??$?KM$0A@@glm@@YA?AU?$tvec1@M$0A@@0@AEBU10@M@Z ENDP	; glm::operator/<float,0>
_TEXT	ENDS
; Function compile flags: /Odtp /RTCsu
; File C:\Users\ksart\OneDrive\Desktop\FlappyBird\libraries\external\glm\glm\detail\func_common.inl
;	COMDAT ?call@?$compute_mix_vector@M_N$0A@Utvec1@glm@@$0A@@detail@glm@@SA?AU?$tvec1@M$0A@@3@AEBU43@0AEBU?$tvec1@_N$0A@@3@@Z
_TEXT	SEGMENT
Result$ = 36
i$4 = 52
tv83 = 56
__$ReturnUdt$ = 80
x$ = 88
y$ = 96
a$ = 104
?call@?$compute_mix_vector@M_N$0A@Utvec1@glm@@$0A@@detail@glm@@SA?AU?$tvec1@M$0A@@3@AEBU43@0AEBU?$tvec1@_N$0A@@3@@Z PROC ; glm::detail::compute_mix_vector<float,bool,0,glm::tvec1,0>::call, COMDAT

; 134  : 		{

$LN8:
	mov	QWORD PTR [rsp+32], r9
	mov	QWORD PTR [rsp+24], r8
	mov	QWORD PTR [rsp+16], rdx
	mov	QWORD PTR [rsp+8], rcx
	push	rdi
	sub	rsp, 64					; 00000040H
	lea	rdi, QWORD PTR [rsp+32]
	mov	ecx, 8
	mov	eax, -858993460				; ccccccccH
	rep stosd
	mov	rcx, QWORD PTR [rsp+80]

; 135  : 			vecType<T, P> Result(uninitialize);

	xor	edx, edx
	lea	rcx, QWORD PTR Result$[rsp]
	call	??0?$tvec1@M$0A@@glm@@QEAA@W4ctor@1@@Z	; glm::tvec1<float,0>::tvec1<float,0>

; 136  : 			for(length_t i = 0; i < x.length(); ++i)

	mov	DWORD PTR i$4[rsp], 0
	jmp	SHORT $LN4@call
$LN2@call:
	mov	eax, DWORD PTR i$4[rsp]
	inc	eax
	mov	DWORD PTR i$4[rsp], eax
$LN4@call:
	call	?length@?$tvec1@M$0A@@glm@@SAHXZ	; glm::tvec1<float,0>::length
	cmp	DWORD PTR i$4[rsp], eax
	jge	SHORT $LN3@call

; 137  : 				Result[i] = a[i] ? y[i] : x[i];

	mov	edx, DWORD PTR i$4[rsp]
	mov	rcx, QWORD PTR a$[rsp]
	call	??A?$tvec1@_N$0A@@glm@@QEBAAEB_NH@Z	; glm::tvec1<bool,0>::operator[]
	movzx	eax, BYTE PTR [rax]
	test	eax, eax
	je	SHORT $LN6@call
	mov	edx, DWORD PTR i$4[rsp]
	mov	rcx, QWORD PTR y$[rsp]
	call	??A?$tvec1@M$0A@@glm@@QEBAAEBMH@Z	; glm::tvec1<float,0>::operator[]
	movss	xmm0, DWORD PTR [rax]
	movss	DWORD PTR tv83[rsp], xmm0
	jmp	SHORT $LN7@call
$LN6@call:
	mov	edx, DWORD PTR i$4[rsp]
	mov	rcx, QWORD PTR x$[rsp]
	call	??A?$tvec1@M$0A@@glm@@QEBAAEBMH@Z	; glm::tvec1<float,0>::operator[]
	movss	xmm0, DWORD PTR [rax]
	movss	DWORD PTR tv83[rsp], xmm0
$LN7@call:
	mov	edx, DWORD PTR i$4[rsp]
	lea	rcx, QWORD PTR Result$[rsp]
	call	??A?$tvec1@M$0A@@glm@@QEAAAEAMH@Z	; glm::tvec1<float,0>::operator[]
	movss	xmm0, DWORD PTR tv83[rsp]
	movss	DWORD PTR [rax], xmm0
	jmp	SHORT $LN2@call
$LN3@call:

; 138  : 			return Result;

	mov	rax, QWORD PTR __$ReturnUdt$[rsp]
	mov	ecx, DWORD PTR Result$[rsp]
	mov	DWORD PTR [rax], ecx
	mov	rax, QWORD PTR __$ReturnUdt$[rsp]

; 139  : 		}

	mov	rdi, rax
	mov	rcx, rsp
	lea	rdx, OFFSET FLAT:?call@?$compute_mix_vector@M_N$0A@Utvec1@glm@@$0A@@detail@glm@@SA?AU?$tvec1@M$0A@@3@AEBU43@0AEBU?$tvec1@_N$0A@@3@@Z$rtcFrameData
	call	_RTC_CheckStackVars
	mov	rax, rdi
	add	rsp, 64					; 00000040H
	pop	rdi
	ret	0
?call@?$compute_mix_vector@M_N$0A@Utvec1@glm@@$0A@@detail@glm@@SA?AU?$tvec1@M$0A@@3@AEBU43@0AEBU?$tvec1@_N$0A@@3@@Z ENDP ; glm::detail::compute_mix_vector<float,bool,0,glm::tvec1,0>::call
_TEXT	ENDS
; Function compile flags: /Odtp /RTCsu
; File C:\Users\ksart\OneDrive\Desktop\FlappyBird\libraries\external\glm\glm\detail\func_common.inl
;	COMDAT ?call@?$compute_abs_vector@M$0A@Utvec1@glm@@$0A@@detail@glm@@SA?AU?$tvec1@M$0A@@3@AEBU43@@Z
_TEXT	SEGMENT
__$ReturnUdt$ = 48
x$ = 56
?call@?$compute_abs_vector@M$0A@Utvec1@glm@@$0A@@detail@glm@@SA?AU?$tvec1@M$0A@@3@AEBU43@@Z PROC ; glm::detail::compute_abs_vector<float,0,glm::tvec1,0>::call, COMDAT

; 114  : 		{

$LN3:
	mov	QWORD PTR [rsp+16], rdx
	mov	QWORD PTR [rsp+8], rcx
	push	rdi
	sub	rsp, 32					; 00000020H

; 115  : 			return detail::functor1<T, T, P, vecType>::call(abs, x);

	mov	r8, QWORD PTR x$[rsp]
	lea	rdx, OFFSET FLAT:??$abs@M@glm@@YAMM@Z	; glm::abs<float>
	mov	rcx, QWORD PTR __$ReturnUdt$[rsp]
	call	?call@?$functor1@MM$0A@Utvec1@glm@@@detail@glm@@SA?AU?$tvec1@M$0A@@3@P6AMM@ZAEBU43@@Z ; glm::detail::functor1<float,float,0,glm::tvec1>::call
	mov	rax, QWORD PTR __$ReturnUdt$[rsp]

; 116  : 		}

	add	rsp, 32					; 00000020H
	pop	rdi
	ret	0
?call@?$compute_abs_vector@M$0A@Utvec1@glm@@$0A@@detail@glm@@SA?AU?$tvec1@M$0A@@3@AEBU43@@Z ENDP ; glm::detail::compute_abs_vector<float,0,glm::tvec1,0>::call
_TEXT	ENDS
; Function compile flags: /Odtp /RTCsu
; File C:\Users\ksart\OneDrive\Desktop\FlappyBird\libraries\external\glm\glm\gtx\common.inl
;	COMDAT ?call@?$compute_fmod@M$0A@Utvec1@glm@@$00@detail@glm@@SA?AU?$tvec1@M$0A@@3@AEBU43@0@Z
_TEXT	SEGMENT
__$ReturnUdt$ = 48
a$ = 56
b$ = 64
?call@?$compute_fmod@M$0A@Utvec1@glm@@$00@detail@glm@@SA?AU?$tvec1@M$0A@@3@AEBU43@0@Z PROC ; glm::detail::compute_fmod<float,0,glm::tvec1,1>::call, COMDAT

; 13   : 		{

$LN3:
	mov	QWORD PTR [rsp+24], r8
	mov	QWORD PTR [rsp+16], rdx
	mov	QWORD PTR [rsp+8], rcx
	push	rdi
	sub	rsp, 32					; 00000020H

; 14   : 			return detail::functor2<T, P, vecType>::call(std::fmod, a, b);

	mov	r9, QWORD PTR b$[rsp]
	mov	r8, QWORD PTR a$[rsp]
	lea	rdx, OFFSET FLAT:?fmod@@YAMMM@Z		; fmod
	mov	rcx, QWORD PTR __$ReturnUdt$[rsp]
	call	?call@?$functor2@M$0A@Utvec1@glm@@@detail@glm@@SA?AU?$tvec1@M$0A@@3@P6AMMM@ZAEBU43@1@Z ; glm::detail::functor2<float,0,glm::tvec1>::call
	mov	rax, QWORD PTR __$ReturnUdt$[rsp]

; 15   : 		}

	add	rsp, 32					; 00000020H
	pop	rdi
	ret	0
?call@?$compute_fmod@M$0A@Utvec1@glm@@$00@detail@glm@@SA?AU?$tvec1@M$0A@@3@AEBU43@0@Z ENDP ; glm::detail::compute_fmod<float,0,glm::tvec1,1>::call
_TEXT	ENDS
; Function compile flags: /Odtp /RTCsu
; File C:\Users\ksart\OneDrive\Desktop\FlappyBird\libraries\external\glm\glm\gtx\integer.inl
;	COMDAT ??$factorial@M@glm@@YAMAEBM@Z
_TEXT	SEGMENT
Temp$ = 16
Result$ = 20
x$ = 48
??$factorial@M@glm@@YAMAEBM@Z PROC			; glm::factorial<float>, COMDAT

; 74   : 	{

$LN6:
	mov	QWORD PTR [rsp+8], rcx
	push	rdi
	sub	rsp, 32					; 00000020H

; 75   : 		genType Temp = x;

	mov	rax, QWORD PTR x$[rsp]
	movss	xmm0, DWORD PTR [rax]
	movss	DWORD PTR Temp$[rsp], xmm0

; 76   : 		genType Result;
; 77   : 		for(Result = 1; Temp > 1; --Temp)

	movss	xmm0, DWORD PTR __real@3f800000
	movss	DWORD PTR Result$[rsp], xmm0
	jmp	SHORT $LN4@factorial
$LN2@factorial:
	movss	xmm0, DWORD PTR Temp$[rsp]
	subss	xmm0, DWORD PTR __real@3f800000
	movss	DWORD PTR Temp$[rsp], xmm0
$LN4@factorial:
	movss	xmm0, DWORD PTR Temp$[rsp]
	comiss	xmm0, DWORD PTR __real@3f800000
	jbe	SHORT $LN3@factorial

; 78   : 			Result *= Temp;

	movss	xmm0, DWORD PTR Result$[rsp]
	mulss	xmm0, DWORD PTR Temp$[rsp]
	movss	DWORD PTR Result$[rsp], xmm0
	jmp	SHORT $LN2@factorial
$LN3@factorial:

; 79   : 		return Result;

	movss	xmm0, DWORD PTR Result$[rsp]

; 80   : 	}

	add	rsp, 32					; 00000020H
	pop	rdi
	ret	0
??$factorial@M@glm@@YAMAEBM@Z ENDP			; glm::factorial<float>
_TEXT	ENDS
; Function compile flags: /Odtp /RTCsu
; File C:\Users\ksart\OneDrive\Desktop\FlappyBird\libraries\external\glm\glm\detail\type_vec4.inl
;	COMDAT ??$?XM@?$tvec4@M$0A@@glm@@QEAAAEAU01@AEBU01@@Z
_TEXT	SEGMENT
$T1 = 32
$T2 = 48
this$ = 96
v$ = 104
??$?XM@?$tvec4@M$0A@@glm@@QEAAAEAU01@AEBU01@@Z PROC	; glm::tvec4<float,0>::operator*=<float>, COMDAT

; 425  : 	{

$LN3:
	mov	QWORD PTR [rsp+16], rdx
	mov	QWORD PTR [rsp+8], rcx
	push	rsi
	push	rdi
	sub	rsp, 72					; 00000048H

; 426  : 		return (*this = detail::compute_vec4_mul<T, P, detail::is_aligned<P>::value>::call(*this, tvec4<T, P>(v)));

	lea	rax, QWORD PTR $T1[rsp]
	mov	rdi, rax
	mov	rsi, QWORD PTR v$[rsp]
	mov	ecx, 16
	rep movsb
	lea	r8, QWORD PTR $T1[rsp]
	mov	rdx, QWORD PTR this$[rsp]
	lea	rcx, QWORD PTR $T2[rsp]
	call	?call@?$compute_vec4_mul@M$0A@$0A@@detail@glm@@SA?AU?$tvec4@M$0A@@3@AEBU43@0@Z ; glm::detail::compute_vec4_mul<float,0,0>::call
	mov	rdi, QWORD PTR this$[rsp]
	mov	rsi, rax
	mov	ecx, 16
	rep movsb
	mov	rax, QWORD PTR this$[rsp]

; 427  : 	}

	add	rsp, 72					; 00000048H
	pop	rdi
	pop	rsi
	ret	0
??$?XM@?$tvec4@M$0A@@glm@@QEAAAEAU01@AEBU01@@Z ENDP	; glm::tvec4<float,0>::operator*=<float>
_TEXT	ENDS
; Function compile flags: /Odtp /RTCsu
; File C:\Users\ksart\OneDrive\Desktop\FlappyBird\libraries\external\glm\glm\detail\type_vec4.inl
;	COMDAT ??$?ZM@?$tvec4@M$0A@@glm@@QEAAAEAU01@AEBU01@@Z
_TEXT	SEGMENT
$T1 = 32
$T2 = 48
this$ = 96
v$ = 104
??$?ZM@?$tvec4@M$0A@@glm@@QEAAAEAU01@AEBU01@@Z PROC	; glm::tvec4<float,0>::operator-=<float>, COMDAT

; 404  : 	{

$LN3:
	mov	QWORD PTR [rsp+16], rdx
	mov	QWORD PTR [rsp+8], rcx
	push	rsi
	push	rdi
	sub	rsp, 72					; 00000048H

; 405  : 		return (*this = detail::compute_vec4_sub<T, P, detail::is_aligned<P>::value>::call(*this, tvec4<T, P>(v)));

	lea	rax, QWORD PTR $T1[rsp]
	mov	rdi, rax
	mov	rsi, QWORD PTR v$[rsp]
	mov	ecx, 16
	rep movsb
	lea	r8, QWORD PTR $T1[rsp]
	mov	rdx, QWORD PTR this$[rsp]
	lea	rcx, QWORD PTR $T2[rsp]
	call	?call@?$compute_vec4_sub@M$0A@$0A@@detail@glm@@SA?AU?$tvec4@M$0A@@3@AEBU43@0@Z ; glm::detail::compute_vec4_sub<float,0,0>::call
	mov	rdi, QWORD PTR this$[rsp]
	mov	rsi, rax
	mov	ecx, 16
	rep movsb
	mov	rax, QWORD PTR this$[rsp]

; 406  : 	}

	add	rsp, 72					; 00000048H
	pop	rdi
	pop	rsi
	ret	0
??$?ZM@?$tvec4@M$0A@@glm@@QEAAAEAU01@AEBU01@@Z ENDP	; glm::tvec4<float,0>::operator-=<float>
_TEXT	ENDS
; Function compile flags: /Odtp /RTCsu
; File C:\Users\ksart\OneDrive\Desktop\FlappyBird\libraries\external\glm\glm\detail\func_common.inl
;	COMDAT ?call@?$compute_mix_vector@M_N$0A@Utvec4@glm@@$0A@@detail@glm@@SA?AU?$tvec4@M$0A@@3@AEBU43@0AEBU?$tvec4@_N$0A@@3@@Z
_TEXT	SEGMENT
Result$ = 40
i$4 = 68
tv83 = 72
__$ReturnUdt$ = 112
x$ = 120
y$ = 128
a$ = 136
?call@?$compute_mix_vector@M_N$0A@Utvec4@glm@@$0A@@detail@glm@@SA?AU?$tvec4@M$0A@@3@AEBU43@0AEBU?$tvec4@_N$0A@@3@@Z PROC ; glm::detail::compute_mix_vector<float,bool,0,glm::tvec4,0>::call, COMDAT

; 134  : 		{

$LN8:
	mov	QWORD PTR [rsp+32], r9
	mov	QWORD PTR [rsp+24], r8
	mov	QWORD PTR [rsp+16], rdx
	mov	QWORD PTR [rsp+8], rcx
	push	rsi
	push	rdi
	sub	rsp, 88					; 00000058H
	lea	rdi, QWORD PTR [rsp+32]
	mov	ecx, 14
	mov	eax, -858993460				; ccccccccH
	rep stosd
	mov	rcx, QWORD PTR [rsp+112]

; 135  : 			vecType<T, P> Result(uninitialize);

	xor	edx, edx
	lea	rcx, QWORD PTR Result$[rsp]
	call	??0?$tvec4@M$0A@@glm@@QEAA@W4ctor@1@@Z	; glm::tvec4<float,0>::tvec4<float,0>

; 136  : 			for(length_t i = 0; i < x.length(); ++i)

	mov	DWORD PTR i$4[rsp], 0
	jmp	SHORT $LN4@call
$LN2@call:
	mov	eax, DWORD PTR i$4[rsp]
	inc	eax
	mov	DWORD PTR i$4[rsp], eax
$LN4@call:
	call	?length@?$tvec4@M$0A@@glm@@SAHXZ	; glm::tvec4<float,0>::length
	cmp	DWORD PTR i$4[rsp], eax
	jge	SHORT $LN3@call

; 137  : 				Result[i] = a[i] ? y[i] : x[i];

	mov	edx, DWORD PTR i$4[rsp]
	mov	rcx, QWORD PTR a$[rsp]
	call	??A?$tvec4@_N$0A@@glm@@QEBAAEB_NH@Z	; glm::tvec4<bool,0>::operator[]
	movzx	eax, BYTE PTR [rax]
	test	eax, eax
	je	SHORT $LN6@call
	mov	edx, DWORD PTR i$4[rsp]
	mov	rcx, QWORD PTR y$[rsp]
