; Listing generated by Microsoft (R) Optimizing Compiler Version 19.32.31329.0 

include listing.inc

INCLUDELIB MSVCRTD

CONST	SEGMENT
$SG31981 DB	'invalid argument', 00H
	ORG $+3
$SG31982 DB	'%s', 00H
	ORG $+1
$SG31986 DB	'"', 00H, 'i', 00H, 'n', 00H, 'v', 00H, 'a', 00H, 'l', 00H
	DB	'i', 00H, 'd', 00H, ' ', 00H, 'a', 00H, 'r', 00H, 'g', 00H, 'u'
	DB	00H, 'm', 00H, 'e', 00H, 'n', 00H, 't', 00H, '"', 00H, 00H, 00H
	ORG $+2
$SG31983 DB	'C:\Program Files\Microsoft Visual Studio\2022\Community\'
	DB	'VC\Tools\MSVC\14.32.31326\include\xmemory', 00H
	ORG $+2
$SG31985 DB	00H, 00H
	ORG $+10
$SG31984 DB	'C', 00H, ':', 00H, '\', 00H, 'P', 00H, 'r', 00H, 'o', 00H
	DB	'g', 00H, 'r', 00H, 'a', 00H, 'm', 00H, ' ', 00H, 'F', 00H, 'i'
	DB	00H, 'l', 00H, 'e', 00H, 's', 00H, '\', 00H, 'M', 00H, 'i', 00H
	DB	'c', 00H, 'r', 00H, 'o', 00H, 's', 00H, 'o', 00H, 'f', 00H, 't'
	DB	00H, ' ', 00H, 'V', 00H, 'i', 00H, 's', 00H, 'u', 00H, 'a', 00H
	DB	'l', 00H, ' ', 00H, 'S', 00H, 't', 00H, 'u', 00H, 'd', 00H, 'i'
	DB	00H, 'o', 00H, '\', 00H, '2', 00H, '0', 00H, '2', 00H, '2', 00H
	DB	'\', 00H, 'C', 00H, 'o', 00H, 'm', 00H, 'm', 00H, 'u', 00H, 'n'
	DB	00H, 'i', 00H, 't', 00H, 'y', 00H, '\', 00H, 'V', 00H, 'C', 00H
	DB	'\', 00H, 'T', 00H, 'o', 00H, 'o', 00H, 'l', 00H, 's', 00H, '\'
	DB	00H, 'M', 00H, 'S', 00H, 'V', 00H, 'C', 00H, '\', 00H, '1', 00H
	DB	'4', 00H, '.', 00H, '3', 00H, '2', 00H, '.', 00H, '3', 00H, '1'
	DB	00H, '3', 00H, '2', 00H, '6', 00H, '\', 00H, 'i', 00H, 'n', 00H
	DB	'c', 00H, 'l', 00H, 'u', 00H, 'd', 00H, 'e', 00H, '\', 00H, 'x'
	DB	00H, 'm', 00H, 'e', 00H, 'm', 00H, 'o', 00H, 'r', 00H, 'y', 00H
	DB	00H, 00H
CONST	ENDS
PUBLIC	?max@?$numeric_limits@_J@std@@SA_JXZ		; std::numeric_limits<__int64>::max
PUBLIC	?epsilon@?$numeric_limits@M@std@@SAMXZ		; std::numeric_limits<float>::epsilon
PUBLIC	??2@YAPEAX_KPEAX@Z				; operator new
PUBLIC	?acos@@YAMM@Z					; acos
PUBLIC	?asin@@YAMM@Z					; asin
PUBLIC	?atan2@@YAMMM@Z					; atan2
PUBLIC	?cos@@YAMM@Z					; cos
PUBLIC	?pow@@YAMMM@Z					; pow
PUBLIC	?sin@@YAMM@Z					; sin
PUBLIC	?sqrt@@YAMM@Z					; sqrt
PUBLIC	??$epsilonEqual@M@glm@@YA_NAEBM00@Z		; glm::epsilonEqual<float>
PUBLIC	??$abs@M@glm@@YAMM@Z				; glm::abs<float>
PUBLIC	??0exception@std@@QEAA@QEBDH@Z			; std::exception::exception
PUBLIC	??0exception@std@@QEAA@AEBV01@@Z		; std::exception::exception
PUBLIC	??1exception@std@@UEAA@XZ			; std::exception::~exception
PUBLIC	?what@exception@std@@UEBAPEBDXZ			; std::exception::what
PUBLIC	??_Gexception@std@@UEAAPEAXI@Z			; std::exception::`scalar deleting destructor'
PUBLIC	??0bad_alloc@std@@AEAA@QEBD@Z			; std::bad_alloc::bad_alloc
PUBLIC	??1bad_alloc@std@@UEAA@XZ			; std::bad_alloc::~bad_alloc
PUBLIC	??0bad_alloc@std@@QEAA@AEBV01@@Z		; std::bad_alloc::bad_alloc
PUBLIC	??_Gbad_alloc@std@@UEAAPEAXI@Z			; std::bad_alloc::`scalar deleting destructor'
PUBLIC	??0bad_array_new_length@std@@QEAA@XZ		; std::bad_array_new_length::bad_array_new_length
PUBLIC	??1bad_array_new_length@std@@UEAA@XZ		; std::bad_array_new_length::~bad_array_new_length
PUBLIC	??0bad_array_new_length@std@@QEAA@AEBV01@@Z	; std::bad_array_new_length::bad_array_new_length
PUBLIC	??_Gbad_array_new_length@std@@UEAAPEAXI@Z	; std::bad_array_new_length::`scalar deleting destructor'
PUBLIC	?_Throw_bad_array_new_length@std@@YAXXZ		; std::_Throw_bad_array_new_length
PUBLIC	?_Allocate@_Default_allocate_traits@std@@SAPEAX_K@Z ; std::_Default_allocate_traits::_Allocate
PUBLIC	?_Adjust_manually_vector_aligned@std@@YAXAEAPEAXAEA_K@Z ; std::_Adjust_manually_vector_aligned
PUBLIC	??0_Container_proxy@std@@QEAA@PEAU_Container_base12@1@@Z ; std::_Container_proxy::_Container_proxy
PUBLIC	??0_Container_base12@std@@QEAA@XZ		; std::_Container_base12::_Container_base12
PUBLIC	?_Orphan_all@_Container_base12@std@@QEAAXXZ	; std::_Container_base12::_Orphan_all
PUBLIC	?_Orphan_all_unlocked_v3@_Container_base12@std@@AEAAXXZ ; std::_Container_base12::_Orphan_all_unlocked_v3
PUBLIC	?_Orphan_all_locked_v3@_Container_base12@std@@AEAAXXZ ; std::_Container_base12::_Orphan_all_locked_v3
PUBLIC	?_Release@_Basic_container_proxy_ptr12@std@@QEAAXXZ ; std::_Basic_container_proxy_ptr12::_Release
PUBLIC	??0_Basic_container_proxy_ptr12@std@@IEAA@XZ	; std::_Basic_container_proxy_ptr12::_Basic_container_proxy_ptr12
PUBLIC	?test_quat_angle@@YAHXZ				; test_quat_angle
PUBLIC	?length@?$tquat@M$0A@@glm@@SAHXZ		; glm::tquat<float,0>::length
PUBLIC	??0?$tquat@M$0A@@glm@@QEAA@XZ			; glm::tquat<float,0>::tquat<float,0>
PUBLIC	??0?$tquat@M$0A@@glm@@QEAA@W4ctor@1@@Z		; glm::tquat<float,0>::tquat<float,0>
PUBLIC	??0?$tquat@M$0A@@glm@@QEAA@AEBMAEBU?$tvec3@M$0A@@1@@Z ; glm::tquat<float,0>::tquat<float,0>
PUBLIC	??0?$tquat@M$0A@@glm@@QEAA@AEBM000@Z		; glm::tquat<float,0>::tquat<float,0>
PUBLIC	??0?$tquat@M$0A@@glm@@QEAA@AEBU?$tvec3@M$0A@@1@0@Z ; glm::tquat<float,0>::tquat<float,0>
PUBLIC	??$pi@M@glm@@YAMXZ				; glm::pi<float>
PUBLIC	?length@?$tvec3@M$0A@@glm@@SAHXZ		; glm::tvec3<float,0>::length
PUBLIC	??A?$tvec3@M$0A@@glm@@QEBAAEBMH@Z		; glm::tvec3<float,0>::operator[]
PUBLIC	??0?$tvec3@M$0A@@glm@@QEAA@M@Z			; glm::tvec3<float,0>::tvec3<float,0>
PUBLIC	??0?$tvec3@M$0A@@glm@@QEAA@MMM@Z		; glm::tvec3<float,0>::tvec3<float,0>
PUBLIC	??$?0HHH@?$tvec3@M$0A@@glm@@QEAA@HHH@Z		; glm::tvec3<float,0>::tvec3<float,0><int,int,int>
PUBLIC	??$angleAxis@M$0A@@glm@@YA?AU?$tquat@M$0A@@0@AEBMAEBU?$tvec3@M$0A@@0@@Z ; glm::angleAxis<float,0>
PUBLIC	??$normalize@M$0A@@glm@@YA?AU?$tquat@M$0A@@0@AEBU10@@Z ; glm::normalize<float,0>
PUBLIC	??$length@M$0A@@glm@@YAMAEBU?$tquat@M$0A@@0@@Z	; glm::length<float,0>
PUBLIC	?length@?$tvec4@M$0A@@glm@@SAHXZ		; glm::tvec4<float,0>::length
PUBLIC	??A?$tvec4@M$0A@@glm@@QEBAAEBMH@Z		; glm::tvec4<float,0>::operator[]
PUBLIC	??0?$tvec4@M$0A@@glm@@QEAA@M@Z			; glm::tvec4<float,0>::tvec4<float,0>
PUBLIC	??0?$tvec4@M$0A@@glm@@QEAA@MMMM@Z		; glm::tvec4<float,0>::tvec4<float,0>
PUBLIC	??$angle@M$0A@@glm@@YAMAEBU?$tquat@M$0A@@0@@Z	; glm::angle<float,0>
PUBLIC	??$normalize@M$0A@Utvec3@glm@@@glm@@YA?AU?$tvec3@M$0A@@0@AEBU10@@Z ; glm::normalize<float,0,glm::tvec3>
PUBLIC	?test_quat_angleAxis@@YAHXZ			; test_quat_angleAxis
PUBLIC	??$mix@M$0A@@glm@@YA?AU?$tquat@M$0A@@0@AEBU10@0M@Z ; glm::mix<float,0>
PUBLIC	?test_quat_mix@@YAHXZ				; test_quat_mix
PUBLIC	?test_quat_precision@@YAHXZ			; test_quat_precision
PUBLIC	?test_quat_normalize@@YAHXZ			; test_quat_normalize
PUBLIC	?test_quat_euler@@YAHXZ				; test_quat_euler
PUBLIC	??$roll@M$0A@@glm@@YAMAEBU?$tquat@M$0A@@0@@Z	; glm::roll<float,0>
PUBLIC	??$pitch@M$0A@@glm@@YAMAEBU?$tquat@M$0A@@0@@Z	; glm::pitch<float,0>
PUBLIC	??$yaw@M$0A@@glm@@YAMAEBU?$tquat@M$0A@@0@@Z	; glm::yaw<float,0>
PUBLIC	??$eulerAngles@M$0A@@glm@@YA?AU?$tvec3@M$0A@@0@AEBU?$tquat@M$0A@@0@@Z ; glm::eulerAngles<float,0>
PUBLIC	?length@?$tquat@N$0A@@glm@@SAHXZ		; glm::tquat<double,0>::length
PUBLIC	??0?$tquat@N$0A@@glm@@QEAA@XZ			; glm::tquat<double,0>::tquat<double,0>
PUBLIC	??0?$tquat@N$0A@@glm@@QEAA@AEBN000@Z		; glm::tquat<double,0>::tquat<double,0>
PUBLIC	??$roll@N$0A@@glm@@YANAEBU?$tquat@N$0A@@0@@Z	; glm::roll<double,0>
PUBLIC	??$pitch@N$0A@@glm@@YANAEBU?$tquat@N$0A@@0@@Z	; glm::pitch<double,0>
PUBLIC	??$yaw@N$0A@@glm@@YANAEBU?$tquat@N$0A@@0@@Z	; glm::yaw<double,0>
PUBLIC	??0?$tvec3@N$0A@@glm@@QEAA@NNN@Z		; glm::tvec3<double,0>::tvec3<double,0>
PUBLIC	??$eulerAngles@N$0A@@glm@@YA?AU?$tvec3@N$0A@@0@AEBU?$tquat@N$0A@@0@@Z ; glm::eulerAngles<double,0>
PUBLIC	?test_quat_slerp@@YAHXZ				; test_quat_slerp
PUBLIC	??$slerp@M$0A@@glm@@YA?AU?$tquat@M$0A@@0@AEBU10@0M@Z ; glm::slerp<float,0>
PUBLIC	??$epsilonEqual@M$0A@@glm@@YA?AU?$tvec4@_N$0A@@0@AEBU?$tquat@M$0A@@0@0AEBM@Z ; glm::epsilonEqual<float,0>
PUBLIC	?length@?$tvec4@_N$0A@@glm@@SAHXZ		; glm::tvec4<bool,0>::length
PUBLIC	??A?$tvec4@_N$0A@@glm@@QEAAAEA_NH@Z		; glm::tvec4<bool,0>::operator[]
PUBLIC	??A?$tvec4@_N$0A@@glm@@QEBAAEB_NH@Z		; glm::tvec4<bool,0>::operator[]
PUBLIC	??0?$tvec4@_N$0A@@glm@@QEAA@W4ctor@1@@Z		; glm::tvec4<bool,0>::tvec4<bool,0>
PUBLIC	??$all@$0A@Utvec4@glm@@@glm@@YA_NAEBU?$tvec4@_N$0A@@0@@Z ; glm::all<0,glm::tvec4>
PUBLIC	??$?GM$0A@@glm@@YA?AU?$tquat@M$0A@@0@AEBU10@@Z	; glm::operator-<float,0>
PUBLIC	??$dot@M$0A@Utquat@glm@@@glm@@YAMAEBU?$tquat@M$0A@@0@0@Z ; glm::dot<float,0,glm::tquat>
PUBLIC	?test_quat_mul@@YAHXZ				; test_quat_mul
PUBLIC	??$?0NNN@?$tvec3@M$0A@@glm@@QEAA@NNN@Z		; glm::tvec3<float,0>::tvec3<float,0><double,double,double>
PUBLIC	??$?DM$0A@@glm@@YA?AU?$tvec3@M$0A@@0@AEBU?$tquat@M$0A@@0@AEBU10@@Z ; glm::operator*<float,0>
PUBLIC	??$inverse@M$0A@@glm@@YA?AU?$tquat@M$0A@@0@AEBU10@@Z ; glm::inverse<float,0>
PUBLIC	??$?DM$0A@@glm@@YA?AU?$tvec3@M$0A@@0@AEBU10@AEBU?$tquat@M$0A@@0@@Z ; glm::operator*<float,0>
PUBLIC	??$?DM$0A@@glm@@YA?AU?$tquat@M$0A@@0@AEBU10@0@Z	; glm::operator*<float,0>
PUBLIC	??$?XM@?$tquat@M$0A@@glm@@QEAAAEAU01@AEBU01@@Z	; glm::tquat<float,0>::operator*=<float>
PUBLIC	??$?9M$0A@@glm@@YA_NAEBU?$tquat@M$0A@@0@0@Z	; glm::operator!=<float,0>
PUBLIC	?test_quat_two_axis_ctr@@YAHXZ			; test_quat_two_axis_ctr
PUBLIC	??$epsilonEqual@M$0A@Utvec3@glm@@@glm@@YA?AU?$tvec3@_N$0A@@0@AEBU?$tvec3@M$0A@@0@0AEBM@Z ; glm::epsilonEqual<float,0,glm::tvec3>
PUBLIC	?length@?$tvec3@_N$0A@@glm@@SAHXZ		; glm::tvec3<bool,0>::length
PUBLIC	??A?$tvec3@_N$0A@@glm@@QEAAAEA_NH@Z		; glm::tvec3<bool,0>::operator[]
PUBLIC	??A?$tvec3@_N$0A@@glm@@QEBAAEB_NH@Z		; glm::tvec3<bool,0>::operator[]
PUBLIC	??0?$tvec3@_N$0A@@glm@@QEAA@W4ctor@1@@Z		; glm::tvec3<bool,0>::tvec3<bool,0>
PUBLIC	??$all@$0A@Utvec3@glm@@@glm@@YA_NAEBU?$tvec3@_N$0A@@0@@Z ; glm::all<0,glm::tvec3>
PUBLIC	?test_quat_type@@YAHXZ				; test_quat_type
PUBLIC	?test_quat_mul_vec@@YAHXZ			; test_quat_mul_vec
PUBLIC	?test_quat_ctr@@YAHXZ				; test_quat_ctr
PUBLIC	??0?$allocator@U?$tquat@M$0A@@glm@@@std@@QEAA@XZ ; std::allocator<glm::tquat<float,0> >::allocator<glm::tquat<float,0> >
PUBLIC	?deallocate@?$allocator@U?$tquat@M$0A@@glm@@@std@@QEAAXQEAU?$tquat@M$0A@@glm@@_K@Z ; std::allocator<glm::tquat<float,0> >::deallocate
PUBLIC	?allocate@?$allocator@U?$tquat@M$0A@@glm@@@std@@QEAAPEAU?$tquat@M$0A@@glm@@_K@Z ; std::allocator<glm::tquat<float,0> >::allocate
PUBLIC	?max_size@?$_Default_allocator_traits@V?$allocator@U?$tquat@M$0A@@glm@@@std@@@std@@SA_KAEBV?$allocator@U?$tquat@M$0A@@glm@@@2@@Z ; std::_Default_allocator_traits<std::allocator<glm::tquat<float,0> > >::max_size
PUBLIC	??0?$vector@U?$tquat@M$0A@@glm@@V?$allocator@U?$tquat@M$0A@@glm@@@std@@@std@@QEAA@V?$initializer_list@U?$tquat@M$0A@@glm@@@1@AEBV?$allocator@U?$tquat@M$0A@@glm@@@1@@Z ; std::vector<glm::tquat<float,0>,std::allocator<glm::tquat<float,0> > >::vector<glm::tquat<float,0>,std::allocator<glm::tquat<float,0> > >
PUBLIC	??1?$vector@U?$tquat@M$0A@@glm@@V?$allocator@U?$tquat@M$0A@@glm@@@std@@@std@@QEAA@XZ ; std::vector<glm::tquat<float,0>,std::allocator<glm::tquat<float,0> > >::~vector<glm::tquat<float,0>,std::allocator<glm::tquat<float,0> > >
PUBLIC	?max_size@?$vector@U?$tquat@M$0A@@glm@@V?$allocator@U?$tquat@M$0A@@glm@@@std@@@std@@QEBA_KXZ ; std::vector<glm::tquat<float,0>,std::allocator<glm::tquat<float,0> > >::max_size
PUBLIC	?_Buy_raw@?$vector@U?$tquat@M$0A@@glm@@V?$allocator@U?$tquat@M$0A@@glm@@@std@@@std@@AEAAX_K@Z ; std::vector<glm::tquat<float,0>,std::allocator<glm::tquat<float,0> > >::_Buy_raw
PUBLIC	?_Buy_nonzero@?$vector@U?$tquat@M$0A@@glm@@V?$allocator@U?$tquat@M$0A@@glm@@@std@@@std@@AEAAX_K@Z ; std::vector<glm::tquat<float,0>,std::allocator<glm::tquat<float,0> > >::_Buy_nonzero
PUBLIC	?_Tidy@?$vector@U?$tquat@M$0A@@glm@@V?$allocator@U?$tquat@M$0A@@glm@@@std@@@std@@AEAAXXZ ; std::vector<glm::tquat<float,0>,std::allocator<glm::tquat<float,0> > >::_Tidy
PUBLIC	?_Xlength@?$vector@U?$tquat@M$0A@@glm@@V?$allocator@U?$tquat@M$0A@@glm@@@std@@@std@@CAXXZ ; std::vector<glm::tquat<float,0>,std::allocator<glm::tquat<float,0> > >::_Xlength
PUBLIC	?_Getal@?$vector@U?$tquat@M$0A@@glm@@V?$allocator@U?$tquat@M$0A@@glm@@@std@@@std@@AEAAAEAV?$allocator@U?$tquat@M$0A@@glm@@@2@XZ ; std::vector<glm::tquat<float,0>,std::allocator<glm::tquat<float,0> > >::_Getal
PUBLIC	?_Getal@?$vector@U?$tquat@M$0A@@glm@@V?$allocator@U?$tquat@M$0A@@glm@@@std@@@std@@AEBAAEBV?$allocator@U?$tquat@M$0A@@glm@@@2@XZ ; std::vector<glm::tquat<float,0>,std::allocator<glm::tquat<float,0> > >::_Getal
PUBLIC	??0?$_Vector_val@U?$_Simple_types@U?$tquat@M$0A@@glm@@@std@@@std@@QEAA@XZ ; std::_Vector_val<std::_Simple_types<glm::tquat<float,0> > >::_Vector_val<std::_Simple_types<glm::tquat<float,0> > >
PUBLIC	?_Get_first@?$_Compressed_pair@V?$allocator@U?$tquat@M$0A@@glm@@@std@@V?$_Vector_val@U?$_Simple_types@U?$tquat@M$0A@@glm@@@std@@@2@$00@std@@QEAAAEAV?$allocator@U?$tquat@M$0A@@glm@@@2@XZ ; std::_Compressed_pair<std::allocator<glm::tquat<float,0> >,std::_Vector_val<std::_Simple_types<glm::tquat<float,0> > >,1>::_Get_first
PUBLIC	?_Get_first@?$_Compressed_pair@V?$allocator@U?$tquat@M$0A@@glm@@@std@@V?$_Vector_val@U?$_Simple_types@U?$tquat@M$0A@@glm@@@std@@@2@$00@std@@QEBAAEBV?$allocator@U?$tquat@M$0A@@glm@@@2@XZ ; std::_Compressed_pair<std::allocator<glm::tquat<float,0> >,std::_Vector_val<std::_Simple_types<glm::tquat<float,0> > >,1>::_Get_first
PUBLIC	??0?$initializer_list@U?$tquat@M$0A@@glm@@@std@@QEAA@PEBU?$tquat@M$0A@@glm@@0@Z ; std::initializer_list<glm::tquat<float,0> >::initializer_list<glm::tquat<float,0> >
PUBLIC	?begin@?$initializer_list@U?$tquat@M$0A@@glm@@@std@@QEBAPEBU?$tquat@M$0A@@glm@@XZ ; std::initializer_list<glm::tquat<float,0> >::begin
PUBLIC	?end@?$initializer_list@U?$tquat@M$0A@@glm@@@std@@QEBAPEBU?$tquat@M$0A@@glm@@XZ ; std::initializer_list<glm::tquat<float,0> >::end
PUBLIC	?size@?$initializer_list@U?$tquat@M$0A@@glm@@@std@@QEBA_KXZ ; std::initializer_list<glm::tquat<float,0> >::size
PUBLIC	?test_size@@YAHXZ				; test_size
PUBLIC	main
PUBLIC	?allocate@?$allocator@U_Container_proxy@std@@@std@@QEAAPEAU_Container_proxy@2@_K@Z ; std::allocator<std::_Container_proxy>::allocate
PUBLIC	??$?0U?$tquat@M$0A@@glm@@@?$allocator@U_Container_proxy@std@@@std@@QEAA@AEBV?$allocator@U?$tquat@M$0A@@glm@@@1@@Z ; std::allocator<std::_Container_proxy>::allocator<std::_Container_proxy><glm::tquat<float,0> >
PUBLIC	??$exchange@PEAU_Container_proxy@std@@$$T@std@@YAPEAU_Container_proxy@0@AEAPEAU10@$$QEA$$T@Z ; std::exchange<std::_Container_proxy *,std::nullptr_t>
PUBLIC	??$_Delete_plain_internal@V?$allocator@U_Container_proxy@std@@@std@@@std@@YAXAEAV?$allocator@U_Container_proxy@std@@@0@QEAU_Container_proxy@0@@Z ; std::_Delete_plain_internal<std::allocator<std::_Container_proxy> >
PUBLIC	??$?0AEBV?$allocator@U?$tquat@M$0A@@glm@@@std@@$$V@?$_Compressed_pair@V?$allocator@U?$tquat@M$0A@@glm@@@std@@V?$_Vector_val@U?$_Simple_types@U?$tquat@M$0A@@glm@@@std@@@2@$00@std@@QEAA@U_One_then_variadic_args_t@1@AEBV?$allocator@U?$tquat@M$0A@@glm@@@1@@Z ; std::_Compressed_pair<std::allocator<glm::tquat<float,0> >,std::_Vector_val<std::_Simple_types<glm::tquat<float,0> > >,1>::_Compressed_pair<std::allocator<glm::tquat<float,0> >,std::_Vector_val<std::_Simple_types<glm::tquat<float,0> > >,1><std::allocator<glm::tquat<float,0> > const &>
PUBLIC	??$_Convert_size@_K@std@@YA_K_K@Z		; std::_Convert_size<unsigned __int64>
PUBLIC	??$_Construct_n@PEBU?$tquat@M$0A@@glm@@PEBU12@@?$vector@U?$tquat@M$0A@@glm@@V?$allocator@U?$tquat@M$0A@@glm@@@std@@@std@@AEAAX_K$$QEAPEBU?$tquat@M$0A@@glm@@1@Z ; std::vector<glm::tquat<float,0>,std::allocator<glm::tquat<float,0> > >::_Construct_n<glm::tquat<float,0> const *,glm::tquat<float,0> const *>
PUBLIC	??$_Destroy_range@V?$allocator@U?$tquat@M$0A@@glm@@@std@@@std@@YAXPEAU?$tquat@M$0A@@glm@@QEAU12@AEAV?$allocator@U?$tquat@M$0A@@glm@@@0@@Z ; std::_Destroy_range<std::allocator<glm::tquat<float,0> > >
PUBLIC	??$_Deallocate@$0BA@$0A@@std@@YAXPEAX_K@Z	; std::_Deallocate<16,0>
PUBLIC	??$cross@M$0A@@glm@@YA?AU?$tvec3@M$0A@@0@AEBU10@0@Z ; glm::cross<float,0>
PUBLIC	?call@?$compute_dot@Utvec3@glm@@M$0A@$0A@@detail@glm@@SAMAEBU?$tvec3@M$0A@@3@0@Z ; glm::detail::compute_dot<glm::tvec3,float,0,0>::call
PUBLIC	?call@?$compute_abs@M$00@detail@glm@@SAMM@Z	; glm::detail::compute_abs<float,1>::call
PUBLIC	?call@?$compute_normalize@M$0A@Utvec3@glm@@$0A@@detail@glm@@SA?AU?$tvec3@M$0A@@3@AEBU43@@Z ; glm::detail::compute_normalize<float,0,glm::tvec3,0>::call
PUBLIC	??$epsilon@M@glm@@YAMXZ				; glm::epsilon<float>
PUBLIC	??$mix@MM@glm@@YAMMMM@Z				; glm::mix<float,float>
PUBLIC	??$?DM$0A@@glm@@YA?AU?$tquat@M$0A@@0@AEBMAEBU10@@Z ; glm::operator*<float,0>
PUBLIC	??$?HM$0A@@glm@@YA?AU?$tquat@M$0A@@0@AEBU10@0@Z	; glm::operator+<float,0>
PUBLIC	??$?KM$0A@@glm@@YA?AU?$tquat@M$0A@@0@AEBU10@AEBM@Z ; glm::operator/<float,0>
PUBLIC	??$atan@M@glm@@YAMMM@Z				; glm::atan<float>
PUBLIC	??$clamp@M@glm@@YAMMMM@Z			; glm::clamp<float>
PUBLIC	??$atan@N@glm@@YANNN@Z				; glm::atan<double>
PUBLIC	??$clamp@N@glm@@YANNNN@Z			; glm::clamp<double>
PUBLIC	??$abs@M$0A@Utvec4@glm@@@glm@@YA?AU?$tvec4@M$0A@@0@AEBU10@@Z ; glm::abs<float,0,glm::tvec4>
PUBLIC	??$lessThan@M$0A@Utvec4@glm@@@glm@@YA?AU?$tvec4@_N$0A@@0@AEBU?$tvec4@M$0A@@0@0@Z ; glm::lessThan<float,0,glm::tvec4>
PUBLIC	?call@?$compute_dot@Utquat@glm@@M$0A@$0A@@detail@glm@@SAMAEBU?$tquat@M$0A@@3@0@Z ; glm::detail::compute_dot<glm::tquat,float,0,0>::call
PUBLIC	??$?DM$0A@@glm@@YA?AU?$tvec3@M$0A@@0@AEBU10@M@Z	; glm::operator*<float,0>
PUBLIC	??$?HM$0A@@glm@@YA?AU?$tvec3@M$0A@@0@AEBU10@0@Z	; glm::operator+<float,0>
PUBLIC	??$conjugate@M$0A@@glm@@YA?AU?$tquat@M$0A@@0@AEBU10@@Z ; glm::conjugate<float,0>
PUBLIC	??$?GM$0A@@glm@@YA?AU?$tvec3@M$0A@@0@AEBU10@0@Z	; glm::operator-<float,0>
PUBLIC	??$abs@M$0A@Utvec3@glm@@@glm@@YA?AU?$tvec3@M$0A@@0@AEBU10@@Z ; glm::abs<float,0,glm::tvec3>
PUBLIC	??$lessThan@M$0A@Utvec3@glm@@@glm@@YA?AU?$tvec3@_N$0A@@0@AEBU?$tvec3@M$0A@@0@0@Z ; glm::lessThan<float,0,glm::tvec3>
PUBLIC	??$_Deallocate_plain@V?$allocator@U_Container_proxy@std@@@std@@@std@@YAXAEAV?$allocator@U_Container_proxy@std@@@0@QEAU_Container_proxy@0@@Z ; std::_Deallocate_plain<std::allocator<std::_Container_proxy> >
PUBLIC	??$forward@AEBV?$allocator@U?$tquat@M$0A@@glm@@@std@@@std@@YAAEBV?$allocator@U?$tquat@M$0A@@glm@@@0@AEBV10@@Z ; std::forward<std::allocator<glm::tquat<float,0> > const &>
PUBLIC	??0?$_Container_proxy_ptr12@V?$allocator@U_Container_proxy@std@@@std@@@std@@QEAA@AEAV?$allocator@U_Container_proxy@std@@@1@AEAU_Container_base12@1@@Z ; std::_Container_proxy_ptr12<std::allocator<std::_Container_proxy> >::_Container_proxy_ptr12<std::allocator<std::_Container_proxy> >
PUBLIC	??1?$_Container_proxy_ptr12@V?$allocator@U_Container_proxy@std@@@std@@@std@@QEAA@XZ ; std::_Container_proxy_ptr12<std::allocator<std::_Container_proxy> >::~_Container_proxy_ptr12<std::allocator<std::_Container_proxy> >
PUBLIC	??1?$_Tidy_guard@V?$vector@U?$tquat@M$0A@@glm@@V?$allocator@U?$tquat@M$0A@@glm@@@std@@@std@@@std@@QEAA@XZ ; std::_Tidy_guard<std::vector<glm::tquat<float,0>,std::allocator<glm::tquat<float,0> > > >::~_Tidy_guard<std::vector<glm::tquat<float,0>,std::allocator<glm::tquat<float,0> > > >
PUBLIC	??$forward@PEBU?$tquat@M$0A@@glm@@@std@@YA$$QEAPEBU?$tquat@M$0A@@glm@@AEAPEBU12@@Z ; std::forward<glm::tquat<float,0> const *>
PUBLIC	??$_Uninitialized_copy@PEBU?$tquat@M$0A@@glm@@V?$allocator@U?$tquat@M$0A@@glm@@@std@@@std@@YAPEAU?$tquat@M$0A@@glm@@QEBU12@0PEAU12@AEAV?$allocator@U?$tquat@M$0A@@glm@@@0@@Z ; std::_Uninitialized_copy<glm::tquat<float,0> const *,std::allocator<glm::tquat<float,0> > >
PUBLIC	??$_Unfancy@U_Container_proxy@std@@@std@@YAPEAU_Container_proxy@0@PEAU10@@Z ; std::_Unfancy<std::_Container_proxy>
PUBLIC	??$addressof@U_Container_base12@std@@@std@@YAPEAU_Container_base12@0@AEAU10@@Z ; std::addressof<std::_Container_base12>
PUBLIC	??$_Construct_in_place@U_Container_proxy@std@@PEAU_Container_base12@2@@std@@YAXAEAU_Container_proxy@0@$$QEAPEAU_Container_base12@0@@Z ; std::_Construct_in_place<std::_Container_proxy,std::_Container_base12 *>
PUBLIC	??$dot@M$0A@Utvec3@glm@@@glm@@YAMAEBU?$tvec3@M$0A@@0@0@Z ; glm::dot<float,0,glm::tvec3>
PUBLIC	??$inversesqrt@M@glm@@YAMM@Z			; glm::inversesqrt<float>
PUBLIC	??$?DM$0A@@glm@@YA?AU?$tvec3@M$0A@@0@AEBU10@0@Z	; glm::operator*<float,0>
PUBLIC	??$_Get_size_of_n@$0BA@@std@@YA_K_K@Z		; std::_Get_size_of_n<16>
PUBLIC	??$_Allocate@$0BA@U_Default_allocate_traits@std@@$0A@@std@@YAPEAX_K@Z ; std::_Allocate<16,std::_Default_allocate_traits,0>
PUBLIC	??$min@_K@std@@YAAEB_KAEB_K0@Z			; std::min<unsigned __int64>
PUBLIC	?call@?$compute_cross@M$0A@$0A@@detail@glm@@SA?AU?$tvec3@M$0A@@3@AEBU43@0@Z ; glm::detail::compute_cross<float,0,0>::call
PUBLIC	?call@?$compute_mix@MM@detail@glm@@SAMAEBM00@Z	; glm::detail::compute_mix<float,float>::call
PUBLIC	??$?DM$0A@@glm@@YA?AU?$tquat@M$0A@@0@AEBU10@AEBM@Z ; glm::operator*<float,0>
PUBLIC	??$?YM@?$tquat@M$0A@@glm@@QEAAAEAU01@AEBU01@@Z	; glm::tquat<float,0>::operator+=<float>
PUBLIC	??$max@M@glm@@YAMMM@Z				; glm::max<float>
PUBLIC	??$min@M@glm@@YAMMM@Z				; glm::min<float>
PUBLIC	??$max@N@glm@@YANNN@Z				; glm::max<double>
PUBLIC	??$min@N@glm@@YANNN@Z				; glm::min<double>
PUBLIC	?call@?$compute_abs_vector@M$0A@Utvec4@glm@@$0A@@detail@glm@@SA?AU?$tvec4@M$0A@@3@AEBU43@@Z ; glm::detail::compute_abs_vector<float,0,glm::tvec4,0>::call
PUBLIC	?call@?$compute_abs_vector@M$0A@Utvec3@glm@@$0A@@detail@glm@@SA?AU?$tvec3@M$0A@@3@AEBU43@@Z ; glm::detail::compute_abs_vector<float,0,glm::tvec3,0>::call
PUBLIC	?deallocate@?$_Default_allocator_traits@V?$allocator@U_Container_proxy@std@@@std@@@std@@SAXAEAV?$allocator@U_Container_proxy@std@@@2@QEAU_Container_proxy@2@_K@Z ; std::_Default_allocator_traits<std::allocator<std::_Container_proxy> >::deallocate
PUBLIC	??$_Get_unwrapped@AEBQEBU?$tquat@M$0A@@glm@@@std@@YA?A_TAEBQEBU?$tquat@M$0A@@glm@@@Z ; std::_Get_unwrapped<glm::tquat<float,0> const * const &>
PUBLIC	??$_Unfancy@U?$tquat@M$0A@@glm@@@std@@YAPEAU?$tquat@M$0A@@glm@@PEAU12@@Z ; std::_Unfancy<glm::tquat<float,0> >
PUBLIC	??$_Copy_memmove@PEBU?$tquat@M$0A@@glm@@PEAU12@@std@@YAPEAU?$tquat@M$0A@@glm@@PEBU12@0PEAU12@@Z ; std::_Copy_memmove<glm::tquat<float,0> const *,glm::tquat<float,0> *>
PUBLIC	??0?$_Uninitialized_backout_al@V?$allocator@U?$tquat@M$0A@@glm@@@std@@@std@@QEAA@PEAU?$tquat@M$0A@@glm@@AEAV?$allocator@U?$tquat@M$0A@@glm@@@1@@Z ; std::_Uninitialized_backout_al<std::allocator<glm::tquat<float,0> > >::_Uninitialized_backout_al<std::allocator<glm::tquat<float,0> > >
PUBLIC	??1?$_Uninitialized_backout_al@V?$allocator@U?$tquat@M$0A@@glm@@@std@@@std@@QEAA@XZ ; std::_Uninitialized_backout_al<std::allocator<glm::tquat<float,0> > >::~_Uninitialized_backout_al<std::allocator<glm::tquat<float,0> > >
PUBLIC	?_Release@?$_Uninitialized_backout_al@V?$allocator@U?$tquat@M$0A@@glm@@@std@@@std@@QEAAPEAU?$tquat@M$0A@@glm@@XZ ; std::_Uninitialized_backout_al<std::allocator<glm::tquat<float,0> > >::_Release
PUBLIC	??$_Emplace_back@AEBU?$tquat@M$0A@@glm@@@?$_Uninitialized_backout_al@V?$allocator@U?$tquat@M$0A@@glm@@@std@@@std@@QEAAXAEBU?$tquat@M$0A@@glm@@@Z ; std::_Uninitialized_backout_al<std::allocator<glm::tquat<float,0> > >::_Emplace_back<glm::tquat<float,0> const &>
PUBLIC	??$addressof@U_Container_proxy@std@@@std@@YAPEAU_Container_proxy@0@AEAU10@@Z ; std::addressof<std::_Container_proxy>
PUBLIC	??$_Voidify_iter@PEAU_Container_proxy@std@@@std@@YAPEAXPEAU_Container_proxy@0@@Z ; std::_Voidify_iter<std::_Container_proxy *>
PUBLIC	??$forward@PEAU_Container_base12@std@@@std@@YA$$QEAPEAU_Container_base12@0@AEAPEAU10@@Z ; std::forward<std::_Container_base12 *>
PUBLIC	??$_Allocate_manually_vector_aligned@U_Default_allocate_traits@std@@@std@@YAPEAX_K@Z ; std::_Allocate_manually_vector_aligned<std::_Default_allocate_traits>
PUBLIC	?call@?$functor1@MM$0A@Utvec3@glm@@@detail@glm@@SA?AU?$tvec3@M$0A@@3@P6AMM@ZAEBU43@@Z ; glm::detail::functor1<float,float,0,glm::tvec3>::call
PUBLIC	?call@?$functor1@MM$0A@Utvec4@glm@@@detail@glm@@SA?AU?$tvec4@M$0A@@3@P6AMM@ZAEBU43@@Z ; glm::detail::functor1<float,float,0,glm::tvec4>::call
PUBLIC	?call@?$compute_quat_add@M$0A@$0A@@detail@glm@@SA?AU?$tquat@M$0A@@3@AEBU43@0@Z ; glm::detail::compute_quat_add<float,0,0>::call
PUBLIC	??$_To_address@PEBU?$tquat@M$0A@@glm@@@std@@YA?A_PAEBQEBU?$tquat@M$0A@@glm@@@Z ; std::_To_address<glm::tquat<float,0> const *>
PUBLIC	??$_To_address@PEAU?$tquat@M$0A@@glm@@@std@@YA?A_PAEBQEAU?$tquat@M$0A@@glm@@@Z ; std::_To_address<glm::tquat<float,0> *>
PUBLIC	??$forward@AEBU?$tquat@M$0A@@glm@@@std@@YAAEBU?$tquat@M$0A@@glm@@AEBU12@@Z ; std::forward<glm::tquat<float,0> const &>
PUBLIC	??$construct@U?$tquat@M$0A@@glm@@AEBU12@@?$_Default_allocator_traits@V?$allocator@U?$tquat@M$0A@@glm@@@std@@@std@@SAXAEAV?$allocator@U?$tquat@M$0A@@glm@@@1@QEAU?$tquat@M$0A@@glm@@AEBU34@@Z ; std::_Default_allocator_traits<std::allocator<glm::tquat<float,0> > >::construct<glm::tquat<float,0>,glm::tquat<float,0> const &>
PUBLIC	??$_Voidify_iter@PEAU?$tquat@M$0A@@glm@@@std@@YAPEAXPEAU?$tquat@M$0A@@glm@@@Z ; std::_Voidify_iter<glm::tquat<float,0> *>
PUBLIC	??_7exception@std@@6B@				; std::exception::`vftable'
PUBLIC	??_C@_0BC@EOODALEL@Unknown?5exception@		; `string'
PUBLIC	??_7bad_alloc@std@@6B@				; std::bad_alloc::`vftable'
PUBLIC	??_7bad_array_new_length@std@@6B@		; std::bad_array_new_length::`vftable'
PUBLIC	??_C@_0BF@KINCDENJ@bad?5array?5new?5length@	; `string'
PUBLIC	_TI3?AVbad_array_new_length@std@@
PUBLIC	_CTA3?AVbad_array_new_length@std@@
PUBLIC	??_R0?AVbad_array_new_length@std@@@8		; std::bad_array_new_length `RTTI Type Descriptor'
PUBLIC	_CT??_R0?AVbad_array_new_length@std@@@8??0bad_array_new_length@std@@QEAA@AEBV01@@Z24
PUBLIC	??_R0?AVbad_alloc@std@@@8			; std::bad_alloc `RTTI Type Descriptor'
PUBLIC	_CT??_R0?AVbad_alloc@std@@@8??0bad_alloc@std@@QEAA@AEBV01@@Z24
PUBLIC	??_R0?AVexception@std@@@8			; std::exception `RTTI Type Descriptor'
PUBLIC	_CT??_R0?AVexception@std@@@8??0exception@std@@QEAA@AEBV01@@Z24
PUBLIC	??_C@_0BB@FCMFBGOM@invalid?5argument@		; `string'
PUBLIC	??_C@_02DKCKIIND@?$CFs@				; `string'
PUBLIC	??_C@_0GC@DJFHHHKN@C?3?2Program?5Files?2Microsoft?5Visu@ ; `string'
PUBLIC	??_C@_1ME@GEFGDEOM@?$AAC?$AA?3?$AA?2?$AAP?$AAr?$AAo?$AAg?$AAr?$AAa?$AAm?$AA?5?$AAF?$AAi?$AAl?$AAe@ ; `string'
PUBLIC	??_C@_11LOCGONAA@@				; `string'
PUBLIC	??_C@_1CG@JNLFBNGN@?$AA?$CC?$AAi?$AAn?$AAv?$AAa?$AAl?$AAi?$AAd?$AA?5?$AAa?$AAr?$AAg?$AAu?$AAm?$AAe@ ; `string'
PUBLIC	??_C@_0DG@KGHKKGBC@null?5pointer?5cannot?5point?5to?5a?5@ ; `string'
PUBLIC	??_C@_1HA@FACCKGGH@?$AA?$CC?$AAn?$AAu?$AAl?$AAl?$AA?5?$AAp?$AAo?$AAi?$AAn?$AAt?$AAe?$AAr?$AA?5?$AAc@ ; `string'
PUBLIC	??_C@_0BA@FOIKENOD@vector?5too?5long@		; `string'
PUBLIC	??_C@_1LG@MEJFBKPC@?$AAC?$AA?3?$AA?2?$AAU?$AAs?$AAe?$AAr?$AAs?$AA?2?$AAk?$AAs?$AAa?$AAr?$AAt?$AA?2@ ; `string'
PUBLIC	??_C@_1DK@BGNCJAPL@?$AAi?$AA?5?$AA?$DO?$AA?$DN?$AA?5?$AA0?$AA?5?$AA?$CG?$AA?$CG?$AA?5?$AAi?$AA?5?$AA?$DM?$AA?5?$AAt@ ; `string'
PUBLIC	??_C@_1LG@LAANPDHN@?$AAC?$AA?3?$AA?2?$AAU?$AAs?$AAe?$AAr?$AAs?$AA?2?$AAk?$AAs?$AAa?$AAr?$AAt?$AA?2@ ; `string'
PUBLIC	??_C@_1NA@OPABFNEN@?$AAC?$AA?3?$AA?2?$AAU?$AAs?$AAe?$AAr?$AAs?$AA?2?$AAk?$AAs?$AAa?$AAr?$AAt?$AA?2@ ; `string'
PUBLIC	??_C@_1DC@HHLCGOLC@?$AAx?$AA?4?$AAl?$AAe?$AAn?$AAg?$AAt?$AAh?$AA?$CI?$AA?$CJ?$AA?5?$AA?$DN?$AA?$DN?$AA?5?$AAy@ ; `string'
PUBLIC	??_R4exception@std@@6B@				; std::exception::`RTTI Complete Object Locator'
PUBLIC	??_R3exception@std@@8				; std::exception::`RTTI Class Hierarchy Descriptor'
PUBLIC	??_R2exception@std@@8				; std::exception::`RTTI Base Class Array'
PUBLIC	??_R1A@?0A@EA@exception@std@@8			; std::exception::`RTTI Base Class Descriptor at (0,-1,0,64)'
PUBLIC	??_R4bad_alloc@std@@6B@				; std::bad_alloc::`RTTI Complete Object Locator'
PUBLIC	??_R3bad_alloc@std@@8				; std::bad_alloc::`RTTI Class Hierarchy Descriptor'
PUBLIC	??_R2bad_alloc@std@@8				; std::bad_alloc::`RTTI Base Class Array'
PUBLIC	??_R1A@?0A@EA@bad_alloc@std@@8			; std::bad_alloc::`RTTI Base Class Descriptor at (0,-1,0,64)'
PUBLIC	??_R4bad_array_new_length@std@@6B@		; std::bad_array_new_length::`RTTI Complete Object Locator'
PUBLIC	??_R3bad_array_new_length@std@@8		; std::bad_array_new_length::`RTTI Class Hierarchy Descriptor'
PUBLIC	??_R2bad_array_new_length@std@@8		; std::bad_array_new_length::`RTTI Base Class Array'
PUBLIC	??_R1A@?0A@EA@bad_array_new_length@std@@8	; std::bad_array_new_length::`RTTI Base Class Descriptor at (0,-1,0,64)'
PUBLIC	__real@00000000
PUBLIC	__real@34000000
PUBLIC	__real@358637bd
PUBLIC	__real@38d1b717
PUBLIC	__real@3c23d70a
PUBLIC	__real@3dcccccd
PUBLIC	__real@3e800000
PUBLIC	__real@3f000000
PUBLIC	__real@3f800000
PUBLIC	__real@3ff0000000000000
PUBLIC	__real@40000000
PUBLIC	__real@4000000000000000
PUBLIC	__real@40400000
PUBLIC	__real@40490fdb
PUBLIC	__real@bf800000
PUBLIC	__real@bff0000000000000
PUBLIC	__real@c0000000
PUBLIC	__real@c000000000000000
PUBLIC	__xmm@80000000800000008000000080000000
EXTRN	??2@YAPEAX_K@Z:PROC				; operator new
EXTRN	??3@YAXPEAX_K@Z:PROC				; operator delete
EXTRN	__imp__invalid_parameter:PROC
EXTRN	__imp__wassert:PROC
EXTRN	asin:PROC
EXTRN	atan2:PROC
EXTRN	__imp_acosf:PROC
EXTRN	__imp_asinf:PROC
EXTRN	__imp_atan2f:PROC
EXTRN	__imp_cosf:PROC
EXTRN	__imp_powf:PROC
EXTRN	__imp_sinf:PROC
EXTRN	__imp_sqrtf:PROC
EXTRN	memmove:PROC
EXTRN	__imp__CrtDbgReport:PROC
EXTRN	__imp_??0_Lockit@std@@QEAA@H@Z:PROC
EXTRN	__imp_??1_Lockit@std@@QEAA@XZ:PROC
EXTRN	__std_exception_copy:PROC
EXTRN	__std_exception_destroy:PROC
EXTRN	??_Eexception@std@@UEAAPEAXI@Z:PROC		; std::exception::`vector deleting destructor'
EXTRN	??_Ebad_alloc@std@@UEAAPEAXI@Z:PROC		; std::bad_alloc::`vector deleting destructor'
EXTRN	??_Ebad_array_new_length@std@@UEAAPEAXI@Z:PROC	; std::bad_array_new_length::`vector deleting destructor'
EXTRN	?_Xlength_error@std@@YAXPEBD@Z:PROC		; std::_Xlength_error
EXTRN	_CxxThrowException:PROC
EXTRN	_RTC_CheckStackVars:PROC
EXTRN	_RTC_InitBase:PROC
EXTRN	_RTC_Shutdown:PROC
EXTRN	__CxxFrameHandler4:PROC
EXTRN	??_7type_info@@6B@:BYTE				; type_info::`vftable'
EXTRN	_fltused:DWORD
;	COMDAT pdata
pdata	SEGMENT
$pdata$?max@?$numeric_limits@_J@std@@SA_JXZ DD imagerel $LN3
	DD	imagerel $LN3+14
	DD	imagerel $unwind$?max@?$numeric_limits@_J@std@@SA_JXZ
pdata	ENDS
;	COMDAT pdata
pdata	SEGMENT
$pdata$?epsilon@?$numeric_limits@M@std@@SAMXZ DD imagerel $LN3
	DD	imagerel $LN3+20
	DD	imagerel $unwind$?epsilon@?$numeric_limits@M@std@@SAMXZ
pdata	ENDS
;	COMDAT pdata
pdata	SEGMENT
$pdata$??2@YAPEAX_KPEAX@Z DD imagerel $LN3
	DD	imagerel $LN3+18
	DD	imagerel $unwind$??2@YAPEAX_KPEAX@Z
pdata	ENDS
;	COMDAT pdata
pdata	SEGMENT
$pdata$?acos@@YAMM@Z DD imagerel $LN3
	DD	imagerel $LN3+29
	DD	imagerel $unwind$?acos@@YAMM@Z
pdata	ENDS
;	COMDAT pdata
pdata	SEGMENT
$pdata$?asin@@YAMM@Z DD imagerel $LN3
	DD	imagerel $LN3+29
	DD	imagerel $unwind$?asin@@YAMM@Z
pdata	ENDS
;	COMDAT pdata
pdata	SEGMENT
$pdata$?atan2@@YAMMM@Z DD imagerel $LN3
	DD	imagerel $LN3+41
	DD	imagerel $unwind$?atan2@@YAMMM@Z
pdata	ENDS
;	COMDAT pdata
pdata	SEGMENT
$pdata$?cos@@YAMM@Z DD imagerel $LN3
	DD	imagerel $LN3+29
	DD	imagerel $unwind$?cos@@YAMM@Z
pdata	ENDS
;	COMDAT pdata
pdata	SEGMENT
$pdata$?pow@@YAMMM@Z DD imagerel $LN3
	DD	imagerel $LN3+41
	DD	imagerel $unwind$?pow@@YAMMM@Z
pdata	ENDS
;	COMDAT pdata
pdata	SEGMENT
$pdata$?sin@@YAMM@Z DD imagerel $LN3
	DD	imagerel $LN3+29
	DD	imagerel $unwind$?sin@@YAMM@Z
pdata	ENDS
;	COMDAT pdata
pdata	SEGMENT
$pdata$?sqrt@@YAMM@Z DD imagerel $LN3
	DD	imagerel $LN3+29
	DD	imagerel $unwind$?sqrt@@YAMM@Z
pdata	ENDS
;	COMDAT pdata
pdata	SEGMENT
$pdata$??$epsilonEqual@M@glm@@YA_NAEBM00@Z DD imagerel $LN5
	DD	imagerel $LN5+86
	DD	imagerel $unwind$??$epsilonEqual@M@glm@@YA_NAEBM00@Z
pdata	ENDS
;	COMDAT pdata
pdata	SEGMENT
$pdata$??$abs@M@glm@@YAMM@Z DD imagerel $LN3
	DD	imagerel $LN3+28
	DD	imagerel $unwind$??$abs@M@glm@@YAMM@Z
pdata	ENDS
;	COMDAT pdata
pdata	SEGMENT
$pdata$??0exception@std@@QEAA@QEBDH@Z DD imagerel $LN3
	DD	imagerel $LN3+73
	DD	imagerel $unwind$??0exception@std@@QEAA@QEBDH@Z
pdata	ENDS
;	COMDAT pdata
pdata	SEGMENT
$pdata$??0exception@std@@QEAA@AEBV01@@Z DD imagerel $LN3
	DD	imagerel $LN3+88
	DD	imagerel $unwind$??0exception@std@@QEAA@AEBV01@@Z
pdata	ENDS
;	COMDAT pdata
pdata	SEGMENT
$pdata$??1exception@std@@UEAA@XZ DD imagerel $LN3
	DD	imagerel $LN3+48
	DD	imagerel $unwind$??1exception@std@@UEAA@XZ
pdata	ENDS
;	COMDAT pdata
pdata	SEGMENT
$pdata$?what@exception@std@@UEBAPEBDXZ DD imagerel $LN5
	DD	imagerel $LN5+58
	DD	imagerel $unwind$?what@exception@std@@UEBAPEBDXZ
pdata	ENDS
;	COMDAT pdata
pdata	SEGMENT
$pdata$??_Gexception@std@@UEAAPEAXI@Z DD imagerel $LN4
	DD	imagerel $LN4+61
	DD	imagerel $unwind$??_Gexception@std@@UEAAPEAXI@Z
pdata	ENDS
;	COMDAT pdata
pdata	SEGMENT
$pdata$??0bad_alloc@std@@AEAA@QEBD@Z DD imagerel $LN3
	DD	imagerel $LN3+62
	DD	imagerel $unwind$??0bad_alloc@std@@AEAA@QEBD@Z
pdata	ENDS
;	COMDAT pdata
pdata	SEGMENT
$pdata$??1bad_alloc@std@@UEAA@XZ DD imagerel $LN3
	DD	imagerel $LN3+26
	DD	imagerel $unwind$??1bad_alloc@std@@UEAA@XZ
pdata	ENDS
;	COMDAT pdata
pdata	SEGMENT
$pdata$??0bad_alloc@std@@QEAA@AEBV01@@Z DD imagerel $LN3
	DD	imagerel $LN3+56
	DD	imagerel $unwind$??0bad_alloc@std@@QEAA@AEBV01@@Z
pdata	ENDS
;	COMDAT pdata
pdata	SEGMENT
$pdata$??_Gbad_alloc@std@@UEAAPEAXI@Z DD imagerel $LN4
	DD	imagerel $LN4+61
	DD	imagerel $unwind$??_Gbad_alloc@std@@UEAAPEAXI@Z
pdata	ENDS
;	COMDAT pdata
pdata	SEGMENT
$pdata$??0bad_array_new_length@std@@QEAA@XZ DD imagerel $LN3
	DD	imagerel $LN3+53
	DD	imagerel $unwind$??0bad_array_new_length@std@@QEAA@XZ
pdata	ENDS
;	COMDAT pdata
pdata	SEGMENT
$pdata$??1bad_array_new_length@std@@UEAA@XZ DD imagerel $LN3
	DD	imagerel $LN3+26
	DD	imagerel $unwind$??1bad_array_new_length@std@@UEAA@XZ
pdata	ENDS
;	COMDAT pdata
pdata	SEGMENT
$pdata$??0bad_array_new_length@std@@QEAA@AEBV01@@Z DD imagerel $LN3
	DD	imagerel $LN3+56
	DD	imagerel $unwind$??0bad_array_new_length@std@@QEAA@AEBV01@@Z
pdata	ENDS
;	COMDAT pdata
pdata	SEGMENT
$pdata$??_Gbad_array_new_length@std@@UEAAPEAXI@Z DD imagerel $LN4
	DD	imagerel $LN4+61
	DD	imagerel $unwind$??_Gbad_array_new_length@std@@UEAAPEAXI@Z
pdata	ENDS
;	COMDAT pdata
pdata	SEGMENT
$pdata$?_Throw_bad_array_new_length@std@@YAXXZ DD imagerel $LN3
	DD	imagerel $LN3+39
	DD	imagerel $unwind$?_Throw_bad_array_new_length@std@@YAXXZ
pdata	ENDS
;	COMDAT pdata
pdata	SEGMENT
$pdata$?_Allocate@_Default_allocate_traits@std@@SAPEAX_K@Z DD imagerel $LN3
	DD	imagerel $LN3+26
	DD	imagerel $unwind$?_Allocate@_Default_allocate_traits@std@@SAPEAX_K@Z
pdata	ENDS
;	COMDAT pdata
pdata	SEGMENT
$pdata$?_Adjust_manually_vector_aligned@std@@YAXAEAPEAXAEA_K@Z DD imagerel $LN21
	DD	imagerel $LN21+404
	DD	imagerel $unwind$?_Adjust_manually_vector_aligned@std@@YAXAEAPEAXAEA_K@Z
pdata	ENDS
;	COMDAT pdata
pdata	SEGMENT
$pdata$??0_Container_proxy@std@@QEAA@PEAU_Container_base12@1@@Z DD imagerel $LN3
	DD	imagerel $LN3+44
	DD	imagerel $unwind$??0_Container_proxy@std@@QEAA@PEAU_Container_base12@1@@Z
pdata	ENDS
;	COMDAT pdata
pdata	SEGMENT
$pdata$??0_Container_base12@std@@QEAA@XZ DD imagerel $LN3
	DD	imagerel $LN3+25
	DD	imagerel $unwind$??0_Container_base12@std@@QEAA@XZ
pdata	ENDS
;	COMDAT pdata
pdata	SEGMENT
$pdata$?_Orphan_all@_Container_base12@std@@QEAAXXZ DD imagerel $LN3
	DD	imagerel $LN3+26
	DD	imagerel $unwind$?_Orphan_all@_Container_base12@std@@QEAAXXZ
pdata	ENDS
;	COMDAT pdata
pdata	SEGMENT
$pdata$?_Orphan_all_unlocked_v3@_Container_base12@std@@AEAAXXZ DD imagerel $LN7
	DD	imagerel $LN7+107
	DD	imagerel $unwind$?_Orphan_all_unlocked_v3@_Container_base12@std@@AEAAXXZ
pdata	ENDS
;	COMDAT pdata
pdata	SEGMENT
$pdata$?_Orphan_all_locked_v3@_Container_base12@std@@AEAAXXZ DD imagerel $LN3
	DD	imagerel $LN3+90
	DD	imagerel $unwind$?_Orphan_all_locked_v3@_Container_base12@std@@AEAAXXZ
pdata	ENDS
;	COMDAT pdata
pdata	SEGMENT
$pdata$?_Release@_Basic_container_proxy_ptr12@std@@QEAAXXZ DD imagerel $LN3
	DD	imagerel $LN3+20
	DD	imagerel $unwind$?_Release@_Basic_container_proxy_ptr12@std@@QEAAXXZ
pdata	ENDS
;	COMDAT pdata
pdata	SEGMENT
$pdata$??0_Basic_container_proxy_ptr12@std@@IEAA@XZ DD imagerel $LN3
	DD	imagerel $LN3+25
	DD	imagerel $unwind$??0_Basic_container_proxy_ptr12@std@@IEAA@XZ
pdata	ENDS
pdata	SEGMENT
$pdata$?test_quat_angle@@YAHXZ DD imagerel $LN15
	DD	imagerel $LN15+1190
	DD	imagerel $unwind$?test_quat_angle@@YAHXZ
pdata	ENDS
;	COMDAT pdata
pdata	SEGMENT
$pdata$?length@?$tquat@M$0A@@glm@@SAHXZ DD imagerel $LN3
	DD	imagerel $LN3+9
	DD	imagerel $unwind$?length@?$tquat@M$0A@@glm@@SAHXZ
pdata	ENDS
;	COMDAT pdata
pdata	SEGMENT
$pdata$??0?$tquat@M$0A@@glm@@QEAA@XZ DD imagerel $LN3
	DD	imagerel $LN3+69
	DD	imagerel $unwind$??0?$tquat@M$0A@@glm@@QEAA@XZ
pdata	ENDS
;	COMDAT pdata
pdata	SEGMENT
$pdata$??0?$tquat@M$0A@@glm@@QEAA@W4ctor@1@@Z DD imagerel $LN3
	DD	imagerel $LN3+17
	DD	imagerel $unwind$??0?$tquat@M$0A@@glm@@QEAA@W4ctor@1@@Z
pdata	ENDS
;	COMDAT pdata
pdata	SEGMENT
$pdata$??0?$tquat@M$0A@@glm@@QEAA@AEBMAEBU?$tvec3@M$0A@@1@@Z DD imagerel $LN3
	DD	imagerel $LN3+100
	DD	imagerel $unwind$??0?$tquat@M$0A@@glm@@QEAA@AEBMAEBU?$tvec3@M$0A@@1@@Z
pdata	ENDS
;	COMDAT pdata
pdata	SEGMENT
$pdata$??0?$tquat@M$0A@@glm@@QEAA@AEBM000@Z DD imagerel $LN3
	DD	imagerel $LN3+103
	DD	imagerel $unwind$??0?$tquat@M$0A@@glm@@QEAA@AEBM000@Z
pdata	ENDS
;	COMDAT pdata
pdata	SEGMENT
$pdata$??0?$tquat@M$0A@@glm@@QEAA@AEBU?$tvec3@M$0A@@1@0@Z DD imagerel $LN3
	DD	imagerel $LN3+238
	DD	imagerel $unwind$??0?$tquat@M$0A@@glm@@QEAA@AEBU?$tvec3@M$0A@@1@0@Z
pdata	ENDS
;	COMDAT pdata
pdata	SEGMENT
$pdata$??$pi@M@glm@@YAMXZ DD imagerel $LN3
	DD	imagerel $LN3+20
	DD	imagerel $unwind$??$pi@M@glm@@YAMXZ
pdata	ENDS
;	COMDAT pdata
pdata	SEGMENT
$pdata$?length@?$tvec3@M$0A@@glm@@SAHXZ DD imagerel $LN3
	DD	imagerel $LN3+9
	DD	imagerel $unwind$?length@?$tvec3@M$0A@@glm@@SAHXZ
pdata	ENDS
;	COMDAT pdata
pdata	SEGMENT
$pdata$??A?$tvec3@M$0A@@glm@@QEBAAEBMH@Z DD imagerel $LN5
	DD	imagerel $LN5+80
	DD	imagerel $unwind$??A?$tvec3@M$0A@@glm@@QEBAAEBMH@Z
pdata	ENDS
;	COMDAT pdata
pdata	SEGMENT
$pdata$??0?$tvec3@M$0A@@glm@@QEAA@M@Z DD imagerel $LN3
	DD	imagerel $LN3+66
	DD	imagerel $unwind$??0?$tvec3@M$0A@@glm@@QEAA@M@Z
pdata	ENDS
;	COMDAT pdata
pdata	SEGMENT
$pdata$??0?$tvec3@M$0A@@glm@@QEAA@MMM@Z DD imagerel $LN3
	DD	imagerel $LN3+78
	DD	imagerel $unwind$??0?$tvec3@M$0A@@glm@@QEAA@MMM@Z
pdata	ENDS
;	COMDAT pdata
pdata	SEGMENT
$pdata$??$?0HHH@?$tvec3@M$0A@@glm@@QEAA@HHH@Z DD imagerel $LN3
	DD	imagerel $LN3+74
	DD	imagerel $unwind$??$?0HHH@?$tvec3@M$0A@@glm@@QEAA@HHH@Z
pdata	ENDS
;	COMDAT pdata
pdata	SEGMENT
$pdata$??$angleAxis@M$0A@@glm@@YA?AU?$tquat@M$0A@@0@AEBMAEBU?$tvec3@M$0A@@0@@Z DD imagerel $LN3
	DD	imagerel $LN3+247
	DD	imagerel $unwind$??$angleAxis@M$0A@@glm@@YA?AU?$tquat@M$0A@@0@AEBMAEBU?$tvec3@M$0A@@0@@Z
pdata	ENDS
;	COMDAT pdata
pdata	SEGMENT
$pdata$??$normalize@M$0A@@glm@@YA?AU?$tquat@M$0A@@0@AEBU10@@Z DD imagerel $LN4
	DD	imagerel $LN4+280
	DD	imagerel $unwind$??$normalize@M$0A@@glm@@YA?AU?$tquat@M$0A@@0@AEBU10@@Z
pdata	ENDS
;	COMDAT pdata
pdata	SEGMENT
$pdata$??$length@M$0A@@glm@@YAMAEBU?$tquat@M$0A@@0@@Z DD imagerel $LN3
	DD	imagerel $LN3+36
	DD	imagerel $unwind$??$length@M$0A@@glm@@YAMAEBU?$tquat@M$0A@@0@@Z
pdata	ENDS
;	COMDAT pdata
pdata	SEGMENT
$pdata$?length@?$tvec4@M$0A@@glm@@SAHXZ DD imagerel $LN3
	DD	imagerel $LN3+9
	DD	imagerel $unwind$?length@?$tvec4@M$0A@@glm@@SAHXZ
pdata	ENDS
;	COMDAT pdata
pdata	SEGMENT
$pdata$??A?$tvec4@M$0A@@glm@@QEBAAEBMH@Z DD imagerel $LN5
	DD	imagerel $LN5+80
	DD	imagerel $unwind$??A?$tvec4@M$0A@@glm@@QEBAAEBMH@Z
pdata	ENDS
;	COMDAT pdata
pdata	SEGMENT
$pdata$??0?$tvec4@M$0A@@glm@@QEAA@M@Z DD imagerel $LN3
	DD	imagerel $LN3+82
	DD	imagerel $unwind$??0?$tvec4@M$0A@@glm@@QEAA@M@Z
pdata	ENDS
;	COMDAT pdata
pdata	SEGMENT
$pdata$??0?$tvec4@M$0A@@glm@@QEAA@MMMM@Z DD imagerel $LN3
	DD	imagerel $LN3+94
	DD	imagerel $unwind$??0?$tvec4@M$0A@@glm@@QEAA@MMMM@Z
pdata	ENDS
;	COMDAT pdata
pdata	SEGMENT
$pdata$??$angle@M$0A@@glm@@YAMAEBU?$tquat@M$0A@@0@@Z DD imagerel $LN3
	DD	imagerel $LN3+39
	DD	imagerel $unwind$??$angle@M$0A@@glm@@YAMAEBU?$tquat@M$0A@@0@@Z
pdata	ENDS
;	COMDAT pdata
pdata	SEGMENT
$pdata$??$normalize@M$0A@Utvec3@glm@@@glm@@YA?AU?$tvec3@M$0A@@0@AEBU10@@Z DD imagerel $LN3
	DD	imagerel $LN3+41
	DD	imagerel $unwind$??$normalize@M$0A@Utvec3@glm@@@glm@@YA?AU?$tvec3@M$0A@@0@AEBU10@@Z
pdata	ENDS
pdata	SEGMENT
$pdata$?test_quat_angleAxis@@YAHXZ DD imagerel $LN11
	DD	imagerel $LN11+675
	DD	imagerel $unwind$?test_quat_angleAxis@@YAHXZ
pdata	ENDS
;	COMDAT pdata
pdata	SEGMENT
$pdata$??$mix@M$0A@@glm@@YA?AU?$tquat@M$0A@@0@AEBU10@0M@Z DD imagerel $LN5
	DD	imagerel $LN5+539
	DD	imagerel $unwind$??$mix@M$0A@@glm@@YA?AU?$tquat@M$0A@@0@AEBU10@0M@Z
pdata	ENDS
pdata	SEGMENT
$pdata$?test_quat_mix@@YAHXZ DD imagerel $LN11
	DD	imagerel $LN11+675
	DD	imagerel $unwind$?test_quat_mix@@YAHXZ
$pdata$?test_quat_precision@@YAHXZ DD imagerel $LN3
	DD	imagerel $LN3+34
	DD	imagerel $unwind$?test_quat_precision@@YAHXZ
$pdata$?test_quat_normalize@@YAHXZ DD imagerel $LN9
	DD	imagerel $LN9+738
	DD	imagerel $unwind$?test_quat_normalize@@YAHXZ
$pdata$?test_quat_euler@@YAHXZ DD imagerel $LN3
	DD	imagerel $LN3+429
	DD	imagerel $unwind$?test_quat_euler@@YAHXZ
pdata	ENDS
;	COMDAT pdata
pdata	SEGMENT
$pdata$??$roll@M$0A@@glm@@YAMAEBU?$tquat@M$0A@@0@@Z DD imagerel $LN3
	DD	imagerel $LN3+184
	DD	imagerel $unwind$??$roll@M$0A@@glm@@YAMAEBU?$tquat@M$0A@@0@@Z
pdata	ENDS
;	COMDAT pdata
pdata	SEGMENT
$pdata$??$pitch@M$0A@@glm@@YAMAEBU?$tquat@M$0A@@0@@Z DD imagerel $LN3
	DD	imagerel $LN3+184
	DD	imagerel $unwind$??$pitch@M$0A@@glm@@YAMAEBU?$tquat@M$0A@@0@@Z
pdata	ENDS
;	COMDAT pdata
pdata	SEGMENT
$pdata$??$yaw@M$0A@@glm@@YAMAEBU?$tquat@M$0A@@0@@Z DD imagerel $LN3
	DD	imagerel $LN3+100
	DD	imagerel $unwind$??$yaw@M$0A@@glm@@YAMAEBU?$tquat@M$0A@@0@@Z
pdata	ENDS
;	COMDAT pdata
pdata	SEGMENT
$pdata$??$eulerAngles@M$0A@@glm@@YA?AU?$tvec3@M$0A@@0@AEBU?$tquat@M$0A@@0@@Z DD imagerel $LN3
	DD	imagerel $LN3+99
	DD	imagerel $unwind$??$eulerAngles@M$0A@@glm@@YA?AU?$tvec3@M$0A@@0@AEBU?$tquat@M$0A@@0@@Z
pdata	ENDS
;	COMDAT pdata
pdata	SEGMENT
$pdata$?length@?$tquat@N$0A@@glm@@SAHXZ DD imagerel $LN3
	DD	imagerel $LN3+9
	DD	imagerel $unwind$?length@?$tquat@N$0A@@glm@@SAHXZ
pdata	ENDS
;	COMDAT pdata
pdata	SEGMENT
$pdata$??0?$tquat@N$0A@@glm@@QEAA@XZ DD imagerel $LN3
	DD	imagerel $LN3+69
	DD	imagerel $unwind$??0?$tquat@N$0A@@glm@@QEAA@XZ
pdata	ENDS
;	COMDAT pdata
pdata	SEGMENT
$pdata$??0?$tquat@N$0A@@glm@@QEAA@AEBN000@Z DD imagerel $LN3
	DD	imagerel $LN3+103
	DD	imagerel $unwind$??0?$tquat@N$0A@@glm@@QEAA@AEBN000@Z
pdata	ENDS
;	COMDAT pdata
pdata	SEGMENT
$pdata$??$roll@N$0A@@glm@@YANAEBU?$tquat@N$0A@@0@@Z DD imagerel $LN3
	DD	imagerel $LN3+184
	DD	imagerel $unwind$??$roll@N$0A@@glm@@YANAEBU?$tquat@N$0A@@0@@Z
pdata	ENDS
;	COMDAT pdata
pdata	SEGMENT
$pdata$??$pitch@N$0A@@glm@@YANAEBU?$tquat@N$0A@@0@@Z DD imagerel $LN3
	DD	imagerel $LN3+184
	DD	imagerel $unwind$??$pitch@N$0A@@glm@@YANAEBU?$tquat@N$0A@@0@@Z
pdata	ENDS
;	COMDAT pdata
pdata	SEGMENT
$pdata$??$yaw@N$0A@@glm@@YANAEBU?$tquat@N$0A@@0@@Z DD imagerel $LN3
	DD	imagerel $LN3+100
	DD	imagerel $unwind$??$yaw@N$0A@@glm@@YANAEBU?$tquat@N$0A@@0@@Z
pdata	ENDS
;	COMDAT pdata
pdata	SEGMENT
$pdata$??0?$tvec3@N$0A@@glm@@QEAA@NNN@Z DD imagerel $LN3
	DD	imagerel $LN3+78
	DD	imagerel $unwind$??0?$tvec3@N$0A@@glm@@QEAA@NNN@Z
pdata	ENDS
;	COMDAT pdata
pdata	SEGMENT
$pdata$??$eulerAngles@N$0A@@glm@@YA?AU?$tvec3@N$0A@@0@AEBU?$tquat@N$0A@@0@@Z DD imagerel $LN3
	DD	imagerel $LN3+99
	DD	imagerel $unwind$??$eulerAngles@N$0A@@glm@@YA?AU?$tvec3@N$0A@@0@AEBU?$tquat@N$0A@@0@@Z
pdata	ENDS
pdata	SEGMENT
$pdata$?test_quat_slerp@@YAHXZ DD imagerel $LN19
	DD	imagerel $LN19+1742
	DD	imagerel $unwind$?test_quat_slerp@@YAHXZ
pdata	ENDS
;	COMDAT pdata
pdata	SEGMENT
$pdata$??$slerp@M$0A@@glm@@YA?AU?$tquat@M$0A@@0@AEBU10@0M@Z DD imagerel $LN6
	DD	imagerel $LN6+666
	DD	imagerel $unwind$??$slerp@M$0A@@glm@@YA?AU?$tquat@M$0A@@0@AEBU10@0M@Z
pdata	ENDS
;	COMDAT pdata
pdata	SEGMENT
$pdata$??$epsilonEqual@M$0A@@glm@@YA?AU?$tvec4@_N$0A@@0@AEBU?$tquat@M$0A@@0@0AEBM@Z DD imagerel $LN3
	DD	imagerel $LN3+293
	DD	imagerel $unwind$??$epsilonEqual@M$0A@@glm@@YA?AU?$tvec4@_N$0A@@0@AEBU?$tquat@M$0A@@0@0AEBM@Z
pdata	ENDS
;	COMDAT pdata
pdata	SEGMENT
$pdata$?length@?$tvec4@_N$0A@@glm@@SAHXZ DD imagerel $LN3
	DD	imagerel $LN3+9
	DD	imagerel $unwind$?length@?$tvec4@_N$0A@@glm@@SAHXZ
pdata	ENDS
;	COMDAT pdata
pdata	SEGMENT
$pdata$??A?$tvec4@_N$0A@@glm@@QEAAAEA_NH@Z DD imagerel $LN5
	DD	imagerel $LN5+82
	DD	imagerel $unwind$??A?$tvec4@_N$0A@@glm@@QEAAAEA_NH@Z
pdata	ENDS
;	COMDAT pdata
pdata	SEGMENT
$pdata$??A?$tvec4@_N$0A@@glm@@QEBAAEB_NH@Z DD imagerel $LN5
	DD	imagerel $LN5+82
	DD	imagerel $unwind$??A?$tvec4@_N$0A@@glm@@QEBAAEB_NH@Z
pdata	ENDS
;	COMDAT pdata
pdata	SEGMENT
$pdata$??0?$tvec4@_N$0A@@glm@@QEAA@W4ctor@1@@Z DD imagerel $LN3
	DD	imagerel $LN3+17
	DD	imagerel $unwind$??0?$tvec4@_N$0A@@glm@@QEAA@W4ctor@1@@Z
pdata	ENDS
;	COMDAT pdata
pdata	SEGMENT
$pdata$??$all@$0A@Utvec4@glm@@@glm@@YA_NAEBU?$tvec4@_N$0A@@0@@Z DD imagerel $LN8
	DD	imagerel $LN8+116
	DD	imagerel $unwind$??$all@$0A@Utvec4@glm@@@glm@@YA_NAEBU?$tvec4@_N$0A@@0@@Z
pdata	ENDS
;	COMDAT pdata
pdata	SEGMENT
$pdata$??$?GM$0A@@glm@@YA?AU?$tquat@M$0A@@0@AEBU10@@Z DD imagerel $LN3
	DD	imagerel $LN3+152
	DD	imagerel $unwind$??$?GM$0A@@glm@@YA?AU?$tquat@M$0A@@0@AEBU10@@Z
pdata	ENDS
;	COMDAT pdata
pdata	SEGMENT
$pdata$??$dot@M$0A@Utquat@glm@@@glm@@YAMAEBU?$tquat@M$0A@@0@0@Z DD imagerel $LN3
	DD	imagerel $LN3+36
	DD	imagerel $unwind$??$dot@M$0A@Utquat@glm@@@glm@@YAMAEBU?$tquat@M$0A@@0@0@Z
pdata	ENDS
pdata	SEGMENT
$pdata$?test_quat_mul@@YAHXZ DD imagerel $LN3
	DD	imagerel $LN3+669
	DD	imagerel $unwind$?test_quat_mul@@YAHXZ
pdata	ENDS
;	COMDAT pdata
pdata	SEGMENT
$pdata$??$?0NNN@?$tvec3@M$0A@@glm@@QEAA@NNN@Z DD imagerel $LN3
	DD	imagerel $LN3+78
	DD	imagerel $unwind$??$?0NNN@?$tvec3@M$0A@@glm@@QEAA@NNN@Z
pdata	ENDS
;	COMDAT pdata
pdata	SEGMENT
$pdata$??$?DM$0A@@glm@@YA?AU?$tvec3@M$0A@@0@AEBU?$tquat@M$0A@@0@AEBU10@@Z DD imagerel $LN3
	DD	imagerel $LN3+283
	DD	imagerel $unwind$??$?DM$0A@@glm@@YA?AU?$tvec3@M$0A@@0@AEBU?$tquat@M$0A@@0@AEBU10@@Z
pdata	ENDS
;	COMDAT pdata
pdata	SEGMENT
$pdata$??$inverse@M$0A@@glm@@YA?AU?$tquat@M$0A@@0@AEBU10@@Z DD imagerel $LN3
	DD	imagerel $LN3+80
	DD	imagerel $unwind$??$inverse@M$0A@@glm@@YA?AU?$tquat@M$0A@@0@AEBU10@@Z
pdata	ENDS
;	COMDAT pdata
pdata	SEGMENT
$pdata$??$?DM$0A@@glm@@YA?AU?$tvec3@M$0A@@0@AEBU10@AEBU?$tquat@M$0A@@0@@Z DD imagerel $LN3
	DD	imagerel $LN3+64
	DD	imagerel $unwind$??$?DM$0A@@glm@@YA?AU?$tvec3@M$0A@@0@AEBU10@AEBU?$tquat@M$0A@@0@@Z
pdata	ENDS
;	COMDAT pdata
pdata	SEGMENT
$pdata$??$?DM$0A@@glm@@YA?AU?$tquat@M$0A@@0@AEBU10@0@Z DD imagerel $LN3
	DD	imagerel $LN3+83
	DD	imagerel $unwind$??$?DM$0A@@glm@@YA?AU?$tquat@M$0A@@0@AEBU10@0@Z
pdata	ENDS
;	COMDAT pdata
pdata	SEGMENT
$pdata$??$?XM@?$tquat@M$0A@@glm@@QEAAAEAU01@AEBU01@@Z DD imagerel $LN3
	DD	imagerel $LN3+420
	DD	imagerel $unwind$??$?XM@?$tquat@M$0A@@glm@@QEAAAEAU01@AEBU01@@Z
pdata	ENDS
;	COMDAT pdata
pdata	SEGMENT
$pdata$??$?9M$0A@@glm@@YA_NAEBU?$tquat@M$0A@@0@0@Z DD imagerel $LN5
	DD	imagerel $LN5+131
	DD	imagerel $unwind$??$?9M$0A@@glm@@YA_NAEBU?$tquat@M$0A@@0@0@Z
pdata	ENDS
pdata	SEGMENT
$pdata$?test_quat_two_axis_ctr@@YAHXZ DD imagerel $LN7
	DD	imagerel $LN7+518
	DD	imagerel $unwind$?test_quat_two_axis_ctr@@YAHXZ
pdata	ENDS
;	COMDAT pdata
pdata	SEGMENT
$pdata$??$epsilonEqual@M$0A@Utvec3@glm@@@glm@@YA?AU?$tvec3@_N$0A@@0@AEBU?$tvec3@M$0A@@0@0AEBM@Z DD imagerel $LN3
	DD	imagerel $LN3+114
	DD	imagerel $unwind$??$epsilonEqual@M$0A@Utvec3@glm@@@glm@@YA?AU?$tvec3@_N$0A@@0@AEBU?$tvec3@M$0A@@0@0AEBM@Z
pdata	ENDS
;	COMDAT pdata
pdata	SEGMENT
$pdata$?length@?$tvec3@_N$0A@@glm@@SAHXZ DD imagerel $LN3
	DD	imagerel $LN3+9
	DD	imagerel $unwind$?length@?$tvec3@_N$0A@@glm@@SAHXZ
pdata	ENDS
;	COMDAT pdata
pdata	SEGMENT
$pdata$??A?$tvec3@_N$0A@@glm@@QEAAAEA_NH@Z DD imagerel $LN5
	DD	imagerel $LN5+82
	DD	imagerel $unwind$??A?$tvec3@_N$0A@@glm@@QEAAAEA_NH@Z
pdata	ENDS
;	COMDAT pdata
pdata	SEGMENT
$pdata$??A?$tvec3@_N$0A@@glm@@QEBAAEB_NH@Z DD imagerel $LN5
	DD	imagerel $LN5+82
	DD	imagerel $unwind$??A?$tvec3@_N$0A@@glm@@QEBAAEB_NH@Z
pdata	ENDS
;	COMDAT pdata
pdata	SEGMENT
$pdata$??0?$tvec3@_N$0A@@glm@@QEAA@W4ctor@1@@Z DD imagerel $LN3
	DD	imagerel $LN3+17
	DD	imagerel $unwind$??0?$tvec3@_N$0A@@glm@@QEAA@W4ctor@1@@Z
pdata	ENDS
;	COMDAT pdata
pdata	SEGMENT
$pdata$??$all@$0A@Utvec3@glm@@@glm@@YA_NAEBU?$tvec3@_N$0A@@0@@Z DD imagerel $LN8
	DD	imagerel $LN8+116
	DD	imagerel $unwind$??$all@$0A@Utvec3@glm@@@glm@@YA_NAEBU?$tvec3@_N$0A@@0@@Z
pdata	ENDS
pdata	SEGMENT
$pdata$?test_quat_type@@YAHXZ DD imagerel $LN3
	DD	imagerel $LN3+76
	DD	imagerel $unwind$?test_quat_type@@YAHXZ
$pdata$?test_quat_mul_vec@@YAHXZ DD imagerel $LN5
	DD	imagerel $LN5+312
	DD	imagerel $unwind$?test_quat_mul_vec@@YAHXZ
$pdata$?test_quat_ctr@@YAHXZ DD imagerel $LN4
	DD	imagerel $LN4+517
	DD	imagerel $unwind$?test_quat_ctr@@YAHXZ
pdata	ENDS
;	COMDAT pdata
pdata	SEGMENT
$pdata$??0?$allocator@U?$tquat@M$0A@@glm@@@std@@QEAA@XZ DD imagerel $LN3
	DD	imagerel $LN3+13
	DD	imagerel $unwind$??0?$allocator@U?$tquat@M$0A@@glm@@@std@@QEAA@XZ
pdata	ENDS
;	COMDAT pdata
pdata	SEGMENT
$pdata$?deallocate@?$allocator@U?$tquat@M$0A@@glm@@@std@@QEAAXQEAU?$tquat@M$0A@@glm@@_K@Z DD imagerel $LN13
	DD	imagerel $LN13+180
	DD	imagerel $unwind$?deallocate@?$allocator@U?$tquat@M$0A@@glm@@@std@@QEAAXQEAU?$tquat@M$0A@@glm@@_K@Z
pdata	ENDS
;	COMDAT pdata
pdata	SEGMENT
$pdata$?allocate@?$allocator@U?$tquat@M$0A@@glm@@@std@@QEAAPEAU?$tquat@M$0A@@glm@@_K@Z DD imagerel $LN3
	DD	imagerel $LN3+39
	DD	imagerel $unwind$?allocate@?$allocator@U?$tquat@M$0A@@glm@@@std@@QEAAPEAU?$tquat@M$0A@@glm@@_K@Z
pdata	ENDS
;	COMDAT pdata
pdata	SEGMENT
$pdata$?max_size@?$_Default_allocator_traits@V?$allocator@U?$tquat@M$0A@@glm@@@std@@@std@@SA_KAEBV?$allocator@U?$tquat@M$0A@@glm@@@2@@Z DD imagerel $LN3
	DD	imagerel $LN3+18
	DD	imagerel $unwind$?max_size@?$_Default_allocator_traits@V?$allocator@U?$tquat@M$0A@@glm@@@std@@@std@@SA_KAEBV?$allocator@U?$tquat@M$0A@@glm@@@2@@Z
pdata	ENDS
;	COMDAT pdata
pdata	SEGMENT
$pdata$??0?$vector@U?$tquat@M$0A@@glm@@V?$allocator@U?$tquat@M$0A@@glm@@@std@@@std@@QEAA@V?$initializer_list@U?$tquat@M$0A@@glm@@@1@AEBV?$allocator@U?$tquat@M$0A@@glm@@@1@@Z DD imagerel $LN3
	DD	imagerel $LN3+125
	DD	imagerel $unwind$??0?$vector@U?$tquat@M$0A@@glm@@V?$allocator@U?$tquat@M$0A@@glm@@@std@@@std@@QEAA@V?$initializer_list@U?$tquat@M$0A@@glm@@@1@AEBV?$allocator@U?$tquat@M$0A@@glm@@@1@@Z
pdata	ENDS
;	COMDAT pdata
pdata	SEGMENT
$pdata$??1?$vector@U?$tquat@M$0A@@glm@@V?$allocator@U?$tquat@M$0A@@glm@@@std@@@std@@QEAA@XZ DD imagerel $LN3
	DD	imagerel $LN3+136
	DD	imagerel $unwind$??1?$vector@U?$tquat@M$0A@@glm@@V?$allocator@U?$tquat@M$0A@@glm@@@std@@@std@@QEAA@XZ
pdata	ENDS
;	COMDAT pdata
pdata	SEGMENT
$pdata$?max_size@?$vector@U?$tquat@M$0A@@glm@@V?$allocator@U?$tquat@M$0A@@glm@@@std@@@std@@QEBA_KXZ DD imagerel $LN3
	DD	imagerel $LN3+67
	DD	imagerel $unwind$?max_size@?$vector@U?$tquat@M$0A@@glm@@V?$allocator@U?$tquat@M$0A@@glm@@@std@@@std@@QEBA_KXZ
pdata	ENDS
;	COMDAT pdata
pdata	SEGMENT
$pdata$?_Buy_raw@?$vector@U?$tquat@M$0A@@glm@@V?$allocator@U?$tquat@M$0A@@glm@@@std@@@std@@AEAAX_K@Z DD imagerel $LN3
	DD	imagerel $LN3+152
	DD	imagerel $unwind$?_Buy_raw@?$vector@U?$tquat@M$0A@@glm@@V?$allocator@U?$tquat@M$0A@@glm@@@std@@@std@@AEAAX_K@Z
pdata	ENDS
;	COMDAT pdata
pdata	SEGMENT
$pdata$?_Buy_nonzero@?$vector@U?$tquat@M$0A@@glm@@V?$allocator@U?$tquat@M$0A@@glm@@@std@@@std@@AEAAX_K@Z DD imagerel $LN4
	DD	imagerel $LN4+58
	DD	imagerel $unwind$?_Buy_nonzero@?$vector@U?$tquat@M$0A@@glm@@V?$allocator@U?$tquat@M$0A@@glm@@@std@@@std@@AEAAX_K@Z
pdata	ENDS
;	COMDAT pdata
pdata	SEGMENT
$pdata$?_Tidy@?$vector@U?$tquat@M$0A@@glm@@V?$allocator@U?$tquat@M$0A@@glm@@@std@@@std@@AEAAXXZ DD imagerel $LN4
	DD	imagerel $LN4+210
	DD	imagerel $unwind$?_Tidy@?$vector@U?$tquat@M$0A@@glm@@V?$allocator@U?$tquat@M$0A@@glm@@@std@@@std@@AEAAXXZ
pdata	ENDS
;	COMDAT pdata
pdata	SEGMENT
$pdata$?_Xlength@?$vector@U?$tquat@M$0A@@glm@@V?$allocator@U?$tquat@M$0A@@glm@@@std@@@std@@CAXXZ DD imagerel $LN3
	DD	imagerel $LN3+24
	DD	imagerel $unwind$?_Xlength@?$vector@U?$tquat@M$0A@@glm@@V?$allocator@U?$tquat@M$0A@@glm@@@std@@@std@@CAXXZ
pdata	ENDS
;	COMDAT pdata
pdata	SEGMENT
$pdata$?_Getal@?$vector@U?$tquat@M$0A@@glm@@V?$allocator@U?$tquat@M$0A@@glm@@@std@@@std@@AEAAAEAV?$allocator@U?$tquat@M$0A@@glm@@@2@XZ DD imagerel $LN3
	DD	imagerel $LN3+29
	DD	imagerel $unwind$?_Getal@?$vector@U?$tquat@M$0A@@glm@@V?$allocator@U?$tquat@M$0A@@glm@@@std@@@std@@AEAAAEAV?$allocator@U?$tquat@M$0A@@glm@@@2@XZ
pdata	ENDS
;	COMDAT pdata
pdata	SEGMENT
$pdata$?_Getal@?$vector@U?$tquat@M$0A@@glm@@V?$allocator@U?$tquat@M$0A@@glm@@@std@@@std@@AEBAAEBV?$allocator@U?$tquat@M$0A@@glm@@@2@XZ DD imagerel $LN3
	DD	imagerel $LN3+29
	DD	imagerel $unwind$?_Getal@?$vector@U?$tquat@M$0A@@glm@@V?$allocator@U?$tquat@M$0A@@glm@@@std@@@std@@AEBAAEBV?$allocator@U?$tquat@M$0A@@glm@@@2@XZ
pdata	ENDS
;	COMDAT pdata
pdata	SEGMENT
$pdata$??0?$_Vector_val@U?$_Simple_types@U?$tquat@M$0A@@glm@@@std@@@std@@QEAA@XZ DD imagerel $LN3
	DD	imagerel $LN3+70
	DD	imagerel $unwind$??0?$_Vector_val@U?$_Simple_types@U?$tquat@M$0A@@glm@@@std@@@std@@QEAA@XZ
pdata	ENDS
;	COMDAT pdata
pdata	SEGMENT
$pdata$?_Get_first@?$_Compressed_pair@V?$allocator@U?$tquat@M$0A@@glm@@@std@@V?$_Vector_val@U?$_Simple_types@U?$tquat@M$0A@@glm@@@std@@@2@$00@std@@QEAAAEAV?$allocator@U?$tquat@M$0A@@glm@@@2@XZ DD imagerel $LN3
	DD	imagerel $LN3+13
	DD	imagerel $unwind$?_Get_first@?$_Compressed_pair@V?$allocator@U?$tquat@M$0A@@glm@@@std@@V?$_Vector_val@U?$_Simple_types@U?$tquat@M$0A@@glm@@@std@@@2@$00@std@@QEAAAEAV?$allocator@U?$tquat@M$0A@@glm@@@2@XZ
pdata	ENDS
;	COMDAT pdata
pdata	SEGMENT
$pdata$?_Get_first@?$_Compressed_pair@V?$allocator@U?$tquat@M$0A@@glm@@@std@@V?$_Vector_val@U?$_Simple_types@U?$tquat@M$0A@@glm@@@std@@@2@$00@std@@QEBAAEBV?$allocator@U?$tquat@M$0A@@glm@@@2@XZ DD imagerel $LN3
	DD	imagerel $LN3+13
	DD	imagerel $unwind$?_Get_first@?$_Compressed_pair@V?$allocator@U?$tquat@M$0A@@glm@@@std@@V?$_Vector_val@U?$_Simple_types@U?$tquat@M$0A@@glm@@@std@@@2@$00@std@@QEBAAEBV?$allocator@U?$tquat@M$0A@@glm@@@2@XZ
pdata	ENDS
;	COMDAT pdata
pdata	SEGMENT
$pdata$??0?$initializer_list@U?$tquat@M$0A@@glm@@@std@@QEAA@PEBU?$tquat@M$0A@@glm@@0@Z DD imagerel $LN3
	DD	imagerel $LN3+50
	DD	imagerel $unwind$??0?$initializer_list@U?$tquat@M$0A@@glm@@@std@@QEAA@PEBU?$tquat@M$0A@@glm@@0@Z
pdata	ENDS
;	COMDAT pdata
pdata	SEGMENT
$pdata$?begin@?$initializer_list@U?$tquat@M$0A@@glm@@@std@@QEBAPEBU?$tquat@M$0A@@glm@@XZ DD imagerel $LN3
	DD	imagerel $LN3+16
	DD	imagerel $unwind$?begin@?$initializer_list@U?$tquat@M$0A@@glm@@@std@@QEBAPEBU?$tquat@M$0A@@glm@@XZ
pdata	ENDS
;	COMDAT pdata
pdata	SEGMENT
$pdata$?end@?$initializer_list@U?$tquat@M$0A@@glm@@@std@@QEBAPEBU?$tquat@M$0A@@glm@@XZ DD imagerel $LN3
	DD	imagerel $LN3+17
	DD	imagerel $unwind$?end@?$initializer_list@U?$tquat@M$0A@@glm@@@std@@QEBAPEBU?$tquat@M$0A@@glm@@XZ
pdata	ENDS
;	COMDAT pdata
pdata	SEGMENT
$pdata$?size@?$initializer_list@U?$tquat@M$0A@@glm@@@std@@QEBA_KXZ DD imagerel $LN3
	DD	imagerel $LN3+32
	DD	imagerel $unwind$?size@?$initializer_list@U?$tquat@M$0A@@glm@@@std@@QEBA_KXZ
pdata	ENDS
pdata	SEGMENT
$pdata$?test_size@@YAHXZ DD imagerel $LN11
	DD	imagerel $LN11+236
	DD	imagerel $unwind$?test_size@@YAHXZ
$pdata$main DD	imagerel $LN3
	DD	imagerel $LN3+245
	DD	imagerel $unwind$main
pdata	ENDS
;	COMDAT pdata
pdata	SEGMENT
$pdata$?allocate@?$allocator@U_Container_proxy@std@@@std@@QEAAPEAU_Container_proxy@2@_K@Z DD imagerel $LN3
	DD	imagerel $LN3+39
	DD	imagerel $unwind$?allocate@?$allocator@U_Container_proxy@std@@@std@@QEAAPEAU_Container_proxy@2@_K@Z
pdata	ENDS
;	COMDAT pdata
pdata	SEGMENT
$pdata$??$?0U?$tquat@M$0A@@glm@@@?$allocator@U_Container_proxy@std@@@std@@QEAA@AEBV?$allocator@U?$tquat@M$0A@@glm@@@1@@Z DD imagerel $LN3
	DD	imagerel $LN3+18
	DD	imagerel $unwind$??$?0U?$tquat@M$0A@@glm@@@?$allocator@U_Container_proxy@std@@@std@@QEAA@AEBV?$allocator@U?$tquat@M$0A@@glm@@@1@@Z
pdata	ENDS
;	COMDAT pdata
pdata	SEGMENT
$pdata$??$exchange@PEAU_Container_proxy@std@@$$T@std@@YAPEAU_Container_proxy@0@AEAPEAU10@$$QEA$$T@Z DD imagerel $LN3
	DD	imagerel $LN3+53
	DD	imagerel $unwind$??$exchange@PEAU_Container_proxy@std@@$$T@std@@YAPEAU_Container_proxy@0@AEAPEAU10@$$QEA$$T@Z
pdata	ENDS
;	COMDAT pdata
pdata	SEGMENT
$pdata$??$_Delete_plain_internal@V?$allocator@U_Container_proxy@std@@@std@@@std@@YAXAEAV?$allocator@U_Container_proxy@std@@@0@QEAU_Container_proxy@0@@Z DD imagerel $LN3
	DD	imagerel $LN3+36
	DD	imagerel $unwind$??$_Delete_plain_internal@V?$allocator@U_Container_proxy@std@@@std@@@std@@YAXAEAV?$allocator@U_Container_proxy@std@@@0@QEAU_Container_proxy@0@@Z
pdata	ENDS
;	COMDAT pdata
pdata	SEGMENT
$pdata$??$?0AEBV?$allocator@U?$tquat@M$0A@@glm@@@std@@$$V@?$_Compressed_pair@V?$allocator@U?$tquat@M$0A@@glm@@@std@@V?$_Vector_val@U?$_Simple_types@U?$tquat@M$0A@@glm@@@std@@@2@$00@std@@QEAA@U_One_then_variadic_args_t@1@AEBV?$allocator@U?$tquat@M$0A@@glm@@@1@@Z DD imagerel $LN3
	DD	imagerel $LN3+53
	DD	imagerel $unwind$??$?0AEBV?$allocator@U?$tquat@M$0A@@glm@@@std@@$$V@?$_Compressed_pair@V?$allocator@U?$tquat@M$0A@@glm@@@std@@V?$_Vector_val@U?$_Simple_types@U?$tquat@M$0A@@glm@@@std@@@2@$00@std@@QEAA@U_One_then_variadic_args_t@1@AEBV?$allocator@U?$tquat@M$0A@@glm@@@1@@Z
pdata	ENDS
;	COMDAT pdata
pdata	SEGMENT
$pdata$??$_Convert_size@_K@std@@YA_K_K@Z DD imagerel $LN3
	DD	imagerel $LN3+13
	DD	imagerel $unwind$??$_Convert_size@_K@std@@YA_K_K@Z
pdata	ENDS
;	COMDAT pdata
pdata	SEGMENT
$pdata$??$_Construct_n@PEBU?$tquat@M$0A@@glm@@PEBU12@@?$vector@U?$tquat@M$0A@@glm@@V?$allocator@U?$tquat@M$0A@@glm@@@std@@@std@@AEAAX_K$$QEAPEBU?$tquat@M$0A@@glm@@1@Z DD imagerel $LN6
	DD	imagerel $LN6+328
	DD	imagerel $unwind$??$_Construct_n@PEBU?$tquat@M$0A@@glm@@PEBU12@@?$vector@U?$tquat@M$0A@@glm@@V?$allocator@U?$tquat@M$0A@@glm@@@std@@@std@@AEAAX_K$$QEAPEBU?$tquat@M$0A@@glm@@1@Z
pdata	ENDS
;	COMDAT pdata
pdata	SEGMENT
$pdata$?dtor$0@?0???$_Construct_n@PEBU?$tquat@M$0A@@glm@@PEBU12@@?$vector@U?$tquat@M$0A@@glm@@V?$allocator@U?$tquat@M$0A@@glm@@@std@@@std@@AEAAX_K$$QEAPEBU?$tquat@M$0A@@glm@@1@Z@4HA DD imagerel ?dtor$0@?0???$_Construct_n@PEBU?$tquat@M$0A@@glm@@PEBU12@@?$vector@U?$tquat@M$0A@@glm@@V?$allocator@U?$tquat@M$0A@@glm@@@std@@@std@@AEAAX_K$$QEAPEBU?$tquat@M$0A@@glm@@1@Z@4HA
	DD	imagerel ?dtor$0@?0???$_Construct_n@PEBU?$tquat@M$0A@@glm@@PEBU12@@?$vector@U?$tquat@M$0A@@glm@@V?$allocator@U?$tquat@M$0A@@glm@@@std@@@std@@AEAAX_K$$QEAPEBU?$tquat@M$0A@@glm@@1@Z@4HA+35
	DD	imagerel $unwind$?dtor$0@?0???$_Construct_n@PEBU?$tquat@M$0A@@glm@@PEBU12@@?$vector@U?$tquat@M$0A@@glm@@V?$allocator@U?$tquat@M$0A@@glm@@@std@@@std@@AEAAX_K$$QEAPEBU?$tquat@M$0A@@glm@@1@Z@4HA
pdata	ENDS
;	COMDAT pdata
pdata	SEGMENT
$pdata$?dtor$1@?0???$_Construct_n@PEBU?$tquat@M$0A@@glm@@PEBU12@@?$vector@U?$tquat@M$0A@@glm@@V?$allocator@U?$tquat@M$0A@@glm@@@std@@@std@@AEAAX_K$$QEAPEBU?$tquat@M$0A@@glm@@1@Z@4HA DD imagerel ?dtor$1@?0???$_Construct_n@PEBU?$tquat@M$0A@@glm@@PEBU12@@?$vector@U?$tquat@M$0A@@glm@@V?$allocator@U?$tquat@M$0A@@glm@@@std@@@std@@AEAAX_K$$QEAPEBU?$tquat@M$0A@@glm@@1@Z@4HA
	DD	imagerel ?dtor$1@?0???$_Construct_n@PEBU?$tquat@M$0A@@glm@@PEBU12@@?$vector@U?$tquat@M$0A@@glm@@V?$allocator@U?$tquat@M$0A@@glm@@@std@@@std@@AEAAX_K$$QEAPEBU?$tquat@M$0A@@glm@@1@Z@4HA+38
	DD	imagerel $unwind$?dtor$1@?0???$_Construct_n@PEBU?$tquat@M$0A@@glm@@PEBU12@@?$vector@U?$tquat@M$0A@@glm@@V?$allocator@U?$tquat@M$0A@@glm@@@std@@@std@@AEAAX_K$$QEAPEBU?$tquat@M$0A@@glm@@1@Z@4HA
pdata	ENDS
;	COMDAT pdata
pdata	SEGMENT
$pdata$??$_Destroy_range@V?$allocator@U?$tquat@M$0A@@glm@@@std@@@std@@YAXPEAU?$tquat@M$0A@@glm@@QEAU12@AEAV?$allocator@U?$tquat@M$0A@@glm@@@0@@Z DD imagerel $LN3
	DD	imagerel $LN3+18
	DD	imagerel $unwind$??$_Destroy_range@V?$allocator@U?$tquat@M$0A@@glm@@@std@@@std@@YAXPEAU?$tquat@M$0A@@glm@@QEAU12@AEAV?$allocator@U?$tquat@M$0A@@glm@@@0@@Z
pdata	ENDS
;	COMDAT pdata
pdata	SEGMENT
$pdata$??$_Deallocate@$0BA@$0A@@std@@YAXPEAX_K@Z DD imagerel $LN4
	DD	imagerel $LN4+63
	DD	imagerel $unwind$??$_Deallocate@$0BA@$0A@@std@@YAXPEAX_K@Z
pdata	ENDS
;	COMDAT pdata
pdata	SEGMENT
$pdata$??$cross@M$0A@@glm@@YA?AU?$tvec3@M$0A@@0@AEBU10@0@Z DD imagerel $LN3
	DD	imagerel $LN3+51
	DD	imagerel $unwind$??$cross@M$0A@@glm@@YA?AU?$tvec3@M$0A@@0@AEBU10@0@Z
pdata	ENDS
;	COMDAT pdata
pdata	SEGMENT
$pdata$?call@?$compute_dot@Utvec3@glm@@M$0A@$0A@@detail@glm@@SAMAEBU?$tvec3@M$0A@@3@0@Z DD imagerel $LN3
	DD	imagerel $LN3+108
	DD	imagerel $unwind$?call@?$compute_dot@Utvec3@glm@@M$0A@$0A@@detail@glm@@SAMAEBU?$tvec3@M$0A@@3@0@Z
pdata	ENDS
;	COMDAT pdata
pdata	SEGMENT
$pdata$?call@?$compute_abs@M$00@detail@glm@@SAMM@Z DD imagerel $LN5
	DD	imagerel $LN5+71
	DD	imagerel $unwind$?call@?$compute_abs@M$00@detail@glm@@SAMM@Z
pdata	ENDS
;	COMDAT pdata
pdata	SEGMENT
$pdata$?call@?$compute_normalize@M$0A@Utvec3@glm@@$0A@@detail@glm@@SA?AU?$tvec3@M$0A@@3@AEBU43@@Z DD imagerel $LN3
	DD	imagerel $LN3+64
	DD	imagerel $unwind$?call@?$compute_normalize@M$0A@Utvec3@glm@@$0A@@detail@glm@@SA?AU?$tvec3@M$0A@@3@AEBU43@@Z
pdata	ENDS
;	COMDAT pdata
pdata	SEGMENT
$pdata$??$epsilon@M@glm@@YAMXZ DD imagerel $LN3
	DD	imagerel $LN3+17
	DD	imagerel $unwind$??$epsilon@M@glm@@YAMXZ
pdata	ENDS
;	COMDAT pdata
pdata	SEGMENT
$pdata$??$mix@MM@glm@@YAMMMM@Z DD imagerel $LN3
	DD	imagerel $LN3+49
	DD	imagerel $unwind$??$mix@MM@glm@@YAMMMM@Z
pdata	ENDS
;	COMDAT pdata
pdata	SEGMENT
$pdata$??$?DM$0A@@glm@@YA?AU?$tquat@M$0A@@0@AEBMAEBU10@@Z DD imagerel $LN3
	DD	imagerel $LN3+51
	DD	imagerel $unwind$??$?DM$0A@@glm@@YA?AU?$tquat@M$0A@@0@AEBMAEBU10@@Z
pdata	ENDS
;	COMDAT pdata
pdata	SEGMENT
$pdata$??$?HM$0A@@glm@@YA?AU?$tquat@M$0A@@0@AEBU10@0@Z DD imagerel $LN3
	DD	imagerel $LN3+83
	DD	imagerel $unwind$??$?HM$0A@@glm@@YA?AU?$tquat@M$0A@@0@AEBU10@0@Z
pdata	ENDS
;	COMDAT pdata
pdata	SEGMENT
$pdata$??$?KM$0A@@glm@@YA?AU?$tquat@M$0A@@0@AEBU10@AEBM@Z DD imagerel $LN3
	DD	imagerel $LN3+165
	DD	imagerel $unwind$??$?KM$0A@@glm@@YA?AU?$tquat@M$0A@@0@AEBU10@AEBM@Z
pdata	ENDS
;	COMDAT pdata
pdata	SEGMENT
$pdata$??$atan@M@glm@@YAMMM@Z DD imagerel $LN3
	DD	imagerel $LN3+40
	DD	imagerel $unwind$??$atan@M@glm@@YAMMM@Z
pdata	ENDS
;	COMDAT pdata
pdata	SEGMENT
$pdata$??$clamp@M@glm@@YAMMMM@Z DD imagerel $LN3
	DD	imagerel $LN3+57
	DD	imagerel $unwind$??$clamp@M@glm@@YAMMMM@Z
pdata	ENDS
;	COMDAT pdata
pdata	SEGMENT
$pdata$??$atan@N@glm@@YANNN@Z DD imagerel $LN3
	DD	imagerel $LN3+40
	DD	imagerel $unwind$??$atan@N@glm@@YANNN@Z
pdata	ENDS
;	COMDAT pdata
pdata	SEGMENT
$pdata$??$clamp@N@glm@@YANNNN@Z DD imagerel $LN3
	DD	imagerel $LN3+57
	DD	imagerel $unwind$??$clamp@N@glm@@YANNNN@Z
pdata	ENDS
;	COMDAT pdata
pdata	SEGMENT
$pdata$??$abs@M$0A@Utvec4@glm@@@glm@@YA?AU?$tvec4@M$0A@@0@AEBU10@@Z DD imagerel $LN3
	DD	imagerel $LN3+41
	DD	imagerel $unwind$??$abs@M$0A@Utvec4@glm@@@glm@@YA?AU?$tvec4@M$0A@@0@AEBU10@@Z
pdata	ENDS
;	COMDAT pdata
pdata	SEGMENT
$pdata$??$lessThan@M$0A@Utvec4@glm@@@glm@@YA?AU?$tvec4@_N$0A@@0@AEBU?$tvec4@M$0A@@0@0@Z DD imagerel $LN9
	DD	imagerel $LN9+266
	DD	imagerel $unwind$??$lessThan@M$0A@Utvec4@glm@@@glm@@YA?AU?$tvec4@_N$0A@@0@AEBU?$tvec4@M$0A@@0@0@Z
pdata	ENDS
;	COMDAT pdata
pdata	SEGMENT
$pdata$?call@?$compute_dot@Utquat@glm@@M$0A@$0A@@detail@glm@@SAMAEBU?$tquat@M$0A@@3@0@Z DD imagerel $LN3
	DD	imagerel $LN3+237
	DD	imagerel $unwind$?call@?$compute_dot@Utquat@glm@@M$0A@$0A@@detail@glm@@SAMAEBU?$tquat@M$0A@@3@0@Z
pdata	ENDS
;	COMDAT pdata
pdata	SEGMENT
$pdata$??$?DM$0A@@glm@@YA?AU?$tvec3@M$0A@@0@AEBU10@M@Z DD imagerel $LN3
	DD	imagerel $LN3+110
	DD	imagerel $unwind$??$?DM$0A@@glm@@YA?AU?$tvec3@M$0A@@0@AEBU10@M@Z
pdata	ENDS
;	COMDAT pdata
pdata	SEGMENT
$pdata$??$?HM$0A@@glm@@YA?AU?$tvec3@M$0A@@0@AEBU10@0@Z DD imagerel $LN3
	DD	imagerel $LN3+120
	DD	imagerel $unwind$??$?HM$0A@@glm@@YA?AU?$tvec3@M$0A@@0@AEBU10@0@Z
pdata	ENDS
;	COMDAT pdata
pdata	SEGMENT
$pdata$??$conjugate@M$0A@@glm@@YA?AU?$tquat@M$0A@@0@AEBU10@@Z DD imagerel $LN3
	DD	imagerel $LN3+136
	DD	imagerel $unwind$??$conjugate@M$0A@@glm@@YA?AU?$tquat@M$0A@@0@AEBU10@@Z
pdata	ENDS
;	COMDAT pdata
pdata	SEGMENT
$pdata$??$?GM$0A@@glm@@YA?AU?$tvec3@M$0A@@0@AEBU10@0@Z DD imagerel $LN3
	DD	imagerel $LN3+120
	DD	imagerel $unwind$??$?GM$0A@@glm@@YA?AU?$tvec3@M$0A@@0@AEBU10@0@Z
pdata	ENDS
;	COMDAT pdata
pdata	SEGMENT
$pdata$??$abs@M$0A@Utvec3@glm@@@glm@@YA?AU?$tvec3@M$0A@@0@AEBU10@@Z DD imagerel $LN3
	DD	imagerel $LN3+41
	DD	imagerel $unwind$??$abs@M$0A@Utvec3@glm@@@glm@@YA?AU?$tvec3@M$0A@@0@AEBU10@@Z
pdata	ENDS
;	COMDAT pdata
pdata	SEGMENT
$pdata$??$lessThan@M$0A@Utvec3@glm@@@glm@@YA?AU?$tvec3@_N$0A@@0@AEBU?$tvec3@M$0A@@0@0@Z DD imagerel $LN9
	DD	imagerel $LN9+280
	DD	imagerel $unwind$??$lessThan@M$0A@Utvec3@glm@@@glm@@YA?AU?$tvec3@_N$0A@@0@AEBU?$tvec3@M$0A@@0@0@Z
pdata	ENDS
;	COMDAT pdata
pdata	SEGMENT
$pdata$??$_Deallocate_plain@V?$allocator@U_Container_proxy@std@@@std@@@std@@YAXAEAV?$allocator@U_Container_proxy@std@@@0@QEAU_Container_proxy@0@@Z DD imagerel $LN3
	DD	imagerel $LN3+43
	DD	imagerel $unwind$??$_Deallocate_plain@V?$allocator@U_Container_proxy@std@@@std@@@std@@YAXAEAV?$allocator@U_Container_proxy@std@@@0@QEAU_Container_proxy@0@@Z
pdata	ENDS
;	COMDAT pdata
pdata	SEGMENT
$pdata$??$forward@AEBV?$allocator@U?$tquat@M$0A@@glm@@@std@@@std@@YAAEBV?$allocator@U?$tquat@M$0A@@glm@@@0@AEBV10@@Z DD imagerel $LN3
	DD	imagerel $LN3+13
	DD	imagerel $unwind$??$forward@AEBV?$allocator@U?$tquat@M$0A@@glm@@@std@@@std@@YAAEBV?$allocator@U?$tquat@M$0A@@glm@@@0@AEBV10@@Z
pdata	ENDS
;	COMDAT pdata
pdata	SEGMENT
$pdata$??0?$_Container_proxy_ptr12@V?$allocator@U_Container_proxy@std@@@std@@@std@@QEAA@AEAV?$allocator@U_Container_proxy@std@@@1@AEAU_Container_base12@1@@Z DD imagerel $LN3
	DD	imagerel $LN3+135
	DD	imagerel $unwind$??0?$_Container_proxy_ptr12@V?$allocator@U_Container_proxy@std@@@std@@@std@@QEAA@AEAV?$allocator@U_Container_proxy@std@@@1@AEAU_Container_base12@1@@Z
pdata	ENDS
;	COMDAT pdata
pdata	SEGMENT
$pdata$??1?$_Container_proxy_ptr12@V?$allocator@U_Container_proxy@std@@@std@@@std@@QEAA@XZ DD imagerel $LN4
	DD	imagerel $LN4+49
	DD	imagerel $unwind$??1?$_Container_proxy_ptr12@V?$allocator@U_Container_proxy@std@@@std@@@std@@QEAA@XZ
pdata	ENDS
;	COMDAT pdata
pdata	SEGMENT
$pdata$??1?$_Tidy_guard@V?$vector@U?$tquat@M$0A@@glm@@V?$allocator@U?$tquat@M$0A@@glm@@@std@@@std@@@std@@QEAA@XZ DD imagerel $LN4
	DD	imagerel $LN4+40
	DD	imagerel $unwind$??1?$_Tidy_guard@V?$vector@U?$tquat@M$0A@@glm@@V?$allocator@U?$tquat@M$0A@@glm@@@std@@@std@@@std@@QEAA@XZ
pdata	ENDS
;	COMDAT pdata
pdata	SEGMENT
$pdata$??$forward@PEBU?$tquat@M$0A@@glm@@@std@@YA$$QEAPEBU?$tquat@M$0A@@glm@@AEAPEBU12@@Z DD imagerel $LN3
	DD	imagerel $LN3+13
	DD	imagerel $unwind$??$forward@PEBU?$tquat@M$0A@@glm@@@std@@YA$$QEAPEBU?$tquat@M$0A@@glm@@AEAPEBU12@@Z
pdata	ENDS
;	COMDAT pdata
pdata	SEGMENT
$pdata$??$_Uninitialized_copy@PEBU?$tquat@M$0A@@glm@@V?$allocator@U?$tquat@M$0A@@glm@@@std@@@std@@YAPEAU?$tquat@M$0A@@glm@@QEBU12@0PEAU12@AEAV?$allocator@U?$tquat@M$0A@@glm@@@0@@Z DD imagerel $LN7
	DD	imagerel $LN7+292
	DD	imagerel $unwind$??$_Uninitialized_copy@PEBU?$tquat@M$0A@@glm@@V?$allocator@U?$tquat@M$0A@@glm@@@std@@@std@@YAPEAU?$tquat@M$0A@@glm@@QEBU12@0PEAU12@AEAV?$allocator@U?$tquat@M$0A@@glm@@@0@@Z
pdata	ENDS
;	COMDAT pdata
pdata	SEGMENT
$pdata$?dtor$0@?0???$_Uninitialized_copy@PEBU?$tquat@M$0A@@glm@@V?$allocator@U?$tquat@M$0A@@glm@@@std@@@std@@YAPEAU?$tquat@M$0A@@glm@@QEBU12@0PEAU12@AEAV?$allocator@U?$tquat@M$0A@@glm@@@0@@Z@4HA DD imagerel ?dtor$0@?0???$_Uninitialized_copy@PEBU?$tquat@M$0A@@glm@@V?$allocator@U?$tquat@M$0A@@glm@@@std@@@std@@YAPEAU?$tquat@M$0A@@glm@@QEBU12@0PEAU12@AEAV?$allocator@U?$tquat@M$0A@@glm@@@0@@Z@4HA
	DD	imagerel ?dtor$0@?0???$_Uninitialized_copy@PEBU?$tquat@M$0A@@glm@@V?$allocator@U?$tquat@M$0A@@glm@@@std@@@std@@YAPEAU?$tquat@M$0A@@glm@@QEBU12@0PEAU12@AEAV?$allocator@U?$tquat@M$0A@@glm@@@0@@Z@4HA+35
	DD	imagerel $unwind$?dtor$0@?0???$_Uninitialized_copy@PEBU?$tquat@M$0A@@glm@@V?$allocator@U?$tquat@M$0A@@glm@@@std@@@std@@YAPEAU?$tquat@M$0A@@glm@@QEBU12@0PEAU12@AEAV?$allocator@U?$tquat@M$0A@@glm@@@0@@Z@4HA
pdata	ENDS
;	COMDAT pdata
pdata	SEGMENT
$pdata$??$_Unfancy@U_Container_proxy@std@@@std@@YAPEAU_Container_proxy@0@PEAU10@@Z DD imagerel $LN3
	DD	imagerel $LN3+13
	DD	imagerel $unwind$??$_Unfancy@U_Container_proxy@std@@@std@@YAPEAU_Container_proxy@0@PEAU10@@Z
pdata	ENDS
;	COMDAT pdata
pdata	SEGMENT
$pdata$??$addressof@U_Container_base12@std@@@std@@YAPEAU_Container_base12@0@AEAU10@@Z DD imagerel $LN3
	DD	imagerel $LN3+13
	DD	imagerel $unwind$??$addressof@U_Container_base12@std@@@std@@YAPEAU_Container_base12@0@AEAU10@@Z
pdata	ENDS
;	COMDAT pdata
pdata	SEGMENT
$pdata$??$_Construct_in_place@U_Container_proxy@std@@PEAU_Container_base12@2@@std@@YAXAEAU_Container_proxy@0@$$QEAPEAU_Container_base12@0@@Z DD imagerel $LN3
	DD	imagerel $LN3+80
	DD	imagerel $unwind$??$_Construct_in_place@U_Container_proxy@std@@PEAU_Container_base12@2@@std@@YAXAEAU_Container_proxy@0@$$QEAPEAU_Container_base12@0@@Z
pdata	ENDS
;	COMDAT pdata
pdata	SEGMENT
$pdata$??$dot@M$0A@Utvec3@glm@@@glm@@YAMAEBU?$tvec3@M$0A@@0@0@Z DD imagerel $LN3
	DD	imagerel $LN3+36
	DD	imagerel $unwind$??$dot@M$0A@Utvec3@glm@@@glm@@YAMAEBU?$tvec3@M$0A@@0@0@Z
pdata	ENDS
;	COMDAT pdata
pdata	SEGMENT
$pdata$??$inversesqrt@M@glm@@YAMM@Z DD imagerel $LN3
	DD	imagerel $LN3+43
	DD	imagerel $unwind$??$inversesqrt@M@glm@@YAMM@Z
pdata	ENDS
;	COMDAT pdata
pdata	SEGMENT
$pdata$??$?DM$0A@@glm@@YA?AU?$tvec3@M$0A@@0@AEBU10@0@Z DD imagerel $LN3
	DD	imagerel $LN3+120
	DD	imagerel $unwind$??$?DM$0A@@glm@@YA?AU?$tvec3@M$0A@@0@AEBU10@0@Z
pdata	ENDS
;	COMDAT pdata
pdata	SEGMENT
$pdata$??$_Get_size_of_n@$0BA@@std@@YA_K_K@Z DD imagerel $LN4
	DD	imagerel $LN4+64
	DD	imagerel $unwind$??$_Get_size_of_n@$0BA@@std@@YA_K_K@Z
pdata	ENDS
;	COMDAT pdata
pdata	SEGMENT
$pdata$??$_Allocate@$0BA@U_Default_allocate_traits@std@@$0A@@std@@YAPEAX_K@Z DD imagerel $LN5
	DD	imagerel $LN5+61
	DD	imagerel $unwind$??$_Allocate@$0BA@U_Default_allocate_traits@std@@$0A@@std@@YAPEAX_K@Z
pdata	ENDS
;	COMDAT pdata
pdata	SEGMENT
$pdata$??$min@_K@std@@YAAEB_KAEB_K0@Z DD imagerel $LN5
	DD	imagerel $LN5+74
	DD	imagerel $unwind$??$min@_K@std@@YAAEB_KAEB_K0@Z
pdata	ENDS
;	COMDAT pdata
pdata	SEGMENT
$pdata$?call@?$compute_cross@M$0A@$0A@@detail@glm@@SA?AU?$tvec3@M$0A@@3@AEBU43@0@Z DD imagerel $LN3
	DD	imagerel $LN3+190
	DD	imagerel $unwind$?call@?$compute_cross@M$0A@$0A@@detail@glm@@SA?AU?$tvec3@M$0A@@3@AEBU43@0@Z
pdata	ENDS
;	COMDAT pdata
pdata	SEGMENT
$pdata$?call@?$compute_mix@MM@detail@glm@@SAMAEBM00@Z DD imagerel $LN3
	DD	imagerel $LN3+76
	DD	imagerel $unwind$?call@?$compute_mix@MM@detail@glm@@SAMAEBM00@Z
pdata	ENDS
;	COMDAT pdata
pdata	SEGMENT
$pdata$??$?DM$0A@@glm@@YA?AU?$tquat@M$0A@@0@AEBU10@AEBM@Z DD imagerel $LN3
	DD	imagerel $LN3+165
	DD	imagerel $unwind$??$?DM$0A@@glm@@YA?AU?$tquat@M$0A@@0@AEBU10@AEBM@Z
pdata	ENDS
;	COMDAT pdata
pdata	SEGMENT
$pdata$??$?YM@?$tquat@M$0A@@glm@@QEAAAEAU01@AEBU01@@Z DD imagerel $LN3
	DD	imagerel $LN3+83
	DD	imagerel $unwind$??$?YM@?$tquat@M$0A@@glm@@QEAAAEAU01@AEBU01@@Z
pdata	ENDS
;	COMDAT pdata
pdata	SEGMENT
$pdata$??$max@M@glm@@YAMMM@Z DD imagerel $LN5
	DD	imagerel $LN5+68
	DD	imagerel $unwind$??$max@M@glm@@YAMMM@Z
pdata	ENDS
;	COMDAT pdata
pdata	SEGMENT
$pdata$??$min@M@glm@@YAMMM@Z DD imagerel $LN5
	DD	imagerel $LN5+68
	DD	imagerel $unwind$??$min@M@glm@@YAMMM@Z
pdata	ENDS
;	COMDAT pdata
pdata	SEGMENT
$pdata$??$max@N@glm@@YANNN@Z DD imagerel $LN5
	DD	imagerel $LN5+69
	DD	imagerel $unwind$??$max@N@glm@@YANNN@Z
pdata	ENDS
;	COMDAT pdata
pdata	SEGMENT
$pdata$??$min@N@glm@@YANNN@Z DD imagerel $LN5
	DD	imagerel $LN5+69
	DD	imagerel $unwind$??$min@N@glm@@YANNN@Z
pdata	ENDS
;	COMDAT pdata
pdata	SEGMENT
$pdata$?call@?$compute_abs_vector@M$0A@Utvec4@glm@@$0A@@detail@glm@@SA?AU?$tvec4@M$0A@@3@AEBU43@@Z DD imagerel $LN3
	DD	imagerel $LN3+48
	DD	imagerel $unwind$?call@?$compute_abs_vector@M$0A@Utvec4@glm@@$0A@@detail@glm@@SA?AU?$tvec4@M$0A@@3@AEBU43@@Z
pdata	ENDS
;	COMDAT pdata
pdata	SEGMENT
$pdata$?call@?$compute_abs_vector@M$0A@Utvec3@glm@@$0A@@detail@glm@@SA?AU?$tvec3@M$0A@@3@AEBU43@@Z DD imagerel $LN3
	DD	imagerel $LN3+48
	DD	imagerel $unwind$?call@?$compute_abs_vector@M$0A@Utvec3@glm@@$0A@@detail@glm@@SA?AU?$tvec3@M$0A@@3@AEBU43@@Z
pdata	ENDS
;	COMDAT pdata
pdata	SEGMENT
$pdata$?deallocate@?$_Default_allocator_traits@V?$allocator@U_Container_proxy@std@@@std@@@std@@SAXAEAV?$allocator@U_Container_proxy@std@@@2@QEAU_Container_proxy@2@_K@Z DD imagerel $LN3
	DD	imagerel $LN3+45
	DD	imagerel $unwind$?deallocate@?$_Default_allocator_traits@V?$allocator@U_Container_proxy@std@@@std@@@std@@SAXAEAV?$allocator@U_Container_proxy@std@@@2@QEAU_Container_proxy@2@_K@Z
pdata	ENDS
;	COMDAT pdata
pdata	SEGMENT
$pdata$??$_Get_unwrapped@AEBQEBU?$tquat@M$0A@@glm@@@std@@YA?A_TAEBQEBU?$tquat@M$0A@@glm@@@Z DD imagerel $LN3
	DD	imagerel $LN3+16
	DD	imagerel $unwind$??$_Get_unwrapped@AEBQEBU?$tquat@M$0A@@glm@@@std@@YA?A_TAEBQEBU?$tquat@M$0A@@glm@@@Z
pdata	ENDS
;	COMDAT pdata
pdata	SEGMENT
$pdata$??$_Unfancy@U?$tquat@M$0A@@glm@@@std@@YAPEAU?$tquat@M$0A@@glm@@PEAU12@@Z DD imagerel $LN3
	DD	imagerel $LN3+13
	DD	imagerel $unwind$??$_Unfancy@U?$tquat@M$0A@@glm@@@std@@YAPEAU?$tquat@M$0A@@glm@@PEAU12@@Z
pdata	ENDS
;	COMDAT pdata
pdata	SEGMENT
$pdata$??$_Copy_memmove@PEBU?$tquat@M$0A@@glm@@PEAU12@@std@@YAPEAU?$tquat@M$0A@@glm@@PEBU12@0PEAU12@@Z DD imagerel $LN3
	DD	imagerel $LN3+161
	DD	imagerel $unwind$??$_Copy_memmove@PEBU?$tquat@M$0A@@glm@@PEAU12@@std@@YAPEAU?$tquat@M$0A@@glm@@PEBU12@0PEAU12@@Z
pdata	ENDS
;	COMDAT pdata
pdata	SEGMENT
$pdata$??0?$_Uninitialized_backout_al@V?$allocator@U?$tquat@M$0A@@glm@@@std@@@std@@QEAA@PEAU?$tquat@M$0A@@glm@@AEAV?$allocator@U?$tquat@M$0A@@glm@@@1@@Z DD imagerel $LN3
	DD	imagerel $LN3+64
	DD	imagerel $unwind$??0?$_Uninitialized_backout_al@V?$allocator@U?$tquat@M$0A@@glm@@@std@@@std@@QEAA@PEAU?$tquat@M$0A@@glm@@AEAV?$allocator@U?$tquat@M$0A@@glm@@@1@@Z
pdata	ENDS
;	COMDAT pdata
pdata	SEGMENT
$pdata$??1?$_Uninitialized_backout_al@V?$allocator@U?$tquat@M$0A@@glm@@@std@@@std@@QEAA@XZ DD imagerel $LN3
	DD	imagerel $LN3+47
	DD	imagerel $unwind$??1?$_Uninitialized_backout_al@V?$allocator@U?$tquat@M$0A@@glm@@@std@@@std@@QEAA@XZ
pdata	ENDS
;	COMDAT pdata
pdata	SEGMENT
$pdata$?_Release@?$_Uninitialized_backout_al@V?$allocator@U?$tquat@M$0A@@glm@@@std@@@std@@QEAAPEAU?$tquat@M$0A@@glm@@XZ DD imagerel $LN3
	DD	imagerel $LN3+34
	DD	imagerel $unwind$?_Release@?$_Uninitialized_backout_al@V?$allocator@U?$tquat@M$0A@@glm@@@std@@@std@@QEAAPEAU?$tquat@M$0A@@glm@@XZ
pdata	ENDS
;	COMDAT pdata
pdata	SEGMENT
$pdata$??$_Emplace_back@AEBU?$tquat@M$0A@@glm@@@?$_Uninitialized_backout_al@V?$allocator@U?$tquat@M$0A@@glm@@@std@@@std@@QEAAXAEBU?$tquat@M$0A@@glm@@@Z DD imagerel $LN3
	DD	imagerel $LN3+97
	DD	imagerel $unwind$??$_Emplace_back@AEBU?$tquat@M$0A@@glm@@@?$_Uninitialized_backout_al@V?$allocator@U?$tquat@M$0A@@glm@@@std@@@std@@QEAAXAEBU?$tquat@M$0A@@glm@@@Z
pdata	ENDS
;	COMDAT pdata
pdata	SEGMENT
$pdata$??$addressof@U_Container_proxy@std@@@std@@YAPEAU_Container_proxy@0@AEAU10@@Z DD imagerel $LN3
	DD	imagerel $LN3+13
	DD	imagerel $unwind$??$addressof@U_Container_proxy@std@@@std@@YAPEAU_Container_proxy@0@AEAU10@@Z
pdata	ENDS
;	COMDAT pdata
pdata	SEGMENT
$pdata$??$_Voidify_iter@PEAU_Container_proxy@std@@@std@@YAPEAXPEAU_Container_proxy@0@@Z DD imagerel $LN3
	DD	imagerel $LN3+13
	DD	imagerel $unwind$??$_Voidify_iter@PEAU_Container_proxy@std@@@std@@YAPEAXPEAU_Container_proxy@0@@Z
pdata	ENDS
;	COMDAT pdata
pdata	SEGMENT
$pdata$??$forward@PEAU_Container_base12@std@@@std@@YA$$QEAPEAU_Container_base12@0@AEAPEAU10@@Z DD imagerel $LN3
	DD	imagerel $LN3+13
	DD	imagerel $unwind$??$forward@PEAU_Container_base12@std@@@std@@YA$$QEAPEAU_Container_base12@0@AEAPEAU10@@Z
pdata	ENDS
;	COMDAT pdata
pdata	SEGMENT
$pdata$??$_Allocate_manually_vector_aligned@U_Default_allocate_traits@std@@@std@@YAPEAX_K@Z DD imagerel $LN13
	DD	imagerel $LN13+259
	DD	imagerel $unwind$??$_Allocate_manually_vector_aligned@U_Default_allocate_traits@std@@@std@@YAPEAX_K@Z
pdata	ENDS
;	COMDAT pdata
pdata	SEGMENT
$pdata$?call@?$functor1@MM$0A@Utvec3@glm@@@detail@glm@@SA?AU?$tvec3@M$0A@@3@P6AMM@ZAEBU43@@Z DD imagerel $LN3
	DD	imagerel $LN3+115
	DD	imagerel $unwind$?call@?$functor1@MM$0A@Utvec3@glm@@@detail@glm@@SA?AU?$tvec3@M$0A@@3@P6AMM@ZAEBU43@@Z
pdata	ENDS
;	COMDAT pdata
pdata	SEGMENT
$pdata$?call@?$functor1@MM$0A@Utvec4@glm@@@detail@glm@@SA?AU?$tvec4@M$0A@@3@P6AMM@ZAEBU43@@Z DD imagerel $LN3
	DD	imagerel $LN3+147
	DD	imagerel $unwind$?call@?$functor1@MM$0A@Utvec4@glm@@@detail@glm@@SA?AU?$tvec4@M$0A@@3@P6AMM@ZAEBU43@@Z
pdata	ENDS
;	COMDAT pdata
pdata	SEGMENT
$pdata$?call@?$compute_quat_add@M$0A@$0A@@detail@glm@@SA?AU?$tquat@M$0A@@3@AEBU43@0@Z DD imagerel $LN3
	DD	imagerel $LN3+168
	DD	imagerel $unwind$?call@?$compute_quat_add@M$0A@$0A@@detail@glm@@SA?AU?$tquat@M$0A@@3@AEBU43@0@Z
pdata	ENDS
;	COMDAT pdata
pdata	SEGMENT
$pdata$??$_To_address@PEBU?$tquat@M$0A@@glm@@@std@@YA?A_PAEBQEBU?$tquat@M$0A@@glm@@@Z DD imagerel $LN3
	DD	imagerel $LN3+16
	DD	imagerel $unwind$??$_To_address@PEBU?$tquat@M$0A@@glm@@@std@@YA?A_PAEBQEBU?$tquat@M$0A@@glm@@@Z
pdata	ENDS
;	COMDAT pdata
pdata	SEGMENT
$pdata$??$_To_address@PEAU?$tquat@M$0A@@glm@@@std@@YA?A_PAEBQEAU?$tquat@M$0A@@glm@@@Z DD imagerel $LN3
	DD	imagerel $LN3+16
	DD	imagerel $unwind$??$_To_address@PEAU?$tquat@M$0A@@glm@@@std@@YA?A_PAEBQEAU?$tquat@M$0A@@glm@@@Z
pdata	ENDS
;	COMDAT pdata
pdata	SEGMENT
$pdata$??$forward@AEBU?$tquat@M$0A@@glm@@@std@@YAAEBU?$tquat@M$0A@@glm@@AEBU12@@Z DD imagerel $LN3
	DD	imagerel $LN3+13
	DD	imagerel $unwind$??$forward@AEBU?$tquat@M$0A@@glm@@@std@@YAAEBU?$tquat@M$0A@@glm@@AEBU12@@Z
pdata	ENDS
;	COMDAT pdata
pdata	SEGMENT
$pdata$??$construct@U?$tquat@M$0A@@glm@@AEBU12@@?$_Default_allocator_traits@V?$allocator@U?$tquat@M$0A@@glm@@@std@@@std@@SAXAEAV?$allocator@U?$tquat@M$0A@@glm@@@1@QEAU?$tquat@M$0A@@glm@@AEBU34@@Z DD imagerel $LN3
	DD	imagerel $LN3+81
	DD	imagerel $unwind$??$construct@U?$tquat@M$0A@@glm@@AEBU12@@?$_Default_allocator_traits@V?$allocator@U?$tquat@M$0A@@glm@@@std@@@std@@SAXAEAV?$allocator@U?$tquat@M$0A@@glm@@@1@QEAU?$tquat@M$0A@@glm@@AEBU34@@Z
pdata	ENDS
;	COMDAT pdata
pdata	SEGMENT
$pdata$??$_Voidify_iter@PEAU?$tquat@M$0A@@glm@@@std@@YAPEAXPEAU?$tquat@M$0A@@glm@@@Z DD imagerel $LN3
	DD	imagerel $LN3+13
	DD	imagerel $unwind$??$_Voidify_iter@PEAU?$tquat@M$0A@@glm@@@std@@YAPEAXPEAU?$tquat@M$0A@@glm@@@Z
pdata	ENDS
;	COMDAT __xmm@80000000800000008000000080000000
CONST	SEGMENT
__xmm@80000000800000008000000080000000 DB 00H, 00H, 00H, 080H, 00H, 00H, 00H
	DB	080H, 00H, 00H, 00H, 080H, 00H, 00H, 00H, 080H
CONST	ENDS
;	COMDAT __real@c000000000000000
CONST	SEGMENT
__real@c000000000000000 DQ 0c000000000000000r	; -2
CONST	ENDS
;	COMDAT __real@c0000000
CONST	SEGMENT
__real@c0000000 DD 0c0000000r			; -2
CONST	ENDS
;	COMDAT __real@bff0000000000000
CONST	SEGMENT
__real@bff0000000000000 DQ 0bff0000000000000r	; -1
CONST	ENDS
;	COMDAT __real@bf800000
CONST	SEGMENT
__real@bf800000 DD 0bf800000r			; -1
CONST	ENDS
;	COMDAT __real@40490fdb
CONST	SEGMENT
__real@40490fdb DD 040490fdbr			; 3.14159
CONST	ENDS
;	COMDAT __real@40400000
CONST	SEGMENT
__real@40400000 DD 040400000r			; 3
CONST	ENDS
;	COMDAT __real@4000000000000000
CONST	SEGMENT
__real@4000000000000000 DQ 04000000000000000r	; 2
CONST	ENDS
;	COMDAT __real@40000000
CONST	SEGMENT
__real@40000000 DD 040000000r			; 2
CONST	ENDS
;	COMDAT __real@3ff0000000000000
CONST	SEGMENT
__real@3ff0000000000000 DQ 03ff0000000000000r	; 1
CONST	ENDS
;	COMDAT __real@3f800000
CONST	SEGMENT
__real@3f800000 DD 03f800000r			; 1
CONST	ENDS
;	COMDAT __real@3f000000
CONST	SEGMENT
__real@3f000000 DD 03f000000r			; 0.5
CONST	ENDS
;	COMDAT __real@3e800000
CONST	SEGMENT
__real@3e800000 DD 03e800000r			; 0.25
CONST	ENDS
;	COMDAT __real@3dcccccd
CONST	SEGMENT
__real@3dcccccd DD 03dcccccdr			; 0.1
CONST	ENDS
;	COMDAT __real@3c23d70a
CONST	SEGMENT
__real@3c23d70a DD 03c23d70ar			; 0.01
CONST	ENDS
;	COMDAT __real@38d1b717
CONST	SEGMENT
__real@38d1b717 DD 038d1b717r			; 0.0001
CONST	ENDS
;	COMDAT __real@358637bd
CONST	SEGMENT
__real@358637bd DD 0358637bdr			; 1e-06
CONST	ENDS
;	COMDAT __real@34000000
CONST	SEGMENT
__real@34000000 DD 034000000r			; 1.19209e-07
CONST	ENDS
;	COMDAT __real@00000000
CONST	SEGMENT
__real@00000000 DD 000000000r			; 0
CONST	ENDS
;	COMDAT rtc$TMZ
rtc$TMZ	SEGMENT
_RTC_Shutdown.rtc$TMZ DQ FLAT:_RTC_Shutdown
rtc$TMZ	ENDS
;	COMDAT rtc$IMZ
rtc$IMZ	SEGMENT
_RTC_InitBase.rtc$IMZ DQ FLAT:_RTC_InitBase
rtc$IMZ	ENDS
;	COMDAT ??_R1A@?0A@EA@bad_array_new_length@std@@8
rdata$r	SEGMENT
??_R1A@?0A@EA@bad_array_new_length@std@@8 DD imagerel ??_R0?AVbad_array_new_length@std@@@8 ; std::bad_array_new_length::`RTTI Base Class Descriptor at (0,-1,0,64)'
	DD	02H
	DD	00H
	DD	0ffffffffH
	DD	00H
	DD	040H
	DD	imagerel ??_R3bad_array_new_length@std@@8
rdata$r	ENDS
;	COMDAT ??_R2bad_array_new_length@std@@8
rdata$r	SEGMENT
??_R2bad_array_new_length@std@@8 DD imagerel ??_R1A@?0A@EA@bad_array_new_length@std@@8 ; std::bad_array_new_length::`RTTI Base Class Array'
	DD	imagerel ??_R1A@?0A@EA@bad_alloc@std@@8
	DD	imagerel ??_R1A@?0A@EA@exception@std@@8
	ORG $+3
rdata$r	ENDS
;	COMDAT ??_R3bad_array_new_length@std@@8
rdata$r	SEGMENT
??_R3bad_array_new_length@std@@8 DD 00H			; std::bad_array_new_length::`RTTI Class Hierarchy Descriptor'
	DD	00H
	DD	03H
	DD	imagerel ??_R2bad_array_new_length@std@@8
rdata$r	ENDS
;	COMDAT ??_R4bad_array_new_length@std@@6B@
rdata$r	SEGMENT
??_R4bad_array_new_length@std@@6B@ DD 01H		; std::bad_array_new_length::`RTTI Complete Object Locator'
	DD	00H
	DD	00H
	DD	imagerel ??_R0?AVbad_array_new_length@std@@@8
	DD	imagerel ??_R3bad_array_new_length@std@@8
	DD	imagerel ??_R4bad_array_new_length@std@@6B@
rdata$r	ENDS
;	COMDAT ??_R1A@?0A@EA@bad_alloc@std@@8
rdata$r	SEGMENT
??_R1A@?0A@EA@bad_alloc@std@@8 DD imagerel ??_R0?AVbad_alloc@std@@@8 ; std::bad_alloc::`RTTI Base Class Descriptor at (0,-1,0,64)'
	DD	01H
	DD	00H
	DD	0ffffffffH
	DD	00H
	DD	040H
	DD	imagerel ??_R3bad_alloc@std@@8
rdata$r	ENDS
;	COMDAT ??_R2bad_alloc@std@@8
rdata$r	SEGMENT
??_R2bad_alloc@std@@8 DD imagerel ??_R1A@?0A@EA@bad_alloc@std@@8 ; std::bad_alloc::`RTTI Base Class Array'
	DD	imagerel ??_R1A@?0A@EA@exception@std@@8
	ORG $+3
rdata$r	ENDS
;	COMDAT ??_R3bad_alloc@std@@8
rdata$r	SEGMENT
??_R3bad_alloc@std@@8 DD 00H				; std::bad_alloc::`RTTI Class Hierarchy Descriptor'
	DD	00H
	DD	02H
	DD	imagerel ??_R2bad_alloc@std@@8
rdata$r	ENDS
;	COMDAT ??_R4bad_alloc@std@@6B@
rdata$r	SEGMENT
??_R4bad_alloc@std@@6B@ DD 01H				; std::bad_alloc::`RTTI Complete Object Locator'
	DD	00H
	DD	00H
	DD	imagerel ??_R0?AVbad_alloc@std@@@8
	DD	imagerel ??_R3bad_alloc@std@@8
	DD	imagerel ??_R4bad_alloc@std@@6B@
rdata$r	ENDS
;	COMDAT ??_R1A@?0A@EA@exception@std@@8
rdata$r	SEGMENT
??_R1A@?0A@EA@exception@std@@8 DD imagerel ??_R0?AVexception@std@@@8 ; std::exception::`RTTI Base Class Descriptor at (0,-1,0,64)'
	DD	00H
	DD	00H
	DD	0ffffffffH
	DD	00H
	DD	040H
	DD	imagerel ??_R3exception@std@@8
rdata$r	ENDS
;	COMDAT ??_R2exception@std@@8
rdata$r	SEGMENT
??_R2exception@std@@8 DD imagerel ??_R1A@?0A@EA@exception@std@@8 ; std::exception::`RTTI Base Class Array'
	ORG $+3
rdata$r	ENDS
;	COMDAT ??_R3exception@std@@8
rdata$r	SEGMENT
??_R3exception@std@@8 DD 00H				; std::exception::`RTTI Class Hierarchy Descriptor'
	DD	00H
	DD	01H
	DD	imagerel ??_R2exception@std@@8
rdata$r	ENDS
;	COMDAT ??_R4exception@std@@6B@
rdata$r	SEGMENT
??_R4exception@std@@6B@ DD 01H				; std::exception::`RTTI Complete Object Locator'
	DD	00H
	DD	00H
	DD	imagerel ??_R0?AVexception@std@@@8
	DD	imagerel ??_R3exception@std@@8
	DD	imagerel ??_R4exception@std@@6B@
rdata$r	ENDS
;	COMDAT ??_C@_1DC@HHLCGOLC@?$AAx?$AA?4?$AAl?$AAe?$AAn?$AAg?$AAt?$AAh?$AA?$CI?$AA?$CJ?$AA?5?$AA?$DN?$AA?$DN?$AA?5?$AAy@
CONST	SEGMENT
??_C@_1DC@HHLCGOLC@?$AAx?$AA?4?$AAl?$AAe?$AAn?$AAg?$AAt?$AAh?$AA?$CI?$AA?$CJ?$AA?5?$AA?$DN?$AA?$DN?$AA?5?$AAy@ DB 'x'
	DB	00H, '.', 00H, 'l', 00H, 'e', 00H, 'n', 00H, 'g', 00H, 't', 00H
	DB	'h', 00H, '(', 00H, ')', 00H, ' ', 00H, '=', 00H, '=', 00H, ' '
	DB	00H, 'y', 00H, '.', 00H, 'l', 00H, 'e', 00H, 'n', 00H, 'g', 00H
	DB	't', 00H, 'h', 00H, '(', 00H, ')', 00H, 00H, 00H ; `string'
CONST	ENDS
;	COMDAT ??_C@_1NA@OPABFNEN@?$AAC?$AA?3?$AA?2?$AAU?$AAs?$AAe?$AAr?$AAs?$AA?2?$AAk?$AAs?$AAa?$AAr?$AAt?$AA?2@
CONST	SEGMENT
??_C@_1NA@OPABFNEN@?$AAC?$AA?3?$AA?2?$AAU?$AAs?$AAe?$AAr?$AAs?$AA?2?$AAk?$AAs?$AAa?$AAr?$AAt?$AA?2@ DB 'C'
	DB	00H, ':', 00H, '\', 00H, 'U', 00H, 's', 00H, 'e', 00H, 'r', 00H
	DB	's', 00H, '\', 00H, 'k', 00H, 's', 00H, 'a', 00H, 'r', 00H, 't'
	DB	00H, '\', 00H, 'O', 00H, 'n', 00H, 'e', 00H, 'D', 00H, 'r', 00H
	DB	'i', 00H, 'v', 00H, 'e', 00H, '\', 00H, 'D', 00H, 'e', 00H, 's'
	DB	00H, 'k', 00H, 't', 00H, 'o', 00H, 'p', 00H, '\', 00H, 'F', 00H
	DB	'l', 00H, 'a', 00H, 'p', 00H, 'p', 00H, 'y', 00H, 'B', 00H, 'i'
	DB	00H, 'r', 00H, 'd', 00H, '\', 00H, 'l', 00H, 'i', 00H, 'b', 00H
	DB	'r', 00H, 'a', 00H, 'r', 00H, 'i', 00H, 'e', 00H, 's', 00H, '\'
	DB	00H, 'e', 00H, 'x', 00H, 't', 00H, 'e', 00H, 'r', 00H, 'n', 00H
	DB	'a', 00H, 'l', 00H, '\', 00H, 'g', 00H, 'l', 00H, 'm', 00H, '\'
	DB	00H, 'g', 00H, 'l', 00H, 'm', 00H, '\', 00H, 'd', 00H, 'e', 00H
	DB	't', 00H, 'a', 00H, 'i', 00H, 'l', 00H, '\', 00H, 'f', 00H, 'u'
	DB	00H, 'n', 00H, 'c', 00H, '_', 00H, 'v', 00H, 'e', 00H, 'c', 00H
	DB	't', 00H, 'o', 00H, 'r', 00H, '_', 00H, 'r', 00H, 'e', 00H, 'l'
	DB	00H, 'a', 00H, 't', 00H, 'i', 00H, 'o', 00H, 'n', 00H, 'a', 00H
	DB	'l', 00H, '.', 00H, 'i', 00H, 'n', 00H, 'l', 00H, 00H, 00H ; `string'
CONST	ENDS
;	COMDAT ??_C@_1LG@LAANPDHN@?$AAC?$AA?3?$AA?2?$AAU?$AAs?$AAe?$AAr?$AAs?$AA?2?$AAk?$AAs?$AAa?$AAr?$AAt?$AA?2@
CONST	SEGMENT
??_C@_1LG@LAANPDHN@?$AAC?$AA?3?$AA?2?$AAU?$AAs?$AAe?$AAr?$AAs?$AA?2?$AAk?$AAs?$AAa?$AAr?$AAt?$AA?2@ DB 'C'
	DB	00H, ':', 00H, '\', 00H, 'U', 00H, 's', 00H, 'e', 00H, 'r', 00H
	DB	's', 00H, '\', 00H, 'k', 00H, 's', 00H, 'a', 00H, 'r', 00H, 't'
	DB	00H, '\', 00H, 'O', 00H, 'n', 00H, 'e', 00H, 'D', 00H, 'r', 00H
	DB	'i', 00H, 'v', 00H, 'e', 00H, '\', 00H, 'D', 00H, 'e', 00H, 's'
	DB	00H, 'k', 00H, 't', 00H, 'o', 00H, 'p', 00H, '\', 00H, 'F', 00H
	DB	'l', 00H, 'a', 00H, 'p', 00H, 'p', 00H, 'y', 00H, 'B', 00H, 'i'
	DB	00H, 'r', 00H, 'd', 00H, '\', 00H, 'l', 00H, 'i', 00H, 'b', 00H
	DB	'r', 00H, 'a', 00H, 'r', 00H, 'i', 00H, 'e', 00H, 's', 00H, '\'
	DB	00H, 'e', 00H, 'x', 00H, 't', 00H, 'e', 00H, 'r', 00H, 'n', 00H
	DB	'a', 00H, 'l', 00H, '\', 00H, 'g', 00H, 'l', 00H, 'm', 00H, '\'
	DB	00H, 'g', 00H, 'l', 00H, 'm', 00H, '\', 00H, 'd', 00H, 'e', 00H
	DB	't', 00H, 'a', 00H, 'i', 00H, 'l', 00H, '\', 00H, 't', 00H, 'y'
	DB	00H, 'p', 00H, 'e', 00H, '_', 00H, 'v', 00H, 'e', 00H, 'c', 00H
	DB	'4', 00H, '.', 00H, 'i', 00H, 'n', 00H, 'l', 00H, 00H, 00H ; `string'
CONST	ENDS
;	COMDAT ??_C@_1DK@BGNCJAPL@?$AAi?$AA?5?$AA?$DO?$AA?$DN?$AA?5?$AA0?$AA?5?$AA?$CG?$AA?$CG?$AA?5?$AAi?$AA?5?$AA?$DM?$AA?5?$AAt@
CONST	SEGMENT
??_C@_1DK@BGNCJAPL@?$AAi?$AA?5?$AA?$DO?$AA?$DN?$AA?5?$AA0?$AA?5?$AA?$CG?$AA?$CG?$AA?5?$AAi?$AA?5?$AA?$DM?$AA?5?$AAt@ DB 'i'
	DB	00H, ' ', 00H, '>', 00H, '=', 00H, ' ', 00H, '0', 00H, ' ', 00H
	DB	'&', 00H, '&', 00H, ' ', 00H, 'i', 00H, ' ', 00H, '<', 00H, ' '
	DB	00H, 't', 00H, 'h', 00H, 'i', 00H, 's', 00H, '-', 00H, '>', 00H
	DB	'l', 00H, 'e', 00H, 'n', 00H, 'g', 00H, 't', 00H, 'h', 00H, '('
	DB	00H, ')', 00H, 00H, 00H			; `string'
CONST	ENDS
;	COMDAT ??_C@_1LG@MEJFBKPC@?$AAC?$AA?3?$AA?2?$AAU?$AAs?$AAe?$AAr?$AAs?$AA?2?$AAk?$AAs?$AAa?$AAr?$AAt?$AA?2@
CONST	SEGMENT
??_C@_1LG@MEJFBKPC@?$AAC?$AA?3?$AA?2?$AAU?$AAs?$AAe?$AAr?$AAs?$AA?2?$AAk?$AAs?$AAa?$AAr?$AAt?$AA?2@ DB 'C'
	DB	00H, ':', 00H, '\', 00H, 'U', 00H, 's', 00H, 'e', 00H, 'r', 00H
	DB	's', 00H, '\', 00H, 'k', 00H, 's', 00H, 'a', 00H, 'r', 00H, 't'
	DB	00H, '\', 00H, 'O', 00H, 'n', 00H, 'e', 00H, 'D', 00H, 'r', 00H
	DB	'i', 00H, 'v', 00H, 'e', 00H, '\', 00H, 'D', 00H, 'e', 00H, 's'
	DB	00H, 'k', 00H, 't', 00H, 'o', 00H, 'p', 00H, '\', 00H, 'F', 00H
	DB	'l', 00H, 'a', 00H, 'p', 00H, 'p', 00H, 'y', 00H, 'B', 00H, 'i'
	DB	00H, 'r', 00H, 'd', 00H, '\', 00H, 'l', 00H, 'i', 00H, 'b', 00H
	DB	'r', 00H, 'a', 00H, 'r', 00H, 'i', 00H, 'e', 00H, 's', 00H, '\'
	DB	00H, 'e', 00H, 'x', 00H, 't', 00H, 'e', 00H, 'r', 00H, 'n', 00H
	DB	'a', 00H, 'l', 00H, '\', 00H, 'g', 00H, 'l', 00H, 'm', 00H, '\'
	DB	00H, 'g', 00H, 'l', 00H, 'm', 00H, '\', 00H, 'd', 00H, 'e', 00H
	DB	't', 00H, 'a', 00H, 'i', 00H, 'l', 00H, '\', 00H, 't', 00H, 'y'
	DB	00H, 'p', 00H, 'e', 00H, '_', 00H, 'v', 00H, 'e', 00H, 'c', 00H
	DB	'3', 00H, '.', 00H, 'i', 00H, 'n', 00H, 'l', 00H, 00H, 00H ; `string'
CONST	ENDS
;	COMDAT ??_C@_0BA@FOIKENOD@vector?5too?5long@
CONST	SEGMENT
??_C@_0BA@FOIKENOD@vector?5too?5long@ DB 'vector too long', 00H ; `string'
CONST	ENDS
;	COMDAT ??_C@_1HA@FACCKGGH@?$AA?$CC?$AAn?$AAu?$AAl?$AAl?$AA?5?$AAp?$AAo?$AAi?$AAn?$AAt?$AAe?$AAr?$AA?5?$AAc@
CONST	SEGMENT
??_C@_1HA@FACCKGGH@?$AA?$CC?$AAn?$AAu?$AAl?$AAl?$AA?5?$AAp?$AAo?$AAi?$AAn?$AAt?$AAe?$AAr?$AA?5?$AAc@ DB '"'
	DB	00H, 'n', 00H, 'u', 00H, 'l', 00H, 'l', 00H, ' ', 00H, 'p', 00H
	DB	'o', 00H, 'i', 00H, 'n', 00H, 't', 00H, 'e', 00H, 'r', 00H, ' '
	DB	00H, 'c', 00H, 'a', 00H, 'n', 00H, 'n', 00H, 'o', 00H, 't', 00H
	DB	' ', 00H, 'p', 00H, 'o', 00H, 'i', 00H, 'n', 00H, 't', 00H, ' '
	DB	00H, 't', 00H, 'o', 00H, ' ', 00H, 'a', 00H, ' ', 00H, 'b', 00H
	DB	'l', 00H, 'o', 00H, 'c', 00H, 'k', 00H, ' ', 00H, 'o', 00H, 'f'
	DB	00H, ' ', 00H, 'n', 00H, 'o', 00H, 'n', 00H, '-', 00H, 'z', 00H
	DB	'e', 00H, 'r', 00H, 'o', 00H, ' ', 00H, 's', 00H, 'i', 00H, 'z'
	DB	00H, 'e', 00H, '"', 00H, 00H, 00H		; `string'
CONST	ENDS
;	COMDAT ??_C@_0DG@KGHKKGBC@null?5pointer?5cannot?5point?5to?5a?5@
CONST	SEGMENT
??_C@_0DG@KGHKKGBC@null?5pointer?5cannot?5point?5to?5a?5@ DB 'null pointe'
	DB	'r cannot point to a block of non-zero size', 00H ; `string'
CONST	ENDS
;	COMDAT ??_C@_1CG@JNLFBNGN@?$AA?$CC?$AAi?$AAn?$AAv?$AAa?$AAl?$AAi?$AAd?$AA?5?$AAa?$AAr?$AAg?$AAu?$AAm?$AAe@
CONST	SEGMENT
??_C@_1CG@JNLFBNGN@?$AA?$CC?$AAi?$AAn?$AAv?$AAa?$AAl?$AAi?$AAd?$AA?5?$AAa?$AAr?$AAg?$AAu?$AAm?$AAe@ DB '"'
	DB	00H, 'i', 00H, 'n', 00H, 'v', 00H, 'a', 00H, 'l', 00H, 'i', 00H
	DB	'd', 00H, ' ', 00H, 'a', 00H, 'r', 00H, 'g', 00H, 'u', 00H, 'm'
	DB	00H, 'e', 00H, 'n', 00H, 't', 00H, '"', 00H, 00H, 00H ; `string'
CONST	ENDS
;	COMDAT ??_C@_11LOCGONAA@@
CONST	SEGMENT
??_C@_11LOCGONAA@@ DB 00H, 00H				; `string'
CONST	ENDS
;	COMDAT ??_C@_1ME@GEFGDEOM@?$AAC?$AA?3?$AA?2?$AAP?$AAr?$AAo?$AAg?$AAr?$AAa?$AAm?$AA?5?$AAF?$AAi?$AAl?$AAe@
CONST	SEGMENT
??_C@_1ME@GEFGDEOM@?$AAC?$AA?3?$AA?2?$AAP?$AAr?$AAo?$AAg?$AAr?$AAa?$AAm?$AA?5?$AAF?$AAi?$AAl?$AAe@ DB 'C'
	DB	00H, ':', 00H, '\', 00H, 'P', 00H, 'r', 00H, 'o', 00H, 'g', 00H
	DB	'r', 00H, 'a', 00H, 'm', 00H, ' ', 00H, 'F', 00H, 'i', 00H, 'l'
	DB	00H, 'e', 00H, 's', 00H, '\', 00H, 'M', 00H, 'i', 00H, 'c', 00H
	DB	'r', 00H, 'o', 00H, 's', 00H, 'o', 00H, 'f', 00H, 't', 00H, ' '
	DB	00H, 'V', 00H, 'i', 00H, 's', 00H, 'u', 00H, 'a', 00H, 'l', 00H
	DB	' ', 00H, 'S', 00H, 't', 00H, 'u', 00H, 'd', 00H, 'i', 00H, 'o'
	DB	00H, '\', 00H, '2', 00H, '0', 00H, '2', 00H, '2', 00H, '\', 00H
	DB	'C', 00H, 'o', 00H, 'm', 00H, 'm', 00H, 'u', 00H, 'n', 00H, 'i'
	DB	00H, 't', 00H, 'y', 00H, '\', 00H, 'V', 00H, 'C', 00H, '\', 00H
	DB	'T', 00H, 'o', 00H, 'o', 00H, 'l', 00H, 's', 00H, '\', 00H, 'M'
	DB	00H, 'S', 00H, 'V', 00H, 'C', 00H, '\', 00H, '1', 00H, '4', 00H
	DB	'.', 00H, '3', 00H, '2', 00H, '.', 00H, '3', 00H, '1', 00H, '3'
	DB	00H, '2', 00H, '6', 00H, '\', 00H, 'i', 00H, 'n', 00H, 'c', 00H
	DB	'l', 00H, 'u', 00H, 'd', 00H, 'e', 00H, '\', 00H, 'x', 00H, 'm'
	DB	00H, 'e', 00H, 'm', 00H, 'o', 00H, 'r', 00H, 'y', 00H, 00H, 00H ; `string'
CONST	ENDS
;	COMDAT ??_C@_0GC@DJFHHHKN@C?3?2Program?5Files?2Microsoft?5Visu@
CONST	SEGMENT
??_C@_0GC@DJFHHHKN@C?3?2Program?5Files?2Microsoft?5Visu@ DB 'C:\Program F'
	DB	'iles\Microsoft Visual Studio\2022\Community\VC\Tools\MSVC\14.'
	DB	'32.31326\include\xmemory', 00H		; `string'
CONST	ENDS
;	COMDAT ??_C@_02DKCKIIND@?$CFs@
CONST	SEGMENT
??_C@_02DKCKIIND@?$CFs@ DB '%s', 00H			; `string'
CONST	ENDS
;	COMDAT ??_C@_0BB@FCMFBGOM@invalid?5argument@
CONST	SEGMENT
??_C@_0BB@FCMFBGOM@invalid?5argument@ DB 'invalid argument', 00H ; `string'
CONST	ENDS
;	COMDAT _CT??_R0?AVexception@std@@@8??0exception@std@@QEAA@AEBV01@@Z24
xdata$x	SEGMENT
_CT??_R0?AVexception@std@@@8??0exception@std@@QEAA@AEBV01@@Z24 DD 00H
	DD	imagerel ??_R0?AVexception@std@@@8
	DD	00H
	DD	0ffffffffH
	ORG $+4
	DD	018H
	DD	imagerel ??0exception@std@@QEAA@AEBV01@@Z
xdata$x	ENDS
;	COMDAT ??_R0?AVexception@std@@@8
data$r	SEGMENT
??_R0?AVexception@std@@@8 DQ FLAT:??_7type_info@@6B@	; std::exception `RTTI Type Descriptor'
	DQ	0000000000000000H
	DB	'.?AVexception@std@@', 00H
data$r	ENDS
;	COMDAT _CT??_R0?AVbad_alloc@std@@@8??0bad_alloc@std@@QEAA@AEBV01@@Z24
xdata$x	SEGMENT
_CT??_R0?AVbad_alloc@std@@@8??0bad_alloc@std@@QEAA@AEBV01@@Z24 DD 010H
	DD	imagerel ??_R0?AVbad_alloc@std@@@8
	DD	00H
	DD	0ffffffffH
	ORG $+4
	DD	018H
	DD	imagerel ??0bad_alloc@std@@QEAA@AEBV01@@Z
xdata$x	ENDS
;	COMDAT ??_R0?AVbad_alloc@std@@@8
data$r	SEGMENT
??_R0?AVbad_alloc@std@@@8 DQ FLAT:??_7type_info@@6B@	; std::bad_alloc `RTTI Type Descriptor'
	DQ	0000000000000000H
	DB	'.?AVbad_alloc@std@@', 00H
data$r	ENDS
;	COMDAT _CT??_R0?AVbad_array_new_length@std@@@8??0bad_array_new_length@std@@QEAA@AEBV01@@Z24
xdata$x	SEGMENT
_CT??_R0?AVbad_array_new_length@std@@@8??0bad_array_new_length@std@@QEAA@AEBV01@@Z24 DD 00H
	DD	imagerel ??_R0?AVbad_array_new_length@std@@@8
	DD	00H
	DD	0ffffffffH
	ORG $+4
	DD	018H
	DD	imagerel ??0bad_array_new_length@std@@QEAA@AEBV01@@Z
xdata$x	ENDS
;	COMDAT ??_R0?AVbad_array_new_length@std@@@8
data$r	SEGMENT
??_R0?AVbad_array_new_length@std@@@8 DQ FLAT:??_7type_info@@6B@ ; std::bad_array_new_length `RTTI Type Descriptor'
	DQ	0000000000000000H
	DB	'.?AVbad_array_new_length@std@@', 00H
data$r	ENDS
;	COMDAT _CTA3?AVbad_array_new_length@std@@
xdata$x	SEGMENT
_CTA3?AVbad_array_new_length@std@@ DD 03H
	DD	imagerel _CT??_R0?AVbad_array_new_length@std@@@8??0bad_array_new_length@std@@QEAA@AEBV01@@Z24
	DD	imagerel _CT??_R0?AVbad_alloc@std@@@8??0bad_alloc@std@@QEAA@AEBV01@@Z24
	DD	imagerel _CT??_R0?AVexception@std@@@8??0exception@std@@QEAA@AEBV01@@Z24
xdata$x	ENDS
;	COMDAT _TI3?AVbad_array_new_length@std@@
xdata$x	SEGMENT
_TI3?AVbad_array_new_length@std@@ DD 00H
	DD	imagerel ??1bad_array_new_length@std@@UEAA@XZ
	DD	00H
	DD	imagerel _CTA3?AVbad_array_new_length@std@@
xdata$x	ENDS
;	COMDAT ??_C@_0BF@KINCDENJ@bad?5array?5new?5length@
CONST	SEGMENT
??_C@_0BF@KINCDENJ@bad?5array?5new?5length@ DB 'bad array new length', 00H ; `string'
CONST	ENDS
;	COMDAT ??_7bad_array_new_length@std@@6B@
CONST	SEGMENT
??_7bad_array_new_length@std@@6B@ DQ FLAT:??_R4bad_array_new_length@std@@6B@ ; std::bad_array_new_length::`vftable'
	DQ	FLAT:??_Ebad_array_new_length@std@@UEAAPEAXI@Z
	DQ	FLAT:?what@exception@std@@UEBAPEBDXZ
CONST	ENDS
;	COMDAT ??_7bad_alloc@std@@6B@
CONST	SEGMENT
??_7bad_alloc@std@@6B@ DQ FLAT:??_R4bad_alloc@std@@6B@	; std::bad_alloc::`vftable'
	DQ	FLAT:??_Ebad_alloc@std@@UEAAPEAXI@Z
	DQ	FLAT:?what@exception@std@@UEBAPEBDXZ
CONST	ENDS
;	COMDAT ??_C@_0BC@EOODALEL@Unknown?5exception@
CONST	SEGMENT
??_C@_0BC@EOODALEL@Unknown?5exception@ DB 'Unknown exception', 00H ; `string'
CONST	ENDS
;	COMDAT ??_7exception@std@@6B@
CONST	SEGMENT
??_7exception@std@@6B@ DQ FLAT:??_R4exception@std@@6B@	; std::exception::`vftable'
	DQ	FLAT:??_Eexception@std@@UEAAPEAXI@Z
	DQ	FLAT:?what@exception@std@@UEBAPEBDXZ
CONST	ENDS
;	COMDAT xdata
xdata	SEGMENT
$unwind$??$_Voidify_iter@PEAU?$tquat@M$0A@@glm@@@std@@YAPEAXPEAU?$tquat@M$0A@@glm@@@Z DD 010601H
	DD	07006H
xdata	ENDS
;	COMDAT xdata
xdata	SEGMENT
$unwind$??$construct@U?$tquat@M$0A@@glm@@AEBU12@@?$_Default_allocator_traits@V?$allocator@U?$tquat@M$0A@@glm@@@std@@@std@@SAXAEAV?$allocator@U?$tquat@M$0A@@glm@@@1@QEAU?$tquat@M$0A@@glm@@AEBU34@@Z DD 031501H
	DD	070116215H
	DD	06010H
xdata	ENDS
;	COMDAT xdata
xdata	SEGMENT
$unwind$??$forward@AEBU?$tquat@M$0A@@glm@@@std@@YAAEBU?$tquat@M$0A@@glm@@AEBU12@@Z DD 010601H
	DD	07006H
xdata	ENDS
;	COMDAT xdata
xdata	SEGMENT
$unwind$??$_To_address@PEAU?$tquat@M$0A@@glm@@@std@@YA?A_PAEBQEAU?$tquat@M$0A@@glm@@@Z DD 010601H
	DD	07006H
xdata	ENDS
;	COMDAT xdata
xdata	SEGMENT
$unwind$??$_To_address@PEBU?$tquat@M$0A@@glm@@@std@@YA?A_PAEBQEBU?$tquat@M$0A@@glm@@@Z DD 010601H
	DD	07006H
xdata	ENDS
;	COMDAT xdata
xdata	SEGMENT
$unwind$?call@?$compute_quat_add@M$0A@$0A@@detail@glm@@SA?AU?$tquat@M$0A@@3@AEBU43@0@Z DD 021401H
	DD	070107214H
xdata	ENDS
;	COMDAT xdata
xdata	SEGMENT
$unwind$?call@?$functor1@MM$0A@Utvec4@glm@@@detail@glm@@SA?AU?$tvec4@M$0A@@3@P6AMM@ZAEBU43@@Z DD 021401H
	DD	070107214H
xdata	ENDS
;	COMDAT xdata
xdata	SEGMENT
$unwind$?call@?$functor1@MM$0A@Utvec3@glm@@@detail@glm@@SA?AU?$tvec3@M$0A@@3@P6AMM@ZAEBU43@@Z DD 021401H
	DD	070105214H
xdata	ENDS
;	COMDAT xdata
xdata	SEGMENT
$unwind$??$_Allocate_manually_vector_aligned@U_Default_allocate_traits@std@@@std@@YAPEAX_K@Z DD 020a01H
	DD	07006920aH
xdata	ENDS
;	COMDAT xdata
xdata	SEGMENT
$unwind$??$forward@PEAU_Container_base12@std@@@std@@YA$$QEAPEAU_Container_base12@0@AEAPEAU10@@Z DD 010601H
	DD	07006H
xdata	ENDS
;	COMDAT xdata
xdata	SEGMENT
$unwind$??$_Voidify_iter@PEAU_Container_proxy@std@@@std@@YAPEAXPEAU_Container_proxy@0@@Z DD 010601H
	DD	07006H
xdata	ENDS
;	COMDAT xdata
xdata	SEGMENT
$unwind$??$addressof@U_Container_proxy@std@@@std@@YAPEAU_Container_proxy@0@AEAU10@@Z DD 010601H
	DD	07006H
xdata	ENDS
;	COMDAT xdata
xdata	SEGMENT
$unwind$??$_Emplace_back@AEBU?$tquat@M$0A@@glm@@@?$_Uninitialized_backout_al@V?$allocator@U?$tquat@M$0A@@glm@@@std@@@std@@QEAAXAEBU?$tquat@M$0A@@glm@@@Z DD 020f01H
	DD	0700b520fH
xdata	ENDS
;	COMDAT xdata
xdata	SEGMENT
$unwind$?_Release@?$_Uninitialized_backout_al@V?$allocator@U?$tquat@M$0A@@glm@@@std@@@std@@QEAAPEAU?$tquat@M$0A@@glm@@XZ DD 010601H
	DD	07006H
xdata	ENDS
;	COMDAT xdata
xdata	SEGMENT
$unwind$??1?$_Uninitialized_backout_al@V?$allocator@U?$tquat@M$0A@@glm@@@std@@@std@@QEAA@XZ DD 020a01H
	DD	07006320aH
xdata	ENDS
;	COMDAT xdata
xdata	SEGMENT
$unwind$??0?$_Uninitialized_backout_al@V?$allocator@U?$tquat@M$0A@@glm@@@std@@@std@@QEAA@PEAU?$tquat@M$0A@@glm@@AEAV?$allocator@U?$tquat@M$0A@@glm@@@1@@Z DD 011001H
	DD	07010H
xdata	ENDS
;	COMDAT xdata
xdata	SEGMENT
$unwind$??$_Copy_memmove@PEBU?$tquat@M$0A@@glm@@PEAU12@@std@@YAPEAU?$tquat@M$0A@@glm@@PEBU12@0PEAU12@@Z DD 021401H
	DD	07010b214H
xdata	ENDS
;	COMDAT xdata
xdata	SEGMENT
$unwind$??$_Unfancy@U?$tquat@M$0A@@glm@@@std@@YAPEAU?$tquat@M$0A@@glm@@PEAU12@@Z DD 010601H
	DD	07006H
xdata	ENDS
;	COMDAT xdata
xdata	SEGMENT
$unwind$??$_Get_unwrapped@AEBQEBU?$tquat@M$0A@@glm@@@std@@YA?A_TAEBQEBU?$tquat@M$0A@@glm@@@Z DD 010601H
	DD	07006H
xdata	ENDS
;	COMDAT xdata
xdata	SEGMENT
$unwind$?deallocate@?$_Default_allocator_traits@V?$allocator@U_Container_proxy@std@@@std@@@std@@SAXAEAV?$allocator@U_Container_proxy@std@@@2@QEAU_Container_proxy@2@_K@Z DD 021401H
	DD	070103214H
xdata	ENDS
;	COMDAT xdata
xdata	SEGMENT
$unwind$?call@?$compute_abs_vector@M$0A@Utvec3@glm@@$0A@@detail@glm@@SA?AU?$tvec3@M$0A@@3@AEBU43@@Z DD 020f01H
	DD	0700b320fH
xdata	ENDS
;	COMDAT xdata
xdata	SEGMENT
$unwind$?call@?$compute_abs_vector@M$0A@Utvec4@glm@@$0A@@detail@glm@@SA?AU?$tvec4@M$0A@@3@AEBU43@@Z DD 020f01H
	DD	0700b320fH
xdata	ENDS
;	COMDAT xdata
xdata	SEGMENT
$unwind$??$min@N@glm@@YANNN@Z DD 021101H
	DD	0700d3211H
xdata	ENDS
;	COMDAT xdata
xdata	SEGMENT
$unwind$??$max@N@glm@@YANNN@Z DD 021101H
	DD	0700d3211H
xdata	ENDS
;	COMDAT xdata
xdata	SEGMENT
$unwind$??$min@M@glm@@YAMMM@Z DD 021101H
	DD	0700d3211H
xdata	ENDS
;	COMDAT xdata
xdata	SEGMENT
$unwind$??$max@M@glm@@YAMMM@Z DD 021101H
	DD	0700d3211H
xdata	ENDS
;	COMDAT xdata
xdata	SEGMENT
$unwind$??$?YM@?$tquat@M$0A@@glm@@QEAAAEAU01@AEBU01@@Z DD 031001H
	DD	0700c8210H
	DD	0600bH
xdata	ENDS
;	COMDAT xdata
xdata	SEGMENT
$unwind$??$?DM$0A@@glm@@YA?AU?$tquat@M$0A@@0@AEBU10@AEBM@Z DD 021401H
	DD	070107214H
xdata	ENDS
;	COMDAT xdata
xdata	SEGMENT
$unwind$?call@?$compute_mix@MM@detail@glm@@SAMAEBM00@Z DD 021401H
	DD	070101214H
xdata	ENDS
;	COMDAT xdata
xdata	SEGMENT
$unwind$?call@?$compute_cross@M$0A@$0A@@detail@glm@@SA?AU?$tvec3@M$0A@@3@AEBU43@0@Z DD 021401H
	DD	070105214H
xdata	ENDS
;	COMDAT xdata
xdata	SEGMENT
$unwind$??$min@_K@std@@YAAEB_KAEB_K0@Z DD 020f01H
	DD	0700b120fH
xdata	ENDS
;	COMDAT xdata
xdata	SEGMENT
$unwind$??$_Allocate@$0BA@U_Default_allocate_traits@std@@$0A@@std@@YAPEAX_K@Z DD 020a01H
	DD	07006320aH
xdata	ENDS
;	COMDAT xdata
xdata	SEGMENT
$unwind$??$_Get_size_of_n@$0BA@@std@@YA_K_K@Z DD 020a01H
	DD	07006520aH
xdata	ENDS
;	COMDAT xdata
xdata	SEGMENT
$unwind$??$?DM$0A@@glm@@YA?AU?$tvec3@M$0A@@0@AEBU10@0@Z DD 021401H
	DD	070105214H
xdata	ENDS
;	COMDAT xdata
xdata	SEGMENT
$unwind$??$inversesqrt@M@glm@@YAMM@Z DD 020b01H
	DD	07007520bH
xdata	ENDS
;	COMDAT xdata
xdata	SEGMENT
$unwind$??$dot@M$0A@Utvec3@glm@@@glm@@YAMAEBU?$tvec3@M$0A@@0@0@Z DD 020f01H
	DD	0700b520fH
xdata	ENDS
;	COMDAT xdata
xdata	SEGMENT
$unwind$??$_Construct_in_place@U_Container_proxy@std@@PEAU_Container_base12@2@@std@@YAXAEAU_Container_proxy@0@$$QEAPEAU_Container_base12@0@@Z DD 020f01H
	DD	0700b520fH
xdata	ENDS
;	COMDAT xdata
xdata	SEGMENT
$unwind$??$addressof@U_Container_base12@std@@@std@@YAPEAU_Container_base12@0@AEAU10@@Z DD 010601H
	DD	07006H
xdata	ENDS
;	COMDAT xdata
xdata	SEGMENT
$unwind$??$_Unfancy@U_Container_proxy@std@@@std@@YAPEAU_Container_proxy@0@PEAU10@@Z DD 010601H
	DD	07006H
xdata	ENDS
;	COMDAT voltbl
voltbl	SEGMENT
_volmd	DB	00H
	DB	05H
voltbl	ENDS
;	COMDAT xdata
xdata	SEGMENT
$unwind$?dtor$0@?0???$_Uninitialized_copy@PEBU?$tquat@M$0A@@glm@@V?$allocator@U?$tquat@M$0A@@glm@@@std@@@std@@YAPEAU?$tquat@M$0A@@glm@@QEBU12@0PEAU12@AEAV?$allocator@U?$tquat@M$0A@@glm@@@0@@Z@4HA DD 031001H
	DD	0700c4210H
	DD	0500bH
xdata	ENDS
;	COMDAT xdata
xdata	SEGMENT
$ip2state$??$_Uninitialized_copy@PEBU?$tquat@M$0A@@glm@@V?$allocator@U?$tquat@M$0A@@glm@@@std@@@std@@YAPEAU?$tquat@M$0A@@glm@@QEBU12@0PEAU12@AEAV?$allocator@U?$tquat@M$0A@@glm@@@0@@Z DB 02H
	DB	00H
	DB	00H
xdata	ENDS
;	COMDAT xdata
xdata	SEGMENT
$stateUnwindMap$??$_Uninitialized_copy@PEBU?$tquat@M$0A@@glm@@V?$allocator@U?$tquat@M$0A@@glm@@@std@@@std@@YAPEAU?$tquat@M$0A@@glm@@QEBU12@0PEAU12@AEAV?$allocator@U?$tquat@M$0A@@glm@@@0@@Z DB 02H
	DB	0eH
	DD	imagerel ?dtor$0@?0???$_Uninitialized_copy@PEBU?$tquat@M$0A@@glm@@V?$allocator@U?$tquat@M$0A@@glm@@@std@@@std@@YAPEAU?$tquat@M$0A@@glm@@QEBU12@0PEAU12@AEAV?$allocator@U?$tquat@M$0A@@glm@@@0@@Z@4HA
xdata	ENDS
;	COMDAT xdata
xdata	SEGMENT
$cppxdata$??$_Uninitialized_copy@PEBU?$tquat@M$0A@@glm@@V?$allocator@U?$tquat@M$0A@@glm@@@std@@@std@@YAPEAU?$tquat@M$0A@@glm@@QEBU12@0PEAU12@AEAV?$allocator@U?$tquat@M$0A@@glm@@@0@@Z DB 028H
	DD	imagerel $stateUnwindMap$??$_Uninitialized_copy@PEBU?$tquat@M$0A@@glm@@V?$allocator@U?$tquat@M$0A@@glm@@@std@@@std@@YAPEAU?$tquat@M$0A@@glm@@QEBU12@0PEAU12@AEAV?$allocator@U?$tquat@M$0A@@glm@@@0@@Z
	DD	imagerel $ip2state$??$_Uninitialized_copy@PEBU?$tquat@M$0A@@glm@@V?$allocator@U?$tquat@M$0A@@glm@@@std@@@std@@YAPEAU?$tquat@M$0A@@glm@@QEBU12@0PEAU12@AEAV?$allocator@U?$tquat@M$0A@@glm@@@0@@Z
xdata	ENDS
;	COMDAT xdata
xdata	SEGMENT
$unwind$??$_Uninitialized_copy@PEBU?$tquat@M$0A@@glm@@V?$allocator@U?$tquat@M$0A@@glm@@@std@@@std@@YAPEAU?$tquat@M$0A@@glm@@QEBU12@0PEAU12@AEAV?$allocator@U?$tquat@M$0A@@glm@@@0@@Z DD 022f11H
	DD	07015b219H
	DD	imagerel __CxxFrameHandler4
	DD	imagerel $cppxdata$??$_Uninitialized_copy@PEBU?$tquat@M$0A@@glm@@V?$allocator@U?$tquat@M$0A@@glm@@@std@@@std@@YAPEAU?$tquat@M$0A@@glm@@QEBU12@0PEAU12@AEAV?$allocator@U?$tquat@M$0A@@glm@@@0@@Z
xdata	ENDS
;	COMDAT CONST
CONST	SEGMENT
??$_Uninitialized_copy@PEBU?$tquat@M$0A@@glm@@V?$allocator@U?$tquat@M$0A@@glm@@@std@@@std@@YAPEAU?$tquat@M$0A@@glm@@QEBU12@0PEAU12@AEAV?$allocator@U?$tquat@M$0A@@glm@@@0@@Z$rtcName$0 DB 05fH ; std::_Uninitialized_copy<glm::tquat<float,0> const *,std::allocator<glm::tquat<float,0> > >
	DB	042H
	DB	061H
	DB	063H
	DB	06bH
	DB	06fH
	DB	075H
	DB	074H
	DB	00H
	ORG $+7
??$_Uninitialized_copy@PEBU?$tquat@M$0A@@glm@@V?$allocator@U?$tquat@M$0A@@glm@@@std@@@std@@YAPEAU?$tquat@M$0A@@glm@@QEBU12@0PEAU12@AEAV?$allocator@U?$tquat@M$0A@@glm@@@0@@Z$rtcVarDesc DD 038H ; std::_Uninitialized_copy<glm::tquat<float,0> const *,std::allocator<glm::tquat<float,0> > >
	DD	018H
	DQ	FLAT:??$_Uninitialized_copy@PEBU?$tquat@M$0A@@glm@@V?$allocator@U?$tquat@M$0A@@glm@@@std@@@std@@YAPEAU?$tquat@M$0A@@glm@@QEBU12@0PEAU12@AEAV?$allocator@U?$tquat@M$0A@@glm@@@0@@Z$rtcName$0
	ORG $+48
??$_Uninitialized_copy@PEBU?$tquat@M$0A@@glm@@V?$allocator@U?$tquat@M$0A@@glm@@@std@@@std@@YAPEAU?$tquat@M$0A@@glm@@QEBU12@0PEAU12@AEAV?$allocator@U?$tquat@M$0A@@glm@@@0@@Z$rtcFrameData DD 01H ; std::_Uninitialized_copy<glm::tquat<float,0> const *,std::allocator<glm::tquat<float,0> > >
	DD	00H
	DQ	FLAT:??$_Uninitialized_copy@PEBU?$tquat@M$0A@@glm@@V?$allocator@U?$tquat@M$0A@@glm@@@std@@@std@@YAPEAU?$tquat@M$0A@@glm@@QEBU12@0PEAU12@AEAV?$allocator@U?$tquat@M$0A@@glm@@@0@@Z$rtcVarDesc
CONST	ENDS
;	COMDAT xdata
xdata	SEGMENT
$unwind$??$forward@PEBU?$tquat@M$0A@@glm@@@std@@YA$$QEAPEBU?$tquat@M$0A@@glm@@AEAPEBU12@@Z DD 010601H
	DD	07006H
xdata	ENDS
;	COMDAT xdata
xdata	SEGMENT
$unwind$??1?$_Tidy_guard@V?$vector@U?$tquat@M$0A@@glm@@V?$allocator@U?$tquat@M$0A@@glm@@@std@@@std@@@std@@QEAA@XZ DD 020a01H
	DD	07006320aH
xdata	ENDS
;	COMDAT xdata
xdata	SEGMENT
$unwind$??1?$_Container_proxy_ptr12@V?$allocator@U_Container_proxy@std@@@std@@@std@@QEAA@XZ DD 020a01H
	DD	07006320aH
xdata	ENDS
;	COMDAT xdata
xdata	SEGMENT
$unwind$??0?$_Container_proxy_ptr12@V?$allocator@U_Container_proxy@std@@@std@@@std@@QEAA@AEAV?$allocator@U_Container_proxy@std@@@1@AEAU_Container_base12@1@@Z DD 021401H
	DD	070105214H
xdata	ENDS
;	COMDAT xdata
xdata	SEGMENT
$unwind$??$forward@AEBV?$allocator@U?$tquat@M$0A@@glm@@@std@@@std@@YAAEBV?$allocator@U?$tquat@M$0A@@glm@@@0@AEBV10@@Z DD 010601H
	DD	07006H
xdata	ENDS
;	COMDAT xdata
xdata	SEGMENT
$ip2state$??$_Deallocate_plain@V?$allocator@U_Container_proxy@std@@@std@@@std@@YAXAEAV?$allocator@U_Container_proxy@std@@@0@QEAU_Container_proxy@0@@Z DB 02H
	DB	00H
	DB	00H
xdata	ENDS
;	COMDAT xdata
xdata	SEGMENT
$cppxdata$??$_Deallocate_plain@V?$allocator@U_Container_proxy@std@@@std@@@std@@YAXAEAV?$allocator@U_Container_proxy@std@@@0@QEAU_Container_proxy@0@@Z DB 060H
	DD	imagerel $ip2state$??$_Deallocate_plain@V?$allocator@U_Container_proxy@std@@@std@@@std@@YAXAEAV?$allocator@U_Container_proxy@std@@@0@QEAU_Container_proxy@0@@Z
xdata	ENDS
;	COMDAT xdata
xdata	SEGMENT
$unwind$??$_Deallocate_plain@V?$allocator@U_Container_proxy@std@@@std@@@std@@YAXAEAV?$allocator@U_Container_proxy@std@@@0@QEAU_Container_proxy@0@@Z DD 020f19H
	DD	0700b320fH
	DD	imagerel __CxxFrameHandler4
	DD	imagerel $cppxdata$??$_Deallocate_plain@V?$allocator@U_Container_proxy@std@@@std@@@std@@YAXAEAV?$allocator@U_Container_proxy@std@@@0@QEAU_Container_proxy@0@@Z
xdata	ENDS
;	COMDAT xdata
xdata	SEGMENT
$unwind$??$lessThan@M$0A@Utvec3@glm@@@glm@@YA?AU?$tvec3@_N$0A@@0@AEBU?$tvec3@M$0A@@0@0@Z DD 032b01H
	DD	07011a215H
	DD	06010H
xdata	ENDS
;	COMDAT CONST
CONST	SEGMENT
??$lessThan@M$0A@Utvec3@glm@@@glm@@YA?AU?$tvec3@_N$0A@@0@AEBU?$tvec3@M$0A@@0@0@Z$rtcName$0 DB 052H ; glm::lessThan<float,0,glm::tvec3>
	DB	065H
	DB	073H
	DB	075H
	DB	06cH
	DB	074H
	DB	00H
	ORG $+9
??$lessThan@M$0A@Utvec3@glm@@@glm@@YA?AU?$tvec3@_N$0A@@0@AEBU?$tvec3@M$0A@@0@0@Z$rtcVarDesc DD 024H ; glm::lessThan<float,0,glm::tvec3>
	DD	03H
	DQ	FLAT:??$lessThan@M$0A@Utvec3@glm@@@glm@@YA?AU?$tvec3@_N$0A@@0@AEBU?$tvec3@M$0A@@0@0@Z$rtcName$0
	ORG $+48
??$lessThan@M$0A@Utvec3@glm@@@glm@@YA?AU?$tvec3@_N$0A@@0@AEBU?$tvec3@M$0A@@0@0@Z$rtcFrameData DD 01H ; glm::lessThan<float,0,glm::tvec3>
	DD	00H
	DQ	FLAT:??$lessThan@M$0A@Utvec3@glm@@@glm@@YA?AU?$tvec3@_N$0A@@0@AEBU?$tvec3@M$0A@@0@0@Z$rtcVarDesc
CONST	ENDS
;	COMDAT xdata
xdata	SEGMENT
$unwind$??$abs@M$0A@Utvec3@glm@@@glm@@YA?AU?$tvec3@M$0A@@0@AEBU10@@Z DD 020f01H
	DD	0700b320fH
xdata	ENDS
;	COMDAT xdata
xdata	SEGMENT
$unwind$??$?GM$0A@@glm@@YA?AU?$tvec3@M$0A@@0@AEBU10@0@Z DD 021401H
	DD	070105214H
xdata	ENDS
;	COMDAT xdata
xdata	SEGMENT
$unwind$??$conjugate@M$0A@@glm@@YA?AU?$tquat@M$0A@@0@AEBU10@@Z DD 020f01H
	DD	0700b720fH
xdata	ENDS
;	COMDAT xdata
xdata	SEGMENT
$unwind$??$?HM$0A@@glm@@YA?AU?$tvec3@M$0A@@0@AEBU10@0@Z DD 021401H
	DD	070105214H
xdata	ENDS
;	COMDAT xdata
xdata	SEGMENT
$unwind$??$?DM$0A@@glm@@YA?AU?$tvec3@M$0A@@0@AEBU10@M@Z DD 021501H
	DD	070115215H
xdata	ENDS
;	COMDAT xdata
xdata	SEGMENT
$unwind$?call@?$compute_dot@Utquat@glm@@M$0A@$0A@@detail@glm@@SAMAEBU?$tquat@M$0A@@3@0@Z DD 022801H
	DD	0700bd20fH
xdata	ENDS
;	COMDAT CONST
CONST	SEGMENT
?call@?$compute_dot@Utquat@glm@@M$0A@$0A@@detail@glm@@SAMAEBU?$tquat@M$0A@@3@0@Z$rtcName$0 DB 074H ; glm::detail::compute_dot<glm::tquat,float,0,0>::call
	DB	06dH
	DB	070H
	DB	00H
	ORG $+12
?call@?$compute_dot@Utquat@glm@@M$0A@$0A@@detail@glm@@SAMAEBU?$tquat@M$0A@@3@0@Z$rtcVarDesc DD 048H ; glm::detail::compute_dot<glm::tquat,float,0,0>::call
	DD	010H
	DQ	FLAT:?call@?$compute_dot@Utquat@glm@@M$0A@$0A@@detail@glm@@SAMAEBU?$tquat@M$0A@@3@0@Z$rtcName$0
	ORG $+48
?call@?$compute_dot@Utquat@glm@@M$0A@$0A@@detail@glm@@SAMAEBU?$tquat@M$0A@@3@0@Z$rtcFrameData DD 01H ; glm::detail::compute_dot<glm::tquat,float,0,0>::call
	DD	00H
	DQ	FLAT:?call@?$compute_dot@Utquat@glm@@M$0A@$0A@@detail@glm@@SAMAEBU?$tquat@M$0A@@3@0@Z$rtcVarDesc
CONST	ENDS
;	COMDAT xdata
xdata	SEGMENT
$unwind$??$lessThan@M$0A@Utvec4@glm@@@glm@@YA?AU?$tvec4@_N$0A@@0@AEBU?$tvec4@M$0A@@0@0@Z DD 022a01H
	DD	070109214H
xdata	ENDS
;	COMDAT CONST
CONST	SEGMENT
??$lessThan@M$0A@Utvec4@glm@@@glm@@YA?AU?$tvec4@_N$0A@@0@AEBU?$tvec4@M$0A@@0@0@Z$rtcName$0 DB 052H ; glm::lessThan<float,0,glm::tvec4>
	DB	065H
	DB	073H
	DB	075H
	DB	06cH
	DB	074H
	DB	00H
	ORG $+9
??$lessThan@M$0A@Utvec4@glm@@@glm@@YA?AU?$tvec4@_N$0A@@0@AEBU?$tvec4@M$0A@@0@0@Z$rtcVarDesc DD 024H ; glm::lessThan<float,0,glm::tvec4>
	DD	04H
	DQ	FLAT:??$lessThan@M$0A@Utvec4@glm@@@glm@@YA?AU?$tvec4@_N$0A@@0@AEBU?$tvec4@M$0A@@0@0@Z$rtcName$0
	ORG $+48
??$lessThan@M$0A@Utvec4@glm@@@glm@@YA?AU?$tvec4@_N$0A@@0@AEBU?$tvec4@M$0A@@0@0@Z$rtcFrameData DD 01H ; glm::lessThan<float,0,glm::tvec4>
	DD	00H
	DQ	FLAT:??$lessThan@M$0A@Utvec4@glm@@@glm@@YA?AU?$tvec4@_N$0A@@0@AEBU?$tvec4@M$0A@@0@0@Z$rtcVarDesc
CONST	ENDS
;	COMDAT xdata
xdata	SEGMENT
$unwind$??$abs@M$0A@Utvec4@glm@@@glm@@YA?AU?$tvec4@M$0A@@0@AEBU10@@Z DD 020f01H
	DD	0700b320fH
xdata	ENDS
;	COMDAT xdata
xdata	SEGMENT
$unwind$??$clamp@N@glm@@YANNNN@Z DD 021701H
	DD	070135217H
xdata	ENDS
;	COMDAT xdata
xdata	SEGMENT
$unwind$??$atan@N@glm@@YANNN@Z DD 021101H
	DD	0700d5211H
xdata	ENDS
;	COMDAT xdata
xdata	SEGMENT
$unwind$??$clamp@M@glm@@YAMMMM@Z DD 021701H
	DD	070135217H
xdata	ENDS
;	COMDAT xdata
xdata	SEGMENT
$unwind$??$atan@M@glm@@YAMMM@Z DD 021101H
	DD	0700d5211H
xdata	ENDS
;	COMDAT xdata
xdata	SEGMENT
$unwind$??$?KM$0A@@glm@@YA?AU?$tquat@M$0A@@0@AEBU10@AEBM@Z DD 021401H
	DD	070107214H
xdata	ENDS
;	COMDAT xdata
xdata	SEGMENT
$unwind$??$?HM$0A@@glm@@YA?AU?$tquat@M$0A@@0@AEBU10@0@Z DD 031501H
	DD	070116215H
	DD	06010H
xdata	ENDS
;	COMDAT xdata
xdata	SEGMENT
$unwind$??$?DM$0A@@glm@@YA?AU?$tquat@M$0A@@0@AEBMAEBU10@@Z DD 021401H
	DD	070103214H
xdata	ENDS
;	COMDAT xdata
xdata	SEGMENT
$unwind$??$mix@MM@glm@@YAMMMM@Z DD 021701H
	DD	070135217H
xdata	ENDS
;	COMDAT xdata
xdata	SEGMENT
$unwind$??$epsilon@M@glm@@YAMXZ DD 020601H
	DD	070025206H
xdata	ENDS
;	COMDAT xdata
xdata	SEGMENT
$unwind$?call@?$compute_normalize@M$0A@Utvec3@glm@@$0A@@detail@glm@@SA?AU?$tvec3@M$0A@@3@AEBU43@@Z DD 020f01H
	DD	0700b320fH
xdata	ENDS
;	COMDAT xdata
xdata	SEGMENT
$unwind$?call@?$compute_abs@M$00@detail@glm@@SAMM@Z DD 020b01H
	DD	07007320bH
xdata	ENDS
;	COMDAT xdata
xdata	SEGMENT
$unwind$?call@?$compute_dot@Utvec3@glm@@M$0A@$0A@@detail@glm@@SAMAEBU?$tvec3@M$0A@@3@0@Z DD 022501H
	DD	0700bb20fH
xdata	ENDS
;	COMDAT CONST
CONST	SEGMENT
?call@?$compute_dot@Utvec3@glm@@M$0A@$0A@@detail@glm@@SAMAEBU?$tvec3@M$0A@@3@0@Z$rtcName$0 DB 074H ; glm::detail::compute_dot<glm::tvec3,float,0,0>::call
	DB	06dH
	DB	070H
	DB	00H
	ORG $+12
?call@?$compute_dot@Utvec3@glm@@M$0A@$0A@@detail@glm@@SAMAEBU?$tvec3@M$0A@@3@0@Z$rtcVarDesc DD 038H ; glm::detail::compute_dot<glm::tvec3,float,0,0>::call
	DD	0cH
	DQ	FLAT:?call@?$compute_dot@Utvec3@glm@@M$0A@$0A@@detail@glm@@SAMAEBU?$tvec3@M$0A@@3@0@Z$rtcName$0
	ORG $+48
?call@?$compute_dot@Utvec3@glm@@M$0A@$0A@@detail@glm@@SAMAEBU?$tvec3@M$0A@@3@0@Z$rtcFrameData DD 01H ; glm::detail::compute_dot<glm::tvec3,float,0,0>::call
	DD	00H
	DQ	FLAT:?call@?$compute_dot@Utvec3@glm@@M$0A@$0A@@detail@glm@@SAMAEBU?$tvec3@M$0A@@3@0@Z$rtcVarDesc
CONST	ENDS
;	COMDAT xdata
xdata	SEGMENT
$unwind$??$cross@M$0A@@glm@@YA?AU?$tvec3@M$0A@@0@AEBU10@0@Z DD 021401H
	DD	070103214H
xdata	ENDS
;	COMDAT xdata
xdata	SEGMENT
$ip2state$??$_Deallocate@$0BA@$0A@@std@@YAXPEAX_K@Z DB 02H
	DB	00H
	DB	00H
xdata	ENDS
;	COMDAT xdata
xdata	SEGMENT
$cppxdata$??$_Deallocate@$0BA@$0A@@std@@YAXPEAX_K@Z DB 060H
	DD	imagerel $ip2state$??$_Deallocate@$0BA@$0A@@std@@YAXPEAX_K@Z
xdata	ENDS
;	COMDAT xdata
xdata	SEGMENT
$unwind$??$_Deallocate@$0BA@$0A@@std@@YAXPEAX_K@Z DD 020f19H
	DD	0700b320fH
	DD	imagerel __CxxFrameHandler4
	DD	imagerel $cppxdata$??$_Deallocate@$0BA@$0A@@std@@YAXPEAX_K@Z
xdata	ENDS
;	COMDAT xdata
xdata	SEGMENT
$unwind$??$_Destroy_range@V?$allocator@U?$tquat@M$0A@@glm@@@std@@@std@@YAXPEAU?$tquat@M$0A@@glm@@QEAU12@AEAV?$allocator@U?$tquat@M$0A@@glm@@@0@@Z DD 011001H
	DD	07010H
xdata	ENDS
;	COMDAT voltbl
voltbl	SEGMENT
_volmd	DB	00H
	DB	05H
voltbl	ENDS
;	COMDAT voltbl
voltbl	SEGMENT
_volmd	DB	00H
	DB	05H
voltbl	ENDS
;	COMDAT xdata
xdata	SEGMENT
$unwind$?dtor$1@?0???$_Construct_n@PEBU?$tquat@M$0A@@glm@@PEBU12@@?$vector@U?$tquat@M$0A@@glm@@V?$allocator@U?$tquat@M$0A@@glm@@@std@@@std@@AEAAX_K$$QEAPEBU?$tquat@M$0A@@glm@@1@Z@4HA DD 031001H
	DD	0700c4210H
	DD	0500bH
xdata	ENDS
;	COMDAT xdata
xdata	SEGMENT
$unwind$?dtor$0@?0???$_Construct_n@PEBU?$tquat@M$0A@@glm@@PEBU12@@?$vector@U?$tquat@M$0A@@glm@@V?$allocator@U?$tquat@M$0A@@glm@@@std@@@std@@AEAAX_K$$QEAPEBU?$tquat@M$0A@@glm@@1@Z@4HA DD 031001H
	DD	0700c4210H
	DD	0500bH
xdata	ENDS
;	COMDAT xdata
xdata	SEGMENT
$ip2state$??$_Construct_n@PEBU?$tquat@M$0A@@glm@@PEBU12@@?$vector@U?$tquat@M$0A@@glm@@V?$allocator@U?$tquat@M$0A@@glm@@@std@@@std@@AEAAX_K$$QEAPEBU?$tquat@M$0A@@glm@@1@Z DB 0aH
	DB	00H
	DB	00H
	DB	09H, 02H
	DB	02H
	DB	'h'
	DB	04H
	DB	0b0H
	DB	02H
	DB	'0'
	DB	00H
xdata	ENDS
;	COMDAT xdata
xdata	SEGMENT
$stateUnwindMap$??$_Construct_n@PEBU?$tquat@M$0A@@glm@@PEBU12@@?$vector@U?$tquat@M$0A@@glm@@V?$allocator@U?$tquat@M$0A@@glm@@@std@@@std@@AEAAX_K$$QEAPEBU?$tquat@M$0A@@glm@@1@Z DB 04H
	DB	0eH
	DD	imagerel ?dtor$0@?0???$_Construct_n@PEBU?$tquat@M$0A@@glm@@PEBU12@@?$vector@U?$tquat@M$0A@@glm@@V?$allocator@U?$tquat@M$0A@@glm@@@std@@@std@@AEAAX_K$$QEAPEBU?$tquat@M$0A@@glm@@1@Z@4HA
	DB	02eH
	DD	imagerel ?dtor$1@?0???$_Construct_n@PEBU?$tquat@M$0A@@glm@@PEBU12@@?$vector@U?$tquat@M$0A@@glm@@V?$allocator@U?$tquat@M$0A@@glm@@@std@@@std@@AEAAX_K$$QEAPEBU?$tquat@M$0A@@glm@@1@Z@4HA
xdata	ENDS
;	COMDAT xdata
xdata	SEGMENT
$cppxdata$??$_Construct_n@PEBU?$tquat@M$0A@@glm@@PEBU12@@?$vector@U?$tquat@M$0A@@glm@@V?$allocator@U?$tquat@M$0A@@glm@@@std@@@std@@AEAAX_K$$QEAPEBU?$tquat@M$0A@@glm@@1@Z DB 028H
	DD	imagerel $stateUnwindMap$??$_Construct_n@PEBU?$tquat@M$0A@@glm@@PEBU12@@?$vector@U?$tquat@M$0A@@glm@@V?$allocator@U?$tquat@M$0A@@glm@@@std@@@std@@AEAAX_K$$QEAPEBU?$tquat@M$0A@@glm@@1@Z
	DD	imagerel $ip2state$??$_Construct_n@PEBU?$tquat@M$0A@@glm@@PEBU12@@?$vector@U?$tquat@M$0A@@glm@@V?$allocator@U?$tquat@M$0A@@glm@@@std@@@std@@AEAAX_K$$QEAPEBU?$tquat@M$0A@@glm@@1@Z
xdata	ENDS
;	COMDAT xdata
xdata	SEGMENT
$unwind$??$_Construct_n@PEBU?$tquat@M$0A@@glm@@PEBU12@@?$vector@U?$tquat@M$0A@@glm@@V?$allocator@U?$tquat@M$0A@@glm@@@std@@@std@@AEAAX_K$$QEAPEBU?$tquat@M$0A@@glm@@1@Z DD 033511H
	DD	014011cH
	DD	07015H
	DD	imagerel __CxxFrameHandler4
	DD	imagerel $cppxdata$??$_Construct_n@PEBU?$tquat@M$0A@@glm@@PEBU12@@?$vector@U?$tquat@M$0A@@glm@@V?$allocator@U?$tquat@M$0A@@glm@@@std@@@std@@AEAAX_K$$QEAPEBU?$tquat@M$0A@@glm@@1@Z
xdata	ENDS
;	COMDAT CONST
CONST	SEGMENT
??$_Construct_n@PEBU?$tquat@M$0A@@glm@@PEBU12@@?$vector@U?$tquat@M$0A@@glm@@V?$allocator@U?$tquat@M$0A@@glm@@@std@@@std@@AEAAX_K$$QEAPEBU?$tquat@M$0A@@glm@@1@Z$rtcName$0 DB 024H ; std::vector<glm::tquat<float,0>,std::allocator<glm::tquat<float,0> > >::_Construct_n<glm::tquat<float,0> const *,glm::tquat<float,0> const *>
	DB	053H
	DB	032H
	DB	00H
??$_Construct_n@PEBU?$tquat@M$0A@@glm@@PEBU12@@?$vector@U?$tquat@M$0A@@glm@@V?$allocator@U?$tquat@M$0A@@glm@@@std@@@std@@AEAAX_K$$QEAPEBU?$tquat@M$0A@@glm@@1@Z$rtcName$1 DB 05fH ; std::vector<glm::tquat<float,0>,std::allocator<glm::tquat<float,0> > >::_Construct_n<glm::tquat<float,0> const *,glm::tquat<float,0> const *>
	DB	050H
	DB	072H
	DB	06fH
	DB	078H
	DB	079H
	DB	00H
	ORG $+1
??$_Construct_n@PEBU?$tquat@M$0A@@glm@@PEBU12@@?$vector@U?$tquat@M$0A@@glm@@V?$allocator@U?$tquat@M$0A@@glm@@@std@@@std@@AEAAX_K$$QEAPEBU?$tquat@M$0A@@glm@@1@Z$rtcName$2 DB 05fH ; std::vector<glm::tquat<float,0>,std::allocator<glm::tquat<float,0> > >::_Construct_n<glm::tquat<float,0> const *,glm::tquat<float,0> const *>
	DB	047H
	DB	075H
	DB	061H
	DB	072H
	DB	064H
	DB	00H
	ORG $+13
??$_Construct_n@PEBU?$tquat@M$0A@@glm@@PEBU12@@?$vector@U?$tquat@M$0A@@glm@@V?$allocator@U?$tquat@M$0A@@glm@@@std@@@std@@AEAAX_K$$QEAPEBU?$tquat@M$0A@@glm@@1@Z$rtcVarDesc DD 088H ; std::vector<glm::tquat<float,0>,std::allocator<glm::tquat<float,0> > >::_Construct_n<glm::tquat<float,0> const *,glm::tquat<float,0> const *>
	DD	08H
	DQ	FLAT:??$_Construct_n@PEBU?$tquat@M$0A@@glm@@PEBU12@@?$vector@U?$tquat@M$0A@@glm@@V?$allocator@U?$tquat@M$0A@@glm@@@std@@@std@@AEAAX_K$$QEAPEBU?$tquat@M$0A@@glm@@1@Z$rtcName$2
	DD	058H
	DD	010H
	DQ	FLAT:??$_Construct_n@PEBU?$tquat@M$0A@@glm@@PEBU12@@?$vector@U?$tquat@M$0A@@glm@@V?$allocator@U?$tquat@M$0A@@glm@@@std@@@std@@AEAAX_K$$QEAPEBU?$tquat@M$0A@@glm@@1@Z$rtcName$1
	DD	034H
	DD	01H
	DQ	FLAT:??$_Construct_n@PEBU?$tquat@M$0A@@glm@@PEBU12@@?$vector@U?$tquat@M$0A@@glm@@V?$allocator@U?$tquat@M$0A@@glm@@@std@@@std@@AEAAX_K$$QEAPEBU?$tquat@M$0A@@glm@@1@Z$rtcName$0
	ORG $+144
??$_Construct_n@PEBU?$tquat@M$0A@@glm@@PEBU12@@?$vector@U?$tquat@M$0A@@glm@@V?$allocator@U?$tquat@M$0A@@glm@@@std@@@std@@AEAAX_K$$QEAPEBU?$tquat@M$0A@@glm@@1@Z$rtcFrameData DD 03H ; std::vector<glm::tquat<float,0>,std::allocator<glm::tquat<float,0> > >::_Construct_n<glm::tquat<float,0> const *,glm::tquat<float,0> const *>
	DD	00H
	DQ	FLAT:??$_Construct_n@PEBU?$tquat@M$0A@@glm@@PEBU12@@?$vector@U?$tquat@M$0A@@glm@@V?$allocator@U?$tquat@M$0A@@glm@@@std@@@std@@AEAAX_K$$QEAPEBU?$tquat@M$0A@@glm@@1@Z$rtcVarDesc
CONST	ENDS
;	COMDAT xdata
xdata	SEGMENT
$unwind$??$_Convert_size@_K@std@@YA_K_K@Z DD 010601H
	DD	07006H
xdata	ENDS
;	COMDAT xdata
xdata	SEGMENT
$unwind$??$?0AEBV?$allocator@U?$tquat@M$0A@@glm@@@std@@$$V@?$_Compressed_pair@V?$allocator@U?$tquat@M$0A@@glm@@@std@@V?$_Vector_val@U?$_Simple_types@U?$tquat@M$0A@@glm@@@std@@@2@$00@std@@QEAA@U_One_then_variadic_args_t@1@AEBV?$allocator@U?$tquat@M$0A@@glm@@@1@@Z DD 021301H
	DD	0700f3213H
xdata	ENDS
;	COMDAT xdata
xdata	SEGMENT
$unwind$??$_Delete_plain_internal@V?$allocator@U_Container_proxy@std@@@std@@@std@@YAXAEAV?$allocator@U_Container_proxy@std@@@0@QEAU_Container_proxy@0@@Z DD 020f01H
	DD	0700b320fH
xdata	ENDS
;	COMDAT xdata
xdata	SEGMENT
$unwind$??$exchange@PEAU_Container_proxy@std@@$$T@std@@YAPEAU_Container_proxy@0@AEAPEAU10@$$QEA$$T@Z DD 020f01H
	DD	0700b120fH
xdata	ENDS
;	COMDAT xdata
xdata	SEGMENT
$unwind$??$?0U?$tquat@M$0A@@glm@@@?$allocator@U_Container_proxy@std@@@std@@QEAA@AEBV?$allocator@U?$tquat@M$0A@@glm@@@1@@Z DD 010b01H
	DD	0700bH
xdata	ENDS
;	COMDAT xdata
xdata	SEGMENT
$unwind$?allocate@?$allocator@U_Container_proxy@std@@@std@@QEAAPEAU_Container_proxy@2@_K@Z DD 020f01H
	DD	0700b320fH
xdata	ENDS
;	COMDAT xdata
xdata	SEGMENT
$unwind$?size@?$initializer_list@U?$tquat@M$0A@@glm@@@std@@QEBA_KXZ DD 010601H
	DD	07006H
xdata	ENDS
;	COMDAT xdata
xdata	SEGMENT
$unwind$?end@?$initializer_list@U?$tquat@M$0A@@glm@@@std@@QEBAPEBU?$tquat@M$0A@@glm@@XZ DD 010601H
	DD	07006H
xdata	ENDS
;	COMDAT xdata
xdata	SEGMENT
$unwind$?begin@?$initializer_list@U?$tquat@M$0A@@glm@@@std@@QEBAPEBU?$tquat@M$0A@@glm@@XZ DD 010601H
	DD	07006H
xdata	ENDS
;	COMDAT xdata
xdata	SEGMENT
$unwind$??0?$initializer_list@U?$tquat@M$0A@@glm@@@std@@QEAA@PEBU?$tquat@M$0A@@glm@@0@Z DD 011001H
	DD	07010H
xdata	ENDS
;	COMDAT xdata
xdata	SEGMENT
$unwind$?_Get_first@?$_Compressed_pair@V?$allocator@U?$tquat@M$0A@@glm@@@std@@V?$_Vector_val@U?$_Simple_types@U?$tquat@M$0A@@glm@@@std@@@2@$00@std@@QEBAAEBV?$allocator@U?$tquat@M$0A@@glm@@@2@XZ DD 010601H
	DD	07006H
xdata	ENDS
;	COMDAT xdata
xdata	SEGMENT
$unwind$?_Get_first@?$_Compressed_pair@V?$allocator@U?$tquat@M$0A@@glm@@@std@@V?$_Vector_val@U?$_Simple_types@U?$tquat@M$0A@@glm@@@std@@@2@$00@std@@QEAAAEAV?$allocator@U?$tquat@M$0A@@glm@@@2@XZ DD 010601H
	DD	07006H
xdata	ENDS
;	COMDAT xdata
xdata	SEGMENT
$unwind$??0?$_Vector_val@U?$_Simple_types@U?$tquat@M$0A@@glm@@@std@@@std@@QEAA@XZ DD 020a01H
	DD	07006320aH
xdata	ENDS
;	COMDAT xdata
xdata	SEGMENT
$unwind$?_Getal@?$vector@U?$tquat@M$0A@@glm@@V?$allocator@U?$tquat@M$0A@@glm@@@std@@@std@@AEBAAEBV?$allocator@U?$tquat@M$0A@@glm@@@2@XZ DD 020a01H
	DD	07006320aH
xdata	ENDS
;	COMDAT xdata
xdata	SEGMENT
$unwind$?_Getal@?$vector@U?$tquat@M$0A@@glm@@V?$allocator@U?$tquat@M$0A@@glm@@@std@@@std@@AEAAAEAV?$allocator@U?$tquat@M$0A@@glm@@@2@XZ DD 020a01H
	DD	07006320aH
xdata	ENDS
;	COMDAT xdata
xdata	SEGMENT
$unwind$?_Xlength@?$vector@U?$tquat@M$0A@@glm@@V?$allocator@U?$tquat@M$0A@@glm@@@std@@@std@@CAXXZ DD 020601H
	DD	070023206H
xdata	ENDS
;	COMDAT xdata
xdata	SEGMENT
$ip2state$?_Tidy@?$vector@U?$tquat@M$0A@@glm@@V?$allocator@U?$tquat@M$0A@@glm@@@std@@@std@@AEAAXXZ DB 02H
	DB	00H
	DB	00H
xdata	ENDS
;	COMDAT xdata
xdata	SEGMENT
$cppxdata$?_Tidy@?$vector@U?$tquat@M$0A@@glm@@V?$allocator@U?$tquat@M$0A@@glm@@@std@@@std@@AEAAXXZ DB 060H
	DD	imagerel $ip2state$?_Tidy@?$vector@U?$tquat@M$0A@@glm@@V?$allocator@U?$tquat@M$0A@@glm@@@std@@@std@@AEAAXXZ
xdata	ENDS
;	COMDAT xdata
xdata	SEGMENT
$unwind$?_Tidy@?$vector@U?$tquat@M$0A@@glm@@V?$allocator@U?$tquat@M$0A@@glm@@@std@@@std@@AEAAXXZ DD 020a19H
	DD	07006920aH
	DD	imagerel __CxxFrameHandler4
	DD	imagerel $cppxdata$?_Tidy@?$vector@U?$tquat@M$0A@@glm@@V?$allocator@U?$tquat@M$0A@@glm@@@std@@@std@@AEAAXXZ
xdata	ENDS
;	COMDAT xdata
xdata	SEGMENT
$unwind$?_Buy_nonzero@?$vector@U?$tquat@M$0A@@glm@@V?$allocator@U?$tquat@M$0A@@glm@@@std@@@std@@AEAAX_K@Z DD 020f01H
	DD	0700b320fH
xdata	ENDS
;	COMDAT xdata
xdata	SEGMENT
$unwind$?_Buy_raw@?$vector@U?$tquat@M$0A@@glm@@V?$allocator@U?$tquat@M$0A@@glm@@@std@@@std@@AEAAX_K@Z DD 020f01H
	DD	0700b920fH
xdata	ENDS
;	COMDAT xdata
xdata	SEGMENT
$unwind$?max_size@?$vector@U?$tquat@M$0A@@glm@@V?$allocator@U?$tquat@M$0A@@glm@@@std@@@std@@QEBA_KXZ DD 020a01H
	DD	07006520aH
xdata	ENDS
;	COMDAT xdata
xdata	SEGMENT
$unwind$??1?$vector@U?$tquat@M$0A@@glm@@V?$allocator@U?$tquat@M$0A@@glm@@@std@@@std@@QEAA@XZ DD 022001H
	DD	07006920aH
xdata	ENDS
;	COMDAT CONST
CONST	SEGMENT
??1?$vector@U?$tquat@M$0A@@glm@@V?$allocator@U?$tquat@M$0A@@glm@@@std@@@std@@QEAA@XZ$rtcName$0 DB 024H ; std::vector<glm::tquat<float,0>,std::allocator<glm::tquat<float,0> > >::~vector<glm::tquat<float,0>,std::allocator<glm::tquat<float,0> > >
	DB	053H
	DB	031H
	DB	00H
	ORG $+12
??1?$vector@U?$tquat@M$0A@@glm@@V?$allocator@U?$tquat@M$0A@@glm@@@std@@@std@@QEAA@XZ$rtcVarDesc DD 034H ; std::vector<glm::tquat<float,0>,std::allocator<glm::tquat<float,0> > >::~vector<glm::tquat<float,0>,std::allocator<glm::tquat<float,0> > >
	DD	01H
	DQ	FLAT:??1?$vector@U?$tquat@M$0A@@glm@@V?$allocator@U?$tquat@M$0A@@glm@@@std@@@std@@QEAA@XZ$rtcName$0
	ORG $+48
??1?$vector@U?$tquat@M$0A@@glm@@V?$allocator@U?$tquat@M$0A@@glm@@@std@@@std@@QEAA@XZ$rtcFrameData DD 01H ; std::vector<glm::tquat<float,0>,std::allocator<glm::tquat<float,0> > >::~vector<glm::tquat<float,0>,std::allocator<glm::tquat<float,0> > >
	DD	00H
	DQ	FLAT:??1?$vector@U?$tquat@M$0A@@glm@@V?$allocator@U?$tquat@M$0A@@glm@@@std@@@std@@QEAA@XZ$rtcVarDesc
CONST	ENDS
;	COMDAT xdata
xdata	SEGMENT
$unwind$??0?$vector@U?$tquat@M$0A@@glm@@V?$allocator@U?$tquat@M$0A@@glm@@@std@@@std@@QEAA@V?$initializer_list@U?$tquat@M$0A@@glm@@@1@AEBV?$allocator@U?$tquat@M$0A@@glm@@@1@@Z DD 021401H
	DD	070107214H
xdata	ENDS
;	COMDAT xdata
xdata	SEGMENT
$unwind$?max_size@?$_Default_allocator_traits@V?$allocator@U?$tquat@M$0A@@glm@@@std@@@std@@SA_KAEBV?$allocator@U?$tquat@M$0A@@glm@@@2@@Z DD 010601H
	DD	07006H
xdata	ENDS
;	COMDAT xdata
xdata	SEGMENT
$unwind$?allocate@?$allocator@U?$tquat@M$0A@@glm@@@std@@QEAAPEAU?$tquat@M$0A@@glm@@_K@Z DD 020f01H
	DD	0700b320fH
xdata	ENDS
;	COMDAT xdata
xdata	SEGMENT
$unwind$?deallocate@?$allocator@U?$tquat@M$0A@@glm@@@std@@QEAAXQEAU?$tquat@M$0A@@glm@@_K@Z DD 021401H
	DD	070105214H
xdata	ENDS
;	COMDAT xdata
xdata	SEGMENT
$unwind$??0?$allocator@U?$tquat@M$0A@@glm@@@std@@QEAA@XZ DD 010601H
	DD	07006H
xdata	ENDS
;	COMDAT xdata
xdata	SEGMENT
$unwind$??$all@$0A@Utvec3@glm@@@glm@@YA_NAEBU?$tvec3@_N$0A@@0@@Z DD 020a01H
	DD	07006520aH
xdata	ENDS
;	COMDAT xdata
xdata	SEGMENT
$unwind$??0?$tvec3@_N$0A@@glm@@QEAA@W4ctor@1@@Z DD 010a01H
	DD	0700aH
xdata	ENDS
;	COMDAT xdata
xdata	SEGMENT
$unwind$??A?$tvec3@_N$0A@@glm@@QEBAAEB_NH@Z DD 020e01H
	DD	0700a320eH
xdata	ENDS
;	COMDAT xdata
xdata	SEGMENT
$unwind$??A?$tvec3@_N$0A@@glm@@QEAAAEA_NH@Z DD 020e01H
	DD	0700a320eH
xdata	ENDS
;	COMDAT xdata
xdata	SEGMENT
$unwind$?length@?$tvec3@_N$0A@@glm@@SAHXZ DD 010201H
	DD	07002H
xdata	ENDS
;	COMDAT xdata
xdata	SEGMENT
$unwind$??$epsilonEqual@M$0A@Utvec3@glm@@@glm@@YA?AU?$tvec3@_N$0A@@0@AEBU?$tvec3@M$0A@@0@0AEBM@Z DD 021901H
	DD	070159219H
xdata	ENDS
;	COMDAT xdata
xdata	SEGMENT
$unwind$??$?9M$0A@@glm@@YA_NAEBU?$tquat@M$0A@@0@0@Z DD 020f01H
	DD	0700b120fH
xdata	ENDS
;	COMDAT xdata
xdata	SEGMENT
$unwind$??$?XM@?$tquat@M$0A@@glm@@QEAAAEAU01@AEBU01@@Z DD 042c01H
	DD	0110113H
	DD	0600b700cH
xdata	ENDS
;	COMDAT CONST
CONST	SEGMENT
??$?XM@?$tquat@M$0A@@glm@@QEAAAEAU01@AEBU01@@Z$rtcName$0 DB 070H ; glm::tquat<float,0>::operator*=<float>
	DB	00H
	ORG $+2
??$?XM@?$tquat@M$0A@@glm@@QEAAAEAU01@AEBU01@@Z$rtcName$1 DB 071H ; glm::tquat<float,0>::operator*=<float>
	DB	00H
	ORG $+10
??$?XM@?$tquat@M$0A@@glm@@QEAAAEAU01@AEBU01@@Z$rtcVarDesc DD 058H ; glm::tquat<float,0>::operator*=<float>
	DD	010H
	DQ	FLAT:??$?XM@?$tquat@M$0A@@glm@@QEAAAEAU01@AEBU01@@Z$rtcName$1
	DD	028H
	DD	010H
	DQ	FLAT:??$?XM@?$tquat@M$0A@@glm@@QEAAAEAU01@AEBU01@@Z$rtcName$0
	ORG $+96
??$?XM@?$tquat@M$0A@@glm@@QEAAAEAU01@AEBU01@@Z$rtcFrameData DD 02H ; glm::tquat<float,0>::operator*=<float>
	DD	00H
	DQ	FLAT:??$?XM@?$tquat@M$0A@@glm@@QEAAAEAU01@AEBU01@@Z$rtcVarDesc
CONST	ENDS
;	COMDAT xdata
xdata	SEGMENT
$unwind$??$?DM$0A@@glm@@YA?AU?$tquat@M$0A@@0@AEBU10@0@Z DD 031501H
	DD	070116215H
	DD	06010H
xdata	ENDS
;	COMDAT xdata
xdata	SEGMENT
$unwind$??$?DM$0A@@glm@@YA?AU?$tvec3@M$0A@@0@AEBU10@AEBU?$tquat@M$0A@@0@@Z DD 021401H
	DD	070105214H
xdata	ENDS
;	COMDAT xdata
xdata	SEGMENT
$unwind$??$inverse@M$0A@@glm@@YA?AU?$tquat@M$0A@@0@AEBU10@@Z DD 020f01H
	DD	0700b720fH
xdata	ENDS
;	COMDAT xdata
xdata	SEGMENT
$unwind$??$?DM$0A@@glm@@YA?AU?$tvec3@M$0A@@0@AEBU?$tquat@M$0A@@0@AEBU10@@Z DD 033001H
	DD	01a0117H
	DD	07010H
xdata	ENDS
;	COMDAT CONST
CONST	SEGMENT
??$?DM$0A@@glm@@YA?AU?$tvec3@M$0A@@0@AEBU?$tquat@M$0A@@0@AEBU10@@Z$rtcName$0 DB 051H ; glm::operator*<float,0>
	DB	075H
	DB	061H
	DB	074H
	DB	056H
	DB	065H
	DB	063H
	DB	074H
	DB	06fH
	DB	072H
	DB	00H
	ORG $+1
??$?DM$0A@@glm@@YA?AU?$tvec3@M$0A@@0@AEBU?$tquat@M$0A@@0@AEBU10@@Z$rtcName$1 DB 075H ; glm::operator*<float,0>
	DB	076H
	DB	00H
	ORG $+1
??$?DM$0A@@glm@@YA?AU?$tvec3@M$0A@@0@AEBU?$tquat@M$0A@@0@AEBU10@@Z$rtcName$2 DB 075H ; glm::operator*<float,0>
	DB	075H
	DB	076H
	DB	00H
	ORG $+12
??$?DM$0A@@glm@@YA?AU?$tvec3@M$0A@@0@AEBU?$tquat@M$0A@@0@AEBU10@@Z$rtcVarDesc DD 088H ; glm::operator*<float,0>
	DD	0cH
	DQ	FLAT:??$?DM$0A@@glm@@YA?AU?$tvec3@M$0A@@0@AEBU?$tquat@M$0A@@0@AEBU10@@Z$rtcName$2
	DD	058H
	DD	0cH
	DQ	FLAT:??$?DM$0A@@glm@@YA?AU?$tvec3@M$0A@@0@AEBU?$tquat@M$0A@@0@AEBU10@@Z$rtcName$1
	DD	028H
	DD	0cH
	DQ	FLAT:??$?DM$0A@@glm@@YA?AU?$tvec3@M$0A@@0@AEBU?$tquat@M$0A@@0@AEBU10@@Z$rtcName$0
	ORG $+144
??$?DM$0A@@glm@@YA?AU?$tvec3@M$0A@@0@AEBU?$tquat@M$0A@@0@AEBU10@@Z$rtcFrameData DD 03H ; glm::operator*<float,0>
	DD	00H
	DQ	FLAT:??$?DM$0A@@glm@@YA?AU?$tvec3@M$0A@@0@AEBU?$tquat@M$0A@@0@AEBU10@@Z$rtcVarDesc
CONST	ENDS
;	COMDAT xdata
xdata	SEGMENT
$unwind$??$?0NNN@?$tvec3@M$0A@@glm@@QEAA@NNN@Z DD 011801H
	DD	07018H
xdata	ENDS
;	COMDAT xdata
xdata	SEGMENT
$unwind$??$dot@M$0A@Utquat@glm@@@glm@@YAMAEBU?$tquat@M$0A@@0@0@Z DD 020f01H
	DD	0700b520fH
xdata	ENDS
;	COMDAT xdata
xdata	SEGMENT
$unwind$??$?GM$0A@@glm@@YA?AU?$tquat@M$0A@@0@AEBU10@@Z DD 020f01H
	DD	0700b720fH
xdata	ENDS
;	COMDAT xdata
xdata	SEGMENT
$unwind$??$all@$0A@Utvec4@glm@@@glm@@YA_NAEBU?$tvec4@_N$0A@@0@@Z DD 020a01H
	DD	07006520aH
xdata	ENDS
;	COMDAT xdata
xdata	SEGMENT
$unwind$??0?$tvec4@_N$0A@@glm@@QEAA@W4ctor@1@@Z DD 010a01H
	DD	0700aH
xdata	ENDS
;	COMDAT xdata
xdata	SEGMENT
$unwind$??A?$tvec4@_N$0A@@glm@@QEBAAEB_NH@Z DD 020e01H
	DD	0700a320eH
xdata	ENDS
;	COMDAT xdata
xdata	SEGMENT
$unwind$??A?$tvec4@_N$0A@@glm@@QEAAAEA_NH@Z DD 020e01H
	DD	0700a320eH
xdata	ENDS
;	COMDAT xdata
xdata	SEGMENT
$unwind$?length@?$tvec4@_N$0A@@glm@@SAHXZ DD 010201H
	DD	07002H
xdata	ENDS
;	COMDAT xdata
xdata	SEGMENT
$unwind$??$epsilonEqual@M$0A@@glm@@YA?AU?$tvec4@_N$0A@@0@AEBU?$tquat@M$0A@@0@0AEBM@Z DD 023501H
	DD	07015f21cH
xdata	ENDS
;	COMDAT CONST
CONST	SEGMENT
??$epsilonEqual@M$0A@@glm@@YA?AU?$tvec4@_N$0A@@0@AEBU?$tquat@M$0A@@0@0AEBM@Z$rtcName$0 DB 076H ; glm::epsilonEqual<float,0>
	DB	00H
	ORG $+14
??$epsilonEqual@M$0A@@glm@@YA?AU?$tvec4@_N$0A@@0@AEBU?$tquat@M$0A@@0@0AEBM@Z$rtcVarDesc DD 038H ; glm::epsilonEqual<float,0>
	DD	010H
	DQ	FLAT:??$epsilonEqual@M$0A@@glm@@YA?AU?$tvec4@_N$0A@@0@AEBU?$tquat@M$0A@@0@0AEBM@Z$rtcName$0
	ORG $+48
??$epsilonEqual@M$0A@@glm@@YA?AU?$tvec4@_N$0A@@0@AEBU?$tquat@M$0A@@0@0AEBM@Z$rtcFrameData DD 01H ; glm::epsilonEqual<float,0>
	DD	00H
	DQ	FLAT:??$epsilonEqual@M$0A@@glm@@YA?AU?$tvec4@_N$0A@@0@AEBU?$tquat@M$0A@@0@0AEBM@Z$rtcVarDesc
CONST	ENDS
;	COMDAT xdata
xdata	SEGMENT
$unwind$??$slerp@M$0A@@glm@@YA?AU?$tquat@M$0A@@0@AEBU10@0M@Z DD 043701H
	DD	019011eH
	DD	060167017H
xdata	ENDS
;	COMDAT CONST
CONST	SEGMENT
??$slerp@M$0A@@glm@@YA?AU?$tquat@M$0A@@0@AEBU10@0M@Z$rtcName$0 DB 07aH ; glm::slerp<float,0>
	DB	00H
	ORG $+14
??$slerp@M$0A@@glm@@YA?AU?$tquat@M$0A@@0@AEBU10@0M@Z$rtcVarDesc DD 038H ; glm::slerp<float,0>
	DD	010H
	DQ	FLAT:??$slerp@M$0A@@glm@@YA?AU?$tquat@M$0A@@0@AEBU10@0M@Z$rtcName$0
	ORG $+48
??$slerp@M$0A@@glm@@YA?AU?$tquat@M$0A@@0@AEBU10@0M@Z$rtcFrameData DD 01H ; glm::slerp<float,0>
	DD	00H
	DQ	FLAT:??$slerp@M$0A@@glm@@YA?AU?$tquat@M$0A@@0@AEBU10@0M@Z$rtcVarDesc
CONST	ENDS
;	COMDAT xdata
xdata	SEGMENT
$unwind$??$eulerAngles@N$0A@@glm@@YA?AU?$tvec3@N$0A@@0@AEBU?$tquat@N$0A@@0@@Z DD 020f01H
	DD	0700b520fH
xdata	ENDS
;	COMDAT xdata
xdata	SEGMENT
$unwind$??0?$tvec3@N$0A@@glm@@QEAA@NNN@Z DD 011801H
	DD	07018H
xdata	ENDS
;	COMDAT xdata
xdata	SEGMENT
$unwind$??$yaw@N$0A@@glm@@YANAEBU?$tquat@N$0A@@0@@Z DD 020a01H
	DD	07006520aH
xdata	ENDS
;	COMDAT xdata
xdata	SEGMENT
$unwind$??$pitch@N$0A@@glm@@YANAEBU?$tquat@N$0A@@0@@Z DD 020a01H
	DD	07006720aH
xdata	ENDS
;	COMDAT xdata
xdata	SEGMENT
$unwind$??$roll@N$0A@@glm@@YANAEBU?$tquat@N$0A@@0@@Z DD 020a01H
	DD	07006720aH
xdata	ENDS
;	COMDAT xdata
xdata	SEGMENT
$unwind$??0?$tquat@N$0A@@glm@@QEAA@AEBN000@Z DD 011501H
	DD	07015H
xdata	ENDS
;	COMDAT xdata
xdata	SEGMENT
$unwind$??0?$tquat@N$0A@@glm@@QEAA@XZ DD 010601H
	DD	07006H
xdata	ENDS
;	COMDAT xdata
xdata	SEGMENT
$unwind$?length@?$tquat@N$0A@@glm@@SAHXZ DD 010201H
	DD	07002H
xdata	ENDS
;	COMDAT xdata
xdata	SEGMENT
$unwind$??$eulerAngles@M$0A@@glm@@YA?AU?$tvec3@M$0A@@0@AEBU?$tquat@M$0A@@0@@Z DD 020f01H
	DD	0700b520fH
xdata	ENDS
;	COMDAT xdata
xdata	SEGMENT
$unwind$??$yaw@M$0A@@glm@@YAMAEBU?$tquat@M$0A@@0@@Z DD 020a01H
	DD	07006520aH
xdata	ENDS
;	COMDAT xdata
xdata	SEGMENT
$unwind$??$pitch@M$0A@@glm@@YAMAEBU?$tquat@M$0A@@0@@Z DD 020a01H
	DD	07006720aH
xdata	ENDS
;	COMDAT xdata
xdata	SEGMENT
$unwind$??$roll@M$0A@@glm@@YAMAEBU?$tquat@M$0A@@0@@Z DD 020a01H
	DD	07006720aH
xdata	ENDS
;	COMDAT xdata
xdata	SEGMENT
$unwind$??$mix@M$0A@@glm@@YA?AU?$tquat@M$0A@@0@AEBU10@0M@Z DD 031d01H
	DD	012011dH
	DD	07016H
xdata	ENDS
;	COMDAT xdata
xdata	SEGMENT
$unwind$??$normalize@M$0A@Utvec3@glm@@@glm@@YA?AU?$tvec3@M$0A@@0@AEBU10@@Z DD 020f01H
	DD	0700b320fH
xdata	ENDS
;	COMDAT xdata
xdata	SEGMENT
$unwind$??$angle@M$0A@@glm@@YAMAEBU?$tquat@M$0A@@0@@Z DD 020a01H
	DD	07006520aH
xdata	ENDS
;	COMDAT xdata
xdata	SEGMENT
$unwind$??0?$tvec4@M$0A@@glm@@QEAA@MMMM@Z DD 011801H
	DD	07018H
xdata	ENDS
;	COMDAT xdata
xdata	SEGMENT
$unwind$??0?$tvec4@M$0A@@glm@@QEAA@M@Z DD 010c01H
	DD	0700cH
xdata	ENDS
;	COMDAT xdata
xdata	SEGMENT
$unwind$??A?$tvec4@M$0A@@glm@@QEBAAEBMH@Z DD 020e01H
	DD	0700a320eH
xdata	ENDS
;	COMDAT xdata
xdata	SEGMENT
$unwind$?length@?$tvec4@M$0A@@glm@@SAHXZ DD 010201H
	DD	07002H
xdata	ENDS
;	COMDAT xdata
xdata	SEGMENT
$unwind$??$length@M$0A@@glm@@YAMAEBU?$tquat@M$0A@@0@@Z DD 020a01H
	DD	07006520aH
xdata	ENDS
;	COMDAT xdata
xdata	SEGMENT
$unwind$??$normalize@M$0A@@glm@@YA?AU?$tquat@M$0A@@0@AEBU10@@Z DD 020f01H
	DD	0700bb20fH
xdata	ENDS
;	COMDAT xdata
xdata	SEGMENT
$unwind$??$angleAxis@M$0A@@glm@@YA?AU?$tquat@M$0A@@0@AEBMAEBU?$tvec3@M$0A@@0@@Z DD 032b01H
	DD	07011a215H
	DD	06010H
xdata	ENDS
;	COMDAT CONST
CONST	SEGMENT
??$angleAxis@M$0A@@glm@@YA?AU?$tquat@M$0A@@0@AEBMAEBU?$tvec3@M$0A@@0@@Z$rtcName$0 DB 052H ; glm::angleAxis<float,0>
	DB	065H
	DB	073H
	DB	075H
	DB	06cH
	DB	074H
	DB	00H
	ORG $+9
??$angleAxis@M$0A@@glm@@YA?AU?$tquat@M$0A@@0@AEBMAEBU?$tvec3@M$0A@@0@@Z$rtcVarDesc DD 028H ; glm::angleAxis<float,0>
	DD	010H
	DQ	FLAT:??$angleAxis@M$0A@@glm@@YA?AU?$tquat@M$0A@@0@AEBMAEBU?$tvec3@M$0A@@0@@Z$rtcName$0
	ORG $+48
??$angleAxis@M$0A@@glm@@YA?AU?$tquat@M$0A@@0@AEBMAEBU?$tvec3@M$0A@@0@@Z$rtcFrameData DD 01H ; glm::angleAxis<float,0>
	DD	00H
	DQ	FLAT:??$angleAxis@M$0A@@glm@@YA?AU?$tquat@M$0A@@0@AEBMAEBU?$tvec3@M$0A@@0@@Z$rtcVarDesc
CONST	ENDS
;	COMDAT xdata
xdata	SEGMENT
$unwind$??$?0HHH@?$tvec3@M$0A@@glm@@QEAA@HHH@Z DD 011401H
	DD	07014H
xdata	ENDS
;	COMDAT xdata
xdata	SEGMENT
$unwind$??0?$tvec3@M$0A@@glm@@QEAA@MMM@Z DD 011801H
	DD	07018H
xdata	ENDS
;	COMDAT xdata
xdata	SEGMENT
$unwind$??0?$tvec3@M$0A@@glm@@QEAA@M@Z DD 010c01H
	DD	0700cH
xdata	ENDS
;	COMDAT xdata
xdata	SEGMENT
$unwind$??A?$tvec3@M$0A@@glm@@QEBAAEBMH@Z DD 020e01H
	DD	0700a320eH
xdata	ENDS
;	COMDAT xdata
xdata	SEGMENT
$unwind$?length@?$tvec3@M$0A@@glm@@SAHXZ DD 010201H
	DD	07002H
xdata	ENDS
;	COMDAT xdata
xdata	SEGMENT
$unwind$??$pi@M@glm@@YAMXZ DD 020601H
	DD	070021206H
xdata	ENDS
;	COMDAT xdata
xdata	SEGMENT
$unwind$??0?$tquat@M$0A@@glm@@QEAA@AEBU?$tvec3@M$0A@@1@0@Z DD 043101H
	DD	0150118H
	DD	060107011H
xdata	ENDS
;	COMDAT CONST
CONST	SEGMENT
??0?$tquat@M$0A@@glm@@QEAA@AEBU?$tvec3@M$0A@@1@0@Z$rtcName$0 DB 04cH ; glm::tquat<float,0>::tquat<float,0>
	DB	06fH
	DB	063H
	DB	061H
	DB	06cH
	DB	057H
	DB	00H
	ORG $+1
??0?$tquat@M$0A@@glm@@QEAA@AEBU?$tvec3@M$0A@@1@0@Z$rtcName$1 DB 071H ; glm::tquat<float,0>::tquat<float,0>
	DB	00H
	ORG $+6
??0?$tquat@M$0A@@glm@@QEAA@AEBU?$tvec3@M$0A@@1@0@Z$rtcVarDesc DD 068H ; glm::tquat<float,0>::tquat<float,0>
	DD	010H
	DQ	FLAT:??0?$tquat@M$0A@@glm@@QEAA@AEBU?$tvec3@M$0A@@1@0@Z$rtcName$1
	DD	038H
	DD	0cH
	DQ	FLAT:??0?$tquat@M$0A@@glm@@QEAA@AEBU?$tvec3@M$0A@@1@0@Z$rtcName$0
	ORG $+96
??0?$tquat@M$0A@@glm@@QEAA@AEBU?$tvec3@M$0A@@1@0@Z$rtcFrameData DD 02H ; glm::tquat<float,0>::tquat<float,0>
	DD	00H
	DQ	FLAT:??0?$tquat@M$0A@@glm@@QEAA@AEBU?$tvec3@M$0A@@1@0@Z$rtcVarDesc
CONST	ENDS
;	COMDAT xdata
xdata	SEGMENT
$unwind$??0?$tquat@M$0A@@glm@@QEAA@AEBM000@Z DD 011501H
	DD	07015H
xdata	ENDS
;	COMDAT xdata
xdata	SEGMENT
$unwind$??0?$tquat@M$0A@@glm@@QEAA@AEBMAEBU?$tvec3@M$0A@@1@@Z DD 011001H
	DD	07010H
xdata	ENDS
;	COMDAT xdata
xdata	SEGMENT
$unwind$??0?$tquat@M$0A@@glm@@QEAA@W4ctor@1@@Z DD 010a01H
	DD	0700aH
xdata	ENDS
;	COMDAT xdata
xdata	SEGMENT
$unwind$??0?$tquat@M$0A@@glm@@QEAA@XZ DD 010601H
	DD	07006H
xdata	ENDS
;	COMDAT xdata
xdata	SEGMENT
$unwind$?length@?$tquat@M$0A@@glm@@SAHXZ DD 010201H
	DD	07002H
xdata	ENDS
xdata	SEGMENT
$unwind$?test_quat_angle@@YAHXZ DD 031a01H
	DD	0540109H
	DD	07002H
$unwind$?test_quat_angleAxis@@YAHXZ DD 031a01H
	DD	0280109H
	DD	07002H
$unwind$?test_quat_mix@@YAHXZ DD 031a01H
	DD	0280109H
	DD	07002H
$unwind$?test_quat_precision@@YAHXZ DD 020601H
	DD	070021206H
$unwind$?test_quat_normalize@@YAHXZ DD 031a01H
	DD	0400109H
	DD	07002H
$unwind$?test_quat_euler@@YAHXZ DD 031a01H
	DD	02a0109H
	DD	07002H
$unwind$?test_quat_slerp@@YAHXZ DD 031a01H
	DD	0860109H
	DD	07002H
$unwind$?test_quat_mul@@YAHXZ DD 031a01H
	DD	04e0109H
	DD	07002H
$unwind$?test_quat_two_axis_ctr@@YAHXZ DD 031a01H
	DD	02a0109H
	DD	07002H
$unwind$?test_quat_type@@YAHXZ DD 031a01H
	DD	0120109H
	DD	07002H
$unwind$?test_quat_mul_vec@@YAHXZ DD 031a01H
	DD	0200109H
	DD	07002H
$unwind$?test_quat_ctr@@YAHXZ DD 041b01H
	DD	029010aH
	DD	060027003H
$unwind$?test_size@@YAHXZ DD 020601H
	DD	07002d206H
$unwind$main DD	020601H
	DD	070025206H
xdata	ENDS
CONST	SEGMENT
?test_quat_angle@@YAHXZ$rtcName$0 DB 051H		; test_quat_angle
	DB	00H
	ORG $+2
?test_quat_angle@@YAHXZ$rtcName$1 DB 04eH		; test_quat_angle
	DB	00H
	ORG $+2
?test_quat_angle@@YAHXZ$rtcName$2 DB 04cH		; test_quat_angle
	DB	00H
	ORG $+2
?test_quat_angle@@YAHXZ$rtcName$3 DB 041H		; test_quat_angle
	DB	00H
	ORG $+2
?test_quat_angle@@YAHXZ$rtcName$4 DB 051H		; test_quat_angle
	DB	00H
	ORG $+2
?test_quat_angle@@YAHXZ$rtcName$5 DB 04eH		; test_quat_angle
	DB	00H
	ORG $+2
?test_quat_angle@@YAHXZ$rtcName$6 DB 04cH		; test_quat_angle
	DB	00H
	ORG $+2
?test_quat_angle@@YAHXZ$rtcName$7 DB 041H		; test_quat_angle
	DB	00H
	ORG $+2
?test_quat_angle@@YAHXZ$rtcName$8 DB 051H		; test_quat_angle
	DB	00H
	ORG $+2
?test_quat_angle@@YAHXZ$rtcName$9 DB 04eH		; test_quat_angle
	DB	00H
	ORG $+2
?test_quat_angle@@YAHXZ$rtcName$10 DB 04cH		; test_quat_angle
	DB	00H
	ORG $+2
?test_quat_angle@@YAHXZ$rtcName$11 DB 041H		; test_quat_angle
	DB	00H
	ORG $+6
?test_quat_angle@@YAHXZ$rtcFrameData DD 0cH		; test_quat_angle
	DD	00H
	DQ	FLAT:?test_quat_angle@@YAHXZ$rtcVarDesc
?test_quat_angleAxis@@YAHXZ$rtcName$0 DB 041H		; test_quat_angleAxis
	DB	00H
	ORG $+6
?test_quat_angle@@YAHXZ$rtcVarDesc DD 01f4H		; test_quat_angle
	DD	04H
	DQ	FLAT:?test_quat_angle@@YAHXZ$rtcName$11
	DD	01d4H
	DD	04H
	DQ	FLAT:?test_quat_angle@@YAHXZ$rtcName$10
	DD	01a8H
	DD	010H
	DQ	FLAT:?test_quat_angle@@YAHXZ$rtcName$9
	DD	0178H
	DD	010H
	DQ	FLAT:?test_quat_angle@@YAHXZ$rtcName$8
	DD	0154H
	DD	04H
	DQ	FLAT:?test_quat_angle@@YAHXZ$rtcName$7
	DD	0134H
	DD	04H
	DQ	FLAT:?test_quat_angle@@YAHXZ$rtcName$6
	DD	0108H
	DD	010H
	DQ	FLAT:?test_quat_angle@@YAHXZ$rtcName$5
	DD	0d8H
	DD	010H
	DQ	FLAT:?test_quat_angle@@YAHXZ$rtcName$4
	DD	0b4H
	DD	04H
	DQ	FLAT:?test_quat_angle@@YAHXZ$rtcName$3
	DD	094H
	DD	04H
	DQ	FLAT:?test_quat_angle@@YAHXZ$rtcName$2
	DD	068H
	DD	010H
	DQ	FLAT:?test_quat_angle@@YAHXZ$rtcName$1
	DD	038H
	DD	010H
	DQ	FLAT:?test_quat_angle@@YAHXZ$rtcName$0
	ORG $+576
?test_quat_angleAxis@@YAHXZ$rtcName$1 DB 042H		; test_quat_angleAxis
	DB	00H
	ORG $+2
?test_quat_angleAxis@@YAHXZ$rtcName$2 DB 043H		; test_quat_angleAxis
	DB	00H
	ORG $+2
?test_quat_angleAxis@@YAHXZ$rtcName$3 DB 044H		; test_quat_angleAxis
	DB	00H
	ORG $+6
?test_quat_angleAxis@@YAHXZ$rtcVarDesc DD 0c8H		; test_quat_angleAxis
	DD	010H
	DQ	FLAT:?test_quat_angleAxis@@YAHXZ$rtcName$3
	DD	098H
	DD	010H
	DQ	FLAT:?test_quat_angleAxis@@YAHXZ$rtcName$2
	DD	068H
	DD	010H
	DQ	FLAT:?test_quat_angleAxis@@YAHXZ$rtcName$1
	DD	038H
	DD	010H
	DQ	FLAT:?test_quat_angleAxis@@YAHXZ$rtcName$0
	ORG $+192
?test_quat_angleAxis@@YAHXZ$rtcFrameData DD 04H		; test_quat_angleAxis
	DD	00H
	DQ	FLAT:?test_quat_angleAxis@@YAHXZ$rtcVarDesc
?test_quat_mix@@YAHXZ$rtcName$0 DB 041H			; test_quat_mix
	DB	00H
	ORG $+2
?test_quat_mix@@YAHXZ$rtcName$1 DB 042H			; test_quat_mix
	DB	00H
	ORG $+2
?test_quat_mix@@YAHXZ$rtcName$2 DB 043H			; test_quat_mix
	DB	00H
	ORG $+2
?test_quat_mix@@YAHXZ$rtcName$3 DB 044H			; test_quat_mix
	DB	00H
	ORG $+2
?test_quat_mix@@YAHXZ$rtcVarDesc DD 0c8H		; test_quat_mix
	DD	010H
	DQ	FLAT:?test_quat_mix@@YAHXZ$rtcName$3
	DD	098H
	DD	010H
	DQ	FLAT:?test_quat_mix@@YAHXZ$rtcName$2
	DD	068H
	DD	010H
	DQ	FLAT:?test_quat_mix@@YAHXZ$rtcName$1
	DD	038H
	DD	010H
	DQ	FLAT:?test_quat_mix@@YAHXZ$rtcName$0
	ORG $+192
?test_quat_mix@@YAHXZ$rtcFrameData DD 04H		; test_quat_mix
	DD	00H
	DQ	FLAT:?test_quat_mix@@YAHXZ$rtcVarDesc
?test_quat_normalize@@YAHXZ$rtcName$0 DB 051H		; test_quat_normalize
	DB	00H
	ORG $+2
?test_quat_normalize@@YAHXZ$rtcName$1 DB 04eH		; test_quat_normalize
	DB	00H
	ORG $+2
?test_quat_normalize@@YAHXZ$rtcName$2 DB 04cH		; test_quat_normalize
	DB	00H
	ORG $+2
?test_quat_normalize@@YAHXZ$rtcName$3 DB 051H		; test_quat_normalize
	DB	00H
	ORG $+2
?test_quat_normalize@@YAHXZ$rtcName$4 DB 04eH		; test_quat_normalize
	DB	00H
	ORG $+2
?test_quat_normalize@@YAHXZ$rtcName$5 DB 04cH		; test_quat_normalize
	DB	00H
	ORG $+2
?test_quat_normalize@@YAHXZ$rtcName$6 DB 051H		; test_quat_normalize
	DB	00H
	ORG $+2
?test_quat_normalize@@YAHXZ$rtcName$7 DB 04eH		; test_quat_normalize
	DB	00H
	ORG $+2
?test_quat_normalize@@YAHXZ$rtcName$8 DB 04cH		; test_quat_normalize
	DB	00H
	ORG $+6
?test_quat_normalize@@YAHXZ$rtcFrameData DD 09H		; test_quat_normalize
	DD	00H
	DQ	FLAT:?test_quat_normalize@@YAHXZ$rtcVarDesc
?test_quat_euler@@YAHXZ$rtcName$0 DB 071H		; test_quat_euler
	DB	00H
	ORG $+6
?test_quat_normalize@@YAHXZ$rtcVarDesc DD 0194H		; test_quat_normalize
	DD	04H
	DQ	FLAT:?test_quat_normalize@@YAHXZ$rtcName$8
	DD	0168H
	DD	010H
	DQ	FLAT:?test_quat_normalize@@YAHXZ$rtcName$7
	DD	0138H
	DD	010H
	DQ	FLAT:?test_quat_normalize@@YAHXZ$rtcName$6
	DD	0114H
	DD	04H
	DQ	FLAT:?test_quat_normalize@@YAHXZ$rtcName$5
	DD	0e8H
	DD	010H
	DQ	FLAT:?test_quat_normalize@@YAHXZ$rtcName$4
	DD	0b8H
	DD	010H
	DQ	FLAT:?test_quat_normalize@@YAHXZ$rtcName$3
	DD	094H
	DD	04H
	DQ	FLAT:?test_quat_normalize@@YAHXZ$rtcName$2
	DD	068H
	DD	010H
	DQ	FLAT:?test_quat_normalize@@YAHXZ$rtcName$1
	DD	038H
	DD	010H
	DQ	FLAT:?test_quat_normalize@@YAHXZ$rtcName$0
	ORG $+432
?test_quat_euler@@YAHXZ$rtcName$1 DB 041H		; test_quat_euler
	DB	06eH
	DB	067H
	DB	06cH
	DB	065H
	DB	073H
	DB	00H
	ORG $+1
?test_quat_euler@@YAHXZ$rtcName$2 DB 071H		; test_quat_euler
	DB	00H
	ORG $+2
?test_quat_euler@@YAHXZ$rtcName$3 DB 041H		; test_quat_euler
	DB	06eH
	DB	067H
	DB	06cH
	DB	065H
	DB	073H
	DB	00H
	ORG $+5
?test_quat_euler@@YAHXZ$rtcFrameData DD 04H		; test_quat_euler
	DD	00H
	DQ	FLAT:?test_quat_euler@@YAHXZ$rtcVarDesc
?test_quat_slerp@@YAHXZ$rtcName$0 DB 045H		; test_quat_slerp
	DB	070H
	DB	073H
	DB	069H
	DB	06cH
	DB	06fH
	DB	06eH
	DB	00H
?test_quat_euler@@YAHXZ$rtcVarDesc DD 0f8H		; test_quat_euler
	DD	018H
	DQ	FLAT:?test_quat_euler@@YAHXZ$rtcName$3
	DD	0a8H
	DD	020H
	DQ	FLAT:?test_quat_euler@@YAHXZ$rtcName$2
	DD	078H
	DD	0cH
	DQ	FLAT:?test_quat_euler@@YAHXZ$rtcName$1
	DD	048H
	DD	010H
	DQ	FLAT:?test_quat_euler@@YAHXZ$rtcName$0
	ORG $+192
?test_quat_slerp@@YAHXZ$rtcName$1 DB 073H		; test_quat_slerp
	DB	071H
	DB	072H
	DB	074H
	DB	032H
	DB	00H
	ORG $+2
?test_quat_slerp@@YAHXZ$rtcName$2 DB 069H		; test_quat_slerp
	DB	064H
	DB	00H
	ORG $+1
?test_quat_slerp@@YAHXZ$rtcName$3 DB 059H		; test_quat_slerp
	DB	039H
	DB	030H
	DB	072H
	DB	06fH
	DB	074H
	DB	00H
	ORG $+1
?test_quat_slerp@@YAHXZ$rtcName$5 DB 069H		; test_quat_slerp
	DB	064H
	DB	032H
	DB	00H
?test_quat_slerp@@YAHXZ$rtcName$4 DB 059H		; test_quat_slerp
	DB	031H
	DB	038H
	DB	030H
	DB	072H
	DB	06fH
	DB	074H
	DB	00H
?test_quat_slerp@@YAHXZ$rtcName$6 DB 059H		; test_quat_slerp
	DB	039H
	DB	030H
	DB	072H
	DB	06fH
	DB	074H
	DB	032H
	DB	00H
?test_quat_slerp@@YAHXZ$rtcName$7 DB 059H		; test_quat_slerp
	DB	034H
	DB	035H
	DB	072H
	DB	06fH
	DB	074H
	DB	031H
	DB	00H
?test_quat_slerp@@YAHXZ$rtcName$8 DB 059H		; test_quat_slerp
	DB	06dH
	DB	034H
	DB	035H
	DB	072H
	DB	06fH
	DB	074H
	DB	032H
	DB	00H
	ORG $+3
?test_quat_slerp@@YAHXZ$rtcName$16 DB 061H		; test_quat_slerp
	DB	00H
	ORG $+2
?test_quat_slerp@@YAHXZ$rtcName$9 DB 059H		; test_quat_slerp
	DB	034H
	DB	035H
	DB	072H
	DB	06fH
	DB	074H
	DB	033H
	DB	00H
?test_quat_slerp@@YAHXZ$rtcName$10 DB 059H		; test_quat_slerp
	DB	034H
	DB	035H
	DB	061H
	DB	06eH
	DB	067H
	DB	06cH
	DB	065H
	DB	033H
	DB	00H
	ORG $+2
?test_quat_slerp@@YAHXZ$rtcName$17 DB 072H		; test_quat_slerp
	DB	065H
	DB	073H
	DB	075H
	DB	06cH
	DB	074H
	DB	00H
	ORG $+1
?test_quat_two_axis_ctr@@YAHXZ$rtcName$0 DB 071H	; test_quat_two_axis_ctr
	DB	031H
	DB	00H
	ORG $+1
?test_quat_slerp@@YAHXZ$rtcName$11 DB 059H		; test_quat_slerp
	DB	034H
	DB	035H
	DB	072H
	DB	06fH
	DB	074H
	DB	034H
	DB	00H
?test_quat_slerp@@YAHXZ$rtcName$12 DB 059H		; test_quat_slerp
	DB	039H
	DB	030H
	DB	072H
	DB	06fH
	DB	074H
	DB	033H
	DB	00H
?test_quat_slerp@@YAHXZ$rtcName$13 DB 058H		; test_quat_slerp
	DB	05aH
	DB	039H
	DB	030H
	DB	072H
	DB	06fH
	DB	074H
	DB	00H
?test_quat_slerp@@YAHXZ$rtcName$14 DB 058H		; test_quat_slerp
	DB	05aH
	DB	039H
	DB	030H
	DB	061H
	DB	06eH
	DB	067H
	DB	06cH
	DB	065H
	DB	00H
	ORG $+2
?test_quat_two_axis_ctr@@YAHXZ$rtcName$1 DB 076H	; test_quat_two_axis_ctr
	DB	031H
	DB	00H
	ORG $+1
?test_quat_slerp@@YAHXZ$rtcName$15 DB 061H		; test_quat_slerp
	DB	06cH
	DB	06dH
	DB	06fH
	DB	073H
	DB	074H
	DB	069H
	DB	064H
	DB	00H
	ORG $+7
?test_quat_slerp@@YAHXZ$rtcFrameData DD 012H		; test_quat_slerp
	DD	00H
	DQ	FLAT:?test_quat_slerp@@YAHXZ$rtcVarDesc
?test_quat_mul@@YAHXZ$rtcName$0 DB 074H			; test_quat_mul
	DB	065H
	DB	06dH
	DB	070H
	DB	031H
	DB	00H
	ORG $+2
?test_quat_slerp@@YAHXZ$rtcVarDesc DD 0338H		; test_quat_slerp
	DD	010H
	DQ	FLAT:?test_quat_slerp@@YAHXZ$rtcName$17
	DD	0308H
	DD	010H
	DQ	FLAT:?test_quat_slerp@@YAHXZ$rtcName$16
	DD	02d8H
	DD	010H
	DQ	FLAT:?test_quat_slerp@@YAHXZ$rtcName$15
	DD	02b4H
	DD	04H
	DQ	FLAT:?test_quat_slerp@@YAHXZ$rtcName$14
	DD	0288H
	DD	010H
	DQ	FLAT:?test_quat_slerp@@YAHXZ$rtcName$13
	DD	0258H
	DD	010H
	DQ	FLAT:?test_quat_slerp@@YAHXZ$rtcName$12
	DD	0228H
	DD	010H
	DQ	FLAT:?test_quat_slerp@@YAHXZ$rtcName$11
	DD	0204H
	DD	04H
	DQ	FLAT:?test_quat_slerp@@YAHXZ$rtcName$10
	DD	01d8H
	DD	010H
	DQ	FLAT:?test_quat_slerp@@YAHXZ$rtcName$9
	DD	01a8H
	DD	010H
	DQ	FLAT:?test_quat_slerp@@YAHXZ$rtcName$8
	DD	0178H
	DD	010H
	DQ	FLAT:?test_quat_slerp@@YAHXZ$rtcName$7
	DD	0148H
	DD	010H
	DQ	FLAT:?test_quat_slerp@@YAHXZ$rtcName$6
	DD	0118H
	DD	010H
	DQ	FLAT:?test_quat_slerp@@YAHXZ$rtcName$5
	DD	0e8H
	DD	010H
	DQ	FLAT:?test_quat_slerp@@YAHXZ$rtcName$4
	DD	0b8H
	DD	010H
	DQ	FLAT:?test_quat_slerp@@YAHXZ$rtcName$3
	DD	088H
	DD	010H
	DQ	FLAT:?test_quat_slerp@@YAHXZ$rtcName$2
	DD	064H
	DD	04H
	DQ	FLAT:?test_quat_slerp@@YAHXZ$rtcName$1
	DD	044H
	DD	04H
	DQ	FLAT:?test_quat_slerp@@YAHXZ$rtcName$0
	ORG $+864
?test_quat_mul@@YAHXZ$rtcName$1 DB 074H			; test_quat_mul
	DB	065H
	DB	06dH
	DB	070H
	DB	032H
	DB	00H
	ORG $+2
?test_quat_mul@@YAHXZ$rtcName$2 DB 074H			; test_quat_mul
	DB	072H
	DB	061H
	DB	06eH
	DB	073H
	DB	066H
	DB	06fH
	DB	072H
	DB	06dH
	DB	065H
	DB	064H
	DB	030H
	DB	00H
	ORG $+3
?test_quat_mul@@YAHXZ$rtcName$3 DB 074H			; test_quat_mul
	DB	065H
	DB	06dH
	DB	070H
	DB	034H
	DB	00H
	ORG $+2
?test_quat_mul@@YAHXZ$rtcName$4 DB 074H			; test_quat_mul
	DB	065H
	DB	06dH
	DB	070H
	DB	035H
	DB	00H
	ORG $+2
?test_quat_mul@@YAHXZ$rtcName$5 DB 074H			; test_quat_mul
	DB	065H
	DB	06dH
	DB	070H
	DB	036H
	DB	00H
	ORG $+2
?test_quat_mul@@YAHXZ$rtcName$6 DB 074H			; test_quat_mul
	DB	065H
	DB	06dH
	DB	070H
	DB	037H
	DB	00H
	ORG $+2
?test_quat_mul@@YAHXZ$rtcFrameData DD 07H		; test_quat_mul
	DD	00H
	DQ	FLAT:?test_quat_mul@@YAHXZ$rtcVarDesc
?test_quat_two_axis_ctr@@YAHXZ$rtcName$2 DB 071H	; test_quat_two_axis_ctr
	DB	032H
	DB	00H
	ORG $+5
?test_quat_mul@@YAHXZ$rtcVarDesc DD 0158H		; test_quat_mul
	DD	010H
	DQ	FLAT:?test_quat_mul@@YAHXZ$rtcName$6
	DD	0128H
	DD	0cH
	DQ	FLAT:?test_quat_mul@@YAHXZ$rtcName$5
	DD	0f8H
	DD	010H
	DQ	FLAT:?test_quat_mul@@YAHXZ$rtcName$4
	DD	0c8H
	DD	0cH
	DQ	FLAT:?test_quat_mul@@YAHXZ$rtcName$3
	DD	098H
	DD	0cH
	DQ	FLAT:?test_quat_mul@@YAHXZ$rtcName$2
	DD	068H
	DD	010H
	DQ	FLAT:?test_quat_mul@@YAHXZ$rtcName$1
	DD	038H
	DD	010H
	DQ	FLAT:?test_quat_mul@@YAHXZ$rtcName$0
	ORG $+336
?test_quat_two_axis_ctr@@YAHXZ$rtcName$3 DB 076H	; test_quat_two_axis_ctr
	DB	032H
	DB	00H
	ORG $+5
?test_quat_two_axis_ctr@@YAHXZ$rtcFrameData DD 04H	; test_quat_two_axis_ctr
	DD	00H
	DQ	FLAT:?test_quat_two_axis_ctr@@YAHXZ$rtcVarDesc
?test_quat_type@@YAHXZ$rtcName$0 DB 041H		; test_quat_type
	DB	00H
	ORG $+6
?test_quat_two_axis_ctr@@YAHXZ$rtcVarDesc DD 0c8H	; test_quat_two_axis_ctr
	DD	0cH
	DQ	FLAT:?test_quat_two_axis_ctr@@YAHXZ$rtcName$3
	DD	098H
	DD	010H
	DQ	FLAT:?test_quat_two_axis_ctr@@YAHXZ$rtcName$2
	DD	068H
	DD	0cH
	DQ	FLAT:?test_quat_two_axis_ctr@@YAHXZ$rtcName$1
	DD	038H
	DD	010H
	DQ	FLAT:?test_quat_two_axis_ctr@@YAHXZ$rtcName$0
	ORG $+192
?test_quat_type@@YAHXZ$rtcName$1 DB 042H		; test_quat_type
	DB	00H
	ORG $+6
?test_quat_type@@YAHXZ$rtcFrameData DD 02H		; test_quat_type
	DD	00H
	DQ	FLAT:?test_quat_type@@YAHXZ$rtcVarDesc
?test_quat_mul_vec@@YAHXZ$rtcName$0 DB 071H		; test_quat_mul_vec
	DB	00H
	ORG $+6
?test_quat_type@@YAHXZ$rtcVarDesc DD 058H		; test_quat_type
	DD	020H
	DQ	FLAT:?test_quat_type@@YAHXZ$rtcName$1
	DD	028H
	DD	010H
	DQ	FLAT:?test_quat_type@@YAHXZ$rtcName$0
	ORG $+96
?test_quat_mul_vec@@YAHXZ$rtcName$1 DB 076H		; test_quat_mul_vec
	DB	00H
	ORG $+2
?test_quat_mul_vec@@YAHXZ$rtcName$2 DB 075H		; test_quat_mul_vec
	DB	00H
	ORG $+2
?test_quat_mul_vec@@YAHXZ$rtcName$3 DB 077H		; test_quat_mul_vec
	DB	00H
	ORG $+6
?test_quat_mul_vec@@YAHXZ$rtcVarDesc DD 0c8H		; test_quat_mul_vec
	DD	0cH
	DQ	FLAT:?test_quat_mul_vec@@YAHXZ$rtcName$3
	DD	098H
	DD	0cH
	DQ	FLAT:?test_quat_mul_vec@@YAHXZ$rtcName$2
	DD	068H
	DD	0cH
	DQ	FLAT:?test_quat_mul_vec@@YAHXZ$rtcName$1
	DD	038H
	DD	010H
	DQ	FLAT:?test_quat_mul_vec@@YAHXZ$rtcName$0
	ORG $+192
?test_quat_mul_vec@@YAHXZ$rtcFrameData DD 04H		; test_quat_mul_vec
	DD	00H
	DQ	FLAT:?test_quat_mul_vec@@YAHXZ$rtcVarDesc
?test_quat_ctr@@YAHXZ$rtcName$0 DB 041H			; test_quat_ctr
	DB	00H
	ORG $+2
?test_quat_ctr@@YAHXZ$rtcName$1 DB 042H			; test_quat_ctr
	DB	00H
	ORG $+2
?test_quat_ctr@@YAHXZ$rtcFrameData DD 02H		; test_quat_ctr
	DD	00H
	DQ	FLAT:?test_quat_ctr@@YAHXZ$rtcVarDesc
	ORG $+8
?test_quat_ctr@@YAHXZ$rtcVarDesc DD 078H		; test_quat_ctr
	DD	020H
	DQ	FLAT:?test_quat_ctr@@YAHXZ$rtcName$1
	DD	048H
	DD	010H
	DQ	FLAT:?test_quat_ctr@@YAHXZ$rtcName$0
CONST	ENDS
;	COMDAT xdata
xdata	SEGMENT
$unwind$??0_Basic_container_proxy_ptr12@std@@IEAA@XZ DD 010601H
	DD	07006H
xdata	ENDS
;	COMDAT xdata
xdata	SEGMENT
$unwind$?_Release@_Basic_container_proxy_ptr12@std@@QEAAXXZ DD 010601H
	DD	07006H
xdata	ENDS
;	COMDAT xdata
xdata	SEGMENT
$unwind$?_Orphan_all_locked_v3@_Container_base12@std@@AEAAXXZ DD 022001H
	DD	07006720aH
xdata	ENDS
;	COMDAT CONST
CONST	SEGMENT
?_Orphan_all_locked_v3@_Container_base12@std@@AEAAXXZ$rtcName$0 DB 05fH ; std::_Container_base12::_Orphan_all_locked_v3
	DB	04cH
	DB	06fH
	DB	063H
	DB	06bH
	DB	00H
	ORG $+10
?_Orphan_all_locked_v3@_Container_base12@std@@AEAAXXZ$rtcVarDesc DD 024H ; std::_Container_base12::_Orphan_all_locked_v3
	DD	04H
	DQ	FLAT:?_Orphan_all_locked_v3@_Container_base12@std@@AEAAXXZ$rtcName$0
	ORG $+48
?_Orphan_all_locked_v3@_Container_base12@std@@AEAAXXZ$rtcFrameData DD 01H ; std::_Container_base12::_Orphan_all_locked_v3
	DD	00H
	DQ	FLAT:?_Orphan_all_locked_v3@_Container_base12@std@@AEAAXXZ$rtcVarDesc
CONST	ENDS
;	COMDAT xdata
xdata	SEGMENT
$unwind$?_Orphan_all_unlocked_v3@_Container_base12@std@@AEAAXXZ DD 020a01H
	DD	07006120aH
xdata	ENDS
;	COMDAT xdata
xdata	SEGMENT
$unwind$?_Orphan_all@_Container_base12@std@@QEAAXXZ DD 020a01H
	DD	07006320aH
xdata	ENDS
;	COMDAT xdata
xdata	SEGMENT
$unwind$??0_Container_base12@std@@QEAA@XZ DD 010601H
	DD	07006H
xdata	ENDS
;	COMDAT xdata
xdata	SEGMENT
$unwind$??0_Container_proxy@std@@QEAA@PEAU_Container_base12@1@@Z DD 010b01H
	DD	0700bH
xdata	ENDS
;	COMDAT xdata
xdata	SEGMENT
$unwind$?_Adjust_manually_vector_aligned@std@@YAXAEAPEAXAEA_K@Z DD 020f01H
	DD	0700b920fH
xdata	ENDS
;	COMDAT xdata
xdata	SEGMENT
$unwind$?_Allocate@_Default_allocate_traits@std@@SAPEAX_K@Z DD 020a01H
	DD	07006320aH
xdata	ENDS
;	COMDAT xdata
xdata	SEGMENT
$unwind$?_Throw_bad_array_new_length@std@@YAXXZ DD 020601H
	DD	070027206H
xdata	ENDS
;	COMDAT xdata
xdata	SEGMENT
$unwind$??_Gbad_array_new_length@std@@UEAAPEAXI@Z DD 020e01H
	DD	0700a320eH
xdata	ENDS
;	COMDAT xdata
xdata	SEGMENT
$unwind$??0bad_array_new_length@std@@QEAA@AEBV01@@Z DD 020f01H
	DD	0700b320fH
xdata	ENDS
;	COMDAT xdata
xdata	SEGMENT
$unwind$??1bad_array_new_length@std@@UEAA@XZ DD 020a01H
	DD	07006320aH
xdata	ENDS
;	COMDAT xdata
xdata	SEGMENT
$unwind$??0bad_array_new_length@std@@QEAA@XZ DD 020a01H
	DD	07006320aH
xdata	ENDS
;	COMDAT xdata
xdata	SEGMENT
$unwind$??_Gbad_alloc@std@@UEAAPEAXI@Z DD 020e01H
	DD	0700a320eH
xdata	ENDS
;	COMDAT xdata
xdata	SEGMENT
$unwind$??0bad_alloc@std@@QEAA@AEBV01@@Z DD 020f01H
	DD	0700b320fH
xdata	ENDS
;	COMDAT xdata
xdata	SEGMENT
$unwind$??1bad_alloc@std@@UEAA@XZ DD 020a01H
	DD	07006320aH
xdata	ENDS
;	COMDAT xdata
xdata	SEGMENT
$unwind$??0bad_alloc@std@@AEAA@QEBD@Z DD 020f01H
	DD	0700b320fH
xdata	ENDS
;	COMDAT xdata
xdata	SEGMENT
$unwind$??_Gexception@std@@UEAAPEAXI@Z DD 020e01H
	DD	0700a320eH
xdata	ENDS
;	COMDAT xdata
xdata	SEGMENT
$unwind$?what@exception@std@@UEBAPEBDXZ DD 020a01H
	DD	07006120aH
xdata	ENDS
;	COMDAT xdata
xdata	SEGMENT
$unwind$??1exception@std@@UEAA@XZ DD 020a01H
	DD	07006320aH
xdata	ENDS
;	COMDAT xdata
xdata	SEGMENT
$unwind$??0exception@std@@QEAA@AEBV01@@Z DD 020f01H
	DD	0700b320fH
xdata	ENDS
;	COMDAT xdata
xdata	SEGMENT
$unwind$??0exception@std@@QEAA@QEBDH@Z DD 011001H
	DD	07010H
xdata	ENDS
;	COMDAT xdata
xdata	SEGMENT
$unwind$??$abs@M@glm@@YAMM@Z DD 020b01H
	DD	07007520bH
xdata	ENDS
;	COMDAT xdata
xdata	SEGMENT
$unwind$??$epsilonEqual@M@glm@@YA_NAEBM00@Z DD 021401H
	DD	070105214H
xdata	ENDS
;	COMDAT xdata
xdata	SEGMENT
$unwind$?sqrt@@YAMM@Z DD 020b01H
	DD	07007520bH
xdata	ENDS
;	COMDAT xdata
xdata	SEGMENT
$unwind$?sin@@YAMM@Z DD 020b01H
	DD	07007520bH
xdata	ENDS
;	COMDAT xdata
xdata	SEGMENT
$unwind$?pow@@YAMMM@Z DD 021101H
	DD	0700d5211H
xdata	ENDS
;	COMDAT xdata
xdata	SEGMENT
$unwind$?cos@@YAMM@Z DD 020b01H
	DD	07007520bH
xdata	ENDS
;	COMDAT xdata
xdata	SEGMENT
$unwind$?atan2@@YAMMM@Z DD 021101H
	DD	0700d5211H
xdata	ENDS
;	COMDAT xdata
xdata	SEGMENT
$unwind$?asin@@YAMM@Z DD 020b01H
	DD	07007520bH
xdata	ENDS
;	COMDAT xdata
xdata	SEGMENT
$unwind$?acos@@YAMM@Z DD 020b01H
	DD	07007520bH
xdata	ENDS
;	COMDAT xdata
xdata	SEGMENT
$unwind$??2@YAPEAX_KPEAX@Z DD 010b01H
	DD	0700bH
xdata	ENDS
;	COMDAT xdata
xdata	SEGMENT
$unwind$?epsilon@?$numeric_limits@M@std@@SAMXZ DD 020601H
	DD	070021206H
xdata	ENDS
;	COMDAT xdata
xdata	SEGMENT
$unwind$?max@?$numeric_limits@_J@std@@SA_JXZ DD 010201H
	DD	07002H
xdata	ENDS
; Function compile flags: /Odtp /RTCsu
; File C:\Program Files\Microsoft Visual Studio\2022\Community\VC\Tools\MSVC\14.32.31326\include\xutility
;	COMDAT ??$_Voidify_iter@PEAU?$tquat@M$0A@@glm@@@std@@YAPEAXPEAU?$tquat@M$0A@@glm@@@Z
_TEXT	SEGMENT
_It$ = 16
??$_Voidify_iter@PEAU?$tquat@M$0A@@glm@@@std@@YAPEAXPEAU?$tquat@M$0A@@glm@@@Z PROC ; std::_Voidify_iter<glm::tquat<float,0> *>, COMDAT

; 123  : _NODISCARD constexpr void* _Voidify_iter(_Iter _It) noexcept {

$LN3:
	mov	QWORD PTR [rsp+8], rcx
	push	rdi

; 124  :     if constexpr (is_pointer_v<_Iter>) {
; 125  :         return const_cast<void*>(static_cast<const volatile void*>(_It));

	mov	rax, QWORD PTR _It$[rsp]

; 126  :     } else {
; 127  :         return const_cast<void*>(static_cast<const volatile void*>(_STD addressof(*_It)));
; 128  :     }
; 129  : }

	pop	rdi
	ret	0
??$_Voidify_iter@PEAU?$tquat@M$0A@@glm@@@std@@YAPEAXPEAU?$tquat@M$0A@@glm@@@Z ENDP ; std::_Voidify_iter<glm::tquat<float,0> *>
_TEXT	ENDS
; Function compile flags: /Odtp /RTCsu
; File C:\Program Files\Microsoft Visual Studio\2022\Community\VC\Tools\MSVC\14.32.31326\include\xmemory
;	COMDAT ??$construct@U?$tquat@M$0A@@glm@@AEBU12@@?$_Default_allocator_traits@V?$allocator@U?$tquat@M$0A@@glm@@@std@@@std@@SAXAEAV?$allocator@U?$tquat@M$0A@@glm@@@1@QEAU?$tquat@M$0A@@glm@@AEBU34@@Z
_TEXT	SEGMENT
$T1 = 32
__formal$ = 80
_Ptr$ = 88
<_Args_0>$ = 96
??$construct@U?$tquat@M$0A@@glm@@AEBU12@@?$_Default_allocator_traits@V?$allocator@U?$tquat@M$0A@@glm@@@std@@@std@@SAXAEAV?$allocator@U?$tquat@M$0A@@glm@@@1@QEAU?$tquat@M$0A@@glm@@AEBU34@@Z PROC ; std::_Default_allocator_traits<std::allocator<glm::tquat<float,0> > >::construct<glm::tquat<float,0>,glm::tquat<float,0> const &>, COMDAT

; 673  :     static _CONSTEXPR20 void construct(_Alloc&, _Objty* const _Ptr, _Types&&... _Args) {

$LN3:
	mov	QWORD PTR [rsp+24], r8
	mov	QWORD PTR [rsp+16], rdx
	mov	QWORD PTR [rsp+8], rcx
	push	rsi
	push	rdi
	sub	rsp, 56					; 00000038H

; 674  : #if _HAS_CXX20
; 675  :         if (_STD is_constant_evaluated()) {
; 676  :             _STD construct_at(_Ptr, _STD forward<_Types>(_Args)...);
; 677  :         } else
; 678  : #endif // _HAS_CXX20
; 679  :         {
; 680  :             ::new (_Voidify_iter(_Ptr)) _Objty(_STD forward<_Types>(_Args)...);

	mov	rcx, QWORD PTR _Ptr$[rsp]
	call	??$_Voidify_iter@PEAU?$tquat@M$0A@@glm@@@std@@YAPEAXPEAU?$tquat@M$0A@@glm@@@Z ; std::_Voidify_iter<glm::tquat<float,0> *>
	mov	rdx, rax
	mov	ecx, 16
	call	??2@YAPEAX_KPEAX@Z			; operator new
	mov	QWORD PTR $T1[rsp], rax
	mov	rcx, QWORD PTR <_Args_0>$[rsp]
	call	??$forward@AEBU?$tquat@M$0A@@glm@@@std@@YAAEBU?$tquat@M$0A@@glm@@AEBU12@@Z ; std::forward<glm::tquat<float,0> const &>
	mov	rdi, QWORD PTR $T1[rsp]
	mov	rsi, rax
	mov	ecx, 16
	rep movsb

; 681  :         }
; 682  :     }

	add	rsp, 56					; 00000038H
	pop	rdi
	pop	rsi
	ret	0
??$construct@U?$tquat@M$0A@@glm@@AEBU12@@?$_Default_allocator_traits@V?$allocator@U?$tquat@M$0A@@glm@@@std@@@std@@SAXAEAV?$allocator@U?$tquat@M$0A@@glm@@@1@QEAU?$tquat@M$0A@@glm@@AEBU34@@Z ENDP ; std::_Default_allocator_traits<std::allocator<glm::tquat<float,0> > >::construct<glm::tquat<float,0>,glm::tquat<float,0> const &>
_TEXT	ENDS
; Function compile flags: /Odtp /RTCsu
; File C:\Program Files\Microsoft Visual Studio\2022\Community\VC\Tools\MSVC\14.32.31326\include\type_traits
;	COMDAT ??$forward@AEBU?$tquat@M$0A@@glm@@@std@@YAAEBU?$tquat@M$0A@@glm@@AEBU12@@Z
_TEXT	SEGMENT
_Arg$ = 16
??$forward@AEBU?$tquat@M$0A@@glm@@@std@@YAAEBU?$tquat@M$0A@@glm@@AEBU12@@Z PROC ; std::forward<glm::tquat<float,0> const &>, COMDAT

; 1341 :     remove_reference_t<_Ty>& _Arg) noexcept { // forward an lvalue as either an lvalue or an rvalue

$LN3:
	mov	QWORD PTR [rsp+8], rcx
	push	rdi

; 1342 :     return static_cast<_Ty&&>(_Arg);

	mov	rax, QWORD PTR _Arg$[rsp]

; 1343 : }

	pop	rdi
	ret	0
??$forward@AEBU?$tquat@M$0A@@glm@@@std@@YAAEBU?$tquat@M$0A@@glm@@AEBU12@@Z ENDP ; std::forward<glm::tquat<float,0> const &>
_TEXT	ENDS
; Function compile flags: /Odtp /RTCsu
; File C:\Program Files\Microsoft Visual Studio\2022\Community\VC\Tools\MSVC\14.32.31326\include\xutility
;	COMDAT ??$_To_address@PEAU?$tquat@M$0A@@glm@@@std@@YA?A_PAEBQEAU?$tquat@M$0A@@glm@@@Z
_TEXT	SEGMENT
_Val$ = 16
??$_To_address@PEAU?$tquat@M$0A@@glm@@@std@@YA?A_PAEBQEAU?$tquat@M$0A@@glm@@@Z PROC ; std::_To_address<glm::tquat<float,0> *>, COMDAT

; 3946 : _NODISCARD constexpr auto _To_address(const _Iter& _Val) noexcept {

$LN3:
	mov	QWORD PTR [rsp+8], rcx
	push	rdi

; 3947 :     _STL_INTERNAL_STATIC_ASSERT(is_pointer_v<_Iter>);
; 3948 :     return _Val;

	mov	rax, QWORD PTR _Val$[rsp]
	mov	rax, QWORD PTR [rax]

; 3949 : }

	pop	rdi
	ret	0
??$_To_address@PEAU?$tquat@M$0A@@glm@@@std@@YA?A_PAEBQEAU?$tquat@M$0A@@glm@@@Z ENDP ; std::_To_address<glm::tquat<float,0> *>
_TEXT	ENDS
; Function compile flags: /Odtp /RTCsu
; File C:\Program Files\Microsoft Visual Studio\2022\Community\VC\Tools\MSVC\14.32.31326\include\xutility
;	COMDAT ??$_To_address@PEBU?$tquat@M$0A@@glm@@@std@@YA?A_PAEBQEBU?$tquat@M$0A@@glm@@@Z
_TEXT	SEGMENT
_Val$ = 16
??$_To_address@PEBU?$tquat@M$0A@@glm@@@std@@YA?A_PAEBQEBU?$tquat@M$0A@@glm@@@Z PROC ; std::_To_address<glm::tquat<float,0> const *>, COMDAT

; 3946 : _NODISCARD constexpr auto _To_address(const _Iter& _Val) noexcept {

$LN3:
	mov	QWORD PTR [rsp+8], rcx
	push	rdi

; 3947 :     _STL_INTERNAL_STATIC_ASSERT(is_pointer_v<_Iter>);
; 3948 :     return _Val;

	mov	rax, QWORD PTR _Val$[rsp]
	mov	rax, QWORD PTR [rax]

; 3949 : }

	pop	rdi
	ret	0
??$_To_address@PEBU?$tquat@M$0A@@glm@@@std@@YA?A_PAEBQEBU?$tquat@M$0A@@glm@@@Z ENDP ; std::_To_address<glm::tquat<float,0> const *>
_TEXT	ENDS
; Function compile flags: /Odtp /RTCsu
; File C:\Users\ksart\OneDrive\Desktop\FlappyBird\libraries\external\glm\glm\gtc\quaternion.inl
;	COMDAT ?call@?$compute_quat_add@M$0A@$0A@@detail@glm@@SA?AU?$tquat@M$0A@@3@AEBU43@0@Z
_TEXT	SEGMENT
$T1 = 48
$T2 = 52
$T3 = 56
$T4 = 60
__$ReturnUdt$ = 80
q$ = 88
p$ = 96
?call@?$compute_quat_add@M$0A@$0A@@detail@glm@@SA?AU?$tquat@M$0A@@3@AEBU43@0@Z PROC ; glm::detail::compute_quat_add<float,0,0>::call, COMDAT

; 26   : 		{

$LN3:
	mov	QWORD PTR [rsp+24], r8
	mov	QWORD PTR [rsp+16], rdx
	mov	QWORD PTR [rsp+8], rcx
	push	rdi
	sub	rsp, 64					; 00000040H

; 27   : 			return tquat<T, P>(q.w + p.w, q.x + p.x, q.y + p.y, q.z + p.z);

	mov	rax, QWORD PTR q$[rsp]
	mov	rcx, QWORD PTR p$[rsp]
	movss	xmm0, DWORD PTR [rax+8]
	addss	xmm0, DWORD PTR [rcx+8]
	movss	DWORD PTR $T1[rsp], xmm0
	mov	rax, QWORD PTR q$[rsp]
	mov	rcx, QWORD PTR p$[rsp]
	movss	xmm0, DWORD PTR [rax+4]
	addss	xmm0, DWORD PTR [rcx+4]
	movss	DWORD PTR $T2[rsp], xmm0
	mov	rax, QWORD PTR q$[rsp]
	mov	rcx, QWORD PTR p$[rsp]
	movss	xmm0, DWORD PTR [rax]
	addss	xmm0, DWORD PTR [rcx]
	movss	DWORD PTR $T3[rsp], xmm0
	mov	rax, QWORD PTR q$[rsp]
	mov	rcx, QWORD PTR p$[rsp]
	movss	xmm0, DWORD PTR [rax+12]
	addss	xmm0, DWORD PTR [rcx+12]
	movss	DWORD PTR $T4[rsp], xmm0
	lea	rax, QWORD PTR $T1[rsp]
	mov	QWORD PTR [rsp+32], rax
	lea	r9, QWORD PTR $T2[rsp]
	lea	r8, QWORD PTR $T3[rsp]
	lea	rdx, QWORD PTR $T4[rsp]
	mov	rcx, QWORD PTR __$ReturnUdt$[rsp]
	call	??0?$tquat@M$0A@@glm@@QEAA@AEBM000@Z	; glm::tquat<float,0>::tquat<float,0>
	mov	rax, QWORD PTR __$ReturnUdt$[rsp]

; 28   : 		}

	add	rsp, 64					; 00000040H
	pop	rdi
	ret	0
?call@?$compute_quat_add@M$0A@$0A@@detail@glm@@SA?AU?$tquat@M$0A@@3@AEBU43@0@Z ENDP ; glm::detail::compute_quat_add<float,0,0>::call
_TEXT	ENDS
; Function compile flags: /Odtp /RTCsu
; File C:\Users\ksart\OneDrive\Desktop\FlappyBird\libraries\external\glm\glm\detail\_vectorize.hpp
;	COMDAT ?call@?$functor1@MM$0A@Utvec4@glm@@@detail@glm@@SA?AU?$tvec4@M$0A@@3@P6AMM@ZAEBU43@@Z
_TEXT	SEGMENT
tv66 = 48
tv70 = 52
tv74 = 56
__$ReturnUdt$ = 80
Func$ = 88
v$ = 96
?call@?$functor1@MM$0A@Utvec4@glm@@@detail@glm@@SA?AU?$tvec4@M$0A@@3@P6AMM@ZAEBU43@@Z PROC ; glm::detail::functor1<float,float,0,glm::tvec4>::call, COMDAT

; 48   : 		{

$LN3:
	mov	QWORD PTR [rsp+24], r8
	mov	QWORD PTR [rsp+16], rdx
	mov	QWORD PTR [rsp+8], rcx
	push	rdi
	sub	rsp, 64					; 00000040H

; 49   : 			return tvec4<R, P>(Func(v.x), Func(v.y), Func(v.z), Func(v.w));

	mov	rax, QWORD PTR v$[rsp]
	movss	xmm0, DWORD PTR [rax+12]
	call	QWORD PTR Func$[rsp]
	movss	DWORD PTR tv66[rsp], xmm0
	mov	rax, QWORD PTR v$[rsp]
	movss	xmm0, DWORD PTR [rax+8]
	call	QWORD PTR Func$[rsp]
	movss	DWORD PTR tv70[rsp], xmm0
	mov	rax, QWORD PTR v$[rsp]
	movss	xmm0, DWORD PTR [rax+4]
	call	QWORD PTR Func$[rsp]
	movss	DWORD PTR tv74[rsp], xmm0
	mov	rax, QWORD PTR v$[rsp]
	movss	xmm0, DWORD PTR [rax]
	call	QWORD PTR Func$[rsp]
	movss	xmm1, DWORD PTR tv66[rsp]
	movss	DWORD PTR [rsp+32], xmm1
	movss	xmm1, DWORD PTR tv70[rsp]
	movaps	xmm3, xmm1
	movss	xmm1, DWORD PTR tv74[rsp]
	movaps	xmm2, xmm1
	movaps	xmm1, xmm0
	mov	rcx, QWORD PTR __$ReturnUdt$[rsp]
	call	??0?$tvec4@M$0A@@glm@@QEAA@MMMM@Z	; glm::tvec4<float,0>::tvec4<float,0>
	mov	rax, QWORD PTR __$ReturnUdt$[rsp]

; 50   : 		}

	add	rsp, 64					; 00000040H
	pop	rdi
	ret	0
?call@?$functor1@MM$0A@Utvec4@glm@@@detail@glm@@SA?AU?$tvec4@M$0A@@3@P6AMM@ZAEBU43@@Z ENDP ; glm::detail::functor1<float,float,0,glm::tvec4>::call
_TEXT	ENDS
; Function compile flags: /Odtp /RTCsu
; File C:\Users\ksart\OneDrive\Desktop\FlappyBird\libraries\external\glm\glm\detail\_vectorize.hpp
;	COMDAT ?call@?$functor1@MM$0A@Utvec3@glm@@@detail@glm@@SA?AU?$tvec3@M$0A@@3@P6AMM@ZAEBU43@@Z
_TEXT	SEGMENT
tv66 = 32
tv70 = 36
__$ReturnUdt$ = 64
Func$ = 72
v$ = 80
?call@?$functor1@MM$0A@Utvec3@glm@@@detail@glm@@SA?AU?$tvec3@M$0A@@3@P6AMM@ZAEBU43@@Z PROC ; glm::detail::functor1<float,float,0,glm::tvec3>::call, COMDAT

; 39   : 		{

$LN3:
	mov	QWORD PTR [rsp+24], r8
	mov	QWORD PTR [rsp+16], rdx
	mov	QWORD PTR [rsp+8], rcx
	push	rdi
	sub	rsp, 48					; 00000030H

; 40   : 			return tvec3<R, P>(Func(v.x), Func(v.y), Func(v.z));

	mov	rax, QWORD PTR v$[rsp]
	movss	xmm0, DWORD PTR [rax+8]
	call	QWORD PTR Func$[rsp]
	movss	DWORD PTR tv66[rsp], xmm0
	mov	rax, QWORD PTR v$[rsp]
	movss	xmm0, DWORD PTR [rax+4]
	call	QWORD PTR Func$[rsp]
	movss	DWORD PTR tv70[rsp], xmm0
	mov	rax, QWORD PTR v$[rsp]
	movss	xmm0, DWORD PTR [rax]
	call	QWORD PTR Func$[rsp]
	movss	xmm1, DWORD PTR tv66[rsp]
	movaps	xmm3, xmm1
	movss	xmm1, DWORD PTR tv70[rsp]
	movaps	xmm2, xmm1
	movaps	xmm1, xmm0
	mov	rcx, QWORD PTR __$ReturnUdt$[rsp]
	call	??0?$tvec3@M$0A@@glm@@QEAA@MMM@Z	; glm::tvec3<float,0>::tvec3<float,0>
	mov	rax, QWORD PTR __$ReturnUdt$[rsp]

; 41   : 		}

	add	rsp, 48					; 00000030H
	pop	rdi
	ret	0
?call@?$functor1@MM$0A@Utvec3@glm@@@detail@glm@@SA?AU?$tvec3@M$0A@@3@P6AMM@ZAEBU43@@Z ENDP ; glm::detail::functor1<float,float,0,glm::tvec3>::call
_TEXT	ENDS
; Function compile flags: /Odtp /RTCsu
; File C:\Program Files\Microsoft Visual Studio\2022\Community\VC\Tools\MSVC\14.32.31326\include\xmemory
;	COMDAT ??$_Allocate_manually_vector_aligned@U_Default_allocate_traits@std@@@std@@YAPEAX_K@Z
_TEXT	SEGMENT
_Block_size$ = 48
_Ptr_container$ = 56
_Ptr$ = 64
_Bytes$ = 96
??$_Allocate_manually_vector_aligned@U_Default_allocate_traits@std@@@std@@YAPEAX_K@Z PROC ; std::_Allocate_manually_vector_aligned<std::_Default_allocate_traits>, COMDAT

; 127  : __declspec(allocator) void* _Allocate_manually_vector_aligned(const size_t _Bytes) {

$LN13:
	mov	QWORD PTR [rsp+8], rcx
	push	rdi
	sub	rsp, 80					; 00000050H

; 128  :     // allocate _Bytes manually aligned to at least _Big_allocation_alignment
; 129  :     const size_t _Block_size = _Non_user_size + _Bytes;

	mov	rax, QWORD PTR _Bytes$[rsp]
	add	rax, 47					; 0000002fH
	mov	QWORD PTR _Block_size$[rsp], rax

; 130  :     if (_Block_size <= _Bytes) {

	mov	rax, QWORD PTR _Bytes$[rsp]
	cmp	QWORD PTR _Block_size$[rsp], rax
	ja	SHORT $LN8@Allocate_m

; 131  :         _Throw_bad_array_new_length(); // add overflow

	call	?_Throw_bad_array_new_length@std@@YAXXZ	; std::_Throw_bad_array_new_length
$LN8@Allocate_m:

; 132  :     }
; 133  : 
; 134  :     const uintptr_t _Ptr_container = reinterpret_cast<uintptr_t>(_Traits::_Allocate(_Block_size));

	mov	rcx, QWORD PTR _Block_size$[rsp]
	call	?_Allocate@_Default_allocate_traits@std@@SAPEAX_K@Z ; std::_Default_allocate_traits::_Allocate
	mov	QWORD PTR _Ptr_container$[rsp], rax
$LN4@Allocate_m:

; 135  :     _STL_VERIFY(_Ptr_container != 0, "invalid argument"); // validate even in release since we're doing p[-1]

	cmp	QWORD PTR _Ptr_container$[rsp], 0
	je	SHORT $LN9@Allocate_m
	jmp	SHORT $LN10@Allocate_m
$LN9@Allocate_m:
$LN7@Allocate_m:
	lea	rax, OFFSET FLAT:$SG31981
	mov	QWORD PTR [rsp+40], rax
	lea	rax, OFFSET FLAT:$SG31982
	mov	QWORD PTR [rsp+32], rax
	xor	r9d, r9d
	mov	r8d, 135				; 00000087H
	lea	rdx, OFFSET FLAT:$SG31983
	mov	ecx, 2
	call	QWORD PTR __imp__CrtDbgReport
	cmp	eax, 1
	jne	SHORT $LN12@Allocate_m
	int	3
	xor	eax, eax
$LN12@Allocate_m:
	mov	QWORD PTR [rsp+32], 0
	mov	r9d, 135				; 00000087H
	lea	r8, OFFSET FLAT:$SG31984
	lea	rdx, OFFSET FLAT:$SG31985
	lea	rcx, OFFSET FLAT:$SG31986
	call	QWORD PTR __imp__invalid_parameter
	xor	eax, eax
	test	eax, eax
	jne	SHORT $LN7@Allocate_m
$LN10@Allocate_m:
	xor	eax, eax
	test	eax, eax
	jne	SHORT $LN4@Allocate_m

; 136  :     void* const _Ptr = reinterpret_cast<void*>((_Ptr_container + _Non_user_size) & ~(_Big_allocation_alignment - 1));

	mov	rax, QWORD PTR _Ptr_container$[rsp]
	add	rax, 47					; 0000002fH
	and	rax, -32				; ffffffffffffffe0H
	mov	QWORD PTR _Ptr$[rsp], rax

; 137  :     static_cast<uintptr_t*>(_Ptr)[-1] = _Ptr_container;

	mov	eax, 8
	imul	rax, rax, -1
	mov	rcx, QWORD PTR _Ptr$[rsp]
	mov	rdx, QWORD PTR _Ptr_container$[rsp]
	mov	QWORD PTR [rcx+rax], rdx

; 138  : 
; 139  : #ifdef _DEBUG
; 140  :     static_cast<uintptr_t*>(_Ptr)[-2] = _Big_allocation_sentinel;

	mov	eax, 8
	imul	rax, rax, -2
	mov	rcx, QWORD PTR _Ptr$[rsp]
	mov	rdx, -361700864190383366		; fafafafafafafafaH
	mov	QWORD PTR [rcx+rax], rdx

; 141  : #endif // _DEBUG
; 142  :     return _Ptr;

	mov	rax, QWORD PTR _Ptr$[rsp]
$LN11@Allocate_m:

; 143  : }

	add	rsp, 80					; 00000050H
	pop	rdi
	ret	0
??$_Allocate_manually_vector_aligned@U_Default_allocate_traits@std@@@std@@YAPEAX_K@Z ENDP ; std::_Allocate_manually_vector_aligned<std::_Default_allocate_traits>
_TEXT	ENDS
; Function compile flags: /Odtp /RTCsu
; File C:\Program Files\Microsoft Visual Studio\2022\Community\VC\Tools\MSVC\14.32.31326\include\type_traits
;	COMDAT ??$forward@PEAU_Container_base12@std@@@std@@YA$$QEAPEAU_Container_base12@0@AEAPEAU10@@Z
_TEXT	SEGMENT
_Arg$ = 16
??$forward@PEAU_Container_base12@std@@@std@@YA$$QEAPEAU_Container_base12@0@AEAPEAU10@@Z PROC ; std::forward<std::_Container_base12 *>, COMDAT

; 1341 :     remove_reference_t<_Ty>& _Arg) noexcept { // forward an lvalue as either an lvalue or an rvalue

$LN3:
	mov	QWORD PTR [rsp+8], rcx
	push	rdi

; 1342 :     return static_cast<_Ty&&>(_Arg);

	mov	rax, QWORD PTR _Arg$[rsp]

; 1343 : }

	pop	rdi
	ret	0
??$forward@PEAU_Container_base12@std@@@std@@YA$$QEAPEAU_Container_base12@0@AEAPEAU10@@Z ENDP ; std::forward<std::_Container_base12 *>
_TEXT	ENDS
; Function compile flags: /Odtp /RTCsu
; File C:\Program Files\Microsoft Visual Studio\2022\Community\VC\Tools\MSVC\14.32.31326\include\xutility
;	COMDAT ??$_Voidify_iter@PEAU_Container_proxy@std@@@std@@YAPEAXPEAU_Container_proxy@0@@Z
_TEXT	SEGMENT
_It$ = 16
??$_Voidify_iter@PEAU_Container_proxy@std@@@std@@YAPEAXPEAU_Container_proxy@0@@Z PROC ; std::_Voidify_iter<std::_Container_proxy *>, COMDAT

; 123  : _NODISCARD constexpr void* _Voidify_iter(_Iter _It) noexcept {

$LN3:
	mov	QWORD PTR [rsp+8], rcx
	push	rdi

; 124  :     if constexpr (is_pointer_v<_Iter>) {
; 125  :         return const_cast<void*>(static_cast<const volatile void*>(_It));

	mov	rax, QWORD PTR _It$[rsp]

; 126  :     } else {
; 127  :         return const_cast<void*>(static_cast<const volatile void*>(_STD addressof(*_It)));
; 128  :     }
; 129  : }

	pop	rdi
	ret	0
??$_Voidify_iter@PEAU_Container_proxy@std@@@std@@YAPEAXPEAU_Container_proxy@0@@Z ENDP ; std::_Voidify_iter<std::_Container_proxy *>
_TEXT	ENDS
; Function compile flags: /Odtp /RTCsu
; File C:\Program Files\Microsoft Visual Studio\2022\Community\VC\Tools\MSVC\14.32.31326\include\xstddef
;	COMDAT ??$addressof@U_Container_proxy@std@@@std@@YAPEAU_Container_proxy@0@AEAU10@@Z
_TEXT	SEGMENT
_Val$ = 16
??$addressof@U_Container_proxy@std@@@std@@YAPEAU_Container_proxy@0@AEAU10@@Z PROC ; std::addressof<std::_Container_proxy>, COMDAT

; 252  : _NODISCARD constexpr _Ty* addressof(_Ty& _Val) noexcept {

$LN3:
	mov	QWORD PTR [rsp+8], rcx
	push	rdi

; 253  :     return __builtin_addressof(_Val);

	mov	rax, QWORD PTR _Val$[rsp]

; 254  : }

	pop	rdi
	ret	0
??$addressof@U_Container_proxy@std@@@std@@YAPEAU_Container_proxy@0@AEAU10@@Z ENDP ; std::addressof<std::_Container_proxy>
_TEXT	ENDS
; Function compile flags: /Odtp /RTCsu
; File C:\Program Files\Microsoft Visual Studio\2022\Community\VC\Tools\MSVC\14.32.31326\include\xmemory
;	COMDAT ??$_Emplace_back@AEBU?$tquat@M$0A@@glm@@@?$_Uninitialized_backout_al@V?$allocator@U?$tquat@M$0A@@glm@@@std@@@std@@QEAAXAEBU?$tquat@M$0A@@glm@@@Z
_TEXT	SEGMENT
tv64 = 32
this$ = 64
<_Vals_0>$ = 72
??$_Emplace_back@AEBU?$tquat@M$0A@@glm@@@?$_Uninitialized_backout_al@V?$allocator@U?$tquat@M$0A@@glm@@@std@@@std@@QEAAXAEBU?$tquat@M$0A@@glm@@@Z PROC ; std::_Uninitialized_backout_al<std::allocator<glm::tquat<float,0> > >::_Emplace_back<glm::tquat<float,0> const &>, COMDAT

; 1655 :     _CONSTEXPR20 void _Emplace_back(_Types&&... _Vals) { // construct a new element at *_Last and increment

$LN3:
	mov	QWORD PTR [rsp+16], rdx
	mov	QWORD PTR [rsp+8], rcx
	push	rdi
	sub	rsp, 48					; 00000030H

; 1656 :         allocator_traits<_Alloc>::construct(_Al, _Unfancy(_Last), _STD forward<_Types>(_Vals)...);

	mov	rcx, QWORD PTR <_Vals_0>$[rsp]
	call	??$forward@AEBU?$tquat@M$0A@@glm@@@std@@YAAEBU?$tquat@M$0A@@glm@@AEBU12@@Z ; std::forward<glm::tquat<float,0> const &>
	mov	QWORD PTR tv64[rsp], rax
	mov	rcx, QWORD PTR this$[rsp]
	mov	rcx, QWORD PTR [rcx+8]
	call	??$_Unfancy@U?$tquat@M$0A@@glm@@@std@@YAPEAU?$tquat@M$0A@@glm@@PEAU12@@Z ; std::_Unfancy<glm::tquat<float,0> >
	mov	rcx, QWORD PTR tv64[rsp]
	mov	r8, rcx
	mov	rdx, rax
	mov	rax, QWORD PTR this$[rsp]
	mov	rcx, QWORD PTR [rax+16]
	call	??$construct@U?$tquat@M$0A@@glm@@AEBU12@@?$_Default_allocator_traits@V?$allocator@U?$tquat@M$0A@@glm@@@std@@@std@@SAXAEAV?$allocator@U?$tquat@M$0A@@glm@@@1@QEAU?$tquat@M$0A@@glm@@AEBU34@@Z ; std::_Default_allocator_traits<std::allocator<glm::tquat<float,0> > >::construct<glm::tquat<float,0>,glm::tquat<float,0> const &>

; 1657 :         ++_Last;

	mov	rax, QWORD PTR this$[rsp]
	mov	rax, QWORD PTR [rax+8]
	add	rax, 16
	mov	rcx, QWORD PTR this$[rsp]
	mov	QWORD PTR [rcx+8], rax

; 1658 :     }

	add	rsp, 48					; 00000030H
	pop	rdi
	ret	0
??$_Emplace_back@AEBU?$tquat@M$0A@@glm@@@?$_Uninitialized_backout_al@V?$allocator@U?$tquat@M$0A@@glm@@@std@@@std@@QEAAXAEBU?$tquat@M$0A@@glm@@@Z ENDP ; std::_Uninitialized_backout_al<std::allocator<glm::tquat<float,0> > >::_Emplace_back<glm::tquat<float,0> const &>
_TEXT	ENDS
; Function compile flags: /Odtp /RTCsu
; File C:\Program Files\Microsoft Visual Studio\2022\Community\VC\Tools\MSVC\14.32.31326\include\xmemory
;	COMDAT ?_Release@?$_Uninitialized_backout_al@V?$allocator@U?$tquat@M$0A@@glm@@@std@@@std@@QEAAPEAU?$tquat@M$0A@@glm@@XZ
_TEXT	SEGMENT
this$ = 16
?_Release@?$_Uninitialized_backout_al@V?$allocator@U?$tquat@M$0A@@glm@@@std@@@std@@QEAAPEAU?$tquat@M$0A@@glm@@XZ PROC ; std::_Uninitialized_backout_al<std::allocator<glm::tquat<float,0> > >::_Release, COMDAT

; 1660 :     constexpr pointer _Release() { // suppress any exception handling backout and return _Last

$LN3:
	mov	QWORD PTR [rsp+8], rcx
	push	rdi

; 1661 :         _First = _Last;

	mov	rax, QWORD PTR this$[rsp]
	mov	rcx, QWORD PTR this$[rsp]
	mov	rcx, QWORD PTR [rcx+8]
	mov	QWORD PTR [rax], rcx

; 1662 :         return _Last;

	mov	rax, QWORD PTR this$[rsp]
	mov	rax, QWORD PTR [rax+8]

; 1663 :     }

	pop	rdi
	ret	0
?_Release@?$_Uninitialized_backout_al@V?$allocator@U?$tquat@M$0A@@glm@@@std@@@std@@QEAAPEAU?$tquat@M$0A@@glm@@XZ ENDP ; std::_Uninitialized_backout_al<std::allocator<glm::tquat<float,0> > >::_Release
_TEXT	ENDS
; Function compile flags: /Odtp /RTCsu
; File C:\Program Files\Microsoft Visual Studio\2022\Community\VC\Tools\MSVC\14.32.31326\include\xmemory
;	COMDAT ??1?$_Uninitialized_backout_al@V?$allocator@U?$tquat@M$0A@@glm@@@std@@@std@@QEAA@XZ
_TEXT	SEGMENT
this$ = 48
??1?$_Uninitialized_backout_al@V?$allocator@U?$tquat@M$0A@@glm@@@std@@@std@@QEAA@XZ PROC ; std::_Uninitialized_backout_al<std::allocator<glm::tquat<float,0> > >::~_Uninitialized_backout_al<std::allocator<glm::tquat<float,0> > >, COMDAT

; 1650 :     _CONSTEXPR20 ~_Uninitialized_backout_al() {

$LN3:
	mov	QWORD PTR [rsp+8], rcx
	push	rdi
	sub	rsp, 32					; 00000020H

; 1651 :         _Destroy_range(_First, _Last, _Al);

	mov	rax, QWORD PTR this$[rsp]
	mov	r8, QWORD PTR [rax+16]
	mov	rax, QWORD PTR this$[rsp]
	mov	rdx, QWORD PTR [rax+8]
	mov	rax, QWORD PTR this$[rsp]
	mov	rcx, QWORD PTR [rax]
	call	??$_Destroy_range@V?$allocator@U?$tquat@M$0A@@glm@@@std@@@std@@YAXPEAU?$tquat@M$0A@@glm@@QEAU12@AEAV?$allocator@U?$tquat@M$0A@@glm@@@0@@Z ; std::_Destroy_range<std::allocator<glm::tquat<float,0> > >

; 1652 :     }

	add	rsp, 32					; 00000020H
	pop	rdi
	ret	0
??1?$_Uninitialized_backout_al@V?$allocator@U?$tquat@M$0A@@glm@@@std@@@std@@QEAA@XZ ENDP ; std::_Uninitialized_backout_al<std::allocator<glm::tquat<float,0> > >::~_Uninitialized_backout_al<std::allocator<glm::tquat<float,0> > >
_TEXT	ENDS
; Function compile flags: /Odtp /RTCsu
; File C:\Program Files\Microsoft Visual Studio\2022\Community\VC\Tools\MSVC\14.32.31326\include\xmemory
;	COMDAT ??0?$_Uninitialized_backout_al@V?$allocator@U?$tquat@M$0A@@glm@@@std@@@std@@QEAA@PEAU?$tquat@M$0A@@glm@@AEAV?$allocator@U?$tquat@M$0A@@glm@@@1@@Z
_TEXT	SEGMENT
this$ = 16
_Dest$ = 24
_Al_$ = 32
??0?$_Uninitialized_backout_al@V?$allocator@U?$tquat@M$0A@@glm@@@std@@@std@@QEAA@PEAU?$tquat@M$0A@@glm@@AEAV?$allocator@U?$tquat@M$0A@@glm@@@1@@Z PROC ; std::_Uninitialized_backout_al<std::allocator<glm::tquat<float,0> > >::_Uninitialized_backout_al<std::allocator<glm::tquat<float,0> > >, COMDAT

; 1645 :     _CONSTEXPR20 _Uninitialized_backout_al(pointer _Dest, _Alloc& _Al_) : _First(_Dest), _Last(_Dest), _Al(_Al_) {}

$LN3:
	mov	QWORD PTR [rsp+24], r8
	mov	QWORD PTR [rsp+16], rdx
	mov	QWORD PTR [rsp+8], rcx
	push	rdi
	mov	rax, QWORD PTR this$[rsp]
	mov	rcx, QWORD PTR _Dest$[rsp]
	mov	QWORD PTR [rax], rcx
	mov	rax, QWORD PTR this$[rsp]
	mov	rcx, QWORD PTR _Dest$[rsp]
	mov	QWORD PTR [rax+8], rcx
	mov	rax, QWORD PTR this$[rsp]
	mov	rcx, QWORD PTR _Al_$[rsp]
	mov	QWORD PTR [rax+16], rcx
	mov	rax, QWORD PTR this$[rsp]
	pop	rdi
	ret	0
??0?$_Uninitialized_backout_al@V?$allocator@U?$tquat@M$0A@@glm@@@std@@@std@@QEAA@PEAU?$tquat@M$0A@@glm@@AEAV?$allocator@U?$tquat@M$0A@@glm@@@1@@Z ENDP ; std::_Uninitialized_backout_al<std::allocator<glm::tquat<float,0> > >::_Uninitialized_backout_al<std::allocator<glm::tquat<float,0> > >
_TEXT	ENDS
; Function compile flags: /Odtp /RTCsu
; File C:\Program Files\Microsoft Visual Studio\2022\Community\VC\Tools\MSVC\14.32.31326\include\xutility
;	COMDAT ??$_Copy_memmove@PEBU?$tquat@M$0A@@glm@@PEAU12@@std@@YAPEAU?$tquat@M$0A@@glm@@PEBU12@0PEAU12@@Z
_TEXT	SEGMENT
_FirstPtr$ = 32
_LastPtr$ = 40
_DestPtr$ = 48
_First_ch$ = 56
_Last_ch$ = 64
_Dest_ch$ = 72
_Count$ = 80
_First$ = 112
_Last$ = 120
_Dest$ = 128
??$_Copy_memmove@PEBU?$tquat@M$0A@@glm@@PEAU12@@std@@YAPEAU?$tquat@M$0A@@glm@@PEBU12@0PEAU12@@Z PROC ; std::_Copy_memmove<glm::tquat<float,0> const *,glm::tquat<float,0> *>, COMDAT

; 4035 : _OutCtgIt _Copy_memmove(_CtgIt _First, _CtgIt _Last, _OutCtgIt _Dest) {

$LN3:
	mov	QWORD PTR [rsp+24], r8
	mov	QWORD PTR [rsp+16], rdx
	mov	QWORD PTR [rsp+8], rcx
	push	rdi
	sub	rsp, 96					; 00000060H

; 4036 :     auto _FirstPtr              = _To_address(_First);

	lea	rcx, QWORD PTR _First$[rsp]
	call	??$_To_address@PEBU?$tquat@M$0A@@glm@@@std@@YA?A_PAEBQEBU?$tquat@M$0A@@glm@@@Z ; std::_To_address<glm::tquat<float,0> const *>
	mov	QWORD PTR _FirstPtr$[rsp], rax

; 4037 :     auto _LastPtr               = _To_address(_Last);

	lea	rcx, QWORD PTR _Last$[rsp]
	call	??$_To_address@PEBU?$tquat@M$0A@@glm@@@std@@YA?A_PAEBQEBU?$tquat@M$0A@@glm@@@Z ; std::_To_address<glm::tquat<float,0> const *>
	mov	QWORD PTR _LastPtr$[rsp], rax

; 4038 :     auto _DestPtr               = _To_address(_Dest);

	lea	rcx, QWORD PTR _Dest$[rsp]
	call	??$_To_address@PEAU?$tquat@M$0A@@glm@@@std@@YA?A_PAEBQEAU?$tquat@M$0A@@glm@@@Z ; std::_To_address<glm::tquat<float,0> *>
	mov	QWORD PTR _DestPtr$[rsp], rax

; 4039 :     const char* const _First_ch = const_cast<const char*>(reinterpret_cast<const volatile char*>(_FirstPtr));

	mov	rax, QWORD PTR _FirstPtr$[rsp]
	mov	QWORD PTR _First_ch$[rsp], rax

; 4040 :     const char* const _Last_ch  = const_cast<const char*>(reinterpret_cast<const volatile char*>(_LastPtr));

	mov	rax, QWORD PTR _LastPtr$[rsp]
	mov	QWORD PTR _Last_ch$[rsp], rax

; 4041 :     char* const _Dest_ch        = const_cast<char*>(reinterpret_cast<const volatile char*>(_DestPtr));

	mov	rax, QWORD PTR _DestPtr$[rsp]
	mov	QWORD PTR _Dest_ch$[rsp], rax

; 4042 :     const auto _Count           = static_cast<size_t>(_Last_ch - _First_ch);

	mov	rax, QWORD PTR _First_ch$[rsp]
	mov	rcx, QWORD PTR _Last_ch$[rsp]
	sub	rcx, rax
	mov	rax, rcx
	mov	QWORD PTR _Count$[rsp], rax

; 4043 :     _CSTD memmove(_Dest_ch, _First_ch, _Count);

	mov	r8, QWORD PTR _Count$[rsp]
	mov	rdx, QWORD PTR _First_ch$[rsp]
	mov	rcx, QWORD PTR _Dest_ch$[rsp]
	call	memmove

; 4044 :     if constexpr (is_pointer_v<_OutCtgIt>) {
; 4045 :         return reinterpret_cast<_OutCtgIt>(_Dest_ch + _Count);

	mov	rax, QWORD PTR _Count$[rsp]
	mov	rcx, QWORD PTR _Dest_ch$[rsp]
	add	rcx, rax
	mov	rax, rcx

; 4046 :     } else {
; 4047 :         return _Dest + (_LastPtr - _FirstPtr);
; 4048 :     }
; 4049 : }

	add	rsp, 96					; 00000060H
	pop	rdi
	ret	0
??$_Copy_memmove@PEBU?$tquat@M$0A@@glm@@PEAU12@@std@@YAPEAU?$tquat@M$0A@@glm@@PEBU12@0PEAU12@@Z ENDP ; std::_Copy_memmove<glm::tquat<float,0> const *,glm::tquat<float,0> *>
_TEXT	ENDS
; Function compile flags: /Odtp /RTCsu
; File C:\Program Files\Microsoft Visual Studio\2022\Community\VC\Tools\MSVC\14.32.31326\include\xstddef
;	COMDAT ??$_Unfancy@U?$tquat@M$0A@@glm@@@std@@YAPEAU?$tquat@M$0A@@glm@@PEAU12@@Z
_TEXT	SEGMENT
_Ptr$ = 16
??$_Unfancy@U?$tquat@M$0A@@glm@@@std@@YAPEAU?$tquat@M$0A@@glm@@PEAU12@@Z PROC ; std::_Unfancy<glm::tquat<float,0> >, COMDAT

; 265  : _NODISCARD constexpr _Ty* _Unfancy(_Ty* _Ptr) noexcept { // do nothing for plain pointers

$LN3:
	mov	QWORD PTR [rsp+8], rcx
	push	rdi

; 266  :     return _Ptr;

	mov	rax, QWORD PTR _Ptr$[rsp]

; 267  : }

	pop	rdi
	ret	0
??$_Unfancy@U?$tquat@M$0A@@glm@@@std@@YAPEAU?$tquat@M$0A@@glm@@PEAU12@@Z ENDP ; std::_Unfancy<glm::tquat<float,0> >
_TEXT	ENDS
; Function compile flags: /Odtp /RTCsu
; File C:\Program Files\Microsoft Visual Studio\2022\Community\VC\Tools\MSVC\14.32.31326\include\xutility
;	COMDAT ??$_Get_unwrapped@AEBQEBU?$tquat@M$0A@@glm@@@std@@YA?A_TAEBQEBU?$tquat@M$0A@@glm@@@Z
_TEXT	SEGMENT
_It$ = 16
??$_Get_unwrapped@AEBQEBU?$tquat@M$0A@@glm@@@std@@YA?A_TAEBQEBU?$tquat@M$0A@@glm@@@Z PROC ; std::_Get_unwrapped<glm::tquat<float,0> const * const &>, COMDAT

; 1270 : _NODISCARD constexpr decltype(auto) _Get_unwrapped(_Iter&& _It) {

$LN3:
	mov	QWORD PTR [rsp+8], rcx
	push	rdi

; 1271 :     // unwrap an iterator previously subjected to _Adl_verify_range or otherwise validated
; 1272 :     if constexpr (is_pointer_v<decay_t<_Iter>>) { // special-case pointers and arrays
; 1273 :         return _It + 0;

	mov	rax, QWORD PTR _It$[rsp]
	mov	rax, QWORD PTR [rax]

; 1274 :     } else if constexpr (_Unwrappable_v<_Iter>) {
; 1275 :         return static_cast<_Iter&&>(_It)._Unwrapped();
; 1276 :     } else {
; 1277 :         return static_cast<_Iter&&>(_It);
; 1278 :     }
; 1279 : }

	pop	rdi
	ret	0
??$_Get_unwrapped@AEBQEBU?$tquat@M$0A@@glm@@@std@@YA?A_TAEBQEBU?$tquat@M$0A@@glm@@@Z ENDP ; std::_Get_unwrapped<glm::tquat<float,0> const * const &>
_TEXT	ENDS
; Function compile flags: /Odtp /RTCsu
; File C:\Program Files\Microsoft Visual Studio\2022\Community\VC\Tools\MSVC\14.32.31326\include\xmemory
;	COMDAT ?deallocate@?$_Default_allocator_traits@V?$allocator@U_Container_proxy@std@@@std@@@std@@SAXAEAV?$allocator@U_Container_proxy@std@@@2@QEAU_Container_proxy@2@_K@Z
_TEXT	SEGMENT
_Al$ = 48
_Ptr$ = 56
_Count$ = 64
?deallocate@?$_Default_allocator_traits@V?$allocator@U_Container_proxy@std@@@std@@@std@@SAXAEAV?$allocator@U_Container_proxy@std@@@2@QEAU_Container_proxy@2@_K@Z PROC ; std::_Default_allocator_traits<std::allocator<std::_Container_proxy> >::deallocate, COMDAT

; 659  :     static _CONSTEXPR20 void deallocate(_Alloc& _Al, const pointer _Ptr, const size_type _Count) {

$LN3:
	mov	QWORD PTR [rsp+24], r8
	mov	QWORD PTR [rsp+16], rdx
	mov	QWORD PTR [rsp+8], rcx
	push	rdi
	sub	rsp, 32					; 00000020H

; 660  :         // no overflow check on the following multiply; we assume _Allocate did that check
; 661  : #if _HAS_CXX20 // TRANSITION, GH-1532
; 662  :         if (_STD is_constant_evaluated()) {
; 663  :             _Al.deallocate(_Ptr, _Count);
; 664  :         } else
; 665  : #endif // _HAS_CXX20
; 666  :         {
; 667  :             (void) _Al;
; 668  :             _Deallocate<_New_alignof<value_type>>(_Ptr, sizeof(value_type) * _Count);

	imul	rax, QWORD PTR _Count$[rsp], 16
	mov	rdx, rax
	mov	rcx, QWORD PTR _Ptr$[rsp]
	call	??$_Deallocate@$0BA@$0A@@std@@YAXPEAX_K@Z ; std::_Deallocate<16,0>

; 669  :         }
; 670  :     }

	add	rsp, 32					; 00000020H
	pop	rdi
	ret	0
?deallocate@?$_Default_allocator_traits@V?$allocator@U_Container_proxy@std@@@std@@@std@@SAXAEAV?$allocator@U_Container_proxy@std@@@2@QEAU_Container_proxy@2@_K@Z ENDP ; std::_Default_allocator_traits<std::allocator<std::_Container_proxy> >::deallocate
_TEXT	ENDS
; Function compile flags: /Odtp /RTCsu
; File C:\Users\ksart\OneDrive\Desktop\FlappyBird\libraries\external\glm\glm\detail\func_common.inl
;	COMDAT ?call@?$compute_abs_vector@M$0A@Utvec3@glm@@$0A@@detail@glm@@SA?AU?$tvec3@M$0A@@3@AEBU43@@Z
_TEXT	SEGMENT
__$ReturnUdt$ = 48
x$ = 56
?call@?$compute_abs_vector@M$0A@Utvec3@glm@@$0A@@detail@glm@@SA?AU?$tvec3@M$0A@@3@AEBU43@@Z PROC ; glm::detail::compute_abs_vector<float,0,glm::tvec3,0>::call, COMDAT

; 114  : 		{

$LN3:
	mov	QWORD PTR [rsp+16], rdx
	mov	QWORD PTR [rsp+8], rcx
	push	rdi
	sub	rsp, 32					; 00000020H

; 115  : 			return detail::functor1<T, T, P, vecType>::call(abs, x);

	mov	r8, QWORD PTR x$[rsp]
	lea	rdx, OFFSET FLAT:??$abs@M@glm@@YAMM@Z	; glm::abs<float>
	mov	rcx, QWORD PTR __$ReturnUdt$[rsp]
	call	?call@?$functor1@MM$0A@Utvec3@glm@@@detail@glm@@SA?AU?$tvec3@M$0A@@3@P6AMM@ZAEBU43@@Z ; glm::detail::functor1<float,float,0,glm::tvec3>::call
	mov	rax, QWORD PTR __$ReturnUdt$[rsp]

; 116  : 		}

	add	rsp, 32					; 00000020H
	pop	rdi
	ret	0
?call@?$compute_abs_vector@M$0A@Utvec3@glm@@$0A@@detail@glm@@SA?AU?$tvec3@M$0A@@3@AEBU43@@Z ENDP ; glm::detail::compute_abs_vector<float,0,glm::tvec3,0>::call
_TEXT	ENDS
; Function compile flags: /Odtp /RTCsu
; File C:\Users\ksart\OneDrive\Desktop\FlappyBird\libraries\external\glm\glm\detail\func_common.inl
;	COMDAT ?call@?$compute_abs_vector@M$0A@Utvec4@glm@@$0A@@detail@glm@@SA?AU?$tvec4@M$0A@@3@AEBU43@@Z
_TEXT	SEGMENT
__$ReturnUdt$ = 48
x$ = 56
?call@?$compute_abs_vector@M$0A@Utvec4@glm@@$0A@@detail@glm@@SA?AU?$tvec4@M$0A@@3@AEBU43@@Z PROC ; glm::detail::compute_abs_vector<float,0,glm::tvec4,0>::call, COMDAT

; 114  : 		{

$LN3:
	mov	QWORD PTR [rsp+16], rdx
	mov	QWORD PTR [rsp+8], rcx
	push	rdi
	sub	rsp, 32					; 00000020H

; 115  : 			return detail::functor1<T, T, P, vecType>::call(abs, x);

	mov	r8, QWORD PTR x$[rsp]
	lea	rdx, OFFSET FLAT:??$abs@M@glm@@YAMM@Z	; glm::abs<float>
	mov	rcx, QWORD PTR __$ReturnUdt$[rsp]
	call	?call@?$functor1@MM$0A@Utvec4@glm@@@detail@glm@@SA?AU?$tvec4@M$0A@@3@P6AMM@ZAEBU43@@Z ; glm::detail::functor1<float,float,0,glm::tvec4>::call
	mov	rax, QWORD PTR __$ReturnUdt$[rsp]

; 116  : 		}

	add	rsp, 32					; 00000020H
	pop	rdi
	ret	0
?call@?$compute_abs_vector@M$0A@Utvec4@glm@@$0A@@detail@glm@@SA?AU?$tvec4@M$0A@@3@AEBU43@@Z ENDP ; glm::detail::compute_abs_vector<float,0,glm::tvec4,0>::call
_TEXT	ENDS
; Function compile flags: /Odtp /RTCsu
; File C:\Users\ksart\OneDrive\Desktop\FlappyBird\libraries\external\glm\glm\detail\func_common.inl
;	COMDAT ??$min@N@glm@@YANNN@Z
_TEXT	SEGMENT
tv65 = 16
x$ = 48
y$ = 56
??$min@N@glm@@YANNN@Z PROC				; glm::min<double>, COMDAT

; 16   : 	{

$LN5:
	movsd	QWORD PTR [rsp+16], xmm1
	movsd	QWORD PTR [rsp+8], xmm0
	push	rdi
	sub	rsp, 32					; 00000020H

; 17   : 		GLM_STATIC_ASSERT(std::numeric_limits<genType>::is_iec559 || std::numeric_limits<genType>::is_integer || GLM_UNRESTRICTED_GENTYPE, "'min' only accept floating-point or integer inputs");
; 18   : 		return x < y ? x : y;

	movsd	xmm0, QWORD PTR y$[rsp]
	comisd	xmm0, QWORD PTR x$[rsp]
	jbe	SHORT $LN3@min
	movsd	xmm0, QWORD PTR x$[rsp]
	movsd	QWORD PTR tv65[rsp], xmm0
	jmp	SHORT $LN4@min
$LN3@min:
	movsd	xmm0, QWORD PTR y$[rsp]
	movsd	QWORD PTR tv65[rsp], xmm0
$LN4@min:
	movsd	xmm0, QWORD PTR tv65[rsp]

; 19   : 	}

	add	rsp, 32					; 00000020H
	pop	rdi
	ret	0
??$min@N@glm@@YANNN@Z ENDP				; glm::min<double>
_TEXT	ENDS
; Function compile flags: /Odtp /RTCsu
; File C:\Users\ksart\OneDrive\Desktop\FlappyBird\libraries\external\glm\glm\detail\func_common.inl
;	COMDAT ??$max@N@glm@@YANNN@Z
_TEXT	SEGMENT
tv65 = 16
x$ = 48
y$ = 56
??$max@N@glm@@YANNN@Z PROC				; glm::max<double>, COMDAT

; 24   : 	{

$LN5:
	movsd	QWORD PTR [rsp+16], xmm1
	movsd	QWORD PTR [rsp+8], xmm0
	push	rdi
	sub	rsp, 32					; 00000020H

; 25   : 		GLM_STATIC_ASSERT(std::numeric_limits<genType>::is_iec559 || std::numeric_limits<genType>::is_integer || GLM_UNRESTRICTED_GENTYPE, "'max' only accept floating-point or integer inputs");
; 26   : 
; 27   : 		return x > y ? x : y;

	movsd	xmm0, QWORD PTR x$[rsp]
	comisd	xmm0, QWORD PTR y$[rsp]
	jbe	SHORT $LN3@max
	movsd	xmm0, QWORD PTR x$[rsp]
	movsd	QWORD PTR tv65[rsp], xmm0
	jmp	SHORT $LN4@max
$LN3@max:
	movsd	xmm0, QWORD PTR y$[rsp]
	movsd	QWORD PTR tv65[rsp], xmm0
$LN4@max:
	movsd	xmm0, QWORD PTR tv65[rsp]

; 28   : 	}

	add	rsp, 32					; 00000020H
	pop	rdi
	ret	0
??$max@N@glm@@YANNN@Z ENDP				; glm::max<double>
_TEXT	ENDS
; Function compile flags: /Odtp /RTCsu
; File C:\Users\ksart\OneDrive\Desktop\FlappyBird\libraries\external\glm\glm\detail\func_common.inl
;	COMDAT ??$min@M@glm@@YAMMM@Z
_TEXT	SEGMENT
tv65 = 16
x$ = 48
y$ = 56
??$min@M@glm@@YAMMM@Z PROC				; glm::min<float>, COMDAT

; 16   : 	{

$LN5:
	movss	DWORD PTR [rsp+16], xmm1
	movss	DWORD PTR [rsp+8], xmm0
	push	rdi
	sub	rsp, 32					; 00000020H

; 17   : 		GLM_STATIC_ASSERT(std::numeric_limits<genType>::is_iec559 || std::numeric_limits<genType>::is_integer || GLM_UNRESTRICTED_GENTYPE, "'min' only accept floating-point or integer inputs");
; 18   : 		return x < y ? x : y;

	movss	xmm0, DWORD PTR y$[rsp]
	comiss	xmm0, DWORD PTR x$[rsp]
	jbe	SHORT $LN3@min
	movss	xmm0, DWORD PTR x$[rsp]
	movss	DWORD PTR tv65[rsp], xmm0
	jmp	SHORT $LN4@min
$LN3@min:
	movss	xmm0, DWORD PTR y$[rsp]
	movss	DWORD PTR tv65[rsp], xmm0
$LN4@min:
	movss	xmm0, DWORD PTR tv65[rsp]

; 19   : 	}

	add	rsp, 32					; 00000020H
	pop	rdi
	ret	0
??$min@M@glm@@YAMMM@Z ENDP				; glm::min<float>
_TEXT	ENDS
; Function compile flags: /Odtp /RTCsu
; File C:\Users\ksart\OneDrive\Desktop\FlappyBird\libraries\external\glm\glm\detail\func_common.inl
;	COMDAT ??$max@M@glm@@YAMMM@Z
_TEXT	SEGMENT
tv65 = 16
x$ = 48
y$ = 56
??$max@M@glm@@YAMMM@Z PROC				; glm::max<float>, COMDAT

; 24   : 	{

$LN5:
	movss	DWORD PTR [rsp+16], xmm1
	movss	DWORD PTR [rsp+8], xmm0
	push	rdi
	sub	rsp, 32					; 00000020H

; 25   : 		GLM_STATIC_ASSERT(std::numeric_limits<genType>::is_iec559 || std::numeric_limits<genType>::is_integer || GLM_UNRESTRICTED_GENTYPE, "'max' only accept floating-point or integer inputs");
; 26   : 
; 27   : 		return x > y ? x : y;

	movss	xmm0, DWORD PTR x$[rsp]
	comiss	xmm0, DWORD PTR y$[rsp]
	jbe	SHORT $LN3@max
	movss	xmm0, DWORD PTR x$[rsp]
	movss	DWORD PTR tv65[rsp], xmm0
	jmp	SHORT $LN4@max
$LN3@max:
	movss	xmm0, DWORD PTR y$[rsp]
	movss	DWORD PTR tv65[rsp], xmm0
$LN4@max:
	movss	xmm0, DWORD PTR tv65[rsp]

; 28   : 	}

	add	rsp, 32					; 00000020H
	pop	rdi
	ret	0
??$max@M@glm@@YAMMM@Z ENDP				; glm::max<float>
_TEXT	ENDS
; Function compile flags: /Odtp /RTCsu
; File C:\Users\ksart\OneDrive\Desktop\FlappyBird\libraries\external\glm\glm\gtc\quaternion.inl
;	COMDAT ??$?YM@?$tquat@M$0A@@glm@@QEAAAEAU01@AEBU01@@Z
_TEXT	SEGMENT
$T1 = 32
$T2 = 48
this$ = 96
q$ = 104
??$?YM@?$tquat@M$0A@@glm@@QEAAAEAU01@AEBU01@@Z PROC	; glm::tquat<float,0>::operator+=<float>, COMDAT

; 241  : 	{

$LN3:
	mov	QWORD PTR [rsp+16], rdx
	mov	QWORD PTR [rsp+8], rcx
	push	rsi
	push	rdi
	sub	rsp, 72					; 00000048H

; 242  : 		return (*this = detail::compute_quat_add<T, P, detail::is_aligned<P>::value>::call(*this, tquat<T, P>(q)));

	lea	rax, QWORD PTR $T1[rsp]
	mov	rdi, rax
	mov	rsi, QWORD PTR q$[rsp]
	mov	ecx, 16
	rep movsb
	lea	r8, QWORD PTR $T1[rsp]
	mov	rdx, QWORD PTR this$[rsp]
	lea	rcx, QWORD PTR $T2[rsp]
	call	?call@?$compute_quat_add@M$0A@$0A@@detail@glm@@SA?AU?$tquat@M$0A@@3@AEBU43@0@Z ; glm::detail::compute_quat_add<float,0,0>::call
	mov	rdi, QWORD PTR this$[rsp]
	mov	rsi, rax
	mov	ecx, 16
	rep movsb
	mov	rax, QWORD PTR this$[rsp]

; 243  : 	}

	add	rsp, 72					; 00000048H
	pop	rdi
	pop	rsi
	ret	0
??$?YM@?$tquat@M$0A@@glm@@QEAAAEAU01@AEBU01@@Z ENDP	; glm::tquat<float,0>::operator+=<float>
_TEXT	ENDS
; Function compile flags: /Odtp /RTCsu
; File C:\Users\ksart\OneDrive\Desktop\FlappyBird\libraries\external\glm\glm\gtc\quaternion.inl
;	COMDAT ??$?DM$0A@@glm@@YA?AU?$tquat@M$0A@@0@AEBU10@AEBM@Z
_TEXT	SEGMENT
$T1 = 48
$T2 = 52
$T3 = 56
$T4 = 60
__$ReturnUdt$ = 80
q$ = 88
s$ = 96
??$?DM$0A@@glm@@YA?AU?$tquat@M$0A@@0@AEBU10@AEBM@Z PROC	; glm::operator*<float,0>, COMDAT

; 338  : 	{

$LN3:
	mov	QWORD PTR [rsp+24], r8
	mov	QWORD PTR [rsp+16], rdx
	mov	QWORD PTR [rsp+8], rcx
	push	rdi
	sub	rsp, 64					; 00000040H

; 339  : 		return tquat<T, P>(

	mov	rax, QWORD PTR q$[rsp]
	mov	rcx, QWORD PTR s$[rsp]
	movss	xmm0, DWORD PTR [rax+8]
	mulss	xmm0, DWORD PTR [rcx]
	movss	DWORD PTR $T1[rsp], xmm0
	mov	rax, QWORD PTR q$[rsp]
	mov	rcx, QWORD PTR s$[rsp]
	movss	xmm0, DWORD PTR [rax+4]
	mulss	xmm0, DWORD PTR [rcx]
	movss	DWORD PTR $T2[rsp], xmm0
	mov	rax, QWORD PTR q$[rsp]
	mov	rcx, QWORD PTR s$[rsp]
	movss	xmm0, DWORD PTR [rax]
	mulss	xmm0, DWORD PTR [rcx]
	movss	DWORD PTR $T3[rsp], xmm0
	mov	rax, QWORD PTR q$[rsp]
	mov	rcx, QWORD PTR s$[rsp]
	movss	xmm0, DWORD PTR [rax+12]
	mulss	xmm0, DWORD PTR [rcx]
	movss	DWORD PTR $T4[rsp], xmm0
	lea	rax, QWORD PTR $T1[rsp]
	mov	QWORD PTR [rsp+32], rax
	lea	r9, QWORD PTR $T2[rsp]
	lea	r8, QWORD PTR $T3[rsp]
	lea	rdx, QWORD PTR $T4[rsp]
	mov	rcx, QWORD PTR __$ReturnUdt$[rsp]
	call	??0?$tquat@M$0A@@glm@@QEAA@AEBM000@Z	; glm::tquat<float,0>::tquat<float,0>
	mov	rax, QWORD PTR __$ReturnUdt$[rsp]

; 340  : 			q.w * s, q.x * s, q.y * s, q.z * s);
; 341  : 	}

	add	rsp, 64					; 00000040H
	pop	rdi
	ret	0
??$?DM$0A@@glm@@YA?AU?$tquat@M$0A@@0@AEBU10@AEBM@Z ENDP	; glm::operator*<float,0>
_TEXT	ENDS
; Function compile flags: /Odtp /RTCsu
; File C:\Users\ksart\OneDrive\Desktop\FlappyBird\libraries\external\glm\glm\detail\func_common.inl
;	COMDAT ?call@?$compute_mix@MM@detail@glm@@SAMAEBM00@Z
_TEXT	SEGMENT
x$ = 32
y$ = 40
a$ = 48
?call@?$compute_mix@MM@detail@glm@@SAMAEBM00@Z PROC	; glm::detail::compute_mix<float,float>::call, COMDAT

; 166  : 		{

$LN3:
	mov	QWORD PTR [rsp+24], r8
	mov	QWORD PTR [rsp+16], rdx
	mov	QWORD PTR [rsp+8], rcx
	push	rdi
	sub	rsp, 16

; 167  : 			GLM_STATIC_ASSERT(std::numeric_limits<U>::is_iec559 || GLM_UNRESTRICTED_GENTYPE, "'mix' only accept floating-point inputs for the interpolator a");
; 168  : 
; 169  : 			return static_cast<T>(static_cast<U>(x) + a * static_cast<U>(y - x));

	mov	rax, QWORD PTR y$[rsp]
	mov	rcx, QWORD PTR x$[rsp]
	movss	xmm0, DWORD PTR [rax]
	subss	xmm0, DWORD PTR [rcx]
	mov	rax, QWORD PTR a$[rsp]
	movss	xmm1, DWORD PTR [rax]
	mulss	xmm1, xmm0
	movaps	xmm0, xmm1
	mov	rax, QWORD PTR x$[rsp]
	movss	xmm1, DWORD PTR [rax]
	addss	xmm1, xmm0
	movaps	xmm0, xmm1

; 170  : 		}

	add	rsp, 16
	pop	rdi
	ret	0
?call@?$compute_mix@MM@detail@glm@@SAMAEBM00@Z ENDP	; glm::detail::compute_mix<float,float>::call
_TEXT	ENDS
; Function compile flags: /Odtp /RTCsu
; File C:\Users\ksart\OneDrive\Desktop\FlappyBird\libraries\external\glm\glm\detail\func_geometric.inl
;	COMDAT ?call@?$compute_cross@M$0A@$0A@@detail@glm@@SA?AU?$tvec3@M$0A@@3@AEBU43@0@Z
_TEXT	SEGMENT
tv88 = 32
__$ReturnUdt$ = 64
x$ = 72
y$ = 80
?call@?$compute_cross@M$0A@$0A@@detail@glm@@SA?AU?$tvec3@M$0A@@3@AEBU43@0@Z PROC ; glm::detail::compute_cross<float,0,0>::call, COMDAT

; 77   : 		{

$LN3:
	mov	QWORD PTR [rsp+24], r8
	mov	QWORD PTR [rsp+16], rdx
	mov	QWORD PTR [rsp+8], rcx
	push	rdi
	sub	rsp, 48					; 00000030H

; 78   : 			GLM_STATIC_ASSERT(std::numeric_limits<T>::is_iec559, "'cross' accepts only floating-point inputs");
; 79   : 
; 80   : 			return tvec3<T, P>(

	mov	rax, QWORD PTR x$[rsp]
	mov	rcx, QWORD PTR y$[rsp]
	movss	xmm0, DWORD PTR [rax]
	mulss	xmm0, DWORD PTR [rcx+4]
	mov	rax, QWORD PTR y$[rsp]
	mov	rcx, QWORD PTR x$[rsp]
	movss	xmm1, DWORD PTR [rax]
	mulss	xmm1, DWORD PTR [rcx+4]
	subss	xmm0, xmm1
	mov	rax, QWORD PTR x$[rsp]
	mov	rcx, QWORD PTR y$[rsp]
	movss	xmm1, DWORD PTR [rax+8]
	mulss	xmm1, DWORD PTR [rcx]
	mov	rax, QWORD PTR y$[rsp]
	mov	rcx, QWORD PTR x$[rsp]
	movss	xmm2, DWORD PTR [rax+8]
	mulss	xmm2, DWORD PTR [rcx]
	subss	xmm1, xmm2
	mov	rax, QWORD PTR x$[rsp]
	mov	rcx, QWORD PTR y$[rsp]
	movss	xmm2, DWORD PTR [rax+4]
	mulss	xmm2, DWORD PTR [rcx+8]
	mov	rax, QWORD PTR y$[rsp]
	mov	rcx, QWORD PTR x$[rsp]
	movss	xmm3, DWORD PTR [rax+4]
	mulss	xmm3, DWORD PTR [rcx+8]
	subss	xmm2, xmm3
	movss	DWORD PTR tv88[rsp], xmm2
	movaps	xmm3, xmm0
	movaps	xmm2, xmm1
	movss	xmm0, DWORD PTR tv88[rsp]
	movaps	xmm1, xmm0
	mov	rcx, QWORD PTR __$ReturnUdt$[rsp]
	call	??0?$tvec3@M$0A@@glm@@QEAA@MMM@Z	; glm::tvec3<float,0>::tvec3<float,0>
	mov	rax, QWORD PTR __$ReturnUdt$[rsp]

; 81   : 				x.y * y.z - y.y * x.z,
; 82   : 				x.z * y.x - y.z * x.x,
; 83   : 				x.x * y.y - y.x * x.y);
; 84   : 		}

	add	rsp, 48					; 00000030H
	pop	rdi
	ret	0
?call@?$compute_cross@M$0A@$0A@@detail@glm@@SA?AU?$tvec3@M$0A@@3@AEBU43@0@Z ENDP ; glm::detail::compute_cross<float,0,0>::call
_TEXT	ENDS
; Function compile flags: /Odtp /RTCsu
; File C:\Program Files\Microsoft Visual Studio\2022\Community\VC\Tools\MSVC\14.32.31326\include\utility
;	COMDAT ??$min@_K@std@@YAAEB_KAEB_K0@Z
_TEXT	SEGMENT
$T1 = 0
tv65 = 8
_Left$ = 32
_Right$ = 40
??$min@_K@std@@YAAEB_KAEB_K0@Z PROC			; std::min<unsigned __int64>, COMDAT

; 64   :     (min) (const _Ty& _Left, const _Ty& _Right) noexcept(noexcept(_Right < _Left)) /* strengthened */ {

$LN5:
	mov	QWORD PTR [rsp+16], rdx
	mov	QWORD PTR [rsp+8], rcx
	push	rdi
	sub	rsp, 16

; 65   :     // return smaller of _Left and _Right
; 66   :     return _Right < _Left ? _Right : _Left;

	mov	rax, QWORD PTR _Right$[rsp]
	mov	rcx, QWORD PTR _Left$[rsp]
	mov	rcx, QWORD PTR [rcx]
	cmp	QWORD PTR [rax], rcx
	jae	SHORT $LN3@min
	mov	rax, QWORD PTR _Right$[rsp]
	mov	QWORD PTR tv65[rsp], rax
	jmp	SHORT $LN4@min
$LN3@min:
	mov	rax, QWORD PTR _Left$[rsp]
	mov	QWORD PTR tv65[rsp], rax
$LN4@min:
	mov	rax, QWORD PTR tv65[rsp]
	mov	QWORD PTR $T1[rsp], rax
	mov	rax, QWORD PTR $T1[rsp]

; 67   : }

	add	rsp, 16
	pop	rdi
	ret	0
??$min@_K@std@@YAAEB_KAEB_K0@Z ENDP			; std::min<unsigned __int64>
_TEXT	ENDS
; Function compile flags: /Odtp /RTCsu
; File C:\Program Files\Microsoft Visual Studio\2022\Community\VC\Tools\MSVC\14.32.31326\include\xmemory
;	COMDAT ??$_Allocate@$0BA@U_Default_allocate_traits@std@@$0A@@std@@YAPEAX_K@Z
_TEXT	SEGMENT
_Bytes$ = 48
??$_Allocate@$0BA@U_Default_allocate_traits@std@@$0A@@std@@YAPEAX_K@Z PROC ; std::_Allocate<16,std::_Default_allocate_traits,0>, COMDAT

; 221  : __declspec(allocator) _CONSTEXPR20 void* _Allocate(const size_t _Bytes) {

$LN5:
	mov	QWORD PTR [rsp+8], rcx
	push	rdi
	sub	rsp, 32					; 00000020H

; 222  :     // allocate _Bytes when !_HAS_ALIGNED_NEW || _Align <= __STDCPP_DEFAULT_NEW_ALIGNMENT__
; 223  : #if defined(_M_IX86) || defined(_M_X64)
; 224  : #if _HAS_CXX20 // TRANSITION, GH-1532
; 225  :     if (!_STD is_constant_evaluated())
; 226  : #endif // _HAS_CXX20
; 227  :     {
; 228  :         if (_Bytes >= _Big_allocation_threshold) { // boost the alignment of big allocations to help autovectorization

	cmp	QWORD PTR _Bytes$[rsp], 4096		; 00001000H
	jb	SHORT $LN2@Allocate

; 229  :             return _Allocate_manually_vector_aligned<_Traits>(_Bytes);

	mov	rcx, QWORD PTR _Bytes$[rsp]
	call	??$_Allocate_manually_vector_aligned@U_Default_allocate_traits@std@@@std@@YAPEAX_K@Z ; std::_Allocate_manually_vector_aligned<std::_Default_allocate_traits>
	jmp	SHORT $LN1@Allocate
$LN2@Allocate:

; 230  :         }
; 231  :     }
; 232  : #endif // defined(_M_IX86) || defined(_M_X64)
; 233  : 
; 234  :     if (_Bytes != 0) {

	cmp	QWORD PTR _Bytes$[rsp], 0
	je	SHORT $LN3@Allocate

; 235  :         return _Traits::_Allocate(_Bytes);

	mov	rcx, QWORD PTR _Bytes$[rsp]
	call	?_Allocate@_Default_allocate_traits@std@@SAPEAX_K@Z ; std::_Default_allocate_traits::_Allocate
	jmp	SHORT $LN1@Allocate
$LN3@Allocate:

; 236  :     }
; 237  : 
; 238  :     return nullptr;

	xor	eax, eax
$LN1@Allocate:

; 239  : }

	add	rsp, 32					; 00000020H
	pop	rdi
	ret	0
??$_Allocate@$0BA@U_Default_allocate_traits@std@@$0A@@std@@YAPEAX_K@Z ENDP ; std::_Allocate<16,std::_Default_allocate_traits,0>
_TEXT	ENDS
; Function compile flags: /Odtp /RTCsu
; File C:\Program Files\Microsoft Visual Studio\2022\Community\VC\Tools\MSVC\14.32.31326\include\xmemory
;	COMDAT ??$_Get_size_of_n@$0BA@@std@@YA_K_K@Z
_TEXT	SEGMENT
_Overflow_is_possible$ = 32
_Max_possible$1 = 40
_Count$ = 64
??$_Get_size_of_n@$0BA@@std@@YA_K_K@Z PROC		; std::_Get_size_of_n<16>, COMDAT

; 55   : _NODISCARD constexpr size_t _Get_size_of_n(const size_t _Count) {

$LN4:
	mov	QWORD PTR [rsp+8], rcx
	push	rdi
	sub	rsp, 48					; 00000030H

; 56   :     constexpr bool _Overflow_is_possible = _Ty_size > 1;

	mov	BYTE PTR _Overflow_is_possible$[rsp], 1

; 57   : 
; 58   :     if constexpr (_Overflow_is_possible) {
; 59   :         constexpr size_t _Max_possible = static_cast<size_t>(-1) / _Ty_size;

	mov	rax, 1152921504606846975		; 0fffffffffffffffH
	mov	QWORD PTR _Max_possible$1[rsp], rax

; 60   :         if (_Count > _Max_possible) {

	mov	rax, 1152921504606846975		; 0fffffffffffffffH
	cmp	QWORD PTR _Count$[rsp], rax
	jbe	SHORT $LN2@Get_size_o

; 61   :             _Throw_bad_array_new_length(); // multiply overflow

	call	?_Throw_bad_array_new_length@std@@YAXXZ	; std::_Throw_bad_array_new_length
$LN2@Get_size_o:

; 62   :         }
; 63   :     }
; 64   : 
; 65   :     return _Count * _Ty_size;

	imul	rax, QWORD PTR _Count$[rsp], 16
$LN3@Get_size_o:

; 66   : }

	add	rsp, 48					; 00000030H
	pop	rdi
	ret	0
??$_Get_size_of_n@$0BA@@std@@YA_K_K@Z ENDP		; std::_Get_size_of_n<16>
_TEXT	ENDS
; Function compile flags: /Odtp /RTCsu
; File C:\Users\ksart\OneDrive\Desktop\FlappyBird\libraries\external\glm\glm\detail\type_vec3.inl
;	COMDAT ??$?DM$0A@@glm@@YA?AU?$tvec3@M$0A@@0@AEBU10@0@Z
_TEXT	SEGMENT
tv76 = 32
__$ReturnUdt$ = 64
v1$ = 72
v2$ = 80
??$?DM$0A@@glm@@YA?AU?$tvec3@M$0A@@0@AEBU10@0@Z PROC	; glm::operator*<float,0>, COMDAT

; 664  : 	{

$LN3:
	mov	QWORD PTR [rsp+24], r8
	mov	QWORD PTR [rsp+16], rdx
	mov	QWORD PTR [rsp+8], rcx
	push	rdi
	sub	rsp, 48					; 00000030H

; 665  : 		return tvec3<T, P>(

	mov	rax, QWORD PTR v1$[rsp]
	mov	rcx, QWORD PTR v2$[rsp]
	movss	xmm0, DWORD PTR [rax+8]
	mulss	xmm0, DWORD PTR [rcx+8]
	mov	rax, QWORD PTR v1$[rsp]
	mov	rcx, QWORD PTR v2$[rsp]
	movss	xmm1, DWORD PTR [rax+4]
	mulss	xmm1, DWORD PTR [rcx+4]
	mov	rax, QWORD PTR v1$[rsp]
	mov	rcx, QWORD PTR v2$[rsp]
	movss	xmm2, DWORD PTR [rax]
	mulss	xmm2, DWORD PTR [rcx]
	movss	DWORD PTR tv76[rsp], xmm2
	movaps	xmm3, xmm0
	movaps	xmm2, xmm1
	movss	xmm0, DWORD PTR tv76[rsp]
	movaps	xmm1, xmm0
	mov	rcx, QWORD PTR __$ReturnUdt$[rsp]
	call	??0?$tvec3@M$0A@@glm@@QEAA@MMM@Z	; glm::tvec3<float,0>::tvec3<float,0>
	mov	rax, QWORD PTR __$ReturnUdt$[rsp]

; 666  : 			v1.x * v2.x,
; 667  : 			v1.y * v2.y,
; 668  : 			v1.z * v2.z);
; 669  : 	}

	add	rsp, 48					; 00000030H
	pop	rdi
	ret	0
??$?DM$0A@@glm@@YA?AU?$tvec3@M$0A@@0@AEBU10@0@Z ENDP	; glm::operator*<float,0>
_TEXT	ENDS
; Function compile flags: /Odtp /RTCsu
; File C:\Users\ksart\OneDrive\Desktop\FlappyBird\libraries\external\glm\glm\detail\func_exponential.inl
;	COMDAT ??$inversesqrt@M@glm@@YAMM@Z
_TEXT	SEGMENT
x$ = 64
??$inversesqrt@M@glm@@YAMM@Z PROC			; glm::inversesqrt<float>, COMDAT

; 131  : 	{

$LN3:
	movss	DWORD PTR [rsp+8], xmm0
	push	rdi
	sub	rsp, 48					; 00000030H

; 132  : 		return static_cast<genType>(1) / sqrt(x);

	movss	xmm0, DWORD PTR x$[rsp]
	call	?sqrt@@YAMM@Z				; sqrt
	movss	xmm1, DWORD PTR __real@3f800000
	divss	xmm1, xmm0
	movaps	xmm0, xmm1

; 133  : 	}

	add	rsp, 48					; 00000030H
	pop	rdi
	ret	0
??$inversesqrt@M@glm@@YAMM@Z ENDP			; glm::inversesqrt<float>
_TEXT	ENDS
; Function compile flags: /Odtp /RTCsu
; File C:\Users\ksart\OneDrive\Desktop\FlappyBird\libraries\external\glm\glm\detail\func_geometric.inl
;	COMDAT ??$dot@M$0A@Utvec3@glm@@@glm@@YAMAEBU?$tvec3@M$0A@@0@0@Z
_TEXT	SEGMENT
x$ = 64
y$ = 72
??$dot@M$0A@Utvec3@glm@@@glm@@YAMAEBU?$tvec3@M$0A@@0@0@Z PROC ; glm::dot<float,0,glm::tvec3>, COMDAT

; 172  : 	{

$LN3:
	mov	QWORD PTR [rsp+16], rdx
	mov	QWORD PTR [rsp+8], rcx
	push	rdi
	sub	rsp, 48					; 00000030H

; 173  : 		GLM_STATIC_ASSERT(std::numeric_limits<T>::is_iec559, "'dot' accepts only floating-point inputs");
; 174  : 		return detail::compute_dot<vecType, T, P, detail::is_aligned<P>::value>::call(x, y);

	mov	rdx, QWORD PTR y$[rsp]
	mov	rcx, QWORD PTR x$[rsp]
	call	?call@?$compute_dot@Utvec3@glm@@M$0A@$0A@@detail@glm@@SAMAEBU?$tvec3@M$0A@@3@0@Z ; glm::detail::compute_dot<glm::tvec3,float,0,0>::call

; 175  : 	}

	add	rsp, 48					; 00000030H
	pop	rdi
	ret	0
??$dot@M$0A@Utvec3@glm@@@glm@@YAMAEBU?$tvec3@M$0A@@0@0@Z ENDP ; glm::dot<float,0,glm::tvec3>
_TEXT	ENDS
; Function compile flags: /Odtp /RTCsu
; File C:\Program Files\Microsoft Visual Studio\2022\Community\VC\Tools\MSVC\14.32.31326\include\xutility
;	COMDAT ??$_Construct_in_place@U_Container_proxy@std@@PEAU_Container_base12@2@@std@@YAXAEAU_Container_proxy@0@$$QEAPEAU_Container_base12@0@@Z
_TEXT	SEGMENT
$T1 = 32
_Obj$ = 64
<_Args_0>$ = 72
??$_Construct_in_place@U_Container_proxy@std@@PEAU_Container_base12@2@@std@@YAXAEAU_Container_proxy@0@$$QEAPEAU_Container_base12@0@@Z PROC ; std::_Construct_in_place<std::_Container_proxy,std::_Container_base12 *>, COMDAT

; 142  :     is_nothrow_constructible_v<_Ty, _Types...>) {

$LN3:
	mov	QWORD PTR [rsp+16], rdx
	mov	QWORD PTR [rsp+8], rcx
	push	rdi
	sub	rsp, 48					; 00000030H

; 143  : #if _HAS_CXX20
; 144  :     if (_STD is_constant_evaluated()) {
; 145  :         _STD construct_at(_STD addressof(_Obj), _STD forward<_Types>(_Args)...);
; 146  :     } else
; 147  : #endif // _HAS_CXX20
; 148  :     {
; 149  :         ::new (_Voidify_iter(_STD addressof(_Obj))) _Ty(_STD forward<_Types>(_Args)...);

	mov	rcx, QWORD PTR _Obj$[rsp]
	call	??$addressof@U_Container_proxy@std@@@std@@YAPEAU_Container_proxy@0@AEAU10@@Z ; std::addressof<std::_Container_proxy>
	mov	rcx, rax
	call	??$_Voidify_iter@PEAU_Container_proxy@std@@@std@@YAPEAXPEAU_Container_proxy@0@@Z ; std::_Voidify_iter<std::_Container_proxy *>
	mov	rdx, rax
	mov	ecx, 16
	call	??2@YAPEAX_KPEAX@Z			; operator new
	mov	QWORD PTR $T1[rsp], rax
	mov	rcx, QWORD PTR <_Args_0>$[rsp]
	call	??$forward@PEAU_Container_base12@std@@@std@@YA$$QEAPEAU_Container_base12@0@AEAPEAU10@@Z ; std::forward<std::_Container_base12 *>
	mov	rdx, QWORD PTR [rax]
	mov	rcx, QWORD PTR $T1[rsp]
	call	??0_Container_proxy@std@@QEAA@PEAU_Container_base12@1@@Z ; std::_Container_proxy::_Container_proxy

; 150  :     }
; 151  : }

	add	rsp, 48					; 00000030H
	pop	rdi
	ret	0
??$_Construct_in_place@U_Container_proxy@std@@PEAU_Container_base12@2@@std@@YAXAEAU_Container_proxy@0@$$QEAPEAU_Container_base12@0@@Z ENDP ; std::_Construct_in_place<std::_Container_proxy,std::_Container_base12 *>
_TEXT	ENDS
; Function compile flags: /Odtp /RTCsu
; File C:\Program Files\Microsoft Visual Studio\2022\Community\VC\Tools\MSVC\14.32.31326\include\xstddef
;	COMDAT ??$addressof@U_Container_base12@std@@@std@@YAPEAU_Container_base12@0@AEAU10@@Z
_TEXT	SEGMENT
_Val$ = 16
??$addressof@U_Container_base12@std@@@std@@YAPEAU_Container_base12@0@AEAU10@@Z PROC ; std::addressof<std::_Container_base12>, COMDAT

; 252  : _NODISCARD constexpr _Ty* addressof(_Ty& _Val) noexcept {

$LN3:
	mov	QWORD PTR [rsp+8], rcx
	push	rdi

; 253  :     return __builtin_addressof(_Val);

	mov	rax, QWORD PTR _Val$[rsp]

; 254  : }

	pop	rdi
	ret	0
??$addressof@U_Container_base12@std@@@std@@YAPEAU_Container_base12@0@AEAU10@@Z ENDP ; std::addressof<std::_Container_base12>
_TEXT	ENDS
; Function compile flags: /Odtp /RTCsu
; File C:\Program Files\Microsoft Visual Studio\2022\Community\VC\Tools\MSVC\14.32.31326\include\xstddef
;	COMDAT ??$_Unfancy@U_Container_proxy@std@@@std@@YAPEAU_Container_proxy@0@PEAU10@@Z
_TEXT	SEGMENT
_Ptr$ = 16
??$_Unfancy@U_Container_proxy@std@@@std@@YAPEAU_Container_proxy@0@PEAU10@@Z PROC ; std::_Unfancy<std::_Container_proxy>, COMDAT

; 265  : _NODISCARD constexpr _Ty* _Unfancy(_Ty* _Ptr) noexcept { // do nothing for plain pointers

$LN3:
	mov	QWORD PTR [rsp+8], rcx
	push	rdi

; 266  :     return _Ptr;

	mov	rax, QWORD PTR _Ptr$[rsp]

; 267  : }

	pop	rdi
	ret	0
??$_Unfancy@U_Container_proxy@std@@@std@@YAPEAU_Container_proxy@0@PEAU10@@Z ENDP ; std::_Unfancy<std::_Container_proxy>
_TEXT	ENDS
; Function compile flags: /Odtp /RTCsu
; File C:\Program Files\Microsoft Visual Studio\2022\Community\VC\Tools\MSVC\14.32.31326\include\xmemory
;	COMDAT ??$_Uninitialized_copy@PEBU?$tquat@M$0A@@glm@@V?$allocator@U?$tquat@M$0A@@glm@@@std@@@std@@YAPEAU?$tquat@M$0A@@glm@@QEBU12@0PEAU12@AEAV?$allocator@U?$tquat@M$0A@@glm@@@0@@Z
_TEXT	SEGMENT
_UFirst$ = 32
_ULast$ = 40
_Backout$ = 56
$T4 = 88
_First$ = 112
_Last$ = 120
_Dest$ = 128
_Al$ = 136
??$_Uninitialized_copy@PEBU?$tquat@M$0A@@glm@@V?$allocator@U?$tquat@M$0A@@glm@@@std@@@std@@YAPEAU?$tquat@M$0A@@glm@@QEBU12@0PEAU12@AEAV?$allocator@U?$tquat@M$0A@@glm@@@0@@Z PROC ; std::_Uninitialized_copy<glm::tquat<float,0> const *,std::allocator<glm::tquat<float,0> > >, COMDAT

; 1673 :     const _InIt _First, const _InIt _Last, _Alloc_ptr_t<_Alloc> _Dest, _Alloc& _Al) {

$LN7:
	mov	QWORD PTR [rsp+32], r9
	mov	QWORD PTR [rsp+24], r8
	mov	QWORD PTR [rsp+16], rdx
	mov	QWORD PTR [rsp+8], rcx
	push	rdi
	sub	rsp, 96					; 00000060H
	lea	rdi, QWORD PTR [rsp+32]
	mov	ecx, 16
	mov	eax, -858993460				; ccccccccH
	rep stosd
	mov	rcx, QWORD PTR [rsp+112]

; 1674 :     // copy [_First, _Last) to raw _Dest, using _Al
; 1675 :     // note: only called internally from elsewhere in the STL
; 1676 :     using _Ptrval = typename _Alloc::value_type*;
; 1677 : 
; 1678 :     auto _UFirst      = _Get_unwrapped(_First);

	lea	rcx, QWORD PTR _First$[rsp]
	call	??$_Get_unwrapped@AEBQEBU?$tquat@M$0A@@glm@@@std@@YA?A_TAEBQEBU?$tquat@M$0A@@glm@@@Z ; std::_Get_unwrapped<glm::tquat<float,0> const * const &>
	mov	QWORD PTR _UFirst$[rsp], rax

; 1679 :     const auto _ULast = _Get_unwrapped(_Last);

	lea	rcx, QWORD PTR _Last$[rsp]
	call	??$_Get_unwrapped@AEBQEBU?$tquat@M$0A@@glm@@@std@@YA?A_TAEBQEBU?$tquat@M$0A@@glm@@@Z ; std::_Get_unwrapped<glm::tquat<float,0> const * const &>
	mov	QWORD PTR _ULast$[rsp], rax

; 1680 : 
; 1681 :     if constexpr (conjunction_v<bool_constant<_Iter_copy_cat<decltype(_UFirst), _Ptrval>::_Bitcopy_constructible>,
; 1682 :                       _Uses_default_construct<_Alloc, _Ptrval, decltype(*_UFirst)>>) {
; 1683 : #if _HAS_CXX20
; 1684 :         if (!_STD is_constant_evaluated())
; 1685 : #endif // _HAS_CXX20
; 1686 :         {
; 1687 :             _Copy_memmove(_UFirst, _ULast, _Unfancy(_Dest));

	mov	rcx, QWORD PTR _Dest$[rsp]
	call	??$_Unfancy@U?$tquat@M$0A@@glm@@@std@@YAPEAU?$tquat@M$0A@@glm@@PEAU12@@Z ; std::_Unfancy<glm::tquat<float,0> >
	mov	r8, rax
	mov	rdx, QWORD PTR _ULast$[rsp]
	mov	rcx, QWORD PTR _UFirst$[rsp]
	call	??$_Copy_memmove@PEBU?$tquat@M$0A@@glm@@PEAU12@@std@@YAPEAU?$tquat@M$0A@@glm@@PEBU12@0PEAU12@@Z ; std::_Copy_memmove<glm::tquat<float,0> const *,glm::tquat<float,0> *>

; 1688 :             _Dest += _ULast - _UFirst;

	mov	rax, QWORD PTR _UFirst$[rsp]
	mov	rcx, QWORD PTR _ULast$[rsp]
	sub	rcx, rax
	mov	rax, rcx
	sar	rax, 4
	imul	rax, rax, 16
	mov	rcx, QWORD PTR _Dest$[rsp]
	add	rcx, rax
	mov	rax, rcx
	mov	QWORD PTR _Dest$[rsp], rax

; 1689 :             return _Dest;

	mov	rax, QWORD PTR _Dest$[rsp]
	jmp	SHORT $LN1@Uninitiali

; 1690 :         }
; 1691 :     }
; 1692 : 
; 1693 :     _Uninitialized_backout_al<_Alloc> _Backout{_Dest, _Al};

	mov	r8, QWORD PTR _Al$[rsp]
	mov	rdx, QWORD PTR _Dest$[rsp]
	lea	rcx, QWORD PTR _Backout$[rsp]
	call	??0?$_Uninitialized_backout_al@V?$allocator@U?$tquat@M$0A@@glm@@@std@@@std@@QEAA@PEAU?$tquat@M$0A@@glm@@AEAV?$allocator@U?$tquat@M$0A@@glm@@@1@@Z ; std::_Uninitialized_backout_al<std::allocator<glm::tquat<float,0> > >::_Uninitialized_backout_al<std::allocator<glm::tquat<float,0> > >

; 1694 :     for (; _UFirst != _ULast; ++_UFirst) {

	jmp	SHORT $LN4@Uninitiali
$LN2@Uninitiali:
	mov	rax, QWORD PTR _UFirst$[rsp]
	add	rax, 16
	mov	QWORD PTR _UFirst$[rsp], rax
$LN4@Uninitiali:
	mov	rax, QWORD PTR _ULast$[rsp]
	cmp	QWORD PTR _UFirst$[rsp], rax
	je	SHORT $LN3@Uninitiali

; 1695 :         _Backout._Emplace_back(*_UFirst);

	mov	rdx, QWORD PTR _UFirst$[rsp]
	lea	rcx, QWORD PTR _Backout$[rsp]
	call	??$_Emplace_back@AEBU?$tquat@M$0A@@glm@@@?$_Uninitialized_backout_al@V?$allocator@U?$tquat@M$0A@@glm@@@std@@@std@@QEAAXAEBU?$tquat@M$0A@@glm@@@Z ; std::_Uninitialized_backout_al<std::allocator<glm::tquat<float,0> > >::_Emplace_back<glm::tquat<float,0> const &>

; 1696 :     }

	jmp	SHORT $LN2@Uninitiali
$LN3@Uninitiali:

; 1697 : 
; 1698 :     return _Backout._Release();

	lea	rcx, QWORD PTR _Backout$[rsp]
	call	?_Release@?$_Uninitialized_backout_al@V?$allocator@U?$tquat@M$0A@@glm@@@std@@@std@@QEAAPEAU?$tquat@M$0A@@glm@@XZ ; std::_Uninitialized_backout_al<std::allocator<glm::tquat<float,0> > >::_Release
	mov	QWORD PTR $T4[rsp], rax
	lea	rcx, QWORD PTR _Backout$[rsp]
	call	??1?$_Uninitialized_backout_al@V?$allocator@U?$tquat@M$0A@@glm@@@std@@@std@@QEAA@XZ ; std::_Uninitialized_backout_al<std::allocator<glm::tquat<float,0> > >::~_Uninitialized_backout_al<std::allocator<glm::tquat<float,0> > >
	mov	rax, QWORD PTR $T4[rsp]
$LN1@Uninitiali:

; 1699 : }

	mov	rdi, rax
	mov	rcx, rsp
	lea	rdx, OFFSET FLAT:??$_Uninitialized_copy@PEBU?$tquat@M$0A@@glm@@V?$allocator@U?$tquat@M$0A@@glm@@@std@@@std@@YAPEAU?$tquat@M$0A@@glm@@QEBU12@0PEAU12@AEAV?$allocator@U?$tquat@M$0A@@glm@@@0@@Z$rtcFrameData
	call	_RTC_CheckStackVars
	mov	rax, rdi
	add	rsp, 96					; 00000060H
	pop	rdi
	ret	0
??$_Uninitialized_copy@PEBU?$tquat@M$0A@@glm@@V?$allocator@U?$tquat@M$0A@@glm@@@std@@@std@@YAPEAU?$tquat@M$0A@@glm@@QEBU12@0PEAU12@AEAV?$allocator@U?$tquat@M$0A@@glm@@@0@@Z ENDP ; std::_Uninitialized_copy<glm::tquat<float,0> const *,std::allocator<glm::tquat<float,0> > >
_TEXT	ENDS
; Function compile flags: /Odtp /RTCsu
;	COMDAT text$x
text$x	SEGMENT
_UFirst$ = 32
_ULast$ = 40
_Backout$ = 56
$T4 = 88
_First$ = 112
_Last$ = 120
_Dest$ = 128
_Al$ = 136
?dtor$0@?0???$_Uninitialized_copy@PEBU?$tquat@M$0A@@glm@@V?$allocator@U?$tquat@M$0A@@glm@@@std@@@std@@YAPEAU?$tquat@M$0A@@glm@@QEBU12@0PEAU12@AEAV?$allocator@U?$tquat@M$0A@@glm@@@0@@Z@4HA PROC ; `std::_Uninitialized_copy<glm::tquat<float,0> const *,std::allocator<glm::tquat<float,0> > >'::`1'::dtor$0
	mov	QWORD PTR [rsp+8], rcx
	mov	QWORD PTR [rsp+16], rdx
	push	rbp
	push	rdi
	sub	rsp, 40					; 00000028H
	mov	rbp, rdx
	lea	rcx, QWORD PTR _Backout$[rbp]
	call	??1?$_Uninitialized_backout_al@V?$allocator@U?$tquat@M$0A@@glm@@@std@@@std@@QEAA@XZ ; std::_Uninitialized_backout_al<std::allocator<glm::tquat<float,0> > >::~_Uninitialized_backout_al<std::allocator<glm::tquat<float,0> > >
	add	rsp, 40					; 00000028H
	pop	rdi
	pop	rbp
	ret	0
?dtor$0@?0???$_Uninitialized_copy@PEBU?$tquat@M$0A@@glm@@V?$allocator@U?$tquat@M$0A@@glm@@@std@@@std@@YAPEAU?$tquat@M$0A@@glm@@QEBU12@0PEAU12@AEAV?$allocator@U?$tquat@M$0A@@glm@@@0@@Z@4HA ENDP ; `std::_Uninitialized_copy<glm::tquat<float,0> const *,std::allocator<glm::tquat<float,0> > >'::`1'::dtor$0
text$x	ENDS
; Function compile flags: /Odtp /RTCsu
; File C:\Program Files\Microsoft Visual Studio\2022\Community\VC\Tools\MSVC\14.32.31326\include\type_traits
;	COMDAT ??$forward@PEBU?$tquat@M$0A@@glm@@@std@@YA$$QEAPEBU?$tquat@M$0A@@glm@@AEAPEBU12@@Z
_TEXT	SEGMENT
_Arg$ = 16
??$forward@PEBU?$tquat@M$0A@@glm@@@std@@YA$$QEAPEBU?$tquat@M$0A@@glm@@AEAPEBU12@@Z PROC ; std::forward<glm::tquat<float,0> const *>, COMDAT

; 1341 :     remove_reference_t<_Ty>& _Arg) noexcept { // forward an lvalue as either an lvalue or an rvalue

$LN3:
	mov	QWORD PTR [rsp+8], rcx
	push	rdi

; 1342 :     return static_cast<_Ty&&>(_Arg);

	mov	rax, QWORD PTR _Arg$[rsp]

; 1343 : }

	pop	rdi
	ret	0
??$forward@PEBU?$tquat@M$0A@@glm@@@std@@YA$$QEAPEBU?$tquat@M$0A@@glm@@AEAPEBU12@@Z ENDP ; std::forward<glm::tquat<float,0> const *>
_TEXT	ENDS
; Function compile flags: /Odtp /RTCsu
; File C:\Program Files\Microsoft Visual Studio\2022\Community\VC\Tools\MSVC\14.32.31326\include\xmemory
;	COMDAT ??1?$_Tidy_guard@V?$vector@U?$tquat@M$0A@@glm@@V?$allocator@U?$tquat@M$0A@@glm@@@std@@@std@@@std@@QEAA@XZ
_TEXT	SEGMENT
this$ = 48
??1?$_Tidy_guard@V?$vector@U?$tquat@M$0A@@glm@@V?$allocator@U?$tquat@M$0A@@glm@@@std@@@std@@@std@@QEAA@XZ PROC ; std::_Tidy_guard<std::vector<glm::tquat<float,0>,std::allocator<glm::tquat<float,0> > > >::~_Tidy_guard<std::vector<glm::tquat<float,0>,std::allocator<glm::tquat<float,0> > > >, COMDAT

; 33   :     _CONSTEXPR20 ~_Tidy_guard() {

$LN4:
	mov	QWORD PTR [rsp+8], rcx
	push	rdi
	sub	rsp, 32					; 00000020H

; 34   :         if (_Target) {

	mov	rax, QWORD PTR this$[rsp]
	cmp	QWORD PTR [rax], 0
	je	SHORT $LN2@Tidy_guard

; 35   :             _Target->_Tidy();

	mov	rax, QWORD PTR this$[rsp]
	mov	rcx, QWORD PTR [rax]
	call	?_Tidy@?$vector@U?$tquat@M$0A@@glm@@V?$allocator@U?$tquat@M$0A@@glm@@@std@@@std@@AEAAXXZ ; std::vector<glm::tquat<float,0>,std::allocator<glm::tquat<float,0> > >::_Tidy
$LN2@Tidy_guard:

; 36   :         }
; 37   :     }

	add	rsp, 32					; 00000020H
	pop	rdi
	ret	0
??1?$_Tidy_guard@V?$vector@U?$tquat@M$0A@@glm@@V?$allocator@U?$tquat@M$0A@@glm@@@std@@@std@@@std@@QEAA@XZ ENDP ; std::_Tidy_guard<std::vector<glm::tquat<float,0>,std::allocator<glm::tquat<float,0> > > >::~_Tidy_guard<std::vector<glm::tquat<float,0>,std::allocator<glm::tquat<float,0> > > >
_TEXT	ENDS
; Function compile flags: /Odtp /RTCsu
; File C:\Program Files\Microsoft Visual Studio\2022\Community\VC\Tools\MSVC\14.32.31326\include\xmemory
;	COMDAT ??1?$_Container_proxy_ptr12@V?$allocator@U_Container_proxy@std@@@std@@@std@@QEAA@XZ
_TEXT	SEGMENT
this$ = 48
??1?$_Container_proxy_ptr12@V?$allocator@U_Container_proxy@std@@@std@@@std@@QEAA@XZ PROC ; std::_Container_proxy_ptr12<std::allocator<std::_Container_proxy> >::~_Container_proxy_ptr12<std::allocator<std::_Container_proxy> >, COMDAT

; 1334 :     _CONSTEXPR20 ~_Container_proxy_ptr12() {

$LN4:
	mov	QWORD PTR [rsp+8], rcx
	push	rdi
	sub	rsp, 32					; 00000020H

; 1335 :         if (_Ptr) {

	mov	rax, QWORD PTR this$[rsp]
	cmp	QWORD PTR [rax], 0
	je	SHORT $LN2@Container_

; 1336 :             _Delete_plain_internal(_Al, _Ptr);

	mov	rax, QWORD PTR this$[rsp]
	mov	rdx, QWORD PTR [rax]
	mov	rax, QWORD PTR this$[rsp]
	mov	rcx, QWORD PTR [rax+8]
	call	??$_Delete_plain_internal@V?$allocator@U_Container_proxy@std@@@std@@@std@@YAXAEAV?$allocator@U_Container_proxy@std@@@0@QEAU_Container_proxy@0@@Z ; std::_Delete_plain_internal<std::allocator<std::_Container_proxy> >
$LN2@Container_:

; 1337 :         }
; 1338 :     }

	add	rsp, 32					; 00000020H
	pop	rdi
	ret	0
??1?$_Container_proxy_ptr12@V?$allocator@U_Container_proxy@std@@@std@@@std@@QEAA@XZ ENDP ; std::_Container_proxy_ptr12<std::allocator<std::_Container_proxy> >::~_Container_proxy_ptr12<std::allocator<std::_Container_proxy> >
_TEXT	ENDS
; Function compile flags: /Odtp /RTCsu
; File C:\Program Files\Microsoft Visual Studio\2022\Community\VC\Tools\MSVC\14.32.31326\include\xmemory
;	COMDAT ??0?$_Container_proxy_ptr12@V?$allocator@U_Container_proxy@std@@@std@@@std@@QEAA@AEAV?$allocator@U_Container_proxy@std@@@1@AEAU_Container_base12@1@@Z
_TEXT	SEGMENT
$T1 = 32
this$ = 64
_Al_$ = 72
_Mycont$ = 80
??0?$_Container_proxy_ptr12@V?$allocator@U_Container_proxy@std@@@std@@@std@@QEAA@AEAV?$allocator@U_Container_proxy@std@@@1@AEAU_Container_base12@1@@Z PROC ; std::_Container_proxy_ptr12<std::allocator<std::_Container_proxy> >::_Container_proxy_ptr12<std::allocator<std::_Container_proxy> >, COMDAT

; 1320 :     _CONSTEXPR20 _Container_proxy_ptr12(_Alloc& _Al_, _Container_base12& _Mycont) : _Al(_Al_) {

$LN3:
	mov	QWORD PTR [rsp+24], r8
	mov	QWORD PTR [rsp+16], rdx
	mov	QWORD PTR [rsp+8], rcx
	push	rdi
	sub	rsp, 48					; 00000030H
	mov	rcx, QWORD PTR this$[rsp]
	call	??0_Basic_container_proxy_ptr12@std@@IEAA@XZ ; std::_Basic_container_proxy_ptr12::_Basic_container_proxy_ptr12
	mov	rax, QWORD PTR this$[rsp]
	mov	rcx, QWORD PTR _Al_$[rsp]
	mov	QWORD PTR [rax+8], rcx

; 1321 :         // create a new _Container_proxy pointing at _Mycont
; 1322 :         _Ptr = _Unfancy(_Al_.allocate(1));

	mov	edx, 1
	mov	rcx, QWORD PTR _Al_$[rsp]
	call	?allocate@?$allocator@U_Container_proxy@std@@@std@@QEAAPEAU_Container_proxy@2@_K@Z ; std::allocator<std::_Container_proxy>::allocate
	mov	rcx, rax
	call	??$_Unfancy@U_Container_proxy@std@@@std@@YAPEAU_Container_proxy@0@PEAU10@@Z ; std::_Unfancy<std::_Container_proxy>
	mov	rcx, QWORD PTR this$[rsp]
	mov	QWORD PTR [rcx], rax

; 1323 :         _Construct_in_place(*_Ptr, _STD addressof(_Mycont));

	mov	rcx, QWORD PTR _Mycont$[rsp]
	call	??$addressof@U_Container_base12@std@@@std@@YAPEAU_Container_base12@0@AEAU10@@Z ; std::addressof<std::_Container_base12>
	mov	QWORD PTR $T1[rsp], rax
	lea	rdx, QWORD PTR $T1[rsp]
	mov	rax, QWORD PTR this$[rsp]
	mov	rcx, QWORD PTR [rax]
	call	??$_Construct_in_place@U_Container_proxy@std@@PEAU_Container_base12@2@@std@@YAXAEAU_Container_proxy@0@$$QEAPEAU_Container_base12@0@@Z ; std::_Construct_in_place<std::_Container_proxy,std::_Container_base12 *>

; 1324 :         _Mycont._Myproxy = _Ptr;

	mov	rax, QWORD PTR _Mycont$[rsp]
	mov	rcx, QWORD PTR this$[rsp]
	mov	rcx, QWORD PTR [rcx]
	mov	QWORD PTR [rax], rcx

; 1325 :     }

	mov	rax, QWORD PTR this$[rsp]
	add	rsp, 48					; 00000030H
	pop	rdi
	ret	0
??0?$_Container_proxy_ptr12@V?$allocator@U_Container_proxy@std@@@std@@@std@@QEAA@AEAV?$allocator@U_Container_proxy@std@@@1@AEAU_Container_base12@1@@Z ENDP ; std::_Container_proxy_ptr12<std::allocator<std::_Container_proxy> >::_Container_proxy_ptr12<std::allocator<std::_Container_proxy> >
_TEXT	ENDS
; Function compile flags: /Odtp /RTCsu
; File C:\Program Files\Microsoft Visual Studio\2022\Community\VC\Tools\MSVC\14.32.31326\include\type_traits
;	COMDAT ??$forward@AEBV?$allocator@U?$tquat@M$0A@@glm@@@std@@@std@@YAAEBV?$allocator@U?$tquat@M$0A@@glm@@@0@AEBV10@@Z
_TEXT	SEGMENT
_Arg$ = 16
??$forward@AEBV?$allocator@U?$tquat@M$0A@@glm@@@std@@@std@@YAAEBV?$allocator@U?$tquat@M$0A@@glm@@@0@AEBV10@@Z PROC ; std::forward<std::allocator<glm::tquat<float,0> > const &>, COMDAT

; 1341 :     remove_reference_t<_Ty>& _Arg) noexcept { // forward an lvalue as either an lvalue or an rvalue

$LN3:
	mov	QWORD PTR [rsp+8], rcx
	push	rdi

; 1342 :     return static_cast<_Ty&&>(_Arg);

	mov	rax, QWORD PTR _Arg$[rsp]

; 1343 : }

	pop	rdi
	ret	0
??$forward@AEBV?$allocator@U?$tquat@M$0A@@glm@@@std@@@std@@YAAEBV?$allocator@U?$tquat@M$0A@@glm@@@0@AEBV10@@Z ENDP ; std::forward<std::allocator<glm::tquat<float,0> > const &>
_TEXT	ENDS
; Function compile flags: /Odtp /RTCsu
; File C:\Program Files\Microsoft Visual Studio\2022\Community\VC\Tools\MSVC\14.32.31326\include\xmemory
;	COMDAT ??$_Deallocate_plain@V?$allocator@U_Container_proxy@std@@@std@@@std@@YAXAEAV?$allocator@U_Container_proxy@std@@@0@QEAU_Container_proxy@0@@Z
_TEXT	SEGMENT
_Al$ = 48
_Ptr$ = 56
??$_Deallocate_plain@V?$allocator@U_Container_proxy@std@@@std@@@std@@YAXAEAV?$allocator@U_Container_proxy@std@@@0@QEAU_Container_proxy@0@@Z PROC ; std::_Deallocate_plain<std::allocator<std::_Container_proxy> >, COMDAT

; 972  : _CONSTEXPR20 void _Deallocate_plain(_Alloc& _Al, typename _Alloc::value_type* const _Ptr) noexcept {

$LN3:
	mov	QWORD PTR [rsp+16], rdx
	mov	QWORD PTR [rsp+8], rcx
	push	rdi
	sub	rsp, 32					; 00000020H

; 973  :     // deallocate a plain pointer using an allocator
; 974  :     using _Alloc_traits = allocator_traits<_Alloc>;
; 975  :     if constexpr (is_same_v<_Alloc_ptr_t<_Alloc>, typename _Alloc::value_type*>) {
; 976  :         _Alloc_traits::deallocate(_Al, _Ptr, 1);

	mov	r8d, 1
	mov	rdx, QWORD PTR _Ptr$[rsp]
	mov	rcx, QWORD PTR _Al$[rsp]
	call	?deallocate@?$_Default_allocator_traits@V?$allocator@U_Container_proxy@std@@@std@@@std@@SAXAEAV?$allocator@U_Container_proxy@std@@@2@QEAU_Container_proxy@2@_K@Z ; std::_Default_allocator_traits<std::allocator<std::_Container_proxy> >::deallocate
	npad	1

; 977  :     } else {
; 978  :         using _Ptr_traits = pointer_traits<_Alloc_ptr_t<_Alloc>>;
; 979  :         _Alloc_traits::deallocate(_Al, _Ptr_traits::pointer_to(*_Ptr), 1);
; 980  :     }
; 981  : }

	add	rsp, 32					; 00000020H
	pop	rdi
	ret	0
??$_Deallocate_plain@V?$allocator@U_Container_proxy@std@@@std@@@std@@YAXAEAV?$allocator@U_Container_proxy@std@@@0@QEAU_Container_proxy@0@@Z ENDP ; std::_Deallocate_plain<std::allocator<std::_Container_proxy> >
_TEXT	ENDS
; Function compile flags: /Odtp /RTCsu
; File C:\Users\ksart\OneDrive\Desktop\FlappyBird\libraries\external\glm\glm\detail\func_vector_relational.inl
;	COMDAT ??$lessThan@M$0A@Utvec3@glm@@@glm@@YA?AU?$tvec3@_N$0A@@0@AEBU?$tvec3@M$0A@@0@0@Z
_TEXT	SEGMENT
Result$ = 36
i$4 = 52
tv64 = 56
tv80 = 64
tv86 = 72
__$ReturnUdt$ = 112
x$ = 120
y$ = 128
??$lessThan@M$0A@Utvec3@glm@@@glm@@YA?AU?$tvec3@_N$0A@@0@AEBU?$tvec3@M$0A@@0@0@Z PROC ; glm::lessThan<float,0,glm::tvec3>, COMDAT

; 10   : 	{

$LN9:
	mov	QWORD PTR [rsp+24], r8
	mov	QWORD PTR [rsp+16], rdx
	mov	QWORD PTR [rsp+8], rcx
	push	rsi
	push	rdi
	sub	rsp, 88					; 00000058H
	lea	rdi, QWORD PTR [rsp+32]
	mov	ecx, 14
	mov	eax, -858993460				; ccccccccH
	rep stosd
	mov	rcx, QWORD PTR [rsp+112]

; 11   : 		assert(x.length() == y.length());

	call	?length@?$tvec3@M$0A@@glm@@SAHXZ	; glm::tvec3<float,0>::length
	mov	DWORD PTR tv64[rsp], eax
	call	?length@?$tvec3@M$0A@@glm@@SAHXZ	; glm::tvec3<float,0>::length
	mov	ecx, DWORD PTR tv64[rsp]
	cmp	ecx, eax
	je	SHORT $LN6@lessThan
	mov	r8d, 11
	lea	rdx, OFFSET FLAT:??_C@_1NA@OPABFNEN@?$AAC?$AA?3?$AA?2?$AAU?$AAs?$AAe?$AAr?$AAs?$AA?2?$AAk?$AAs?$AAa?$AAr?$AAt?$AA?2@
	lea	rcx, OFFSET FLAT:??_C@_1DC@HHLCGOLC@?$AAx?$AA?4?$AAl?$AAe?$AAn?$AAg?$AAt?$AAh?$AA?$CI?$AA?$CJ?$AA?5?$AA?$DN?$AA?$DN?$AA?5?$AAy@
	call	QWORD PTR __imp__wassert
	xor	eax, eax
$LN6@lessThan:

; 12   : 
; 13   : 		vecType<bool, P> Result(uninitialize);

	xor	edx, edx
	lea	rcx, QWORD PTR Result$[rsp]
	call	??0?$tvec3@_N$0A@@glm@@QEAA@W4ctor@1@@Z	; glm::tvec3<bool,0>::tvec3<bool,0>

; 14   : 		for(length_t i = 0; i < x.length(); ++i)

	mov	DWORD PTR i$4[rsp], 0
	jmp	SHORT $LN4@lessThan
$LN2@lessThan:
	mov	eax, DWORD PTR i$4[rsp]
	inc	eax
	mov	DWORD PTR i$4[rsp], eax
$LN4@lessThan:
	call	?length@?$tvec3@M$0A@@glm@@SAHXZ	; glm::tvec3<float,0>::length
	cmp	DWORD PTR i$4[rsp], eax
	jge	SHORT $LN3@lessThan

; 15   : 			Result[i] = x[i] < y[i];

	mov	edx, DWORD PTR i$4[rsp]
	mov	rcx, QWORD PTR x$[rsp]
	call	??A?$tvec3@M$0A@@glm@@QEBAAEBMH@Z	; glm::tvec3<float,0>::operator[]
	mov	QWORD PTR tv80[rsp], rax
	mov	edx, DWORD PTR i$4[rsp]
	mov	rcx, QWORD PTR y$[rsp]
	call	??A?$tvec3@M$0A@@glm@@QEBAAEBMH@Z	; glm::tvec3<float,0>::operator[]
	movss	xmm0, DWORD PTR [rax]
	mov	rax, QWORD PTR tv80[rsp]
	comiss	xmm0, DWORD PTR [rax]
	jbe	SHORT $LN7@lessThan
	mov	DWORD PTR tv86[rsp], 1
	jmp	SHORT $LN8@lessThan
$LN7@lessThan:
	mov	DWORD PTR tv86[rsp], 0
$LN8@lessThan:
	mov	edx, DWORD PTR i$4[rsp]
	lea	rcx, QWORD PTR Result$[rsp]
	call	??A?$tvec3@_N$0A@@glm@@QEAAAEA_NH@Z	; glm::tvec3<bool,0>::operator[]
	movzx	ecx, BYTE PTR tv86[rsp]
	mov	BYTE PTR [rax], cl
	jmp	SHORT $LN2@lessThan
$LN3@lessThan:

; 16   : 
; 17   : 		return Result;

	lea	rax, QWORD PTR Result$[rsp]
	mov	rdi, QWORD PTR __$ReturnUdt$[rsp]
	mov	rsi, rax
	mov	ecx, 3
	rep movsb
	mov	rax, QWORD PTR __$ReturnUdt$[rsp]

; 18   : 	}

	mov	rdi, rax
	mov	rcx, rsp
	lea	rdx, OFFSET FLAT:??$lessThan@M$0A@Utvec3@glm@@@glm@@YA?AU?$tvec3@_N$0A@@0@AEBU?$tvec3@M$0A@@0@0@Z$rtcFrameData
	call	_RTC_CheckStackVars
	mov	rax, rdi
	add	rsp, 88					; 00000058H
	pop	rdi
	pop	rsi
	ret	0
??$lessThan@M$0A@Utvec3@glm@@@glm@@YA?AU?$tvec3@_N$0A@@0@AEBU?$tvec3@M$0A@@0@0@Z ENDP ; glm::lessThan<float,0,glm::tvec3>
_TEXT	ENDS
; Function compile flags: /Odtp /RTCsu
; File C:\Users\ksart\OneDrive\Desktop\FlappyBird\libraries\external\glm\glm\detail\func_common.inl
;	COMDAT ??$abs@M$0A@Utvec3@glm@@@glm@@YA?AU?$tvec3@M$0A@@0@AEBU10@@Z
_TEXT	SEGMENT
__$ReturnUdt$ = 48
x$ = 56
??$abs@M$0A@Utvec3@glm@@@glm@@YA?AU?$tvec3@M$0A@@0@AEBU10@@Z PROC ; glm::abs<float,0,glm::tvec3>, COMDAT

; 316  : 	{

$LN3:
	mov	QWORD PTR [rsp+16], rdx
	mov	QWORD PTR [rsp+8], rcx
	push	rdi
	sub	rsp, 32					; 00000020H

; 317  : 		return detail::compute_abs_vector<T, P, vecType, detail::is_aligned<P>::value>::call(x);

	mov	rdx, QWORD PTR x$[rsp]
	mov	rcx, QWORD PTR __$ReturnUdt$[rsp]
	call	?call@?$compute_abs_vector@M$0A@Utvec3@glm@@$0A@@detail@glm@@SA?AU?$tvec3@M$0A@@3@AEBU43@@Z ; glm::detail::compute_abs_vector<float,0,glm::tvec3,0>::call
	mov	rax, QWORD PTR __$ReturnUdt$[rsp]

; 318  : 	}

	add	rsp, 32					; 00000020H
	pop	rdi
	ret	0
??$abs@M$0A@Utvec3@glm@@@glm@@YA?AU?$tvec3@M$0A@@0@AEBU10@@Z ENDP ; glm::abs<float,0,glm::tvec3>
_TEXT	ENDS
; Function compile flags: /Odtp /RTCsu
; File C:\Users\ksart\OneDrive\Desktop\FlappyBird\libraries\external\glm\glm\detail\type_vec3.inl
;	COMDAT ??$?GM$0A@@glm@@YA?AU?$tvec3@M$0A@@0@AEBU10@0@Z
_TEXT	SEGMENT
tv76 = 32
__$ReturnUdt$ = 64
v1$ = 72
v2$ = 80
??$?GM$0A@@glm@@YA?AU?$tvec3@M$0A@@0@AEBU10@0@Z PROC	; glm::operator-<float,0>, COMDAT

; 619  : 	{

$LN3:
	mov	QWORD PTR [rsp+24], r8
	mov	QWORD PTR [rsp+16], rdx
	mov	QWORD PTR [rsp+8], rcx
	push	rdi
	sub	rsp, 48					; 00000030H

; 620  : 		return tvec3<T, P>(

	mov	rax, QWORD PTR v1$[rsp]
	mov	rcx, QWORD PTR v2$[rsp]
	movss	xmm0, DWORD PTR [rax+8]
	subss	xmm0, DWORD PTR [rcx+8]
	mov	rax, QWORD PTR v1$[rsp]
	mov	rcx, QWORD PTR v2$[rsp]
	movss	xmm1, DWORD PTR [rax+4]
	subss	xmm1, DWORD PTR [rcx+4]
	mov	rax, QWORD PTR v1$[rsp]
	mov	rcx, QWORD PTR v2$[rsp]
	movss	xmm2, DWORD PTR [rax]
	subss	xmm2, DWORD PTR [rcx]
	movss	DWORD PTR tv76[rsp], xmm2
	movaps	xmm3, xmm0
	movaps	xmm2, xmm1
	movss	xmm0, DWORD PTR tv76[rsp]
	movaps	xmm1, xmm0
	mov	rcx, QWORD PTR __$ReturnUdt$[rsp]
	call	??0?$tvec3@M$0A@@glm@@QEAA@MMM@Z	; glm::tvec3<float,0>::tvec3<float,0>
	mov	rax, QWORD PTR __$ReturnUdt$[rsp]

; 621  : 			v1.x - v2.x,
; 622  : 			v1.y - v2.y,
; 623  : 			v1.z - v2.z);
; 624  : 	}

	add	rsp, 48					; 00000030H
	pop	rdi
	ret	0
??$?GM$0A@@glm@@YA?AU?$tvec3@M$0A@@0@AEBU10@0@Z ENDP	; glm::operator-<float,0>
_TEXT	ENDS
; Function compile flags: /Odtp /RTCsu
; File C:\Users\ksart\OneDrive\Desktop\FlappyBird\libraries\external\glm\glm\gtc\quaternion.inl
;	COMDAT ??$conjugate@M$0A@@glm@@YA?AU?$tquat@M$0A@@0@AEBU10@@Z
_TEXT	SEGMENT
$T1 = 48
$T2 = 52
$T3 = 56
__$ReturnUdt$ = 80
q$ = 88
??$conjugate@M$0A@@glm@@YA?AU?$tquat@M$0A@@0@AEBU10@@Z PROC ; glm::conjugate<float,0>, COMDAT

; 203  : 	{

$LN3:
	mov	QWORD PTR [rsp+16], rdx
	mov	QWORD PTR [rsp+8], rcx
	push	rdi
	sub	rsp, 64					; 00000040H

; 204  : 		return tquat<T, P>(q.w, -q.x, -q.y, -q.z);

	mov	rax, QWORD PTR q$[rsp]
	movss	xmm0, DWORD PTR [rax+8]
	xorps	xmm0, DWORD PTR __xmm@80000000800000008000000080000000
	movss	DWORD PTR $T1[rsp], xmm0
	mov	rax, QWORD PTR q$[rsp]
	movss	xmm0, DWORD PTR [rax+4]
	xorps	xmm0, DWORD PTR __xmm@80000000800000008000000080000000
	movss	DWORD PTR $T2[rsp], xmm0
	mov	rax, QWORD PTR q$[rsp]
	movss	xmm0, DWORD PTR [rax]
	xorps	xmm0, DWORD PTR __xmm@80000000800000008000000080000000
	movss	DWORD PTR $T3[rsp], xmm0
	mov	rax, QWORD PTR q$[rsp]
	add	rax, 12
	lea	rcx, QWORD PTR $T1[rsp]
	mov	QWORD PTR [rsp+32], rcx
	lea	r9, QWORD PTR $T2[rsp]
	lea	r8, QWORD PTR $T3[rsp]
	mov	rdx, rax
	mov	rcx, QWORD PTR __$ReturnUdt$[rsp]
	call	??0?$tquat@M$0A@@glm@@QEAA@AEBM000@Z	; glm::tquat<float,0>::tquat<float,0>
	mov	rax, QWORD PTR __$ReturnUdt$[rsp]

; 205  : 	}

	add	rsp, 64					; 00000040H
	pop	rdi
	ret	0
??$conjugate@M$0A@@glm@@YA?AU?$tquat@M$0A@@0@AEBU10@@Z ENDP ; glm::conjugate<float,0>
_TEXT	ENDS
; Function compile flags: /Odtp /RTCsu
; File C:\Users\ksart\OneDrive\Desktop\FlappyBird\libraries\external\glm\glm\detail\type_vec3.inl
;	COMDAT ??$?HM$0A@@glm@@YA?AU?$tvec3@M$0A@@0@AEBU10@0@Z
_TEXT	SEGMENT
tv76 = 32
__$ReturnUdt$ = 64
v1$ = 72
v2$ = 80
??$?HM$0A@@glm@@YA?AU?$tvec3@M$0A@@0@AEBU10@0@Z PROC	; glm::operator+<float,0>, COMDAT

; 574  : 	{

$LN3:
	mov	QWORD PTR [rsp+24], r8
	mov	QWORD PTR [rsp+16], rdx
	mov	QWORD PTR [rsp+8], rcx
	push	rdi
	sub	rsp, 48					; 00000030H

; 575  : 		return tvec3<T, P>(

	mov	rax, QWORD PTR v1$[rsp]
	mov	rcx, QWORD PTR v2$[rsp]
	movss	xmm0, DWORD PTR [rax+8]
	addss	xmm0, DWORD PTR [rcx+8]
	mov	rax, QWORD PTR v1$[rsp]
	mov	rcx, QWORD PTR v2$[rsp]
	movss	xmm1, DWORD PTR [rax+4]
	addss	xmm1, DWORD PTR [rcx+4]
	mov	rax, QWORD PTR v1$[rsp]
	mov	rcx, QWORD PTR v2$[rsp]
	movss	xmm2, DWORD PTR [rax]
	addss	xmm2, DWORD PTR [rcx]
	movss	DWORD PTR tv76[rsp], xmm2
	movaps	xmm3, xmm0
	movaps	xmm2, xmm1
	movss	xmm0, DWORD PTR tv76[rsp]
	movaps	xmm1, xmm0
	mov	rcx, QWORD PTR __$ReturnUdt$[rsp]
	call	??0?$tvec3@M$0A@@glm@@QEAA@MMM@Z	; glm::tvec3<float,0>::tvec3<float,0>
	mov	rax, QWORD PTR __$ReturnUdt$[rsp]

; 576  : 			v1.x + v2.x,
; 577  : 			v1.y + v2.y,
; 578  : 			v1.z + v2.z);
; 579  : 	}

	add	rsp, 48					; 00000030H
	pop	rdi
	ret	0
??$?HM$0A@@glm@@YA?AU?$tvec3@M$0A@@0@AEBU10@0@Z ENDP	; glm::operator+<float,0>
_TEXT	ENDS
; Function compile flags: /Odtp /RTCsu
; File C:\Users\ksart\OneDrive\Desktop\FlappyBird\libraries\external\glm\glm\detail\type_vec3.inl
;	COMDAT ??$?DM$0A@@glm@@YA?AU?$tvec3@M$0A@@0@AEBU10@M@Z
_TEXT	SEGMENT
tv73 = 32
__$ReturnUdt$ = 64
v$ = 72
scalar$ = 80
??$?DM$0A@@glm@@YA?AU?$tvec3@M$0A@@0@AEBU10@M@Z PROC	; glm::operator*<float,0>, COMDAT

; 628  : 	{

$LN3:
	movss	DWORD PTR [rsp+24], xmm2
	mov	QWORD PTR [rsp+16], rdx
	mov	QWORD PTR [rsp+8], rcx
	push	rdi
	sub	rsp, 48					; 00000030H

; 629  : 		return tvec3<T, P>(

	mov	rax, QWORD PTR v$[rsp]
	movss	xmm0, DWORD PTR [rax+8]
	mulss	xmm0, DWORD PTR scalar$[rsp]
	mov	rax, QWORD PTR v$[rsp]
	movss	xmm1, DWORD PTR [rax+4]
	mulss	xmm1, DWORD PTR scalar$[rsp]
	mov	rax, QWORD PTR v$[rsp]
	movss	xmm2, DWORD PTR [rax]
	mulss	xmm2, DWORD PTR scalar$[rsp]
	movss	DWORD PTR tv73[rsp], xmm2
	movaps	xmm3, xmm0
	movaps	xmm2, xmm1
	movss	xmm0, DWORD PTR tv73[rsp]
	movaps	xmm1, xmm0
	mov	rcx, QWORD PTR __$ReturnUdt$[rsp]
	call	??0?$tvec3@M$0A@@glm@@QEAA@MMM@Z	; glm::tvec3<float,0>::tvec3<float,0>
	mov	rax, QWORD PTR __$ReturnUdt$[rsp]

; 630  : 			v.x * scalar,
; 631  : 			v.y * scalar,
; 632  : 			v.z * scalar);
; 633  : 	}

	add	rsp, 48					; 00000030H
	pop	rdi
	ret	0
??$?DM$0A@@glm@@YA?AU?$tvec3@M$0A@@0@AEBU10@M@Z ENDP	; glm::operator*<float,0>
_TEXT	ENDS
; Function compile flags: /Odtp /RTCsu
; File C:\Users\ksart\OneDrive\Desktop\FlappyBird\libraries\external\glm\glm\gtc\quaternion.inl
;	COMDAT ?call@?$compute_dot@Utquat@glm@@M$0A@$0A@@detail@glm@@SAMAEBU?$tquat@M$0A@@3@0@Z
_TEXT	SEGMENT
tmp$ = 72
tv80 = 100
x$ = 128
y$ = 136
?call@?$compute_dot@Utquat@glm@@M$0A@$0A@@detail@glm@@SAMAEBU?$tquat@M$0A@@3@0@Z PROC ; glm::detail::compute_dot<glm::tquat,float,0,0>::call, COMDAT

; 16   : 		{

$LN3:
	mov	QWORD PTR [rsp+16], rdx
	mov	QWORD PTR [rsp+8], rcx
	push	rdi
	sub	rsp, 112				; 00000070H
	lea	rdi, QWORD PTR [rsp+64]
	mov	ecx, 12
	mov	eax, -858993460				; ccccccccH
	rep stosd
	mov	rcx, QWORD PTR [rsp+128]

; 17   : 			tvec4<T, P> tmp(x.x * y.x, x.y * y.y, x.z * y.z, x.w * y.w);

	mov	rax, QWORD PTR x$[rsp]
	mov	rcx, QWORD PTR y$[rsp]
	movss	xmm0, DWORD PTR [rax+12]
	mulss	xmm0, DWORD PTR [rcx+12]
	mov	rax, QWORD PTR x$[rsp]
	mov	rcx, QWORD PTR y$[rsp]
	movss	xmm1, DWORD PTR [rax+8]
	mulss	xmm1, DWORD PTR [rcx+8]
	mov	rax, QWORD PTR x$[rsp]
	mov	rcx, QWORD PTR y$[rsp]
	movss	xmm2, DWORD PTR [rax+4]
	mulss	xmm2, DWORD PTR [rcx+4]
	mov	rax, QWORD PTR x$[rsp]
	mov	rcx, QWORD PTR y$[rsp]
	movss	xmm3, DWORD PTR [rax]
	mulss	xmm3, DWORD PTR [rcx]
	movss	DWORD PTR tv80[rsp], xmm3
	movss	DWORD PTR [rsp+32], xmm0
	movaps	xmm3, xmm1
	movss	xmm0, DWORD PTR tv80[rsp]
	movaps	xmm1, xmm0
	lea	rcx, QWORD PTR tmp$[rsp]
	call	??0?$tvec4@M$0A@@glm@@QEAA@MMMM@Z	; glm::tvec4<float,0>::tvec4<float,0>

; 18   : 			return (tmp.x + tmp.y) + (tmp.z + tmp.w);

	movss	xmm0, DWORD PTR tmp$[rsp]
	addss	xmm0, DWORD PTR tmp$[rsp+4]
	movss	xmm1, DWORD PTR tmp$[rsp+8]
	addss	xmm1, DWORD PTR tmp$[rsp+12]
	addss	xmm0, xmm1

; 19   : 		}

	movdqu	XMMWORD PTR [rsp+40], xmm0
	mov	rcx, rsp
	lea	rdx, OFFSET FLAT:?call@?$compute_dot@Utquat@glm@@M$0A@$0A@@detail@glm@@SAMAEBU?$tquat@M$0A@@3@0@Z$rtcFrameData
	call	_RTC_CheckStackVars
	movdqu	xmm0, XMMWORD PTR [rsp+40]
	add	rsp, 112				; 00000070H
	pop	rdi
	ret	0
?call@?$compute_dot@Utquat@glm@@M$0A@$0A@@detail@glm@@SAMAEBU?$tquat@M$0A@@3@0@Z ENDP ; glm::detail::compute_dot<glm::tquat,float,0,0>::call
_TEXT	ENDS
; Function compile flags: /Odtp /RTCsu
; File C:\Users\ksart\OneDrive\Desktop\FlappyBird\libraries\external\glm\glm\detail\func_vector_relational.inl
;	COMDAT ??$lessThan@M$0A@Utvec4@glm@@@glm@@YA?AU?$tvec4@_N$0A@@0@AEBU?$tvec4@M$0A@@0@0@Z
_TEXT	SEGMENT
Result$ = 36
i$4 = 52
tv64 = 56
tv80 = 64
tv86 = 72
__$ReturnUdt$ = 96
x$ = 104
y$ = 112
??$lessThan@M$0A@Utvec4@glm@@@glm@@YA?AU?$tvec4@_N$0A@@0@AEBU?$tvec4@M$0A@@0@0@Z PROC ; glm::lessThan<float,0,glm::tvec4>, COMDAT

; 10   : 	{

$LN9:
	mov	QWORD PTR [rsp+24], r8
	mov	QWORD PTR [rsp+16], rdx
	mov	QWORD PTR [rsp+8], rcx
	push	rdi
	sub	rsp, 80					; 00000050H
	lea	rdi, QWORD PTR [rsp+32]
	mov	ecx, 12
	mov	eax, -858993460				; ccccccccH
	rep stosd
	mov	rcx, QWORD PTR [rsp+96]

; 11   : 		assert(x.length() == y.length());

	call	?length@?$tvec4@M$0A@@glm@@SAHXZ	; glm::tvec4<float,0>::length
	mov	DWORD PTR tv64[rsp], eax
	call	?length@?$tvec4@M$0A@@glm@@SAHXZ	; glm::tvec4<float,0>::length
	mov	ecx, DWORD PTR tv64[rsp]
	cmp	ecx, eax
	je	SHORT $LN6@lessThan
	mov	r8d, 11
	lea	rdx, OFFSET FLAT:??_C@_1NA@OPABFNEN@?$AAC?$AA?3?$AA?2?$AAU?$AAs?$AAe?$AAr?$AAs?$AA?2?$AAk?$AAs?$AAa?$AAr?$AAt?$AA?2@
	lea	rcx, OFFSET FLAT:??_C@_1DC@HHLCGOLC@?$AAx?$AA?4?$AAl?$AAe?$AAn?$AAg?$AAt?$AAh?$AA?$CI?$AA?$CJ?$AA?5?$AA?$DN?$AA?$DN?$AA?5?$AAy@
	call	QWORD PTR __imp__wassert
	xor	eax, eax
$LN6@lessThan:

; 12   : 
; 13   : 		vecType<bool, P> Result(uninitialize);

	xor	edx, edx
	lea	rcx, QWORD PTR Result$[rsp]
	call	??0?$tvec4@_N$0A@@glm@@QEAA@W4ctor@1@@Z	; glm::tvec4<bool,0>::tvec4<bool,0>

; 14   : 		for(length_t i = 0; i < x.length(); ++i)

	mov	DWORD PTR i$4[rsp], 0
	jmp	SHORT $LN4@lessThan
$LN2@lessThan:
	mov	eax, DWORD PTR i$4[rsp]
	inc	eax
	mov	DWORD PTR i$4[rsp], eax
$LN4@lessThan:
	call	?length@?$tvec4@M$0A@@glm@@SAHXZ	; glm::tvec4<float,0>::length
	cmp	DWORD PTR i$4[rsp], eax
	jge	SHORT $LN3@lessThan

; 15   : 			Result[i] = x[i] < y[i];

	mov	edx, DWORD PTR i$4[rsp]
	mov	rcx, QWORD PTR x$[rsp]
	call	??A?$tvec4@M$0A@@glm@@QEBAAEBMH@Z	; glm::tvec4<float,0>::operator[]
	mov	QWORD PTR tv80[rsp], rax
	mov	edx, DWORD PTR i$4[rsp]
	mov	rcx, QWORD PTR y$[rsp]
	call	??A?$tvec4@M$0A@@glm@@QEBAAEBMH@Z	; glm::tvec4<float,0>::operator[]
	movss	xmm0, DWORD PTR [rax]
	mov	rax, QWORD PTR tv80[rsp]
	comiss	xmm0, DWORD PTR [rax]
	jbe	SHORT $LN7@lessThan
	mov	DWORD PTR tv86[rsp], 1
	jmp	SHORT $LN8@lessThan
$LN7@lessThan:
	mov	DWORD PTR tv86[rsp], 0
$LN8@lessThan:
	mov	edx, DWORD PTR i$4[rsp]
	lea	rcx, QWORD PTR Result$[rsp]
	call	??A?$tvec4@_N$0A@@glm@@QEAAAEA_NH@Z	; glm::tvec4<bool,0>::operator[]
	movzx	ecx, BYTE PTR tv86[rsp]
	mov	BYTE PTR [rax], cl
	jmp	SHORT $LN2@lessThan
$LN3@lessThan:

; 16   : 
; 17   : 		return Result;

	mov	rax, QWORD PTR __$ReturnUdt$[rsp]
	mov	ecx, DWORD PTR Result$[rsp]
	mov	DWORD PTR [rax], ecx
	mov	rax, QWORD PTR __$ReturnUdt$[rsp]

; 18   : 	}

	mov	rdi, rax
	mov	rcx, rsp
	lea	rdx, OFFSET FLAT:??$lessThan@M$0A@Utvec4@glm@@@glm@@YA?AU?$tvec4@_N$0A@@0@AEBU?$tvec4@M$0A@@0@0@Z$rtcFrameData
	call	_RTC_CheckStackVars
	mov	rax, rdi
	add	rsp, 80					; 00000050H
	pop	rdi
	ret	0
??$lessThan@M$0A@Utvec4@glm@@@glm@@YA?AU?$tvec4@_N$0A@@0@AEBU?$tvec4@M$0A@@0@0@Z ENDP ; glm::lessThan<float,0,glm::tvec4>
_TEXT	ENDS
; Function compile flags: /Odtp /RTCsu
; File C:\Users\ksart\OneDrive\Desktop\FlappyBird\libraries\external\glm\glm\detail\func_common.inl
;	COMDAT ??$abs@M$0A@Utvec4@glm@@@glm@@YA?AU?$tvec4@M$0A@@0@AEBU10@@Z
_TEXT	SEGMENT
__$ReturnUdt$ = 48
x$ = 56
??$abs@M$0A@Utvec4@glm@@@glm@@YA?AU?$tvec4@M$0A@@0@AEBU10@@Z PROC ; glm::abs<float,0,glm::tvec4>, COMDAT

; 316  : 	{

$LN3:
	mov	QWORD PTR [rsp+16], rdx
	mov	QWORD PTR [rsp+8], rcx
	push	rdi
	sub	rsp, 32					; 00000020H

; 317  : 		return detail::compute_abs_vector<T, P, vecType, detail::is_aligned<P>::value>::call(x);

	mov	rdx, QWORD PTR x$[rsp]
	mov	rcx, QWORD PTR __$ReturnUdt$[rsp]
	call	?call@?$compute_abs_vector@M$0A@Utvec4@glm@@$0A@@detail@glm@@SA?AU?$tvec4@M$0A@@3@AEBU43@@Z ; glm::detail::compute_abs_vector<float,0,glm::tvec4,0>::call
	mov	rax, QWORD PTR __$ReturnUdt$[rsp]

; 318  : 	}

	add	rsp, 32					; 00000020H
	pop	rdi
	ret	0
??$abs@M$0A@Utvec4@glm@@@glm@@YA?AU?$tvec4@M$0A@@0@AEBU10@@Z ENDP ; glm::abs<float,0,glm::tvec4>
_TEXT	ENDS
; Function compile flags: /Odtp /RTCsu
; File C:\Users\ksart\OneDrive\Desktop\FlappyBird\libraries\external\glm\glm\detail\func_common.inl
;	COMDAT ??$clamp@N@glm@@YANNNN@Z
_TEXT	SEGMENT
x$ = 64
minVal$ = 72
maxVal$ = 80
??$clamp@N@glm@@YANNNN@Z PROC				; glm::clamp<double>, COMDAT

; 544  : 	{

$LN3:
	movsd	QWORD PTR [rsp+24], xmm2
	movsd	QWORD PTR [rsp+16], xmm1
	movsd	QWORD PTR [rsp+8], xmm0
	push	rdi
	sub	rsp, 48					; 00000030H

; 545  : 		GLM_STATIC_ASSERT(std::numeric_limits<genType>::is_iec559 || std::numeric_limits<genType>::is_integer || GLM_UNRESTRICTED_GENTYPE, "'clamp' only accept floating-point or integer inputs");
; 546  : 		return min(max(x, minVal), maxVal);

	movsd	xmm1, QWORD PTR minVal$[rsp]
	movsd	xmm0, QWORD PTR x$[rsp]
	call	??$max@N@glm@@YANNN@Z			; glm::max<double>
	movsd	xmm1, QWORD PTR maxVal$[rsp]
	call	??$min@N@glm@@YANNN@Z			; glm::min<double>

; 547  : 	}

	add	rsp, 48					; 00000030H
	pop	rdi
	ret	0
??$clamp@N@glm@@YANNNN@Z ENDP				; glm::clamp<double>
_TEXT	ENDS
; Function compile flags: /Odtp /RTCsu
; File C:\Users\ksart\OneDrive\Desktop\FlappyBird\libraries\external\glm\glm\detail\func_trigonometric.inl
;	COMDAT ??$atan@N@glm@@YANNN@Z
_TEXT	SEGMENT
y$ = 64
x$ = 72
??$atan@N@glm@@YANNN@Z PROC				; glm::atan<double>, COMDAT

; 88   : 	{

$LN3:
	movsd	QWORD PTR [rsp+16], xmm1
	movsd	QWORD PTR [rsp+8], xmm0
	push	rdi
	sub	rsp, 48					; 00000030H

; 89   : 		GLM_STATIC_ASSERT(std::numeric_limits<genType>::is_iec559, "'atan' only accept floating-point input");
; 90   : 
; 91   : 		return ::std::atan2(y, x);

	movsd	xmm1, QWORD PTR x$[rsp]
	movsd	xmm0, QWORD PTR y$[rsp]
	call	atan2

; 92   : 	}

	add	rsp, 48					; 00000030H
	pop	rdi
	ret	0
??$atan@N@glm@@YANNN@Z ENDP				; glm::atan<double>
_TEXT	ENDS
; Function compile flags: /Odtp /RTCsu
; File C:\Users\ksart\OneDrive\Desktop\FlappyBird\libraries\external\glm\glm\detail\func_common.inl
;	COMDAT ??$clamp@M@glm@@YAMMMM@Z
_TEXT	SEGMENT
x$ = 64
minVal$ = 72
maxVal$ = 80
??$clamp@M@glm@@YAMMMM@Z PROC				; glm::clamp<float>, COMDAT

; 544  : 	{

$LN3:
	movss	DWORD PTR [rsp+24], xmm2
	movss	DWORD PTR [rsp+16], xmm1
	movss	DWORD PTR [rsp+8], xmm0
	push	rdi
	sub	rsp, 48					; 00000030H

; 545  : 		GLM_STATIC_ASSERT(std::numeric_limits<genType>::is_iec559 || std::numeric_limits<genType>::is_integer || GLM_UNRESTRICTED_GENTYPE, "'clamp' only accept floating-point or integer inputs");
; 546  : 		return min(max(x, minVal), maxVal);

	movss	xmm1, DWORD PTR minVal$[rsp]
	movss	xmm0, DWORD PTR x$[rsp]
	call	??$max@M@glm@@YAMMM@Z			; glm::max<float>
	movss	xmm1, DWORD PTR maxVal$[rsp]
	call	??$min@M@glm@@YAMMM@Z			; glm::min<float>

; 547  : 	}

	add	rsp, 48					; 00000030H
	pop	rdi
	ret	0
??$clamp@M@glm@@YAMMMM@Z ENDP				; glm::clamp<float>
_TEXT	ENDS
; Function compile flags: /Odtp /RTCsu
; File C:\Users\ksart\OneDrive\Desktop\FlappyBird\libraries\external\glm\glm\detail\func_trigonometric.inl
;	COMDAT ??$atan@M@glm@@YAMMM@Z
_TEXT	SEGMENT
y$ = 64
x$ = 72
??$atan@M@glm@@YAMMM@Z PROC				; glm::atan<float>, COMDAT

; 88   : 	{

$LN3:
	movss	DWORD PTR [rsp+16], xmm1
	movss	DWORD PTR [rsp+8], xmm0
	push	rdi
	sub	rsp, 48					; 00000030H

; 89   : 		GLM_STATIC_ASSERT(std::numeric_limits<genType>::is_iec559, "'atan' only accept floating-point input");
; 90   : 
; 91   : 		return ::std::atan2(y, x);

	movss	xmm1, DWORD PTR x$[rsp]
	movss	xmm0, DWORD PTR y$[rsp]
	call	?atan2@@YAMMM@Z				; atan2

; 92   : 	}

	add	rsp, 48					; 00000030H
	pop	rdi
	ret	0
??$atan@M@glm@@YAMMM@Z ENDP				; glm::atan<float>
_TEXT	ENDS
; Function compile flags: /Odtp /RTCsu
; File C:\Users\ksart\OneDrive\Desktop\FlappyBird\libraries\external\glm\glm\gtc\quaternion.inl
;	COMDAT ??$?KM$0A@@glm@@YA?AU?$tquat@M$0A@@0@AEBU10@AEBM@Z
_TEXT	SEGMENT
$T1 = 48
$T2 = 52
$T3 = 56
$T4 = 60
__$ReturnUdt$ = 80
q$ = 88
s$ = 96
??$?KM$0A@@glm@@YA?AU?$tquat@M$0A@@0@AEBU10@AEBM@Z PROC	; glm::operator/<float,0>, COMDAT

; 351  : 	{

$LN3:
	mov	QWORD PTR [rsp+24], r8
	mov	QWORD PTR [rsp+16], rdx
	mov	QWORD PTR [rsp+8], rcx
	push	rdi
	sub	rsp, 64					; 00000040H

; 352  : 		return tquat<T, P>(

	mov	rax, QWORD PTR q$[rsp]
	mov	rcx, QWORD PTR s$[rsp]
	movss	xmm0, DWORD PTR [rax+8]
	divss	xmm0, DWORD PTR [rcx]
	movss	DWORD PTR $T1[rsp], xmm0
	mov	rax, QWORD PTR q$[rsp]
	mov	rcx, QWORD PTR s$[rsp]
	movss	xmm0, DWORD PTR [rax+4]
	divss	xmm0, DWORD PTR [rcx]
	movss	DWORD PTR $T2[rsp], xmm0
	mov	rax, QWORD PTR q$[rsp]
	mov	rcx, QWORD PTR s$[rsp]
	movss	xmm0, DWORD PTR [rax]
	divss	xmm0, DWORD PTR [rcx]
	movss	DWORD PTR $T3[rsp], xmm0
	mov	rax, QWORD PTR q$[rsp]
	mov	rcx, QWORD PTR s$[rsp]
	movss	xmm0, DWORD PTR [rax+12]
	divss	xmm0, DWORD PTR [rcx]
	movss	DWORD PTR $T4[rsp], xmm0
	lea	rax, QWORD PTR $T1[rsp]
	mov	QWORD PTR [rsp+32], rax
	lea	r9, QWORD PTR $T2[rsp]
	lea	r8, QWORD PTR $T3[rsp]
	lea	rdx, QWORD PTR $T4[rsp]
	mov	rcx, QWORD PTR __$ReturnUdt$[rsp]
	call	??0?$tquat@M$0A@@glm@@QEAA@AEBM000@Z	; glm::tquat<float,0>::tquat<float,0>
	mov	rax, QWORD PTR __$ReturnUdt$[rsp]

; 353  : 			q.w / s, q.x / s, q.y / s, q.z / s);
; 354  : 	}

	add	rsp, 64					; 00000040H
	pop	rdi
	ret	0
??$?KM$0A@@glm@@YA?AU?$tquat@M$0A@@0@AEBU10@AEBM@Z ENDP	; glm::operator/<float,0>
_TEXT	ENDS
; Function compile flags: /Odtp /RTCsu
; File C:\Users\ksart\OneDrive\Desktop\FlappyBird\libraries\external\glm\glm\gtc\quaternion.inl
;	COMDAT ??$?HM$0A@@glm@@YA?AU?$tquat@M$0A@@0@AEBU10@0@Z
_TEXT	SEGMENT
$T1 = 32
__$ReturnUdt$ = 80
q$ = 88
p$ = 96
??$?HM$0A@@glm@@YA?AU?$tquat@M$0A@@0@AEBU10@0@Z PROC	; glm::operator+<float,0>, COMDAT

; 298  : 	{

$LN3:
	mov	QWORD PTR [rsp+24], r8
	mov	QWORD PTR [rsp+16], rdx
	mov	QWORD PTR [rsp+8], rcx
	push	rsi
	push	rdi
	sub	rsp, 56					; 00000038H

; 299  : 		return tquat<T, P>(q) += p;

	lea	rax, QWORD PTR $T1[rsp]
	mov	rdi, rax
	mov	rsi, QWORD PTR q$[rsp]
	mov	ecx, 16
	rep movsb
	mov	rdx, QWORD PTR p$[rsp]
	lea	rcx, QWORD PTR $T1[rsp]
	call	??$?YM@?$tquat@M$0A@@glm@@QEAAAEAU01@AEBU01@@Z ; glm::tquat<float,0>::operator+=<float>
	mov	rdi, QWORD PTR __$ReturnUdt$[rsp]
	mov	rsi, rax
	mov	ecx, 16
	rep movsb
	mov	rax, QWORD PTR __$ReturnUdt$[rsp]

; 300  : 	}

	add	rsp, 56					; 00000038H
	pop	rdi
	pop	rsi
	ret	0
??$?HM$0A@@glm@@YA?AU?$tquat@M$0A@@0@AEBU10@0@Z ENDP	; glm::operator+<float,0>
_TEXT	ENDS
; Function compile flags: /Odtp /RTCsu
; File C:\Users\ksart\OneDrive\Desktop\FlappyBird\libraries\external\glm\glm\gtc\quaternion.inl
;	COMDAT ??$?DM$0A@@glm@@YA?AU?$tquat@M$0A@@0@AEBMAEBU10@@Z
_TEXT	SEGMENT
__$ReturnUdt$ = 48
s$ = 56
q$ = 64
??$?DM$0A@@glm@@YA?AU?$tquat@M$0A@@0@AEBMAEBU10@@Z PROC	; glm::operator*<float,0>, COMDAT

; 345  : 	{

$LN3:
	mov	QWORD PTR [rsp+24], r8
	mov	QWORD PTR [rsp+16], rdx
	mov	QWORD PTR [rsp+8], rcx
	push	rdi
	sub	rsp, 32					; 00000020H

; 346  : 		return q * s;

	mov	r8, QWORD PTR s$[rsp]
	mov	rdx, QWORD PTR q$[rsp]
	mov	rcx, QWORD PTR __$ReturnUdt$[rsp]
	call	??$?DM$0A@@glm@@YA?AU?$tquat@M$0A@@0@AEBU10@AEBM@Z ; glm::operator*<float,0>
	mov	rax, QWORD PTR __$ReturnUdt$[rsp]

; 347  : 	}

	add	rsp, 32					; 00000020H
	pop	rdi
	ret	0
??$?DM$0A@@glm@@YA?AU?$tquat@M$0A@@0@AEBMAEBU10@@Z ENDP	; glm::operator*<float,0>
_TEXT	ENDS
; Function compile flags: /Odtp /RTCsu
; File C:\Users\ksart\OneDrive\Desktop\FlappyBird\libraries\external\glm\glm\detail\func_common.inl
;	COMDAT ??$mix@MM@glm@@YAMMMM@Z
_TEXT	SEGMENT
x$ = 64
y$ = 72
a$ = 80
??$mix@MM@glm@@YAMMMM@Z PROC				; glm::mix<float,float>, COMDAT

; 565  : 	{

$LN3:
	movss	DWORD PTR [rsp+24], xmm2
	movss	DWORD PTR [rsp+16], xmm1
	movss	DWORD PTR [rsp+8], xmm0
	push	rdi
	sub	rsp, 48					; 00000030H

; 566  : 		return detail::compute_mix<genTypeT, genTypeU>::call(x, y, a);

	lea	r8, QWORD PTR a$[rsp]
	lea	rdx, QWORD PTR y$[rsp]
	lea	rcx, QWORD PTR x$[rsp]
	call	?call@?$compute_mix@MM@detail@glm@@SAMAEBM00@Z ; glm::detail::compute_mix<float,float>::call

; 567  : 	}

	add	rsp, 48					; 00000030H
	pop	rdi
	ret	0
??$mix@MM@glm@@YAMMMM@Z ENDP				; glm::mix<float,float>
_TEXT	ENDS
; Function compile flags: /Odtp /RTCsu
; File C:\Users\ksart\OneDrive\Desktop\FlappyBird\libraries\external\glm\glm\gtc\constants.inl
;	COMDAT ??$epsilon@M@glm@@YAMXZ
_TEXT	SEGMENT
??$epsilon@M@glm@@YAMXZ PROC				; glm::epsilon<float>, COMDAT

; 10   : 	{

$LN3:
	push	rdi
	sub	rsp, 48					; 00000030H

; 11   : 		return std::numeric_limits<genType>::epsilon();

	call	?epsilon@?$numeric_limits@M@std@@SAMXZ	; std::numeric_limits<float>::epsilon

; 12   : 	}

	add	rsp, 48					; 00000030H
	pop	rdi
	ret	0
??$epsilon@M@glm@@YAMXZ ENDP				; glm::epsilon<float>
_TEXT	ENDS
; Function compile flags: /Odtp /RTCsu
; File C:\Users\ksart\OneDrive\Desktop\FlappyBird\libraries\external\glm\glm\detail\func_geometric.inl
;	COMDAT ?call@?$compute_normalize@M$0A@Utvec3@glm@@$0A@@detail@glm@@SA?AU?$tvec3@M$0A@@3@AEBU43@@Z
_TEXT	SEGMENT
__$ReturnUdt$ = 48
v$ = 56
?call@?$compute_normalize@M$0A@Utvec3@glm@@$0A@@detail@glm@@SA?AU?$tvec3@M$0A@@3@AEBU43@@Z PROC ; glm::detail::compute_normalize<float,0,glm::tvec3,0>::call, COMDAT

; 91   : 		{

$LN3:
	mov	QWORD PTR [rsp+16], rdx
	mov	QWORD PTR [rsp+8], rcx
	push	rdi
	sub	rsp, 32					; 00000020H

; 92   : 			GLM_STATIC_ASSERT(std::numeric_limits<T>::is_iec559, "'normalize' accepts only floating-point inputs");
; 93   : 
; 94   : 			return v * inversesqrt(dot(v, v));

	mov	rdx, QWORD PTR v$[rsp]
	mov	rcx, QWORD PTR v$[rsp]
	call	??$dot@M$0A@Utvec3@glm@@@glm@@YAMAEBU?$tvec3@M$0A@@0@0@Z ; glm::dot<float,0,glm::tvec3>
	call	??$inversesqrt@M@glm@@YAMM@Z		; glm::inversesqrt<float>
	movaps	xmm2, xmm0
	mov	rdx, QWORD PTR v$[rsp]
	mov	rcx, QWORD PTR __$ReturnUdt$[rsp]
	call	??$?DM$0A@@glm@@YA?AU?$tvec3@M$0A@@0@AEBU10@M@Z ; glm::operator*<float,0>
	mov	rax, QWORD PTR __$ReturnUdt$[rsp]

; 95   : 		}

	add	rsp, 32					; 00000020H
	pop	rdi
	ret	0
?call@?$compute_normalize@M$0A@Utvec3@glm@@$0A@@detail@glm@@SA?AU?$tvec3@M$0A@@3@AEBU43@@Z ENDP ; glm::detail::compute_normalize<float,0,glm::tvec3,0>::call
_TEXT	ENDS
; Function compile flags: /Odtp /RTCsu
; File C:\Users\ksart\OneDrive\Desktop\FlappyBird\libraries\external\glm\glm\detail\func_common.inl
;	COMDAT ?call@?$compute_abs@M$00@detail@glm@@SAMM@Z
_TEXT	SEGMENT
tv66 = 16
x$ = 48
?call@?$compute_abs@M$00@detail@glm@@SAMM@Z PROC	; glm::detail::compute_abs<float,1>::call, COMDAT

; 77   : 		{

$LN5:
	movss	DWORD PTR [rsp+8], xmm0
	push	rdi
	sub	rsp, 32					; 00000020H

; 78   : 			GLM_STATIC_ASSERT(
; 79   : 				std::numeric_limits<genFIType>::is_iec559 || std::numeric_limits<genFIType>::is_signed || GLM_UNRESTRICTED_GENTYPE,
; 80   : 				"'abs' only accept floating-point and integer scalar or vector inputs");
; 81   : 
; 82   : 			return x >= genFIType(0) ? x : -x;

	movss	xmm0, DWORD PTR x$[rsp]
	comiss	xmm0, DWORD PTR __real@00000000
	jb	SHORT $LN3@call
	movss	xmm0, DWORD PTR x$[rsp]
	movss	DWORD PTR tv66[rsp], xmm0
	jmp	SHORT $LN4@call
$LN3@call:
	movss	xmm0, DWORD PTR x$[rsp]
	xorps	xmm0, DWORD PTR __xmm@80000000800000008000000080000000
	movss	DWORD PTR tv66[rsp], xmm0
$LN4@call:
	movss	xmm0, DWORD PTR tv66[rsp]

; 83   : 			// TODO, perf comp with: *(((int *) &x) + 1) &= 0x7fffffff;
; 84   : 		}

	add	rsp, 32					; 00000020H
	pop	rdi
	ret	0
?call@?$compute_abs@M$00@detail@glm@@SAMM@Z ENDP	; glm::detail::compute_abs<float,1>::call
_TEXT	ENDS
; Function compile flags: /Odtp /RTCsu
; File C:\Users\ksart\OneDrive\Desktop\FlappyBird\libraries\external\glm\glm\detail\func_geometric.inl
;	COMDAT ?call@?$compute_dot@Utvec3@glm@@M$0A@$0A@@detail@glm@@SAMAEBU?$tvec3@M$0A@@3@0@Z
_TEXT	SEGMENT
tmp$ = 56
x$ = 112
y$ = 120
?call@?$compute_dot@Utvec3@glm@@M$0A@$0A@@detail@glm@@SAMAEBU?$tvec3@M$0A@@3@0@Z PROC ; glm::detail::compute_dot<glm::tvec3,float,0,0>::call, COMDAT

; 57   : 		{

$LN3:
	mov	QWORD PTR [rsp+16], rdx
	mov	QWORD PTR [rsp+8], rcx
	push	rdi
	sub	rsp, 96					; 00000060H
	lea	rdi, QWORD PTR [rsp+48]
	mov	ecx, 12
	mov	eax, -858993460				; ccccccccH
	rep stosd
	mov	rcx, QWORD PTR [rsp+112]

; 58   : 			tvec3<T, P> tmp(x * y);

	mov	r8, QWORD PTR y$[rsp]
	mov	rdx, QWORD PTR x$[rsp]
	lea	rcx, QWORD PTR tmp$[rsp]
	call	??$?DM$0A@@glm@@YA?AU?$tvec3@M$0A@@0@AEBU10@0@Z ; glm::operator*<float,0>

; 59   : 			return tmp.x + tmp.y + tmp.z;

	movss	xmm0, DWORD PTR tmp$[rsp]
	addss	xmm0, DWORD PTR tmp$[rsp+4]
	addss	xmm0, DWORD PTR tmp$[rsp+8]

; 60   : 		}

	movdqu	XMMWORD PTR [rsp+32], xmm0
	mov	rcx, rsp
	lea	rdx, OFFSET FLAT:?call@?$compute_dot@Utvec3@glm@@M$0A@$0A@@detail@glm@@SAMAEBU?$tvec3@M$0A@@3@0@Z$rtcFrameData
	call	_RTC_CheckStackVars
	movdqu	xmm0, XMMWORD PTR [rsp+32]
	add	rsp, 96					; 00000060H
	pop	rdi
	ret	0
?call@?$compute_dot@Utvec3@glm@@M$0A@$0A@@detail@glm@@SAMAEBU?$tvec3@M$0A@@3@0@Z ENDP ; glm::detail::compute_dot<glm::tvec3,float,0,0>::call
_TEXT	ENDS
; Function compile flags: /Odtp /RTCsu
; File C:\Users\ksart\OneDrive\Desktop\FlappyBird\libraries\external\glm\glm\detail\func_geometric.inl
;	COMDAT ??$cross@M$0A@@glm@@YA?AU?$tvec3@M$0A@@0@AEBU10@0@Z
_TEXT	SEGMENT
__$ReturnUdt$ = 48
x$ = 56
y$ = 64
??$cross@M$0A@@glm@@YA?AU?$tvec3@M$0A@@0@AEBU10@0@Z PROC ; glm::cross<float,0>, COMDAT

; 180  : 	{

$LN3:
	mov	QWORD PTR [rsp+24], r8
	mov	QWORD PTR [rsp+16], rdx
	mov	QWORD PTR [rsp+8], rcx
	push	rdi
	sub	rsp, 32					; 00000020H

; 181  : 		return detail::compute_cross<T, P, detail::is_aligned<P>::value>::call(x, y);

	mov	r8, QWORD PTR y$[rsp]
	mov	rdx, QWORD PTR x$[rsp]
	mov	rcx, QWORD PTR __$ReturnUdt$[rsp]
	call	?call@?$compute_cross@M$0A@$0A@@detail@glm@@SA?AU?$tvec3@M$0A@@3@AEBU43@0@Z ; glm::detail::compute_cross<float,0,0>::call
	mov	rax, QWORD PTR __$ReturnUdt$[rsp]

; 182  : 	}

	add	rsp, 32					; 00000020H
	pop	rdi
	ret	0
??$cross@M$0A@@glm@@YA?AU?$tvec3@M$0A@@0@AEBU10@0@Z ENDP ; glm::cross<float,0>
_TEXT	ENDS
; Function compile flags: /Odtp /RTCsu
; File C:\Program Files\Microsoft Visual Studio\2022\Community\VC\Tools\MSVC\14.32.31326\include\xmemory
;	COMDAT ??$_Deallocate@$0BA@$0A@@std@@YAXPEAX_K@Z
_TEXT	SEGMENT
_Ptr$ = 48
_Bytes$ = 56
??$_Deallocate@$0BA@$0A@@std@@YAXPEAX_K@Z PROC		; std::_Deallocate<16,0>, COMDAT

; 242  : _CONSTEXPR20 void _Deallocate(void* _Ptr, size_t _Bytes) noexcept {

$LN4:
	mov	QWORD PTR [rsp+16], rdx
	mov	QWORD PTR [rsp+8], rcx
	push	rdi
	sub	rsp, 32					; 00000020H

; 243  :     // deallocate storage allocated by _Allocate when !_HAS_ALIGNED_NEW || _Align <= __STDCPP_DEFAULT_NEW_ALIGNMENT__
; 244  : #if _HAS_CXX20 // TRANSITION, GH-1532
; 245  :     if (_STD is_constant_evaluated()) {
; 246  :         ::operator delete(_Ptr);
; 247  :     } else
; 248  : #endif // _HAS_CXX20
; 249  :     {
; 250  : #if defined(_M_IX86) || defined(_M_X64)
; 251  :         if (_Bytes >= _Big_allocation_threshold) { // boost the alignment of big allocations to help autovectorization

	cmp	QWORD PTR _Bytes$[rsp], 4096		; 00001000H
	jb	SHORT $LN2@Deallocate

; 252  :             _Adjust_manually_vector_aligned(_Ptr, _Bytes);

	lea	rdx, QWORD PTR _Bytes$[rsp]
	lea	rcx, QWORD PTR _Ptr$[rsp]
	call	?_Adjust_manually_vector_aligned@std@@YAXAEAPEAXAEA_K@Z ; std::_Adjust_manually_vector_aligned
$LN2@Deallocate:

; 253  :         }
; 254  : #endif // defined(_M_IX86) || defined(_M_X64)
; 255  :         ::operator delete(_Ptr, _Bytes);

	mov	rdx, QWORD PTR _Bytes$[rsp]
	mov	rcx, QWORD PTR _Ptr$[rsp]
	call	??3@YAXPEAX_K@Z				; operator delete
	npad	1

; 256  :     }
; 257  : }

	add	rsp, 32					; 00000020H
	pop	rdi
	ret	0
??$_Deallocate@$0BA@$0A@@std@@YAXPEAX_K@Z ENDP		; std::_Deallocate<16,0>
_TEXT	ENDS
; Function compile flags: /Odtp /RTCsu
; File C:\Program Files\Microsoft Visual Studio\2022\Community\VC\Tools\MSVC\14.32.31326\include\xmemory
;	COMDAT ??$_Destroy_range@V?$allocator@U?$tquat@M$0A@@glm@@@std@@@std@@YAXPEAU?$tquat@M$0A@@glm@@QEAU12@AEAV?$allocator@U?$tquat@M$0A@@glm@@@0@@Z
_TEXT	SEGMENT
_First$ = 16
_Last$ = 24
_Al$ = 32
??$_Destroy_range@V?$allocator@U?$tquat@M$0A@@glm@@@std@@@std@@YAXPEAU?$tquat@M$0A@@glm@@QEAU12@AEAV?$allocator@U?$tquat@M$0A@@glm@@@0@@Z PROC ; std::_Destroy_range<std::allocator<glm::tquat<float,0> > >, COMDAT

; 939  : _CONSTEXPR20 void _Destroy_range(_Alloc_ptr_t<_Alloc> _First, const _Alloc_ptr_t<_Alloc> _Last, _Alloc& _Al) noexcept {

$LN3:
	mov	QWORD PTR [rsp+24], r8
	mov	QWORD PTR [rsp+16], rdx
	mov	QWORD PTR [rsp+8], rcx
	push	rdi

; 940  :     // note that this is an optimization for debug mode codegen; in release mode the BE removes all of this
; 941  :     using _Ty = typename _Alloc::value_type;
; 942  :     if constexpr (!conjunction_v<is_trivially_destructible<_Ty>, _Uses_default_destroy<_Alloc, _Ty*>>) {
; 943  :         for (; _First != _Last; ++_First) {
; 944  :             allocator_traits<_Alloc>::destroy(_Al, _Unfancy(_First));
; 945  :         }
; 946  :     }
; 947  : }

	pop	rdi
	ret	0
??$_Destroy_range@V?$allocator@U?$tquat@M$0A@@glm@@@std@@@std@@YAXPEAU?$tquat@M$0A@@glm@@QEAU12@AEAV?$allocator@U?$tquat@M$0A@@glm@@@0@@Z ENDP ; std::_Destroy_range<std::allocator<glm::tquat<float,0> > >
_TEXT	ENDS
; Function compile flags: /Odtp /RTCsu
; File C:\Program Files\Microsoft Visual Studio\2022\Community\VC\Tools\MSVC\14.32.31326\include\vector
;	COMDAT ??$_Construct_n@PEBU?$tquat@M$0A@@glm@@PEBU12@@?$vector@U?$tquat@M$0A@@glm@@V?$allocator@U?$tquat@M$0A@@glm@@@std@@@std@@AEAAX_K$$QEAPEBU?$tquat@M$0A@@glm@@1@Z
_TEXT	SEGMENT
_Al$ = 32
_Alproxy$ = 40
$S2$ = 52
_My_data$ = 72
_Proxy$ = 88
_Guard$6 = 136
tv88 = 152
this$ = 176
_Count$ = 184
<_Val_0>$ = 192
<_Val_1>$ = 200
??$_Construct_n@PEBU?$tquat@M$0A@@glm@@PEBU12@@?$vector@U?$tquat@M$0A@@glm@@V?$allocator@U?$tquat@M$0A@@glm@@@std@@@std@@AEAAX_K$$QEAPEBU?$tquat@M$0A@@glm@@1@Z PROC ; std::vector<glm::tquat<float,0>,std::allocator<glm::tquat<float,0> > >::_Construct_n<glm::tquat<float,0> const *,glm::tquat<float,0> const *>, COMDAT

; 1902 :     _CONSTEXPR20 void _Construct_n(_CRT_GUARDOVERFLOW const size_type _Count, _Valty&&... _Val) {

$LN6:
	mov	QWORD PTR [rsp+32], r9
	mov	QWORD PTR [rsp+24], r8
	mov	QWORD PTR [rsp+16], rdx
	mov	QWORD PTR [rsp+8], rcx
	push	rdi
	sub	rsp, 160				; 000000a0H
	lea	rdi, QWORD PTR [rsp+32]
	mov	ecx, 32					; 00000020H
	mov	eax, -858993460				; ccccccccH
	rep stosd
	mov	rcx, QWORD PTR [rsp+176]

; 1903 :         // Dispatches between the three sized constructions.
; 1904 :         // 1-arg -> value-construction, e.g. vector(5)
; 1905 :         // 2-arg -> fill, e.g. vector(5, "meow")
; 1906 :         // 3-arg -> sized range construction, e.g. vector{"Hello", "Fluffy", "World"}
; 1907 :         auto& _Al       = _Getal();

	mov	rcx, QWORD PTR this$[rsp]
	call	?_Getal@?$vector@U?$tquat@M$0A@@glm@@V?$allocator@U?$tquat@M$0A@@glm@@@std@@@std@@AEAAAEAV?$allocator@U?$tquat@M$0A@@glm@@@2@XZ ; std::vector<glm::tquat<float,0>,std::allocator<glm::tquat<float,0> > >::_Getal
	mov	QWORD PTR _Al$[rsp], rax

; 1908 :         auto&& _Alproxy = _GET_PROXY_ALLOCATOR(_Alty, _Al);

	mov	rdx, QWORD PTR _Al$[rsp]
	lea	rcx, QWORD PTR $S2$[rsp]
	call	??$?0U?$tquat@M$0A@@glm@@@?$allocator@U_Container_proxy@std@@@std@@QEAA@AEBV?$allocator@U?$tquat@M$0A@@glm@@@1@@Z ; std::allocator<std::_Container_proxy>::allocator<std::_Container_proxy><glm::tquat<float,0> >
	lea	rax, QWORD PTR $S2$[rsp]
	mov	QWORD PTR _Alproxy$[rsp], rax

; 1909 :         auto& _My_data  = _Mypair._Myval2;

	mov	rax, QWORD PTR this$[rsp]
	mov	QWORD PTR _My_data$[rsp], rax

; 1910 :         _Container_proxy_ptr<_Alty> _Proxy(_Alproxy, _My_data);

	mov	r8, QWORD PTR _My_data$[rsp]
	mov	rdx, QWORD PTR _Alproxy$[rsp]
	lea	rcx, QWORD PTR _Proxy$[rsp]
	call	??0?$_Container_proxy_ptr12@V?$allocator@U_Container_proxy@std@@@std@@@std@@QEAA@AEAV?$allocator@U_Container_proxy@std@@@1@AEAU_Container_base12@1@@Z ; std::_Container_proxy_ptr12<std::allocator<std::_Container_proxy> >::_Container_proxy_ptr12<std::allocator<std::_Container_proxy> >
	npad	1

; 1911 :         if (_Count != 0) {

	cmp	QWORD PTR _Count$[rsp], 0
	je	$LN2@Construct_

; 1912 :             _Buy_nonzero(_Count);

	mov	rdx, QWORD PTR _Count$[rsp]
	mov	rcx, QWORD PTR this$[rsp]
	call	?_Buy_nonzero@?$vector@U?$tquat@M$0A@@glm@@V?$allocator@U?$tquat@M$0A@@glm@@@std@@@std@@AEAAX_K@Z ; std::vector<glm::tquat<float,0>,std::allocator<glm::tquat<float,0> > >::_Buy_nonzero

; 1913 :             _Tidy_guard<vector> _Guard{this};

	mov	rax, QWORD PTR this$[rsp]
	mov	QWORD PTR _Guard$6[rsp], rax

; 1914 :             if constexpr (sizeof...(_Val) == 0) {
; 1915 :                 _My_data._Mylast = _Uninitialized_value_construct_n(_My_data._Myfirst, _Count, _Al);
; 1916 :             } else if constexpr (sizeof...(_Val) == 1) {
; 1917 :                 _STL_INTERNAL_STATIC_ASSERT(is_same_v<_Valty..., const _Ty&>);
; 1918 :                 _My_data._Mylast = _Uninitialized_fill_n(_My_data._Myfirst, _Count, _Val..., _Al);
; 1919 :             } else if constexpr (sizeof...(_Val) == 2) {
; 1920 :                 _My_data._Mylast = _Uninitialized_copy(_STD forward<_Valty>(_Val)..., _My_data._Myfirst, _Al);

	mov	rcx, QWORD PTR <_Val_1>$[rsp]
	call	??$forward@PEBU?$tquat@M$0A@@glm@@@std@@YA$$QEAPEBU?$tquat@M$0A@@glm@@AEAPEBU12@@Z ; std::forward<glm::tquat<float,0> const *>
	mov	QWORD PTR tv88[rsp], rax
	mov	rcx, QWORD PTR <_Val_0>$[rsp]
	call	??$forward@PEBU?$tquat@M$0A@@glm@@@std@@YA$$QEAPEBU?$tquat@M$0A@@glm@@AEAPEBU12@@Z ; std::forward<glm::tquat<float,0> const *>
	mov	r9, QWORD PTR _Al$[rsp]
	mov	rcx, QWORD PTR _My_data$[rsp]
	mov	r8, QWORD PTR [rcx+8]
	mov	rcx, QWORD PTR tv88[rsp]
	mov	rdx, QWORD PTR [rcx]
	mov	rcx, QWORD PTR [rax]
	call	??$_Uninitialized_copy@PEBU?$tquat@M$0A@@glm@@V?$allocator@U?$tquat@M$0A@@glm@@@std@@@std@@YAPEAU?$tquat@M$0A@@glm@@QEBU12@0PEAU12@AEAV?$allocator@U?$tquat@M$0A@@glm@@@0@@Z ; std::_Uninitialized_copy<glm::tquat<float,0> const *,std::allocator<glm::tquat<float,0> > >
	mov	rcx, QWORD PTR _My_data$[rsp]
	mov	QWORD PTR [rcx+16], rax

; 1921 :             } else {
; 1922 :                 static_assert(_Always_false<_Ty>, "Should be unreachable");
; 1923 :             }
; 1924 :             _ASAN_VECTOR_CREATE;
; 1925 :             _Guard._Target = nullptr;

	mov	QWORD PTR _Guard$6[rsp], 0

; 1926 :         }

	lea	rcx, QWORD PTR _Guard$6[rsp]
	call	??1?$_Tidy_guard@V?$vector@U?$tquat@M$0A@@glm@@V?$allocator@U?$tquat@M$0A@@glm@@@std@@@std@@@std@@QEAA@XZ ; std::_Tidy_guard<std::vector<glm::tquat<float,0>,std::allocator<glm::tquat<float,0> > > >::~_Tidy_guard<std::vector<glm::tquat<float,0>,std::allocator<glm::tquat<float,0> > > >
$LN2@Construct_:

; 1927 : 
; 1928 :         _Proxy._Release();

	lea	rcx, QWORD PTR _Proxy$[rsp]
	call	?_Release@_Basic_container_proxy_ptr12@std@@QEAAXXZ ; std::_Basic_container_proxy_ptr12::_Release
	npad	1

; 1929 :     }

	lea	rcx, QWORD PTR _Proxy$[rsp]
	call	??1?$_Container_proxy_ptr12@V?$allocator@U_Container_proxy@std@@@std@@@std@@QEAA@XZ ; std::_Container_proxy_ptr12<std::allocator<std::_Container_proxy> >::~_Container_proxy_ptr12<std::allocator<std::_Container_proxy> >
	mov	rcx, rsp
	lea	rdx, OFFSET FLAT:??$_Construct_n@PEBU?$tquat@M$0A@@glm@@PEBU12@@?$vector@U?$tquat@M$0A@@glm@@V?$allocator@U?$tquat@M$0A@@glm@@@std@@@std@@AEAAX_K$$QEAPEBU?$tquat@M$0A@@glm@@1@Z$rtcFrameData
	call	_RTC_CheckStackVars
	add	rsp, 160				; 000000a0H
	pop	rdi
	ret	0
??$_Construct_n@PEBU?$tquat@M$0A@@glm@@PEBU12@@?$vector@U?$tquat@M$0A@@glm@@V?$allocator@U?$tquat@M$0A@@glm@@@std@@@std@@AEAAX_K$$QEAPEBU?$tquat@M$0A@@glm@@1@Z ENDP ; std::vector<glm::tquat<float,0>,std::allocator<glm::tquat<float,0> > >::_Construct_n<glm::tquat<float,0> const *,glm::tquat<float,0> const *>
_TEXT	ENDS
; Function compile flags: /Odtp /RTCsu
;	COMDAT text$x
text$x	SEGMENT
_Al$ = 32
_Alproxy$ = 40
$S2$ = 52
_My_data$ = 72
_Proxy$ = 88
_Guard$6 = 136
tv88 = 152
this$ = 176
_Count$ = 184
<_Val_0>$ = 192
<_Val_1>$ = 200
?dtor$0@?0???$_Construct_n@PEBU?$tquat@M$0A@@glm@@PEBU12@@?$vector@U?$tquat@M$0A@@glm@@V?$allocator@U?$tquat@M$0A@@glm@@@std@@@std@@AEAAX_K$$QEAPEBU?$tquat@M$0A@@glm@@1@Z@4HA PROC ; `std::vector<glm::tquat<float,0>,std::allocator<glm::tquat<float,0> > >::_Construct_n<glm::tquat<float,0> const *,glm::tquat<float,0> const *>'::`1'::dtor$0
	mov	QWORD PTR [rsp+8], rcx
	mov	QWORD PTR [rsp+16], rdx
	push	rbp
	push	rdi
	sub	rsp, 40					; 00000028H
	mov	rbp, rdx
	lea	rcx, QWORD PTR _Proxy$[rbp]
	call	??1?$_Container_proxy_ptr12@V?$allocator@U_Container_proxy@std@@@std@@@std@@QEAA@XZ ; std::_Container_proxy_ptr12<std::allocator<std::_Container_proxy> >::~_Container_proxy_ptr12<std::allocator<std::_Container_proxy> >
	add	rsp, 40					; 00000028H
	pop	rdi
	pop	rbp
	ret	0
?dtor$0@?0???$_Construct_n@PEBU?$tquat@M$0A@@glm@@PEBU12@@?$vector@U?$tquat@M$0A@@glm@@V?$allocator@U?$tquat@M$0A@@glm@@@std@@@std@@AEAAX_K$$QEAPEBU?$tquat@M$0A@@glm@@1@Z@4HA ENDP ; `std::vector<glm::tquat<float,0>,std::allocator<glm::tquat<float,0> > >::_Construct_n<glm::tquat<float,0> const *,glm::tquat<float,0> const *>'::`1'::dtor$0
text$x	ENDS
; Function compile flags: /Odtp /RTCsu
;	COMDAT text$x
text$x	SEGMENT
_Al$ = 32
_Alproxy$ = 40
$S2$ = 52
_My_data$ = 72
_Proxy$ = 88
_Guard$6 = 136
tv88 = 152
this$ = 176
_Count$ = 184
<_Val_0>$ = 192
<_Val_1>$ = 200
?dtor$1@?0???$_Construct_n@PEBU?$tquat@M$0A@@glm@@PEBU12@@?$vector@U?$tquat@M$0A@@glm@@V?$allocator@U?$tquat@M$0A@@glm@@@std@@@std@@AEAAX_K$$QEAPEBU?$tquat@M$0A@@glm@@1@Z@4HA PROC ; `std::vector<glm::tquat<float,0>,std::allocator<glm::tquat<float,0> > >::_Construct_n<glm::tquat<float,0> const *,glm::tquat<float,0> const *>'::`1'::dtor$1
	mov	QWORD PTR [rsp+8], rcx
	mov	QWORD PTR [rsp+16], rdx
	push	rbp
	push	rdi
	sub	rsp, 40					; 00000028H
	mov	rbp, rdx
	lea	rcx, QWORD PTR _Guard$6[rbp]
	call	??1?$_Tidy_guard@V?$vector@U?$tquat@M$0A@@glm@@V?$allocator@U?$tquat@M$0A@@glm@@@std@@@std@@@std@@QEAA@XZ ; std::_Tidy_guard<std::vector<glm::tquat<float,0>,std::allocator<glm::tquat<float,0> > > >::~_Tidy_guard<std::vector<glm::tquat<float,0>,std::allocator<glm::tquat<float,0> > > >
	add	rsp, 40					; 00000028H
	pop	rdi
	pop	rbp
	ret	0
?dtor$1@?0???$_Construct_n@PEBU?$tquat@M$0A@@glm@@PEBU12@@?$vector@U?$tquat@M$0A@@glm@@V?$allocator@U?$tquat@M$0A@@glm@@@std@@@std@@AEAAX_K$$QEAPEBU?$tquat@M$0A@@glm@@1@Z@4HA ENDP ; `std::vector<glm::tquat<float,0>,std::allocator<glm::tquat<float,0> > >::_Construct_n<glm::tquat<float,0> const *,glm::tquat<float,0> const *>'::`1'::dtor$1
text$x	ENDS
; Function compile flags: /Odtp /RTCsu
; File C:\Program Files\Microsoft Visual Studio\2022\Community\VC\Tools\MSVC\14.32.31326\include\xmemory
;	COMDAT ??$_Convert_size@_K@std@@YA_K_K@Z
_TEXT	SEGMENT
_Len$ = 16
??$_Convert_size@_K@std@@YA_K_K@Z PROC			; std::_Convert_size<unsigned __int64>, COMDAT

; 960  : _NODISCARD constexpr _Size_type _Convert_size(const size_t _Len) noexcept(is_same_v<_Size_type, size_t>) {

$LN3:
	mov	QWORD PTR [rsp+8], rcx
	push	rdi

; 961  :     // convert size_t to _Size_type, avoiding truncation
; 962  :     if constexpr (!is_same_v<_Size_type, size_t>) {
; 963  :         if (_Len > (numeric_limits<_Size_type>::max)()) {
; 964  :             _Xlength_error("size_t too long for _Size_type");
; 965  :         }
; 966  :     }
; 967  : 
; 968  :     return static_cast<_Size_type>(_Len);

	mov	rax, QWORD PTR _Len$[rsp]

; 969  : }

	pop	rdi
	ret	0
??$_Convert_size@_K@std@@YA_K_K@Z ENDP			; std::_Convert_size<unsigned __int64>
_TEXT	ENDS
; Function compile flags: /Odtp /RTCsu
; File C:\Program Files\Microsoft Visual Studio\2022\Community\VC\Tools\MSVC\14.32.31326\include\xmemory
;	COMDAT ??$?0AEBV?$allocator@U?$tquat@M$0A@@glm@@@std@@$$V@?$_Compressed_pair@V?$allocator@U?$tquat@M$0A@@glm@@@std@@V?$_Vector_val@U?$_Simple_types@U?$tquat@M$0A@@glm@@@std@@@2@$00@std@@QEAA@U_One_then_variadic_args_t@1@AEBV?$allocator@U?$tquat@M$0A@@glm@@@1@@Z
_TEXT	SEGMENT
this$ = 48
__formal$ = 56
_Val1$ = 64
??$?0AEBV?$allocator@U?$tquat@M$0A@@glm@@@std@@$$V@?$_Compressed_pair@V?$allocator@U?$tquat@M$0A@@glm@@@std@@V?$_Vector_val@U?$_Simple_types@U?$tquat@M$0A@@glm@@@std@@@2@$00@std@@QEAA@U_One_then_variadic_args_t@1@AEBV?$allocator@U?$tquat@M$0A@@glm@@@1@@Z PROC ; std::_Compressed_pair<std::allocator<glm::tquat<float,0> >,std::_Vector_val<std::_Simple_types<glm::tquat<float,0> > >,1>::_Compressed_pair<std::allocator<glm::tquat<float,0> >,std::_Vector_val<std::_Simple_types<glm::tquat<float,0> > >,1><std::allocator<glm::tquat<float,0> > const &>, COMDAT

; 1375 :         : _Ty1(_STD forward<_Other1>(_Val1)), _Myval2(_STD forward<_Other2>(_Val2)...) {}

$LN3:
	mov	QWORD PTR [rsp+24], r8
	mov	BYTE PTR [rsp+16], dl
	mov	QWORD PTR [rsp+8], rcx
	push	rdi
	sub	rsp, 32					; 00000020H
	mov	rcx, QWORD PTR _Val1$[rsp]
	call	??$forward@AEBV?$allocator@U?$tquat@M$0A@@glm@@@std@@@std@@YAAEBV?$allocator@U?$tquat@M$0A@@glm@@@0@AEBV10@@Z ; std::forward<std::allocator<glm::tquat<float,0> > const &>
	mov	rax, QWORD PTR this$[rsp]
	mov	rcx, rax
	call	??0?$_Vector_val@U?$_Simple_types@U?$tquat@M$0A@@glm@@@std@@@std@@QEAA@XZ ; std::_Vector_val<std::_Simple_types<glm::tquat<float,0> > >::_Vector_val<std::_Simple_types<glm::tquat<float,0> > >
	mov	rax, QWORD PTR this$[rsp]
	add	rsp, 32					; 00000020H
	pop	rdi
	ret	0
??$?0AEBV?$allocator@U?$tquat@M$0A@@glm@@@std@@$$V@?$_Compressed_pair@V?$allocator@U?$tquat@M$0A@@glm@@@std@@V?$_Vector_val@U?$_Simple_types@U?$tquat@M$0A@@glm@@@std@@@2@$00@std@@QEAA@U_One_then_variadic_args_t@1@AEBV?$allocator@U?$tquat@M$0A@@glm@@@1@@Z ENDP ; std::_Compressed_pair<std::allocator<glm::tquat<float,0> >,std::_Vector_val<std::_Simple_types<glm::tquat<float,0> > >,1>::_Compressed_pair<std::allocator<glm::tquat<float,0> >,std::_Vector_val<std::_Simple_types<glm::tquat<float,0> > >,1><std::allocator<glm::tquat<float,0> > const &>
_TEXT	ENDS
; Function compile flags: /Odtp /RTCsu
; File C:\Program Files\Microsoft Visual Studio\2022\Community\VC\Tools\MSVC\14.32.31326\include\xmemory
;	COMDAT ??$_Delete_plain_internal@V?$allocator@U_Container_proxy@std@@@std@@@std@@YAXAEAV?$allocator@U_Container_proxy@std@@@0@QEAU_Container_proxy@0@@Z
_TEXT	SEGMENT
_Al$ = 48
_Ptr$ = 56
??$_Delete_plain_internal@V?$allocator@U_Container_proxy@std@@@std@@@std@@YAXAEAV?$allocator@U_Container_proxy@std@@@0@QEAU_Container_proxy@0@@Z PROC ; std::_Delete_plain_internal<std::allocator<std::_Container_proxy> >, COMDAT

; 984  : _CONSTEXPR20 void _Delete_plain_internal(_Alloc& _Al, typename _Alloc::value_type* const _Ptr) noexcept {

$LN3:
	mov	QWORD PTR [rsp+16], rdx
	mov	QWORD PTR [rsp+8], rcx
	push	rdi
	sub	rsp, 32					; 00000020H

; 985  :     // destroy *_Ptr in place, then deallocate _Ptr using _Al; used for internal container types the user didn't name
; 986  :     using _Ty = typename _Alloc::value_type;
; 987  :     _Ptr->~_Ty();
; 988  :     _Deallocate_plain(_Al, _Ptr);

	mov	rdx, QWORD PTR _Ptr$[rsp]
	mov	rcx, QWORD PTR _Al$[rsp]
	call	??$_Deallocate_plain@V?$allocator@U_Container_proxy@std@@@std@@@std@@YAXAEAV?$allocator@U_Container_proxy@std@@@0@QEAU_Container_proxy@0@@Z ; std::_Deallocate_plain<std::allocator<std::_Container_proxy> >

; 989  : }

	add	rsp, 32					; 00000020H
	pop	rdi
	ret	0
??$_Delete_plain_internal@V?$allocator@U_Container_proxy@std@@@std@@@std@@YAXAEAV?$allocator@U_Container_proxy@std@@@0@QEAU_Container_proxy@0@@Z ENDP ; std::_Delete_plain_internal<std::allocator<std::_Container_proxy> >
_TEXT	ENDS
; Function compile flags: /Odtp /RTCsu
; File C:\Program Files\Microsoft Visual Studio\2022\Community\VC\Tools\MSVC\14.32.31326\include\utility
;	COMDAT ??$exchange@PEAU_Container_proxy@std@@$$T@std@@YAPEAU_Container_proxy@0@AEAPEAU10@$$QEA$$T@Z
_TEXT	SEGMENT
_Old_val$ = 0
_Val$ = 32
_New_val$ = 40
??$exchange@PEAU_Container_proxy@std@@$$T@std@@YAPEAU_Container_proxy@0@AEAPEAU10@$$QEA$$T@Z PROC ; std::exchange<std::_Container_proxy *,std::nullptr_t>, COMDAT

; 605  :     conjunction_v<is_nothrow_move_constructible<_Ty>, is_nothrow_assignable<_Ty&, _Other>>) {

$LN3:
	mov	QWORD PTR [rsp+16], rdx
	mov	QWORD PTR [rsp+8], rcx
	push	rdi
	sub	rsp, 16

; 606  :     // assign _New_val to _Val, return previous _Val
; 607  :     _Ty _Old_val = static_cast<_Ty&&>(_Val);

	mov	rax, QWORD PTR _Val$[rsp]
	mov	rax, QWORD PTR [rax]
	mov	QWORD PTR _Old_val$[rsp], rax

; 608  :     _Val         = static_cast<_Other&&>(_New_val);

	mov	rax, QWORD PTR _Val$[rsp]
	mov	rcx, QWORD PTR _New_val$[rsp]
	mov	rcx, QWORD PTR [rcx]
	mov	QWORD PTR [rax], rcx

; 609  :     return _Old_val;

	mov	rax, QWORD PTR _Old_val$[rsp]

; 610  : }

	add	rsp, 16
	pop	rdi
	ret	0
??$exchange@PEAU_Container_proxy@std@@$$T@std@@YAPEAU_Container_proxy@0@AEAPEAU10@$$QEA$$T@Z ENDP ; std::exchange<std::_Container_proxy *,std::nullptr_t>
_TEXT	ENDS
; Function compile flags: /Odtp /RTCsu
; File C:\Program Files\Microsoft Visual Studio\2022\Community\VC\Tools\MSVC\14.32.31326\include\xmemory
;	COMDAT ??$?0U?$tquat@M$0A@@glm@@@?$allocator@U_Container_proxy@std@@@std@@QEAA@AEBV?$allocator@U?$tquat@M$0A@@glm@@@1@@Z
_TEXT	SEGMENT
this$ = 16
__formal$ = 24
??$?0U?$tquat@M$0A@@glm@@@?$allocator@U_Container_proxy@std@@@std@@QEAA@AEBV?$allocator@U?$tquat@M$0A@@glm@@@1@@Z PROC ; std::allocator<std::_Container_proxy>::allocator<std::_Container_proxy><glm::tquat<float,0> >, COMDAT

; 823  :     constexpr allocator(const allocator<_Other>&) noexcept {}

$LN3:
	mov	QWORD PTR [rsp+16], rdx
	mov	QWORD PTR [rsp+8], rcx
	push	rdi
	mov	rax, QWORD PTR this$[rsp]
	pop	rdi
	ret	0
??$?0U?$tquat@M$0A@@glm@@@?$allocator@U_Container_proxy@std@@@std@@QEAA@AEBV?$allocator@U?$tquat@M$0A@@glm@@@1@@Z ENDP ; std::allocator<std::_Container_proxy>::allocator<std::_Container_proxy><glm::tquat<float,0> >
_TEXT	ENDS
; Function compile flags: /Odtp /RTCsu
; File C:\Program Files\Microsoft Visual Studio\2022\Community\VC\Tools\MSVC\14.32.31326\include\xmemory
;	COMDAT ?allocate@?$allocator@U_Container_proxy@std@@@std@@QEAAPEAU_Container_proxy@2@_K@Z
_TEXT	SEGMENT
this$ = 48
_Count$ = 56
?allocate@?$allocator@U_Container_proxy@std@@@std@@QEAAPEAU_Container_proxy@2@_K@Z PROC ; std::allocator<std::_Container_proxy>::allocate, COMDAT

; 833  :     _NODISCARD _CONSTEXPR20 __declspec(allocator) _Ty* allocate(_CRT_GUARDOVERFLOW const size_t _Count) {

$LN3:
	mov	QWORD PTR [rsp+16], rdx
	mov	QWORD PTR [rsp+8], rcx
	push	rdi
	sub	rsp, 32					; 00000020H

; 834  :         return static_cast<_Ty*>(_Allocate<_New_alignof<_Ty>>(_Get_size_of_n<sizeof(_Ty)>(_Count)));

	mov	rcx, QWORD PTR _Count$[rsp]
	call	??$_Get_size_of_n@$0BA@@std@@YA_K_K@Z	; std::_Get_size_of_n<16>
	mov	rcx, rax
	call	??$_Allocate@$0BA@U_Default_allocate_traits@std@@$0A@@std@@YAPEAX_K@Z ; std::_Allocate<16,std::_Default_allocate_traits,0>

; 835  :     }

	add	rsp, 32					; 00000020H
	pop	rdi
	ret	0
?allocate@?$allocator@U_Container_proxy@std@@@std@@QEAAPEAU_Container_proxy@2@_K@Z ENDP ; std::allocator<std::_Container_proxy>::allocate
_TEXT	ENDS
; Function compile flags: /Odtp /RTCsu
; File C:\Users\ksart\OneDrive\Desktop\FlappyBird\libraries\external\glm\test\gtc\gtc_quaternion.cpp
_TEXT	SEGMENT
Error$ = 32
main	PROC

; 309  : {

$LN3:
	push	rdi
	sub	rsp, 48					; 00000030H

; 310  : 	int Error = 0;

	mov	DWORD PTR Error$[rsp], 0

; 311  : 
; 312  : 	Error += test_quat_ctr();

	call	?test_quat_ctr@@YAHXZ			; test_quat_ctr
	mov	ecx, DWORD PTR Error$[rsp]
	add	ecx, eax
	mov	eax, ecx
	mov	DWORD PTR Error$[rsp], eax

; 313  : 	Error += test_quat_mul_vec();

	call	?test_quat_mul_vec@@YAHXZ		; test_quat_mul_vec
	mov	ecx, DWORD PTR Error$[rsp]
	add	ecx, eax
	mov	eax, ecx
	mov	DWORD PTR Error$[rsp], eax

; 314  : 	Error += test_quat_two_axis_ctr();

	call	?test_quat_two_axis_ctr@@YAHXZ		; test_quat_two_axis_ctr
	mov	ecx, DWORD PTR Error$[rsp]
	add	ecx, eax
	mov	eax, ecx
	mov	DWORD PTR Error$[rsp], eax

; 315  : 	Error += test_quat_mul();

	call	?test_quat_mul@@YAHXZ			; test_quat_mul
	mov	ecx, DWORD PTR Error$[rsp]
	add	ecx, eax
	mov	eax, ecx
	mov	DWORD PTR Error$[rsp], eax

; 316  : 	Error += test_quat_precision();

	call	?test_quat_precision@@YAHXZ		; test_quat_precision
	mov	ecx, DWORD PTR Error$[rsp]
	add	ecx, eax
	mov	eax, ecx
	mov	DWORD PTR Error$[rsp], eax

; 317  : 	Error += test_quat_type();

	call	?test_quat_type@@YAHXZ			; test_quat_type
	mov	ecx, DWORD PTR Error$[rsp]
	add	ecx, eax
	mov	eax, ecx
	mov	DWORD PTR Error$[rsp], eax

; 318  : 	Error += test_quat_angle();

	call	?test_quat_angle@@YAHXZ			; test_quat_angle
	mov	ecx, DWORD PTR Error$[rsp]
	add	ecx, eax
	mov	eax, ecx
	mov	DWORD PTR Error$[rsp], eax

; 319  : 	Error += test_quat_angleAxis();

	call	?test_quat_angleAxis@@YAHXZ		; test_quat_angleAxis
	mov	ecx, DWORD PTR Error$[rsp]
	add	ecx, eax
	mov	eax, ecx
	mov	DWORD PTR Error$[rsp], eax

; 320  : 	Error += test_quat_mix();

	call	?test_quat_mix@@YAHXZ			; test_quat_mix
	mov	ecx, DWORD PTR Error$[rsp]
	add	ecx, eax
	mov	eax, ecx
	mov	DWORD PTR Error$[rsp], eax

; 321  : 	Error += test_quat_normalize();

	call	?test_quat_normalize@@YAHXZ		; test_quat_normalize
	mov	ecx, DWORD PTR Error$[rsp]
	add	ecx, eax
	mov	eax, ecx
	mov	DWORD PTR Error$[rsp], eax

; 322  : 	Error += test_quat_euler();

	call	?test_quat_euler@@YAHXZ			; test_quat_euler
	mov	ecx, DWORD PTR Error$[rsp]
	add	ecx, eax
	mov	eax, ecx
	mov	DWORD PTR Error$[rsp], eax

; 323  : 	Error += test_quat_slerp();

	call	?test_quat_slerp@@YAHXZ			; test_quat_slerp
	mov	ecx, DWORD PTR Error$[rsp]
	add	ecx, eax
	mov	eax, ecx
	mov	DWORD PTR Error$[rsp], eax

; 324  : 	Error += test_size();

	call	?test_size@@YAHXZ			; test_size
	mov	ecx, DWORD PTR Error$[rsp]
	add	ecx, eax
	mov	eax, ecx
	mov	DWORD PTR Error$[rsp], eax

; 325  : 
; 326  : 	return Error;

	mov	eax, DWORD PTR Error$[rsp]

; 327  : }

	add	rsp, 48					; 00000030H
	pop	rdi
	ret	0
main	ENDP
_TEXT	ENDS
; Function compile flags: /Odtp /RTCsu
; File C:\Users\ksart\OneDrive\Desktop\FlappyBird\libraries\external\glm\test\gtc\gtc_quaternion.cpp
_TEXT	SEGMENT
Error$ = 32
$T1 = 36
$T2 = 56
tv67 = 88
tv72 = 92
tv76 = 96
tv80 = 100
?test_size@@YAHXZ PROC					; test_size

; 295  : {

$LN11:
	push	rdi
	sub	rsp, 112				; 00000070H

; 296  : 	int Error = 0;

	mov	DWORD PTR Error$[rsp], 0

; 297  : 
; 298  : 	Error += 16 == sizeof(glm::quat) ? 0 : 1;

	mov	eax, DWORD PTR Error$[rsp]
	mov	DWORD PTR Error$[rsp], eax

; 299  : 	Error += 32 == sizeof(glm::dquat) ? 0 : 1;

	mov	eax, DWORD PTR Error$[rsp]
	mov	DWORD PTR Error$[rsp], eax

; 300  : 	Error += glm::quat().length() == 4 ? 0 : 1;

	lea	rcx, QWORD PTR $T1[rsp]
	call	??0?$tquat@M$0A@@glm@@QEAA@XZ		; glm::tquat<float,0>::tquat<float,0>
	call	?length@?$tquat@M$0A@@glm@@SAHXZ	; glm::tquat<float,0>::length
	cmp	eax, 4
	jne	SHORT $LN3@test_size
	mov	DWORD PTR tv67[rsp], 0
	jmp	SHORT $LN4@test_size
$LN3@test_size:
	mov	DWORD PTR tv67[rsp], 1
$LN4@test_size:
	mov	eax, DWORD PTR tv67[rsp]
	mov	ecx, DWORD PTR Error$[rsp]
	add	ecx, eax
	mov	eax, ecx
	mov	DWORD PTR Error$[rsp], eax

; 301  : 	Error += glm::dquat().length() == 4 ? 0 : 1;

	lea	rcx, QWORD PTR $T2[rsp]
	call	??0?$tquat@N$0A@@glm@@QEAA@XZ		; glm::tquat<double,0>::tquat<double,0>
	call	?length@?$tquat@N$0A@@glm@@SAHXZ	; glm::tquat<double,0>::length
	cmp	eax, 4
	jne	SHORT $LN5@test_size
	mov	DWORD PTR tv72[rsp], 0
	jmp	SHORT $LN6@test_size
$LN5@test_size:
	mov	DWORD PTR tv72[rsp], 1
$LN6@test_size:
	mov	eax, DWORD PTR tv72[rsp]
	mov	ecx, DWORD PTR Error$[rsp]
	add	ecx, eax
	mov	eax, ecx
	mov	DWORD PTR Error$[rsp], eax

; 302  : 	Error += glm::quat::length() == 4 ? 0 : 1;

	call	?length@?$tquat@M$0A@@glm@@SAHXZ	; glm::tquat<float,0>::length
	cmp	eax, 4
	jne	SHORT $LN7@test_size
	mov	DWORD PTR tv76[rsp], 0
	jmp	SHORT $LN8@test_size
$LN7@test_size:
	mov	DWORD PTR tv76[rsp], 1
$LN8@test_size:
	mov	eax, DWORD PTR tv76[rsp]
	mov	ecx, DWORD PTR Error$[rsp]
	add	ecx, eax
	mov	eax, ecx
	mov	DWORD PTR Error$[rsp], eax

; 303  : 	Error += glm::dquat::length() == 4 ? 0 : 1;

	call	?length@?$tquat@N$0A@@glm@@SAHXZ	; glm::tquat<double,0>::length
	cmp	eax, 4
	jne	SHORT $LN9@test_size
	mov	DWORD PTR tv80[rsp], 0
	jmp	SHORT $LN10@test_size
$LN9@test_size:
	mov	DWORD PTR tv80[rsp], 1
$LN10@test_size:
	mov	eax, DWORD PTR tv80[rsp]
	mov	ecx, DWORD PTR Error$[rsp]
	add	ecx, eax
	mov	eax, ecx
	mov	DWORD PTR Error$[rsp], eax

; 304  : 
; 305  : 	return Error;

	mov	eax, DWORD PTR Error$[rsp]

; 306  : }

	add	rsp, 112				; 00000070H
	pop	rdi
	ret	0
?test_size@@YAHXZ ENDP					; test_size
_TEXT	ENDS
; Function compile flags: /Odtp /RTCsu
; File C:\Program Files\Microsoft Visual Studio\2022\Community\VC\Tools\MSVC\14.32.31326\include\initializer_list
;	COMDAT ?size@?$initializer_list@U?$tquat@M$0A@@glm@@@std@@QEBA_KXZ
_TEXT	SEGMENT
this$ = 16
?size@?$initializer_list@U?$tquat@M$0A@@glm@@@std@@QEBA_KXZ PROC ; std::initializer_list<glm::tquat<float,0> >::size, COMDAT

; 45   :     _NODISCARD constexpr size_t size() const noexcept {

$LN3:
	mov	QWORD PTR [rsp+8], rcx
	push	rdi

; 46   :         return static_cast<size_t>(_Last - _First);

	mov	rax, QWORD PTR this$[rsp]
	mov	rcx, QWORD PTR this$[rsp]
	mov	rcx, QWORD PTR [rcx]
	mov	rax, QWORD PTR [rax+8]
	sub	rax, rcx
	sar	rax, 4

; 47   :     }

	pop	rdi
	ret	0
?size@?$initializer_list@U?$tquat@M$0A@@glm@@@std@@QEBA_KXZ ENDP ; std::initializer_list<glm::tquat<float,0> >::size
_TEXT	ENDS
; Function compile flags: /Odtp /RTCsu
; File C:\Program Files\Microsoft Visual Studio\2022\Community\VC\Tools\MSVC\14.32.31326\include\initializer_list
;	COMDAT ?end@?$initializer_list@U?$tquat@M$0A@@glm@@@std@@QEBAPEBU?$tquat@M$0A@@glm@@XZ
_TEXT	SEGMENT
this$ = 16
?end@?$initializer_list@U?$tquat@M$0A@@glm@@@std@@QEBAPEBU?$tquat@M$0A@@glm@@XZ PROC ; std::initializer_list<glm::tquat<float,0> >::end, COMDAT

; 41   :     _NODISCARD constexpr const _Elem* end() const noexcept {

$LN3:
	mov	QWORD PTR [rsp+8], rcx
	push	rdi

; 42   :         return _Last;

	mov	rax, QWORD PTR this$[rsp]
	mov	rax, QWORD PTR [rax+8]

; 43   :     }

	pop	rdi
	ret	0
?end@?$initializer_list@U?$tquat@M$0A@@glm@@@std@@QEBAPEBU?$tquat@M$0A@@glm@@XZ ENDP ; std::initializer_list<glm::tquat<float,0> >::end
_TEXT	ENDS
; Function compile flags: /Odtp /RTCsu
; File C:\Program Files\Microsoft Visual Studio\2022\Community\VC\Tools\MSVC\14.32.31326\include\initializer_list
;	COMDAT ?begin@?$initializer_list@U?$tquat@M$0A@@glm@@@std@@QEBAPEBU?$tquat@M$0A@@glm@@XZ
_TEXT	SEGMENT
this$ = 16
?begin@?$initializer_list@U?$tquat@M$0A@@glm@@@std@@QEBAPEBU?$tquat@M$0A@@glm@@XZ PROC ; std::initializer_list<glm::tquat<float,0> >::begin, COMDAT

; 37   :     _NODISCARD constexpr const _Elem* begin() const noexcept {

$LN3:
	mov	QWORD PTR [rsp+8], rcx
	push	rdi

; 38   :         return _First;

	mov	rax, QWORD PTR this$[rsp]
	mov	rax, QWORD PTR [rax]

; 39   :     }

	pop	rdi
	ret	0
?begin@?$initializer_list@U?$tquat@M$0A@@glm@@@std@@QEBAPEBU?$tquat@M$0A@@glm@@XZ ENDP ; std::initializer_list<glm::tquat<float,0> >::begin
_TEXT	ENDS
; Function compile flags: /Odtp /RTCsu
; File C:\Program Files\Microsoft Visual Studio\2022\Community\VC\Tools\MSVC\14.32.31326\include\initializer_list
;	COMDAT ??0?$initializer_list@U?$tquat@M$0A@@glm@@@std@@QEAA@PEBU?$tquat@M$0A@@glm@@0@Z
_TEXT	SEGMENT
this$ = 16
_First_arg$ = 24
_Last_arg$ = 32
??0?$initializer_list@U?$tquat@M$0A@@glm@@@std@@QEAA@PEBU?$tquat@M$0A@@glm@@0@Z PROC ; std::initializer_list<glm::tquat<float,0> >::initializer_list<glm::tquat<float,0> >, COMDAT

; 35   :         : _First(_First_arg), _Last(_Last_arg) {}

$LN3:
	mov	QWORD PTR [rsp+24], r8
	mov	QWORD PTR [rsp+16], rdx
	mov	QWORD PTR [rsp+8], rcx
	push	rdi
	mov	rax, QWORD PTR this$[rsp]
	mov	rcx, QWORD PTR _First_arg$[rsp]
	mov	QWORD PTR [rax], rcx
	mov	rax, QWORD PTR this$[rsp]
	mov	rcx, QWORD PTR _Last_arg$[rsp]
	mov	QWORD PTR [rax+8], rcx
	mov	rax, QWORD PTR this$[rsp]
	pop	rdi
	ret	0
??0?$initializer_list@U?$tquat@M$0A@@glm@@@std@@QEAA@PEBU?$tquat@M$0A@@glm@@0@Z ENDP ; std::initializer_list<glm::tquat<float,0> >::initializer_list<glm::tquat<float,0> >
_TEXT	ENDS
; Function compile flags: /Odtp /RTCsu
; File C:\Program Files\Microsoft Visual Studio\2022\Community\VC\Tools\MSVC\14.32.31326\include\xmemory
;	COMDAT ?_Get_first@?$_Compressed_pair@V?$allocator@U?$tquat@M$0A@@glm@@@std@@V?$_Vector_val@U?$_Simple_types@U?$tquat@M$0A@@glm@@@std@@@2@$00@std@@QEBAAEBV?$allocator@U?$tquat@M$0A@@glm@@@2@XZ
_TEXT	SEGMENT
this$ = 16
?_Get_first@?$_Compressed_pair@V?$allocator@U?$tquat@M$0A@@glm@@@std@@V?$_Vector_val@U?$_Simple_types@U?$tquat@M$0A@@glm@@@std@@@2@$00@std@@QEBAAEBV?$allocator@U?$tquat@M$0A@@glm@@@2@XZ PROC ; std::_Compressed_pair<std::allocator<glm::tquat<float,0> >,std::_Vector_val<std::_Simple_types<glm::tquat<float,0> > >,1>::_Get_first, COMDAT

; 1381 :     constexpr const _Ty1& _Get_first() const noexcept {

$LN3:
	mov	QWORD PTR [rsp+8], rcx
	push	rdi

; 1382 :         return *this;

	mov	rax, QWORD PTR this$[rsp]

; 1383 :     }

	pop	rdi
	ret	0
?_Get_first@?$_Compressed_pair@V?$allocator@U?$tquat@M$0A@@glm@@@std@@V?$_Vector_val@U?$_Simple_types@U?$tquat@M$0A@@glm@@@std@@@2@$00@std@@QEBAAEBV?$allocator@U?$tquat@M$0A@@glm@@@2@XZ ENDP ; std::_Compressed_pair<std::allocator<glm::tquat<float,0> >,std::_Vector_val<std::_Simple_types<glm::tquat<float,0> > >,1>::_Get_first
_TEXT	ENDS
; Function compile flags: /Odtp /RTCsu
; File C:\Program Files\Microsoft Visual Studio\2022\Community\VC\Tools\MSVC\14.32.31326\include\xmemory
;	COMDAT ?_Get_first@?$_Compressed_pair@V?$allocator@U?$tquat@M$0A@@glm@@@std@@V?$_Vector_val@U?$_Simple_types@U?$tquat@M$0A@@glm@@@std@@@2@$00@std@@QEAAAEAV?$allocator@U?$tquat@M$0A@@glm@@@2@XZ
_TEXT	SEGMENT
this$ = 16
?_Get_first@?$_Compressed_pair@V?$allocator@U?$tquat@M$0A@@glm@@@std@@V?$_Vector_val@U?$_Simple_types@U?$tquat@M$0A@@glm@@@std@@@2@$00@std@@QEAAAEAV?$allocator@U?$tquat@M$0A@@glm@@@2@XZ PROC ; std::_Compressed_pair<std::allocator<glm::tquat<float,0> >,std::_Vector_val<std::_Simple_types<glm::tquat<float,0> > >,1>::_Get_first, COMDAT

; 1377 :     constexpr _Ty1& _Get_first() noexcept {

$LN3:
	mov	QWORD PTR [rsp+8], rcx
	push	rdi

; 1378 :         return *this;

	mov	rax, QWORD PTR this$[rsp]

; 1379 :     }

	pop	rdi
	ret	0
?_Get_first@?$_Compressed_pair@V?$allocator@U?$tquat@M$0A@@glm@@@std@@V?$_Vector_val@U?$_Simple_types@U?$tquat@M$0A@@glm@@@std@@@2@$00@std@@QEAAAEAV?$allocator@U?$tquat@M$0A@@glm@@@2@XZ ENDP ; std::_Compressed_pair<std::allocator<glm::tquat<float,0> >,std::_Vector_val<std::_Simple_types<glm::tquat<float,0> > >,1>::_Get_first
_TEXT	ENDS
; Function compile flags: /Odtp /RTCsu
; File C:\Program Files\Microsoft Visual Studio\2022\Community\VC\Tools\MSVC\14.32.31326\include\vector
;	COMDAT ??0?$_Vector_val@U?$_Simple_types@U?$tquat@M$0A@@glm@@@std@@@std@@QEAA@XZ
_TEXT	SEGMENT
this$ = 48
??0?$_Vector_val@U?$_Simple_types@U?$tquat@M$0A@@glm@@@std@@@std@@QEAA@XZ PROC ; std::_Vector_val<std::_Simple_types<glm::tquat<float,0> > >::_Vector_val<std::_Simple_types<glm::tquat<float,0> > >, COMDAT

; 392  :     _CONSTEXPR20 _Vector_val() noexcept : _Myfirst(), _Mylast(), _Myend() {}

$LN3:
	mov	QWORD PTR [rsp+8], rcx
	push	rdi
	sub	rsp, 32					; 00000020H
	mov	rcx, QWORD PTR this$[rsp]
	call	??0_Container_base12@std@@QEAA@XZ	; std::_Container_base12::_Container_base12
	mov	rax, QWORD PTR this$[rsp]
	mov	QWORD PTR [rax+8], 0
	mov	rax, QWORD PTR this$[rsp]
	mov	QWORD PTR [rax+16], 0
	mov	rax, QWORD PTR this$[rsp]
	mov	QWORD PTR [rax+24], 0
	mov	rax, QWORD PTR this$[rsp]
	add	rsp, 32					; 00000020H
	pop	rdi
	ret	0
??0?$_Vector_val@U?$_Simple_types@U?$tquat@M$0A@@glm@@@std@@@std@@QEAA@XZ ENDP ; std::_Vector_val<std::_Simple_types<glm::tquat<float,0> > >::_Vector_val<std::_Simple_types<glm::tquat<float,0> > >
_TEXT	ENDS
; Function compile flags: /Odtp /RTCsu
; File C:\Program Files\Microsoft Visual Studio\2022\Community\VC\Tools\MSVC\14.32.31326\include\vector
;	COMDAT ?_Getal@?$vector@U?$tquat@M$0A@@glm@@V?$allocator@U?$tquat@M$0A@@glm@@@std@@@std@@AEBAAEBV?$allocator@U?$tquat@M$0A@@glm@@@2@XZ
_TEXT	SEGMENT
this$ = 48
?_Getal@?$vector@U?$tquat@M$0A@@glm@@V?$allocator@U?$tquat@M$0A@@glm@@@std@@@std@@AEBAAEBV?$allocator@U?$tquat@M$0A@@glm@@@2@XZ PROC ; std::vector<glm::tquat<float,0>,std::allocator<glm::tquat<float,0> > >::_Getal, COMDAT

; 2031 :     _NODISCARD _CONSTEXPR20 const _Alty& _Getal() const noexcept {

$LN3:
	mov	QWORD PTR [rsp+8], rcx
	push	rdi
	sub	rsp, 32					; 00000020H

; 2032 :         return _Mypair._Get_first();

	mov	rax, QWORD PTR this$[rsp]
	mov	rcx, rax
	call	?_Get_first@?$_Compressed_pair@V?$allocator@U?$tquat@M$0A@@glm@@@std@@V?$_Vector_val@U?$_Simple_types@U?$tquat@M$0A@@glm@@@std@@@2@$00@std@@QEBAAEBV?$allocator@U?$tquat@M$0A@@glm@@@2@XZ ; std::_Compressed_pair<std::allocator<glm::tquat<float,0> >,std::_Vector_val<std::_Simple_types<glm::tquat<float,0> > >,1>::_Get_first

; 2033 :     }

	add	rsp, 32					; 00000020H
	pop	rdi
	ret	0
?_Getal@?$vector@U?$tquat@M$0A@@glm@@V?$allocator@U?$tquat@M$0A@@glm@@@std@@@std@@AEBAAEBV?$allocator@U?$tquat@M$0A@@glm@@@2@XZ ENDP ; std::vector<glm::tquat<float,0>,std::allocator<glm::tquat<float,0> > >::_Getal
_TEXT	ENDS
; Function compile flags: /Odtp /RTCsu
; File C:\Program Files\Microsoft Visual Studio\2022\Community\VC\Tools\MSVC\14.32.31326\include\vector
;	COMDAT ?_Getal@?$vector@U?$tquat@M$0A@@glm@@V?$allocator@U?$tquat@M$0A@@glm@@@std@@@std@@AEAAAEAV?$allocator@U?$tquat@M$0A@@glm@@@2@XZ
_TEXT	SEGMENT
this$ = 48
?_Getal@?$vector@U?$tquat@M$0A@@glm@@V?$allocator@U?$tquat@M$0A@@glm@@@std@@@std@@AEAAAEAV?$allocator@U?$tquat@M$0A@@glm@@@2@XZ PROC ; std::vector<glm::tquat<float,0>,std::allocator<glm::tquat<float,0> > >::_Getal, COMDAT

; 2027 :     _NODISCARD _CONSTEXPR20 _Alty& _Getal() noexcept {

$LN3:
	mov	QWORD PTR [rsp+8], rcx
	push	rdi
	sub	rsp, 32					; 00000020H

; 2028 :         return _Mypair._Get_first();

	mov	rax, QWORD PTR this$[rsp]
	mov	rcx, rax
	call	?_Get_first@?$_Compressed_pair@V?$allocator@U?$tquat@M$0A@@glm@@@std@@V?$_Vector_val@U?$_Simple_types@U?$tquat@M$0A@@glm@@@std@@@2@$00@std@@QEAAAEAV?$allocator@U?$tquat@M$0A@@glm@@@2@XZ ; std::_Compressed_pair<std::allocator<glm::tquat<float,0> >,std::_Vector_val<std::_Simple_types<glm::tquat<float,0> > >,1>::_Get_first

; 2029 :     }

	add	rsp, 32					; 00000020H
	pop	rdi
	ret	0
?_Getal@?$vector@U?$tquat@M$0A@@glm@@V?$allocator@U?$tquat@M$0A@@glm@@@std@@@std@@AEAAAEAV?$allocator@U?$tquat@M$0A@@glm@@@2@XZ ENDP ; std::vector<glm::tquat<float,0>,std::allocator<glm::tquat<float,0> > >::_Getal
_TEXT	ENDS
; Function compile flags: /Odtp /RTCsu
; File C:\Program Files\Microsoft Visual Studio\2022\Community\VC\Tools\MSVC\14.32.31326\include\vector
;	COMDAT ?_Xlength@?$vector@U?$tquat@M$0A@@glm@@V?$allocator@U?$tquat@M$0A@@glm@@@std@@@std@@CAXXZ
_TEXT	SEGMENT
?_Xlength@?$vector@U?$tquat@M$0A@@glm@@V?$allocator@U?$tquat@M$0A@@glm@@@std@@@std@@CAXXZ PROC ; std::vector<glm::tquat<float,0>,std::allocator<glm::tquat<float,0> > >::_Xlength, COMDAT

; 1983 :     [[noreturn]] static void _Xlength() {

$LN3:
	push	rdi
	sub	rsp, 32					; 00000020H

; 1984 :         _Xlength_error("vector too long");

	lea	rcx, OFFSET FLAT:??_C@_0BA@FOIKENOD@vector?5too?5long@
	call	?_Xlength_error@std@@YAXPEBD@Z		; std::_Xlength_error
$LN2@Xlength:

; 1985 :     }

	add	rsp, 32					; 00000020H
	pop	rdi
	ret	0
?_Xlength@?$vector@U?$tquat@M$0A@@glm@@V?$allocator@U?$tquat@M$0A@@glm@@@std@@@std@@CAXXZ ENDP ; std::vector<glm::tquat<float,0>,std::allocator<glm::tquat<float,0> > >::_Xlength
_TEXT	ENDS
; Function compile flags: /Odtp /RTCsu
; File C:\Program Files\Microsoft Visual Studio\2022\Community\VC\Tools\MSVC\14.32.31326\include\vector
;	COMDAT ?_Tidy@?$vector@U?$tquat@M$0A@@glm@@V?$allocator@U?$tquat@M$0A@@glm@@@std@@@std@@AEAAXXZ
_TEXT	SEGMENT
_Al$ = 32
_My_data$ = 40
_Myfirst$ = 48
_Mylast$ = 56
_Myend$ = 64
this$ = 96
?_Tidy@?$vector@U?$tquat@M$0A@@glm@@V?$allocator@U?$tquat@M$0A@@glm@@@std@@@std@@AEAAXXZ PROC ; std::vector<glm::tquat<float,0>,std::allocator<glm::tquat<float,0> > >::_Tidy, COMDAT

; 1881 :     _CONSTEXPR20 void _Tidy() noexcept { // free all storage

$LN4:
	mov	QWORD PTR [rsp+8], rcx
	push	rdi
	sub	rsp, 80					; 00000050H

; 1882 :         auto& _Al         = _Getal();

	mov	rcx, QWORD PTR this$[rsp]
	call	?_Getal@?$vector@U?$tquat@M$0A@@glm@@V?$allocator@U?$tquat@M$0A@@glm@@@std@@@std@@AEAAAEAV?$allocator@U?$tquat@M$0A@@glm@@@2@XZ ; std::vector<glm::tquat<float,0>,std::allocator<glm::tquat<float,0> > >::_Getal
	mov	QWORD PTR _Al$[rsp], rax

; 1883 :         auto& _My_data    = _Mypair._Myval2;

	mov	rax, QWORD PTR this$[rsp]
	mov	QWORD PTR _My_data$[rsp], rax

; 1884 :         pointer& _Myfirst = _My_data._Myfirst;

	mov	rax, QWORD PTR _My_data$[rsp]
	add	rax, 8
	mov	QWORD PTR _Myfirst$[rsp], rax

; 1885 :         pointer& _Mylast  = _My_data._Mylast;

	mov	rax, QWORD PTR _My_data$[rsp]
	add	rax, 16
	mov	QWORD PTR _Mylast$[rsp], rax

; 1886 :         pointer& _Myend   = _My_data._Myend;

	mov	rax, QWORD PTR _My_data$[rsp]
	add	rax, 24
	mov	QWORD PTR _Myend$[rsp], rax

; 1887 : 
; 1888 :         _My_data._Orphan_all();

	mov	rcx, QWORD PTR _My_data$[rsp]
	call	?_Orphan_all@_Container_base12@std@@QEAAXXZ ; std::_Container_base12::_Orphan_all

; 1889 : 
; 1890 :         if (_Myfirst) { // destroy and deallocate old array

	mov	rax, QWORD PTR _Myfirst$[rsp]
	cmp	QWORD PTR [rax], 0
	je	SHORT $LN2@Tidy

; 1891 :             _Destroy_range(_Myfirst, _Mylast, _Al);

	mov	r8, QWORD PTR _Al$[rsp]
	mov	rax, QWORD PTR _Mylast$[rsp]
	mov	rdx, QWORD PTR [rax]
	mov	rax, QWORD PTR _Myfirst$[rsp]
	mov	rcx, QWORD PTR [rax]
	call	??$_Destroy_range@V?$allocator@U?$tquat@M$0A@@glm@@@std@@@std@@YAXPEAU?$tquat@M$0A@@glm@@QEAU12@AEAV?$allocator@U?$tquat@M$0A@@glm@@@0@@Z ; std::_Destroy_range<std::allocator<glm::tquat<float,0> > >

; 1892 :             _ASAN_VECTOR_REMOVE;
; 1893 :             _Al.deallocate(_Myfirst, static_cast<size_type>(_Myend - _Myfirst));

	mov	rax, QWORD PTR _Myend$[rsp]
	mov	rcx, QWORD PTR _Myfirst$[rsp]
	mov	rcx, QWORD PTR [rcx]
	mov	rax, QWORD PTR [rax]
	sub	rax, rcx
	sar	rax, 4
	mov	r8, rax
	mov	rax, QWORD PTR _Myfirst$[rsp]
	mov	rdx, QWORD PTR [rax]
	mov	rcx, QWORD PTR _Al$[rsp]
	call	?deallocate@?$allocator@U?$tquat@M$0A@@glm@@@std@@QEAAXQEAU?$tquat@M$0A@@glm@@_K@Z ; std::allocator<glm::tquat<float,0> >::deallocate

; 1894 : 
; 1895 :             _Myfirst = nullptr;

	mov	rax, QWORD PTR _Myfirst$[rsp]
	mov	QWORD PTR [rax], 0

; 1896 :             _Mylast  = nullptr;

	mov	rax, QWORD PTR _Mylast$[rsp]
	mov	QWORD PTR [rax], 0

; 1897 :             _Myend   = nullptr;

	mov	rax, QWORD PTR _Myend$[rsp]
	mov	QWORD PTR [rax], 0
$LN2@Tidy:

; 1898 :         }
; 1899 :     }

	add	rsp, 80					; 00000050H
	pop	rdi
	ret	0
?_Tidy@?$vector@U?$tquat@M$0A@@glm@@V?$allocator@U?$tquat@M$0A@@glm@@@std@@@std@@AEAAXXZ ENDP ; std::vector<glm::tquat<float,0>,std::allocator<glm::tquat<float,0> > >::_Tidy
_TEXT	ENDS
; Function compile flags: /Odtp /RTCsu
; File C:\Program Files\Microsoft Visual Studio\2022\Community\VC\Tools\MSVC\14.32.31326\include\vector
;	COMDAT ?_Buy_nonzero@?$vector@U?$tquat@M$0A@@glm@@V?$allocator@U?$tquat@M$0A@@glm@@@std@@@std@@AEAAX_K@Z
_TEXT	SEGMENT
this$ = 48
_Newcapacity$ = 56
?_Buy_nonzero@?$vector@U?$tquat@M$0A@@glm@@V?$allocator@U?$tquat@M$0A@@glm@@@std@@@std@@AEAAX_K@Z PROC ; std::vector<glm::tquat<float,0>,std::allocator<glm::tquat<float,0> > >::_Buy_nonzero, COMDAT

; 1841 :     _CONSTEXPR20 void _Buy_nonzero(const size_type _Newcapacity) {

$LN4:
	mov	QWORD PTR [rsp+16], rdx
	mov	QWORD PTR [rsp+8], rcx
	push	rdi
	sub	rsp, 32					; 00000020H

; 1842 :         // allocate array with _Newcapacity elements
; 1843 : #ifdef _ENABLE_STL_INTERNAL_CHECK
; 1844 :         auto& _My_data    = _Mypair._Myval2;
; 1845 :         pointer& _Myfirst = _My_data._Myfirst;
; 1846 :         pointer& _Mylast  = _My_data._Mylast;
; 1847 :         pointer& _Myend   = _My_data._Myend;
; 1848 :         _STL_INTERNAL_CHECK(!_Myfirst && !_Mylast && !_Myend); // check that *this is tidy
; 1849 :         _STL_INTERNAL_CHECK(0 < _Newcapacity);
; 1850 : #endif // _ENABLE_STL_INTERNAL_CHECK
; 1851 : 
; 1852 :         if (_Newcapacity > max_size()) {

	mov	rcx, QWORD PTR this$[rsp]
	call	?max_size@?$vector@U?$tquat@M$0A@@glm@@V?$allocator@U?$tquat@M$0A@@glm@@@std@@@std@@QEBA_KXZ ; std::vector<glm::tquat<float,0>,std::allocator<glm::tquat<float,0> > >::max_size
	cmp	QWORD PTR _Newcapacity$[rsp], rax
	jbe	SHORT $LN2@Buy_nonzer

; 1853 :             _Xlength();

	call	?_Xlength@?$vector@U?$tquat@M$0A@@glm@@V?$allocator@U?$tquat@M$0A@@glm@@@std@@@std@@CAXXZ ; std::vector<glm::tquat<float,0>,std::allocator<glm::tquat<float,0> > >::_Xlength
$LN2@Buy_nonzer:

; 1854 :         }
; 1855 : 
; 1856 :         _Buy_raw(_Newcapacity);

	mov	rdx, QWORD PTR _Newcapacity$[rsp]
	mov	rcx, QWORD PTR this$[rsp]
	call	?_Buy_raw@?$vector@U?$tquat@M$0A@@glm@@V?$allocator@U?$tquat@M$0A@@glm@@@std@@@std@@AEAAX_K@Z ; std::vector<glm::tquat<float,0>,std::allocator<glm::tquat<float,0> > >::_Buy_raw
$LN3@Buy_nonzer:

; 1857 :     }

	add	rsp, 32					; 00000020H
	pop	rdi
	ret	0
?_Buy_nonzero@?$vector@U?$tquat@M$0A@@glm@@V?$allocator@U?$tquat@M$0A@@glm@@@std@@@std@@AEAAX_K@Z ENDP ; std::vector<glm::tquat<float,0>,std::allocator<glm::tquat<float,0> > >::_Buy_nonzero
_TEXT	ENDS
; Function compile flags: /Odtp /RTCsu
; File C:\Program Files\Microsoft Visual Studio\2022\Community\VC\Tools\MSVC\14.32.31326\include\vector
;	COMDAT ?_Buy_raw@?$vector@U?$tquat@M$0A@@glm@@V?$allocator@U?$tquat@M$0A@@glm@@@std@@@std@@AEAAX_K@Z
_TEXT	SEGMENT
_My_data$ = 32
_Myfirst$ = 40
_Mylast$ = 48
_Myend$ = 56
_Newvec$ = 64
this$ = 96
_Newcapacity$ = 104
?_Buy_raw@?$vector@U?$tquat@M$0A@@glm@@V?$allocator@U?$tquat@M$0A@@glm@@@std@@@std@@AEAAX_K@Z PROC ; std::vector<glm::tquat<float,0>,std::allocator<glm::tquat<float,0> > >::_Buy_raw, COMDAT

; 1825 :     _CONSTEXPR20 void _Buy_raw(const size_type _Newcapacity) {

$LN3:
	mov	QWORD PTR [rsp+16], rdx
	mov	QWORD PTR [rsp+8], rcx
	push	rdi
	sub	rsp, 80					; 00000050H

; 1826 :         // allocate array with _Newcapacity elements
; 1827 :         auto& _My_data    = _Mypair._Myval2;

	mov	rax, QWORD PTR this$[rsp]
	mov	QWORD PTR _My_data$[rsp], rax

; 1828 :         pointer& _Myfirst = _My_data._Myfirst;

	mov	rax, QWORD PTR _My_data$[rsp]
	add	rax, 8
	mov	QWORD PTR _Myfirst$[rsp], rax

; 1829 :         pointer& _Mylast  = _My_data._Mylast;

	mov	rax, QWORD PTR _My_data$[rsp]
	add	rax, 16
	mov	QWORD PTR _Mylast$[rsp], rax

; 1830 :         pointer& _Myend   = _My_data._Myend;

	mov	rax, QWORD PTR _My_data$[rsp]
	add	rax, 24
	mov	QWORD PTR _Myend$[rsp], rax

; 1831 : 
; 1832 :         _STL_INTERNAL_CHECK(!_Myfirst && !_Mylast && !_Myend); // check that *this is tidy
; 1833 :         _STL_INTERNAL_CHECK(0 < _Newcapacity && _Newcapacity <= max_size());
; 1834 : 
; 1835 :         const auto _Newvec = _Getal().allocate(_Newcapacity);

	mov	rcx, QWORD PTR this$[rsp]
	call	?_Getal@?$vector@U?$tquat@M$0A@@glm@@V?$allocator@U?$tquat@M$0A@@glm@@@std@@@std@@AEAAAEAV?$allocator@U?$tquat@M$0A@@glm@@@2@XZ ; std::vector<glm::tquat<float,0>,std::allocator<glm::tquat<float,0> > >::_Getal
	mov	rdx, QWORD PTR _Newcapacity$[rsp]
	mov	rcx, rax
	call	?allocate@?$allocator@U?$tquat@M$0A@@glm@@@std@@QEAAPEAU?$tquat@M$0A@@glm@@_K@Z ; std::allocator<glm::tquat<float,0> >::allocate
	mov	QWORD PTR _Newvec$[rsp], rax

; 1836 :         _Myfirst           = _Newvec;

	mov	rax, QWORD PTR _Myfirst$[rsp]
	mov	rcx, QWORD PTR _Newvec$[rsp]
	mov	QWORD PTR [rax], rcx

; 1837 :         _Mylast            = _Newvec;

	mov	rax, QWORD PTR _Mylast$[rsp]
	mov	rcx, QWORD PTR _Newvec$[rsp]
	mov	QWORD PTR [rax], rcx

; 1838 :         _Myend             = _Newvec + _Newcapacity;

	imul	rax, QWORD PTR _Newcapacity$[rsp], 16
	mov	rcx, QWORD PTR _Newvec$[rsp]
	add	rcx, rax
	mov	rax, rcx
	mov	rcx, QWORD PTR _Myend$[rsp]
	mov	QWORD PTR [rcx], rax

; 1839 :     }

	add	rsp, 80					; 00000050H
	pop	rdi
	ret	0
?_Buy_raw@?$vector@U?$tquat@M$0A@@glm@@V?$allocator@U?$tquat@M$0A@@glm@@@std@@@std@@AEAAX_K@Z ENDP ; std::vector<glm::tquat<float,0>,std::allocator<glm::tquat<float,0> > >::_Buy_raw
_TEXT	ENDS
; Function compile flags: /Odtp /RTCsu
; File C:\Program Files\Microsoft Visual Studio\2022\Community\VC\Tools\MSVC\14.32.31326\include\vector
;	COMDAT ?max_size@?$vector@U?$tquat@M$0A@@glm@@V?$allocator@U?$tquat@M$0A@@glm@@@std@@@std@@QEBA_KXZ
_TEXT	SEGMENT
$T1 = 32
$T2 = 40
this$ = 64
?max_size@?$vector@U?$tquat@M$0A@@glm@@V?$allocator@U?$tquat@M$0A@@glm@@@std@@@std@@QEBA_KXZ PROC ; std::vector<glm::tquat<float,0>,std::allocator<glm::tquat<float,0> > >::max_size, COMDAT

; 1718 :     _NODISCARD _CONSTEXPR20 size_type max_size() const noexcept {

$LN3:
	mov	QWORD PTR [rsp+8], rcx
	push	rdi
	sub	rsp, 48					; 00000030H

; 1719 :         return (_STD min)(

	mov	rcx, QWORD PTR this$[rsp]
	call	?_Getal@?$vector@U?$tquat@M$0A@@glm@@V?$allocator@U?$tquat@M$0A@@glm@@@std@@@std@@AEBAAEBV?$allocator@U?$tquat@M$0A@@glm@@@2@XZ ; std::vector<glm::tquat<float,0>,std::allocator<glm::tquat<float,0> > >::_Getal
	mov	rcx, rax
	call	?max_size@?$_Default_allocator_traits@V?$allocator@U?$tquat@M$0A@@glm@@@std@@@std@@SA_KAEBV?$allocator@U?$tquat@M$0A@@glm@@@2@@Z ; std::_Default_allocator_traits<std::allocator<glm::tquat<float,0> > >::max_size
	mov	QWORD PTR $T1[rsp], rax
	call	?max@?$numeric_limits@_J@std@@SA_JXZ	; std::numeric_limits<__int64>::max
	mov	QWORD PTR $T2[rsp], rax
	lea	rdx, QWORD PTR $T1[rsp]
	lea	rcx, QWORD PTR $T2[rsp]
	call	??$min@_K@std@@YAAEB_KAEB_K0@Z		; std::min<unsigned __int64>
	mov	rax, QWORD PTR [rax]

; 1720 :             static_cast<size_type>((numeric_limits<difference_type>::max)()), _Alty_traits::max_size(_Getal()));
; 1721 :     }

	add	rsp, 48					; 00000030H
	pop	rdi
	ret	0
?max_size@?$vector@U?$tquat@M$0A@@glm@@V?$allocator@U?$tquat@M$0A@@glm@@@std@@@std@@QEBA_KXZ ENDP ; std::vector<glm::tquat<float,0>,std::allocator<glm::tquat<float,0> > >::max_size
_TEXT	ENDS
; Function compile flags: /Odtp /RTCsu
; File C:\Program Files\Microsoft Visual Studio\2022\Community\VC\Tools\MSVC\14.32.31326\include\vector
;	COMDAT ??1?$vector@U?$tquat@M$0A@@glm@@V?$allocator@U?$tquat@M$0A@@glm@@@std@@@std@@QEAA@XZ
_TEXT	SEGMENT
_Alproxy$ = 32
$S1$ = 52
$T4 = 68
this$ = 96
??1?$vector@U?$tquat@M$0A@@glm@@V?$allocator@U?$tquat@M$0A@@glm@@@std@@@std@@QEAA@XZ PROC ; std::vector<glm::tquat<float,0>,std::allocator<glm::tquat<float,0> > >::~vector<glm::tquat<float,0>,std::allocator<glm::tquat<float,0> > >, COMDAT

; 790  :     _CONSTEXPR20 ~vector() noexcept {

$LN3:
	mov	QWORD PTR [rsp+8], rcx
	push	rdi
	sub	rsp, 80					; 00000050H
	lea	rdi, QWORD PTR [rsp+32]
	mov	ecx, 12
	mov	eax, -858993460				; ccccccccH
	rep stosd
	mov	rcx, QWORD PTR [rsp+96]

; 791  :         _Tidy();

	mov	rcx, QWORD PTR this$[rsp]
	call	?_Tidy@?$vector@U?$tquat@M$0A@@glm@@V?$allocator@U?$tquat@M$0A@@glm@@@std@@@std@@AEAAXXZ ; std::vector<glm::tquat<float,0>,std::allocator<glm::tquat<float,0> > >::_Tidy

; 792  : #if _ITERATOR_DEBUG_LEVEL != 0
; 793  :         auto&& _Alproxy = _GET_PROXY_ALLOCATOR(_Alty, _Getal());

	mov	rcx, QWORD PTR this$[rsp]
	call	?_Getal@?$vector@U?$tquat@M$0A@@glm@@V?$allocator@U?$tquat@M$0A@@glm@@@std@@@std@@AEAAAEAV?$allocator@U?$tquat@M$0A@@glm@@@2@XZ ; std::vector<glm::tquat<float,0>,std::allocator<glm::tquat<float,0> > >::_Getal
	mov	rdx, rax
	lea	rcx, QWORD PTR $S1$[rsp]
	call	??$?0U?$tquat@M$0A@@glm@@@?$allocator@U_Container_proxy@std@@@std@@QEAA@AEBV?$allocator@U?$tquat@M$0A@@glm@@@1@@Z ; std::allocator<std::_Container_proxy>::allocator<std::_Container_proxy><glm::tquat<float,0> >
	lea	rax, QWORD PTR $S1$[rsp]
	mov	QWORD PTR _Alproxy$[rsp], rax

; 794  :         _Delete_plain_internal(_Alproxy, _STD exchange(_Mypair._Myval2._Myproxy, nullptr));

	mov	QWORD PTR $T4[rsp], 0
	mov	rax, QWORD PTR this$[rsp]
	lea	rdx, QWORD PTR $T4[rsp]
	mov	rcx, rax
	call	??$exchange@PEAU_Container_proxy@std@@$$T@std@@YAPEAU_Container_proxy@0@AEAPEAU10@$$QEA$$T@Z ; std::exchange<std::_Container_proxy *,std::nullptr_t>
	mov	rdx, rax
	mov	rcx, QWORD PTR _Alproxy$[rsp]
	call	??$_Delete_plain_internal@V?$allocator@U_Container_proxy@std@@@std@@@std@@YAXAEAV?$allocator@U_Container_proxy@std@@@0@QEAU_Container_proxy@0@@Z ; std::_Delete_plain_internal<std::allocator<std::_Container_proxy> >

; 795  : #endif // _ITERATOR_DEBUG_LEVEL != 0
; 796  :     }

	mov	rcx, rsp
	lea	rdx, OFFSET FLAT:??1?$vector@U?$tquat@M$0A@@glm@@V?$allocator@U?$tquat@M$0A@@glm@@@std@@@std@@QEAA@XZ$rtcFrameData
	call	_RTC_CheckStackVars
	add	rsp, 80					; 00000050H
	pop	rdi
	ret	0
??1?$vector@U?$tquat@M$0A@@glm@@V?$allocator@U?$tquat@M$0A@@glm@@@std@@@std@@QEAA@XZ ENDP ; std::vector<glm::tquat<float,0>,std::allocator<glm::tquat<float,0> > >::~vector<glm::tquat<float,0>,std::allocator<glm::tquat<float,0> > >
_TEXT	ENDS
; Function compile flags: /Odtp /RTCsu
; File C:\Program Files\Microsoft Visual Studio\2022\Community\VC\Tools\MSVC\14.32.31326\include\vector
;	COMDAT ??0?$vector@U?$tquat@M$0A@@glm@@V?$allocator@U?$tquat@M$0A@@glm@@@std@@@std@@QEAA@V?$initializer_list@U?$tquat@M$0A@@glm@@@1@AEBV?$allocator@U?$tquat@M$0A@@glm@@@1@@Z
_TEXT	SEGMENT
$T1 = 32
$T2 = 40
$T3 = 48
this$ = 80
_Ilist$ = 88
_Al$ = 96
??0?$vector@U?$tquat@M$0A@@glm@@V?$allocator@U?$tquat@M$0A@@glm@@@std@@@std@@QEAA@V?$initializer_list@U?$tquat@M$0A@@glm@@@1@AEBV?$allocator@U?$tquat@M$0A@@glm@@@1@@Z PROC ; std::vector<glm::tquat<float,0>,std::allocator<glm::tquat<float,0> > >::vector<glm::tquat<float,0>,std::allocator<glm::tquat<float,0> > >, COMDAT

; 702  :         : _Mypair(_One_then_variadic_args_t{}, _Al) {

$LN3:
	mov	QWORD PTR [rsp+24], r8
	mov	QWORD PTR [rsp+16], rdx
	mov	QWORD PTR [rsp+8], rcx
	push	rdi
	sub	rsp, 64					; 00000040H
	mov	rax, QWORD PTR this$[rsp]
	mov	r8, QWORD PTR _Al$[rsp]
	movzx	edx, BYTE PTR $T1[rsp]
	mov	rcx, rax
	call	??$?0AEBV?$allocator@U?$tquat@M$0A@@glm@@@std@@$$V@?$_Compressed_pair@V?$allocator@U?$tquat@M$0A@@glm@@@std@@V?$_Vector_val@U?$_Simple_types@U?$tquat@M$0A@@glm@@@std@@@2@$00@std@@QEAA@U_One_then_variadic_args_t@1@AEBV?$allocator@U?$tquat@M$0A@@glm@@@1@@Z ; std::_Compressed_pair<std::allocator<glm::tquat<float,0> >,std::_Vector_val<std::_Simple_types<glm::tquat<float,0> > >,1>::_Compressed_pair<std::allocator<glm::tquat<float,0> >,std::_Vector_val<std::_Simple_types<glm::tquat<float,0> > >,1><std::allocator<glm::tquat<float,0> > const &>

; 703  :         _Construct_n(_Convert_size<size_type>(_Ilist.size()), _Ilist.begin(), _Ilist.end());

	mov	rcx, QWORD PTR _Ilist$[rsp]
	call	?end@?$initializer_list@U?$tquat@M$0A@@glm@@@std@@QEBAPEBU?$tquat@M$0A@@glm@@XZ ; std::initializer_list<glm::tquat<float,0> >::end
	mov	QWORD PTR $T2[rsp], rax
	mov	rcx, QWORD PTR _Ilist$[rsp]
	call	?begin@?$initializer_list@U?$tquat@M$0A@@glm@@@std@@QEBAPEBU?$tquat@M$0A@@glm@@XZ ; std::initializer_list<glm::tquat<float,0> >::begin
	mov	QWORD PTR $T3[rsp], rax
	mov	rcx, QWORD PTR _Ilist$[rsp]
	call	?size@?$initializer_list@U?$tquat@M$0A@@glm@@@std@@QEBA_KXZ ; std::initializer_list<glm::tquat<float,0> >::size
	mov	rcx, rax
	call	??$_Convert_size@_K@std@@YA_K_K@Z	; std::_Convert_size<unsigned __int64>
	lea	r9, QWORD PTR $T2[rsp]
	lea	r8, QWORD PTR $T3[rsp]
	mov	rdx, rax
	mov	rcx, QWORD PTR this$[rsp]
	call	??$_Construct_n@PEBU?$tquat@M$0A@@glm@@PEBU12@@?$vector@U?$tquat@M$0A@@glm@@V?$allocator@U?$tquat@M$0A@@glm@@@std@@@std@@AEAAX_K$$QEAPEBU?$tquat@M$0A@@glm@@1@Z ; std::vector<glm::tquat<float,0>,std::allocator<glm::tquat<float,0> > >::_Construct_n<glm::tquat<float,0> const *,glm::tquat<float,0> const *>

; 704  :     }

	mov	rax, QWORD PTR this$[rsp]
	add	rsp, 64					; 00000040H
	pop	rdi
	ret	0
??0?$vector@U?$tquat@M$0A@@glm@@V?$allocator@U?$tquat@M$0A@@glm@@@std@@@std@@QEAA@V?$initializer_list@U?$tquat@M$0A@@glm@@@1@AEBV?$allocator@U?$tquat@M$0A@@glm@@@1@@Z ENDP ; std::vector<glm::tquat<float,0>,std::allocator<glm::tquat<float,0> > >::vector<glm::tquat<float,0>,std::allocator<glm::tquat<float,0> > >
_TEXT	ENDS
; Function compile flags: /Odtp /RTCsu
; File C:\Program Files\Microsoft Visual Studio\2022\Community\VC\Tools\MSVC\14.32.31326\include\xmemory
;	COMDAT ?max_size@?$_Default_allocator_traits@V?$allocator@U?$tquat@M$0A@@glm@@@std@@@std@@SA_KAEBV?$allocator@U?$tquat@M$0A@@glm@@@2@@Z
_TEXT	SEGMENT
__formal$ = 16
?max_size@?$_Default_allocator_traits@V?$allocator@U?$tquat@M$0A@@glm@@@std@@@std@@SA_KAEBV?$allocator@U?$tquat@M$0A@@glm@@@2@@Z PROC ; std::_Default_allocator_traits<std::allocator<glm::tquat<float,0> > >::max_size, COMDAT

; 693  :     _NODISCARD static _CONSTEXPR20 size_type max_size(const _Alloc&) noexcept {

$LN3:
	mov	QWORD PTR [rsp+8], rcx
	push	rdi

; 694  :         return static_cast<size_t>(-1) / sizeof(value_type);

	mov	rax, 1152921504606846975		; 0fffffffffffffffH

; 695  :     }

	pop	rdi
	ret	0
?max_size@?$_Default_allocator_traits@V?$allocator@U?$tquat@M$0A@@glm@@@std@@@std@@SA_KAEBV?$allocator@U?$tquat@M$0A@@glm@@@2@@Z ENDP ; std::_Default_allocator_traits<std::allocator<glm::tquat<float,0> > >::max_size
_TEXT	ENDS
; Function compile flags: /Odtp /RTCsu
; File C:\Program Files\Microsoft Visual Studio\2022\Community\VC\Tools\MSVC\14.32.31326\include\xmemory
;	COMDAT ?allocate@?$allocator@U?$tquat@M$0A@@glm@@@std@@QEAAPEAU?$tquat@M$0A@@glm@@_K@Z
_TEXT	SEGMENT
this$ = 48
_Count$ = 56
?allocate@?$allocator@U?$tquat@M$0A@@glm@@@std@@QEAAPEAU?$tquat@M$0A@@glm@@_K@Z PROC ; std::allocator<glm::tquat<float,0> >::allocate, COMDAT

; 833  :     _NODISCARD _CONSTEXPR20 __declspec(allocator) _Ty* allocate(_CRT_GUARDOVERFLOW const size_t _Count) {

$LN3:
	mov	QWORD PTR [rsp+16], rdx
	mov	QWORD PTR [rsp+8], rcx
	push	rdi
	sub	rsp, 32					; 00000020H

; 834  :         return static_cast<_Ty*>(_Allocate<_New_alignof<_Ty>>(_Get_size_of_n<sizeof(_Ty)>(_Count)));

	mov	rcx, QWORD PTR _Count$[rsp]
	call	??$_Get_size_of_n@$0BA@@std@@YA_K_K@Z	; std::_Get_size_of_n<16>
	mov	rcx, rax
	call	??$_Allocate@$0BA@U_Default_allocate_traits@std@@$0A@@std@@YAPEAX_K@Z ; std::_Allocate<16,std::_Default_allocate_traits,0>

; 835  :     }

	add	rsp, 32					; 00000020H
	pop	rdi
	ret	0
?allocate@?$allocator@U?$tquat@M$0A@@glm@@@std@@QEAAPEAU?$tquat@M$0A@@glm@@_K@Z ENDP ; std::allocator<glm::tquat<float,0> >::allocate
_TEXT	ENDS
; Function compile flags: /Odtp /RTCsu
; File C:\Program Files\Microsoft Visual Studio\2022\Community\VC\Tools\MSVC\14.32.31326\include\xmemory
;	COMDAT ?deallocate@?$allocator@U?$tquat@M$0A@@glm@@@std@@QEAAXQEAU?$tquat@M$0A@@glm@@_K@Z
_TEXT	SEGMENT
this$ = 64
_Ptr$ = 72
_Count$ = 80
?deallocate@?$allocator@U?$tquat@M$0A@@glm@@@std@@QEAAXQEAU?$tquat@M$0A@@glm@@_K@Z PROC ; std::allocator<glm::tquat<float,0> >::deallocate, COMDAT

; 827  :     _CONSTEXPR20 void deallocate(_Ty* const _Ptr, const size_t _Count) {

$LN13:
	mov	QWORD PTR [rsp+24], r8
	mov	QWORD PTR [rsp+16], rdx
	mov	QWORD PTR [rsp+8], rcx
	push	rdi
	sub	rsp, 48					; 00000030H
$LN4@deallocate:

; 828  :         _STL_ASSERT(_Ptr != nullptr || _Count == 0, "null pointer cannot point to a block of non-zero size");

	cmp	QWORD PTR _Ptr$[rsp], 0
	jne	SHORT $LN10@deallocate
	cmp	QWORD PTR _Count$[rsp], 0
	jne	SHORT $LN8@deallocate
$LN10@deallocate:
	jmp	SHORT $LN9@deallocate
$LN8@deallocate:
$LN7@deallocate:
	lea	rax, OFFSET FLAT:??_C@_0DG@KGHKKGBC@null?5pointer?5cannot?5point?5to?5a?5@
	mov	QWORD PTR [rsp+40], rax
	lea	rax, OFFSET FLAT:??_C@_02DKCKIIND@?$CFs@
	mov	QWORD PTR [rsp+32], rax
	xor	r9d, r9d
	mov	r8d, 828				; 0000033cH
	lea	rdx, OFFSET FLAT:??_C@_0GC@DJFHHHKN@C?3?2Program?5Files?2Microsoft?5Visu@
	mov	ecx, 2
	call	QWORD PTR __imp__CrtDbgReport
	cmp	eax, 1
	jne	SHORT $LN12@deallocate
	int	3
	xor	eax, eax
$LN12@deallocate:
	mov	QWORD PTR [rsp+32], 0
	mov	r9d, 828				; 0000033cH
	lea	r8, OFFSET FLAT:??_C@_1ME@GEFGDEOM@?$AAC?$AA?3?$AA?2?$AAP?$AAr?$AAo?$AAg?$AAr?$AAa?$AAm?$AA?5?$AAF?$AAi?$AAl?$AAe@
	lea	rdx, OFFSET FLAT:??_C@_11LOCGONAA@@
	lea	rcx, OFFSET FLAT:??_C@_1HA@FACCKGGH@?$AA?$CC?$AAn?$AAu?$AAl?$AAl?$AA?5?$AAp?$AAo?$AAi?$AAn?$AAt?$AAe?$AAr?$AA?5?$AAc@
	call	QWORD PTR __imp__invalid_parameter
	xor	eax, eax
	test	eax, eax
	jne	SHORT $LN7@deallocate
$LN9@deallocate:
	xor	eax, eax
	test	eax, eax
	jne	$LN4@deallocate

; 829  :         // no overflow check on the following multiply; we assume _Allocate did that check
; 830  :         _Deallocate<_New_alignof<_Ty>>(_Ptr, sizeof(_Ty) * _Count);

	imul	rax, QWORD PTR _Count$[rsp], 16
	mov	rdx, rax
	mov	rcx, QWORD PTR _Ptr$[rsp]
	call	??$_Deallocate@$0BA@$0A@@std@@YAXPEAX_K@Z ; std::_Deallocate<16,0>

; 831  :     }

	add	rsp, 48					; 00000030H
	pop	rdi
	ret	0
?deallocate@?$allocator@U?$tquat@M$0A@@glm@@@std@@QEAAXQEAU?$tquat@M$0A@@glm@@_K@Z ENDP ; std::allocator<glm::tquat<float,0> >::deallocate
_TEXT	ENDS
; Function compile flags: /Odtp /RTCsu
; File C:\Program Files\Microsoft Visual Studio\2022\Community\VC\Tools\MSVC\14.32.31326\include\xmemory
;	COMDAT ??0?$allocator@U?$tquat@M$0A@@glm@@@std@@QEAA@XZ
_TEXT	SEGMENT
this$ = 16
??0?$allocator@U?$tquat@M$0A@@glm@@@std@@QEAA@XZ PROC	; std::allocator<glm::tquat<float,0> >::allocator<glm::tquat<float,0> >, COMDAT

; 819  :     constexpr allocator() noexcept {}

$LN3:
	mov	QWORD PTR [rsp+8], rcx
	push	rdi
	mov	rax, QWORD PTR this$[rsp]
	pop	rdi
	ret	0
??0?$allocator@U?$tquat@M$0A@@glm@@@std@@QEAA@XZ ENDP	; std::allocator<glm::tquat<float,0> >::allocator<glm::tquat<float,0> >
_TEXT	ENDS
; Function compile flags: /Odtp /RTCsu
; File C:\Users\ksart\OneDrive\Desktop\FlappyBird\libraries\external\glm\test\gtc\gtc_quaternion.cpp
_TEXT	SEGMENT
Error$ = 48
A$5 = 72
B$6 = 120
$T7 = 168
$T8 = 208
$T9 = 212
$T10 = 216
$T11 = 220
$T12 = 224
$T13 = 228
$T14 = 232
$T15 = 236
$T16 = 240
$T17 = 244
$T18 = 248
$T19 = 252
$T20 = 256
$T21 = 264
$T22 = 288
tv72 = 304
?test_quat_ctr@@YAHXZ PROC				; test_quat_ctr

; 266  : {

$LN4:
	push	rsi
	push	rdi
	sub	rsp, 328				; 00000148H
	lea	rdi, QWORD PTR [rsp+48]
	mov	ecx, 70					; 00000046H
	mov	eax, -858993460				; ccccccccH
	rep stosd

; 267  : 	int Error(0);

	mov	DWORD PTR Error$[rsp], 0

; 268  : 
; 269  : #	if GLM_HAS_TRIVIAL_QUERIES
; 270  : 	//	Error += std::is_trivially_default_constructible<glm::quat>::value ? 0 : 1;
; 271  : 	//	Error += std::is_trivially_default_constructible<glm::dquat>::value ? 0 : 1;
; 272  : 	//	Error += std::is_trivially_copy_assignable<glm::quat>::value ? 0 : 1;
; 273  : 	//	Error += std::is_trivially_copy_assignable<glm::dquat>::value ? 0 : 1;
; 274  : 		Error += std::is_trivially_copyable<glm::quat>::value ? 0 : 1;
; 275  : 		Error += std::is_trivially_copyable<glm::dquat>::value ? 0 : 1;
; 276  : 
; 277  : 		Error += std::is_copy_constructible<glm::quat>::value ? 0 : 1;
; 278  : 		Error += std::is_copy_constructible<glm::dquat>::value ? 0 : 1;
; 279  : #	endif
; 280  : 
; 281  : #	if GLM_HAS_INITIALIZER_LISTS
; 282  : 	{
; 283  : 		glm::quat A{0, 1, 2, 3};

	xorps	xmm0, xmm0
	movss	DWORD PTR $T11[rsp], xmm0
	movss	xmm0, DWORD PTR __real@3f800000
	movss	DWORD PTR $T10[rsp], xmm0
	movss	xmm0, DWORD PTR __real@40000000
	movss	DWORD PTR $T9[rsp], xmm0
	movss	xmm0, DWORD PTR __real@40400000
	movss	DWORD PTR $T8[rsp], xmm0
	lea	rax, QWORD PTR $T8[rsp]
	mov	QWORD PTR [rsp+32], rax
	lea	r9, QWORD PTR $T9[rsp]
	lea	r8, QWORD PTR $T10[rsp]
	lea	rdx, QWORD PTR $T11[rsp]
	lea	rcx, QWORD PTR A$5[rsp]
	call	??0?$tquat@M$0A@@glm@@QEAA@AEBM000@Z	; glm::tquat<float,0>::tquat<float,0>

; 284  : 
; 285  : 		std::vector<glm::quat> B{

	xorps	xmm0, xmm0
	movss	DWORD PTR $T16[rsp], xmm0
	movss	xmm0, DWORD PTR __real@3f800000
	movss	DWORD PTR $T15[rsp], xmm0
	movss	xmm0, DWORD PTR __real@40000000
	movss	DWORD PTR $T14[rsp], xmm0
	movss	xmm0, DWORD PTR __real@40400000
	movss	DWORD PTR $T13[rsp], xmm0
	lea	rax, QWORD PTR $T13[rsp]
	mov	QWORD PTR [rsp+32], rax
	lea	r9, QWORD PTR $T14[rsp]
	lea	r8, QWORD PTR $T15[rsp]
	lea	rdx, QWORD PTR $T16[rsp]
	lea	rcx, QWORD PTR $T7[rsp]
	call	??0?$tquat@M$0A@@glm@@QEAA@AEBM000@Z	; glm::tquat<float,0>::tquat<float,0>
	xorps	xmm0, xmm0
	movss	DWORD PTR $T20[rsp], xmm0
	movss	xmm0, DWORD PTR __real@3f800000
	movss	DWORD PTR $T19[rsp], xmm0
	movss	xmm0, DWORD PTR __real@40000000
	movss	DWORD PTR $T18[rsp], xmm0
	movss	xmm0, DWORD PTR __real@40400000
	movss	DWORD PTR $T17[rsp], xmm0
	lea	rax, QWORD PTR $T17[rsp]
	mov	QWORD PTR [rsp+32], rax
	lea	r9, QWORD PTR $T18[rsp]
	lea	r8, QWORD PTR $T19[rsp]
	lea	rdx, QWORD PTR $T20[rsp]
	lea	rcx, QWORD PTR $T7[rsp+16]
	call	??0?$tquat@M$0A@@glm@@QEAA@AEBM000@Z	; glm::tquat<float,0>::tquat<float,0>
	lea	rcx, QWORD PTR $T12[rsp]
	call	??0?$allocator@U?$tquat@M$0A@@glm@@@std@@QEAA@XZ ; std::allocator<glm::tquat<float,0> >::allocator<glm::tquat<float,0> >
	mov	QWORD PTR tv72[rsp], rax
	lea	rcx, QWORD PTR $T7[rsp+32]
	mov	r8, rcx
	lea	rdx, QWORD PTR $T7[rsp]
	lea	rcx, QWORD PTR $T21[rsp]
	call	??0?$initializer_list@U?$tquat@M$0A@@glm@@@std@@QEAA@PEBU?$tquat@M$0A@@glm@@0@Z ; std::initializer_list<glm::tquat<float,0> >::initializer_list<glm::tquat<float,0> >
	lea	rcx, QWORD PTR $T22[rsp]
	mov	rdi, rcx
	mov	rsi, rax
	mov	ecx, 16
	rep movsb
	mov	rax, QWORD PTR tv72[rsp]
	mov	r8, rax
	lea	rdx, QWORD PTR $T22[rsp]
	lea	rcx, QWORD PTR B$6[rsp]
	call	??0?$vector@U?$tquat@M$0A@@glm@@V?$allocator@U?$tquat@M$0A@@glm@@@std@@@std@@QEAA@V?$initializer_list@U?$tquat@M$0A@@glm@@@1@AEBV?$allocator@U?$tquat@M$0A@@glm@@@1@@Z ; std::vector<glm::tquat<float,0>,std::allocator<glm::tquat<float,0> > >::vector<glm::tquat<float,0>,std::allocator<glm::tquat<float,0> > >

; 286  : 			{0, 1, 2, 3},
; 287  : 			{0, 1, 2, 3}};
; 288  : 	}

	lea	rcx, QWORD PTR B$6[rsp]
	call	??1?$vector@U?$tquat@M$0A@@glm@@V?$allocator@U?$tquat@M$0A@@glm@@@std@@@std@@QEAA@XZ ; std::vector<glm::tquat<float,0>,std::allocator<glm::tquat<float,0> > >::~vector<glm::tquat<float,0>,std::allocator<glm::tquat<float,0> > >

; 289  : #	endif//GLM_HAS_INITIALIZER_LISTS
; 290  : 
; 291  : 	return Error;

	mov	eax, DWORD PTR Error$[rsp]

; 292  : }

	mov	edi, eax
	mov	rcx, rsp
	lea	rdx, OFFSET FLAT:?test_quat_ctr@@YAHXZ$rtcFrameData
	call	_RTC_CheckStackVars
	mov	eax, edi
	add	rsp, 328				; 00000148H
	pop	rdi
	pop	rsi
	ret	0
?test_quat_ctr@@YAHXZ ENDP				; test_quat_ctr
_TEXT	ENDS
; Function compile flags: /Odtp /RTCsu
; File C:\Users\ksart\OneDrive\Desktop\FlappyBird\libraries\external\glm\test\gtc\gtc_quaternion.cpp
_TEXT	SEGMENT
Error$ = 32
q$ = 56
v$ = 104
u$ = 152
w$ = 200
$T7 = 228
$T8 = 240
$T9 = 244
$T10 = 248
tv93 = 252
?test_quat_mul_vec@@YAHXZ PROC				; test_quat_mul_vec

; 252  : {

$LN5:
	push	rdi
	sub	rsp, 256				; 00000100H
	lea	rdi, QWORD PTR [rsp+32]
	mov	ecx, 56					; 00000038H
	mov	eax, -858993460				; ccccccccH
	rep stosd

; 253  : 	int Error(0);

	mov	DWORD PTR Error$[rsp], 0

; 254  : 
; 255  : 	glm::quat q = glm::angleAxis(glm::pi<float>() * 0.5f, glm::vec3(0, 0, 1));

	call	??$pi@M@glm@@YAMXZ			; glm::pi<float>
	mulss	xmm0, DWORD PTR __real@3f000000
	movss	DWORD PTR $T8[rsp], xmm0
	mov	r9d, 1
	xor	r8d, r8d
	xor	edx, edx
	lea	rcx, QWORD PTR $T7[rsp]
	call	??$?0HHH@?$tvec3@M$0A@@glm@@QEAA@HHH@Z	; glm::tvec3<float,0>::tvec3<float,0><int,int,int>
	mov	r8, rax
	lea	rdx, QWORD PTR $T8[rsp]
	lea	rcx, QWORD PTR q$[rsp]
	call	??$angleAxis@M$0A@@glm@@YA?AU?$tquat@M$0A@@0@AEBMAEBU?$tvec3@M$0A@@0@@Z ; glm::angleAxis<float,0>

; 256  : 	glm::vec3 v(1, 0, 0);

	xor	r9d, r9d
	xor	r8d, r8d
	mov	edx, 1
	lea	rcx, QWORD PTR v$[rsp]
	call	??$?0HHH@?$tvec3@M$0A@@glm@@QEAA@HHH@Z	; glm::tvec3<float,0>::tvec3<float,0><int,int,int>

; 257  : 	glm::vec3 u(q * v);

	lea	r8, QWORD PTR v$[rsp]
	lea	rdx, QWORD PTR q$[rsp]
	lea	rcx, QWORD PTR u$[rsp]
	call	??$?DM$0A@@glm@@YA?AU?$tvec3@M$0A@@0@AEBU?$tquat@M$0A@@0@AEBU10@@Z ; glm::operator*<float,0>

; 258  : 	glm::vec3 w(u * q);

	lea	r8, QWORD PTR q$[rsp]
	lea	rdx, QWORD PTR u$[rsp]
	lea	rcx, QWORD PTR w$[rsp]
	call	??$?DM$0A@@glm@@YA?AU?$tvec3@M$0A@@0@AEBU10@AEBU?$tquat@M$0A@@0@@Z ; glm::operator*<float,0>

; 259  : 
; 260  : 	Error += glm::all(glm::epsilonEqual(v, w, 0.01f)) ? 0 : 1;

	movss	xmm0, DWORD PTR __real@3c23d70a
	movss	DWORD PTR $T9[rsp], xmm0
	lea	r9, QWORD PTR $T9[rsp]
	lea	r8, QWORD PTR w$[rsp]
	lea	rdx, QWORD PTR v$[rsp]
	lea	rcx, QWORD PTR $T10[rsp]
	call	??$epsilonEqual@M$0A@Utvec3@glm@@@glm@@YA?AU?$tvec3@_N$0A@@0@AEBU?$tvec3@M$0A@@0@0AEBM@Z ; glm::epsilonEqual<float,0,glm::tvec3>
	mov	rcx, rax
	call	??$all@$0A@Utvec3@glm@@@glm@@YA_NAEBU?$tvec3@_N$0A@@0@@Z ; glm::all<0,glm::tvec3>
	movzx	eax, al
	test	eax, eax
	je	SHORT $LN3@test_quat_
	mov	DWORD PTR tv93[rsp], 0
	jmp	SHORT $LN4@test_quat_
$LN3@test_quat_:
	mov	DWORD PTR tv93[rsp], 1
$LN4@test_quat_:
	mov	eax, DWORD PTR tv93[rsp]
	mov	ecx, DWORD PTR Error$[rsp]
	add	ecx, eax
	mov	eax, ecx
	mov	DWORD PTR Error$[rsp], eax

; 261  : 
; 262  : 	return Error;

	mov	eax, DWORD PTR Error$[rsp]

; 263  : }

	mov	edi, eax
	mov	rcx, rsp
	lea	rdx, OFFSET FLAT:?test_quat_mul_vec@@YAHXZ$rtcFrameData
	call	_RTC_CheckStackVars
	mov	eax, edi
	add	rsp, 256				; 00000100H
	pop	rdi
	ret	0
?test_quat_mul_vec@@YAHXZ ENDP				; test_quat_mul_vec
_TEXT	ENDS
; Function compile flags: /Odtp /RTCsu
; File C:\Users\ksart\OneDrive\Desktop\FlappyBird\libraries\external\glm\test\gtc\gtc_quaternion.cpp
_TEXT	SEGMENT
A$ = 40
B$ = 88
?test_quat_type@@YAHXZ PROC				; test_quat_type

; 244  : {

$LN3:
	push	rdi
	sub	rsp, 144				; 00000090H
	lea	rdi, QWORD PTR [rsp+32]
	mov	ecx, 28
	mov	eax, -858993460				; ccccccccH
	rep stosd

; 245  : 	glm::quat A;

	lea	rcx, QWORD PTR A$[rsp]
	call	??0?$tquat@M$0A@@glm@@QEAA@XZ		; glm::tquat<float,0>::tquat<float,0>

; 246  : 	glm::dquat B;

	lea	rcx, QWORD PTR B$[rsp]
	call	??0?$tquat@N$0A@@glm@@QEAA@XZ		; glm::tquat<double,0>::tquat<double,0>

; 247  : 
; 248  : 	return 0;

	xor	eax, eax

; 249  : }

	mov	edi, eax
	mov	rcx, rsp
	lea	rdx, OFFSET FLAT:?test_quat_type@@YAHXZ$rtcFrameData
	call	_RTC_CheckStackVars
	mov	eax, edi
	add	rsp, 144				; 00000090H
	pop	rdi
	ret	0
?test_quat_type@@YAHXZ ENDP				; test_quat_type
_TEXT	ENDS
; Function compile flags: /Odtp /RTCsu
; File C:\Users\ksart\OneDrive\Desktop\FlappyBird\libraries\external\glm\glm\detail\func_vector_relational.inl
;	COMDAT ??$all@$0A@Utvec3@glm@@@glm@@YA_NAEBU?$tvec3@_N$0A@@0@@Z
_TEXT	SEGMENT
Result$ = 32
i$1 = 36
tv74 = 40
v$ = 64
??$all@$0A@Utvec3@glm@@@glm@@YA_NAEBU?$tvec3@_N$0A@@0@@Z PROC ; glm::all<0,glm::tvec3>, COMDAT

; 86   : 	{

$LN8:
	mov	QWORD PTR [rsp+8], rcx
	push	rdi
	sub	rsp, 48					; 00000030H

; 87   : 		bool Result = true;

	mov	BYTE PTR Result$[rsp], 1

; 88   : 		for(length_t i = 0; i < v.length(); ++i)

	mov	DWORD PTR i$1[rsp], 0
	jmp	SHORT $LN4@all
$LN2@all:
	mov	eax, DWORD PTR i$1[rsp]
	inc	eax
	mov	DWORD PTR i$1[rsp], eax
$LN4@all:
	call	?length@?$tvec3@_N$0A@@glm@@SAHXZ	; glm::tvec3<bool,0>::length
	cmp	DWORD PTR i$1[rsp], eax
	jge	SHORT $LN3@all

; 89   : 			Result = Result && v[i];

	movzx	eax, BYTE PTR Result$[rsp]
	test	eax, eax
	je	SHORT $LN6@all
	mov	edx, DWORD PTR i$1[rsp]
	mov	rcx, QWORD PTR v$[rsp]
	call	??A?$tvec3@_N$0A@@glm@@QEBAAEB_NH@Z	; glm::tvec3<bool,0>::operator[]
	movzx	eax, BYTE PTR [rax]
	test	eax, eax
	je	SHORT $LN6@all
	mov	DWORD PTR tv74[rsp], 1
	jmp	SHORT $LN7@all
$LN6@all:
	mov	DWORD PTR tv74[rsp], 0
$LN7@all:
	movzx	eax, BYTE PTR tv74[rsp]
	mov	BYTE PTR Result$[rsp], al
	jmp	SHORT $LN2@all
$LN3@all:

; 90   : 		return Result;

	movzx	eax, BYTE PTR Result$[rsp]

; 91   : 	}

	add	rsp, 48					; 00000030H
	pop	rdi
	ret	0
??$all@$0A@Utvec3@glm@@@glm@@YA_NAEBU?$tvec3@_N$0A@@0@@Z ENDP ; glm::all<0,glm::tvec3>
_TEXT	ENDS
; Function compile flags: /Odtp /RTCsu
; File C:\Users\ksart\OneDrive\Desktop\FlappyBird\libraries\external\glm\glm\detail\type_vec3.inl
;	COMDAT ??0?$tvec3@_N$0A@@glm@@QEAA@W4ctor@1@@Z
_TEXT	SEGMENT
this$ = 16
__formal$ = 24
??0?$tvec3@_N$0A@@glm@@QEAA@W4ctor@1@@Z PROC		; glm::tvec3<bool,0>::tvec3<bool,0>, COMDAT

; 60   : 	{}

$LN3:
	mov	DWORD PTR [rsp+16], edx
	mov	QWORD PTR [rsp+8], rcx
	push	rdi
	mov	rax, QWORD PTR this$[rsp]
	pop	rdi
	ret	0
??0?$tvec3@_N$0A@@glm@@QEAA@W4ctor@1@@Z ENDP		; glm::tvec3<bool,0>::tvec3<bool,0>
_TEXT	ENDS
; Function compile flags: /Odtp /RTCsu
; File C:\Users\ksart\OneDrive\Desktop\FlappyBird\libraries\external\glm\glm\detail\type_vec3.inl
;	COMDAT ??A?$tvec3@_N$0A@@glm@@QEBAAEB_NH@Z
_TEXT	SEGMENT
this$ = 48
i$ = 56
??A?$tvec3@_N$0A@@glm@@QEBAAEB_NH@Z PROC		; glm::tvec3<bool,0>::operator[], COMDAT

; 151  : 	{

$LN5:
	mov	DWORD PTR [rsp+16], edx
	mov	QWORD PTR [rsp+8], rcx
	push	rdi
	sub	rsp, 32					; 00000020H

; 152  : 		assert(i >= 0 && i < this->length());

	cmp	DWORD PTR i$[rsp], 0
	jl	SHORT $LN3@operator
	call	?length@?$tvec3@_N$0A@@glm@@SAHXZ	; glm::tvec3<bool,0>::length
	cmp	DWORD PTR i$[rsp], eax
	jl	SHORT $LN4@operator
$LN3@operator:
	mov	r8d, 152				; 00000098H
	lea	rdx, OFFSET FLAT:??_C@_1LG@MEJFBKPC@?$AAC?$AA?3?$AA?2?$AAU?$AAs?$AAe?$AAr?$AAs?$AA?2?$AAk?$AAs?$AAa?$AAr?$AAt?$AA?2@
	lea	rcx, OFFSET FLAT:??_C@_1DK@BGNCJAPL@?$AAi?$AA?5?$AA?$DO?$AA?$DN?$AA?5?$AA0?$AA?5?$AA?$CG?$AA?$CG?$AA?5?$AAi?$AA?5?$AA?$DM?$AA?5?$AAt@
	call	QWORD PTR __imp__wassert
	xor	eax, eax
$LN4@operator:

; 153  : 		return (&x)[i];

	movsxd	rax, DWORD PTR i$[rsp]
	mov	rcx, QWORD PTR this$[rsp]
	add	rcx, rax
	mov	rax, rcx

; 154  : 	}

	add	rsp, 32					; 00000020H
	pop	rdi
	ret	0
??A?$tvec3@_N$0A@@glm@@QEBAAEB_NH@Z ENDP		; glm::tvec3<bool,0>::operator[]
_TEXT	ENDS
; Function compile flags: /Odtp /RTCsu
; File C:\Users\ksart\OneDrive\Desktop\FlappyBird\libraries\external\glm\glm\detail\type_vec3.inl
;	COMDAT ??A?$tvec3@_N$0A@@glm@@QEAAAEA_NH@Z
_TEXT	SEGMENT
this$ = 48
i$ = 56
??A?$tvec3@_N$0A@@glm@@QEAAAEA_NH@Z PROC		; glm::tvec3<bool,0>::operator[], COMDAT

; 144  : 	{

$LN5:
	mov	DWORD PTR [rsp+16], edx
	mov	QWORD PTR [rsp+8], rcx
	push	rdi
	sub	rsp, 32					; 00000020H

; 145  : 		assert(i >= 0 && i < this->length());

	cmp	DWORD PTR i$[rsp], 0
	jl	SHORT $LN3@operator
	call	?length@?$tvec3@_N$0A@@glm@@SAHXZ	; glm::tvec3<bool,0>::length
	cmp	DWORD PTR i$[rsp], eax
	jl	SHORT $LN4@operator
$LN3@operator:
	mov	r8d, 145				; 00000091H
	lea	rdx, OFFSET FLAT:??_C@_1LG@MEJFBKPC@?$AAC?$AA?3?$AA?2?$AAU?$AAs?$AAe?$AAr?$AAs?$AA?2?$AAk?$AAs?$AAa?$AAr?$AAt?$AA?2@
	lea	rcx, OFFSET FLAT:??_C@_1DK@BGNCJAPL@?$AAi?$AA?5?$AA?$DO?$AA?$DN?$AA?5?$AA0?$AA?5?$AA?$CG?$AA?$CG?$AA?5?$AAi?$AA?5?$AA?$DM?$AA?5?$AAt@
	call	QWORD PTR __imp__wassert
	xor	eax, eax
$LN4@operator:

; 146  : 		return (&x)[i];

	movsxd	rax, DWORD PTR i$[rsp]
	mov	rcx, QWORD PTR this$[rsp]
	add	rcx, rax
	mov	rax, rcx

; 147  : 	}

	add	rsp, 32					; 00000020H
	pop	rdi
	ret	0
??A?$tvec3@_N$0A@@glm@@QEAAAEA_NH@Z ENDP		; glm::tvec3<bool,0>::operator[]
_TEXT	ENDS
; Function compile flags: /Odtp /RTCsu
; File C:\Users\ksart\OneDrive\Desktop\FlappyBird\libraries\external\glm\glm\detail\type_vec3.hpp
;	COMDAT ?length@?$tvec3@_N$0A@@glm@@SAHXZ
_TEXT	SEGMENT
?length@?$tvec3@_N$0A@@glm@@SAHXZ PROC			; glm::tvec3<bool,0>::length, COMDAT

; 82   : 		GLM_FUNC_DECL static length_type length(){return 3;}

$LN3:
	push	rdi
	mov	eax, 3
	pop	rdi
	ret	0
?length@?$tvec3@_N$0A@@glm@@SAHXZ ENDP			; glm::tvec3<bool,0>::length
_TEXT	ENDS
; Function compile flags: /Odtp /RTCsu
; File C:\Users\ksart\OneDrive\Desktop\FlappyBird\libraries\external\glm\glm\gtc\epsilon.inl
;	COMDAT ??$epsilonEqual@M$0A@Utvec3@glm@@@glm@@YA?AU?$tvec3@_N$0A@@0@AEBU?$tvec3@M$0A@@0@0AEBM@Z
_TEXT	SEGMENT
$T1 = 32
$T2 = 44
$T3 = 56
tv66 = 72
__$ReturnUdt$ = 96
x$ = 104
y$ = 112
epsilon$ = 120
??$epsilonEqual@M$0A@Utvec3@glm@@@glm@@YA?AU?$tvec3@_N$0A@@0@AEBU?$tvec3@M$0A@@0@0AEBM@Z PROC ; glm::epsilonEqual<float,0,glm::tvec3>, COMDAT

; 65   : 	{

$LN3:
	mov	QWORD PTR [rsp+32], r9
	mov	QWORD PTR [rsp+24], r8
	mov	QWORD PTR [rsp+16], rdx
	mov	QWORD PTR [rsp+8], rcx
	push	rdi
	sub	rsp, 80					; 00000050H

; 66   : 		return lessThan(abs(x - y), vecType<T, P>(epsilon));

	mov	rax, QWORD PTR epsilon$[rsp]
	movss	xmm1, DWORD PTR [rax]
	lea	rcx, QWORD PTR $T1[rsp]
	call	??0?$tvec3@M$0A@@glm@@QEAA@M@Z		; glm::tvec3<float,0>::tvec3<float,0>
	mov	QWORD PTR tv66[rsp], rax
	mov	r8, QWORD PTR y$[rsp]
	mov	rdx, QWORD PTR x$[rsp]
	lea	rcx, QWORD PTR $T2[rsp]
	call	??$?GM$0A@@glm@@YA?AU?$tvec3@M$0A@@0@AEBU10@0@Z ; glm::operator-<float,0>
	mov	rdx, rax
	lea	rcx, QWORD PTR $T3[rsp]
	call	??$abs@M$0A@Utvec3@glm@@@glm@@YA?AU?$tvec3@M$0A@@0@AEBU10@@Z ; glm::abs<float,0,glm::tvec3>
	mov	rcx, QWORD PTR tv66[rsp]
	mov	r8, rcx
	mov	rdx, rax
	mov	rcx, QWORD PTR __$ReturnUdt$[rsp]
	call	??$lessThan@M$0A@Utvec3@glm@@@glm@@YA?AU?$tvec3@_N$0A@@0@AEBU?$tvec3@M$0A@@0@0@Z ; glm::lessThan<float,0,glm::tvec3>
	mov	rax, QWORD PTR __$ReturnUdt$[rsp]

; 67   : 	}

	add	rsp, 80					; 00000050H
	pop	rdi
	ret	0
??$epsilonEqual@M$0A@Utvec3@glm@@@glm@@YA?AU?$tvec3@_N$0A@@0@AEBU?$tvec3@M$0A@@0@0AEBM@Z ENDP ; glm::epsilonEqual<float,0,glm::tvec3>
_TEXT	ENDS
; Function compile flags: /Odtp /RTCsu
; File C:\Users\ksart\OneDrive\Desktop\FlappyBird\libraries\external\glm\test\gtc\gtc_quaternion.cpp
_TEXT	SEGMENT
Error$ = 32
q1$ = 56
v1$ = 104
q2$ = 152
v2$ = 200
$T7 = 228
$T8 = 240
$T9 = 252
$T10 = 264
$T11 = 268
$T12 = 280
$T13 = 284
$T14 = 296
$T15 = 300
$T16 = 312
tv67 = 320
tv131 = 328
tv158 = 332
?test_quat_two_axis_ctr@@YAHXZ PROC			; test_quat_two_axis_ctr

; 229  : {

$LN7:
	push	rdi
	sub	rsp, 336				; 00000150H
	lea	rdi, QWORD PTR [rsp+32]
	mov	ecx, 76					; 0000004cH
	mov	eax, -858993460				; ccccccccH
	rep stosd

; 230  : 	int Error(0);

	mov	DWORD PTR Error$[rsp], 0

; 231  : 
; 232  : 	glm::quat q1(glm::vec3(1, 0, 0), glm::vec3(0, 1, 0));

	xor	r9d, r9d
	mov	r8d, 1
	xor	edx, edx
	lea	rcx, QWORD PTR $T7[rsp]
	call	??$?0HHH@?$tvec3@M$0A@@glm@@QEAA@HHH@Z	; glm::tvec3<float,0>::tvec3<float,0><int,int,int>
	mov	QWORD PTR tv67[rsp], rax
	xor	r9d, r9d
	xor	r8d, r8d
	mov	edx, 1
	lea	rcx, QWORD PTR $T8[rsp]
	call	??$?0HHH@?$tvec3@M$0A@@glm@@QEAA@HHH@Z	; glm::tvec3<float,0>::tvec3<float,0><int,int,int>
	mov	rcx, QWORD PTR tv67[rsp]
	mov	r8, rcx
	mov	rdx, rax
	lea	rcx, QWORD PTR q1$[rsp]
	call	??0?$tquat@M$0A@@glm@@QEAA@AEBU?$tvec3@M$0A@@1@0@Z ; glm::tquat<float,0>::tquat<float,0>

; 233  : 	glm::vec3 v1 = q1 * glm::vec3(1, 0, 0);

	xor	r9d, r9d
	xor	r8d, r8d
	mov	edx, 1
	lea	rcx, QWORD PTR $T9[rsp]
	call	??$?0HHH@?$tvec3@M$0A@@glm@@QEAA@HHH@Z	; glm::tvec3<float,0>::tvec3<float,0><int,int,int>
	mov	r8, rax
	lea	rdx, QWORD PTR q1$[rsp]
	lea	rcx, QWORD PTR v1$[rsp]
	call	??$?DM$0A@@glm@@YA?AU?$tvec3@M$0A@@0@AEBU?$tquat@M$0A@@0@AEBU10@@Z ; glm::operator*<float,0>

; 234  : 	Error += glm::all(glm::epsilonEqual(v1, glm::vec3(0, 1, 0), 0.0001f)) ? 0 : 1;

	movss	xmm0, DWORD PTR __real@38d1b717
	movss	DWORD PTR $T10[rsp], xmm0
	xor	r9d, r9d
	mov	r8d, 1
	xor	edx, edx
	lea	rcx, QWORD PTR $T11[rsp]
	call	??$?0HHH@?$tvec3@M$0A@@glm@@QEAA@HHH@Z	; glm::tvec3<float,0>::tvec3<float,0><int,int,int>
	lea	r9, QWORD PTR $T10[rsp]
	mov	r8, rax
	lea	rdx, QWORD PTR v1$[rsp]
	lea	rcx, QWORD PTR $T12[rsp]
	call	??$epsilonEqual@M$0A@Utvec3@glm@@@glm@@YA?AU?$tvec3@_N$0A@@0@AEBU?$tvec3@M$0A@@0@0AEBM@Z ; glm::epsilonEqual<float,0,glm::tvec3>
	mov	rcx, rax
	call	??$all@$0A@Utvec3@glm@@@glm@@YA_NAEBU?$tvec3@_N$0A@@0@@Z ; glm::all<0,glm::tvec3>
	movzx	eax, al
	test	eax, eax
	je	SHORT $LN3@test_quat_
	mov	DWORD PTR tv131[rsp], 0
	jmp	SHORT $LN4@test_quat_
$LN3@test_quat_:
	mov	DWORD PTR tv131[rsp], 1
$LN4@test_quat_:
	mov	eax, DWORD PTR tv131[rsp]
	mov	ecx, DWORD PTR Error$[rsp]
	add	ecx, eax
	mov	eax, ecx
	mov	DWORD PTR Error$[rsp], eax

; 235  : 
; 236  : 	glm::quat q2 = q1 * q1;

	lea	r8, QWORD PTR q1$[rsp]
	lea	rdx, QWORD PTR q1$[rsp]
	lea	rcx, QWORD PTR q2$[rsp]
	call	??$?DM$0A@@glm@@YA?AU?$tquat@M$0A@@0@AEBU10@0@Z ; glm::operator*<float,0>

; 237  : 	glm::vec3 v2 = q2 * glm::vec3(1, 0, 0);

	xor	r9d, r9d
	xor	r8d, r8d
	mov	edx, 1
	lea	rcx, QWORD PTR $T13[rsp]
	call	??$?0HHH@?$tvec3@M$0A@@glm@@QEAA@HHH@Z	; glm::tvec3<float,0>::tvec3<float,0><int,int,int>
	mov	r8, rax
	lea	rdx, QWORD PTR q2$[rsp]
	lea	rcx, QWORD PTR v2$[rsp]
	call	??$?DM$0A@@glm@@YA?AU?$tvec3@M$0A@@0@AEBU?$tquat@M$0A@@0@AEBU10@@Z ; glm::operator*<float,0>

; 238  : 	Error += glm::all(glm::epsilonEqual(v2, glm::vec3(-1, 0, 0), 0.0001f)) ? 0 : 1;

	movss	xmm0, DWORD PTR __real@38d1b717
	movss	DWORD PTR $T14[rsp], xmm0
	xor	r9d, r9d
	xor	r8d, r8d
	mov	edx, -1
	lea	rcx, QWORD PTR $T15[rsp]
	call	??$?0HHH@?$tvec3@M$0A@@glm@@QEAA@HHH@Z	; glm::tvec3<float,0>::tvec3<float,0><int,int,int>
	lea	r9, QWORD PTR $T14[rsp]
	mov	r8, rax
	lea	rdx, QWORD PTR v2$[rsp]
	lea	rcx, QWORD PTR $T16[rsp]
	call	??$epsilonEqual@M$0A@Utvec3@glm@@@glm@@YA?AU?$tvec3@_N$0A@@0@AEBU?$tvec3@M$0A@@0@0AEBM@Z ; glm::epsilonEqual<float,0,glm::tvec3>
	mov	rcx, rax
	call	??$all@$0A@Utvec3@glm@@@glm@@YA_NAEBU?$tvec3@_N$0A@@0@@Z ; glm::all<0,glm::tvec3>
	movzx	eax, al
	test	eax, eax
	je	SHORT $LN5@test_quat_
	mov	DWORD PTR tv158[rsp], 0
	jmp	SHORT $LN6@test_quat_
$LN5@test_quat_:
	mov	DWORD PTR tv158[rsp], 1
$LN6@test_quat_:
	mov	eax, DWORD PTR tv158[rsp]
	mov	ecx, DWORD PTR Error$[rsp]
	add	ecx, eax
	mov	eax, ecx
	mov	DWORD PTR Error$[rsp], eax

; 239  : 
; 240  : 	return Error;

	mov	eax, DWORD PTR Error$[rsp]

; 241  : }

	mov	edi, eax
	mov	rcx, rsp
	lea	rdx, OFFSET FLAT:?test_quat_two_axis_ctr@@YAHXZ$rtcFrameData
	call	_RTC_CheckStackVars
	mov	eax, edi
	add	rsp, 336				; 00000150H
	pop	rdi
	ret	0
?test_quat_two_axis_ctr@@YAHXZ ENDP			; test_quat_two_axis_ctr
_TEXT	ENDS
; Function compile flags: /Odtp /RTCsu
; File C:\Users\ksart\OneDrive\Desktop\FlappyBird\libraries\external\glm\glm\gtc\quaternion.inl
;	COMDAT ??$?9M$0A@@glm@@YA_NAEBU?$tquat@M$0A@@0@0@Z
_TEXT	SEGMENT
tv76 = 0
q1$ = 32
q2$ = 40
??$?9M$0A@@glm@@YA_NAEBU?$tquat@M$0A@@0@0@Z PROC	; glm::operator!=<float,0>, COMDAT

; 366  : 	{

$LN5:
	mov	QWORD PTR [rsp+16], rdx
	mov	QWORD PTR [rsp+8], rcx
	push	rdi
	sub	rsp, 16

; 367  : 		return (q1.x != q2.x) || (q1.y != q2.y) || (q1.z != q2.z) || (q1.w != q2.w);

	mov	rax, QWORD PTR q1$[rsp]
	mov	rcx, QWORD PTR q2$[rsp]
	movss	xmm0, DWORD PTR [rax]
	ucomiss	xmm0, DWORD PTR [rcx]
	jp	SHORT $LN3@operator
	jne	SHORT $LN3@operator
	mov	rax, QWORD PTR q1$[rsp]
	mov	rcx, QWORD PTR q2$[rsp]
	movss	xmm0, DWORD PTR [rax+4]
	ucomiss	xmm0, DWORD PTR [rcx+4]
	jp	SHORT $LN3@operator
	jne	SHORT $LN3@operator
	mov	rax, QWORD PTR q1$[rsp]
	mov	rcx, QWORD PTR q2$[rsp]
	movss	xmm0, DWORD PTR [rax+8]
	ucomiss	xmm0, DWORD PTR [rcx+8]
	jp	SHORT $LN3@operator
	jne	SHORT $LN3@operator
	mov	rax, QWORD PTR q1$[rsp]
	mov	rcx, QWORD PTR q2$[rsp]
	movss	xmm0, DWORD PTR [rax+12]
	ucomiss	xmm0, DWORD PTR [rcx+12]
	jp	SHORT $LN3@operator
	jne	SHORT $LN3@operator
	mov	DWORD PTR tv76[rsp], 0
	jmp	SHORT $LN4@operator
$LN3@operator:
	mov	DWORD PTR tv76[rsp], 1
$LN4@operator:
	movzx	eax, BYTE PTR tv76[rsp]

; 368  : 	}

	add	rsp, 16
	pop	rdi
	ret	0
??$?9M$0A@@glm@@YA_NAEBU?$tquat@M$0A@@0@0@Z ENDP	; glm::operator!=<float,0>
_TEXT	ENDS
; Function compile flags: /Odtp /RTCsu
; File C:\Users\ksart\OneDrive\Desktop\FlappyBird\libraries\external\glm\glm\gtc\quaternion.inl
;	COMDAT ??$?XM@?$tquat@M$0A@@glm@@QEAAAEAU01@AEBU01@@Z
_TEXT	SEGMENT
p$ = 40
q$ = 88
this$ = 160
r$ = 168
??$?XM@?$tquat@M$0A@@glm@@QEAAAEAU01@AEBU01@@Z PROC	; glm::tquat<float,0>::operator*=<float>, COMDAT

; 255  : 	{

$LN3:
	mov	QWORD PTR [rsp+16], rdx
	mov	QWORD PTR [rsp+8], rcx
	push	rsi
	push	rdi
	sub	rsp, 136				; 00000088H
	lea	rdi, QWORD PTR [rsp+32]
	mov	ecx, 26
	mov	eax, -858993460				; ccccccccH
	rep stosd
	mov	rcx, QWORD PTR [rsp+160]

; 256  : 		tquat<T, P> const p(*this);

	lea	rax, QWORD PTR p$[rsp]
	mov	rdi, rax
	mov	rsi, QWORD PTR this$[rsp]
	mov	ecx, 16
	rep movsb

; 257  : 		tquat<T, P> const q(r);

	lea	rax, QWORD PTR q$[rsp]
	mov	rdi, rax
	mov	rsi, QWORD PTR r$[rsp]
	mov	ecx, 16
	rep movsb

; 258  : 
; 259  : 		this->w = p.w * q.w - p.x * q.x - p.y * q.y - p.z * q.z;

	movss	xmm0, DWORD PTR p$[rsp+12]
	mulss	xmm0, DWORD PTR q$[rsp+12]
	movss	xmm1, DWORD PTR p$[rsp]
	mulss	xmm1, DWORD PTR q$[rsp]
	subss	xmm0, xmm1
	movss	xmm1, DWORD PTR p$[rsp+4]
	mulss	xmm1, DWORD PTR q$[rsp+4]
	subss	xmm0, xmm1
	movss	xmm1, DWORD PTR p$[rsp+8]
	mulss	xmm1, DWORD PTR q$[rsp+8]
	subss	xmm0, xmm1
	mov	rax, QWORD PTR this$[rsp]
	movss	DWORD PTR [rax+12], xmm0

; 260  : 		this->x = p.w * q.x + p.x * q.w + p.y * q.z - p.z * q.y;

	movss	xmm0, DWORD PTR p$[rsp+12]
	mulss	xmm0, DWORD PTR q$[rsp]
	movss	xmm1, DWORD PTR p$[rsp]
	mulss	xmm1, DWORD PTR q$[rsp+12]
	addss	xmm0, xmm1
	movss	xmm1, DWORD PTR p$[rsp+4]
	mulss	xmm1, DWORD PTR q$[rsp+8]
	addss	xmm0, xmm1
	movss	xmm1, DWORD PTR p$[rsp+8]
	mulss	xmm1, DWORD PTR q$[rsp+4]
	subss	xmm0, xmm1
	mov	rax, QWORD PTR this$[rsp]
	movss	DWORD PTR [rax], xmm0

; 261  : 		this->y = p.w * q.y + p.y * q.w + p.z * q.x - p.x * q.z;

	movss	xmm0, DWORD PTR p$[rsp+12]
	mulss	xmm0, DWORD PTR q$[rsp+4]
	movss	xmm1, DWORD PTR p$[rsp+4]
	mulss	xmm1, DWORD PTR q$[rsp+12]
	addss	xmm0, xmm1
	movss	xmm1, DWORD PTR p$[rsp+8]
	mulss	xmm1, DWORD PTR q$[rsp]
	addss	xmm0, xmm1
	movss	xmm1, DWORD PTR p$[rsp]
	mulss	xmm1, DWORD PTR q$[rsp+8]
	subss	xmm0, xmm1
	mov	rax, QWORD PTR this$[rsp]
	movss	DWORD PTR [rax+4], xmm0

; 262  : 		this->z = p.w * q.z + p.z * q.w + p.x * q.y - p.y * q.x;

	movss	xmm0, DWORD PTR p$[rsp+12]
	mulss	xmm0, DWORD PTR q$[rsp+8]
	movss	xmm1, DWORD PTR p$[rsp+8]
	mulss	xmm1, DWORD PTR q$[rsp+12]
	addss	xmm0, xmm1
	movss	xmm1, DWORD PTR p$[rsp]
	mulss	xmm1, DWORD PTR q$[rsp+4]
	addss	xmm0, xmm1
	movss	xmm1, DWORD PTR p$[rsp+4]
	mulss	xmm1, DWORD PTR q$[rsp]
	subss	xmm0, xmm1
	mov	rax, QWORD PTR this$[rsp]
	movss	DWORD PTR [rax+8], xmm0

; 263  : 		return *this;

	mov	rax, QWORD PTR this$[rsp]

; 264  : 	}

	mov	rdi, rax
	mov	rcx, rsp
	lea	rdx, OFFSET FLAT:??$?XM@?$tquat@M$0A@@glm@@QEAAAEAU01@AEBU01@@Z$rtcFrameData
	call	_RTC_CheckStackVars
	mov	rax, rdi
	add	rsp, 136				; 00000088H
	pop	rdi
	pop	rsi
	ret	0
??$?XM@?$tquat@M$0A@@glm@@QEAAAEAU01@AEBU01@@Z ENDP	; glm::tquat<float,0>::operator*=<float>
_TEXT	ENDS
; Function compile flags: /Odtp /RTCsu
; File C:\Users\ksart\OneDrive\Desktop\FlappyBird\libraries\external\glm\glm\gtc\quaternion.inl
;	COMDAT ??$?DM$0A@@glm@@YA?AU?$tquat@M$0A@@0@AEBU10@0@Z
_TEXT	SEGMENT
$T1 = 32
__$ReturnUdt$ = 80
q$ = 88
p$ = 96
??$?DM$0A@@glm@@YA?AU?$tquat@M$0A@@0@AEBU10@0@Z PROC	; glm::operator*<float,0>, COMDAT

; 304  : 	{

$LN3:
	mov	QWORD PTR [rsp+24], r8
	mov	QWORD PTR [rsp+16], rdx
	mov	QWORD PTR [rsp+8], rcx
	push	rsi
	push	rdi
	sub	rsp, 56					; 00000038H

; 305  : 		return tquat<T, P>(q) *= p;

	lea	rax, QWORD PTR $T1[rsp]
	mov	rdi, rax
	mov	rsi, QWORD PTR q$[rsp]
	mov	ecx, 16
	rep movsb
	mov	rdx, QWORD PTR p$[rsp]
	lea	rcx, QWORD PTR $T1[rsp]
	call	??$?XM@?$tquat@M$0A@@glm@@QEAAAEAU01@AEBU01@@Z ; glm::tquat<float,0>::operator*=<float>
	mov	rdi, QWORD PTR __$ReturnUdt$[rsp]
	mov	rsi, rax
	mov	ecx, 16
	rep movsb
	mov	rax, QWORD PTR __$ReturnUdt$[rsp]

; 306  : 	}

	add	rsp, 56					; 00000038H
	pop	rdi
	pop	rsi
	ret	0
??$?DM$0A@@glm@@YA?AU?$tquat@M$0A@@0@AEBU10@0@Z ENDP	; glm::operator*<float,0>
_TEXT	ENDS
; Function compile flags: /Odtp /RTCsu
; File C:\Users\ksart\OneDrive\Desktop\FlappyBird\libraries\external\glm\glm\gtc\quaternion.inl
;	COMDAT ??$?DM$0A@@glm@@YA?AU?$tvec3@M$0A@@0@AEBU10@AEBU?$tquat@M$0A@@0@@Z
_TEXT	SEGMENT
$T1 = 32
__$ReturnUdt$ = 64
v$ = 72
q$ = 80
??$?DM$0A@@glm@@YA?AU?$tvec3@M$0A@@0@AEBU10@AEBU?$tquat@M$0A@@0@@Z PROC ; glm::operator*<float,0>, COMDAT

; 320  : 	{

$LN3:
	mov	QWORD PTR [rsp+24], r8
	mov	QWORD PTR [rsp+16], rdx
	mov	QWORD PTR [rsp+8], rcx
	push	rdi
	sub	rsp, 48					; 00000030H

; 321  : 		return glm::inverse(q) * v;

	mov	rdx, QWORD PTR q$[rsp]
	lea	rcx, QWORD PTR $T1[rsp]
	call	??$inverse@M$0A@@glm@@YA?AU?$tquat@M$0A@@0@AEBU10@@Z ; glm::inverse<float,0>
	mov	r8, QWORD PTR v$[rsp]
	mov	rdx, rax
	mov	rcx, QWORD PTR __$ReturnUdt$[rsp]
	call	??$?DM$0A@@glm@@YA?AU?$tvec3@M$0A@@0@AEBU?$tquat@M$0A@@0@AEBU10@@Z ; glm::operator*<float,0>
	mov	rax, QWORD PTR __$ReturnUdt$[rsp]

; 322  : 	}

	add	rsp, 48					; 00000030H
	pop	rdi
	ret	0
??$?DM$0A@@glm@@YA?AU?$tvec3@M$0A@@0@AEBU10@AEBU?$tquat@M$0A@@0@@Z ENDP ; glm::operator*<float,0>
_TEXT	ENDS
; Function compile flags: /Odtp /RTCsu
; File C:\Users\ksart\OneDrive\Desktop\FlappyBird\libraries\external\glm\glm\gtc\quaternion.inl
;	COMDAT ??$inverse@M$0A@@glm@@YA?AU?$tquat@M$0A@@0@AEBU10@@Z
_TEXT	SEGMENT
$T1 = 32
$T2 = 36
__$ReturnUdt$ = 80
q$ = 88
??$inverse@M$0A@@glm@@YA?AU?$tquat@M$0A@@0@AEBU10@@Z PROC ; glm::inverse<float,0>, COMDAT

; 209  : 	{

$LN3:
	mov	QWORD PTR [rsp+16], rdx
	mov	QWORD PTR [rsp+8], rcx
	push	rdi
	sub	rsp, 64					; 00000040H

; 210  : 		return conjugate(q) / dot(q, q);

	mov	rdx, QWORD PTR q$[rsp]
	mov	rcx, QWORD PTR q$[rsp]
	call	??$dot@M$0A@Utquat@glm@@@glm@@YAMAEBU?$tquat@M$0A@@0@0@Z ; glm::dot<float,0,glm::tquat>
	movss	DWORD PTR $T1[rsp], xmm0
	mov	rdx, QWORD PTR q$[rsp]
	lea	rcx, QWORD PTR $T2[rsp]
	call	??$conjugate@M$0A@@glm@@YA?AU?$tquat@M$0A@@0@AEBU10@@Z ; glm::conjugate<float,0>
	lea	r8, QWORD PTR $T1[rsp]
	mov	rdx, rax
	mov	rcx, QWORD PTR __$ReturnUdt$[rsp]
	call	??$?KM$0A@@glm@@YA?AU?$tquat@M$0A@@0@AEBU10@AEBM@Z ; glm::operator/<float,0>
	mov	rax, QWORD PTR __$ReturnUdt$[rsp]

; 211  : 	}

	add	rsp, 64					; 00000040H
	pop	rdi
	ret	0
??$inverse@M$0A@@glm@@YA?AU?$tquat@M$0A@@0@AEBU10@@Z ENDP ; glm::inverse<float,0>
_TEXT	ENDS
; Function compile flags: /Odtp /RTCsu
; File C:\Users\ksart\OneDrive\Desktop\FlappyBird\libraries\external\glm\glm\gtc\quaternion.inl
;	COMDAT ??$?DM$0A@@glm@@YA?AU?$tvec3@M$0A@@0@AEBU?$tquat@M$0A@@0@AEBU10@@Z
_TEXT	SEGMENT
QuatVector$ = 40
uv$ = 88
uuv$ = 136
$T6 = 164
$T7 = 176
$T8 = 188
__$ReturnUdt$ = 224
q$ = 232
v$ = 240
??$?DM$0A@@glm@@YA?AU?$tvec3@M$0A@@0@AEBU?$tquat@M$0A@@0@AEBU10@@Z PROC ; glm::operator*<float,0>, COMDAT

; 310  : 	{

$LN3:
	mov	QWORD PTR [rsp+24], r8
	mov	QWORD PTR [rsp+16], rdx
	mov	QWORD PTR [rsp+8], rcx
	push	rdi
	sub	rsp, 208				; 000000d0H
	lea	rdi, QWORD PTR [rsp+32]
	mov	ecx, 44					; 0000002cH
	mov	eax, -858993460				; ccccccccH
	rep stosd
	mov	rcx, QWORD PTR [rsp+224]

; 311  : 		tvec3<T, P> const QuatVector(q.x, q.y, q.z);

	mov	rax, QWORD PTR q$[rsp]
	movss	xmm3, DWORD PTR [rax+8]
	mov	rax, QWORD PTR q$[rsp]
	movss	xmm2, DWORD PTR [rax+4]
	mov	rax, QWORD PTR q$[rsp]
	movss	xmm1, DWORD PTR [rax]
	lea	rcx, QWORD PTR QuatVector$[rsp]
	call	??0?$tvec3@M$0A@@glm@@QEAA@MMM@Z	; glm::tvec3<float,0>::tvec3<float,0>

; 312  : 		tvec3<T, P> const uv(glm::cross(QuatVector, v));

	mov	r8, QWORD PTR v$[rsp]
	lea	rdx, QWORD PTR QuatVector$[rsp]
	lea	rcx, QWORD PTR uv$[rsp]
	call	??$cross@M$0A@@glm@@YA?AU?$tvec3@M$0A@@0@AEBU10@0@Z ; glm::cross<float,0>

; 313  : 		tvec3<T, P> const uuv(glm::cross(QuatVector, uv));

	lea	r8, QWORD PTR uv$[rsp]
	lea	rdx, QWORD PTR QuatVector$[rsp]
	lea	rcx, QWORD PTR uuv$[rsp]
	call	??$cross@M$0A@@glm@@YA?AU?$tvec3@M$0A@@0@AEBU10@0@Z ; glm::cross<float,0>

; 314  : 
; 315  : 		return v + ((uv * q.w) + uuv) * static_cast<T>(2);

	mov	rax, QWORD PTR q$[rsp]
	movss	xmm2, DWORD PTR [rax+12]
	lea	rdx, QWORD PTR uv$[rsp]
	lea	rcx, QWORD PTR $T6[rsp]
	call	??$?DM$0A@@glm@@YA?AU?$tvec3@M$0A@@0@AEBU10@M@Z ; glm::operator*<float,0>
	lea	r8, QWORD PTR uuv$[rsp]
	mov	rdx, rax
	lea	rcx, QWORD PTR $T7[rsp]
	call	??$?HM$0A@@glm@@YA?AU?$tvec3@M$0A@@0@AEBU10@0@Z ; glm::operator+<float,0>
	movss	xmm2, DWORD PTR __real@40000000
	mov	rdx, rax
	lea	rcx, QWORD PTR $T8[rsp]
	call	??$?DM$0A@@glm@@YA?AU?$tvec3@M$0A@@0@AEBU10@M@Z ; glm::operator*<float,0>
	mov	r8, rax
	mov	rdx, QWORD PTR v$[rsp]
	mov	rcx, QWORD PTR __$ReturnUdt$[rsp]
	call	??$?HM$0A@@glm@@YA?AU?$tvec3@M$0A@@0@AEBU10@0@Z ; glm::operator+<float,0>
	mov	rax, QWORD PTR __$ReturnUdt$[rsp]

; 316  : 	}

	mov	rdi, rax
	mov	rcx, rsp
	lea	rdx, OFFSET FLAT:??$?DM$0A@@glm@@YA?AU?$tvec3@M$0A@@0@AEBU?$tquat@M$0A@@0@AEBU10@@Z$rtcFrameData
	call	_RTC_CheckStackVars
	mov	rax, rdi
	add	rsp, 208				; 000000d0H
	pop	rdi
	ret	0
??$?DM$0A@@glm@@YA?AU?$tvec3@M$0A@@0@AEBU?$tquat@M$0A@@0@AEBU10@@Z ENDP ; glm::operator*<float,0>
_TEXT	ENDS
; Function compile flags: /Odtp /RTCsu
; File C:\Users\ksart\OneDrive\Desktop\FlappyBird\libraries\external\glm\glm\detail\type_vec3.inl
;	COMDAT ??$?0NNN@?$tvec3@M$0A@@glm@@QEAA@NNN@Z
_TEXT	SEGMENT
this$ = 16
a$ = 24
b$ = 32
c$ = 40
??$?0NNN@?$tvec3@M$0A@@glm@@QEAA@NNN@Z PROC		; glm::tvec3<float,0>::tvec3<float,0><double,double,double>, COMDAT

; 80   : 	{}

$LN3:
	movsd	QWORD PTR [rsp+32], xmm3
	movsd	QWORD PTR [rsp+24], xmm2
	movsd	QWORD PTR [rsp+16], xmm1
	mov	QWORD PTR [rsp+8], rcx
	push	rdi

; 77   : 		x(static_cast<T>(a)),

	cvtsd2ss xmm0, QWORD PTR a$[rsp]
	mov	rax, QWORD PTR this$[rsp]
	movss	DWORD PTR [rax], xmm0

; 78   : 		y(static_cast<T>(b)),

	cvtsd2ss xmm0, QWORD PTR b$[rsp]
	mov	rax, QWORD PTR this$[rsp]
	movss	DWORD PTR [rax+4], xmm0

; 79   : 		z(static_cast<T>(c))

	cvtsd2ss xmm0, QWORD PTR c$[rsp]
	mov	rax, QWORD PTR this$[rsp]
	movss	DWORD PTR [rax+8], xmm0

; 80   : 	{}

	mov	rax, QWORD PTR this$[rsp]
	pop	rdi
	ret	0
??$?0NNN@?$tvec3@M$0A@@glm@@QEAA@NNN@Z ENDP		; glm::tvec3<float,0>::tvec3<float,0><double,double,double>
_TEXT	ENDS
; Function compile flags: /Odtp /RTCsu
; File C:\Users\ksart\OneDrive\Desktop\FlappyBird\libraries\external\glm\test\gtc\gtc_quaternion.cpp
_TEXT	SEGMENT
Error$ = 32
temp1$ = 56
temp2$ = 104
transformed0$ = 152
temp4$ = 200
temp5$ = 248
temp6$ = 296
temp7$10 = 344
$T11 = 372
$T12 = 388
$T13 = 400
$T14 = 404
$T15 = 420
$T16 = 432
$T17 = 436
$T18 = 452
$T19 = 464
$T20 = 476
$T21 = 492
$T22 = 504
$T23 = 520
$T24 = 536
$T25 = 548
$T26 = 560
$T27 = 576
tv87 = 592
tv134 = 600
tv150 = 608
?test_quat_mul@@YAHXZ PROC				; test_quat_mul

; 202  : {

$LN3:
	push	rdi
	sub	rsp, 624				; 00000270H
	lea	rdi, QWORD PTR [rsp+32]
	mov	ecx, 148				; 00000094H
	mov	eax, -858993460				; ccccccccH
	rep stosd

; 203  : 	int Error(0);

	mov	DWORD PTR Error$[rsp], 0

; 204  : 
; 205  : 	glm::quat temp1 = glm::normalize(glm::quat(1.0f, glm::vec3(0.0, 1.0, 0.0)));

	movss	xmm0, DWORD PTR __real@3f800000
	movss	DWORD PTR $T13[rsp], xmm0
	xorps	xmm3, xmm3
	movsd	xmm2, QWORD PTR __real@3ff0000000000000
	xorps	xmm1, xmm1
	lea	rcx, QWORD PTR $T12[rsp]
	call	??$?0NNN@?$tvec3@M$0A@@glm@@QEAA@NNN@Z	; glm::tvec3<float,0>::tvec3<float,0><double,double,double>
	mov	r8, rax
	lea	rdx, QWORD PTR $T13[rsp]
	lea	rcx, QWORD PTR $T11[rsp]
	call	??0?$tquat@M$0A@@glm@@QEAA@AEBMAEBU?$tvec3@M$0A@@1@@Z ; glm::tquat<float,0>::tquat<float,0>
	mov	rdx, rax
	lea	rcx, QWORD PTR temp1$[rsp]
	call	??$normalize@M$0A@@glm@@YA?AU?$tquat@M$0A@@0@AEBU10@@Z ; glm::normalize<float,0>

; 206  : 	glm::quat temp2 = glm::normalize(glm::quat(0.5f, glm::vec3(1.0, 0.0, 0.0)));

	movss	xmm0, DWORD PTR __real@3f000000
	movss	DWORD PTR $T16[rsp], xmm0
	xorps	xmm3, xmm3
	xorps	xmm2, xmm2
	movsd	xmm1, QWORD PTR __real@3ff0000000000000
	lea	rcx, QWORD PTR $T15[rsp]
	call	??$?0NNN@?$tvec3@M$0A@@glm@@QEAA@NNN@Z	; glm::tvec3<float,0>::tvec3<float,0><double,double,double>
	mov	r8, rax
	lea	rdx, QWORD PTR $T16[rsp]
	lea	rcx, QWORD PTR $T14[rsp]
	call	??0?$tquat@M$0A@@glm@@QEAA@AEBMAEBU?$tvec3@M$0A@@1@@Z ; glm::tquat<float,0>::tquat<float,0>
	mov	rdx, rax
	lea	rcx, QWORD PTR temp2$[rsp]
	call	??$normalize@M$0A@@glm@@YA?AU?$tquat@M$0A@@0@AEBU10@@Z ; glm::normalize<float,0>

; 207  : 
; 208  : 	glm::vec3 transformed0 = (temp1 * glm::vec3(0.0, 1.0, 0.0) * glm::inverse(temp1));

	lea	rdx, QWORD PTR temp1$[rsp]
	lea	rcx, QWORD PTR $T17[rsp]
	call	??$inverse@M$0A@@glm@@YA?AU?$tquat@M$0A@@0@AEBU10@@Z ; glm::inverse<float,0>
	mov	QWORD PTR tv87[rsp], rax
	xorps	xmm3, xmm3
	movsd	xmm2, QWORD PTR __real@3ff0000000000000
	xorps	xmm1, xmm1
	lea	rcx, QWORD PTR $T18[rsp]
	call	??$?0NNN@?$tvec3@M$0A@@glm@@QEAA@NNN@Z	; glm::tvec3<float,0>::tvec3<float,0><double,double,double>
	mov	r8, rax
	lea	rdx, QWORD PTR temp1$[rsp]
	lea	rcx, QWORD PTR $T19[rsp]
	call	??$?DM$0A@@glm@@YA?AU?$tvec3@M$0A@@0@AEBU?$tquat@M$0A@@0@AEBU10@@Z ; glm::operator*<float,0>
	mov	rcx, QWORD PTR tv87[rsp]
	mov	r8, rcx
	mov	rdx, rax
	lea	rcx, QWORD PTR transformed0$[rsp]
	call	??$?DM$0A@@glm@@YA?AU?$tvec3@M$0A@@0@AEBU10@AEBU?$tquat@M$0A@@0@@Z ; glm::operator*<float,0>

; 209  : 	glm::vec3 temp4 = temp2 * transformed0 * glm::inverse(temp2);

	lea	rdx, QWORD PTR temp2$[rsp]
	lea	rcx, QWORD PTR $T20[rsp]
	call	??$inverse@M$0A@@glm@@YA?AU?$tquat@M$0A@@0@AEBU10@@Z ; glm::inverse<float,0>
	mov	QWORD PTR tv134[rsp], rax
	lea	r8, QWORD PTR transformed0$[rsp]
	lea	rdx, QWORD PTR temp2$[rsp]
	lea	rcx, QWORD PTR $T21[rsp]
	call	??$?DM$0A@@glm@@YA?AU?$tvec3@M$0A@@0@AEBU?$tquat@M$0A@@0@AEBU10@@Z ; glm::operator*<float,0>
	mov	rcx, QWORD PTR tv134[rsp]
	mov	r8, rcx
	mov	rdx, rax
	lea	rcx, QWORD PTR temp4$[rsp]
	call	??$?DM$0A@@glm@@YA?AU?$tvec3@M$0A@@0@AEBU10@AEBU?$tquat@M$0A@@0@@Z ; glm::operator*<float,0>

; 210  : 
; 211  : 	glm::quat temp5 = glm::normalize(temp1 * temp2);

	lea	r8, QWORD PTR temp2$[rsp]
	lea	rdx, QWORD PTR temp1$[rsp]
	lea	rcx, QWORD PTR $T22[rsp]
	call	??$?DM$0A@@glm@@YA?AU?$tquat@M$0A@@0@AEBU10@0@Z ; glm::operator*<float,0>
	mov	rdx, rax
	lea	rcx, QWORD PTR temp5$[rsp]
	call	??$normalize@M$0A@@glm@@YA?AU?$tquat@M$0A@@0@AEBU10@@Z ; glm::normalize<float,0>

; 212  : 	glm::vec3 temp6 = temp5 * glm::vec3(0.0, 1.0, 0.0) * glm::inverse(temp5);

	lea	rdx, QWORD PTR temp5$[rsp]
	lea	rcx, QWORD PTR $T23[rsp]
	call	??$inverse@M$0A@@glm@@YA?AU?$tquat@M$0A@@0@AEBU10@@Z ; glm::inverse<float,0>
	mov	QWORD PTR tv150[rsp], rax
	xorps	xmm3, xmm3
	movsd	xmm2, QWORD PTR __real@3ff0000000000000
	xorps	xmm1, xmm1
	lea	rcx, QWORD PTR $T24[rsp]
	call	??$?0NNN@?$tvec3@M$0A@@glm@@QEAA@NNN@Z	; glm::tvec3<float,0>::tvec3<float,0><double,double,double>
	mov	r8, rax
	lea	rdx, QWORD PTR temp5$[rsp]
	lea	rcx, QWORD PTR $T25[rsp]
	call	??$?DM$0A@@glm@@YA?AU?$tvec3@M$0A@@0@AEBU?$tquat@M$0A@@0@AEBU10@@Z ; glm::operator*<float,0>
	mov	rcx, QWORD PTR tv150[rsp]
	mov	r8, rcx
	mov	rdx, rax
	lea	rcx, QWORD PTR temp6$[rsp]
	call	??$?DM$0A@@glm@@YA?AU?$tvec3@M$0A@@0@AEBU10@AEBU?$tquat@M$0A@@0@@Z ; glm::operator*<float,0>

; 213  : 
; 214  : #	ifndef GLM_FORCE_NO_CTOR_INIT
; 215  : 	{
; 216  : 		glm::quat temp7;

	lea	rcx, QWORD PTR temp7$10[rsp]
	call	??0?$tquat@M$0A@@glm@@QEAA@XZ		; glm::tquat<float,0>::tquat<float,0>

; 217  : 
; 218  : 		temp7 *= temp5;

	lea	rdx, QWORD PTR temp5$[rsp]
	lea	rcx, QWORD PTR temp7$10[rsp]
	call	??$?XM@?$tquat@M$0A@@glm@@QEAAAEAU01@AEBU01@@Z ; glm::tquat<float,0>::operator*=<float>

; 219  : 		temp7 *= glm::inverse(temp5);

	lea	rdx, QWORD PTR temp5$[rsp]
	lea	rcx, QWORD PTR $T26[rsp]
	call	??$inverse@M$0A@@glm@@YA?AU?$tquat@M$0A@@0@AEBU10@@Z ; glm::inverse<float,0>
	mov	rdx, rax
	lea	rcx, QWORD PTR temp7$10[rsp]
	call	??$?XM@?$tquat@M$0A@@glm@@QEAAAEAU01@AEBU01@@Z ; glm::tquat<float,0>::operator*=<float>

; 220  : 
; 221  : 		Error += temp7 != glm::quat();

	lea	rcx, QWORD PTR $T27[rsp]
	call	??0?$tquat@M$0A@@glm@@QEAA@XZ		; glm::tquat<float,0>::tquat<float,0>
	mov	rdx, rax
	lea	rcx, QWORD PTR temp7$10[rsp]
	call	??$?9M$0A@@glm@@YA_NAEBU?$tquat@M$0A@@0@0@Z ; glm::operator!=<float,0>
	movzx	eax, al
	mov	ecx, DWORD PTR Error$[rsp]
	add	ecx, eax
	mov	eax, ecx
	mov	DWORD PTR Error$[rsp], eax

; 222  : 	}
; 223  : #	endif
; 224  : 
; 225  : 	return Error;

	mov	eax, DWORD PTR Error$[rsp]

; 226  : }

	mov	edi, eax
	mov	rcx, rsp
	lea	rdx, OFFSET FLAT:?test_quat_mul@@YAHXZ$rtcFrameData
	call	_RTC_CheckStackVars
	mov	eax, edi
	add	rsp, 624				; 00000270H
	pop	rdi
	ret	0
?test_quat_mul@@YAHXZ ENDP				; test_quat_mul
_TEXT	ENDS
; Function compile flags: /Odtp /RTCsu
; File C:\Users\ksart\OneDrive\Desktop\FlappyBird\libraries\external\glm\glm\detail\func_geometric.inl
;	COMDAT ??$dot@M$0A@Utquat@glm@@@glm@@YAMAEBU?$tquat@M$0A@@0@0@Z
_TEXT	SEGMENT
x$ = 64
y$ = 72
??$dot@M$0A@Utquat@glm@@@glm@@YAMAEBU?$tquat@M$0A@@0@0@Z PROC ; glm::dot<float,0,glm::tquat>, COMDAT

; 172  : 	{

$LN3:
	mov	QWORD PTR [rsp+16], rdx
	mov	QWORD PTR [rsp+8], rcx
	push	rdi
	sub	rsp, 48					; 00000030H

; 173  : 		GLM_STATIC_ASSERT(std::numeric_limits<T>::is_iec559, "'dot' accepts only floating-point inputs");
; 174  : 		return detail::compute_dot<vecType, T, P, detail::is_aligned<P>::value>::call(x, y);

	mov	rdx, QWORD PTR y$[rsp]
	mov	rcx, QWORD PTR x$[rsp]
	call	?call@?$compute_dot@Utquat@glm@@M$0A@$0A@@detail@glm@@SAMAEBU?$tquat@M$0A@@3@0@Z ; glm::detail::compute_dot<glm::tquat,float,0,0>::call

; 175  : 	}

	add	rsp, 48					; 00000030H
	pop	rdi
	ret	0
??$dot@M$0A@Utquat@glm@@@glm@@YAMAEBU?$tquat@M$0A@@0@0@Z ENDP ; glm::dot<float,0,glm::tquat>
_TEXT	ENDS
; Function compile flags: /Odtp /RTCsu
; File C:\Users\ksart\OneDrive\Desktop\FlappyBird\libraries\external\glm\glm\gtc\quaternion.inl
;	COMDAT ??$?GM$0A@@glm@@YA?AU?$tquat@M$0A@@0@AEBU10@@Z
_TEXT	SEGMENT
$T1 = 48
$T2 = 52
$T3 = 56
$T4 = 60
__$ReturnUdt$ = 80
q$ = 88
??$?GM$0A@@glm@@YA?AU?$tquat@M$0A@@0@AEBU10@@Z PROC	; glm::operator-<float,0>, COMDAT

; 290  : 	{

$LN3:
	mov	QWORD PTR [rsp+16], rdx
	mov	QWORD PTR [rsp+8], rcx
	push	rdi
	sub	rsp, 64					; 00000040H

; 291  : 		return tquat<T, P>(-q.w, -q.x, -q.y, -q.z);

	mov	rax, QWORD PTR q$[rsp]
	movss	xmm0, DWORD PTR [rax+8]
	xorps	xmm0, DWORD PTR __xmm@80000000800000008000000080000000
	movss	DWORD PTR $T1[rsp], xmm0
	mov	rax, QWORD PTR q$[rsp]
	movss	xmm0, DWORD PTR [rax+4]
	xorps	xmm0, DWORD PTR __xmm@80000000800000008000000080000000
	movss	DWORD PTR $T2[rsp], xmm0
	mov	rax, QWORD PTR q$[rsp]
	movss	xmm0, DWORD PTR [rax]
	xorps	xmm0, DWORD PTR __xmm@80000000800000008000000080000000
	movss	DWORD PTR $T3[rsp], xmm0
	mov	rax, QWORD PTR q$[rsp]
	movss	xmm0, DWORD PTR [rax+12]
	xorps	xmm0, DWORD PTR __xmm@80000000800000008000000080000000
	movss	DWORD PTR $T4[rsp], xmm0
	lea	rax, QWORD PTR $T1[rsp]
	mov	QWORD PTR [rsp+32], rax
	lea	r9, QWORD PTR $T2[rsp]
	lea	r8, QWORD PTR $T3[rsp]
	lea	rdx, QWORD PTR $T4[rsp]
	mov	rcx, QWORD PTR __$ReturnUdt$[rsp]
	call	??0?$tquat@M$0A@@glm@@QEAA@AEBM000@Z	; glm::tquat<float,0>::tquat<float,0>
	mov	rax, QWORD PTR __$ReturnUdt$[rsp]

; 292  : 	}

	add	rsp, 64					; 00000040H
	pop	rdi
	ret	0
??$?GM$0A@@glm@@YA?AU?$tquat@M$0A@@0@AEBU10@@Z ENDP	; glm::operator-<float,0>
_TEXT	ENDS
; Function compile flags: /Odtp /RTCsu
; File C:\Users\ksart\OneDrive\Desktop\FlappyBird\libraries\external\glm\glm\detail\func_vector_relational.inl
;	COMDAT ??$all@$0A@Utvec4@glm@@@glm@@YA_NAEBU?$tvec4@_N$0A@@0@@Z
_TEXT	SEGMENT
Result$ = 32
i$1 = 36
tv74 = 40
v$ = 64
??$all@$0A@Utvec4@glm@@@glm@@YA_NAEBU?$tvec4@_N$0A@@0@@Z PROC ; glm::all<0,glm::tvec4>, COMDAT

; 86   : 	{

$LN8:
	mov	QWORD PTR [rsp+8], rcx
	push	rdi
	sub	rsp, 48					; 00000030H

; 87   : 		bool Result = true;

	mov	BYTE PTR Result$[rsp], 1

; 88   : 		for(length_t i = 0; i < v.length(); ++i)

	mov	DWORD PTR i$1[rsp], 0
	jmp	SHORT $LN4@all
$LN2@all:
	mov	eax, DWORD PTR i$1[rsp]
	inc	eax
	mov	DWORD PTR i$1[rsp], eax
$LN4@all:
	call	?length@?$tvec4@_N$0A@@glm@@SAHXZ	; glm::tvec4<bool,0>::length
	cmp	DWORD PTR i$1[rsp], eax
	jge	SHORT $LN3@all

; 89   : 			Result = Result && v[i];

	movzx	eax, BYTE PTR Result$[rsp]
	test	eax, eax
	je	SHORT $LN6@all
	mov	edx, DWORD PTR i$1[rsp]
	mov	rcx, QWORD PTR v$[rsp]
	call	??A?$tvec4@_N$0A@@glm@@QEBAAEB_NH@Z	; glm::tvec4<bool,0>::operator[]
	movzx	eax, BYTE PTR [rax]
	test	eax, eax
	je	SHORT $LN6@all
	mov	DWORD PTR tv74[rsp], 1
	jmp	SHORT $LN7@all
$LN6@all:
	mov	DWORD PTR tv74[rsp], 0
$LN7@all:
	movzx	eax, BYTE PTR tv74[rsp]
	mov	BYTE PTR Result$[rsp], al
	jmp	SHORT $LN2@all
$LN3@all:

; 90   : 		return Result;

	movzx	eax, BYTE PTR Result$[rsp]

; 91   : 	}

	add	rsp, 48					; 00000030H
	pop	rdi
	ret	0
??$all@$0A@Utvec4@glm@@@glm@@YA_NAEBU?$tvec4@_N$0A@@0@@Z ENDP ; glm::all<0,glm::tvec4>
_TEXT	ENDS
; Function compile flags: /Odtp /RTCsu
; File C:\Users\ksart\OneDrive\Desktop\FlappyBird\libraries\external\glm\glm\detail\type_vec4.inl
;	COMDAT ??0?$tvec4@_N$0A@@glm@@QEAA@W4ctor@1@@Z
_TEXT	SEGMENT
this$ = 16
__formal$ = 24
??0?$tvec4@_N$0A@@glm@@QEAA@W4ctor@1@@Z PROC		; glm::tvec4<bool,0>::tvec4<bool,0>, COMDAT

; 183  : 	{}

$LN3:
	mov	DWORD PTR [rsp+16], edx
	mov	QWORD PTR [rsp+8], rcx
	push	rdi
	mov	rax, QWORD PTR this$[rsp]
	pop	rdi
	ret	0
??0?$tvec4@_N$0A@@glm@@QEAA@W4ctor@1@@Z ENDP		; glm::tvec4<bool,0>::tvec4<bool,0>
_TEXT	ENDS
; Function compile flags: /Odtp /RTCsu
; File C:\Users\ksart\OneDrive\Desktop\FlappyBird\libraries\external\glm\glm\detail\type_vec4.inl
;	COMDAT ??A?$tvec4@_N$0A@@glm@@QEBAAEB_NH@Z
_TEXT	SEGMENT
this$ = 48
i$ = 56
??A?$tvec4@_N$0A@@glm@@QEBAAEB_NH@Z PROC		; glm::tvec4<bool,0>::operator[], COMDAT

; 336  : 	{

$LN5:
	mov	DWORD PTR [rsp+16], edx
	mov	QWORD PTR [rsp+8], rcx
	push	rdi
	sub	rsp, 32					; 00000020H

; 337  : 		assert(i >= 0 && i < this->length());

	cmp	DWORD PTR i$[rsp], 0
	jl	SHORT $LN3@operator
	call	?length@?$tvec4@_N$0A@@glm@@SAHXZ	; glm::tvec4<bool,0>::length
	cmp	DWORD PTR i$[rsp], eax
	jl	SHORT $LN4@operator
$LN3@operator:
	mov	r8d, 337				; 00000151H
	lea	rdx, OFFSET FLAT:??_C@_1LG@LAANPDHN@?$AAC?$AA?3?$AA?2?$AAU?$AAs?$AAe?$AAr?$AAs?$AA?2?$AAk?$AAs?$AAa?$AAr?$AAt?$AA?2@
	lea	rcx, OFFSET FLAT:??_C@_1DK@BGNCJAPL@?$AAi?$AA?5?$AA?$DO?$AA?$DN?$AA?5?$AA0?$AA?5?$AA?$CG?$AA?$CG?$AA?5?$AAi?$AA?5?$AA?$DM?$AA?5?$AAt@
	call	QWORD PTR __imp__wassert
	xor	eax, eax
$LN4@operator:

; 338  : 		return (&x)[i];

	movsxd	rax, DWORD PTR i$[rsp]
	mov	rcx, QWORD PTR this$[rsp]
	add	rcx, rax
	mov	rax, rcx

; 339  : 	}

	add	rsp, 32					; 00000020H
	pop	rdi
	ret	0
??A?$tvec4@_N$0A@@glm@@QEBAAEB_NH@Z ENDP		; glm::tvec4<bool,0>::operator[]
_TEXT	ENDS
; Function compile flags: /Odtp /RTCsu
; File C:\Users\ksart\OneDrive\Desktop\FlappyBird\libraries\external\glm\glm\detail\type_vec4.inl
;	COMDAT ??A?$tvec4@_N$0A@@glm@@QEAAAEA_NH@Z
_TEXT	SEGMENT
this$ = 48
i$ = 56
??A?$tvec4@_N$0A@@glm@@QEAAAEA_NH@Z PROC		; glm::tvec4<bool,0>::operator[], COMDAT

; 329  : 	{

$LN5:
	mov	DWORD PTR [rsp+16], edx
	mov	QWORD PTR [rsp+8], rcx
	push	rdi
	sub	rsp, 32					; 00000020H

; 330  : 		assert(i >= 0 && i < this->length());

	cmp	DWORD PTR i$[rsp], 0
	jl	SHORT $LN3@operator
	call	?length@?$tvec4@_N$0A@@glm@@SAHXZ	; glm::tvec4<bool,0>::length
	cmp	DWORD PTR i$[rsp], eax
	jl	SHORT $LN4@operator
$LN3@operator:
	mov	r8d, 330				; 0000014aH
	lea	rdx, OFFSET FLAT:??_C@_1LG@LAANPDHN@?$AAC?$AA?3?$AA?2?$AAU?$AAs?$AAe?$AAr?$AAs?$AA?2?$AAk?$AAs?$AAa?$AAr?$AAt?$AA?2@
	lea	rcx, OFFSET FLAT:??_C@_1DK@BGNCJAPL@?$AAi?$AA?5?$AA?$DO?$AA?$DN?$AA?5?$AA0?$AA?5?$AA?$CG?$AA?$CG?$AA?5?$AAi?$AA?5?$AA?$DM?$AA?5?$AAt@
	call	QWORD PTR __imp__wassert
	xor	eax, eax
$LN4@operator:

; 331  : 		return (&x)[i];

	movsxd	rax, DWORD PTR i$[rsp]
	mov	rcx, QWORD PTR this$[rsp]
	add	rcx, rax
	mov	rax, rcx

; 332  : 	}

	add	rsp, 32					; 00000020H
	pop	rdi
	ret	0
??A?$tvec4@_N$0A@@glm@@QEAAAEA_NH@Z ENDP		; glm::tvec4<bool,0>::operator[]
_TEXT	ENDS
; Function compile flags: /Odtp /RTCsu
; File C:\Users\ksart\OneDrive\Desktop\FlappyBird\libraries\external\glm\glm\detail\type_vec4.hpp
;	COMDAT ?length@?$tvec4@_N$0A@@glm@@SAHXZ
_TEXT	SEGMENT
?length@?$tvec4@_N$0A@@glm@@SAHXZ PROC			; glm::tvec4<bool,0>::length, COMDAT

; 85   : 		GLM_FUNC_DECL static length_type length(){return 4;}

$LN3:
	push	rdi
	mov	eax, 4
	pop	rdi
	ret	0
?length@?$tvec4@_N$0A@@glm@@SAHXZ ENDP			; glm::tvec4<bool,0>::length
_TEXT	ENDS
; Function compile flags: /Odtp /RTCsu
; File C:\Users\ksart\OneDrive\Desktop\FlappyBird\libraries\external\glm\glm\gtc\epsilon.inl
;	COMDAT ??$epsilonEqual@M$0A@@glm@@YA?AU?$tvec4@_N$0A@@0@AEBU?$tquat@M$0A@@0@0AEBM@Z
_TEXT	SEGMENT
v$ = 56
$T4 = 84
$T5 = 100
tv80 = 116
tv83 = 120
__$ReturnUdt$ = 144
x$ = 152
y$ = 160
epsilon$ = 168
??$epsilonEqual@M$0A@@glm@@YA?AU?$tvec4@_N$0A@@0@AEBU?$tquat@M$0A@@0@0AEBM@Z PROC ; glm::epsilonEqual<float,0>, COMDAT

; 109  : 	{

$LN3:
	mov	QWORD PTR [rsp+32], r9
	mov	QWORD PTR [rsp+24], r8
	mov	QWORD PTR [rsp+16], rdx
	mov	QWORD PTR [rsp+8], rcx
	push	rdi
	sub	rsp, 128				; 00000080H
	lea	rdi, QWORD PTR [rsp+48]
	mov	ecx, 20
	mov	eax, -858993460				; ccccccccH
	rep stosd
	mov	rcx, QWORD PTR [rsp+144]

; 110  : 		tvec4<T, P> v(x.x - y.x, x.y - y.y, x.z - y.z, x.w - y.w);

	mov	rax, QWORD PTR x$[rsp]
	mov	rcx, QWORD PTR y$[rsp]
	movss	xmm0, DWORD PTR [rax+12]
	subss	xmm0, DWORD PTR [rcx+12]
	mov	rax, QWORD PTR x$[rsp]
	mov	rcx, QWORD PTR y$[rsp]
	movss	xmm1, DWORD PTR [rax+8]
	subss	xmm1, DWORD PTR [rcx+8]
	mov	rax, QWORD PTR x$[rsp]
	mov	rcx, QWORD PTR y$[rsp]
	movss	xmm2, DWORD PTR [rax+4]
	subss	xmm2, DWORD PTR [rcx+4]
	mov	rax, QWORD PTR x$[rsp]
	mov	rcx, QWORD PTR y$[rsp]
	movss	xmm3, DWORD PTR [rax]
	subss	xmm3, DWORD PTR [rcx]
	movss	DWORD PTR tv80[rsp], xmm3
	movss	DWORD PTR [rsp+32], xmm0
	movaps	xmm3, xmm1
	movss	xmm0, DWORD PTR tv80[rsp]
	movaps	xmm1, xmm0
	lea	rcx, QWORD PTR v$[rsp]
	call	??0?$tvec4@M$0A@@glm@@QEAA@MMMM@Z	; glm::tvec4<float,0>::tvec4<float,0>

; 111  : 		return lessThan(abs(v), tvec4<T, P>(epsilon));

	mov	rax, QWORD PTR epsilon$[rsp]
	movss	xmm1, DWORD PTR [rax]
	lea	rcx, QWORD PTR $T4[rsp]
	call	??0?$tvec4@M$0A@@glm@@QEAA@M@Z		; glm::tvec4<float,0>::tvec4<float,0>
	mov	QWORD PTR tv83[rsp], rax
	lea	rdx, QWORD PTR v$[rsp]
	lea	rcx, QWORD PTR $T5[rsp]
	call	??$abs@M$0A@Utvec4@glm@@@glm@@YA?AU?$tvec4@M$0A@@0@AEBU10@@Z ; glm::abs<float,0,glm::tvec4>
	mov	rcx, QWORD PTR tv83[rsp]
	mov	r8, rcx
	mov	rdx, rax
	mov	rcx, QWORD PTR __$ReturnUdt$[rsp]
	call	??$lessThan@M$0A@Utvec4@glm@@@glm@@YA?AU?$tvec4@_N$0A@@0@AEBU?$tvec4@M$0A@@0@0@Z ; glm::lessThan<float,0,glm::tvec4>
	mov	rax, QWORD PTR __$ReturnUdt$[rsp]

; 112  : 	}

	mov	rdi, rax
	mov	rcx, rsp
	lea	rdx, OFFSET FLAT:??$epsilonEqual@M$0A@@glm@@YA?AU?$tvec4@_N$0A@@0@AEBU?$tquat@M$0A@@0@0AEBM@Z$rtcFrameData
	call	_RTC_CheckStackVars
	mov	rax, rdi
	add	rsp, 128				; 00000080H
	pop	rdi
	ret	0
??$epsilonEqual@M$0A@@glm@@YA?AU?$tvec4@_N$0A@@0@AEBU?$tquat@M$0A@@0@0AEBM@Z ENDP ; glm::epsilonEqual<float,0>
_TEXT	ENDS
; Function compile flags: /Odtp /RTCsu
; File C:\Users\ksart\OneDrive\Desktop\FlappyBird\libraries\external\glm\glm\gtc\quaternion.inl
;	COMDAT ??$slerp@M$0A@@glm@@YA?AU?$tquat@M$0A@@0@AEBU10@0M@Z
_TEXT	SEGMENT
z$ = 56
cosTheta$ = 84
angle$4 = 88
$T5 = 92
$T6 = 108
$T7 = 112
$T8 = 116
$T9 = 120
$T10 = 124
$T11 = 128
$T12 = 132
$T13 = 148
$T14 = 152
$T15 = 168
tv141 = 184
__$ReturnUdt$ = 224
x$ = 232
y$ = 240
a$ = 248
??$slerp@M$0A@@glm@@YA?AU?$tquat@M$0A@@0@AEBU10@0M@Z PROC ; glm::slerp<float,0>, COMDAT

; 509  : 	{

$LN6:
	movss	DWORD PTR [rsp+32], xmm3
	mov	QWORD PTR [rsp+24], r8
	mov	QWORD PTR [rsp+16], rdx
	mov	QWORD PTR [rsp+8], rcx
	push	rsi
	push	rdi
	sub	rsp, 200				; 000000c8H
	lea	rdi, QWORD PTR [rsp+48]
	mov	ecx, 38					; 00000026H
	mov	eax, -858993460				; ccccccccH
	rep stosd
	mov	rcx, QWORD PTR [rsp+224]

; 510  : 		tquat<T, P> z = y;

	lea	rax, QWORD PTR z$[rsp]
	mov	rdi, rax
	mov	rsi, QWORD PTR y$[rsp]
	mov	ecx, 16
	rep movsb

; 511  : 
; 512  : 		T cosTheta = dot(x, y);

	mov	rdx, QWORD PTR y$[rsp]
	mov	rcx, QWORD PTR x$[rsp]
	call	??$dot@M$0A@Utquat@glm@@@glm@@YAMAEBU?$tquat@M$0A@@0@0@Z ; glm::dot<float,0,glm::tquat>
	movss	DWORD PTR cosTheta$[rsp], xmm0

; 513  : 
; 514  : 		// If cosTheta < 0, the interpolation will take the long way around the sphere. 
; 515  : 		// To fix this, one quat must be negated.
; 516  : 		if (cosTheta < T(0))

	xorps	xmm0, xmm0
	comiss	xmm0, DWORD PTR cosTheta$[rsp]
	jbe	SHORT $LN2@slerp

; 517  : 		{
; 518  : 			z        = -y;

	mov	rdx, QWORD PTR y$[rsp]
	lea	rcx, QWORD PTR $T5[rsp]
	call	??$?GM$0A@@glm@@YA?AU?$tquat@M$0A@@0@AEBU10@@Z ; glm::operator-<float,0>
	lea	rcx, QWORD PTR z$[rsp]
	mov	rdi, rcx
	mov	rsi, rax
	mov	ecx, 16
	rep movsb

; 519  : 			cosTheta = -cosTheta;

	movss	xmm0, DWORD PTR cosTheta$[rsp]
	xorps	xmm0, DWORD PTR __xmm@80000000800000008000000080000000
	movss	DWORD PTR cosTheta$[rsp], xmm0
$LN2@slerp:

; 520  : 		}
; 521  : 
; 522  : 		// Perform a linear interpolation when cosTheta is close to 1 to avoid side effect of sin(angle) becoming a zero denominator
; 523  : 		if(cosTheta > T(1) - epsilon<T>())

	call	??$epsilon@M@glm@@YAMXZ			; glm::epsilon<float>
	movss	xmm1, DWORD PTR __real@3f800000
	subss	xmm1, xmm0
	movaps	xmm0, xmm1
	movss	xmm1, DWORD PTR cosTheta$[rsp]
	comiss	xmm1, xmm0
	jbe	$LN3@slerp

; 524  : 		{
; 525  : 			// Linear interpolation
; 526  : 			return tquat<T, P>(

	movss	xmm2, DWORD PTR a$[rsp]
	movss	xmm1, DWORD PTR z$[rsp+8]
	mov	rax, QWORD PTR x$[rsp]
	movss	xmm0, DWORD PTR [rax+8]
	call	??$mix@MM@glm@@YAMMMM@Z			; glm::mix<float,float>
	movss	DWORD PTR $T6[rsp], xmm0
	movss	xmm2, DWORD PTR a$[rsp]
	movss	xmm1, DWORD PTR z$[rsp+4]
	mov	rax, QWORD PTR x$[rsp]
	movss	xmm0, DWORD PTR [rax+4]
	call	??$mix@MM@glm@@YAMMMM@Z			; glm::mix<float,float>
	movss	DWORD PTR $T7[rsp], xmm0
	movss	xmm2, DWORD PTR a$[rsp]
	movss	xmm1, DWORD PTR z$[rsp]
	mov	rax, QWORD PTR x$[rsp]
	movss	xmm0, DWORD PTR [rax]
	call	??$mix@MM@glm@@YAMMMM@Z			; glm::mix<float,float>
	movss	DWORD PTR $T8[rsp], xmm0
	movss	xmm2, DWORD PTR a$[rsp]
	movss	xmm1, DWORD PTR z$[rsp+12]
	mov	rax, QWORD PTR x$[rsp]
	movss	xmm0, DWORD PTR [rax+12]
	call	??$mix@MM@glm@@YAMMMM@Z			; glm::mix<float,float>
	movss	DWORD PTR $T9[rsp], xmm0
	lea	rax, QWORD PTR $T6[rsp]
	mov	QWORD PTR [rsp+32], rax
	lea	r9, QWORD PTR $T7[rsp]
	lea	r8, QWORD PTR $T8[rsp]
	lea	rdx, QWORD PTR $T9[rsp]
	mov	rcx, QWORD PTR __$ReturnUdt$[rsp]
	call	??0?$tquat@M$0A@@glm@@QEAA@AEBM000@Z	; glm::tquat<float,0>::tquat<float,0>
	mov	rax, QWORD PTR __$ReturnUdt$[rsp]
	jmp	$LN1@slerp

; 527  : 				mix(x.w, z.w, a),
; 528  : 				mix(x.x, z.x, a),
; 529  : 				mix(x.y, z.y, a),
; 530  : 				mix(x.z, z.z, a));
; 531  : 		}

	jmp	$LN4@slerp
$LN3@slerp:

; 532  : 		else
; 533  : 		{
; 534  : 			// Essential Mathematics, page 467
; 535  : 			T angle = acos(cosTheta);

	movss	xmm0, DWORD PTR cosTheta$[rsp]
	call	?acos@@YAMM@Z				; acos
	movss	DWORD PTR angle$4[rsp], xmm0

; 536  : 			return (sin((T(1) - a) * angle) * x + sin(a * angle) * z) / sin(angle);

	movss	xmm0, DWORD PTR angle$4[rsp]
	call	?sin@@YAMM@Z				; sin
	movss	DWORD PTR $T10[rsp], xmm0
	movss	xmm0, DWORD PTR a$[rsp]
	mulss	xmm0, DWORD PTR angle$4[rsp]
	call	?sin@@YAMM@Z				; sin
	movss	DWORD PTR $T11[rsp], xmm0
	movss	xmm0, DWORD PTR __real@3f800000
	subss	xmm0, DWORD PTR a$[rsp]
	mulss	xmm0, DWORD PTR angle$4[rsp]
	call	?sin@@YAMM@Z				; sin
	movss	DWORD PTR $T13[rsp], xmm0
	lea	r8, QWORD PTR z$[rsp]
	lea	rdx, QWORD PTR $T11[rsp]
	lea	rcx, QWORD PTR $T12[rsp]
	call	??$?DM$0A@@glm@@YA?AU?$tquat@M$0A@@0@AEBMAEBU10@@Z ; glm::operator*<float,0>
	mov	QWORD PTR tv141[rsp], rax
	mov	r8, QWORD PTR x$[rsp]
	lea	rdx, QWORD PTR $T13[rsp]
	lea	rcx, QWORD PTR $T14[rsp]
	call	??$?DM$0A@@glm@@YA?AU?$tquat@M$0A@@0@AEBMAEBU10@@Z ; glm::operator*<float,0>
	mov	rcx, QWORD PTR tv141[rsp]
	mov	r8, rcx
	mov	rdx, rax
	lea	rcx, QWORD PTR $T15[rsp]
	call	??$?HM$0A@@glm@@YA?AU?$tquat@M$0A@@0@AEBU10@0@Z ; glm::operator+<float,0>
	lea	r8, QWORD PTR $T10[rsp]
	mov	rdx, rax
	mov	rcx, QWORD PTR __$ReturnUdt$[rsp]
	call	??$?KM$0A@@glm@@YA?AU?$tquat@M$0A@@0@AEBU10@AEBM@Z ; glm::operator/<float,0>
	mov	rax, QWORD PTR __$ReturnUdt$[rsp]
$LN4@slerp:
$LN1@slerp:

; 537  : 		}
; 538  : 	}

	mov	rdi, rax
	mov	rcx, rsp
	lea	rdx, OFFSET FLAT:??$slerp@M$0A@@glm@@YA?AU?$tquat@M$0A@@0@AEBU10@0M@Z$rtcFrameData
	call	_RTC_CheckStackVars
	mov	rax, rdi
	add	rsp, 200				; 000000c8H
	pop	rdi
	pop	rsi
	ret	0
??$slerp@M$0A@@glm@@YA?AU?$tquat@M$0A@@0@AEBU10@0M@Z ENDP ; glm::slerp<float,0>
_TEXT	ENDS
; Function compile flags: /Odtp /RTCsu
; File C:\Users\ksart\OneDrive\Desktop\FlappyBird\libraries\external\glm\test\gtc\gtc_quaternion.cpp
_TEXT	SEGMENT
Error$ = 48
Epsilon$ = 68
sqrt2$ = 100
id$ = 136
Y90rot$ = 184
Y180rot$ = 232
id2$ = 280
Y90rot2$ = 328
Y45rot1$ = 376
Ym45rot2$ = 424
Y45rot3$ = 472
Y45angle3$ = 516
Y45rot4$ = 552
Y90rot3$ = 600
XZ90rot$ = 648
XZ90angle$ = 692
almostid$ = 728
a$21 = 776
result$22 = 824
$T23 = 852
$T24 = 856
$T25 = 860
$T26 = 864
$T27 = 868
$T28 = 872
$T29 = 876
$T30 = 880
$T31 = 884
$T32 = 900
$T33 = 904
$T34 = 908
$T35 = 924
$T36 = 940
$T37 = 944
$T38 = 948
$T39 = 964
$T40 = 968
$T41 = 980
$T42 = 984
$T43 = 1000
$T44 = 1004
$T45 = 1008
$T46 = 1012
$T47 = 1016
$T48 = 1020
$T49 = 1024
tv91 = 1028
tv138 = 1032
tv165 = 1036
tv176 = 1040
tv197 = 1044
tv212 = 1048
tv263 = 1052
tv299 = 1056
?test_quat_slerp@@YAHXZ PROC				; test_quat_slerp

; 132  : {

$LN19:
	push	rdi
	sub	rsp, 1072				; 00000430H
	lea	rdi, QWORD PTR [rsp+48]
	mov	ecx, 256				; 00000100H
	mov	eax, -858993460				; ccccccccH
	rep stosd

; 133  : 	int Error(0);

	mov	DWORD PTR Error$[rsp], 0

; 134  : 
; 135  : 	float const Epsilon = 0.0001f;//glm::epsilon<float>();

	movss	xmm0, DWORD PTR __real@38d1b717
	movss	DWORD PTR Epsilon$[rsp], xmm0

; 136  : 
; 137  : 	float sqrt2 = sqrt(2.0f)/2.0f;

	movss	xmm0, DWORD PTR __real@40000000
	call	?sqrt@@YAMM@Z				; sqrt
	divss	xmm0, DWORD PTR __real@40000000
	movss	DWORD PTR sqrt2$[rsp], xmm0

; 138  : 	glm::quat id;

	lea	rcx, QWORD PTR id$[rsp]
	call	??0?$tquat@M$0A@@glm@@QEAA@XZ		; glm::tquat<float,0>::tquat<float,0>

; 139  : 	glm::quat Y90rot(sqrt2, 0.0f, sqrt2, 0.0f);

	xorps	xmm0, xmm0
	movss	DWORD PTR $T23[rsp], xmm0
	xorps	xmm0, xmm0
	movss	DWORD PTR $T24[rsp], xmm0
	lea	rax, QWORD PTR $T23[rsp]
	mov	QWORD PTR [rsp+32], rax
	lea	r9, QWORD PTR sqrt2$[rsp]
	lea	r8, QWORD PTR $T24[rsp]
	lea	rdx, QWORD PTR sqrt2$[rsp]
	lea	rcx, QWORD PTR Y90rot$[rsp]
	call	??0?$tquat@M$0A@@glm@@QEAA@AEBM000@Z	; glm::tquat<float,0>::tquat<float,0>

; 140  : 	glm::quat Y180rot(0.0f, 0.0f, 1.0f, 0.0f);

	xorps	xmm0, xmm0
	movss	DWORD PTR $T25[rsp], xmm0
	movss	xmm0, DWORD PTR __real@3f800000
	movss	DWORD PTR $T26[rsp], xmm0
	xorps	xmm0, xmm0
	movss	DWORD PTR $T27[rsp], xmm0
	xorps	xmm0, xmm0
	movss	DWORD PTR $T28[rsp], xmm0
	lea	rax, QWORD PTR $T25[rsp]
	mov	QWORD PTR [rsp+32], rax
	lea	r9, QWORD PTR $T26[rsp]
	lea	r8, QWORD PTR $T27[rsp]
	lea	rdx, QWORD PTR $T28[rsp]
	lea	rcx, QWORD PTR Y180rot$[rsp]
	call	??0?$tquat@M$0A@@glm@@QEAA@AEBM000@Z	; glm::tquat<float,0>::tquat<float,0>

; 141  : 
; 142  : 	// Testing a == 0
; 143  : 	// Must be id
; 144  : 	glm::quat id2 = glm::slerp(id, Y90rot, 0.0f);

	xorps	xmm3, xmm3
	lea	r8, QWORD PTR Y90rot$[rsp]
	lea	rdx, QWORD PTR id$[rsp]
	lea	rcx, QWORD PTR id2$[rsp]
	call	??$slerp@M$0A@@glm@@YA?AU?$tquat@M$0A@@0@AEBU10@0M@Z ; glm::slerp<float,0>

; 145  : 	Error += glm::all(glm::epsilonEqual(id, id2, Epsilon)) ? 0 : 1;

	lea	r9, QWORD PTR Epsilon$[rsp]
	lea	r8, QWORD PTR id2$[rsp]
	lea	rdx, QWORD PTR id$[rsp]
	lea	rcx, QWORD PTR $T29[rsp]
	call	??$epsilonEqual@M$0A@@glm@@YA?AU?$tvec4@_N$0A@@0@AEBU?$tquat@M$0A@@0@0AEBM@Z ; glm::epsilonEqual<float,0>
	mov	rcx, rax
	call	??$all@$0A@Utvec4@glm@@@glm@@YA_NAEBU?$tvec4@_N$0A@@0@@Z ; glm::all<0,glm::tvec4>
	movzx	eax, al
	test	eax, eax
	je	SHORT $LN3@test_quat_
	mov	DWORD PTR tv91[rsp], 0
	jmp	SHORT $LN4@test_quat_
$LN3@test_quat_:
	mov	DWORD PTR tv91[rsp], 1
$LN4@test_quat_:
	mov	eax, DWORD PTR tv91[rsp]
	mov	ecx, DWORD PTR Error$[rsp]
	add	ecx, eax
	mov	eax, ecx
	mov	DWORD PTR Error$[rsp], eax

; 146  : 
; 147  : 	// Testing a == 1
; 148  : 	// Must be 90 rotation on Y : 0 0.7 0 0.7
; 149  : 	glm::quat Y90rot2 = glm::slerp(id, Y90rot, 1.0f);

	movss	xmm3, DWORD PTR __real@3f800000
	lea	r8, QWORD PTR Y90rot$[rsp]
	lea	rdx, QWORD PTR id$[rsp]
	lea	rcx, QWORD PTR Y90rot2$[rsp]
	call	??$slerp@M$0A@@glm@@YA?AU?$tquat@M$0A@@0@AEBU10@0M@Z ; glm::slerp<float,0>

; 150  : 	Error += glm::all(glm::epsilonEqual(Y90rot, Y90rot2, Epsilon)) ? 0 : 1;

	lea	r9, QWORD PTR Epsilon$[rsp]
	lea	r8, QWORD PTR Y90rot2$[rsp]
	lea	rdx, QWORD PTR Y90rot$[rsp]
	lea	rcx, QWORD PTR $T30[rsp]
	call	??$epsilonEqual@M$0A@@glm@@YA?AU?$tvec4@_N$0A@@0@AEBU?$tquat@M$0A@@0@0AEBM@Z ; glm::epsilonEqual<float,0>
	mov	rcx, rax
	call	??$all@$0A@Utvec4@glm@@@glm@@YA_NAEBU?$tvec4@_N$0A@@0@@Z ; glm::all<0,glm::tvec4>
	movzx	eax, al
	test	eax, eax
	je	SHORT $LN5@test_quat_
	mov	DWORD PTR tv138[rsp], 0
	jmp	SHORT $LN6@test_quat_
$LN5@test_quat_:
	mov	DWORD PTR tv138[rsp], 1
$LN6@test_quat_:
	mov	eax, DWORD PTR tv138[rsp]
	mov	ecx, DWORD PTR Error$[rsp]
	add	ecx, eax
	mov	eax, ecx
	mov	DWORD PTR Error$[rsp], eax

; 151  : 
; 152  : 	// Testing standard, easy case
; 153  : 	// Must be 45 rotation on Y : 0 0.38 0 0.92
; 154  : 	glm::quat Y45rot1 = glm::slerp(id, Y90rot, 0.5f);

	movss	xmm3, DWORD PTR __real@3f000000
	lea	r8, QWORD PTR Y90rot$[rsp]
	lea	rdx, QWORD PTR id$[rsp]
	lea	rcx, QWORD PTR Y45rot1$[rsp]
	call	??$slerp@M$0A@@glm@@YA?AU?$tquat@M$0A@@0@AEBU10@0M@Z ; glm::slerp<float,0>

; 155  : 
; 156  : 	// Testing reverse case
; 157  : 	// Must be 45 rotation on Y : 0 0.38 0 0.92
; 158  : 	glm::quat Ym45rot2 = glm::slerp(Y90rot, id, 0.5f);

	movss	xmm3, DWORD PTR __real@3f000000
	lea	r8, QWORD PTR id$[rsp]
	lea	rdx, QWORD PTR Y90rot$[rsp]
	lea	rcx, QWORD PTR Ym45rot2$[rsp]
	call	??$slerp@M$0A@@glm@@YA?AU?$tquat@M$0A@@0@AEBU10@0M@Z ; glm::slerp<float,0>

; 159  : 
; 160  : 	// Testing against full circle around the sphere instead of shortest path
; 161  : 	// Must be 45 rotation on Y
; 162  : 	// certainly not a 135 rotation
; 163  : 	glm::quat Y45rot3 = glm::slerp(id , -Y90rot, 0.5f);

	lea	rdx, QWORD PTR Y90rot$[rsp]
	lea	rcx, QWORD PTR $T31[rsp]
	call	??$?GM$0A@@glm@@YA?AU?$tquat@M$0A@@0@AEBU10@@Z ; glm::operator-<float,0>
	movss	xmm3, DWORD PTR __real@3f000000
	mov	r8, rax
	lea	rdx, QWORD PTR id$[rsp]
	lea	rcx, QWORD PTR Y45rot3$[rsp]
	call	??$slerp@M$0A@@glm@@YA?AU?$tquat@M$0A@@0@AEBU10@0M@Z ; glm::slerp<float,0>

; 164  : 	float Y45angle3 = glm::angle(Y45rot3);

	lea	rcx, QWORD PTR Y45rot3$[rsp]
	call	??$angle@M$0A@@glm@@YAMAEBU?$tquat@M$0A@@0@@Z ; glm::angle<float,0>
	movss	DWORD PTR Y45angle3$[rsp], xmm0

; 165  : 	Error += glm::epsilonEqual(Y45angle3, glm::pi<float>() * 0.25f, Epsilon) ? 0 : 1;

	call	??$pi@M@glm@@YAMXZ			; glm::pi<float>
	mulss	xmm0, DWORD PTR __real@3e800000
	movss	DWORD PTR $T32[rsp], xmm0
	lea	r8, QWORD PTR Epsilon$[rsp]
	lea	rdx, QWORD PTR $T32[rsp]
	lea	rcx, QWORD PTR Y45angle3$[rsp]
	call	??$epsilonEqual@M@glm@@YA_NAEBM00@Z	; glm::epsilonEqual<float>
	movzx	eax, al
	test	eax, eax
	je	SHORT $LN7@test_quat_
	mov	DWORD PTR tv165[rsp], 0
	jmp	SHORT $LN8@test_quat_
$LN7@test_quat_:
	mov	DWORD PTR tv165[rsp], 1
$LN8@test_quat_:
	mov	eax, DWORD PTR tv165[rsp]
	mov	ecx, DWORD PTR Error$[rsp]
	add	ecx, eax
	mov	eax, ecx
	mov	DWORD PTR Error$[rsp], eax

; 166  : 	Error += glm::all(glm::epsilonEqual(Ym45rot2, Y45rot3, Epsilon)) ? 0 : 1;

	lea	r9, QWORD PTR Epsilon$[rsp]
	lea	r8, QWORD PTR Y45rot3$[rsp]
	lea	rdx, QWORD PTR Ym45rot2$[rsp]
	lea	rcx, QWORD PTR $T33[rsp]
	call	??$epsilonEqual@M$0A@@glm@@YA?AU?$tvec4@_N$0A@@0@AEBU?$tquat@M$0A@@0@0AEBM@Z ; glm::epsilonEqual<float,0>
	mov	rcx, rax
	call	??$all@$0A@Utvec4@glm@@@glm@@YA_NAEBU?$tvec4@_N$0A@@0@@Z ; glm::all<0,glm::tvec4>
	movzx	eax, al
	test	eax, eax
	je	SHORT $LN9@test_quat_
	mov	DWORD PTR tv176[rsp], 0
	jmp	SHORT $LN10@test_quat_
$LN9@test_quat_:
	mov	DWORD PTR tv176[rsp], 1
$LN10@test_quat_:
	mov	eax, DWORD PTR tv176[rsp]
	mov	ecx, DWORD PTR Error$[rsp]
	add	ecx, eax
	mov	eax, ecx
	mov	DWORD PTR Error$[rsp], eax

; 167  : 
; 168  : 	// Same, but inverted
; 169  : 	// Must also be 45 rotation on Y :  0 0.38 0 0.92
; 170  : 	// -0 -0.38 -0 -0.92 is ok too
; 171  : 	glm::quat Y45rot4 = glm::slerp(-Y90rot, id, 0.5f);

	lea	rdx, QWORD PTR Y90rot$[rsp]
	lea	rcx, QWORD PTR $T34[rsp]
	call	??$?GM$0A@@glm@@YA?AU?$tquat@M$0A@@0@AEBU10@@Z ; glm::operator-<float,0>
	movss	xmm3, DWORD PTR __real@3f000000
	lea	r8, QWORD PTR id$[rsp]
	mov	rdx, rax
	lea	rcx, QWORD PTR Y45rot4$[rsp]
	call	??$slerp@M$0A@@glm@@YA?AU?$tquat@M$0A@@0@AEBU10@0M@Z ; glm::slerp<float,0>

; 172  : 	Error += glm::all(glm::epsilonEqual(Ym45rot2, -Y45rot4, Epsilon)) ? 0 : 1;

	lea	rdx, QWORD PTR Y45rot4$[rsp]
	lea	rcx, QWORD PTR $T35[rsp]
	call	??$?GM$0A@@glm@@YA?AU?$tquat@M$0A@@0@AEBU10@@Z ; glm::operator-<float,0>
	lea	r9, QWORD PTR Epsilon$[rsp]
	mov	r8, rax
	lea	rdx, QWORD PTR Ym45rot2$[rsp]
	lea	rcx, QWORD PTR $T36[rsp]
	call	??$epsilonEqual@M$0A@@glm@@YA?AU?$tvec4@_N$0A@@0@AEBU?$tquat@M$0A@@0@0AEBM@Z ; glm::epsilonEqual<float,0>
	mov	rcx, rax
	call	??$all@$0A@Utvec4@glm@@@glm@@YA_NAEBU?$tvec4@_N$0A@@0@@Z ; glm::all<0,glm::tvec4>
	movzx	eax, al
	test	eax, eax
	je	SHORT $LN11@test_quat_
	mov	DWORD PTR tv197[rsp], 0
	jmp	SHORT $LN12@test_quat_
$LN11@test_quat_:
	mov	DWORD PTR tv197[rsp], 1
$LN12@test_quat_:
	mov	eax, DWORD PTR tv197[rsp]
	mov	ecx, DWORD PTR Error$[rsp]
	add	ecx, eax
	mov	eax, ecx
	mov	DWORD PTR Error$[rsp], eax

; 173  : 
; 174  : 	// Testing q1 = q2
; 175  : 	// Must be 90 rotation on Y : 0 0.7 0 0.7
; 176  : 	glm::quat Y90rot3 = glm::slerp(Y90rot, Y90rot, 0.5f);

	movss	xmm3, DWORD PTR __real@3f000000
	lea	r8, QWORD PTR Y90rot$[rsp]
	lea	rdx, QWORD PTR Y90rot$[rsp]
	lea	rcx, QWORD PTR Y90rot3$[rsp]
	call	??$slerp@M$0A@@glm@@YA?AU?$tquat@M$0A@@0@AEBU10@0M@Z ; glm::slerp<float,0>

; 177  : 	Error += glm::all(glm::epsilonEqual(Y90rot, Y90rot3, Epsilon)) ? 0 : 1;

	lea	r9, QWORD PTR Epsilon$[rsp]
	lea	r8, QWORD PTR Y90rot3$[rsp]
	lea	rdx, QWORD PTR Y90rot$[rsp]
	lea	rcx, QWORD PTR $T37[rsp]
	call	??$epsilonEqual@M$0A@@glm@@YA?AU?$tvec4@_N$0A@@0@AEBU?$tquat@M$0A@@0@0AEBM@Z ; glm::epsilonEqual<float,0>
	mov	rcx, rax
	call	??$all@$0A@Utvec4@glm@@@glm@@YA_NAEBU?$tvec4@_N$0A@@0@@Z ; glm::all<0,glm::tvec4>
	movzx	eax, al
	test	eax, eax
	je	SHORT $LN13@test_quat_
	mov	DWORD PTR tv212[rsp], 0
	jmp	SHORT $LN14@test_quat_
$LN13@test_quat_:
	mov	DWORD PTR tv212[rsp], 1
$LN14@test_quat_:
	mov	eax, DWORD PTR tv212[rsp]
	mov	ecx, DWORD PTR Error$[rsp]
	add	ecx, eax
	mov	eax, ecx
	mov	DWORD PTR Error$[rsp], eax

; 178  : 
; 179  : 	// Testing 180 rotation
; 180  : 	// Must be 90 rotation on almost any axis that is on the XZ plane
; 181  : 	glm::quat XZ90rot = glm::slerp(id, -Y90rot, 0.5f);

	lea	rdx, QWORD PTR Y90rot$[rsp]
	lea	rcx, QWORD PTR $T38[rsp]
	call	??$?GM$0A@@glm@@YA?AU?$tquat@M$0A@@0@AEBU10@@Z ; glm::operator-<float,0>
	movss	xmm3, DWORD PTR __real@3f000000
	mov	r8, rax
	lea	rdx, QWORD PTR id$[rsp]
	lea	rcx, QWORD PTR XZ90rot$[rsp]
	call	??$slerp@M$0A@@glm@@YA?AU?$tquat@M$0A@@0@AEBU10@0M@Z ; glm::slerp<float,0>

; 182  : 	float XZ90angle = glm::angle(XZ90rot); // Must be PI/4 = 0.78;

	lea	rcx, QWORD PTR XZ90rot$[rsp]
	call	??$angle@M$0A@@glm@@YAMAEBU?$tquat@M$0A@@0@@Z ; glm::angle<float,0>
	movss	DWORD PTR XZ90angle$[rsp], xmm0

; 183  : 	Error += glm::epsilonEqual(XZ90angle, glm::pi<float>() * 0.25f, Epsilon) ? 0 : 1;

	call	??$pi@M@glm@@YAMXZ			; glm::pi<float>
	mulss	xmm0, DWORD PTR __real@3e800000
	movss	DWORD PTR $T39[rsp], xmm0
	lea	r8, QWORD PTR Epsilon$[rsp]
	lea	rdx, QWORD PTR $T39[rsp]
	lea	rcx, QWORD PTR XZ90angle$[rsp]
	call	??$epsilonEqual@M@glm@@YA_NAEBM00@Z	; glm::epsilonEqual<float>
	movzx	eax, al
	test	eax, eax
	je	SHORT $LN15@test_quat_
	mov	DWORD PTR tv263[rsp], 0
	jmp	SHORT $LN16@test_quat_
$LN15@test_quat_:
	mov	DWORD PTR tv263[rsp], 1
$LN16@test_quat_:
	mov	eax, DWORD PTR tv263[rsp]
	mov	ecx, DWORD PTR Error$[rsp]
	add	ecx, eax
	mov	eax, ecx
	mov	DWORD PTR Error$[rsp], eax

; 184  : 
; 185  : 	// Testing almost equal quaternions (this test should pass through the linear interpolation)
; 186  : 	// Must be 0 0.00X 0 0.99999
; 187  : 	glm::quat almostid = glm::slerp(id, glm::angleAxis(0.1f, glm::vec3(0.0f, 1.0f, 0.0f)), 0.5f);

	movss	xmm0, DWORD PTR __real@3dcccccd
	movss	DWORD PTR $T41[rsp], xmm0
	xorps	xmm3, xmm3
	movss	xmm2, DWORD PTR __real@3f800000
	xorps	xmm1, xmm1
	lea	rcx, QWORD PTR $T40[rsp]
	call	??0?$tvec3@M$0A@@glm@@QEAA@MMM@Z	; glm::tvec3<float,0>::tvec3<float,0>
	mov	r8, rax
	lea	rdx, QWORD PTR $T41[rsp]
	lea	rcx, QWORD PTR $T42[rsp]
	call	??$angleAxis@M$0A@@glm@@YA?AU?$tquat@M$0A@@0@AEBMAEBU?$tvec3@M$0A@@0@@Z ; glm::angleAxis<float,0>
	movss	xmm3, DWORD PTR __real@3f000000
	mov	r8, rax
	lea	rdx, QWORD PTR id$[rsp]
	lea	rcx, QWORD PTR almostid$[rsp]
	call	??$slerp@M$0A@@glm@@YA?AU?$tquat@M$0A@@0@AEBU10@0M@Z ; glm::slerp<float,0>

; 188  : 
; 189  : 	// Testing quaternions with opposite sign
; 190  : 	{
; 191  : 		glm::quat a(-1, 0, 0, 0);

	xorps	xmm0, xmm0
	movss	DWORD PTR $T43[rsp], xmm0
	xorps	xmm0, xmm0
	movss	DWORD PTR $T44[rsp], xmm0
	xorps	xmm0, xmm0
	movss	DWORD PTR $T45[rsp], xmm0
	movss	xmm0, DWORD PTR __real@bf800000
	movss	DWORD PTR $T46[rsp], xmm0
	lea	rax, QWORD PTR $T43[rsp]
	mov	QWORD PTR [rsp+32], rax
	lea	r9, QWORD PTR $T44[rsp]
	lea	r8, QWORD PTR $T45[rsp]
	lea	rdx, QWORD PTR $T46[rsp]
	lea	rcx, QWORD PTR a$21[rsp]
	call	??0?$tquat@M$0A@@glm@@QEAA@AEBM000@Z	; glm::tquat<float,0>::tquat<float,0>

; 192  : 
; 193  : 		glm::quat result = glm::slerp(a, id, 0.5f);

	movss	xmm3, DWORD PTR __real@3f000000
	lea	r8, QWORD PTR id$[rsp]
	lea	rdx, QWORD PTR a$21[rsp]
	lea	rcx, QWORD PTR result$22[rsp]
	call	??$slerp@M$0A@@glm@@YA?AU?$tquat@M$0A@@0@AEBU10@0M@Z ; glm::slerp<float,0>

; 194  : 
; 195  : 		Error += glm::epsilonEqual(glm::pow(glm::dot(id, result), 2.f), 1.f, 0.01f) ? 0 : 1;

	movss	xmm0, DWORD PTR __real@3c23d70a
	movss	DWORD PTR $T47[rsp], xmm0
	movss	xmm0, DWORD PTR __real@3f800000
	movss	DWORD PTR $T48[rsp], xmm0
	lea	rdx, QWORD PTR result$22[rsp]
	lea	rcx, QWORD PTR id$[rsp]
	call	??$dot@M$0A@Utquat@glm@@@glm@@YAMAEBU?$tquat@M$0A@@0@0@Z ; glm::dot<float,0,glm::tquat>
	movss	xmm1, DWORD PTR __real@40000000
	call	?pow@@YAMMM@Z				; pow
	movss	DWORD PTR $T49[rsp], xmm0
	lea	r8, QWORD PTR $T47[rsp]
	lea	rdx, QWORD PTR $T48[rsp]
	lea	rcx, QWORD PTR $T49[rsp]
	call	??$epsilonEqual@M@glm@@YA_NAEBM00@Z	; glm::epsilonEqual<float>
	movzx	eax, al
	test	eax, eax
	je	SHORT $LN17@test_quat_
	mov	DWORD PTR tv299[rsp], 0
	jmp	SHORT $LN18@test_quat_
$LN17@test_quat_:
	mov	DWORD PTR tv299[rsp], 1
$LN18@test_quat_:
	mov	eax, DWORD PTR tv299[rsp]
	mov	ecx, DWORD PTR Error$[rsp]
	add	ecx, eax
	mov	eax, ecx
	mov	DWORD PTR Error$[rsp], eax

; 196  : 	}
; 197  : 
; 198  : 	return Error;

	mov	eax, DWORD PTR Error$[rsp]

; 199  : }

	mov	edi, eax
	mov	rcx, rsp
	lea	rdx, OFFSET FLAT:?test_quat_slerp@@YAHXZ$rtcFrameData
	call	_RTC_CheckStackVars
	mov	eax, edi
	add	rsp, 1072				; 00000430H
	pop	rdi
	ret	0
?test_quat_slerp@@YAHXZ ENDP				; test_quat_slerp
_TEXT	ENDS
; Function compile flags: /Odtp /RTCsu
; File C:\Users\ksart\OneDrive\Desktop\FlappyBird\libraries\external\glm\glm\gtc\quaternion.inl
;	COMDAT ??$eulerAngles@N$0A@@glm@@YA?AU?$tvec3@N$0A@@0@AEBU?$tquat@N$0A@@0@@Z
_TEXT	SEGMENT
tv66 = 32
tv69 = 40
__$ReturnUdt$ = 64
x$ = 72
??$eulerAngles@N$0A@@glm@@YA?AU?$tvec3@N$0A@@0@AEBU?$tquat@N$0A@@0@@Z PROC ; glm::eulerAngles<double,0>, COMDAT

; 564  : 	{

$LN3:
	mov	QWORD PTR [rsp+16], rdx
	mov	QWORD PTR [rsp+8], rcx
	push	rdi
	sub	rsp, 48					; 00000030H

; 565  : 		return tvec3<T, P>(pitch(x), yaw(x), roll(x));

	mov	rcx, QWORD PTR x$[rsp]
	call	??$roll@N$0A@@glm@@YANAEBU?$tquat@N$0A@@0@@Z ; glm::roll<double,0>
	movsd	QWORD PTR tv66[rsp], xmm0
	mov	rcx, QWORD PTR x$[rsp]
	call	??$yaw@N$0A@@glm@@YANAEBU?$tquat@N$0A@@0@@Z ; glm::yaw<double,0>
	movsd	QWORD PTR tv69[rsp], xmm0
	mov	rcx, QWORD PTR x$[rsp]
	call	??$pitch@N$0A@@glm@@YANAEBU?$tquat@N$0A@@0@@Z ; glm::pitch<double,0>
	movsd	xmm1, QWORD PTR tv66[rsp]
	movaps	xmm3, xmm1
	movsd	xmm1, QWORD PTR tv69[rsp]
	movaps	xmm2, xmm1
	movaps	xmm1, xmm0
	mov	rcx, QWORD PTR __$ReturnUdt$[rsp]
	call	??0?$tvec3@N$0A@@glm@@QEAA@NNN@Z	; glm::tvec3<double,0>::tvec3<double,0>
	mov	rax, QWORD PTR __$ReturnUdt$[rsp]

; 566  : 	}

	add	rsp, 48					; 00000030H
	pop	rdi
	ret	0
??$eulerAngles@N$0A@@glm@@YA?AU?$tvec3@N$0A@@0@AEBU?$tquat@N$0A@@0@@Z ENDP ; glm::eulerAngles<double,0>
_TEXT	ENDS
; Function compile flags: /Odtp /RTCsu
; File C:\Users\ksart\OneDrive\Desktop\FlappyBird\libraries\external\glm\glm\detail\type_vec3.inl
;	COMDAT ??0?$tvec3@N$0A@@glm@@QEAA@NNN@Z
_TEXT	SEGMENT
this$ = 16
a$ = 24
b$ = 32
c$ = 40
??0?$tvec3@N$0A@@glm@@QEAA@NNN@Z PROC			; glm::tvec3<double,0>::tvec3<double,0>, COMDAT

; 70   : 	{}

$LN3:
	movsd	QWORD PTR [rsp+32], xmm3
	movsd	QWORD PTR [rsp+24], xmm2
	movsd	QWORD PTR [rsp+16], xmm1
	mov	QWORD PTR [rsp+8], rcx
	push	rdi

; 69   : 		: x(a), y(b), z(c)

	mov	rax, QWORD PTR this$[rsp]
	movsd	xmm0, QWORD PTR a$[rsp]
	movsd	QWORD PTR [rax], xmm0
	mov	rax, QWORD PTR this$[rsp]
	movsd	xmm0, QWORD PTR b$[rsp]
	movsd	QWORD PTR [rax+8], xmm0
	mov	rax, QWORD PTR this$[rsp]
	movsd	xmm0, QWORD PTR c$[rsp]
	movsd	QWORD PTR [rax+16], xmm0

; 70   : 	{}

	mov	rax, QWORD PTR this$[rsp]
	pop	rdi
	ret	0
??0?$tvec3@N$0A@@glm@@QEAA@NNN@Z ENDP			; glm::tvec3<double,0>::tvec3<double,0>
_TEXT	ENDS
; Function compile flags: /Odtp /RTCsu
; File C:\Users\ksart\OneDrive\Desktop\FlappyBird\libraries\external\glm\glm\gtc\quaternion.inl
;	COMDAT ??$yaw@N$0A@@glm@@YANAEBU?$tquat@N$0A@@0@@Z
_TEXT	SEGMENT
q$ = 64
??$yaw@N$0A@@glm@@YANAEBU?$tquat@N$0A@@0@@Z PROC	; glm::yaw<double,0>, COMDAT

; 582  : 	{

$LN3:
	mov	QWORD PTR [rsp+8], rcx
	push	rdi
	sub	rsp, 48					; 00000030H

; 583  : 		return asin(clamp(T(-2) * (q.x * q.z - q.w * q.y), T(-1), T(1)));

	mov	rax, QWORD PTR q$[rsp]
	mov	rcx, QWORD PTR q$[rsp]
	movsd	xmm0, QWORD PTR [rax]
	mulsd	xmm0, QWORD PTR [rcx+16]
	mov	rax, QWORD PTR q$[rsp]
	mov	rcx, QWORD PTR q$[rsp]
	movsd	xmm1, QWORD PTR [rax+24]
	mulsd	xmm1, QWORD PTR [rcx+8]
	subsd	xmm0, xmm1
	movsd	xmm1, QWORD PTR __real@c000000000000000
	mulsd	xmm1, xmm0
	movaps	xmm0, xmm1
	movsd	xmm2, QWORD PTR __real@3ff0000000000000
	movsd	xmm1, QWORD PTR __real@bff0000000000000
	call	??$clamp@N@glm@@YANNNN@Z		; glm::clamp<double>
	call	asin

; 584  : 	}

	add	rsp, 48					; 00000030H
	pop	rdi
	ret	0
??$yaw@N$0A@@glm@@YANAEBU?$tquat@N$0A@@0@@Z ENDP	; glm::yaw<double,0>
_TEXT	ENDS
; Function compile flags: /Odtp /RTCsu
; File C:\Users\ksart\OneDrive\Desktop\FlappyBird\libraries\external\glm\glm\gtc\quaternion.inl
;	COMDAT ??$pitch@N$0A@@glm@@YANAEBU?$tquat@N$0A@@0@@Z
_TEXT	SEGMENT
tv88 = 48
q$ = 80
??$pitch@N$0A@@glm@@YANAEBU?$tquat@N$0A@@0@@Z PROC	; glm::pitch<double,0>, COMDAT

; 576  : 	{

$LN3:
	mov	QWORD PTR [rsp+8], rcx
	push	rdi
	sub	rsp, 64					; 00000040H

; 577  : 		return T(atan(T(2) * (q.y * q.z + q.w * q.x), q.w * q.w - q.x * q.x - q.y * q.y + q.z * q.z));

	mov	rax, QWORD PTR q$[rsp]
	mov	rcx, QWORD PTR q$[rsp]
	movsd	xmm0, QWORD PTR [rax+24]
	mulsd	xmm0, QWORD PTR [rcx+24]
	mov	rax, QWORD PTR q$[rsp]
	mov	rcx, QWORD PTR q$[rsp]
	movsd	xmm1, QWORD PTR [rax]
	mulsd	xmm1, QWORD PTR [rcx]
	subsd	xmm0, xmm1
	mov	rax, QWORD PTR q$[rsp]
	mov	rcx, QWORD PTR q$[rsp]
	movsd	xmm1, QWORD PTR [rax+8]
	mulsd	xmm1, QWORD PTR [rcx+8]
	subsd	xmm0, xmm1
	mov	rax, QWORD PTR q$[rsp]
	mov	rcx, QWORD PTR q$[rsp]
	movsd	xmm1, QWORD PTR [rax+16]
	mulsd	xmm1, QWORD PTR [rcx+16]
	addsd	xmm0, xmm1
	mov	rax, QWORD PTR q$[rsp]
	mov	rcx, QWORD PTR q$[rsp]
	movsd	xmm1, QWORD PTR [rax+8]
	mulsd	xmm1, QWORD PTR [rcx+16]
	mov	rax, QWORD PTR q$[rsp]
	mov	rcx, QWORD PTR q$[rsp]
	movsd	xmm2, QWORD PTR [rax+24]
	mulsd	xmm2, QWORD PTR [rcx]
	addsd	xmm1, xmm2
	movsd	xmm2, QWORD PTR __real@4000000000000000
	mulsd	xmm2, xmm1
	movaps	xmm1, xmm2
	movsd	QWORD PTR tv88[rsp], xmm1
	movaps	xmm1, xmm0
	movsd	xmm0, QWORD PTR tv88[rsp]
	call	??$atan@N@glm@@YANNN@Z			; glm::atan<double>

; 578  : 	}

	add	rsp, 64					; 00000040H
	pop	rdi
	ret	0
??$pitch@N$0A@@glm@@YANAEBU?$tquat@N$0A@@0@@Z ENDP	; glm::pitch<double,0>
_TEXT	ENDS
; Function compile flags: /Odtp /RTCsu
; File C:\Users\ksart\OneDrive\Desktop\FlappyBird\libraries\external\glm\glm\gtc\quaternion.inl
;	COMDAT ??$roll@N$0A@@glm@@YANAEBU?$tquat@N$0A@@0@@Z
_TEXT	SEGMENT
tv88 = 48
q$ = 80
??$roll@N$0A@@glm@@YANAEBU?$tquat@N$0A@@0@@Z PROC	; glm::roll<double,0>, COMDAT

; 570  : 	{

$LN3:
	mov	QWORD PTR [rsp+8], rcx
	push	rdi
	sub	rsp, 64					; 00000040H

; 571  : 		return T(atan(T(2) * (q.x * q.y + q.w * q.z), q.w * q.w + q.x * q.x - q.y * q.y - q.z * q.z));

	mov	rax, QWORD PTR q$[rsp]
	mov	rcx, QWORD PTR q$[rsp]
	movsd	xmm0, QWORD PTR [rax+24]
	mulsd	xmm0, QWORD PTR [rcx+24]
	mov	rax, QWORD PTR q$[rsp]
	mov	rcx, QWORD PTR q$[rsp]
	movsd	xmm1, QWORD PTR [rax]
	mulsd	xmm1, QWORD PTR [rcx]
	addsd	xmm0, xmm1
	mov	rax, QWORD PTR q$[rsp]
	mov	rcx, QWORD PTR q$[rsp]
	movsd	xmm1, QWORD PTR [rax+8]
	mulsd	xmm1, QWORD PTR [rcx+8]
	subsd	xmm0, xmm1
	mov	rax, QWORD PTR q$[rsp]
	mov	rcx, QWORD PTR q$[rsp]
	movsd	xmm1, QWORD PTR [rax+16]
	mulsd	xmm1, QWORD PTR [rcx+16]
	subsd	xmm0, xmm1
	mov	rax, QWORD PTR q$[rsp]
	mov	rcx, QWORD PTR q$[rsp]
	movsd	xmm1, QWORD PTR [rax]
	mulsd	xmm1, QWORD PTR [rcx+8]
	mov	rax, QWORD PTR q$[rsp]
	mov	rcx, QWORD PTR q$[rsp]
	movsd	xmm2, QWORD PTR [rax+24]
	mulsd	xmm2, QWORD PTR [rcx+16]
	addsd	xmm1, xmm2
	movsd	xmm2, QWORD PTR __real@4000000000000000
	mulsd	xmm2, xmm1
	movaps	xmm1, xmm2
	movsd	QWORD PTR tv88[rsp], xmm1
	movaps	xmm1, xmm0
	movsd	xmm0, QWORD PTR tv88[rsp]
	call	??$atan@N@glm@@YANNN@Z			; glm::atan<double>

; 572  : 	}

	add	rsp, 64					; 00000040H
	pop	rdi
	ret	0
??$roll@N$0A@@glm@@YANAEBU?$tquat@N$0A@@0@@Z ENDP	; glm::roll<double,0>
_TEXT	ENDS
; Function compile flags: /Odtp /RTCsu
; File C:\Users\ksart\OneDrive\Desktop\FlappyBird\libraries\external\glm\glm\gtc\quaternion.inl
;	COMDAT ??0?$tquat@N$0A@@glm@@QEAA@AEBN000@Z
_TEXT	SEGMENT
this$ = 16
w$ = 24
x$ = 32
y$ = 40
z$ = 48
??0?$tquat@N$0A@@glm@@QEAA@AEBN000@Z PROC		; glm::tquat<double,0>::tquat<double,0>, COMDAT

; 122  : 	{}

$LN3:
	mov	QWORD PTR [rsp+32], r9
	mov	QWORD PTR [rsp+24], r8
	mov	QWORD PTR [rsp+16], rdx
	mov	QWORD PTR [rsp+8], rcx
	push	rdi

; 121  : 		: x(x), y(y), z(z), w(w)

	mov	rax, QWORD PTR this$[rsp]
	mov	rcx, QWORD PTR x$[rsp]
	movsd	xmm0, QWORD PTR [rcx]
	movsd	QWORD PTR [rax], xmm0
	mov	rax, QWORD PTR this$[rsp]
	mov	rcx, QWORD PTR y$[rsp]
	movsd	xmm0, QWORD PTR [rcx]
	movsd	QWORD PTR [rax+8], xmm0
	mov	rax, QWORD PTR this$[rsp]
	mov	rcx, QWORD PTR z$[rsp]
	movsd	xmm0, QWORD PTR [rcx]
	movsd	QWORD PTR [rax+16], xmm0
	mov	rax, QWORD PTR this$[rsp]
	mov	rcx, QWORD PTR w$[rsp]
	movsd	xmm0, QWORD PTR [rcx]
	movsd	QWORD PTR [rax+24], xmm0

; 122  : 	{}

	mov	rax, QWORD PTR this$[rsp]
	pop	rdi
	ret	0
??0?$tquat@N$0A@@glm@@QEAA@AEBN000@Z ENDP		; glm::tquat<double,0>::tquat<double,0>
_TEXT	ENDS
; Function compile flags: /Odtp /RTCsu
; File C:\Users\ksart\OneDrive\Desktop\FlappyBird\libraries\external\glm\glm\gtc\quaternion.inl
;	COMDAT ??0?$tquat@N$0A@@glm@@QEAA@XZ
_TEXT	SEGMENT
this$ = 16
??0?$tquat@N$0A@@glm@@QEAA@XZ PROC			; glm::tquat<double,0>::tquat<double,0>, COMDAT

; 92   : 		{}

$LN3:
	mov	QWORD PTR [rsp+8], rcx
	push	rdi

; 90   : 				: x(0), y(0), z(0), w(1)

	mov	rax, QWORD PTR this$[rsp]
	xorps	xmm0, xmm0
	movsd	QWORD PTR [rax], xmm0
	mov	rax, QWORD PTR this$[rsp]
	xorps	xmm0, xmm0
	movsd	QWORD PTR [rax+8], xmm0
	mov	rax, QWORD PTR this$[rsp]
	xorps	xmm0, xmm0
	movsd	QWORD PTR [rax+16], xmm0
	mov	rax, QWORD PTR this$[rsp]
	movsd	xmm0, QWORD PTR __real@3ff0000000000000
	movsd	QWORD PTR [rax+24], xmm0

; 92   : 		{}

	mov	rax, QWORD PTR this$[rsp]
	pop	rdi
	ret	0
??0?$tquat@N$0A@@glm@@QEAA@XZ ENDP			; glm::tquat<double,0>::tquat<double,0>
_TEXT	ENDS
; Function compile flags: /Odtp /RTCsu
; File C:\Users\ksart\OneDrive\Desktop\FlappyBird\libraries\external\glm\glm\gtc\quaternion.hpp
;	COMDAT ?length@?$tquat@N$0A@@glm@@SAHXZ
_TEXT	SEGMENT
?length@?$tquat@N$0A@@glm@@SAHXZ PROC			; glm::tquat<double,0>::length, COMDAT

; 74   : 		GLM_FUNC_DECL static length_type length(){return 4;}

$LN3:
	push	rdi
	mov	eax, 4
	pop	rdi
	ret	0
?length@?$tquat@N$0A@@glm@@SAHXZ ENDP			; glm::tquat<double,0>::length
_TEXT	ENDS
; Function compile flags: /Odtp /RTCsu
; File C:\Users\ksart\OneDrive\Desktop\FlappyBird\libraries\external\glm\glm\gtc\quaternion.inl
;	COMDAT ??$eulerAngles@M$0A@@glm@@YA?AU?$tvec3@M$0A@@0@AEBU?$tquat@M$0A@@0@@Z
_TEXT	SEGMENT
tv66 = 32
tv69 = 36
__$ReturnUdt$ = 64
x$ = 72
??$eulerAngles@M$0A@@glm@@YA?AU?$tvec3@M$0A@@0@AEBU?$tquat@M$0A@@0@@Z PROC ; glm::eulerAngles<float,0>, COMDAT

; 564  : 	{

$LN3:
	mov	QWORD PTR [rsp+16], rdx
	mov	QWORD PTR [rsp+8], rcx
	push	rdi
	sub	rsp, 48					; 00000030H

; 565  : 		return tvec3<T, P>(pitch(x), yaw(x), roll(x));

	mov	rcx, QWORD PTR x$[rsp]
	call	??$roll@M$0A@@glm@@YAMAEBU?$tquat@M$0A@@0@@Z ; glm::roll<float,0>
	movss	DWORD PTR tv66[rsp], xmm0
	mov	rcx, QWORD PTR x$[rsp]
	call	??$yaw@M$0A@@glm@@YAMAEBU?$tquat@M$0A@@0@@Z ; glm::yaw<float,0>
	movss	DWORD PTR tv69[rsp], xmm0
	mov	rcx, QWORD PTR x$[rsp]
	call	??$pitch@M$0A@@glm@@YAMAEBU?$tquat@M$0A@@0@@Z ; glm::pitch<float,0>
	movss	xmm1, DWORD PTR tv66[rsp]
	movaps	xmm3, xmm1
	movss	xmm1, DWORD PTR tv69[rsp]
	movaps	xmm2, xmm1
	movaps	xmm1, xmm0
	mov	rcx, QWORD PTR __$ReturnUdt$[rsp]
	call	??0?$tvec3@M$0A@@glm@@QEAA@MMM@Z	; glm::tvec3<float,0>::tvec3<float,0>
	mov	rax, QWORD PTR __$ReturnUdt$[rsp]

; 566  : 	}

	add	rsp, 48					; 00000030H
	pop	rdi
	ret	0
??$eulerAngles@M$0A@@glm@@YA?AU?$tvec3@M$0A@@0@AEBU?$tquat@M$0A@@0@@Z ENDP ; glm::eulerAngles<float,0>
_TEXT	ENDS
; Function compile flags: /Odtp /RTCsu
; File C:\Users\ksart\OneDrive\Desktop\FlappyBird\libraries\external\glm\glm\gtc\quaternion.inl
;	COMDAT ??$yaw@M$0A@@glm@@YAMAEBU?$tquat@M$0A@@0@@Z
_TEXT	SEGMENT
q$ = 64
??$yaw@M$0A@@glm@@YAMAEBU?$tquat@M$0A@@0@@Z PROC	; glm::yaw<float,0>, COMDAT

; 582  : 	{

$LN3:
	mov	QWORD PTR [rsp+8], rcx
	push	rdi
	sub	rsp, 48					; 00000030H

; 583  : 		return asin(clamp(T(-2) * (q.x * q.z - q.w * q.y), T(-1), T(1)));

	mov	rax, QWORD PTR q$[rsp]
	mov	rcx, QWORD PTR q$[rsp]
	movss	xmm0, DWORD PTR [rax]
	mulss	xmm0, DWORD PTR [rcx+8]
	mov	rax, QWORD PTR q$[rsp]
	mov	rcx, QWORD PTR q$[rsp]
	movss	xmm1, DWORD PTR [rax+12]
	mulss	xmm1, DWORD PTR [rcx+4]
	subss	xmm0, xmm1
	movss	xmm1, DWORD PTR __real@c0000000
	mulss	xmm1, xmm0
	movaps	xmm0, xmm1
	movss	xmm2, DWORD PTR __real@3f800000
	movss	xmm1, DWORD PTR __real@bf800000
	call	??$clamp@M@glm@@YAMMMM@Z		; glm::clamp<float>
	call	?asin@@YAMM@Z				; asin

; 584  : 	}

	add	rsp, 48					; 00000030H
	pop	rdi
	ret	0
??$yaw@M$0A@@glm@@YAMAEBU?$tquat@M$0A@@0@@Z ENDP	; glm::yaw<float,0>
_TEXT	ENDS
; Function compile flags: /Odtp /RTCsu
; File C:\Users\ksart\OneDrive\Desktop\FlappyBird\libraries\external\glm\glm\gtc\quaternion.inl
;	COMDAT ??$pitch@M$0A@@glm@@YAMAEBU?$tquat@M$0A@@0@@Z
_TEXT	SEGMENT
tv88 = 48
q$ = 80
??$pitch@M$0A@@glm@@YAMAEBU?$tquat@M$0A@@0@@Z PROC	; glm::pitch<float,0>, COMDAT

; 576  : 	{

$LN3:
	mov	QWORD PTR [rsp+8], rcx
	push	rdi
	sub	rsp, 64					; 00000040H

; 577  : 		return T(atan(T(2) * (q.y * q.z + q.w * q.x), q.w * q.w - q.x * q.x - q.y * q.y + q.z * q.z));

	mov	rax, QWORD PTR q$[rsp]
	mov	rcx, QWORD PTR q$[rsp]
	movss	xmm0, DWORD PTR [rax+12]
	mulss	xmm0, DWORD PTR [rcx+12]
	mov	rax, QWORD PTR q$[rsp]
	mov	rcx, QWORD PTR q$[rsp]
	movss	xmm1, DWORD PTR [rax]
	mulss	xmm1, DWORD PTR [rcx]
	subss	xmm0, xmm1
	mov	rax, QWORD PTR q$[rsp]
	mov	rcx, QWORD PTR q$[rsp]
	movss	xmm1, DWORD PTR [rax+4]
	mulss	xmm1, DWORD PTR [rcx+4]
	subss	xmm0, xmm1
	mov	rax, QWORD PTR q$[rsp]
	mov	rcx, QWORD PTR q$[rsp]
	movss	xmm1, DWORD PTR [rax+8]
	mulss	xmm1, DWORD PTR [rcx+8]
	addss	xmm0, xmm1
	mov	rax, QWORD PTR q$[rsp]
	mov	rcx, QWORD PTR q$[rsp]
	movss	xmm1, DWORD PTR [rax+4]
	mulss	xmm1, DWORD PTR [rcx+8]
	mov	rax, QWORD PTR q$[rsp]
	mov	rcx, QWORD PTR q$[rsp]
	movss	xmm2, DWORD PTR [rax+12]
	mulss	xmm2, DWORD PTR [rcx]
	addss	xmm1, xmm2
	movss	xmm2, DWORD PTR __real@40000000
	mulss	xmm2, xmm1
	movaps	xmm1, xmm2
	movss	DWORD PTR tv88[rsp], xmm1
	movaps	xmm1, xmm0
	movss	xmm0, DWORD PTR tv88[rsp]
	call	??$atan@M@glm@@YAMMM@Z			; glm::atan<float>

; 578  : 	}

	add	rsp, 64					; 00000040H
	pop	rdi
	ret	0
??$pitch@M$0A@@glm@@YAMAEBU?$tquat@M$0A@@0@@Z ENDP	; glm::pitch<float,0>
_TEXT	ENDS
; Function compile flags: /Odtp /RTCsu
; File C:\Users\ksart\OneDrive\Desktop\FlappyBird\libraries\external\glm\glm\gtc\quaternion.inl
;	COMDAT ??$roll@M$0A@@glm@@YAMAEBU?$tquat@M$0A@@0@@Z
_TEXT	SEGMENT
tv88 = 48
q$ = 80
??$roll@M$0A@@glm@@YAMAEBU?$tquat@M$0A@@0@@Z PROC	; glm::roll<float,0>, COMDAT

; 570  : 	{

$LN3:
	mov	QWORD PTR [rsp+8], rcx
	push	rdi
	sub	rsp, 64					; 00000040H

; 571  : 		return T(atan(T(2) * (q.x * q.y + q.w * q.z), q.w * q.w + q.x * q.x - q.y * q.y - q.z * q.z));

	mov	rax, QWORD PTR q$[rsp]
	mov	rcx, QWORD PTR q$[rsp]
	movss	xmm0, DWORD PTR [rax+12]
	mulss	xmm0, DWORD PTR [rcx+12]
	mov	rax, QWORD PTR q$[rsp]
	mov	rcx, QWORD PTR q$[rsp]
	movss	xmm1, DWORD PTR [rax]
	mulss	xmm1, DWORD PTR [rcx]
	addss	xmm0, xmm1
	mov	rax, QWORD PTR q$[rsp]
	mov	rcx, QWORD PTR q$[rsp]
	movss	xmm1, DWORD PTR [rax+4]
	mulss	xmm1, DWORD PTR [rcx+4]
	subss	xmm0, xmm1
	mov	rax, QWORD PTR q$[rsp]
	mov	rcx, QWORD PTR q$[rsp]
	movss	xmm1, DWORD PTR [rax+8]
	mulss	xmm1, DWORD PTR [rcx+8]
	subss	xmm0, xmm1
	mov	rax, QWORD PTR q$[rsp]
	mov	rcx, QWORD PTR q$[rsp]
	movss	xmm1, DWORD PTR [rax]
	mulss	xmm1, DWORD PTR [rcx+4]
	mov	rax, QWORD PTR q$[rsp]
	mov	rcx, QWORD PTR q$[rsp]
	movss	xmm2, DWORD PTR [rax+12]
	mulss	xmm2, DWORD PTR [rcx+8]
	addss	xmm1, xmm2
	movss	xmm2, DWORD PTR __real@40000000
	mulss	xmm2, xmm1
	movaps	xmm1, xmm2
	movss	DWORD PTR tv88[rsp], xmm1
	movaps	xmm1, xmm0
	movss	xmm0, DWORD PTR tv88[rsp]
	call	??$atan@M@glm@@YAMMM@Z			; glm::atan<float>

; 572  : 	}

	add	rsp, 64					; 00000040H
	pop	rdi
	ret	0
??$roll@M$0A@@glm@@YAMAEBU?$tquat@M$0A@@0@@Z ENDP	; glm::roll<float,0>
_TEXT	ENDS
; Function compile flags: /Odtp /RTCsu
; File C:\Users\ksart\OneDrive\Desktop\FlappyBird\libraries\external\glm\test\gtc\gtc_quaternion.cpp
_TEXT	SEGMENT
Error$ = 48
q$7 = 72
Roll$8 = 100
Pitch$9 = 104
Yaw$10 = 108
Angles$11 = 120
q$12 = 168
Roll$13 = 216
Pitch$14 = 224
Yaw$15 = 232
Angles$16 = 248
$T17 = 276
$T18 = 280
$T19 = 284
$T20 = 288
$T21 = 296
$T22 = 304
$T23 = 312
$T24 = 320
?test_quat_euler@@YAHXZ PROC				; test_quat_euler

; 109  : {

$LN3:
	push	rdi
	sub	rsp, 336				; 00000150H
	lea	rdi, QWORD PTR [rsp+48]
	mov	ecx, 72					; 00000048H
	mov	eax, -858993460				; ccccccccH
	rep stosd

; 110  : 	int Error(0);

	mov	DWORD PTR Error$[rsp], 0

; 111  : 
; 112  : 	{
; 113  : 		glm::quat q(1.0f, 0.0f, 0.0f, 1.0f);

	movss	xmm0, DWORD PTR __real@3f800000
	movss	DWORD PTR $T17[rsp], xmm0
	xorps	xmm0, xmm0
	movss	DWORD PTR $T18[rsp], xmm0
	xorps	xmm0, xmm0
	movss	DWORD PTR $T19[rsp], xmm0
	movss	xmm0, DWORD PTR __real@3f800000
	movss	DWORD PTR $T20[rsp], xmm0
	lea	rax, QWORD PTR $T17[rsp]
	mov	QWORD PTR [rsp+32], rax
	lea	r9, QWORD PTR $T18[rsp]
	lea	r8, QWORD PTR $T19[rsp]
	lea	rdx, QWORD PTR $T20[rsp]
	lea	rcx, QWORD PTR q$7[rsp]
	call	??0?$tquat@M$0A@@glm@@QEAA@AEBM000@Z	; glm::tquat<float,0>::tquat<float,0>

; 114  : 		float Roll = glm::roll(q);

	lea	rcx, QWORD PTR q$7[rsp]
	call	??$roll@M$0A@@glm@@YAMAEBU?$tquat@M$0A@@0@@Z ; glm::roll<float,0>
	movss	DWORD PTR Roll$8[rsp], xmm0

; 115  : 		float Pitch = glm::pitch(q);

	lea	rcx, QWORD PTR q$7[rsp]
	call	??$pitch@M$0A@@glm@@YAMAEBU?$tquat@M$0A@@0@@Z ; glm::pitch<float,0>
	movss	DWORD PTR Pitch$9[rsp], xmm0

; 116  : 		float Yaw = glm::yaw(q);

	lea	rcx, QWORD PTR q$7[rsp]
	call	??$yaw@M$0A@@glm@@YAMAEBU?$tquat@M$0A@@0@@Z ; glm::yaw<float,0>
	movss	DWORD PTR Yaw$10[rsp], xmm0

; 117  : 		glm::vec3 Angles = glm::eulerAngles(q);

	lea	rdx, QWORD PTR q$7[rsp]
	lea	rcx, QWORD PTR Angles$11[rsp]
	call	??$eulerAngles@M$0A@@glm@@YA?AU?$tvec3@M$0A@@0@AEBU?$tquat@M$0A@@0@@Z ; glm::eulerAngles<float,0>

; 118  : 	}
; 119  : 
; 120  : 	{
; 121  : 		glm::dquat q(1.0f, 0.0f, 0.0f, 1.0f);

	movsd	xmm0, QWORD PTR __real@3ff0000000000000
	movsd	QWORD PTR $T21[rsp], xmm0
	xorps	xmm0, xmm0
	movsd	QWORD PTR $T22[rsp], xmm0
	xorps	xmm0, xmm0
	movsd	QWORD PTR $T23[rsp], xmm0
	movsd	xmm0, QWORD PTR __real@3ff0000000000000
	movsd	QWORD PTR $T24[rsp], xmm0
	lea	rax, QWORD PTR $T21[rsp]
	mov	QWORD PTR [rsp+32], rax
	lea	r9, QWORD PTR $T22[rsp]
	lea	r8, QWORD PTR $T23[rsp]
	lea	rdx, QWORD PTR $T24[rsp]
	lea	rcx, QWORD PTR q$12[rsp]
	call	??0?$tquat@N$0A@@glm@@QEAA@AEBN000@Z	; glm::tquat<double,0>::tquat<double,0>

; 122  : 		double Roll = glm::roll(q);

	lea	rcx, QWORD PTR q$12[rsp]
	call	??$roll@N$0A@@glm@@YANAEBU?$tquat@N$0A@@0@@Z ; glm::roll<double,0>
	movsd	QWORD PTR Roll$13[rsp], xmm0

; 123  : 		double Pitch = glm::pitch(q);

	lea	rcx, QWORD PTR q$12[rsp]
	call	??$pitch@N$0A@@glm@@YANAEBU?$tquat@N$0A@@0@@Z ; glm::pitch<double,0>
	movsd	QWORD PTR Pitch$14[rsp], xmm0

; 124  : 		double Yaw = glm::yaw(q);

	lea	rcx, QWORD PTR q$12[rsp]
	call	??$yaw@N$0A@@glm@@YANAEBU?$tquat@N$0A@@0@@Z ; glm::yaw<double,0>
	movsd	QWORD PTR Yaw$15[rsp], xmm0

; 125  : 		glm::dvec3 Angles = glm::eulerAngles(q);

	lea	rdx, QWORD PTR q$12[rsp]
	lea	rcx, QWORD PTR Angles$16[rsp]
	call	??$eulerAngles@N$0A@@glm@@YA?AU?$tvec3@N$0A@@0@AEBU?$tquat@N$0A@@0@@Z ; glm::eulerAngles<double,0>

; 126  : 	}
; 127  : 
; 128  : 	return Error;

	mov	eax, DWORD PTR Error$[rsp]

; 129  : }

	mov	edi, eax
	mov	rcx, rsp
	lea	rdx, OFFSET FLAT:?test_quat_euler@@YAHXZ$rtcFrameData
	call	_RTC_CheckStackVars
	mov	eax, edi
	add	rsp, 336				; 00000150H
	pop	rdi
	ret	0
?test_quat_euler@@YAHXZ ENDP				; test_quat_euler
_TEXT	ENDS
; Function compile flags: /Odtp /RTCsu
; File C:\Users\ksart\OneDrive\Desktop\FlappyBird\libraries\external\glm\test\gtc\gtc_quaternion.cpp
_TEXT	SEGMENT
Error$ = 32
Q$12 = 56
N$13 = 104
L$14 = 148
Q$15 = 184
N$16 = 232
L$17 = 276
Q$18 = 312
N$19 = 360
L$20 = 404
$T21 = 420
$T22 = 432
$T23 = 436
$T24 = 440
$T25 = 444
$T26 = 456
$T27 = 460
$T28 = 464
$T29 = 468
$T30 = 480
$T31 = 484
$T32 = 488
tv84 = 492
tv138 = 496
tv160 = 500
?test_quat_normalize@@YAHXZ PROC			; test_quat_normalize

; 83   : {

$LN9:
	push	rdi
	sub	rsp, 512				; 00000200H
	lea	rdi, QWORD PTR [rsp+32]
	mov	ecx, 120				; 00000078H
	mov	eax, -858993460				; ccccccccH
	rep stosd

; 84   : 	int Error(0);

	mov	DWORD PTR Error$[rsp], 0

; 85   : 
; 86   : 	{
; 87   : 		glm::quat Q = glm::angleAxis(glm::pi<float>() * 0.25f, glm::vec3(0, 0, 1));

	call	??$pi@M@glm@@YAMXZ			; glm::pi<float>
	mulss	xmm0, DWORD PTR __real@3e800000
	movss	DWORD PTR $T22[rsp], xmm0
	mov	r9d, 1
	xor	r8d, r8d
	xor	edx, edx
	lea	rcx, QWORD PTR $T21[rsp]
	call	??$?0HHH@?$tvec3@M$0A@@glm@@QEAA@HHH@Z	; glm::tvec3<float,0>::tvec3<float,0><int,int,int>
	mov	r8, rax
	lea	rdx, QWORD PTR $T22[rsp]
	lea	rcx, QWORD PTR Q$12[rsp]
	call	??$angleAxis@M$0A@@glm@@YA?AU?$tquat@M$0A@@0@AEBMAEBU?$tvec3@M$0A@@0@@Z ; glm::angleAxis<float,0>

; 88   : 		glm::quat N = glm::normalize(Q);

	lea	rdx, QWORD PTR Q$12[rsp]
	lea	rcx, QWORD PTR N$13[rsp]
	call	??$normalize@M$0A@@glm@@YA?AU?$tquat@M$0A@@0@AEBU10@@Z ; glm::normalize<float,0>

; 89   : 		float L = glm::length(N);

	lea	rcx, QWORD PTR N$13[rsp]
	call	??$length@M$0A@@glm@@YAMAEBU?$tquat@M$0A@@0@@Z ; glm::length<float,0>
	movss	DWORD PTR L$14[rsp], xmm0

; 90   : 		Error += glm::epsilonEqual(L, 1.0f, 0.000001f) ? 0 : 1;

	movss	xmm0, DWORD PTR __real@358637bd
	movss	DWORD PTR $T23[rsp], xmm0
	movss	xmm0, DWORD PTR __real@3f800000
	movss	DWORD PTR $T24[rsp], xmm0
	lea	r8, QWORD PTR $T23[rsp]
	lea	rdx, QWORD PTR $T24[rsp]
	lea	rcx, QWORD PTR L$14[rsp]
	call	??$epsilonEqual@M@glm@@YA_NAEBM00@Z	; glm::epsilonEqual<float>
	movzx	eax, al
	test	eax, eax
	je	SHORT $LN3@test_quat_
	mov	DWORD PTR tv84[rsp], 0
	jmp	SHORT $LN4@test_quat_
$LN3@test_quat_:
	mov	DWORD PTR tv84[rsp], 1
$LN4@test_quat_:
	mov	eax, DWORD PTR tv84[rsp]
	mov	ecx, DWORD PTR Error$[rsp]
	add	ecx, eax
	mov	eax, ecx
	mov	DWORD PTR Error$[rsp], eax

; 91   : 	}
; 92   : 	{
; 93   : 		glm::quat Q = glm::angleAxis(glm::pi<float>() * 0.25f, glm::vec3(0, 0, 2));

	call	??$pi@M@glm@@YAMXZ			; glm::pi<float>
	mulss	xmm0, DWORD PTR __real@3e800000
	movss	DWORD PTR $T26[rsp], xmm0
	mov	r9d, 2
	xor	r8d, r8d
	xor	edx, edx
	lea	rcx, QWORD PTR $T25[rsp]
	call	??$?0HHH@?$tvec3@M$0A@@glm@@QEAA@HHH@Z	; glm::tvec3<float,0>::tvec3<float,0><int,int,int>
	mov	r8, rax
	lea	rdx, QWORD PTR $T26[rsp]
	lea	rcx, QWORD PTR Q$15[rsp]
	call	??$angleAxis@M$0A@@glm@@YA?AU?$tquat@M$0A@@0@AEBMAEBU?$tvec3@M$0A@@0@@Z ; glm::angleAxis<float,0>

; 94   : 		glm::quat N = glm::normalize(Q);

	lea	rdx, QWORD PTR Q$15[rsp]
	lea	rcx, QWORD PTR N$16[rsp]
	call	??$normalize@M$0A@@glm@@YA?AU?$tquat@M$0A@@0@AEBU10@@Z ; glm::normalize<float,0>

; 95   : 		float L = glm::length(N);

	lea	rcx, QWORD PTR N$16[rsp]
	call	??$length@M$0A@@glm@@YAMAEBU?$tquat@M$0A@@0@@Z ; glm::length<float,0>
	movss	DWORD PTR L$17[rsp], xmm0

; 96   : 		Error += glm::epsilonEqual(L, 1.0f, 0.000001f) ? 0 : 1;

	movss	xmm0, DWORD PTR __real@358637bd
	movss	DWORD PTR $T27[rsp], xmm0
	movss	xmm0, DWORD PTR __real@3f800000
	movss	DWORD PTR $T28[rsp], xmm0
	lea	r8, QWORD PTR $T27[rsp]
	lea	rdx, QWORD PTR $T28[rsp]
	lea	rcx, QWORD PTR L$17[rsp]
	call	??$epsilonEqual@M@glm@@YA_NAEBM00@Z	; glm::epsilonEqual<float>
	movzx	eax, al
	test	eax, eax
	je	SHORT $LN5@test_quat_
	mov	DWORD PTR tv138[rsp], 0
	jmp	SHORT $LN6@test_quat_
$LN5@test_quat_:
	mov	DWORD PTR tv138[rsp], 1
$LN6@test_quat_:
	mov	eax, DWORD PTR tv138[rsp]
	mov	ecx, DWORD PTR Error$[rsp]
	add	ecx, eax
	mov	eax, ecx
	mov	DWORD PTR Error$[rsp], eax

; 97   : 	}
; 98   : 	{
; 99   : 		glm::quat Q = glm::angleAxis(glm::pi<float>() * 0.25f, glm::vec3(1, 2, 3));

	call	??$pi@M@glm@@YAMXZ			; glm::pi<float>
	mulss	xmm0, DWORD PTR __real@3e800000
	movss	DWORD PTR $T30[rsp], xmm0
	mov	r9d, 3
	mov	r8d, 2
	mov	edx, 1
	lea	rcx, QWORD PTR $T29[rsp]
	call	??$?0HHH@?$tvec3@M$0A@@glm@@QEAA@HHH@Z	; glm::tvec3<float,0>::tvec3<float,0><int,int,int>
	mov	r8, rax
	lea	rdx, QWORD PTR $T30[rsp]
	lea	rcx, QWORD PTR Q$18[rsp]
	call	??$angleAxis@M$0A@@glm@@YA?AU?$tquat@M$0A@@0@AEBMAEBU?$tvec3@M$0A@@0@@Z ; glm::angleAxis<float,0>

; 100  : 		glm::quat N = glm::normalize(Q);

	lea	rdx, QWORD PTR Q$18[rsp]
	lea	rcx, QWORD PTR N$19[rsp]
	call	??$normalize@M$0A@@glm@@YA?AU?$tquat@M$0A@@0@AEBU10@@Z ; glm::normalize<float,0>

; 101  : 		float L = glm::length(N);

	lea	rcx, QWORD PTR N$19[rsp]
	call	??$length@M$0A@@glm@@YAMAEBU?$tquat@M$0A@@0@@Z ; glm::length<float,0>
	movss	DWORD PTR L$20[rsp], xmm0

; 102  : 		Error += glm::epsilonEqual(L, 1.0f, 0.000001f) ? 0 : 1;

	movss	xmm0, DWORD PTR __real@358637bd
	movss	DWORD PTR $T31[rsp], xmm0
	movss	xmm0, DWORD PTR __real@3f800000
	movss	DWORD PTR $T32[rsp], xmm0
	lea	r8, QWORD PTR $T31[rsp]
	lea	rdx, QWORD PTR $T32[rsp]
	lea	rcx, QWORD PTR L$20[rsp]
	call	??$epsilonEqual@M@glm@@YA_NAEBM00@Z	; glm::epsilonEqual<float>
	movzx	eax, al
	test	eax, eax
	je	SHORT $LN7@test_quat_
	mov	DWORD PTR tv160[rsp], 0
	jmp	SHORT $LN8@test_quat_
$LN7@test_quat_:
	mov	DWORD PTR tv160[rsp], 1
$LN8@test_quat_:
	mov	eax, DWORD PTR tv160[rsp]
	mov	ecx, DWORD PTR Error$[rsp]
	add	ecx, eax
	mov	eax, ecx
	mov	DWORD PTR Error$[rsp], eax

; 103  : 	}
; 104  : 
; 105  : 	return Error;

	mov	eax, DWORD PTR Error$[rsp]

; 106  : }

	mov	edi, eax
	mov	rcx, rsp
	lea	rdx, OFFSET FLAT:?test_quat_normalize@@YAHXZ$rtcFrameData
	call	_RTC_CheckStackVars
	mov	eax, edi
	add	rsp, 512				; 00000200H
	pop	rdi
	ret	0
?test_quat_normalize@@YAHXZ ENDP			; test_quat_normalize
_TEXT	ENDS
; Function compile flags: /Odtp /RTCsu
; File C:\Users\ksart\OneDrive\Desktop\FlappyBird\libraries\external\glm\test\gtc\gtc_quaternion.cpp
_TEXT	SEGMENT
Error$ = 0
?test_quat_precision@@YAHXZ PROC			; test_quat_precision

; 73   : {

$LN3:
	push	rdi
	sub	rsp, 16

; 74   : 	int Error = 0;

	mov	DWORD PTR Error$[rsp], 0

; 75   : 
; 76   : 	Error += sizeof(glm::lowp_quat) <= sizeof(glm::mediump_quat) ? 0 : 1;

	mov	eax, DWORD PTR Error$[rsp]
	mov	DWORD PTR Error$[rsp], eax

; 77   : 	Error += sizeof(glm::mediump_quat) <= sizeof(glm::highp_quat) ? 0 : 1;

	mov	eax, DWORD PTR Error$[rsp]
	mov	DWORD PTR Error$[rsp], eax

; 78   : 
; 79   : 	return Error;

	mov	eax, DWORD PTR Error$[rsp]

; 80   : }

	add	rsp, 16
	pop	rdi
	ret	0
?test_quat_precision@@YAHXZ ENDP			; test_quat_precision
_TEXT	ENDS
; Function compile flags: /Odtp /RTCsu
; File C:\Users\ksart\OneDrive\Desktop\FlappyBird\libraries\external\glm\test\gtc\gtc_quaternion.cpp
_TEXT	SEGMENT
Error$ = 32
A$ = 56
B$ = 104
C$ = 152
D$ = 200
$T7 = 228
$T8 = 240
$T9 = 244
$T10 = 256
$T11 = 260
$T12 = 272
$T13 = 276
$T14 = 280
$T15 = 284
$T16 = 288
tv134 = 292
tv142 = 296
tv150 = 300
tv158 = 304
?test_quat_mix@@YAHXZ PROC				; test_quat_mix

; 56   : {

$LN11:
	push	rdi
	sub	rsp, 320				; 00000140H
	lea	rdi, QWORD PTR [rsp+32]
	mov	ecx, 72					; 00000048H
	mov	eax, -858993460				; ccccccccH
	rep stosd

; 57   : 	int Error = 0;

	mov	DWORD PTR Error$[rsp], 0

; 58   : 
; 59   : 	glm::quat A = glm::angleAxis(0.0f, glm::vec3(0, 0, 1));

	xorps	xmm0, xmm0
	movss	DWORD PTR $T8[rsp], xmm0
	mov	r9d, 1
	xor	r8d, r8d
	xor	edx, edx
	lea	rcx, QWORD PTR $T7[rsp]
	call	??$?0HHH@?$tvec3@M$0A@@glm@@QEAA@HHH@Z	; glm::tvec3<float,0>::tvec3<float,0><int,int,int>
	mov	r8, rax
	lea	rdx, QWORD PTR $T8[rsp]
	lea	rcx, QWORD PTR A$[rsp]
	call	??$angleAxis@M$0A@@glm@@YA?AU?$tquat@M$0A@@0@AEBMAEBU?$tvec3@M$0A@@0@@Z ; glm::angleAxis<float,0>

; 60   : 	glm::quat B = glm::angleAxis(glm::pi<float>() * 0.5f, glm::vec3(0, 0, 1));

	call	??$pi@M@glm@@YAMXZ			; glm::pi<float>
	mulss	xmm0, DWORD PTR __real@3f000000
	movss	DWORD PTR $T10[rsp], xmm0
	mov	r9d, 1
	xor	r8d, r8d
	xor	edx, edx
	lea	rcx, QWORD PTR $T9[rsp]
	call	??$?0HHH@?$tvec3@M$0A@@glm@@QEAA@HHH@Z	; glm::tvec3<float,0>::tvec3<float,0><int,int,int>
	mov	r8, rax
	lea	rdx, QWORD PTR $T10[rsp]
	lea	rcx, QWORD PTR B$[rsp]
	call	??$angleAxis@M$0A@@glm@@YA?AU?$tquat@M$0A@@0@AEBMAEBU?$tvec3@M$0A@@0@@Z ; glm::angleAxis<float,0>

; 61   : 	glm::quat C = glm::mix(A, B, 0.5f);

	movss	xmm3, DWORD PTR __real@3f000000
	lea	r8, QWORD PTR B$[rsp]
	lea	rdx, QWORD PTR A$[rsp]
	lea	rcx, QWORD PTR C$[rsp]
	call	??$mix@M$0A@@glm@@YA?AU?$tquat@M$0A@@0@AEBU10@0M@Z ; glm::mix<float,0>

; 62   : 	glm::quat D = glm::angleAxis(glm::pi<float>() * 0.25f, glm::vec3(0, 0, 1));

	call	??$pi@M@glm@@YAMXZ			; glm::pi<float>
	mulss	xmm0, DWORD PTR __real@3e800000
	movss	DWORD PTR $T12[rsp], xmm0
	mov	r9d, 1
	xor	r8d, r8d
	xor	edx, edx
	lea	rcx, QWORD PTR $T11[rsp]
	call	??$?0HHH@?$tvec3@M$0A@@glm@@QEAA@HHH@Z	; glm::tvec3<float,0>::tvec3<float,0><int,int,int>
	mov	r8, rax
	lea	rdx, QWORD PTR $T12[rsp]
	lea	rcx, QWORD PTR D$[rsp]
	call	??$angleAxis@M$0A@@glm@@YA?AU?$tquat@M$0A@@0@AEBMAEBU?$tvec3@M$0A@@0@@Z ; glm::angleAxis<float,0>

; 63   : 
; 64   : 	Error += glm::epsilonEqual(C.x, D.x, 0.01f) ? 0 : 1;

	movss	xmm0, DWORD PTR __real@3c23d70a
	movss	DWORD PTR $T13[rsp], xmm0
	lea	r8, QWORD PTR $T13[rsp]
	lea	rdx, QWORD PTR D$[rsp]
	lea	rcx, QWORD PTR C$[rsp]
	call	??$epsilonEqual@M@glm@@YA_NAEBM00@Z	; glm::epsilonEqual<float>
	movzx	eax, al
	test	eax, eax
	je	SHORT $LN3@test_quat_
	mov	DWORD PTR tv134[rsp], 0
	jmp	SHORT $LN4@test_quat_
$LN3@test_quat_:
	mov	DWORD PTR tv134[rsp], 1
$LN4@test_quat_:
	mov	eax, DWORD PTR tv134[rsp]
	mov	ecx, DWORD PTR Error$[rsp]
	add	ecx, eax
	mov	eax, ecx
	mov	DWORD PTR Error$[rsp], eax

; 65   : 	Error += glm::epsilonEqual(C.y, D.y, 0.01f) ? 0 : 1;

	movss	xmm0, DWORD PTR __real@3c23d70a
	movss	DWORD PTR $T14[rsp], xmm0
	lea	r8, QWORD PTR $T14[rsp]
	lea	rdx, QWORD PTR D$[rsp+4]
	lea	rcx, QWORD PTR C$[rsp+4]
	call	??$epsilonEqual@M@glm@@YA_NAEBM00@Z	; glm::epsilonEqual<float>
	movzx	eax, al
	test	eax, eax
	je	SHORT $LN5@test_quat_
	mov	DWORD PTR tv142[rsp], 0
	jmp	SHORT $LN6@test_quat_
$LN5@test_quat_:
	mov	DWORD PTR tv142[rsp], 1
$LN6@test_quat_:
	mov	eax, DWORD PTR tv142[rsp]
	mov	ecx, DWORD PTR Error$[rsp]
	add	ecx, eax
	mov	eax, ecx
	mov	DWORD PTR Error$[rsp], eax

; 66   : 	Error += glm::epsilonEqual(C.z, D.z, 0.01f) ? 0 : 1;

	movss	xmm0, DWORD PTR __real@3c23d70a
	movss	DWORD PTR $T15[rsp], xmm0
	lea	r8, QWORD PTR $T15[rsp]
	lea	rdx, QWORD PTR D$[rsp+8]
	lea	rcx, QWORD PTR C$[rsp+8]
	call	??$epsilonEqual@M@glm@@YA_NAEBM00@Z	; glm::epsilonEqual<float>
	movzx	eax, al
	test	eax, eax
	je	SHORT $LN7@test_quat_
	mov	DWORD PTR tv150[rsp], 0
	jmp	SHORT $LN8@test_quat_
$LN7@test_quat_:
	mov	DWORD PTR tv150[rsp], 1
$LN8@test_quat_:
	mov	eax, DWORD PTR tv150[rsp]
	mov	ecx, DWORD PTR Error$[rsp]
	add	ecx, eax
	mov	eax, ecx
	mov	DWORD PTR Error$[rsp], eax

; 67   : 	Error += glm::epsilonEqual(C.w, D.w, 0.01f) ? 0 : 1;

	movss	xmm0, DWORD PTR __real@3c23d70a
	movss	DWORD PTR $T16[rsp], xmm0
	lea	r8, QWORD PTR $T16[rsp]
	lea	rdx, QWORD PTR D$[rsp+12]
	lea	rcx, QWORD PTR C$[rsp+12]
	call	??$epsilonEqual@M@glm@@YA_NAEBM00@Z	; glm::epsilonEqual<float>
	movzx	eax, al
	test	eax, eax
	je	SHORT $LN9@test_quat_
	mov	DWORD PTR tv158[rsp], 0
	jmp	SHORT $LN10@test_quat_
$LN9@test_quat_:
	mov	DWORD PTR tv158[rsp], 1
$LN10@test_quat_:
	mov	eax, DWORD PTR tv158[rsp]
	mov	ecx, DWORD PTR Error$[rsp]
	add	ecx, eax
	mov	eax, ecx
	mov	DWORD PTR Error$[rsp], eax

; 68   : 
; 69   : 	return Error;

	mov	eax, DWORD PTR Error$[rsp]

; 70   : }

	mov	edi, eax
	mov	rcx, rsp
	lea	rdx, OFFSET FLAT:?test_quat_mix@@YAHXZ$rtcFrameData
	call	_RTC_CheckStackVars
	mov	eax, edi
	add	rsp, 320				; 00000140H
	pop	rdi
	ret	0
?test_quat_mix@@YAHXZ ENDP				; test_quat_mix
_TEXT	ENDS
; Function compile flags: /Odtp /RTCsu
; File C:\Users\ksart\OneDrive\Desktop\FlappyBird\libraries\external\glm\glm\gtc\quaternion.inl
;	COMDAT ??$mix@M$0A@@glm@@YA?AU?$tquat@M$0A@@0@AEBU10@0M@Z
_TEXT	SEGMENT
cosTheta$ = 48
angle$1 = 52
$T2 = 56
$T3 = 60
$T4 = 64
$T5 = 68
$T6 = 72
$T7 = 76
$T8 = 80
$T9 = 96
$T10 = 100
$T11 = 116
tv138 = 136
__$ReturnUdt$ = 160
x$ = 168
y$ = 176
a$ = 184
??$mix@M$0A@@glm@@YA?AU?$tquat@M$0A@@0@AEBU10@0M@Z PROC	; glm::mix<float,0>, COMDAT

; 476  : 	{

$LN5:
	movss	DWORD PTR [rsp+32], xmm3
	mov	QWORD PTR [rsp+24], r8
	mov	QWORD PTR [rsp+16], rdx
	mov	QWORD PTR [rsp+8], rcx
	push	rdi
	sub	rsp, 144				; 00000090H

; 477  : 		T cosTheta = dot(x, y);

	mov	rdx, QWORD PTR y$[rsp]
	mov	rcx, QWORD PTR x$[rsp]
	call	??$dot@M$0A@Utquat@glm@@@glm@@YAMAEBU?$tquat@M$0A@@0@0@Z ; glm::dot<float,0,glm::tquat>
	movss	DWORD PTR cosTheta$[rsp], xmm0

; 478  : 
; 479  : 		// Perform a linear interpolation when cosTheta is close to 1 to avoid side effect of sin(angle) becoming a zero denominator
; 480  : 		if(cosTheta > T(1) - epsilon<T>())

	call	??$epsilon@M@glm@@YAMXZ			; glm::epsilon<float>
	movss	xmm1, DWORD PTR __real@3f800000
	subss	xmm1, xmm0
	movaps	xmm0, xmm1
	movss	xmm1, DWORD PTR cosTheta$[rsp]
	comiss	xmm1, xmm0
	jbe	$LN2@mix

; 481  : 		{
; 482  : 			// Linear interpolation
; 483  : 			return tquat<T, P>(

	movss	xmm2, DWORD PTR a$[rsp]
	mov	rax, QWORD PTR y$[rsp]
	movss	xmm1, DWORD PTR [rax+8]
	mov	rax, QWORD PTR x$[rsp]
	movss	xmm0, DWORD PTR [rax+8]
	call	??$mix@MM@glm@@YAMMMM@Z			; glm::mix<float,float>
	movss	DWORD PTR $T2[rsp], xmm0
	movss	xmm2, DWORD PTR a$[rsp]
	mov	rax, QWORD PTR y$[rsp]
	movss	xmm1, DWORD PTR [rax+4]
	mov	rax, QWORD PTR x$[rsp]
	movss	xmm0, DWORD PTR [rax+4]
	call	??$mix@MM@glm@@YAMMMM@Z			; glm::mix<float,float>
	movss	DWORD PTR $T3[rsp], xmm0
	movss	xmm2, DWORD PTR a$[rsp]
	mov	rax, QWORD PTR y$[rsp]
	movss	xmm1, DWORD PTR [rax]
	mov	rax, QWORD PTR x$[rsp]
	movss	xmm0, DWORD PTR [rax]
	call	??$mix@MM@glm@@YAMMMM@Z			; glm::mix<float,float>
	movss	DWORD PTR $T4[rsp], xmm0
	movss	xmm2, DWORD PTR a$[rsp]
	mov	rax, QWORD PTR y$[rsp]
	movss	xmm1, DWORD PTR [rax+12]
	mov	rax, QWORD PTR x$[rsp]
	movss	xmm0, DWORD PTR [rax+12]
	call	??$mix@MM@glm@@YAMMMM@Z			; glm::mix<float,float>
	movss	DWORD PTR $T5[rsp], xmm0
	lea	rax, QWORD PTR $T2[rsp]
	mov	QWORD PTR [rsp+32], rax
	lea	r9, QWORD PTR $T3[rsp]
	lea	r8, QWORD PTR $T4[rsp]
	lea	rdx, QWORD PTR $T5[rsp]
	mov	rcx, QWORD PTR __$ReturnUdt$[rsp]
	call	??0?$tquat@M$0A@@glm@@QEAA@AEBM000@Z	; glm::tquat<float,0>::tquat<float,0>
	mov	rax, QWORD PTR __$ReturnUdt$[rsp]
	jmp	$LN1@mix

; 484  : 				mix(x.w, y.w, a),
; 485  : 				mix(x.x, y.x, a),
; 486  : 				mix(x.y, y.y, a),
; 487  : 				mix(x.z, y.z, a));
; 488  : 		}

	jmp	$LN3@mix
$LN2@mix:

; 489  : 		else
; 490  : 		{
; 491  : 			// Essential Mathematics, page 467
; 492  : 			T angle = acos(cosTheta);

	movss	xmm0, DWORD PTR cosTheta$[rsp]
	call	?acos@@YAMM@Z				; acos
	movss	DWORD PTR angle$1[rsp], xmm0

; 493  : 			return (sin((T(1) - a) * angle) * x + sin(a * angle) * y) / sin(angle);

	movss	xmm0, DWORD PTR angle$1[rsp]
	call	?sin@@YAMM@Z				; sin
	movss	DWORD PTR $T6[rsp], xmm0
	movss	xmm0, DWORD PTR a$[rsp]
	mulss	xmm0, DWORD PTR angle$1[rsp]
	call	?sin@@YAMM@Z				; sin
	movss	DWORD PTR $T7[rsp], xmm0
	movss	xmm0, DWORD PTR __real@3f800000
	subss	xmm0, DWORD PTR a$[rsp]
	mulss	xmm0, DWORD PTR angle$1[rsp]
	call	?sin@@YAMM@Z				; sin
	movss	DWORD PTR $T9[rsp], xmm0
	mov	r8, QWORD PTR y$[rsp]
	lea	rdx, QWORD PTR $T7[rsp]
	lea	rcx, QWORD PTR $T8[rsp]
	call	??$?DM$0A@@glm@@YA?AU?$tquat@M$0A@@0@AEBMAEBU10@@Z ; glm::operator*<float,0>
	mov	QWORD PTR tv138[rsp], rax
	mov	r8, QWORD PTR x$[rsp]
	lea	rdx, QWORD PTR $T9[rsp]
	lea	rcx, QWORD PTR $T10[rsp]
	call	??$?DM$0A@@glm@@YA?AU?$tquat@M$0A@@0@AEBMAEBU10@@Z ; glm::operator*<float,0>
	mov	rcx, QWORD PTR tv138[rsp]
	mov	r8, rcx
	mov	rdx, rax
	lea	rcx, QWORD PTR $T11[rsp]
	call	??$?HM$0A@@glm@@YA?AU?$tquat@M$0A@@0@AEBU10@0@Z ; glm::operator+<float,0>
	lea	r8, QWORD PTR $T6[rsp]
	mov	rdx, rax
	mov	rcx, QWORD PTR __$ReturnUdt$[rsp]
	call	??$?KM$0A@@glm@@YA?AU?$tquat@M$0A@@0@AEBU10@AEBM@Z ; glm::operator/<float,0>
	mov	rax, QWORD PTR __$ReturnUdt$[rsp]
$LN3@mix:
$LN1@mix:

; 494  : 		}
; 495  : 	}

	add	rsp, 144				; 00000090H
	pop	rdi
	ret	0
??$mix@M$0A@@glm@@YA?AU?$tquat@M$0A@@0@AEBU10@0M@Z ENDP	; glm::mix<float,0>
_TEXT	ENDS
; Function compile flags: /Odtp /RTCsu
; File C:\Users\ksart\OneDrive\Desktop\FlappyBird\libraries\external\glm\test\gtc\gtc_quaternion.cpp
_TEXT	SEGMENT
Error$ = 32
A$ = 56
B$ = 104
C$ = 152
D$ = 200
$T7 = 228
$T8 = 240
$T9 = 244
$T10 = 256
$T11 = 260
$T12 = 272
$T13 = 276
$T14 = 280
$T15 = 284
$T16 = 288
tv134 = 292
tv142 = 296
tv150 = 300
tv158 = 304
?test_quat_angleAxis@@YAHXZ PROC			; test_quat_angleAxis

; 39   : {

$LN11:
	push	rdi
	sub	rsp, 320				; 00000140H
	lea	rdi, QWORD PTR [rsp+32]
	mov	ecx, 72					; 00000048H
	mov	eax, -858993460				; ccccccccH
	rep stosd

; 40   : 	int Error = 0;

	mov	DWORD PTR Error$[rsp], 0

; 41   : 
; 42   : 	glm::quat A = glm::angleAxis(0.0f, glm::vec3(0, 0, 1));

	xorps	xmm0, xmm0
	movss	DWORD PTR $T8[rsp], xmm0
	mov	r9d, 1
	xor	r8d, r8d
	xor	edx, edx
	lea	rcx, QWORD PTR $T7[rsp]
	call	??$?0HHH@?$tvec3@M$0A@@glm@@QEAA@HHH@Z	; glm::tvec3<float,0>::tvec3<float,0><int,int,int>
	mov	r8, rax
	lea	rdx, QWORD PTR $T8[rsp]
	lea	rcx, QWORD PTR A$[rsp]
	call	??$angleAxis@M$0A@@glm@@YA?AU?$tquat@M$0A@@0@AEBMAEBU?$tvec3@M$0A@@0@@Z ; glm::angleAxis<float,0>

; 43   : 	glm::quat B = glm::angleAxis(glm::pi<float>() * 0.5f, glm::vec3(0, 0, 1));

	call	??$pi@M@glm@@YAMXZ			; glm::pi<float>
	mulss	xmm0, DWORD PTR __real@3f000000
	movss	DWORD PTR $T10[rsp], xmm0
	mov	r9d, 1
	xor	r8d, r8d
	xor	edx, edx
	lea	rcx, QWORD PTR $T9[rsp]
	call	??$?0HHH@?$tvec3@M$0A@@glm@@QEAA@HHH@Z	; glm::tvec3<float,0>::tvec3<float,0><int,int,int>
	mov	r8, rax
	lea	rdx, QWORD PTR $T10[rsp]
	lea	rcx, QWORD PTR B$[rsp]
	call	??$angleAxis@M$0A@@glm@@YA?AU?$tquat@M$0A@@0@AEBMAEBU?$tvec3@M$0A@@0@@Z ; glm::angleAxis<float,0>

; 44   : 	glm::quat C = glm::mix(A, B, 0.5f);

	movss	xmm3, DWORD PTR __real@3f000000
	lea	r8, QWORD PTR B$[rsp]
	lea	rdx, QWORD PTR A$[rsp]
	lea	rcx, QWORD PTR C$[rsp]
	call	??$mix@M$0A@@glm@@YA?AU?$tquat@M$0A@@0@AEBU10@0M@Z ; glm::mix<float,0>

; 45   : 	glm::quat D = glm::angleAxis(glm::pi<float>() * 0.25f, glm::vec3(0, 0, 1));

	call	??$pi@M@glm@@YAMXZ			; glm::pi<float>
	mulss	xmm0, DWORD PTR __real@3e800000
	movss	DWORD PTR $T12[rsp], xmm0
	mov	r9d, 1
	xor	r8d, r8d
	xor	edx, edx
	lea	rcx, QWORD PTR $T11[rsp]
	call	??$?0HHH@?$tvec3@M$0A@@glm@@QEAA@HHH@Z	; glm::tvec3<float,0>::tvec3<float,0><int,int,int>
	mov	r8, rax
	lea	rdx, QWORD PTR $T12[rsp]
	lea	rcx, QWORD PTR D$[rsp]
	call	??$angleAxis@M$0A@@glm@@YA?AU?$tquat@M$0A@@0@AEBMAEBU?$tvec3@M$0A@@0@@Z ; glm::angleAxis<float,0>

; 46   : 
; 47   : 	Error += glm::epsilonEqual(C.x, D.x, 0.01f) ? 0 : 1;

	movss	xmm0, DWORD PTR __real@3c23d70a
	movss	DWORD PTR $T13[rsp], xmm0
	lea	r8, QWORD PTR $T13[rsp]
	lea	rdx, QWORD PTR D$[rsp]
	lea	rcx, QWORD PTR C$[rsp]
	call	??$epsilonEqual@M@glm@@YA_NAEBM00@Z	; glm::epsilonEqual<float>
	movzx	eax, al
	test	eax, eax
	je	SHORT $LN3@test_quat_
	mov	DWORD PTR tv134[rsp], 0
	jmp	SHORT $LN4@test_quat_
$LN3@test_quat_:
	mov	DWORD PTR tv134[rsp], 1
$LN4@test_quat_:
	mov	eax, DWORD PTR tv134[rsp]
	mov	ecx, DWORD PTR Error$[rsp]
	add	ecx, eax
	mov	eax, ecx
	mov	DWORD PTR Error$[rsp], eax

; 48   : 	Error += glm::epsilonEqual(C.y, D.y, 0.01f) ? 0 : 1;

	movss	xmm0, DWORD PTR __real@3c23d70a
	movss	DWORD PTR $T14[rsp], xmm0
	lea	r8, QWORD PTR $T14[rsp]
	lea	rdx, QWORD PTR D$[rsp+4]
	lea	rcx, QWORD PTR C$[rsp+4]
	call	??$epsilonEqual@M@glm@@YA_NAEBM00@Z	; glm::epsilonEqual<float>
	movzx	eax, al
	test	eax, eax
	je	SHORT $LN5@test_quat_
	mov	DWORD PTR tv142[rsp], 0
	jmp	SHORT $LN6@test_quat_
$LN5@test_quat_:
	mov	DWORD PTR tv142[rsp], 1
$LN6@test_quat_:
	mov	eax, DWORD PTR tv142[rsp]
	mov	ecx, DWORD PTR Error$[rsp]
	add	ecx, eax
	mov	eax, ecx
	mov	DWORD PTR Error$[rsp], eax

; 49   : 	Error += glm::epsilonEqual(C.z, D.z, 0.01f) ? 0 : 1;

	movss	xmm0, DWORD PTR __real@3c23d70a
	movss	DWORD PTR $T15[rsp], xmm0
	lea	r8, QWORD PTR $T15[rsp]
	lea	rdx, QWORD PTR D$[rsp+8]
	lea	rcx, QWORD PTR C$[rsp+8]
	call	??$epsilonEqual@M@glm@@YA_NAEBM00@Z	; glm::epsilonEqual<float>
	movzx	eax, al
	test	eax, eax
	je	SHORT $LN7@test_quat_
	mov	DWORD PTR tv150[rsp], 0
	jmp	SHORT $LN8@test_quat_
$LN7@test_quat_:
	mov	DWORD PTR tv150[rsp], 1
$LN8@test_quat_:
	mov	eax, DWORD PTR tv150[rsp]
	mov	ecx, DWORD PTR Error$[rsp]
	add	ecx, eax
	mov	eax, ecx
	mov	DWORD PTR Error$[rsp], eax

; 50   : 	Error += glm::epsilonEqual(C.w, D.w, 0.01f) ? 0 : 1;

	movss	xmm0, DWORD PTR __real@3c23d70a
	movss	DWORD PTR $T16[rsp], xmm0
	lea	r8, QWORD PTR $T16[rsp]
	lea	rdx, QWORD PTR D$[rsp+12]
	lea	rcx, QWORD PTR C$[rsp+12]
	call	??$epsilonEqual@M@glm@@YA_NAEBM00@Z	; glm::epsilonEqual<float>
	movzx	eax, al
	test	eax, eax
	je	SHORT $LN9@test_quat_
	mov	DWORD PTR tv158[rsp], 0
	jmp	SHORT $LN10@test_quat_
$LN9@test_quat_:
	mov	DWORD PTR tv158[rsp], 1
$LN10@test_quat_:
	mov	eax, DWORD PTR tv158[rsp]
	mov	ecx, DWORD PTR Error$[rsp]
	add	ecx, eax
	mov	eax, ecx
	mov	DWORD PTR Error$[rsp], eax

; 51   : 
; 52   : 	return Error;

	mov	eax, DWORD PTR Error$[rsp]

; 53   : }

	mov	edi, eax
	mov	rcx, rsp
	lea	rdx, OFFSET FLAT:?test_quat_angleAxis@@YAHXZ$rtcFrameData
	call	_RTC_CheckStackVars
	mov	eax, edi
	add	rsp, 320				; 00000140H
	pop	rdi
	ret	0
?test_quat_angleAxis@@YAHXZ ENDP			; test_quat_angleAxis
_TEXT	ENDS
; Function compile flags: /Odtp /RTCsu
; File C:\Users\ksart\OneDrive\Desktop\FlappyBird\libraries\external\glm\glm\detail\func_geometric.inl
;	COMDAT ??$normalize@M$0A@Utvec3@glm@@@glm@@YA?AU?$tvec3@M$0A@@0@AEBU10@@Z
_TEXT	SEGMENT
__$ReturnUdt$ = 48
x$ = 56
??$normalize@M$0A@Utvec3@glm@@@glm@@YA?AU?$tvec3@M$0A@@0@AEBU10@@Z PROC ; glm::normalize<float,0,glm::tvec3>, COMDAT

; 195  : 	{

$LN3:
	mov	QWORD PTR [rsp+16], rdx
	mov	QWORD PTR [rsp+8], rcx
	push	rdi
	sub	rsp, 32					; 00000020H

; 196  : 		GLM_STATIC_ASSERT(std::numeric_limits<T>::is_iec559, "'normalize' accepts only floating-point inputs");
; 197  : 
; 198  : 		return detail::compute_normalize<T, P, vecType, detail::is_aligned<P>::value>::call(x);

	mov	rdx, QWORD PTR x$[rsp]
	mov	rcx, QWORD PTR __$ReturnUdt$[rsp]
	call	?call@?$compute_normalize@M$0A@Utvec3@glm@@$0A@@detail@glm@@SA?AU?$tvec3@M$0A@@3@AEBU43@@Z ; glm::detail::compute_normalize<float,0,glm::tvec3,0>::call
	mov	rax, QWORD PTR __$ReturnUdt$[rsp]

; 199  : 	}

	add	rsp, 32					; 00000020H
	pop	rdi
	ret	0
??$normalize@M$0A@Utvec3@glm@@@glm@@YA?AU?$tvec3@M$0A@@0@AEBU10@@Z ENDP ; glm::normalize<float,0,glm::tvec3>
_TEXT	ENDS
; Function compile flags: /Odtp /RTCsu
; File C:\Users\ksart\OneDrive\Desktop\FlappyBird\libraries\external\glm\glm\gtc\quaternion.inl
;	COMDAT ??$angle@M$0A@@glm@@YAMAEBU?$tquat@M$0A@@0@@Z
_TEXT	SEGMENT
x$ = 64
??$angle@M$0A@@glm@@YAMAEBU?$tquat@M$0A@@0@@Z PROC	; glm::angle<float,0>, COMDAT

; 692  : 	{

$LN3:
	mov	QWORD PTR [rsp+8], rcx
	push	rdi
	sub	rsp, 48					; 00000030H

; 693  : 		return acos(x.w) * T(2);

	mov	rax, QWORD PTR x$[rsp]
	movss	xmm0, DWORD PTR [rax+12]
	call	?acos@@YAMM@Z				; acos
	mulss	xmm0, DWORD PTR __real@40000000

; 694  : 	}

	add	rsp, 48					; 00000030H
	pop	rdi
	ret	0
??$angle@M$0A@@glm@@YAMAEBU?$tquat@M$0A@@0@@Z ENDP	; glm::angle<float,0>
_TEXT	ENDS
; Function compile flags: /Odtp /RTCsu
; File C:\Users\ksart\OneDrive\Desktop\FlappyBird\libraries\external\glm\glm\detail\type_vec4.inl
;	COMDAT ??0?$tvec4@M$0A@@glm@@QEAA@MMMM@Z
_TEXT	SEGMENT
this$ = 16
a$ = 24
b$ = 32
c$ = 40
d$ = 48
??0?$tvec4@M$0A@@glm@@QEAA@MMMM@Z PROC			; glm::tvec4<float,0>::tvec4<float,0>, COMDAT

; 193  : 	{}

$LN3:
	movss	DWORD PTR [rsp+32], xmm3
	movss	DWORD PTR [rsp+24], xmm2
	movss	DWORD PTR [rsp+16], xmm1
	mov	QWORD PTR [rsp+8], rcx
	push	rdi

; 192  : 		: x(a), y(b), z(c), w(d)

	mov	rax, QWORD PTR this$[rsp]
	movss	xmm0, DWORD PTR a$[rsp]
	movss	DWORD PTR [rax], xmm0
	mov	rax, QWORD PTR this$[rsp]
	movss	xmm0, DWORD PTR b$[rsp]
	movss	DWORD PTR [rax+4], xmm0
	mov	rax, QWORD PTR this$[rsp]
	movss	xmm0, DWORD PTR c$[rsp]
	movss	DWORD PTR [rax+8], xmm0
	mov	rax, QWORD PTR this$[rsp]
	movss	xmm0, DWORD PTR d$[rsp]
	movss	DWORD PTR [rax+12], xmm0

; 193  : 	{}

	mov	rax, QWORD PTR this$[rsp]
	pop	rdi
	ret	0
??0?$tvec4@M$0A@@glm@@QEAA@MMMM@Z ENDP			; glm::tvec4<float,0>::tvec4<float,0>
_TEXT	ENDS
; Function compile flags: /Odtp /RTCsu
; File C:\Users\ksart\OneDrive\Desktop\FlappyBird\libraries\external\glm\glm\detail\type_vec4.inl
;	COMDAT ??0?$tvec4@M$0A@@glm@@QEAA@M@Z
_TEXT	SEGMENT
this$ = 16
scalar$ = 24
??0?$tvec4@M$0A@@glm@@QEAA@M@Z PROC			; glm::tvec4<float,0>::tvec4<float,0>, COMDAT

; 188  : 	{}

$LN3:
	movss	DWORD PTR [rsp+16], xmm1
	mov	QWORD PTR [rsp+8], rcx
	push	rdi

; 187  : 		: x(scalar), y(scalar), z(scalar), w(scalar)

	mov	rax, QWORD PTR this$[rsp]
	movss	xmm0, DWORD PTR scalar$[rsp]
	movss	DWORD PTR [rax], xmm0
	mov	rax, QWORD PTR this$[rsp]
	movss	xmm0, DWORD PTR scalar$[rsp]
	movss	DWORD PTR [rax+4], xmm0
	mov	rax, QWORD PTR this$[rsp]
	movss	xmm0, DWORD PTR scalar$[rsp]
	movss	DWORD PTR [rax+8], xmm0
	mov	rax, QWORD PTR this$[rsp]
	movss	xmm0, DWORD PTR scalar$[rsp]
	movss	DWORD PTR [rax+12], xmm0

; 188  : 	{}

	mov	rax, QWORD PTR this$[rsp]
	pop	rdi
	ret	0
??0?$tvec4@M$0A@@glm@@QEAA@M@Z ENDP			; glm::tvec4<float,0>::tvec4<float,0>
_TEXT	ENDS
; Function compile flags: /Odtp /RTCsu
; File C:\Users\ksart\OneDrive\Desktop\FlappyBird\libraries\external\glm\glm\detail\type_vec4.inl
;	COMDAT ??A?$tvec4@M$0A@@glm@@QEBAAEBMH@Z
_TEXT	SEGMENT
this$ = 48
i$ = 56
??A?$tvec4@M$0A@@glm@@QEBAAEBMH@Z PROC			; glm::tvec4<float,0>::operator[], COMDAT

; 336  : 	{

$LN5:
	mov	DWORD PTR [rsp+16], edx
	mov	QWORD PTR [rsp+8], rcx
	push	rdi
	sub	rsp, 32					; 00000020H

; 337  : 		assert(i >= 0 && i < this->length());

	cmp	DWORD PTR i$[rsp], 0
	jl	SHORT $LN3@operator
	call	?length@?$tvec4@M$0A@@glm@@SAHXZ	; glm::tvec4<float,0>::length
	cmp	DWORD PTR i$[rsp], eax
	jl	SHORT $LN4@operator
$LN3@operator:
	mov	r8d, 337				; 00000151H
	lea	rdx, OFFSET FLAT:??_C@_1LG@LAANPDHN@?$AAC?$AA?3?$AA?2?$AAU?$AAs?$AAe?$AAr?$AAs?$AA?2?$AAk?$AAs?$AAa?$AAr?$AAt?$AA?2@
	lea	rcx, OFFSET FLAT:??_C@_1DK@BGNCJAPL@?$AAi?$AA?5?$AA?$DO?$AA?$DN?$AA?5?$AA0?$AA?5?$AA?$CG?$AA?$CG?$AA?5?$AAi?$AA?5?$AA?$DM?$AA?5?$AAt@
	call	QWORD PTR __imp__wassert
	xor	eax, eax
$LN4@operator:

; 338  : 		return (&x)[i];

	movsxd	rax, DWORD PTR i$[rsp]
	mov	rcx, QWORD PTR this$[rsp]
	lea	rax, QWORD PTR [rcx+rax*4]

; 339  : 	}

	add	rsp, 32					; 00000020H
	pop	rdi
	ret	0
??A?$tvec4@M$0A@@glm@@QEBAAEBMH@Z ENDP			; glm::tvec4<float,0>::operator[]
_TEXT	ENDS
; Function compile flags: /Odtp /RTCsu
; File C:\Users\ksart\OneDrive\Desktop\FlappyBird\libraries\external\glm\glm\detail\type_vec4.hpp
;	COMDAT ?length@?$tvec4@M$0A@@glm@@SAHXZ
_TEXT	SEGMENT
?length@?$tvec4@M$0A@@glm@@SAHXZ PROC			; glm::tvec4<float,0>::length, COMDAT

; 85   : 		GLM_FUNC_DECL static length_type length(){return 4;}

$LN3:
	push	rdi
	mov	eax, 4
	pop	rdi
	ret	0
?length@?$tvec4@M$0A@@glm@@SAHXZ ENDP			; glm::tvec4<float,0>::length
_TEXT	ENDS
; Function compile flags: /Odtp /RTCsu
; File C:\Users\ksart\OneDrive\Desktop\FlappyBird\libraries\external\glm\glm\gtc\quaternion.inl
;	COMDAT ??$length@M$0A@@glm@@YAMAEBU?$tquat@M$0A@@0@@Z
_TEXT	SEGMENT
q$ = 64
??$length@M$0A@@glm@@YAMAEBU?$tquat@M$0A@@0@@Z PROC	; glm::length<float,0>, COMDAT

; 374  : 	{

$LN3:
	mov	QWORD PTR [rsp+8], rcx
	push	rdi
	sub	rsp, 48					; 00000030H

; 375  : 		return glm::sqrt(dot(q, q));

	mov	rdx, QWORD PTR q$[rsp]
	mov	rcx, QWORD PTR q$[rsp]
	call	??$dot@M$0A@Utquat@glm@@@glm@@YAMAEBU?$tquat@M$0A@@0@0@Z ; glm::dot<float,0,glm::tquat>
	call	?sqrt@@YAMM@Z				; sqrt

; 376  : 	}

	add	rsp, 48					; 00000030H
	pop	rdi
	ret	0
??$length@M$0A@@glm@@YAMAEBU?$tquat@M$0A@@0@@Z ENDP	; glm::length<float,0>
_TEXT	ENDS
; Function compile flags: /Odtp /RTCsu
; File C:\Users\ksart\OneDrive\Desktop\FlappyBird\libraries\external\glm\glm\gtc\quaternion.inl
;	COMDAT ??$normalize@M$0A@@glm@@YA?AU?$tquat@M$0A@@0@AEBU10@@Z
_TEXT	SEGMENT
len$ = 48
oneOverLen$ = 52
$T1 = 56
$T2 = 60
$T3 = 64
$T4 = 68
$T5 = 72
$T6 = 76
$T7 = 80
$T8 = 84
__$ReturnUdt$ = 112
q$ = 120
??$normalize@M$0A@@glm@@YA?AU?$tquat@M$0A@@0@AEBU10@@Z PROC ; glm::normalize<float,0>, COMDAT

; 380  : 	{

$LN4:
	mov	QWORD PTR [rsp+16], rdx
	mov	QWORD PTR [rsp+8], rcx
	push	rdi
	sub	rsp, 96					; 00000060H

; 381  : 		T len = length(q);

	mov	rcx, QWORD PTR q$[rsp]
	call	??$length@M$0A@@glm@@YAMAEBU?$tquat@M$0A@@0@@Z ; glm::length<float,0>
	movss	DWORD PTR len$[rsp], xmm0

; 382  : 		if(len <= T(0)) // Problem

	xorps	xmm0, xmm0
	comiss	xmm0, DWORD PTR len$[rsp]
	jb	SHORT $LN2@normalize

; 383  : 			return tquat<T, P>(1, 0, 0, 0);

	xorps	xmm0, xmm0
	movss	DWORD PTR $T1[rsp], xmm0
	xorps	xmm0, xmm0
	movss	DWORD PTR $T2[rsp], xmm0
	xorps	xmm0, xmm0
	movss	DWORD PTR $T3[rsp], xmm0
	movss	xmm0, DWORD PTR __real@3f800000
	movss	DWORD PTR $T4[rsp], xmm0
	lea	rax, QWORD PTR $T1[rsp]
	mov	QWORD PTR [rsp+32], rax
	lea	r9, QWORD PTR $T2[rsp]
	lea	r8, QWORD PTR $T3[rsp]
	lea	rdx, QWORD PTR $T4[rsp]
	mov	rcx, QWORD PTR __$ReturnUdt$[rsp]
	call	??0?$tquat@M$0A@@glm@@QEAA@AEBM000@Z	; glm::tquat<float,0>::tquat<float,0>
	mov	rax, QWORD PTR __$ReturnUdt$[rsp]
	jmp	$LN1@normalize
$LN2@normalize:

; 384  : 		T oneOverLen = T(1) / len;

	movss	xmm0, DWORD PTR __real@3f800000
	divss	xmm0, DWORD PTR len$[rsp]
	movss	DWORD PTR oneOverLen$[rsp], xmm0

; 385  : 		return tquat<T, P>(q.w * oneOverLen, q.x * oneOverLen, q.y * oneOverLen, q.z * oneOverLen);

	mov	rax, QWORD PTR q$[rsp]
	movss	xmm0, DWORD PTR [rax+8]
	mulss	xmm0, DWORD PTR oneOverLen$[rsp]
	movss	DWORD PTR $T5[rsp], xmm0
	mov	rax, QWORD PTR q$[rsp]
	movss	xmm0, DWORD PTR [rax+4]
	mulss	xmm0, DWORD PTR oneOverLen$[rsp]
	movss	DWORD PTR $T6[rsp], xmm0
	mov	rax, QWORD PTR q$[rsp]
	movss	xmm0, DWORD PTR [rax]
	mulss	xmm0, DWORD PTR oneOverLen$[rsp]
	movss	DWORD PTR $T7[rsp], xmm0
	mov	rax, QWORD PTR q$[rsp]
	movss	xmm0, DWORD PTR [rax+12]
	mulss	xmm0, DWORD PTR oneOverLen$[rsp]
	movss	DWORD PTR $T8[rsp], xmm0
	lea	rax, QWORD PTR $T5[rsp]
	mov	QWORD PTR [rsp+32], rax
	lea	r9, QWORD PTR $T6[rsp]
	lea	r8, QWORD PTR $T7[rsp]
	lea	rdx, QWORD PTR $T8[rsp]
	mov	rcx, QWORD PTR __$ReturnUdt$[rsp]
	call	??0?$tquat@M$0A@@glm@@QEAA@AEBM000@Z	; glm::tquat<float,0>::tquat<float,0>
	mov	rax, QWORD PTR __$ReturnUdt$[rsp]
$LN1@normalize:

; 386  : 	}

	add	rsp, 96					; 00000060H
	pop	rdi
	ret	0
??$normalize@M$0A@@glm@@YA?AU?$tquat@M$0A@@0@AEBU10@@Z ENDP ; glm::normalize<float,0>
_TEXT	ENDS
; Function compile flags: /Odtp /RTCsu
; File C:\Users\ksart\OneDrive\Desktop\FlappyBird\libraries\external\glm\glm\gtc\quaternion.inl
;	COMDAT ??$angleAxis@M$0A@@glm@@YA?AU?$tquat@M$0A@@0@AEBMAEBU?$tvec3@M$0A@@0@@Z
_TEXT	SEGMENT
Result$ = 40
a$ = 68
s$ = 72
__$ReturnUdt$ = 112
angle$ = 120
v$ = 128
??$angleAxis@M$0A@@glm@@YA?AU?$tquat@M$0A@@0@AEBMAEBU?$tvec3@M$0A@@0@@Z PROC ; glm::angleAxis<float,0>, COMDAT

; 708  : 	{

$LN3:
	mov	QWORD PTR [rsp+24], r8
	mov	QWORD PTR [rsp+16], rdx
	mov	QWORD PTR [rsp+8], rcx
	push	rsi
	push	rdi
	sub	rsp, 88					; 00000058H
	lea	rdi, QWORD PTR [rsp+32]
	mov	ecx, 14
	mov	eax, -858993460				; ccccccccH
	rep stosd
	mov	rcx, QWORD PTR [rsp+112]

; 709  : 		tquat<T, P> Result(uninitialize);

	xor	edx, edx
	lea	rcx, QWORD PTR Result$[rsp]
	call	??0?$tquat@M$0A@@glm@@QEAA@W4ctor@1@@Z	; glm::tquat<float,0>::tquat<float,0>

; 710  : 
; 711  : 		T const a(angle);

	mov	rax, QWORD PTR angle$[rsp]
	movss	xmm0, DWORD PTR [rax]
	movss	DWORD PTR a$[rsp], xmm0

; 712  : 		T const s = glm::sin(a * static_cast<T>(0.5));

	movss	xmm0, DWORD PTR a$[rsp]
	mulss	xmm0, DWORD PTR __real@3f000000
	call	?sin@@YAMM@Z				; sin
	movss	DWORD PTR s$[rsp], xmm0

; 713  : 
; 714  : 		Result.w = glm::cos(a * static_cast<T>(0.5));

	movss	xmm0, DWORD PTR a$[rsp]
	mulss	xmm0, DWORD PTR __real@3f000000
	call	?cos@@YAMM@Z				; cos
	movss	DWORD PTR Result$[rsp+12], xmm0

; 715  : 		Result.x = v.x * s;

	mov	rax, QWORD PTR v$[rsp]
	movss	xmm0, DWORD PTR [rax]
	mulss	xmm0, DWORD PTR s$[rsp]
	movss	DWORD PTR Result$[rsp], xmm0

; 716  : 		Result.y = v.y * s;

	mov	rax, QWORD PTR v$[rsp]
	movss	xmm0, DWORD PTR [rax+4]
	mulss	xmm0, DWORD PTR s$[rsp]
	movss	DWORD PTR Result$[rsp+4], xmm0

; 717  : 		Result.z = v.z * s;

	mov	rax, QWORD PTR v$[rsp]
	movss	xmm0, DWORD PTR [rax+8]
	mulss	xmm0, DWORD PTR s$[rsp]
	movss	DWORD PTR Result$[rsp+8], xmm0

; 718  : 		return Result;

	lea	rax, QWORD PTR Result$[rsp]
	mov	rdi, QWORD PTR __$ReturnUdt$[rsp]
	mov	rsi, rax
	mov	ecx, 16
	rep movsb
	mov	rax, QWORD PTR __$ReturnUdt$[rsp]

; 719  : 	}

	mov	rdi, rax
	mov	rcx, rsp
	lea	rdx, OFFSET FLAT:??$angleAxis@M$0A@@glm@@YA?AU?$tquat@M$0A@@0@AEBMAEBU?$tvec3@M$0A@@0@@Z$rtcFrameData
	call	_RTC_CheckStackVars
	mov	rax, rdi
	add	rsp, 88					; 00000058H
	pop	rdi
	pop	rsi
	ret	0
??$angleAxis@M$0A@@glm@@YA?AU?$tquat@M$0A@@0@AEBMAEBU?$tvec3@M$0A@@0@@Z ENDP ; glm::angleAxis<float,0>
_TEXT	ENDS
; Function compile flags: /Odtp /RTCsu
; File C:\Users\ksart\OneDrive\Desktop\FlappyBird\libraries\external\glm\glm\detail\type_vec3.inl
;	COMDAT ??$?0HHH@?$tvec3@M$0A@@glm@@QEAA@HHH@Z
_TEXT	SEGMENT
this$ = 16
a$ = 24
b$ = 32
c$ = 40
??$?0HHH@?$tvec3@M$0A@@glm@@QEAA@HHH@Z PROC		; glm::tvec3<float,0>::tvec3<float,0><int,int,int>, COMDAT

; 80   : 	{}

$LN3:
	mov	DWORD PTR [rsp+32], r9d
	mov	DWORD PTR [rsp+24], r8d
	mov	DWORD PTR [rsp+16], edx
	mov	QWORD PTR [rsp+8], rcx
	push	rdi

; 77   : 		x(static_cast<T>(a)),

	cvtsi2ss xmm0, DWORD PTR a$[rsp]
	mov	rax, QWORD PTR this$[rsp]
	movss	DWORD PTR [rax], xmm0

; 78   : 		y(static_cast<T>(b)),

	cvtsi2ss xmm0, DWORD PTR b$[rsp]
	mov	rax, QWORD PTR this$[rsp]
	movss	DWORD PTR [rax+4], xmm0

; 79   : 		z(static_cast<T>(c))

	cvtsi2ss xmm0, DWORD PTR c$[rsp]
	mov	rax, QWORD PTR this$[rsp]
	movss	DWORD PTR [rax+8], xmm0

; 80   : 	{}

	mov	rax, QWORD PTR this$[rsp]
	pop	rdi
	ret	0
??$?0HHH@?$tvec3@M$0A@@glm@@QEAA@HHH@Z ENDP		; glm::tvec3<float,0>::tvec3<float,0><int,int,int>
_TEXT	ENDS
; Function compile flags: /Odtp /RTCsu
; File C:\Users\ksart\OneDrive\Desktop\FlappyBird\libraries\external\glm\glm\detail\type_vec3.inl
;	COMDAT ??0?$tvec3@M$0A@@glm@@QEAA@MMM@Z
_TEXT	SEGMENT
this$ = 16
a$ = 24
b$ = 32
c$ = 40
??0?$tvec3@M$0A@@glm@@QEAA@MMM@Z PROC			; glm::tvec3<float,0>::tvec3<float,0>, COMDAT

; 70   : 	{}

$LN3:
	movss	DWORD PTR [rsp+32], xmm3
	movss	DWORD PTR [rsp+24], xmm2
	movss	DWORD PTR [rsp+16], xmm1
	mov	QWORD PTR [rsp+8], rcx
	push	rdi

; 69   : 		: x(a), y(b), z(c)

	mov	rax, QWORD PTR this$[rsp]
	movss	xmm0, DWORD PTR a$[rsp]
	movss	DWORD PTR [rax], xmm0
	mov	rax, QWORD PTR this$[rsp]
	movss	xmm0, DWORD PTR b$[rsp]
	movss	DWORD PTR [rax+4], xmm0
	mov	rax, QWORD PTR this$[rsp]
	movss	xmm0, DWORD PTR c$[rsp]
	movss	DWORD PTR [rax+8], xmm0

; 70   : 	{}

	mov	rax, QWORD PTR this$[rsp]
	pop	rdi
	ret	0
??0?$tvec3@M$0A@@glm@@QEAA@MMM@Z ENDP			; glm::tvec3<float,0>::tvec3<float,0>
_TEXT	ENDS
; Function compile flags: /Odtp /RTCsu
; File C:\Users\ksart\OneDrive\Desktop\FlappyBird\libraries\external\glm\glm\detail\type_vec3.inl
;	COMDAT ??0?$tvec3@M$0A@@glm@@QEAA@M@Z
_TEXT	SEGMENT
this$ = 16
scalar$ = 24
??0?$tvec3@M$0A@@glm@@QEAA@M@Z PROC			; glm::tvec3<float,0>::tvec3<float,0>, COMDAT

; 65   : 	{}

$LN3:
	movss	DWORD PTR [rsp+16], xmm1
	mov	QWORD PTR [rsp+8], rcx
	push	rdi

; 64   : 		: x(scalar), y(scalar), z(scalar)

	mov	rax, QWORD PTR this$[rsp]
	movss	xmm0, DWORD PTR scalar$[rsp]
	movss	DWORD PTR [rax], xmm0
	mov	rax, QWORD PTR this$[rsp]
	movss	xmm0, DWORD PTR scalar$[rsp]
	movss	DWORD PTR [rax+4], xmm0
	mov	rax, QWORD PTR this$[rsp]
	movss	xmm0, DWORD PTR scalar$[rsp]
	movss	DWORD PTR [rax+8], xmm0

; 65   : 	{}

	mov	rax, QWORD PTR this$[rsp]
	pop	rdi
	ret	0
??0?$tvec3@M$0A@@glm@@QEAA@M@Z ENDP			; glm::tvec3<float,0>::tvec3<float,0>
_TEXT	ENDS
; Function compile flags: /Odtp /RTCsu
; File C:\Users\ksart\OneDrive\Desktop\FlappyBird\libraries\external\glm\glm\detail\type_vec3.inl
;	COMDAT ??A?$tvec3@M$0A@@glm@@QEBAAEBMH@Z
_TEXT	SEGMENT
this$ = 48
i$ = 56
??A?$tvec3@M$0A@@glm@@QEBAAEBMH@Z PROC			; glm::tvec3<float,0>::operator[], COMDAT

; 151  : 	{

$LN5:
	mov	DWORD PTR [rsp+16], edx
	mov	QWORD PTR [rsp+8], rcx
	push	rdi
	sub	rsp, 32					; 00000020H

; 152  : 		assert(i >= 0 && i < this->length());

	cmp	DWORD PTR i$[rsp], 0
	jl	SHORT $LN3@operator
	call	?length@?$tvec3@M$0A@@glm@@SAHXZ	; glm::tvec3<float,0>::length
	cmp	DWORD PTR i$[rsp], eax
	jl	SHORT $LN4@operator
$LN3@operator:
	mov	r8d, 152				; 00000098H
	lea	rdx, OFFSET FLAT:??_C@_1LG@MEJFBKPC@?$AAC?$AA?3?$AA?2?$AAU?$AAs?$AAe?$AAr?$AAs?$AA?2?$AAk?$AAs?$AAa?$AAr?$AAt?$AA?2@
	lea	rcx, OFFSET FLAT:??_C@_1DK@BGNCJAPL@?$AAi?$AA?5?$AA?$DO?$AA?$DN?$AA?5?$AA0?$AA?5?$AA?$CG?$AA?$CG?$AA?5?$AAi?$AA?5?$AA?$DM?$AA?5?$AAt@
	call	QWORD PTR __imp__wassert
	xor	eax, eax
$LN4@operator:

; 153  : 		return (&x)[i];

	movsxd	rax, DWORD PTR i$[rsp]
	mov	rcx, QWORD PTR this$[rsp]
	lea	rax, QWORD PTR [rcx+rax*4]

; 154  : 	}

	add	rsp, 32					; 00000020H
	pop	rdi
	ret	0
??A?$tvec3@M$0A@@glm@@QEBAAEBMH@Z ENDP			; glm::tvec3<float,0>::operator[]
_TEXT	ENDS
; Function compile flags: /Odtp /RTCsu
; File C:\Users\ksart\OneDrive\Desktop\FlappyBird\libraries\external\glm\glm\detail\type_vec3.hpp
;	COMDAT ?length@?$tvec3@M$0A@@glm@@SAHXZ
_TEXT	SEGMENT
?length@?$tvec3@M$0A@@glm@@SAHXZ PROC			; glm::tvec3<float,0>::length, COMDAT

; 82   : 		GLM_FUNC_DECL static length_type length(){return 3;}

$LN3:
	push	rdi
	mov	eax, 3
	pop	rdi
	ret	0
?length@?$tvec3@M$0A@@glm@@SAHXZ ENDP			; glm::tvec3<float,0>::length
_TEXT	ENDS
; Function compile flags: /Odtp /RTCsu
; File C:\Users\ksart\OneDrive\Desktop\FlappyBird\libraries\external\glm\glm\gtc\constants.inl
;	COMDAT ??$pi@M@glm@@YAMXZ
_TEXT	SEGMENT
??$pi@M@glm@@YAMXZ PROC					; glm::pi<float>, COMDAT

; 28   : 	{

$LN3:
	push	rdi
	sub	rsp, 16

; 29   : 		return genType(3.14159265358979323846264338327950288);

	movss	xmm0, DWORD PTR __real@40490fdb

; 30   : 	}

	add	rsp, 16
	pop	rdi
	ret	0
??$pi@M@glm@@YAMXZ ENDP					; glm::pi<float>
_TEXT	ENDS
; Function compile flags: /Odtp /RTCsu
; File C:\Users\ksart\OneDrive\Desktop\FlappyBird\libraries\external\glm\glm\gtc\quaternion.inl
;	COMDAT ??0?$tquat@M$0A@@glm@@QEAA@AEBU?$tvec3@M$0A@@1@0@Z
_TEXT	SEGMENT
LocalW$ = 56
Dot$ = 84
q$ = 104
$T5 = 132
$T6 = 136
this$ = 192
u$ = 200
v$ = 208
??0?$tquat@M$0A@@glm@@QEAA@AEBU?$tvec3@M$0A@@1@0@Z PROC	; glm::tquat<float,0>::tquat<float,0>, COMDAT

; 155  : 	{

$LN3:
	mov	QWORD PTR [rsp+24], r8
	mov	QWORD PTR [rsp+16], rdx
	mov	QWORD PTR [rsp+8], rcx
	push	rsi
	push	rdi
	sub	rsp, 168				; 000000a8H
	lea	rdi, QWORD PTR [rsp+48]
	mov	ecx, 30
	mov	eax, -858993460				; ccccccccH
	rep stosd
	mov	rcx, QWORD PTR [rsp+192]

; 156  : 		tvec3<T, P> const LocalW(cross(u, v));

	mov	r8, QWORD PTR v$[rsp]
	mov	rdx, QWORD PTR u$[rsp]
	lea	rcx, QWORD PTR LocalW$[rsp]
	call	??$cross@M$0A@@glm@@YA?AU?$tvec3@M$0A@@0@AEBU10@0@Z ; glm::cross<float,0>

; 157  : 		T Dot = detail::compute_dot<tvec3, T, P, detail::is_aligned<P>::value>::call(u, v);

	mov	rdx, QWORD PTR v$[rsp]
	mov	rcx, QWORD PTR u$[rsp]
	call	?call@?$compute_dot@Utvec3@glm@@M$0A@$0A@@detail@glm@@SAMAEBU?$tvec3@M$0A@@3@0@Z ; glm::detail::compute_dot<glm::tvec3,float,0,0>::call
	movss	DWORD PTR Dot$[rsp], xmm0

; 158  : 		tquat<T, P> q(T(1) + Dot, LocalW.x, LocalW.y, LocalW.z);

	movss	xmm0, DWORD PTR __real@3f800000
	addss	xmm0, DWORD PTR Dot$[rsp]
	movss	DWORD PTR $T5[rsp], xmm0
	lea	rax, QWORD PTR LocalW$[rsp+8]
	mov	QWORD PTR [rsp+32], rax
	lea	r9, QWORD PTR LocalW$[rsp+4]
	lea	r8, QWORD PTR LocalW$[rsp]
	lea	rdx, QWORD PTR $T5[rsp]
	lea	rcx, QWORD PTR q$[rsp]
	call	??0?$tquat@M$0A@@glm@@QEAA@AEBM000@Z	; glm::tquat<float,0>::tquat<float,0>

; 159  : 
; 160  : 		*this = normalize(q);

	lea	rdx, QWORD PTR q$[rsp]
	lea	rcx, QWORD PTR $T6[rsp]
	call	??$normalize@M$0A@@glm@@YA?AU?$tquat@M$0A@@0@AEBU10@@Z ; glm::normalize<float,0>
	mov	rdi, QWORD PTR this$[rsp]
	mov	rsi, rax
	mov	ecx, 16
	rep movsb

; 161  : 	}

	mov	rax, QWORD PTR this$[rsp]
	mov	rdi, rax
	mov	rcx, rsp
	lea	rdx, OFFSET FLAT:??0?$tquat@M$0A@@glm@@QEAA@AEBU?$tvec3@M$0A@@1@0@Z$rtcFrameData
	call	_RTC_CheckStackVars
	mov	rax, rdi
	add	rsp, 168				; 000000a8H
	pop	rdi
	pop	rsi
	ret	0
??0?$tquat@M$0A@@glm@@QEAA@AEBU?$tvec3@M$0A@@1@0@Z ENDP	; glm::tquat<float,0>::tquat<float,0>
_TEXT	ENDS
; Function compile flags: /Odtp /RTCsu
; File C:\Users\ksart\OneDrive\Desktop\FlappyBird\libraries\external\glm\glm\gtc\quaternion.inl
;	COMDAT ??0?$tquat@M$0A@@glm@@QEAA@AEBM000@Z
_TEXT	SEGMENT
this$ = 16
w$ = 24
x$ = 32
y$ = 40
z$ = 48
??0?$tquat@M$0A@@glm@@QEAA@AEBM000@Z PROC		; glm::tquat<float,0>::tquat<float,0>, COMDAT

; 122  : 	{}

$LN3:
	mov	QWORD PTR [rsp+32], r9
	mov	QWORD PTR [rsp+24], r8
	mov	QWORD PTR [rsp+16], rdx
	mov	QWORD PTR [rsp+8], rcx
	push	rdi

; 121  : 		: x(x), y(y), z(z), w(w)

	mov	rax, QWORD PTR this$[rsp]
	mov	rcx, QWORD PTR x$[rsp]
	movss	xmm0, DWORD PTR [rcx]
	movss	DWORD PTR [rax], xmm0
	mov	rax, QWORD PTR this$[rsp]
	mov	rcx, QWORD PTR y$[rsp]
	movss	xmm0, DWORD PTR [rcx]
	movss	DWORD PTR [rax+4], xmm0
	mov	rax, QWORD PTR this$[rsp]
	mov	rcx, QWORD PTR z$[rsp]
	movss	xmm0, DWORD PTR [rcx]
	movss	DWORD PTR [rax+8], xmm0
	mov	rax, QWORD PTR this$[rsp]
	mov	rcx, QWORD PTR w$[rsp]
	movss	xmm0, DWORD PTR [rcx]
	movss	DWORD PTR [rax+12], xmm0

; 122  : 	{}

	mov	rax, QWORD PTR this$[rsp]
	pop	rdi
	ret	0
??0?$tquat@M$0A@@glm@@QEAA@AEBM000@Z ENDP		; glm::tquat<float,0>::tquat<float,0>
_TEXT	ENDS
; Function compile flags: /Odtp /RTCsu
; File C:\Users\ksart\OneDrive\Desktop\FlappyBird\libraries\external\glm\glm\gtc\quaternion.inl
;	COMDAT ??0?$tquat@M$0A@@glm@@QEAA@AEBMAEBU?$tvec3@M$0A@@1@@Z
_TEXT	SEGMENT
this$ = 16
s$ = 24
v$ = 32
??0?$tquat@M$0A@@glm@@QEAA@AEBMAEBU?$tvec3@M$0A@@1@@Z PROC ; glm::tquat<float,0>::tquat<float,0>, COMDAT

; 117  : 	{}

$LN3:
	mov	QWORD PTR [rsp+24], r8
	mov	QWORD PTR [rsp+16], rdx
	mov	QWORD PTR [rsp+8], rcx
	push	rdi

; 116  : 		: x(v.x), y(v.y), z(v.z), w(s)

	mov	rax, QWORD PTR this$[rsp]
	mov	rcx, QWORD PTR v$[rsp]
	movss	xmm0, DWORD PTR [rcx]
	movss	DWORD PTR [rax], xmm0
	mov	rax, QWORD PTR this$[rsp]
	mov	rcx, QWORD PTR v$[rsp]
	movss	xmm0, DWORD PTR [rcx+4]
	movss	DWORD PTR [rax+4], xmm0
	mov	rax, QWORD PTR this$[rsp]
	mov	rcx, QWORD PTR v$[rsp]
	movss	xmm0, DWORD PTR [rcx+8]
	movss	DWORD PTR [rax+8], xmm0
	mov	rax, QWORD PTR this$[rsp]
	mov	rcx, QWORD PTR s$[rsp]
	movss	xmm0, DWORD PTR [rcx]
	movss	DWORD PTR [rax+12], xmm0

; 117  : 	{}

	mov	rax, QWORD PTR this$[rsp]
	pop	rdi
	ret	0
??0?$tquat@M$0A@@glm@@QEAA@AEBMAEBU?$tvec3@M$0A@@1@@Z ENDP ; glm::tquat<float,0>::tquat<float,0>
_TEXT	ENDS
; Function compile flags: /Odtp /RTCsu
; File C:\Users\ksart\OneDrive\Desktop\FlappyBird\libraries\external\glm\glm\gtc\quaternion.inl
;	COMDAT ??0?$tquat@M$0A@@glm@@QEAA@W4ctor@1@@Z
_TEXT	SEGMENT
this$ = 16
__formal$ = 24
??0?$tquat@M$0A@@glm@@QEAA@W4ctor@1@@Z PROC		; glm::tquat<float,0>::tquat<float,0>, COMDAT

; 112  : 	{}

$LN3:
	mov	DWORD PTR [rsp+16], edx
	mov	QWORD PTR [rsp+8], rcx
	push	rdi
	mov	rax, QWORD PTR this$[rsp]
	pop	rdi
	ret	0
??0?$tquat@M$0A@@glm@@QEAA@W4ctor@1@@Z ENDP		; glm::tquat<float,0>::tquat<float,0>
_TEXT	ENDS
; Function compile flags: /Odtp /RTCsu
; File C:\Users\ksart\OneDrive\Desktop\FlappyBird\libraries\external\glm\glm\gtc\quaternion.inl
;	COMDAT ??0?$tquat@M$0A@@glm@@QEAA@XZ
_TEXT	SEGMENT
this$ = 16
??0?$tquat@M$0A@@glm@@QEAA@XZ PROC			; glm::tquat<float,0>::tquat<float,0>, COMDAT

; 92   : 		{}

$LN3:
	mov	QWORD PTR [rsp+8], rcx
	push	rdi

; 90   : 				: x(0), y(0), z(0), w(1)

	mov	rax, QWORD PTR this$[rsp]
	xorps	xmm0, xmm0
	movss	DWORD PTR [rax], xmm0
	mov	rax, QWORD PTR this$[rsp]
	xorps	xmm0, xmm0
	movss	DWORD PTR [rax+4], xmm0
	mov	rax, QWORD PTR this$[rsp]
	xorps	xmm0, xmm0
	movss	DWORD PTR [rax+8], xmm0
	mov	rax, QWORD PTR this$[rsp]
	movss	xmm0, DWORD PTR __real@3f800000
	movss	DWORD PTR [rax+12], xmm0

; 92   : 		{}

	mov	rax, QWORD PTR this$[rsp]
	pop	rdi
	ret	0
??0?$tquat@M$0A@@glm@@QEAA@XZ ENDP			; glm::tquat<float,0>::tquat<float,0>
_TEXT	ENDS
; Function compile flags: /Odtp /RTCsu
; File C:\Users\ksart\OneDrive\Desktop\FlappyBird\libraries\external\glm\glm\gtc\quaternion.hpp
;	COMDAT ?length@?$tquat@M$0A@@glm@@SAHXZ
_TEXT	SEGMENT
?length@?$tquat@M$0A@@glm@@SAHXZ PROC			; glm::tquat<float,0>::length, COMDAT

; 74   : 		GLM_FUNC_DECL static length_type length(){return 4;}

$LN3:
	push	rdi
	mov	eax, 4
	pop	rdi
	ret	0
?length@?$tquat@M$0A@@glm@@SAHXZ ENDP			; glm::tquat<float,0>::length
_TEXT	ENDS
; Function compile flags: /Odtp /RTCsu
; File C:\Users\ksart\OneDrive\Desktop\FlappyBird\libraries\external\glm\test\gtc\gtc_quaternion.cpp
_TEXT	SEGMENT
Error$ = 32
Q$15 = 56
N$16 = 104
L$17 = 148
A$18 = 180
Q$19 = 216
N$20 = 264
L$21 = 308
A$22 = 340
Q$23 = 376
N$24 = 424
L$25 = 468
A$26 = 500
$T27 = 516
$T28 = 528
$T29 = 532
$T30 = 536
$T31 = 540
$T32 = 544
$T33 = 548
$T34 = 560
$T35 = 572
$T36 = 576
$T37 = 580
$T38 = 584
$T39 = 588
$T40 = 592
$T41 = 604
$T42 = 616
$T43 = 620
$T44 = 624
$T45 = 628
$T46 = 632
tv84 = 636
tv128 = 640
tv153 = 644
tv165 = 648
tv190 = 652
tv202 = 656
?test_quat_angle@@YAHXZ PROC				; test_quat_angle

; 7    : {

$LN15:
	push	rdi
	sub	rsp, 672				; 000002a0H
	lea	rdi, QWORD PTR [rsp+32]
	mov	ecx, 160				; 000000a0H
	mov	eax, -858993460				; ccccccccH
	rep stosd

; 8    : 	int Error = 0;

	mov	DWORD PTR Error$[rsp], 0

; 9    : 
; 10   : 	{
; 11   : 		glm::quat Q = glm::angleAxis(glm::pi<float>() * 0.25f, glm::vec3(0, 0, 1));

	call	??$pi@M@glm@@YAMXZ			; glm::pi<float>
	mulss	xmm0, DWORD PTR __real@3e800000
	movss	DWORD PTR $T28[rsp], xmm0
	mov	r9d, 1
	xor	r8d, r8d
	xor	edx, edx
	lea	rcx, QWORD PTR $T27[rsp]
	call	??$?0HHH@?$tvec3@M$0A@@glm@@QEAA@HHH@Z	; glm::tvec3<float,0>::tvec3<float,0><int,int,int>
	mov	r8, rax
	lea	rdx, QWORD PTR $T28[rsp]
	lea	rcx, QWORD PTR Q$15[rsp]
	call	??$angleAxis@M$0A@@glm@@YA?AU?$tquat@M$0A@@0@AEBMAEBU?$tvec3@M$0A@@0@@Z ; glm::angleAxis<float,0>

; 12   : 		glm::quat N = glm::normalize(Q);

	lea	rdx, QWORD PTR Q$15[rsp]
	lea	rcx, QWORD PTR N$16[rsp]
	call	??$normalize@M$0A@@glm@@YA?AU?$tquat@M$0A@@0@AEBU10@@Z ; glm::normalize<float,0>

; 13   : 		float L = glm::length(N);

	lea	rcx, QWORD PTR N$16[rsp]
	call	??$length@M$0A@@glm@@YAMAEBU?$tquat@M$0A@@0@@Z ; glm::length<float,0>
	movss	DWORD PTR L$17[rsp], xmm0

; 14   : 		Error += glm::epsilonEqual(L, 1.0f, 0.01f) ? 0 : 1;

	movss	xmm0, DWORD PTR __real@3c23d70a
	movss	DWORD PTR $T29[rsp], xmm0
	movss	xmm0, DWORD PTR __real@3f800000
	movss	DWORD PTR $T30[rsp], xmm0
	lea	r8, QWORD PTR $T29[rsp]
	lea	rdx, QWORD PTR $T30[rsp]
	lea	rcx, QWORD PTR L$17[rsp]
	call	??$epsilonEqual@M@glm@@YA_NAEBM00@Z	; glm::epsilonEqual<float>
	movzx	eax, al
	test	eax, eax
	je	SHORT $LN3@test_quat_
	mov	DWORD PTR tv84[rsp], 0
	jmp	SHORT $LN4@test_quat_
$LN3@test_quat_:
	mov	DWORD PTR tv84[rsp], 1
$LN4@test_quat_:
	mov	eax, DWORD PTR tv84[rsp]
	mov	ecx, DWORD PTR Error$[rsp]
	add	ecx, eax
	mov	eax, ecx
	mov	DWORD PTR Error$[rsp], eax

; 15   : 		float A = glm::angle(N);

	lea	rcx, QWORD PTR N$16[rsp]
	call	??$angle@M$0A@@glm@@YAMAEBU?$tquat@M$0A@@0@@Z ; glm::angle<float,0>
	movss	DWORD PTR A$18[rsp], xmm0

; 16   : 		Error += glm::epsilonEqual(A, glm::pi<float>() * 0.25f, 0.01f) ? 0 : 1;

	movss	xmm0, DWORD PTR __real@3c23d70a
	movss	DWORD PTR $T31[rsp], xmm0
	call	??$pi@M@glm@@YAMXZ			; glm::pi<float>
	mulss	xmm0, DWORD PTR __real@3e800000
	movss	DWORD PTR $T32[rsp], xmm0
	lea	r8, QWORD PTR $T31[rsp]
	lea	rdx, QWORD PTR $T32[rsp]
	lea	rcx, QWORD PTR A$18[rsp]
	call	??$epsilonEqual@M@glm@@YA_NAEBM00@Z	; glm::epsilonEqual<float>
	movzx	eax, al
	test	eax, eax
	je	SHORT $LN5@test_quat_
	mov	DWORD PTR tv128[rsp], 0
	jmp	SHORT $LN6@test_quat_
$LN5@test_quat_:
	mov	DWORD PTR tv128[rsp], 1
$LN6@test_quat_:
	mov	eax, DWORD PTR tv128[rsp]
	mov	ecx, DWORD PTR Error$[rsp]
	add	ecx, eax
	mov	eax, ecx
	mov	DWORD PTR Error$[rsp], eax

; 17   : 	}
; 18   : 	{
; 19   : 		glm::quat Q = glm::angleAxis(glm::pi<float>() * 0.25f, glm::normalize(glm::vec3(0, 1, 1)));

	call	??$pi@M@glm@@YAMXZ			; glm::pi<float>
	mulss	xmm0, DWORD PTR __real@3e800000
	movss	DWORD PTR $T35[rsp], xmm0
	mov	r9d, 1
	mov	r8d, 1
	xor	edx, edx
	lea	rcx, QWORD PTR $T33[rsp]
	call	??$?0HHH@?$tvec3@M$0A@@glm@@QEAA@HHH@Z	; glm::tvec3<float,0>::tvec3<float,0><int,int,int>
	mov	rdx, rax
	lea	rcx, QWORD PTR $T34[rsp]
	call	??$normalize@M$0A@Utvec3@glm@@@glm@@YA?AU?$tvec3@M$0A@@0@AEBU10@@Z ; glm::normalize<float,0,glm::tvec3>
	mov	r8, rax
	lea	rdx, QWORD PTR $T35[rsp]
	lea	rcx, QWORD PTR Q$19[rsp]
	call	??$angleAxis@M$0A@@glm@@YA?AU?$tquat@M$0A@@0@AEBMAEBU?$tvec3@M$0A@@0@@Z ; glm::angleAxis<float,0>

; 20   : 		glm::quat N = glm::normalize(Q);

	lea	rdx, QWORD PTR Q$19[rsp]
	lea	rcx, QWORD PTR N$20[rsp]
	call	??$normalize@M$0A@@glm@@YA?AU?$tquat@M$0A@@0@AEBU10@@Z ; glm::normalize<float,0>

; 21   : 		float L = glm::length(N);

	lea	rcx, QWORD PTR N$20[rsp]
	call	??$length@M$0A@@glm@@YAMAEBU?$tquat@M$0A@@0@@Z ; glm::length<float,0>
	movss	DWORD PTR L$21[rsp], xmm0

; 22   : 		Error += glm::epsilonEqual(L, 1.0f, 0.01f) ? 0 : 1;

	movss	xmm0, DWORD PTR __real@3c23d70a
	movss	DWORD PTR $T36[rsp], xmm0
	movss	xmm0, DWORD PTR __real@3f800000
	movss	DWORD PTR $T37[rsp], xmm0
	lea	r8, QWORD PTR $T36[rsp]
	lea	rdx, QWORD PTR $T37[rsp]
	lea	rcx, QWORD PTR L$21[rsp]
	call	??$epsilonEqual@M@glm@@YA_NAEBM00@Z	; glm::epsilonEqual<float>
	movzx	eax, al
	test	eax, eax
	je	SHORT $LN7@test_quat_
	mov	DWORD PTR tv153[rsp], 0
	jmp	SHORT $LN8@test_quat_
$LN7@test_quat_:
	mov	DWORD PTR tv153[rsp], 1
$LN8@test_quat_:
	mov	eax, DWORD PTR tv153[rsp]
	mov	ecx, DWORD PTR Error$[rsp]
	add	ecx, eax
	mov	eax, ecx
	mov	DWORD PTR Error$[rsp], eax

; 23   : 		float A = glm::angle(N);

	lea	rcx, QWORD PTR N$20[rsp]
	call	??$angle@M$0A@@glm@@YAMAEBU?$tquat@M$0A@@0@@Z ; glm::angle<float,0>
	movss	DWORD PTR A$22[rsp], xmm0

; 24   : 		Error += glm::epsilonEqual(A, glm::pi<float>() * 0.25f, 0.01f) ? 0 : 1;

	movss	xmm0, DWORD PTR __real@3c23d70a
	movss	DWORD PTR $T38[rsp], xmm0
	call	??$pi@M@glm@@YAMXZ			; glm::pi<float>
	mulss	xmm0, DWORD PTR __real@3e800000
	movss	DWORD PTR $T39[rsp], xmm0
	lea	r8, QWORD PTR $T38[rsp]
	lea	rdx, QWORD PTR $T39[rsp]
	lea	rcx, QWORD PTR A$22[rsp]
	call	??$epsilonEqual@M@glm@@YA_NAEBM00@Z	; glm::epsilonEqual<float>
	movzx	eax, al
	test	eax, eax
	je	SHORT $LN9@test_quat_
	mov	DWORD PTR tv165[rsp], 0
	jmp	SHORT $LN10@test_quat_
$LN9@test_quat_:
	mov	DWORD PTR tv165[rsp], 1
$LN10@test_quat_:
	mov	eax, DWORD PTR tv165[rsp]
	mov	ecx, DWORD PTR Error$[rsp]
	add	ecx, eax
	mov	eax, ecx
	mov	DWORD PTR Error$[rsp], eax

; 25   : 	}
; 26   : 	{
; 27   : 		glm::quat Q = glm::angleAxis(glm::pi<float>() * 0.25f, glm::normalize(glm::vec3(1, 2, 3)));

	call	??$pi@M@glm@@YAMXZ			; glm::pi<float>
	mulss	xmm0, DWORD PTR __real@3e800000
	movss	DWORD PTR $T42[rsp], xmm0
	mov	r9d, 3
	mov	r8d, 2
	mov	edx, 1
	lea	rcx, QWORD PTR $T40[rsp]
	call	??$?0HHH@?$tvec3@M$0A@@glm@@QEAA@HHH@Z	; glm::tvec3<float,0>::tvec3<float,0><int,int,int>
	mov	rdx, rax
	lea	rcx, QWORD PTR $T41[rsp]
	call	??$normalize@M$0A@Utvec3@glm@@@glm@@YA?AU?$tvec3@M$0A@@0@AEBU10@@Z ; glm::normalize<float,0,glm::tvec3>
	mov	r8, rax
	lea	rdx, QWORD PTR $T42[rsp]
	lea	rcx, QWORD PTR Q$23[rsp]
	call	??$angleAxis@M$0A@@glm@@YA?AU?$tquat@M$0A@@0@AEBMAEBU?$tvec3@M$0A@@0@@Z ; glm::angleAxis<float,0>

; 28   : 		glm::quat N = glm::normalize(Q);

	lea	rdx, QWORD PTR Q$23[rsp]
	lea	rcx, QWORD PTR N$24[rsp]
	call	??$normalize@M$0A@@glm@@YA?AU?$tquat@M$0A@@0@AEBU10@@Z ; glm::normalize<float,0>

; 29   : 		float L = glm::length(N);

	lea	rcx, QWORD PTR N$24[rsp]
	call	??$length@M$0A@@glm@@YAMAEBU?$tquat@M$0A@@0@@Z ; glm::length<float,0>
	movss	DWORD PTR L$25[rsp], xmm0

; 30   : 		Error += glm::epsilonEqual(L, 1.0f, 0.01f) ? 0 : 1;

	movss	xmm0, DWORD PTR __real@3c23d70a
	movss	DWORD PTR $T43[rsp], xmm0
	movss	xmm0, DWORD PTR __real@3f800000
	movss	DWORD PTR $T44[rsp], xmm0
	lea	r8, QWORD PTR $T43[rsp]
	lea	rdx, QWORD PTR $T44[rsp]
	lea	rcx, QWORD PTR L$25[rsp]
	call	??$epsilonEqual@M@glm@@YA_NAEBM00@Z	; glm::epsilonEqual<float>
	movzx	eax, al
	test	eax, eax
	je	SHORT $LN11@test_quat_
	mov	DWORD PTR tv190[rsp], 0
	jmp	SHORT $LN12@test_quat_
$LN11@test_quat_:
	mov	DWORD PTR tv190[rsp], 1
$LN12@test_quat_:
	mov	eax, DWORD PTR tv190[rsp]
	mov	ecx, DWORD PTR Error$[rsp]
	add	ecx, eax
	mov	eax, ecx
	mov	DWORD PTR Error$[rsp], eax

; 31   : 		float A = glm::angle(N);

	lea	rcx, QWORD PTR N$24[rsp]
	call	??$angle@M$0A@@glm@@YAMAEBU?$tquat@M$0A@@0@@Z ; glm::angle<float,0>
	movss	DWORD PTR A$26[rsp], xmm0

; 32   : 		Error += glm::epsilonEqual(A, glm::pi<float>() * 0.25f, 0.01f) ? 0 : 1;

	movss	xmm0, DWORD PTR __real@3c23d70a
	movss	DWORD PTR $T45[rsp], xmm0
	call	??$pi@M@glm@@YAMXZ			; glm::pi<float>
	mulss	xmm0, DWORD PTR __real@3e800000
	movss	DWORD PTR $T46[rsp], xmm0
	lea	r8, QWORD PTR $T45[rsp]
	lea	rdx, QWORD PTR $T46[rsp]
	lea	rcx, QWORD PTR A$26[rsp]
	call	??$epsilonEqual@M@glm@@YA_NAEBM00@Z	; glm::epsilonEqual<float>
	movzx	eax, al
	test	eax, eax
	je	SHORT $LN13@test_quat_
	mov	DWORD PTR tv202[rsp], 0
	jmp	SHORT $LN14@test_quat_
$LN13@test_quat_:
	mov	DWORD PTR tv202[rsp], 1
$LN14@test_quat_:
	mov	eax, DWORD PTR tv202[rsp]
	mov	ecx, DWORD PTR Error$[rsp]
	add	ecx, eax
	mov	eax, ecx
	mov	DWORD PTR Error$[rsp], eax

; 33   : 	}
; 34   : 
; 35   : 	return Error;

	mov	eax, DWORD PTR Error$[rsp]

; 36   : }

	mov	edi, eax
	mov	rcx, rsp
	lea	rdx, OFFSET FLAT:?test_quat_angle@@YAHXZ$rtcFrameData
	call	_RTC_CheckStackVars
	mov	eax, edi
	add	rsp, 672				; 000002a0H
	pop	rdi
	ret	0
?test_quat_angle@@YAHXZ ENDP				; test_quat_angle
_TEXT	ENDS
; Function compile flags: /Odtp /RTCsu
; File C:\Program Files\Microsoft Visual Studio\2022\Community\VC\Tools\MSVC\14.32.31326\include\xmemory
;	COMDAT ??0_Basic_container_proxy_ptr12@std@@IEAA@XZ
_TEXT	SEGMENT
this$ = 16
??0_Basic_container_proxy_ptr12@std@@IEAA@XZ PROC	; std::_Basic_container_proxy_ptr12::_Basic_container_proxy_ptr12, COMDAT

; 1304 :     _CONSTEXPR20 _Basic_container_proxy_ptr12()                       = default;

$LN3:
	mov	QWORD PTR [rsp+8], rcx
	push	rdi

; 1297 :     _Container_proxy* _Ptr = nullptr;

	mov	rax, QWORD PTR this$[rsp]
	mov	QWORD PTR [rax], 0

; 1304 :     _CONSTEXPR20 _Basic_container_proxy_ptr12()                       = default;

	mov	rax, QWORD PTR this$[rsp]
	pop	rdi
	ret	0
??0_Basic_container_proxy_ptr12@std@@IEAA@XZ ENDP	; std::_Basic_container_proxy_ptr12::_Basic_container_proxy_ptr12
_TEXT	ENDS
; Function compile flags: /Odtp /RTCsu
; File C:\Program Files\Microsoft Visual Studio\2022\Community\VC\Tools\MSVC\14.32.31326\include\xmemory
;	COMDAT ?_Release@_Basic_container_proxy_ptr12@std@@QEAAXXZ
_TEXT	SEGMENT
this$ = 16
?_Release@_Basic_container_proxy_ptr12@std@@QEAAXXZ PROC ; std::_Basic_container_proxy_ptr12::_Release, COMDAT

; 1299 :     constexpr void _Release() noexcept { // disengage this _Basic_container_proxy_ptr12

$LN3:
	mov	QWORD PTR [rsp+8], rcx
	push	rdi

; 1300 :         _Ptr = nullptr;

	mov	rax, QWORD PTR this$[rsp]
	mov	QWORD PTR [rax], 0

; 1301 :     }

	pop	rdi
	ret	0
?_Release@_Basic_container_proxy_ptr12@std@@QEAAXXZ ENDP ; std::_Basic_container_proxy_ptr12::_Release
_TEXT	ENDS
; Function compile flags: /Odtp /RTCsu
; File C:\Program Files\Microsoft Visual Studio\2022\Community\VC\Tools\MSVC\14.32.31326\include\xmemory
;	COMDAT ?_Orphan_all_locked_v3@_Container_base12@std@@AEAAXXZ
_TEXT	SEGMENT
_Lock$ = 36
this$ = 80
?_Orphan_all_locked_v3@_Container_base12@std@@AEAAXXZ PROC ; std::_Container_base12::_Orphan_all_locked_v3, COMDAT

; 1078 :     void _Orphan_all_locked_v3() noexcept {

$LN3:
	mov	QWORD PTR [rsp+8], rcx
	push	rdi
	sub	rsp, 64					; 00000040H
	lea	rdi, QWORD PTR [rsp+32]
	mov	ecx, 8
	mov	eax, -858993460				; ccccccccH
	rep stosd
	mov	rcx, QWORD PTR [rsp+80]

; 1079 :         _Lockit _Lock(_LOCK_DEBUG);

	mov	edx, 3
	lea	rcx, QWORD PTR _Lock$[rsp]
	call	QWORD PTR __imp_??0_Lockit@std@@QEAA@H@Z

; 1080 :         _Orphan_all_unlocked_v3();

	mov	rcx, QWORD PTR this$[rsp]
	call	?_Orphan_all_unlocked_v3@_Container_base12@std@@AEAAXXZ ; std::_Container_base12::_Orphan_all_unlocked_v3

; 1081 :     }

	lea	rcx, QWORD PTR _Lock$[rsp]
	call	QWORD PTR __imp_??1_Lockit@std@@QEAA@XZ
	mov	rcx, rsp
	lea	rdx, OFFSET FLAT:?_Orphan_all_locked_v3@_Container_base12@std@@AEAAXXZ$rtcFrameData
	call	_RTC_CheckStackVars
	add	rsp, 64					; 00000040H
	pop	rdi
	ret	0
?_Orphan_all_locked_v3@_Container_base12@std@@AEAAXXZ ENDP ; std::_Container_base12::_Orphan_all_locked_v3
_TEXT	ENDS
; Function compile flags: /Odtp /RTCsu
; File C:\Program Files\Microsoft Visual Studio\2022\Community\VC\Tools\MSVC\14.32.31326\include\xmemory
;	COMDAT ?_Orphan_all_unlocked_v3@_Container_base12@std@@AEAAXXZ
_TEXT	SEGMENT
_Pnext$1 = 0
this$ = 32
?_Orphan_all_unlocked_v3@_Container_base12@std@@AEAAXXZ PROC ; std::_Container_base12::_Orphan_all_unlocked_v3, COMDAT

; 1219 : _CONSTEXPR20 void _Container_base12::_Orphan_all_unlocked_v3() noexcept {

$LN7:
	mov	QWORD PTR [rsp+8], rcx
	push	rdi
	sub	rsp, 16

; 1220 :     if (!_Myproxy) { // no proxy, already done

	mov	rax, QWORD PTR this$[rsp]
	cmp	QWORD PTR [rax], 0
	jne	SHORT $LN5@Orphan_all

; 1221 :         return;

	jmp	SHORT $LN1@Orphan_all
$LN5@Orphan_all:

; 1222 :     }
; 1223 : 
; 1224 :     // proxy allocated, drain it
; 1225 :     for (auto& _Pnext = _Myproxy->_Myfirstiter; _Pnext; _Pnext = _Pnext->_Mynextiter) { // TRANSITION, VSO-1269037

	mov	rax, QWORD PTR this$[rsp]
	mov	rax, QWORD PTR [rax]
	add	rax, 8
	mov	QWORD PTR _Pnext$1[rsp], rax
	jmp	SHORT $LN4@Orphan_all
$LN2@Orphan_all:
	mov	rax, QWORD PTR _Pnext$1[rsp]
	mov	rax, QWORD PTR [rax]
	mov	rcx, QWORD PTR _Pnext$1[rsp]
	mov	rax, QWORD PTR [rax+8]
	mov	QWORD PTR [rcx], rax
$LN4@Orphan_all:
	mov	rax, QWORD PTR _Pnext$1[rsp]
	cmp	QWORD PTR [rax], 0
	je	SHORT $LN3@Orphan_all

; 1226 :         _Pnext->_Myproxy = nullptr;

	mov	rax, QWORD PTR _Pnext$1[rsp]
	mov	rax, QWORD PTR [rax]
	mov	QWORD PTR [rax], 0

; 1227 :     }

	jmp	SHORT $LN2@Orphan_all
$LN3@Orphan_all:

; 1228 :     _Myproxy->_Myfirstiter = nullptr;

	mov	rax, QWORD PTR this$[rsp]
	mov	rax, QWORD PTR [rax]
	mov	QWORD PTR [rax+8], 0
$LN1@Orphan_all:

; 1229 : }

	add	rsp, 16
	pop	rdi
	ret	0
?_Orphan_all_unlocked_v3@_Container_base12@std@@AEAAXXZ ENDP ; std::_Container_base12::_Orphan_all_unlocked_v3
_TEXT	ENDS
; Function compile flags: /Odtp /RTCsu
; File C:\Program Files\Microsoft Visual Studio\2022\Community\VC\Tools\MSVC\14.32.31326\include\xmemory
;	COMDAT ?_Orphan_all@_Container_base12@std@@QEAAXXZ
_TEXT	SEGMENT
this$ = 48
?_Orphan_all@_Container_base12@std@@QEAAXXZ PROC	; std::_Container_base12::_Orphan_all, COMDAT

; 1231 : _CONSTEXPR20 void _Container_base12::_Orphan_all() noexcept {

$LN3:
	mov	QWORD PTR [rsp+8], rcx
	push	rdi
	sub	rsp, 32					; 00000020H

; 1232 : #if _ITERATOR_DEBUG_LEVEL == 2
; 1233 : #if _HAS_CXX20
; 1234 :     if (_STD is_constant_evaluated()) {
; 1235 :         _Orphan_all_unlocked_v3();
; 1236 :     } else
; 1237 : #endif // _HAS_CXX20
; 1238 :     {
; 1239 :         _Orphan_all_locked_v3();

	mov	rcx, QWORD PTR this$[rsp]
	call	?_Orphan_all_locked_v3@_Container_base12@std@@AEAAXXZ ; std::_Container_base12::_Orphan_all_locked_v3

; 1240 :     }
; 1241 : #endif // _ITERATOR_DEBUG_LEVEL == 2
; 1242 : }

	add	rsp, 32					; 00000020H
	pop	rdi
	ret	0
?_Orphan_all@_Container_base12@std@@QEAAXXZ ENDP	; std::_Container_base12::_Orphan_all
_TEXT	ENDS
; Function compile flags: /Odtp /RTCsu
; File C:\Program Files\Microsoft Visual Studio\2022\Community\VC\Tools\MSVC\14.32.31326\include\xmemory
;	COMDAT ??0_Container_base12@std@@QEAA@XZ
_TEXT	SEGMENT
this$ = 16
??0_Container_base12@std@@QEAA@XZ PROC			; std::_Container_base12::_Container_base12, COMDAT

; 1047 :     _CONSTEXPR20 _Container_base12() noexcept = default;

$LN3:
	mov	QWORD PTR [rsp+8], rcx
	push	rdi

; 1048 : 
; 1049 :     _Container_base12(const _Container_base12&) = delete;
; 1050 :     _Container_base12& operator=(const _Container_base12&) = delete;
; 1051 : 
; 1052 :     _CONSTEXPR20 void _Orphan_all() noexcept;
; 1053 :     _CONSTEXPR20 void _Swap_proxy_and_iterators(_Container_base12&) noexcept;
; 1054 : 
; 1055 :     template <class _Alloc>
; 1056 :     _CONSTEXPR20 void _Alloc_proxy(_Alloc&& _Al) {
; 1057 :         _Container_proxy* const _New_proxy = _Unfancy(_Al.allocate(1));
; 1058 :         _Construct_in_place(*_New_proxy, this);
; 1059 :         _Myproxy            = _New_proxy;
; 1060 :         _New_proxy->_Mycont = this;
; 1061 :     }
; 1062 : 
; 1063 :     template <class _Alloc>
; 1064 :     _CONSTEXPR20 void _Reload_proxy(_Alloc&& _Old_alloc, _Alloc&& _New_alloc) {
; 1065 :         // pre: no iterators refer to the existing proxy
; 1066 :         _Container_proxy* const _New_proxy = _Unfancy(_New_alloc.allocate(1));
; 1067 :         _Construct_in_place(*_New_proxy, this);
; 1068 :         _New_proxy->_Mycont = this;
; 1069 :         _Delete_plain_internal(_Old_alloc, _STD exchange(_Myproxy, _New_proxy));
; 1070 :     }
; 1071 : 
; 1072 :     _Container_proxy* _Myproxy = nullptr;

	mov	rax, QWORD PTR this$[rsp]
	mov	QWORD PTR [rax], 0

; 1047 :     _CONSTEXPR20 _Container_base12() noexcept = default;

	mov	rax, QWORD PTR this$[rsp]
	pop	rdi
	ret	0
??0_Container_base12@std@@QEAA@XZ ENDP			; std::_Container_base12::_Container_base12
_TEXT	ENDS
; Function compile flags: /Odtp /RTCsu
; File C:\Program Files\Microsoft Visual Studio\2022\Community\VC\Tools\MSVC\14.32.31326\include\xmemory
;	COMDAT ??0_Container_proxy@std@@QEAA@PEAU_Container_base12@1@@Z
_TEXT	SEGMENT
this$ = 16
_Mycont_$ = 24
??0_Container_proxy@std@@QEAA@PEAU_Container_base12@1@@Z PROC ; std::_Container_proxy::_Container_proxy, COMDAT

; 1039 :     _CONSTEXPR20 _Container_proxy(_Container_base12* _Mycont_) noexcept : _Mycont(_Mycont_) {}

$LN3:
	mov	QWORD PTR [rsp+16], rdx
	mov	QWORD PTR [rsp+8], rcx
	push	rdi
	mov	rax, QWORD PTR this$[rsp]
	mov	rcx, QWORD PTR _Mycont_$[rsp]
	mov	QWORD PTR [rax], rcx

; 1040 : 
; 1041 :     const _Container_base12* _Mycont       = nullptr;
; 1042 :     mutable _Iterator_base12* _Myfirstiter = nullptr;

	mov	rax, QWORD PTR this$[rsp]
	mov	QWORD PTR [rax+8], 0

; 1039 :     _CONSTEXPR20 _Container_proxy(_Container_base12* _Mycont_) noexcept : _Mycont(_Mycont_) {}

	mov	rax, QWORD PTR this$[rsp]
	pop	rdi
	ret	0
??0_Container_proxy@std@@QEAA@PEAU_Container_base12@1@@Z ENDP ; std::_Container_proxy::_Container_proxy
_TEXT	ENDS
; Function compile flags: /Odtp /RTCsu
; File C:\Program Files\Microsoft Visual Studio\2022\Community\VC\Tools\MSVC\14.32.31326\include\xmemory
;	COMDAT ?_Adjust_manually_vector_aligned@std@@YAXAEAPEAXAEA_K@Z
_TEXT	SEGMENT
_Ptr_user$ = 48
_Ptr_container$ = 56
_Min_back_shift$ = 64
_Back_shift$ = 72
_Ptr$ = 96
_Bytes$ = 104
?_Adjust_manually_vector_aligned@std@@YAXAEAPEAXAEA_K@Z PROC ; std::_Adjust_manually_vector_aligned, COMDAT

; 145  : inline void _Adjust_manually_vector_aligned(void*& _Ptr, size_t& _Bytes) {

$LN21:
	mov	QWORD PTR [rsp+16], rdx
	mov	QWORD PTR [rsp+8], rcx
	push	rdi
	sub	rsp, 80					; 00000050H

; 146  :     // adjust parameters from _Allocate_manually_vector_aligned to pass to operator delete
; 147  :     _Bytes += _Non_user_size;

	mov	rax, QWORD PTR _Bytes$[rsp]
	mov	rax, QWORD PTR [rax]
	add	rax, 47					; 0000002fH
	mov	rcx, QWORD PTR _Bytes$[rsp]
	mov	QWORD PTR [rcx], rax

; 148  : 
; 149  :     const uintptr_t* const _Ptr_user = static_cast<uintptr_t*>(_Ptr);

	mov	rax, QWORD PTR _Ptr$[rsp]
	mov	rax, QWORD PTR [rax]
	mov	QWORD PTR _Ptr_user$[rsp], rax

; 150  :     const uintptr_t _Ptr_container   = _Ptr_user[-1];

	mov	eax, 8
	imul	rax, rax, -1
	mov	rcx, QWORD PTR _Ptr_user$[rsp]
	mov	rax, QWORD PTR [rcx+rax]
	mov	QWORD PTR _Ptr_container$[rsp], rax
$LN4@Adjust_man:

; 151  : 
; 152  :     // If the following asserts, it likely means that we are performing
; 153  :     // an aligned delete on memory coming from an unaligned allocation.
; 154  :     _STL_ASSERT(_Ptr_user[-2] == _Big_allocation_sentinel, "invalid argument");

	mov	eax, 8
	imul	rax, rax, -2
	mov	rcx, QWORD PTR _Ptr_user$[rsp]
	mov	rdx, -361700864190383366		; fafafafafafafafaH
	cmp	QWORD PTR [rcx+rax], rdx
	jne	SHORT $LN14@Adjust_man
	jmp	SHORT $LN15@Adjust_man
$LN14@Adjust_man:
$LN7@Adjust_man:
	lea	rax, OFFSET FLAT:??_C@_0BB@FCMFBGOM@invalid?5argument@
	mov	QWORD PTR [rsp+40], rax
	lea	rax, OFFSET FLAT:??_C@_02DKCKIIND@?$CFs@
	mov	QWORD PTR [rsp+32], rax
	xor	r9d, r9d
	mov	r8d, 154				; 0000009aH
	lea	rdx, OFFSET FLAT:??_C@_0GC@DJFHHHKN@C?3?2Program?5Files?2Microsoft?5Visu@
	mov	ecx, 2
	call	QWORD PTR __imp__CrtDbgReport
	cmp	eax, 1
	jne	SHORT $LN19@Adjust_man
	int	3
	xor	eax, eax
$LN19@Adjust_man:
	mov	QWORD PTR [rsp+32], 0
	mov	r9d, 154				; 0000009aH
	lea	r8, OFFSET FLAT:??_C@_1ME@GEFGDEOM@?$AAC?$AA?3?$AA?2?$AAP?$AAr?$AAo?$AAg?$AAr?$AAa?$AAm?$AA?5?$AAF?$AAi?$AAl?$AAe@
	lea	rdx, OFFSET FLAT:??_C@_11LOCGONAA@@
	lea	rcx, OFFSET FLAT:??_C@_1CG@JNLFBNGN@?$AA?$CC?$AAi?$AAn?$AAv?$AAa?$AAl?$AAi?$AAd?$AA?5?$AAa?$AAr?$AAg?$AAu?$AAm?$AAe@
	call	QWORD PTR __imp__invalid_parameter
	xor	eax, eax
	test	eax, eax
	jne	SHORT $LN7@Adjust_man
$LN15@Adjust_man:
	xor	eax, eax
	test	eax, eax
	jne	$LN4@Adjust_man

; 155  : 
; 156  :     // Extra paranoia on aligned allocation/deallocation; ensure _Ptr_container is
; 157  :     // in range [_Min_back_shift, _Non_user_size]
; 158  : #ifdef _DEBUG
; 159  :     constexpr uintptr_t _Min_back_shift = 2 * sizeof(void*);

	mov	QWORD PTR _Min_back_shift$[rsp], 16

; 160  : #else // ^^^ _DEBUG ^^^ // vvv !_DEBUG vvv
; 161  :     constexpr uintptr_t _Min_back_shift = sizeof(void*);
; 162  : #endif // _DEBUG
; 163  :     const uintptr_t _Back_shift = reinterpret_cast<uintptr_t>(_Ptr) - _Ptr_container;

	mov	rax, QWORD PTR _Ptr$[rsp]
	mov	rcx, QWORD PTR _Ptr_container$[rsp]
	mov	rax, QWORD PTR [rax]
	sub	rax, rcx
	mov	QWORD PTR _Back_shift$[rsp], rax
$LN10@Adjust_man:

; 164  :     _STL_VERIFY(_Back_shift >= _Min_back_shift && _Back_shift <= _Non_user_size, "invalid argument");

	cmp	QWORD PTR _Back_shift$[rsp], 16
	jb	SHORT $LN16@Adjust_man
	cmp	QWORD PTR _Back_shift$[rsp], 47		; 0000002fH
	ja	SHORT $LN16@Adjust_man
	jmp	SHORT $LN17@Adjust_man
$LN16@Adjust_man:
$LN13@Adjust_man:
	lea	rax, OFFSET FLAT:??_C@_0BB@FCMFBGOM@invalid?5argument@
	mov	QWORD PTR [rsp+40], rax
	lea	rax, OFFSET FLAT:??_C@_02DKCKIIND@?$CFs@
	mov	QWORD PTR [rsp+32], rax
	xor	r9d, r9d
	mov	r8d, 164				; 000000a4H
	lea	rdx, OFFSET FLAT:??_C@_0GC@DJFHHHKN@C?3?2Program?5Files?2Microsoft?5Visu@
	mov	ecx, 2
	call	QWORD PTR __imp__CrtDbgReport
	cmp	eax, 1
	jne	SHORT $LN20@Adjust_man
	int	3
	xor	eax, eax
$LN20@Adjust_man:
	mov	QWORD PTR [rsp+32], 0
	mov	r9d, 164				; 000000a4H
	lea	r8, OFFSET FLAT:??_C@_1ME@GEFGDEOM@?$AAC?$AA?3?$AA?2?$AAP?$AAr?$AAo?$AAg?$AAr?$AAa?$AAm?$AA?5?$AAF?$AAi?$AAl?$AAe@
	lea	rdx, OFFSET FLAT:??_C@_11LOCGONAA@@
	lea	rcx, OFFSET FLAT:??_C@_1CG@JNLFBNGN@?$AA?$CC?$AAi?$AAn?$AAv?$AAa?$AAl?$AAi?$AAd?$AA?5?$AAa?$AAr?$AAg?$AAu?$AAm?$AAe@
	call	QWORD PTR __imp__invalid_parameter
	xor	eax, eax
	test	eax, eax
	jne	SHORT $LN13@Adjust_man
$LN17@Adjust_man:
	xor	eax, eax
	test	eax, eax
	jne	$LN10@Adjust_man

; 165  :     _Ptr = reinterpret_cast<void*>(_Ptr_container);

	mov	rax, QWORD PTR _Ptr$[rsp]
	mov	rcx, QWORD PTR _Ptr_container$[rsp]
	mov	QWORD PTR [rax], rcx

; 166  : }

	add	rsp, 80					; 00000050H
	pop	rdi
	ret	0
?_Adjust_manually_vector_aligned@std@@YAXAEAPEAXAEA_K@Z ENDP ; std::_Adjust_manually_vector_aligned
_TEXT	ENDS
; Function compile flags: /Odtp /RTCsu
; File C:\Program Files\Microsoft Visual Studio\2022\Community\VC\Tools\MSVC\14.32.31326\include\xmemory
;	COMDAT ?_Allocate@_Default_allocate_traits@std@@SAPEAX_K@Z
_TEXT	SEGMENT
_Bytes$ = 48
?_Allocate@_Default_allocate_traits@std@@SAPEAX_K@Z PROC ; std::_Default_allocate_traits::_Allocate, COMDAT

; 78   :         void* _Allocate(const size_t _Bytes) {

$LN3:
	mov	QWORD PTR [rsp+8], rcx
	push	rdi
	sub	rsp, 32					; 00000020H

; 79   :         return ::operator new(_Bytes);

	mov	rcx, QWORD PTR _Bytes$[rsp]
	call	??2@YAPEAX_K@Z				; operator new

; 80   :     }

	add	rsp, 32					; 00000020H
	pop	rdi
	ret	0
?_Allocate@_Default_allocate_traits@std@@SAPEAX_K@Z ENDP ; std::_Default_allocate_traits::_Allocate
_TEXT	ENDS
; Function compile flags: /Odtp /RTCsu
; File C:\Program Files\Microsoft Visual Studio\2022\Community\VC\Tools\MSVC\14.32.31326\include\exception
;	COMDAT ?_Throw_bad_array_new_length@std@@YAXXZ
_TEXT	SEGMENT
$T1 = 32
?_Throw_bad_array_new_length@std@@YAXXZ PROC		; std::_Throw_bad_array_new_length, COMDAT

; 317  : [[noreturn]] inline void _Throw_bad_array_new_length() {

$LN3:
	push	rdi
	sub	rsp, 64					; 00000040H

; 318  :     _THROW(bad_array_new_length{});

	lea	rcx, QWORD PTR $T1[rsp]
	call	??0bad_array_new_length@std@@QEAA@XZ	; std::bad_array_new_length::bad_array_new_length
	lea	rdx, OFFSET FLAT:_TI3?AVbad_array_new_length@std@@
	lea	rcx, QWORD PTR $T1[rsp]
	call	_CxxThrowException
$LN2@Throw_bad_:

; 319  : }

	add	rsp, 64					; 00000040H
	pop	rdi
	ret	0
?_Throw_bad_array_new_length@std@@YAXXZ ENDP		; std::_Throw_bad_array_new_length
_TEXT	ENDS
; Function compile flags: /Odtp /RTCsu
;	COMDAT ??_Gbad_array_new_length@std@@UEAAPEAXI@Z
_TEXT	SEGMENT
this$ = 48
__flags$ = 56
??_Gbad_array_new_length@std@@UEAAPEAXI@Z PROC		; std::bad_array_new_length::`scalar deleting destructor', COMDAT
$LN4:
	mov	DWORD PTR [rsp+16], edx
	mov	QWORD PTR [rsp+8], rcx
	push	rdi
	sub	rsp, 32					; 00000020H
	mov	rcx, QWORD PTR this$[rsp]
	call	??1bad_array_new_length@std@@UEAA@XZ
	mov	eax, DWORD PTR __flags$[rsp]
	and	eax, 1
	test	eax, eax
	je	SHORT $LN2@scalar
	mov	edx, 24
	mov	rcx, QWORD PTR this$[rsp]
	call	??3@YAXPEAX_K@Z				; operator delete
$LN2@scalar:
	mov	rax, QWORD PTR this$[rsp]
	add	rsp, 32					; 00000020H
	pop	rdi
	ret	0
??_Gbad_array_new_length@std@@UEAAPEAXI@Z ENDP		; std::bad_array_new_length::`scalar deleting destructor'
_TEXT	ENDS
; Function compile flags: /Odtp /RTCsu
;	COMDAT ??0bad_array_new_length@std@@QEAA@AEBV01@@Z
_TEXT	SEGMENT
this$ = 48
__that$ = 56
??0bad_array_new_length@std@@QEAA@AEBV01@@Z PROC	; std::bad_array_new_length::bad_array_new_length, COMDAT
$LN3:
	mov	QWORD PTR [rsp+16], rdx
	mov	QWORD PTR [rsp+8], rcx
	push	rdi
	sub	rsp, 32					; 00000020H
	mov	rdx, QWORD PTR __that$[rsp]
	mov	rcx, QWORD PTR this$[rsp]
	call	??0bad_alloc@std@@QEAA@AEBV01@@Z
	mov	rax, QWORD PTR this$[rsp]
	lea	rcx, OFFSET FLAT:??_7bad_array_new_length@std@@6B@
	mov	QWORD PTR [rax], rcx
	mov	rax, QWORD PTR this$[rsp]
	add	rsp, 32					; 00000020H
	pop	rdi
	ret	0
??0bad_array_new_length@std@@QEAA@AEBV01@@Z ENDP	; std::bad_array_new_length::bad_array_new_length
_TEXT	ENDS
; Function compile flags: /Odtp /RTCsu
;	COMDAT ??1bad_array_new_length@std@@UEAA@XZ
_TEXT	SEGMENT
this$ = 48
??1bad_array_new_length@std@@UEAA@XZ PROC		; std::bad_array_new_length::~bad_array_new_length, COMDAT
$LN3:
	mov	QWORD PTR [rsp+8], rcx
	push	rdi
	sub	rsp, 32					; 00000020H
	mov	rcx, QWORD PTR this$[rsp]
	call	??1bad_alloc@std@@UEAA@XZ
	add	rsp, 32					; 00000020H
	pop	rdi
	ret	0
??1bad_array_new_length@std@@UEAA@XZ ENDP		; std::bad_array_new_length::~bad_array_new_length
_TEXT	ENDS
; Function compile flags: /Odtp /RTCsu
; File C:\Program Files\Microsoft Visual Studio\2022\Community\VC\Tools\MSVC\14.32.31326\include\vcruntime_exception.h
;	COMDAT ??0bad_array_new_length@std@@QEAA@XZ
_TEXT	SEGMENT
this$ = 48
??0bad_array_new_length@std@@QEAA@XZ PROC		; std::bad_array_new_length::bad_array_new_length, COMDAT

; 141  :     {

$LN3:
	mov	QWORD PTR [rsp+8], rcx
	push	rdi
	sub	rsp, 32					; 00000020H

; 140  :         : bad_alloc("bad array new length")

	lea	rdx, OFFSET FLAT:??_C@_0BF@KINCDENJ@bad?5array?5new?5length@
	mov	rcx, QWORD PTR this$[rsp]
	call	??0bad_alloc@std@@AEAA@QEBD@Z		; std::bad_alloc::bad_alloc

; 141  :     {

	mov	rax, QWORD PTR this$[rsp]
	lea	rcx, OFFSET FLAT:??_7bad_array_new_length@std@@6B@
	mov	QWORD PTR [rax], rcx

; 142  :     }

	mov	rax, QWORD PTR this$[rsp]
	add	rsp, 32					; 00000020H
	pop	rdi
	ret	0
??0bad_array_new_length@std@@QEAA@XZ ENDP		; std::bad_array_new_length::bad_array_new_length
_TEXT	ENDS
; Function compile flags: /Odtp /RTCsu
;	COMDAT ??_Gbad_alloc@std@@UEAAPEAXI@Z
_TEXT	SEGMENT
this$ = 48
__flags$ = 56
??_Gbad_alloc@std@@UEAAPEAXI@Z PROC			; std::bad_alloc::`scalar deleting destructor', COMDAT
$LN4:
	mov	DWORD PTR [rsp+16], edx
	mov	QWORD PTR [rsp+8], rcx
	push	rdi
	sub	rsp, 32					; 00000020H
	mov	rcx, QWORD PTR this$[rsp]
	call	??1bad_alloc@std@@UEAA@XZ
	mov	eax, DWORD PTR __flags$[rsp]
	and	eax, 1
	test	eax, eax
	je	SHORT $LN2@scalar
	mov	edx, 24
	mov	rcx, QWORD PTR this$[rsp]
	call	??3@YAXPEAX_K@Z				; operator delete
$LN2@scalar:
	mov	rax, QWORD PTR this$[rsp]
	add	rsp, 32					; 00000020H
	pop	rdi
	ret	0
??_Gbad_alloc@std@@UEAAPEAXI@Z ENDP			; std::bad_alloc::`scalar deleting destructor'
_TEXT	ENDS
; Function compile flags: /Odtp /RTCsu
;	COMDAT ??0bad_alloc@std@@QEAA@AEBV01@@Z
_TEXT	SEGMENT
this$ = 48
__that$ = 56
??0bad_alloc@std@@QEAA@AEBV01@@Z PROC			; std::bad_alloc::bad_alloc, COMDAT
$LN3:
	mov	QWORD PTR [rsp+16], rdx
	mov	QWORD PTR [rsp+8], rcx
	push	rdi
	sub	rsp, 32					; 00000020H
	mov	rdx, QWORD PTR __that$[rsp]
	mov	rcx, QWORD PTR this$[rsp]
	call	??0exception@std@@QEAA@AEBV01@@Z	; std::exception::exception
	mov	rax, QWORD PTR this$[rsp]
	lea	rcx, OFFSET FLAT:??_7bad_alloc@std@@6B@
	mov	QWORD PTR [rax], rcx
	mov	rax, QWORD PTR this$[rsp]
	add	rsp, 32					; 00000020H
	pop	rdi
	ret	0
??0bad_alloc@std@@QEAA@AEBV01@@Z ENDP			; std::bad_alloc::bad_alloc
_TEXT	ENDS
; Function compile flags: /Odtp /RTCsu
;	COMDAT ??1bad_alloc@std@@UEAA@XZ
_TEXT	SEGMENT
this$ = 48
??1bad_alloc@std@@UEAA@XZ PROC				; std::bad_alloc::~bad_alloc, COMDAT
$LN3:
	mov	QWORD PTR [rsp+8], rcx
	push	rdi
	sub	rsp, 32					; 00000020H
	mov	rcx, QWORD PTR this$[rsp]
	call	??1exception@std@@UEAA@XZ		; std::exception::~exception
	add	rsp, 32					; 00000020H
	pop	rdi
	ret	0
??1bad_alloc@std@@UEAA@XZ ENDP				; std::bad_alloc::~bad_alloc
_TEXT	ENDS
; Function compile flags: /Odtp /RTCsu
; File C:\Program Files\Microsoft Visual Studio\2022\Community\VC\Tools\MSVC\14.32.31326\include\vcruntime_exception.h
;	COMDAT ??0bad_alloc@std@@AEAA@QEBD@Z
_TEXT	SEGMENT
this$ = 48
_Message$ = 56
??0bad_alloc@std@@AEAA@QEBD@Z PROC			; std::bad_alloc::bad_alloc, COMDAT

; 130  :     {

$LN3:
	mov	QWORD PTR [rsp+16], rdx
	mov	QWORD PTR [rsp+8], rcx
	push	rdi
	sub	rsp, 32					; 00000020H

; 129  :         : exception(_Message, 1)

	mov	r8d, 1
	mov	rdx, QWORD PTR _Message$[rsp]
	mov	rcx, QWORD PTR this$[rsp]
	call	??0exception@std@@QEAA@QEBDH@Z		; std::exception::exception

; 130  :     {

	mov	rax, QWORD PTR this$[rsp]
	lea	rcx, OFFSET FLAT:??_7bad_alloc@std@@6B@
	mov	QWORD PTR [rax], rcx

; 131  :     }

	mov	rax, QWORD PTR this$[rsp]
	add	rsp, 32					; 00000020H
	pop	rdi
	ret	0
??0bad_alloc@std@@AEAA@QEBD@Z ENDP			; std::bad_alloc::bad_alloc
_TEXT	ENDS
; Function compile flags: /Odtp /RTCsu
;	COMDAT ??_Gexception@std@@UEAAPEAXI@Z
_TEXT	SEGMENT
this$ = 48
__flags$ = 56
??_Gexception@std@@UEAAPEAXI@Z PROC			; std::exception::`scalar deleting destructor', COMDAT
$LN4:
	mov	DWORD PTR [rsp+16], edx
	mov	QWORD PTR [rsp+8], rcx
	push	rdi
	sub	rsp, 32					; 00000020H
	mov	rcx, QWORD PTR this$[rsp]
	call	??1exception@std@@UEAA@XZ		; std::exception::~exception
	mov	eax, DWORD PTR __flags$[rsp]
	and	eax, 1
	test	eax, eax
	je	SHORT $LN2@scalar
	mov	edx, 24
	mov	rcx, QWORD PTR this$[rsp]
	call	??3@YAXPEAX_K@Z				; operator delete
$LN2@scalar:
	mov	rax, QWORD PTR this$[rsp]
	add	rsp, 32					; 00000020H
	pop	rdi
	ret	0
??_Gexception@std@@UEAAPEAXI@Z ENDP			; std::exception::`scalar deleting destructor'
_TEXT	ENDS
; Function compile flags: /Odtp /RTCsu
; File C:\Program Files\Microsoft Visual Studio\2022\Community\VC\Tools\MSVC\14.32.31326\include\vcruntime_exception.h
;	COMDAT ?what@exception@std@@UEBAPEBDXZ
_TEXT	SEGMENT
tv69 = 0
this$ = 32
?what@exception@std@@UEBAPEBDXZ PROC			; std::exception::what, COMDAT

; 94   :     {

$LN5:
	mov	QWORD PTR [rsp+8], rcx
	push	rdi
	sub	rsp, 16

; 95   :         return _Data._What ? _Data._What : "Unknown exception";

	mov	rax, QWORD PTR this$[rsp]
	cmp	QWORD PTR [rax+8], 0
	je	SHORT $LN3@what
	mov	rax, QWORD PTR this$[rsp]
	mov	rax, QWORD PTR [rax+8]
	mov	QWORD PTR tv69[rsp], rax
	jmp	SHORT $LN4@what
$LN3@what:
	lea	rax, OFFSET FLAT:??_C@_0BC@EOODALEL@Unknown?5exception@
	mov	QWORD PTR tv69[rsp], rax
$LN4@what:
	mov	rax, QWORD PTR tv69[rsp]

; 96   :     }

	add	rsp, 16
	pop	rdi
	ret	0
?what@exception@std@@UEBAPEBDXZ ENDP			; std::exception::what
_TEXT	ENDS
; Function compile flags: /Odtp /RTCsu
; File C:\Program Files\Microsoft Visual Studio\2022\Community\VC\Tools\MSVC\14.32.31326\include\vcruntime_exception.h
;	COMDAT ??1exception@std@@UEAA@XZ
_TEXT	SEGMENT
this$ = 48
??1exception@std@@UEAA@XZ PROC				; std::exception::~exception, COMDAT

; 89   :     {

$LN3:
	mov	QWORD PTR [rsp+8], rcx
	push	rdi
	sub	rsp, 32					; 00000020H
	mov	rax, QWORD PTR this$[rsp]
	lea	rcx, OFFSET FLAT:??_7exception@std@@6B@
	mov	QWORD PTR [rax], rcx

; 90   :         __std_exception_destroy(&_Data);

	mov	rax, QWORD PTR this$[rsp]
	add	rax, 8
	mov	rcx, rax
	call	__std_exception_destroy

; 91   :     }

	add	rsp, 32					; 00000020H
	pop	rdi
	ret	0
??1exception@std@@UEAA@XZ ENDP				; std::exception::~exception
_TEXT	ENDS
; Function compile flags: /Odtp /RTCsu
; File C:\Program Files\Microsoft Visual Studio\2022\Community\VC\Tools\MSVC\14.32.31326\include\vcruntime_exception.h
;	COMDAT ??0exception@std@@QEAA@AEBV01@@Z
_TEXT	SEGMENT
this$ = 48
_Other$ = 56
??0exception@std@@QEAA@AEBV01@@Z PROC			; std::exception::exception, COMDAT

; 72   :     {

$LN3:
	mov	QWORD PTR [rsp+16], rdx
	mov	QWORD PTR [rsp+8], rcx
	push	rdi
	sub	rsp, 32					; 00000020H
	mov	rax, QWORD PTR this$[rsp]
	lea	rcx, OFFSET FLAT:??_7exception@std@@6B@
	mov	QWORD PTR [rax], rcx

; 71   :         : _Data()

	mov	rax, QWORD PTR this$[rsp]
	add	rax, 8
	mov	rdi, rax
	xor	eax, eax
	mov	ecx, 16
	rep stosb

; 73   :         __std_exception_copy(&_Other._Data, &_Data);

	mov	rax, QWORD PTR this$[rsp]
	add	rax, 8
	mov	rcx, QWORD PTR _Other$[rsp]
	add	rcx, 8
	mov	rdx, rax
	call	__std_exception_copy

; 74   :     }

	mov	rax, QWORD PTR this$[rsp]
	add	rsp, 32					; 00000020H
	pop	rdi
	ret	0
??0exception@std@@QEAA@AEBV01@@Z ENDP			; std::exception::exception
_TEXT	ENDS
; Function compile flags: /Odtp /RTCsu
; File C:\Program Files\Microsoft Visual Studio\2022\Community\VC\Tools\MSVC\14.32.31326\include\vcruntime_exception.h
;	COMDAT ??0exception@std@@QEAA@QEBDH@Z
_TEXT	SEGMENT
this$ = 16
_Message$ = 24
__formal$ = 32
??0exception@std@@QEAA@QEBDH@Z PROC			; std::exception::exception, COMDAT

; 66   :     {

$LN3:
	mov	DWORD PTR [rsp+24], r8d
	mov	QWORD PTR [rsp+16], rdx
	mov	QWORD PTR [rsp+8], rcx
	push	rdi
	mov	rax, QWORD PTR this$[rsp]
	lea	rcx, OFFSET FLAT:??_7exception@std@@6B@
	mov	QWORD PTR [rax], rcx

; 65   :         : _Data()

	mov	rax, QWORD PTR this$[rsp]
	add	rax, 8
	mov	rdi, rax
	xor	eax, eax
	mov	ecx, 16
	rep stosb

; 67   :         _Data._What = _Message;

	mov	rax, QWORD PTR this$[rsp]
	mov	rcx, QWORD PTR _Message$[rsp]
	mov	QWORD PTR [rax+8], rcx

; 68   :     }

	mov	rax, QWORD PTR this$[rsp]
	pop	rdi
	ret	0
??0exception@std@@QEAA@QEBDH@Z ENDP			; std::exception::exception
_TEXT	ENDS
; Function compile flags: /Odtp /RTCsu
; File C:\Users\ksart\OneDrive\Desktop\FlappyBird\libraries\external\glm\glm\detail\func_common.inl
;	COMDAT ??$abs@M@glm@@YAMM@Z
_TEXT	SEGMENT
x$ = 64
??$abs@M@glm@@YAMM@Z PROC				; glm::abs<float>, COMDAT

; 310  : 	{

$LN3:
	movss	DWORD PTR [rsp+8], xmm0
	push	rdi
	sub	rsp, 48					; 00000030H

; 311  : 		return detail::compute_abs<genFIType, std::numeric_limits<genFIType>::is_signed>::call(x);

	movss	xmm0, DWORD PTR x$[rsp]
	call	?call@?$compute_abs@M$00@detail@glm@@SAMM@Z ; glm::detail::compute_abs<float,1>::call

; 312  : 	}

	add	rsp, 48					; 00000030H
	pop	rdi
	ret	0
??$abs@M@glm@@YAMM@Z ENDP				; glm::abs<float>
_TEXT	ENDS
; Function compile flags: /Odtp /RTCsu
; File C:\Users\ksart\OneDrive\Desktop\FlappyBird\libraries\external\glm\glm\gtc\epsilon.inl
;	COMDAT ??$epsilonEqual@M@glm@@YA_NAEBM00@Z
_TEXT	SEGMENT
tv68 = 32
x$ = 64
y$ = 72
epsilon$ = 80
??$epsilonEqual@M@glm@@YA_NAEBM00@Z PROC		; glm::epsilonEqual<float>, COMDAT

; 21   : 	{

$LN5:
	mov	QWORD PTR [rsp+24], r8
	mov	QWORD PTR [rsp+16], rdx
	mov	QWORD PTR [rsp+8], rcx
	push	rdi
	sub	rsp, 48					; 00000030H

; 22   : 		return abs(x - y) < epsilon;

	mov	rax, QWORD PTR x$[rsp]
	mov	rcx, QWORD PTR y$[rsp]
	movss	xmm0, DWORD PTR [rax]
	subss	xmm0, DWORD PTR [rcx]
	call	??$abs@M@glm@@YAMM@Z			; glm::abs<float>
	mov	rax, QWORD PTR epsilon$[rsp]
	movss	xmm1, DWORD PTR [rax]
	comiss	xmm1, xmm0
	jbe	SHORT $LN3@epsilonEqu
	mov	DWORD PTR tv68[rsp], 1
	jmp	SHORT $LN4@epsilonEqu
$LN3@epsilonEqu:
	mov	DWORD PTR tv68[rsp], 0
$LN4@epsilonEqu:
	movzx	eax, BYTE PTR tv68[rsp]

; 23   : 	}

	add	rsp, 48					; 00000030H
	pop	rdi
	ret	0
??$epsilonEqual@M@glm@@YA_NAEBM00@Z ENDP		; glm::epsilonEqual<float>
_TEXT	ENDS
; Function compile flags: /Odtp /RTCsu
; File C:\Program Files\Microsoft Visual Studio\2022\Community\VC\Tools\MSVC\14.32.31326\include\cmath
;	COMDAT ?sqrt@@YAMM@Z
_TEXT	SEGMENT
_Xx$ = 64
?sqrt@@YAMM@Z PROC					; sqrt, COMDAT

; 264  : _NODISCARD _Check_return_ inline float sqrt(_In_ float _Xx) noexcept /* strengthened */ {

$LN3:
	movss	DWORD PTR [rsp+8], xmm0
	push	rdi
	sub	rsp, 48					; 00000030H

; 265  :     return _CSTD sqrtf(_Xx);

	movss	xmm0, DWORD PTR _Xx$[rsp]
	call	QWORD PTR __imp_sqrtf

; 266  : }

	add	rsp, 48					; 00000030H
	pop	rdi
	ret	0
?sqrt@@YAMM@Z ENDP					; sqrt
_TEXT	ENDS
; Function compile flags: /Odtp /RTCsu
; File C:\Program Files\Microsoft Visual Studio\2022\Community\VC\Tools\MSVC\14.32.31326\include\cmath
;	COMDAT ?sin@@YAMM@Z
_TEXT	SEGMENT
_Xx$ = 64
?sin@@YAMM@Z PROC					; sin, COMDAT

; 256  : _NODISCARD _Check_return_ inline float sin(_In_ float _Xx) noexcept /* strengthened */ {

$LN3:
	movss	DWORD PTR [rsp+8], xmm0
	push	rdi
	sub	rsp, 48					; 00000030H

; 257  :     return _CSTD sinf(_Xx);

	movss	xmm0, DWORD PTR _Xx$[rsp]
	call	QWORD PTR __imp_sinf

; 258  : }

	add	rsp, 48					; 00000030H
	pop	rdi
	ret	0
?sin@@YAMM@Z ENDP					; sin
_TEXT	ENDS
; Function compile flags: /Odtp /RTCsu
; File C:\Program Files\Microsoft Visual Studio\2022\Community\VC\Tools\MSVC\14.32.31326\include\cmath
;	COMDAT ?pow@@YAMMM@Z
_TEXT	SEGMENT
_Xx$ = 64
_Yx$ = 72
?pow@@YAMMM@Z PROC					; pow, COMDAT

; 222  : _NODISCARD _Check_return_ inline float pow(_In_ float _Xx, _In_ float _Yx) noexcept /* strengthened */ {

$LN3:
	movss	DWORD PTR [rsp+16], xmm1
	movss	DWORD PTR [rsp+8], xmm0
	push	rdi
	sub	rsp, 48					; 00000030H

; 223  :     return _CSTD powf(_Xx, _Yx);

	movss	xmm1, DWORD PTR _Yx$[rsp]
	movss	xmm0, DWORD PTR _Xx$[rsp]
	call	QWORD PTR __imp_powf

; 224  : }

	add	rsp, 48					; 00000030H
	pop	rdi
	ret	0
?pow@@YAMMM@Z ENDP					; pow
_TEXT	ENDS
; Function compile flags: /Odtp /RTCsu
; File C:\Program Files\Microsoft Visual Studio\2022\Community\VC\Tools\MSVC\14.32.31326\include\cmath
;	COMDAT ?cos@@YAMM@Z
_TEXT	SEGMENT
_Xx$ = 64
?cos@@YAMM@Z PROC					; cos, COMDAT

; 88   : _NODISCARD _Check_return_ inline float cos(_In_ float _Xx) noexcept /* strengthened */ {

$LN3:
	movss	DWORD PTR [rsp+8], xmm0
	push	rdi
	sub	rsp, 48					; 00000030H

; 89   :     return _CSTD cosf(_Xx);

	movss	xmm0, DWORD PTR _Xx$[rsp]
	call	QWORD PTR __imp_cosf

; 90   : }

	add	rsp, 48					; 00000030H
	pop	rdi
	ret	0
?cos@@YAMM@Z ENDP					; cos
_TEXT	ENDS
; Function compile flags: /Odtp /RTCsu
; File C:\Program Files\Microsoft Visual Studio\2022\Community\VC\Tools\MSVC\14.32.31326\include\cmath
;	COMDAT ?atan2@@YAMMM@Z
_TEXT	SEGMENT
_Yx$ = 64
_Xx$ = 72
?atan2@@YAMMM@Z PROC					; atan2, COMDAT

; 60   : _NODISCARD _Check_return_ inline float atan2(_In_ float _Yx, _In_ float _Xx) noexcept /* strengthened */ {

$LN3:
	movss	DWORD PTR [rsp+16], xmm1
	movss	DWORD PTR [rsp+8], xmm0
	push	rdi
	sub	rsp, 48					; 00000030H

; 61   :     return _CSTD atan2f(_Yx, _Xx);

	movss	xmm1, DWORD PTR _Xx$[rsp]
	movss	xmm0, DWORD PTR _Yx$[rsp]
	call	QWORD PTR __imp_atan2f

; 62   : }

	add	rsp, 48					; 00000030H
	pop	rdi
	ret	0
?atan2@@YAMMM@Z ENDP					; atan2
_TEXT	ENDS
; Function compile flags: /Odtp /RTCsu
; File C:\Program Files\Microsoft Visual Studio\2022\Community\VC\Tools\MSVC\14.32.31326\include\cmath
;	COMDAT ?asin@@YAMM@Z
_TEXT	SEGMENT
_Xx$ = 64
?asin@@YAMM@Z PROC					; asin, COMDAT

; 44   : _NODISCARD _Check_return_ inline float asin(_In_ float _Xx) noexcept /* strengthened */ {

$LN3:
	movss	DWORD PTR [rsp+8], xmm0
	push	rdi
	sub	rsp, 48					; 00000030H

; 45   :     return _CSTD asinf(_Xx);

	movss	xmm0, DWORD PTR _Xx$[rsp]
	call	QWORD PTR __imp_asinf

; 46   : }

	add	rsp, 48					; 00000030H
	pop	rdi
	ret	0
?asin@@YAMM@Z ENDP					; asin
_TEXT	ENDS
; Function compile flags: /Odtp /RTCsu
; File C:\Program Files\Microsoft Visual Studio\2022\Community\VC\Tools\MSVC\14.32.31326\include\cmath
;	COMDAT ?acos@@YAMM@Z
_TEXT	SEGMENT
_Xx$ = 64
?acos@@YAMM@Z PROC					; acos, COMDAT

; 36   : _NODISCARD _Check_return_ inline float acos(_In_ float _Xx) noexcept /* strengthened */ {

$LN3:
	movss	DWORD PTR [rsp+8], xmm0
	push	rdi
	sub	rsp, 48					; 00000030H

; 37   :     return _CSTD acosf(_Xx);

	movss	xmm0, DWORD PTR _Xx$[rsp]
	call	QWORD PTR __imp_acosf

; 38   : }

	add	rsp, 48					; 00000030H
	pop	rdi
	ret	0
?acos@@YAMM@Z ENDP					; acos
_TEXT	ENDS
; Function compile flags: /Odtp /RTCsu
; File C:\Program Files\Microsoft Visual Studio\2022\Community\VC\Tools\MSVC\14.32.31326\include\vcruntime_new.h
;	COMDAT ??2@YAPEAX_KPEAX@Z
_TEXT	SEGMENT
_Size$ = 16
_Where$ = 24
??2@YAPEAX_KPEAX@Z PROC					; operator new, COMDAT

; 167  :     {

$LN3:
	mov	QWORD PTR [rsp+16], rdx
	mov	QWORD PTR [rsp+8], rcx
	push	rdi

; 168  :         (void)_Size;
; 169  :         return _Where;

	mov	rax, QWORD PTR _Where$[rsp]

; 170  :     }

	pop	rdi
	ret	0
??2@YAPEAX_KPEAX@Z ENDP					; operator new
_TEXT	ENDS
; Function compile flags: /Odtp /RTCsu
; File C:\Program Files\Microsoft Visual Studio\2022\Community\VC\Tools\MSVC\14.32.31326\include\limits
;	COMDAT ?epsilon@?$numeric_limits@M@std@@SAMXZ
_TEXT	SEGMENT
?epsilon@?$numeric_limits@M@std@@SAMXZ PROC		; std::numeric_limits<float>::epsilon, COMDAT

; 872  :     _NODISCARD static constexpr float epsilon() noexcept {

$LN3:
	push	rdi
	sub	rsp, 16

; 873  :         return FLT_EPSILON;

	movss	xmm0, DWORD PTR __real@34000000

; 874  :     }

	add	rsp, 16
	pop	rdi
	ret	0
?epsilon@?$numeric_limits@M@std@@SAMXZ ENDP		; std::numeric_limits<float>::epsilon
_TEXT	ENDS
; Function compile flags: /Odtp /RTCsu
; File C:\Program Files\Microsoft Visual Studio\2022\Community\VC\Tools\MSVC\14.32.31326\include\limits
;	COMDAT ?max@?$numeric_limits@_J@std@@SA_JXZ
_TEXT	SEGMENT
?max@?$numeric_limits@_J@std@@SA_JXZ PROC		; std::numeric_limits<__int64>::max, COMDAT

; 641  :     _NODISCARD static constexpr long long(max)() noexcept {

$LN3:
	push	rdi

; 642  :         return LLONG_MAX;

	mov	rax, 9223372036854775807		; 7fffffffffffffffH

; 643  :     }

	pop	rdi
	ret	0
?max@?$numeric_limits@_J@std@@SA_JXZ ENDP		; std::numeric_limits<__int64>::max
_TEXT	ENDS
END
