; Listing generated by Microsoft (R) Optimizing Compiler Version 19.32.31329.0 

include listing.inc

INCLUDELIB MSVCRTD

PUBLIC	?acos@@YAMM@Z					; acos
PUBLIC	?cos@@YAMM@Z					; cos
PUBLIC	?sin@@YAMM@Z					; sin
PUBLIC	?sqrt@@YAMM@Z					; sqrt
PUBLIC	?length@?$tvec2@M$0A@@glm@@SAHXZ		; glm::tvec2<float,0>::length
PUBLIC	??A?$tvec2@M$0A@@glm@@QEBAAEBMH@Z		; glm::tvec2<float,0>::operator[]
PUBLIC	??0?$tvec2@M$0A@@glm@@QEAA@XZ			; glm::tvec2<float,0>::tvec2<float,0>
PUBLIC	??0?$tvec2@M$0A@@glm@@QEAA@M@Z			; glm::tvec2<float,0>::tvec2<float,0>
PUBLIC	??0?$tvec2@M$0A@@glm@@QEAA@MM@Z			; glm::tvec2<float,0>::tvec2<float,0>
PUBLIC	??$?DM$0A@@glm@@YA?AU?$tvec2@M$0A@@0@AEBU10@M@Z	; glm::operator*<float,0>
PUBLIC	??0?$tvec4@M$0A@@glm@@QEAA@M@Z			; glm::tvec4<float,0>::tvec4<float,0>
PUBLIC	??0?$tvec4@M$0A@@glm@@QEAA@MMMM@Z		; glm::tvec4<float,0>::tvec4<float,0>
PUBLIC	??$?DM$0A@@glm@@YA?AU?$tvec4@M$0A@@0@AEBU10@M@Z	; glm::operator*<float,0>
PUBLIC	??$epsilonEqual@M@glm@@YA_NAEBM00@Z		; glm::epsilonEqual<float>
PUBLIC	??$abs@M@glm@@YAMM@Z				; glm::abs<float>
PUBLIC	?test_angle@@YAHXZ				; test_angle
PUBLIC	??$?0HH@?$tvec2@M$0A@@glm@@QEAA@HH@Z		; glm::tvec2<float,0>::tvec2<float,0><int,int>
PUBLIC	??$normalize@M$0A@Utvec2@glm@@@glm@@YA?AU?$tvec2@M$0A@@0@AEBU10@@Z ; glm::normalize<float,0,glm::tvec2>
PUBLIC	??$angle@M$0A@Utvec2@glm@@@glm@@YAMAEBU?$tvec2@M$0A@@0@0@Z ; glm::angle<float,0,glm::tvec2>
PUBLIC	??$pi@M@glm@@YAMXZ				; glm::pi<float>
PUBLIC	??0?$tvec3@M$0A@@glm@@QEAA@MMM@Z		; glm::tvec3<float,0>::tvec3<float,0>
PUBLIC	??$?0HHH@?$tvec3@M$0A@@glm@@QEAA@HHH@Z		; glm::tvec3<float,0>::tvec3<float,0><int,int,int>
PUBLIC	??$normalize@M$0A@Utvec3@glm@@@glm@@YA?AU?$tvec3@M$0A@@0@AEBU10@@Z ; glm::normalize<float,0,glm::tvec3>
PUBLIC	??$angle@M$0A@Utvec3@glm@@@glm@@YAMAEBU?$tvec3@M$0A@@0@0@Z ; glm::angle<float,0,glm::tvec3>
PUBLIC	??$?0HHHH@?$tvec4@M$0A@@glm@@QEAA@HHHH@Z	; glm::tvec4<float,0>::tvec4<float,0><int,int,int,int>
PUBLIC	??$normalize@M$0A@Utvec4@glm@@@glm@@YA?AU?$tvec4@M$0A@@0@AEBU10@@Z ; glm::normalize<float,0,glm::tvec4>
PUBLIC	??$angle@M$0A@Utvec4@glm@@@glm@@YAMAEBU?$tvec4@M$0A@@0@0@Z ; glm::angle<float,0,glm::tvec4>
PUBLIC	?test_orientedAngle_vec2@@YAHXZ			; test_orientedAngle_vec2
PUBLIC	??$orientedAngle@M$0A@@glm@@YAMAEBU?$tvec2@M$0A@@0@0@Z ; glm::orientedAngle<float,0>
PUBLIC	?test_orientedAngle_vec3@@YAHXZ			; test_orientedAngle_vec3
PUBLIC	??$orientedAngle@M$0A@@glm@@YAMAEBU?$tvec3@M$0A@@0@00@Z ; glm::orientedAngle<float,0>
PUBLIC	main
PUBLIC	??$?XM@?$tvec4@M$0A@@glm@@QEAAAEAU01@M@Z	; glm::tvec4<float,0>::operator*=<float>
PUBLIC	?call@?$compute_abs@M$00@detail@glm@@SAMM@Z	; glm::detail::compute_abs<float,1>::call
PUBLIC	?call@?$compute_normalize@M$0A@Utvec2@glm@@$0A@@detail@glm@@SA?AU?$tvec2@M$0A@@3@AEBU43@@Z ; glm::detail::compute_normalize<float,0,glm::tvec2,0>::call
PUBLIC	??$dot@M$0A@Utvec2@glm@@@glm@@YAMAEBU?$tvec2@M$0A@@0@0@Z ; glm::dot<float,0,glm::tvec2>
PUBLIC	??$clamp@M@glm@@YAMMMM@Z			; glm::clamp<float>
PUBLIC	?call@?$compute_normalize@M$0A@Utvec3@glm@@$0A@@detail@glm@@SA?AU?$tvec3@M$0A@@3@AEBU43@@Z ; glm::detail::compute_normalize<float,0,glm::tvec3,0>::call
PUBLIC	??$dot@M$0A@Utvec3@glm@@@glm@@YAMAEBU?$tvec3@M$0A@@0@0@Z ; glm::dot<float,0,glm::tvec3>
PUBLIC	?call@?$compute_normalize@M$0A@Utvec4@glm@@$0A@@detail@glm@@SA?AU?$tvec4@M$0A@@3@AEBU43@@Z ; glm::detail::compute_normalize<float,0,glm::tvec4,0>::call
PUBLIC	??$dot@M$0A@Utvec4@glm@@@glm@@YAMAEBU?$tvec4@M$0A@@0@0@Z ; glm::dot<float,0,glm::tvec4>
PUBLIC	??$rotate@M$0A@@glm@@YA?AU?$tvec2@M$0A@@0@AEBU10@AEBM@Z ; glm::rotate<float,0>
PUBLIC	??$epsilonEqual@M$0A@Utvec2@glm@@@glm@@YA?AU?$tvec2@_N$0A@@0@AEBU?$tvec2@M$0A@@0@0AEBM@Z ; glm::epsilonEqual<float,0,glm::tvec2>
PUBLIC	?length@?$tvec2@_N$0A@@glm@@SAHXZ		; glm::tvec2<bool,0>::length
PUBLIC	??A?$tvec2@_N$0A@@glm@@QEAAAEA_NH@Z		; glm::tvec2<bool,0>::operator[]
PUBLIC	??A?$tvec2@_N$0A@@glm@@QEBAAEB_NH@Z		; glm::tvec2<bool,0>::operator[]
PUBLIC	??0?$tvec2@_N$0A@@glm@@QEAA@W4ctor@1@@Z		; glm::tvec2<bool,0>::tvec2<bool,0>
PUBLIC	??$all@$0A@Utvec2@glm@@@glm@@YA_NAEBU?$tvec2@_N$0A@@0@@Z ; glm::all<0,glm::tvec2>
PUBLIC	??$cross@M$0A@@glm@@YA?AU?$tvec3@M$0A@@0@AEBU10@0@Z ; glm::cross<float,0>
PUBLIC	??$mix@M_N@glm@@YAMMM_N@Z			; glm::mix<float,bool>
PUBLIC	??$inversesqrt@M@glm@@YAMM@Z			; glm::inversesqrt<float>
PUBLIC	??$?DM$0A@@glm@@YA?AU?$tvec3@M$0A@@0@AEBU10@M@Z	; glm::operator*<float,0>
PUBLIC	?call@?$functor1@MM$0A@Utvec2@glm@@@detail@glm@@SA?AU?$tvec2@M$0A@@3@P6AMM@ZAEBU43@@Z ; glm::detail::functor1<float,float,0,glm::tvec2>::call
PUBLIC	?call@?$compute_vec4_mul@M$0A@$0A@@detail@glm@@SA?AU?$tvec4@M$0A@@3@AEBU43@0@Z ; glm::detail::compute_vec4_mul<float,0,0>::call
PUBLIC	?call@?$compute_dot@Utvec2@glm@@M$0A@$0A@@detail@glm@@SAMAEBU?$tvec2@M$0A@@3@0@Z ; glm::detail::compute_dot<glm::tvec2,float,0,0>::call
PUBLIC	??$max@M@glm@@YAMMM@Z				; glm::max<float>
PUBLIC	??$min@M@glm@@YAMMM@Z				; glm::min<float>
PUBLIC	?call@?$compute_dot@Utvec3@glm@@M$0A@$0A@@detail@glm@@SAMAEBU?$tvec3@M$0A@@3@0@Z ; glm::detail::compute_dot<glm::tvec3,float,0,0>::call
PUBLIC	?call@?$compute_dot@Utvec4@glm@@M$0A@$0A@@detail@glm@@SAMAEBU?$tvec4@M$0A@@3@0@Z ; glm::detail::compute_dot<glm::tvec4,float,0,0>::call
PUBLIC	??$?GM$0A@@glm@@YA?AU?$tvec2@M$0A@@0@AEBU10@0@Z	; glm::operator-<float,0>
PUBLIC	??$abs@M$0A@Utvec2@glm@@@glm@@YA?AU?$tvec2@M$0A@@0@AEBU10@@Z ; glm::abs<float,0,glm::tvec2>
PUBLIC	??$lessThan@M$0A@Utvec2@glm@@@glm@@YA?AU?$tvec2@_N$0A@@0@AEBU?$tvec2@M$0A@@0@0@Z ; glm::lessThan<float,0,glm::tvec2>
PUBLIC	?call@?$compute_cross@M$0A@$0A@@detail@glm@@SA?AU?$tvec3@M$0A@@3@AEBU43@0@Z ; glm::detail::compute_cross<float,0,0>::call
PUBLIC	?call@?$compute_mix@M_N@detail@glm@@SAMAEBM0AEB_N@Z ; glm::detail::compute_mix<float,bool>::call
PUBLIC	??$?DM$0A@@glm@@YA?AU?$tvec4@M$0A@@0@AEBU10@0@Z	; glm::operator*<float,0>
PUBLIC	??$?DM$0A@@glm@@YA?AU?$tvec3@M$0A@@0@AEBU10@0@Z	; glm::operator*<float,0>
PUBLIC	??$?DM$0A@@glm@@YA?AU?$tvec2@M$0A@@0@AEBU10@0@Z	; glm::operator*<float,0>
PUBLIC	?call@?$compute_abs_vector@M$0A@Utvec2@glm@@$0A@@detail@glm@@SA?AU?$tvec2@M$0A@@3@AEBU43@@Z ; glm::detail::compute_abs_vector<float,0,glm::tvec2,0>::call
PUBLIC	??$?XM@?$tvec4@M$0A@@glm@@QEAAAEAU01@AEBU01@@Z	; glm::tvec4<float,0>::operator*=<float>
PUBLIC	??_C@_1LG@FPDAFGJN@?$AAC?$AA?3?$AA?2?$AAU?$AAs?$AAe?$AAr?$AAs?$AA?2?$AAk?$AAs?$AAa?$AAr?$AAt?$AA?2@ ; `string'
PUBLIC	??_C@_1DK@BGNCJAPL@?$AAi?$AA?5?$AA?$DO?$AA?$DN?$AA?5?$AA0?$AA?5?$AA?$CG?$AA?$CG?$AA?5?$AAi?$AA?5?$AA?$DM?$AA?5?$AAt@ ; `string'
PUBLIC	??_C@_1NA@OPABFNEN@?$AAC?$AA?3?$AA?2?$AAU?$AAs?$AAe?$AAr?$AAs?$AA?2?$AAk?$AAs?$AAa?$AAr?$AAt?$AA?2@ ; `string'
PUBLIC	??_C@_1DC@HHLCGOLC@?$AAx?$AA?4?$AAl?$AAe?$AAn?$AAg?$AAt?$AAh?$AA?$CI?$AA?$CJ?$AA?5?$AA?$DN?$AA?$DN?$AA?5?$AAy@ ; `string'
PUBLIC	__real@00000000
PUBLIC	__real@38d1b717
PUBLIC	__real@3c23d70a
PUBLIC	__real@3e800000
PUBLIC	__real@3f800000
PUBLIC	__real@40490fdb
PUBLIC	__real@bf800000
PUBLIC	__xmm@80000000800000008000000080000000
EXTRN	__imp__wassert:PROC
EXTRN	__imp_acosf:PROC
EXTRN	__imp_cosf:PROC
EXTRN	__imp_sinf:PROC
EXTRN	__imp_sqrtf:PROC
EXTRN	_RTC_CheckStackVars:PROC
EXTRN	_RTC_InitBase:PROC
EXTRN	_RTC_Shutdown:PROC
EXTRN	_fltused:DWORD
;	COMDAT pdata
pdata	SEGMENT
$pdata$?acos@@YAMM@Z DD imagerel $LN3
	DD	imagerel $LN3+29
	DD	imagerel $unwind$?acos@@YAMM@Z
pdata	ENDS
;	COMDAT pdata
pdata	SEGMENT
$pdata$?cos@@YAMM@Z DD imagerel $LN3
	DD	imagerel $LN3+29
	DD	imagerel $unwind$?cos@@YAMM@Z
pdata	ENDS
;	COMDAT pdata
pdata	SEGMENT
$pdata$?sin@@YAMM@Z DD imagerel $LN3
	DD	imagerel $LN3+29
	DD	imagerel $unwind$?sin@@YAMM@Z
pdata	ENDS
;	COMDAT pdata
pdata	SEGMENT
$pdata$?sqrt@@YAMM@Z DD imagerel $LN3
	DD	imagerel $LN3+29
	DD	imagerel $unwind$?sqrt@@YAMM@Z
pdata	ENDS
;	COMDAT pdata
pdata	SEGMENT
$pdata$?length@?$tvec2@M$0A@@glm@@SAHXZ DD imagerel $LN3
	DD	imagerel $LN3+9
	DD	imagerel $unwind$?length@?$tvec2@M$0A@@glm@@SAHXZ
pdata	ENDS
;	COMDAT pdata
pdata	SEGMENT
$pdata$??A?$tvec2@M$0A@@glm@@QEBAAEBMH@Z DD imagerel $LN5
	DD	imagerel $LN5+80
	DD	imagerel $unwind$??A?$tvec2@M$0A@@glm@@QEBAAEBMH@Z
pdata	ENDS
;	COMDAT pdata
pdata	SEGMENT
$pdata$??0?$tvec2@M$0A@@glm@@QEAA@XZ DD imagerel $LN3
	DD	imagerel $LN3+38
	DD	imagerel $unwind$??0?$tvec2@M$0A@@glm@@QEAA@XZ
pdata	ENDS
;	COMDAT pdata
pdata	SEGMENT
$pdata$??0?$tvec2@M$0A@@glm@@QEAA@M@Z DD imagerel $LN3
	DD	imagerel $LN3+50
	DD	imagerel $unwind$??0?$tvec2@M$0A@@glm@@QEAA@M@Z
pdata	ENDS
;	COMDAT pdata
pdata	SEGMENT
$pdata$??0?$tvec2@M$0A@@glm@@QEAA@MM@Z DD imagerel $LN3
	DD	imagerel $LN3+56
	DD	imagerel $unwind$??0?$tvec2@M$0A@@glm@@QEAA@MM@Z
pdata	ENDS
;	COMDAT pdata
pdata	SEGMENT
$pdata$??$?DM$0A@@glm@@YA?AU?$tvec2@M$0A@@0@AEBU10@M@Z DD imagerel $LN3
	DD	imagerel $LN3+76
	DD	imagerel $unwind$??$?DM$0A@@glm@@YA?AU?$tvec2@M$0A@@0@AEBU10@M@Z
pdata	ENDS
;	COMDAT pdata
pdata	SEGMENT
$pdata$??0?$tvec4@M$0A@@glm@@QEAA@M@Z DD imagerel $LN3
	DD	imagerel $LN3+82
	DD	imagerel $unwind$??0?$tvec4@M$0A@@glm@@QEAA@M@Z
pdata	ENDS
;	COMDAT pdata
pdata	SEGMENT
$pdata$??0?$tvec4@M$0A@@glm@@QEAA@MMMM@Z DD imagerel $LN3
	DD	imagerel $LN3+94
	DD	imagerel $unwind$??0?$tvec4@M$0A@@glm@@QEAA@MMMM@Z
pdata	ENDS
;	COMDAT pdata
pdata	SEGMENT
$pdata$??$?DM$0A@@glm@@YA?AU?$tvec4@M$0A@@0@AEBU10@M@Z DD imagerel $LN3
	DD	imagerel $LN3+85
	DD	imagerel $unwind$??$?DM$0A@@glm@@YA?AU?$tvec4@M$0A@@0@AEBU10@M@Z
pdata	ENDS
;	COMDAT pdata
pdata	SEGMENT
$pdata$??$epsilonEqual@M@glm@@YA_NAEBM00@Z DD imagerel $LN5
	DD	imagerel $LN5+86
	DD	imagerel $unwind$??$epsilonEqual@M@glm@@YA_NAEBM00@Z
pdata	ENDS
;	COMDAT pdata
pdata	SEGMENT
$pdata$??$abs@M@glm@@YAMM@Z DD imagerel $LN3
	DD	imagerel $LN3+28
	DD	imagerel $unwind$??$abs@M@glm@@YAMM@Z
pdata	ENDS
pdata	SEGMENT
$pdata$?test_angle@@YAHXZ DD imagerel $LN9
	DD	imagerel $LN9+727
	DD	imagerel $unwind$?test_angle@@YAHXZ
pdata	ENDS
;	COMDAT pdata
pdata	SEGMENT
$pdata$??$?0HH@?$tvec2@M$0A@@glm@@QEAA@HH@Z DD imagerel $LN3
	DD	imagerel $LN3+53
	DD	imagerel $unwind$??$?0HH@?$tvec2@M$0A@@glm@@QEAA@HH@Z
pdata	ENDS
;	COMDAT pdata
pdata	SEGMENT
$pdata$??$normalize@M$0A@Utvec2@glm@@@glm@@YA?AU?$tvec2@M$0A@@0@AEBU10@@Z DD imagerel $LN3
	DD	imagerel $LN3+41
	DD	imagerel $unwind$??$normalize@M$0A@Utvec2@glm@@@glm@@YA?AU?$tvec2@M$0A@@0@AEBU10@@Z
pdata	ENDS
;	COMDAT pdata
pdata	SEGMENT
$pdata$??$angle@M$0A@Utvec2@glm@@@glm@@YAMAEBU?$tvec2@M$0A@@0@0@Z DD imagerel $LN3
	DD	imagerel $LN3+62
	DD	imagerel $unwind$??$angle@M$0A@Utvec2@glm@@@glm@@YAMAEBU?$tvec2@M$0A@@0@0@Z
pdata	ENDS
;	COMDAT pdata
pdata	SEGMENT
$pdata$??$pi@M@glm@@YAMXZ DD imagerel $LN3
	DD	imagerel $LN3+20
	DD	imagerel $unwind$??$pi@M@glm@@YAMXZ
pdata	ENDS
;	COMDAT pdata
pdata	SEGMENT
$pdata$??0?$tvec3@M$0A@@glm@@QEAA@MMM@Z DD imagerel $LN3
	DD	imagerel $LN3+78
	DD	imagerel $unwind$??0?$tvec3@M$0A@@glm@@QEAA@MMM@Z
pdata	ENDS
;	COMDAT pdata
pdata	SEGMENT
$pdata$??$?0HHH@?$tvec3@M$0A@@glm@@QEAA@HHH@Z DD imagerel $LN3
	DD	imagerel $LN3+74
	DD	imagerel $unwind$??$?0HHH@?$tvec3@M$0A@@glm@@QEAA@HHH@Z
pdata	ENDS
;	COMDAT pdata
pdata	SEGMENT
$pdata$??$normalize@M$0A@Utvec3@glm@@@glm@@YA?AU?$tvec3@M$0A@@0@AEBU10@@Z DD imagerel $LN3
	DD	imagerel $LN3+41
	DD	imagerel $unwind$??$normalize@M$0A@Utvec3@glm@@@glm@@YA?AU?$tvec3@M$0A@@0@AEBU10@@Z
pdata	ENDS
;	COMDAT pdata
pdata	SEGMENT
$pdata$??$angle@M$0A@Utvec3@glm@@@glm@@YAMAEBU?$tvec3@M$0A@@0@0@Z DD imagerel $LN3
	DD	imagerel $LN3+62
	DD	imagerel $unwind$??$angle@M$0A@Utvec3@glm@@@glm@@YAMAEBU?$tvec3@M$0A@@0@0@Z
pdata	ENDS
;	COMDAT pdata
pdata	SEGMENT
$pdata$??$?0HHHH@?$tvec4@M$0A@@glm@@QEAA@HHHH@Z DD imagerel $LN3
	DD	imagerel $LN3+90
	DD	imagerel $unwind$??$?0HHHH@?$tvec4@M$0A@@glm@@QEAA@HHHH@Z
pdata	ENDS
;	COMDAT pdata
pdata	SEGMENT
$pdata$??$normalize@M$0A@Utvec4@glm@@@glm@@YA?AU?$tvec4@M$0A@@0@AEBU10@@Z DD imagerel $LN3
	DD	imagerel $LN3+41
	DD	imagerel $unwind$??$normalize@M$0A@Utvec4@glm@@@glm@@YA?AU?$tvec4@M$0A@@0@AEBU10@@Z
pdata	ENDS
;	COMDAT pdata
pdata	SEGMENT
$pdata$??$angle@M$0A@Utvec4@glm@@@glm@@YAMAEBU?$tvec4@M$0A@@0@0@Z DD imagerel $LN3
	DD	imagerel $LN3+62
	DD	imagerel $unwind$??$angle@M$0A@Utvec4@glm@@@glm@@YAMAEBU?$tvec4@M$0A@@0@0@Z
pdata	ENDS
pdata	SEGMENT
$pdata$?test_orientedAngle_vec2@@YAHXZ DD imagerel $LN9
	DD	imagerel $LN9+493
	DD	imagerel $unwind$?test_orientedAngle_vec2@@YAHXZ
pdata	ENDS
;	COMDAT pdata
pdata	SEGMENT
$pdata$??$orientedAngle@M$0A@@glm@@YAMAEBU?$tvec2@M$0A@@0@0@Z DD imagerel $LN5
	DD	imagerel $LN5+212
	DD	imagerel $unwind$??$orientedAngle@M$0A@@glm@@YAMAEBU?$tvec2@M$0A@@0@0@Z
pdata	ENDS
pdata	SEGMENT
$pdata$?test_orientedAngle_vec3@@YAHXZ DD imagerel $LN9
	DD	imagerel $LN9+652
	DD	imagerel $unwind$?test_orientedAngle_vec3@@YAHXZ
pdata	ENDS
;	COMDAT pdata
pdata	SEGMENT
$pdata$??$orientedAngle@M$0A@@glm@@YAMAEBU?$tvec3@M$0A@@0@00@Z DD imagerel $LN5
	DD	imagerel $LN5+159
	DD	imagerel $unwind$??$orientedAngle@M$0A@@glm@@YAMAEBU?$tvec3@M$0A@@0@00@Z
pdata	ENDS
pdata	SEGMENT
$pdata$main DD	imagerel $LN3
	DD	imagerel $LN3+75
	DD	imagerel $unwind$main
pdata	ENDS
;	COMDAT pdata
pdata	SEGMENT
$pdata$??$?XM@?$tvec4@M$0A@@glm@@QEAAAEAU01@M@Z DD imagerel $LN3
	DD	imagerel $LN3+78
	DD	imagerel $unwind$??$?XM@?$tvec4@M$0A@@glm@@QEAAAEAU01@M@Z
pdata	ENDS
;	COMDAT pdata
pdata	SEGMENT
$pdata$?call@?$compute_abs@M$00@detail@glm@@SAMM@Z DD imagerel $LN5
	DD	imagerel $LN5+71
	DD	imagerel $unwind$?call@?$compute_abs@M$00@detail@glm@@SAMM@Z
pdata	ENDS
;	COMDAT pdata
pdata	SEGMENT
$pdata$?call@?$compute_normalize@M$0A@Utvec2@glm@@$0A@@detail@glm@@SA?AU?$tvec2@M$0A@@3@AEBU43@@Z DD imagerel $LN3
	DD	imagerel $LN3+64
	DD	imagerel $unwind$?call@?$compute_normalize@M$0A@Utvec2@glm@@$0A@@detail@glm@@SA?AU?$tvec2@M$0A@@3@AEBU43@@Z
pdata	ENDS
;	COMDAT pdata
pdata	SEGMENT
$pdata$??$dot@M$0A@Utvec2@glm@@@glm@@YAMAEBU?$tvec2@M$0A@@0@0@Z DD imagerel $LN3
	DD	imagerel $LN3+36
	DD	imagerel $unwind$??$dot@M$0A@Utvec2@glm@@@glm@@YAMAEBU?$tvec2@M$0A@@0@0@Z
pdata	ENDS
;	COMDAT pdata
pdata	SEGMENT
$pdata$??$clamp@M@glm@@YAMMMM@Z DD imagerel $LN3
	DD	imagerel $LN3+57
	DD	imagerel $unwind$??$clamp@M@glm@@YAMMMM@Z
pdata	ENDS
;	COMDAT pdata
pdata	SEGMENT
$pdata$?call@?$compute_normalize@M$0A@Utvec3@glm@@$0A@@detail@glm@@SA?AU?$tvec3@M$0A@@3@AEBU43@@Z DD imagerel $LN3
	DD	imagerel $LN3+64
	DD	imagerel $unwind$?call@?$compute_normalize@M$0A@Utvec3@glm@@$0A@@detail@glm@@SA?AU?$tvec3@M$0A@@3@AEBU43@@Z
pdata	ENDS
;	COMDAT pdata
pdata	SEGMENT
$pdata$??$dot@M$0A@Utvec3@glm@@@glm@@YAMAEBU?$tvec3@M$0A@@0@0@Z DD imagerel $LN3
	DD	imagerel $LN3+36
	DD	imagerel $unwind$??$dot@M$0A@Utvec3@glm@@@glm@@YAMAEBU?$tvec3@M$0A@@0@0@Z
pdata	ENDS
;	COMDAT pdata
pdata	SEGMENT
$pdata$?call@?$compute_normalize@M$0A@Utvec4@glm@@$0A@@detail@glm@@SA?AU?$tvec4@M$0A@@3@AEBU43@@Z DD imagerel $LN3
	DD	imagerel $LN3+64
	DD	imagerel $unwind$?call@?$compute_normalize@M$0A@Utvec4@glm@@$0A@@detail@glm@@SA?AU?$tvec4@M$0A@@3@AEBU43@@Z
pdata	ENDS
;	COMDAT pdata
pdata	SEGMENT
$pdata$??$dot@M$0A@Utvec4@glm@@@glm@@YAMAEBU?$tvec4@M$0A@@0@0@Z DD imagerel $LN3
	DD	imagerel $LN3+36
	DD	imagerel $unwind$??$dot@M$0A@Utvec4@glm@@@glm@@YAMAEBU?$tvec4@M$0A@@0@0@Z
pdata	ENDS
;	COMDAT pdata
pdata	SEGMENT
$pdata$??$rotate@M$0A@@glm@@YA?AU?$tvec2@M$0A@@0@AEBU10@AEBM@Z DD imagerel $LN3
	DD	imagerel $LN3+219
	DD	imagerel $unwind$??$rotate@M$0A@@glm@@YA?AU?$tvec2@M$0A@@0@AEBU10@AEBM@Z
pdata	ENDS
;	COMDAT pdata
pdata	SEGMENT
$pdata$??$epsilonEqual@M$0A@Utvec2@glm@@@glm@@YA?AU?$tvec2@_N$0A@@0@AEBU?$tvec2@M$0A@@0@0AEBM@Z DD imagerel $LN3
	DD	imagerel $LN3+114
	DD	imagerel $unwind$??$epsilonEqual@M$0A@Utvec2@glm@@@glm@@YA?AU?$tvec2@_N$0A@@0@AEBU?$tvec2@M$0A@@0@0AEBM@Z
pdata	ENDS
;	COMDAT pdata
pdata	SEGMENT
$pdata$?length@?$tvec2@_N$0A@@glm@@SAHXZ DD imagerel $LN3
	DD	imagerel $LN3+9
	DD	imagerel $unwind$?length@?$tvec2@_N$0A@@glm@@SAHXZ
pdata	ENDS
;	COMDAT pdata
pdata	SEGMENT
$pdata$??A?$tvec2@_N$0A@@glm@@QEAAAEA_NH@Z DD imagerel $LN5
	DD	imagerel $LN5+82
	DD	imagerel $unwind$??A?$tvec2@_N$0A@@glm@@QEAAAEA_NH@Z
pdata	ENDS
;	COMDAT pdata
pdata	SEGMENT
$pdata$??A?$tvec2@_N$0A@@glm@@QEBAAEB_NH@Z DD imagerel $LN5
	DD	imagerel $LN5+82
	DD	imagerel $unwind$??A?$tvec2@_N$0A@@glm@@QEBAAEB_NH@Z
pdata	ENDS
;	COMDAT pdata
pdata	SEGMENT
$pdata$??0?$tvec2@_N$0A@@glm@@QEAA@W4ctor@1@@Z DD imagerel $LN3
	DD	imagerel $LN3+17
	DD	imagerel $unwind$??0?$tvec2@_N$0A@@glm@@QEAA@W4ctor@1@@Z
pdata	ENDS
;	COMDAT pdata
pdata	SEGMENT
$pdata$??$all@$0A@Utvec2@glm@@@glm@@YA_NAEBU?$tvec2@_N$0A@@0@@Z DD imagerel $LN8
	DD	imagerel $LN8+116
	DD	imagerel $unwind$??$all@$0A@Utvec2@glm@@@glm@@YA_NAEBU?$tvec2@_N$0A@@0@@Z
pdata	ENDS
;	COMDAT pdata
pdata	SEGMENT
$pdata$??$cross@M$0A@@glm@@YA?AU?$tvec3@M$0A@@0@AEBU10@0@Z DD imagerel $LN3
	DD	imagerel $LN3+51
	DD	imagerel $unwind$??$cross@M$0A@@glm@@YA?AU?$tvec3@M$0A@@0@AEBU10@0@Z
pdata	ENDS
;	COMDAT pdata
pdata	SEGMENT
$pdata$??$mix@M_N@glm@@YAMMM_N@Z DD imagerel $LN3
	DD	imagerel $LN3+48
	DD	imagerel $unwind$??$mix@M_N@glm@@YAMMM_N@Z
pdata	ENDS
;	COMDAT pdata
pdata	SEGMENT
$pdata$??$inversesqrt@M@glm@@YAMM@Z DD imagerel $LN3
	DD	imagerel $LN3+43
	DD	imagerel $unwind$??$inversesqrt@M@glm@@YAMM@Z
pdata	ENDS
;	COMDAT pdata
pdata	SEGMENT
$pdata$??$?DM$0A@@glm@@YA?AU?$tvec3@M$0A@@0@AEBU10@M@Z DD imagerel $LN3
	DD	imagerel $LN3+110
	DD	imagerel $unwind$??$?DM$0A@@glm@@YA?AU?$tvec3@M$0A@@0@AEBU10@M@Z
pdata	ENDS
;	COMDAT pdata
pdata	SEGMENT
$pdata$?call@?$functor1@MM$0A@Utvec2@glm@@@detail@glm@@SA?AU?$tvec2@M$0A@@3@P6AMM@ZAEBU43@@Z DD imagerel $LN3
	DD	imagerel $LN3+86
	DD	imagerel $unwind$?call@?$functor1@MM$0A@Utvec2@glm@@@detail@glm@@SA?AU?$tvec2@M$0A@@3@P6AMM@ZAEBU43@@Z
pdata	ENDS
;	COMDAT pdata
pdata	SEGMENT
$pdata$?call@?$compute_vec4_mul@M$0A@$0A@@detail@glm@@SA?AU?$tvec4@M$0A@@3@AEBU43@0@Z DD imagerel $LN3
	DD	imagerel $LN3+143
	DD	imagerel $unwind$?call@?$compute_vec4_mul@M$0A@$0A@@detail@glm@@SA?AU?$tvec4@M$0A@@3@AEBU43@0@Z
pdata	ENDS
;	COMDAT pdata
pdata	SEGMENT
$pdata$?call@?$compute_dot@Utvec2@glm@@M$0A@$0A@@detail@glm@@SAMAEBU?$tvec2@M$0A@@3@0@Z DD imagerel $LN3
	DD	imagerel $LN3+102
	DD	imagerel $unwind$?call@?$compute_dot@Utvec2@glm@@M$0A@$0A@@detail@glm@@SAMAEBU?$tvec2@M$0A@@3@0@Z
pdata	ENDS
;	COMDAT pdata
pdata	SEGMENT
$pdata$??$max@M@glm@@YAMMM@Z DD imagerel $LN5
	DD	imagerel $LN5+68
	DD	imagerel $unwind$??$max@M@glm@@YAMMM@Z
pdata	ENDS
;	COMDAT pdata
pdata	SEGMENT
$pdata$??$min@M@glm@@YAMMM@Z DD imagerel $LN5
	DD	imagerel $LN5+68
	DD	imagerel $unwind$??$min@M@glm@@YAMMM@Z
pdata	ENDS
;	COMDAT pdata
pdata	SEGMENT
$pdata$?call@?$compute_dot@Utvec3@glm@@M$0A@$0A@@detail@glm@@SAMAEBU?$tvec3@M$0A@@3@0@Z DD imagerel $LN3
	DD	imagerel $LN3+108
	DD	imagerel $unwind$?call@?$compute_dot@Utvec3@glm@@M$0A@$0A@@detail@glm@@SAMAEBU?$tvec3@M$0A@@3@0@Z
pdata	ENDS
;	COMDAT pdata
pdata	SEGMENT
$pdata$?call@?$compute_dot@Utvec4@glm@@M$0A@$0A@@detail@glm@@SAMAEBU?$tvec4@M$0A@@3@0@Z DD imagerel $LN3
	DD	imagerel $LN3+118
	DD	imagerel $unwind$?call@?$compute_dot@Utvec4@glm@@M$0A@$0A@@detail@glm@@SAMAEBU?$tvec4@M$0A@@3@0@Z
pdata	ENDS
;	COMDAT pdata
pdata	SEGMENT
$pdata$??$?GM$0A@@glm@@YA?AU?$tvec2@M$0A@@0@AEBU10@0@Z DD imagerel $LN3
	DD	imagerel $LN3+82
	DD	imagerel $unwind$??$?GM$0A@@glm@@YA?AU?$tvec2@M$0A@@0@AEBU10@0@Z
pdata	ENDS
;	COMDAT pdata
pdata	SEGMENT
$pdata$??$abs@M$0A@Utvec2@glm@@@glm@@YA?AU?$tvec2@M$0A@@0@AEBU10@@Z DD imagerel $LN3
	DD	imagerel $LN3+41
	DD	imagerel $unwind$??$abs@M$0A@Utvec2@glm@@@glm@@YA?AU?$tvec2@M$0A@@0@AEBU10@@Z
pdata	ENDS
;	COMDAT pdata
pdata	SEGMENT
$pdata$??$lessThan@M$0A@Utvec2@glm@@@glm@@YA?AU?$tvec2@_N$0A@@0@AEBU?$tvec2@M$0A@@0@0@Z DD imagerel $LN9
	DD	imagerel $LN9+268
	DD	imagerel $unwind$??$lessThan@M$0A@Utvec2@glm@@@glm@@YA?AU?$tvec2@_N$0A@@0@AEBU?$tvec2@M$0A@@0@0@Z
pdata	ENDS
;	COMDAT pdata
pdata	SEGMENT
$pdata$?call@?$compute_cross@M$0A@$0A@@detail@glm@@SA?AU?$tvec3@M$0A@@3@AEBU43@0@Z DD imagerel $LN3
	DD	imagerel $LN3+190
	DD	imagerel $unwind$?call@?$compute_cross@M$0A@$0A@@detail@glm@@SA?AU?$tvec3@M$0A@@3@AEBU43@0@Z
pdata	ENDS
;	COMDAT pdata
pdata	SEGMENT
$pdata$?call@?$compute_mix@M_N@detail@glm@@SAMAEBM0AEB_N@Z DD imagerel $LN5
	DD	imagerel $LN5+76
	DD	imagerel $unwind$?call@?$compute_mix@M_N@detail@glm@@SAMAEBM0AEB_N@Z
pdata	ENDS
;	COMDAT pdata
pdata	SEGMENT
$pdata$??$?DM$0A@@glm@@YA?AU?$tvec4@M$0A@@0@AEBU10@0@Z DD imagerel $LN3
	DD	imagerel $LN3+83
	DD	imagerel $unwind$??$?DM$0A@@glm@@YA?AU?$tvec4@M$0A@@0@AEBU10@0@Z
pdata	ENDS
;	COMDAT pdata
pdata	SEGMENT
$pdata$??$?DM$0A@@glm@@YA?AU?$tvec3@M$0A@@0@AEBU10@0@Z DD imagerel $LN3
	DD	imagerel $LN3+120
	DD	imagerel $unwind$??$?DM$0A@@glm@@YA?AU?$tvec3@M$0A@@0@AEBU10@0@Z
pdata	ENDS
;	COMDAT pdata
pdata	SEGMENT
$pdata$??$?DM$0A@@glm@@YA?AU?$tvec2@M$0A@@0@AEBU10@0@Z DD imagerel $LN3
	DD	imagerel $LN3+82
	DD	imagerel $unwind$??$?DM$0A@@glm@@YA?AU?$tvec2@M$0A@@0@AEBU10@0@Z
pdata	ENDS
;	COMDAT pdata
pdata	SEGMENT
$pdata$?call@?$compute_abs_vector@M$0A@Utvec2@glm@@$0A@@detail@glm@@SA?AU?$tvec2@M$0A@@3@AEBU43@@Z DD imagerel $LN3
	DD	imagerel $LN3+48
	DD	imagerel $unwind$?call@?$compute_abs_vector@M$0A@Utvec2@glm@@$0A@@detail@glm@@SA?AU?$tvec2@M$0A@@3@AEBU43@@Z
pdata	ENDS
;	COMDAT pdata
pdata	SEGMENT
$pdata$??$?XM@?$tvec4@M$0A@@glm@@QEAAAEAU01@AEBU01@@Z DD imagerel $LN3
	DD	imagerel $LN3+83
	DD	imagerel $unwind$??$?XM@?$tvec4@M$0A@@glm@@QEAAAEAU01@AEBU01@@Z
pdata	ENDS
;	COMDAT __xmm@80000000800000008000000080000000
CONST	SEGMENT
__xmm@80000000800000008000000080000000 DB 00H, 00H, 00H, 080H, 00H, 00H, 00H
	DB	080H, 00H, 00H, 00H, 080H, 00H, 00H, 00H, 080H
CONST	ENDS
;	COMDAT __real@bf800000
CONST	SEGMENT
__real@bf800000 DD 0bf800000r			; -1
CONST	ENDS
;	COMDAT __real@40490fdb
CONST	SEGMENT
__real@40490fdb DD 040490fdbr			; 3.14159
CONST	ENDS
;	COMDAT __real@3f800000
CONST	SEGMENT
__real@3f800000 DD 03f800000r			; 1
CONST	ENDS
;	COMDAT __real@3e800000
CONST	SEGMENT
__real@3e800000 DD 03e800000r			; 0.25
CONST	ENDS
;	COMDAT __real@3c23d70a
CONST	SEGMENT
__real@3c23d70a DD 03c23d70ar			; 0.01
CONST	ENDS
;	COMDAT __real@38d1b717
CONST	SEGMENT
__real@38d1b717 DD 038d1b717r			; 0.0001
CONST	ENDS
;	COMDAT __real@00000000
CONST	SEGMENT
__real@00000000 DD 000000000r			; 0
CONST	ENDS
;	COMDAT rtc$TMZ
rtc$TMZ	SEGMENT
_RTC_Shutdown.rtc$TMZ DQ FLAT:_RTC_Shutdown
rtc$TMZ	ENDS
;	COMDAT rtc$IMZ
rtc$IMZ	SEGMENT
_RTC_InitBase.rtc$IMZ DQ FLAT:_RTC_InitBase
rtc$IMZ	ENDS
;	COMDAT ??_C@_1DC@HHLCGOLC@?$AAx?$AA?4?$AAl?$AAe?$AAn?$AAg?$AAt?$AAh?$AA?$CI?$AA?$CJ?$AA?5?$AA?$DN?$AA?$DN?$AA?5?$AAy@
CONST	SEGMENT
??_C@_1DC@HHLCGOLC@?$AAx?$AA?4?$AAl?$AAe?$AAn?$AAg?$AAt?$AAh?$AA?$CI?$AA?$CJ?$AA?5?$AA?$DN?$AA?$DN?$AA?5?$AAy@ DB 'x'
	DB	00H, '.', 00H, 'l', 00H, 'e', 00H, 'n', 00H, 'g', 00H, 't', 00H
	DB	'h', 00H, '(', 00H, ')', 00H, ' ', 00H, '=', 00H, '=', 00H, ' '
	DB	00H, 'y', 00H, '.', 00H, 'l', 00H, 'e', 00H, 'n', 00H, 'g', 00H
	DB	't', 00H, 'h', 00H, '(', 00H, ')', 00H, 00H, 00H ; `string'
CONST	ENDS
;	COMDAT ??_C@_1NA@OPABFNEN@?$AAC?$AA?3?$AA?2?$AAU?$AAs?$AAe?$AAr?$AAs?$AA?2?$AAk?$AAs?$AAa?$AAr?$AAt?$AA?2@
CONST	SEGMENT
??_C@_1NA@OPABFNEN@?$AAC?$AA?3?$AA?2?$AAU?$AAs?$AAe?$AAr?$AAs?$AA?2?$AAk?$AAs?$AAa?$AAr?$AAt?$AA?2@ DB 'C'
	DB	00H, ':', 00H, '\', 00H, 'U', 00H, 's', 00H, 'e', 00H, 'r', 00H
	DB	's', 00H, '\', 00H, 'k', 00H, 's', 00H, 'a', 00H, 'r', 00H, 't'
	DB	00H, '\', 00H, 'O', 00H, 'n', 00H, 'e', 00H, 'D', 00H, 'r', 00H
	DB	'i', 00H, 'v', 00H, 'e', 00H, '\', 00H, 'D', 00H, 'e', 00H, 's'
	DB	00H, 'k', 00H, 't', 00H, 'o', 00H, 'p', 00H, '\', 00H, 'F', 00H
	DB	'l', 00H, 'a', 00H, 'p', 00H, 'p', 00H, 'y', 00H, 'B', 00H, 'i'
	DB	00H, 'r', 00H, 'd', 00H, '\', 00H, 'l', 00H, 'i', 00H, 'b', 00H
	DB	'r', 00H, 'a', 00H, 'r', 00H, 'i', 00H, 'e', 00H, 's', 00H, '\'
	DB	00H, 'e', 00H, 'x', 00H, 't', 00H, 'e', 00H, 'r', 00H, 'n', 00H
	DB	'a', 00H, 'l', 00H, '\', 00H, 'g', 00H, 'l', 00H, 'm', 00H, '\'
	DB	00H, 'g', 00H, 'l', 00H, 'm', 00H, '\', 00H, 'd', 00H, 'e', 00H
	DB	't', 00H, 'a', 00H, 'i', 00H, 'l', 00H, '\', 00H, 'f', 00H, 'u'
	DB	00H, 'n', 00H, 'c', 00H, '_', 00H, 'v', 00H, 'e', 00H, 'c', 00H
	DB	't', 00H, 'o', 00H, 'r', 00H, '_', 00H, 'r', 00H, 'e', 00H, 'l'
	DB	00H, 'a', 00H, 't', 00H, 'i', 00H, 'o', 00H, 'n', 00H, 'a', 00H
	DB	'l', 00H, '.', 00H, 'i', 00H, 'n', 00H, 'l', 00H, 00H, 00H ; `string'
CONST	ENDS
;	COMDAT ??_C@_1DK@BGNCJAPL@?$AAi?$AA?5?$AA?$DO?$AA?$DN?$AA?5?$AA0?$AA?5?$AA?$CG?$AA?$CG?$AA?5?$AAi?$AA?5?$AA?$DM?$AA?5?$AAt@
CONST	SEGMENT
??_C@_1DK@BGNCJAPL@?$AAi?$AA?5?$AA?$DO?$AA?$DN?$AA?5?$AA0?$AA?5?$AA?$CG?$AA?$CG?$AA?5?$AAi?$AA?5?$AA?$DM?$AA?5?$AAt@ DB 'i'
	DB	00H, ' ', 00H, '>', 00H, '=', 00H, ' ', 00H, '0', 00H, ' ', 00H
	DB	'&', 00H, '&', 00H, ' ', 00H, 'i', 00H, ' ', 00H, '<', 00H, ' '
	DB	00H, 't', 00H, 'h', 00H, 'i', 00H, 's', 00H, '-', 00H, '>', 00H
	DB	'l', 00H, 'e', 00H, 'n', 00H, 'g', 00H, 't', 00H, 'h', 00H, '('
	DB	00H, ')', 00H, 00H, 00H			; `string'
CONST	ENDS
;	COMDAT ??_C@_1LG@FPDAFGJN@?$AAC?$AA?3?$AA?2?$AAU?$AAs?$AAe?$AAr?$AAs?$AA?2?$AAk?$AAs?$AAa?$AAr?$AAt?$AA?2@
CONST	SEGMENT
??_C@_1LG@FPDAFGJN@?$AAC?$AA?3?$AA?2?$AAU?$AAs?$AAe?$AAr?$AAs?$AA?2?$AAk?$AAs?$AAa?$AAr?$AAt?$AA?2@ DB 'C'
	DB	00H, ':', 00H, '\', 00H, 'U', 00H, 's', 00H, 'e', 00H, 'r', 00H
	DB	's', 00H, '\', 00H, 'k', 00H, 's', 00H, 'a', 00H, 'r', 00H, 't'
	DB	00H, '\', 00H, 'O', 00H, 'n', 00H, 'e', 00H, 'D', 00H, 'r', 00H
	DB	'i', 00H, 'v', 00H, 'e', 00H, '\', 00H, 'D', 00H, 'e', 00H, 's'
	DB	00H, 'k', 00H, 't', 00H, 'o', 00H, 'p', 00H, '\', 00H, 'F', 00H
	DB	'l', 00H, 'a', 00H, 'p', 00H, 'p', 00H, 'y', 00H, 'B', 00H, 'i'
	DB	00H, 'r', 00H, 'd', 00H, '\', 00H, 'l', 00H, 'i', 00H, 'b', 00H
	DB	'r', 00H, 'a', 00H, 'r', 00H, 'i', 00H, 'e', 00H, 's', 00H, '\'
	DB	00H, 'e', 00H, 'x', 00H, 't', 00H, 'e', 00H, 'r', 00H, 'n', 00H
	DB	'a', 00H, 'l', 00H, '\', 00H, 'g', 00H, 'l', 00H, 'm', 00H, '\'
	DB	00H, 'g', 00H, 'l', 00H, 'm', 00H, '\', 00H, 'd', 00H, 'e', 00H
	DB	't', 00H, 'a', 00H, 'i', 00H, 'l', 00H, '\', 00H, 't', 00H, 'y'
	DB	00H, 'p', 00H, 'e', 00H, '_', 00H, 'v', 00H, 'e', 00H, 'c', 00H
	DB	'2', 00H, '.', 00H, 'i', 00H, 'n', 00H, 'l', 00H, 00H, 00H ; `string'
CONST	ENDS
;	COMDAT xdata
xdata	SEGMENT
$unwind$??$?XM@?$tvec4@M$0A@@glm@@QEAAAEAU01@AEBU01@@Z DD 031001H
	DD	0700c8210H
	DD	0600bH
xdata	ENDS
;	COMDAT xdata
xdata	SEGMENT
$unwind$?call@?$compute_abs_vector@M$0A@Utvec2@glm@@$0A@@detail@glm@@SA?AU?$tvec2@M$0A@@3@AEBU43@@Z DD 020f01H
	DD	0700b320fH
xdata	ENDS
;	COMDAT xdata
xdata	SEGMENT
$unwind$??$?DM$0A@@glm@@YA?AU?$tvec2@M$0A@@0@AEBU10@0@Z DD 021401H
	DD	070103214H
xdata	ENDS
;	COMDAT xdata
xdata	SEGMENT
$unwind$??$?DM$0A@@glm@@YA?AU?$tvec3@M$0A@@0@AEBU10@0@Z DD 021401H
	DD	070105214H
xdata	ENDS
;	COMDAT xdata
xdata	SEGMENT
$unwind$??$?DM$0A@@glm@@YA?AU?$tvec4@M$0A@@0@AEBU10@0@Z DD 031501H
	DD	070116215H
	DD	06010H
xdata	ENDS
;	COMDAT xdata
xdata	SEGMENT
$unwind$?call@?$compute_mix@M_N@detail@glm@@SAMAEBM0AEB_N@Z DD 021401H
	DD	070103214H
xdata	ENDS
;	COMDAT xdata
xdata	SEGMENT
$unwind$?call@?$compute_cross@M$0A@$0A@@detail@glm@@SA?AU?$tvec3@M$0A@@3@AEBU43@0@Z DD 021401H
	DD	070105214H
xdata	ENDS
;	COMDAT xdata
xdata	SEGMENT
$unwind$??$lessThan@M$0A@Utvec2@glm@@@glm@@YA?AU?$tvec2@_N$0A@@0@AEBU?$tvec2@M$0A@@0@0@Z DD 022a01H
	DD	070109214H
xdata	ENDS
;	COMDAT CONST
CONST	SEGMENT
??$lessThan@M$0A@Utvec2@glm@@@glm@@YA?AU?$tvec2@_N$0A@@0@AEBU?$tvec2@M$0A@@0@0@Z$rtcName$0 DB 052H ; glm::lessThan<float,0,glm::tvec2>
	DB	065H
	DB	073H
	DB	075H
	DB	06cH
	DB	074H
	DB	00H
	ORG $+9
??$lessThan@M$0A@Utvec2@glm@@@glm@@YA?AU?$tvec2@_N$0A@@0@AEBU?$tvec2@M$0A@@0@0@Z$rtcVarDesc DD 024H ; glm::lessThan<float,0,glm::tvec2>
	DD	02H
	DQ	FLAT:??$lessThan@M$0A@Utvec2@glm@@@glm@@YA?AU?$tvec2@_N$0A@@0@AEBU?$tvec2@M$0A@@0@0@Z$rtcName$0
	ORG $+48
??$lessThan@M$0A@Utvec2@glm@@@glm@@YA?AU?$tvec2@_N$0A@@0@AEBU?$tvec2@M$0A@@0@0@Z$rtcFrameData DD 01H ; glm::lessThan<float,0,glm::tvec2>
	DD	00H
	DQ	FLAT:??$lessThan@M$0A@Utvec2@glm@@@glm@@YA?AU?$tvec2@_N$0A@@0@AEBU?$tvec2@M$0A@@0@0@Z$rtcVarDesc
CONST	ENDS
;	COMDAT xdata
xdata	SEGMENT
$unwind$??$abs@M$0A@Utvec2@glm@@@glm@@YA?AU?$tvec2@M$0A@@0@AEBU10@@Z DD 020f01H
	DD	0700b320fH
xdata	ENDS
;	COMDAT xdata
xdata	SEGMENT
$unwind$??$?GM$0A@@glm@@YA?AU?$tvec2@M$0A@@0@AEBU10@0@Z DD 021401H
	DD	070103214H
xdata	ENDS
;	COMDAT xdata
xdata	SEGMENT
$unwind$?call@?$compute_dot@Utvec4@glm@@M$0A@$0A@@detail@glm@@SAMAEBU?$tvec4@M$0A@@3@0@Z DD 022501H
	DD	0700bb20fH
xdata	ENDS
;	COMDAT CONST
CONST	SEGMENT
?call@?$compute_dot@Utvec4@glm@@M$0A@$0A@@detail@glm@@SAMAEBU?$tvec4@M$0A@@3@0@Z$rtcName$0 DB 074H ; glm::detail::compute_dot<glm::tvec4,float,0,0>::call
	DB	06dH
	DB	070H
	DB	00H
	ORG $+12
?call@?$compute_dot@Utvec4@glm@@M$0A@$0A@@detail@glm@@SAMAEBU?$tvec4@M$0A@@3@0@Z$rtcVarDesc DD 038H ; glm::detail::compute_dot<glm::tvec4,float,0,0>::call
	DD	010H
	DQ	FLAT:?call@?$compute_dot@Utvec4@glm@@M$0A@$0A@@detail@glm@@SAMAEBU?$tvec4@M$0A@@3@0@Z$rtcName$0
	ORG $+48
?call@?$compute_dot@Utvec4@glm@@M$0A@$0A@@detail@glm@@SAMAEBU?$tvec4@M$0A@@3@0@Z$rtcFrameData DD 01H ; glm::detail::compute_dot<glm::tvec4,float,0,0>::call
	DD	00H
	DQ	FLAT:?call@?$compute_dot@Utvec4@glm@@M$0A@$0A@@detail@glm@@SAMAEBU?$tvec4@M$0A@@3@0@Z$rtcVarDesc
CONST	ENDS
;	COMDAT xdata
xdata	SEGMENT
$unwind$?call@?$compute_dot@Utvec3@glm@@M$0A@$0A@@detail@glm@@SAMAEBU?$tvec3@M$0A@@3@0@Z DD 022501H
	DD	0700bb20fH
xdata	ENDS
;	COMDAT CONST
CONST	SEGMENT
?call@?$compute_dot@Utvec3@glm@@M$0A@$0A@@detail@glm@@SAMAEBU?$tvec3@M$0A@@3@0@Z$rtcName$0 DB 074H ; glm::detail::compute_dot<glm::tvec3,float,0,0>::call
	DB	06dH
	DB	070H
	DB	00H
	ORG $+12
?call@?$compute_dot@Utvec3@glm@@M$0A@$0A@@detail@glm@@SAMAEBU?$tvec3@M$0A@@3@0@Z$rtcVarDesc DD 038H ; glm::detail::compute_dot<glm::tvec3,float,0,0>::call
	DD	0cH
	DQ	FLAT:?call@?$compute_dot@Utvec3@glm@@M$0A@$0A@@detail@glm@@SAMAEBU?$tvec3@M$0A@@3@0@Z$rtcName$0
	ORG $+48
?call@?$compute_dot@Utvec3@glm@@M$0A@$0A@@detail@glm@@SAMAEBU?$tvec3@M$0A@@3@0@Z$rtcFrameData DD 01H ; glm::detail::compute_dot<glm::tvec3,float,0,0>::call
	DD	00H
	DQ	FLAT:?call@?$compute_dot@Utvec3@glm@@M$0A@$0A@@detail@glm@@SAMAEBU?$tvec3@M$0A@@3@0@Z$rtcVarDesc
CONST	ENDS
;	COMDAT xdata
xdata	SEGMENT
$unwind$??$min@M@glm@@YAMMM@Z DD 021101H
	DD	0700d3211H
xdata	ENDS
;	COMDAT xdata
xdata	SEGMENT
$unwind$??$max@M@glm@@YAMMM@Z DD 021101H
	DD	0700d3211H
xdata	ENDS
;	COMDAT xdata
xdata	SEGMENT
$unwind$?call@?$compute_dot@Utvec2@glm@@M$0A@$0A@@detail@glm@@SAMAEBU?$tvec2@M$0A@@3@0@Z DD 022501H
	DD	0700b920fH
xdata	ENDS
;	COMDAT CONST
CONST	SEGMENT
?call@?$compute_dot@Utvec2@glm@@M$0A@$0A@@detail@glm@@SAMAEBU?$tvec2@M$0A@@3@0@Z$rtcName$0 DB 074H ; glm::detail::compute_dot<glm::tvec2,float,0,0>::call
	DB	06dH
	DB	070H
	DB	00H
	ORG $+12
?call@?$compute_dot@Utvec2@glm@@M$0A@$0A@@detail@glm@@SAMAEBU?$tvec2@M$0A@@3@0@Z$rtcVarDesc DD 038H ; glm::detail::compute_dot<glm::tvec2,float,0,0>::call
	DD	08H
	DQ	FLAT:?call@?$compute_dot@Utvec2@glm@@M$0A@$0A@@detail@glm@@SAMAEBU?$tvec2@M$0A@@3@0@Z$rtcName$0
	ORG $+48
?call@?$compute_dot@Utvec2@glm@@M$0A@$0A@@detail@glm@@SAMAEBU?$tvec2@M$0A@@3@0@Z$rtcFrameData DD 01H ; glm::detail::compute_dot<glm::tvec2,float,0,0>::call
	DD	00H
	DQ	FLAT:?call@?$compute_dot@Utvec2@glm@@M$0A@$0A@@detail@glm@@SAMAEBU?$tvec2@M$0A@@3@0@Z$rtcVarDesc
CONST	ENDS
;	COMDAT xdata
xdata	SEGMENT
$unwind$?call@?$compute_vec4_mul@M$0A@$0A@@detail@glm@@SA?AU?$tvec4@M$0A@@3@AEBU43@0@Z DD 021401H
	DD	070107214H
xdata	ENDS
;	COMDAT xdata
xdata	SEGMENT
$unwind$?call@?$functor1@MM$0A@Utvec2@glm@@@detail@glm@@SA?AU?$tvec2@M$0A@@3@P6AMM@ZAEBU43@@Z DD 021401H
	DD	070105214H
xdata	ENDS
;	COMDAT xdata
xdata	SEGMENT
$unwind$??$?DM$0A@@glm@@YA?AU?$tvec3@M$0A@@0@AEBU10@M@Z DD 021501H
	DD	070115215H
xdata	ENDS
;	COMDAT xdata
xdata	SEGMENT
$unwind$??$inversesqrt@M@glm@@YAMM@Z DD 020b01H
	DD	07007520bH
xdata	ENDS
;	COMDAT xdata
xdata	SEGMENT
$unwind$??$mix@M_N@glm@@YAMMM_N@Z DD 021601H
	DD	070125216H
xdata	ENDS
;	COMDAT xdata
xdata	SEGMENT
$unwind$??$cross@M$0A@@glm@@YA?AU?$tvec3@M$0A@@0@AEBU10@0@Z DD 021401H
	DD	070103214H
xdata	ENDS
;	COMDAT xdata
xdata	SEGMENT
$unwind$??$all@$0A@Utvec2@glm@@@glm@@YA_NAEBU?$tvec2@_N$0A@@0@@Z DD 020a01H
	DD	07006520aH
xdata	ENDS
;	COMDAT xdata
xdata	SEGMENT
$unwind$??0?$tvec2@_N$0A@@glm@@QEAA@W4ctor@1@@Z DD 010a01H
	DD	0700aH
xdata	ENDS
;	COMDAT xdata
xdata	SEGMENT
$unwind$??A?$tvec2@_N$0A@@glm@@QEBAAEB_NH@Z DD 020e01H
	DD	0700a320eH
xdata	ENDS
;	COMDAT xdata
xdata	SEGMENT
$unwind$??A?$tvec2@_N$0A@@glm@@QEAAAEA_NH@Z DD 020e01H
	DD	0700a320eH
xdata	ENDS
;	COMDAT xdata
xdata	SEGMENT
$unwind$?length@?$tvec2@_N$0A@@glm@@SAHXZ DD 010201H
	DD	07002H
xdata	ENDS
;	COMDAT xdata
xdata	SEGMENT
$unwind$??$epsilonEqual@M$0A@Utvec2@glm@@@glm@@YA?AU?$tvec2@_N$0A@@0@AEBU?$tvec2@M$0A@@0@0AEBM@Z DD 021901H
	DD	070157219H
xdata	ENDS
;	COMDAT xdata
xdata	SEGMENT
$unwind$??$rotate@M$0A@@glm@@YA?AU?$tvec2@M$0A@@0@AEBU10@AEBM@Z DD 022a01H
	DD	070107214H
xdata	ENDS
;	COMDAT CONST
CONST	SEGMENT
??$rotate@M$0A@@glm@@YA?AU?$tvec2@M$0A@@0@AEBU10@AEBM@Z$rtcName$0 DB 052H ; glm::rotate<float,0>
	DB	065H
	DB	073H
	DB	075H
	DB	06cH
	DB	074H
	DB	00H
	ORG $+9
??$rotate@M$0A@@glm@@YA?AU?$tvec2@M$0A@@0@AEBU10@AEBM@Z$rtcVarDesc DD 028H ; glm::rotate<float,0>
	DD	08H
	DQ	FLAT:??$rotate@M$0A@@glm@@YA?AU?$tvec2@M$0A@@0@AEBU10@AEBM@Z$rtcName$0
	ORG $+48
??$rotate@M$0A@@glm@@YA?AU?$tvec2@M$0A@@0@AEBU10@AEBM@Z$rtcFrameData DD 01H ; glm::rotate<float,0>
	DD	00H
	DQ	FLAT:??$rotate@M$0A@@glm@@YA?AU?$tvec2@M$0A@@0@AEBU10@AEBM@Z$rtcVarDesc
CONST	ENDS
;	COMDAT xdata
xdata	SEGMENT
$unwind$??$dot@M$0A@Utvec4@glm@@@glm@@YAMAEBU?$tvec4@M$0A@@0@0@Z DD 020f01H
	DD	0700b520fH
xdata	ENDS
;	COMDAT xdata
xdata	SEGMENT
$unwind$?call@?$compute_normalize@M$0A@Utvec4@glm@@$0A@@detail@glm@@SA?AU?$tvec4@M$0A@@3@AEBU43@@Z DD 020f01H
	DD	0700b320fH
xdata	ENDS
;	COMDAT xdata
xdata	SEGMENT
$unwind$??$dot@M$0A@Utvec3@glm@@@glm@@YAMAEBU?$tvec3@M$0A@@0@0@Z DD 020f01H
	DD	0700b520fH
xdata	ENDS
;	COMDAT xdata
xdata	SEGMENT
$unwind$?call@?$compute_normalize@M$0A@Utvec3@glm@@$0A@@detail@glm@@SA?AU?$tvec3@M$0A@@3@AEBU43@@Z DD 020f01H
	DD	0700b320fH
xdata	ENDS
;	COMDAT xdata
xdata	SEGMENT
$unwind$??$clamp@M@glm@@YAMMMM@Z DD 021701H
	DD	070135217H
xdata	ENDS
;	COMDAT xdata
xdata	SEGMENT
$unwind$??$dot@M$0A@Utvec2@glm@@@glm@@YAMAEBU?$tvec2@M$0A@@0@0@Z DD 020f01H
	DD	0700b520fH
xdata	ENDS
;	COMDAT xdata
xdata	SEGMENT
$unwind$?call@?$compute_normalize@M$0A@Utvec2@glm@@$0A@@detail@glm@@SA?AU?$tvec2@M$0A@@3@AEBU43@@Z DD 020f01H
	DD	0700b320fH
xdata	ENDS
;	COMDAT xdata
xdata	SEGMENT
$unwind$?call@?$compute_abs@M$00@detail@glm@@SAMM@Z DD 020b01H
	DD	07007320bH
xdata	ENDS
;	COMDAT xdata
xdata	SEGMENT
$unwind$??$?XM@?$tvec4@M$0A@@glm@@QEAAAEAU01@M@Z DD 031101H
	DD	0700d8211H
	DD	0600cH
xdata	ENDS
;	COMDAT xdata
xdata	SEGMENT
$unwind$??$orientedAngle@M$0A@@glm@@YAMAEBU?$tvec3@M$0A@@0@00@Z DD 021401H
	DD	070109214H
xdata	ENDS
;	COMDAT xdata
xdata	SEGMENT
$unwind$??$orientedAngle@M$0A@@glm@@YAMAEBU?$tvec2@M$0A@@0@0@Z DD 022501H
	DD	0700bb20fH
xdata	ENDS
;	COMDAT CONST
CONST	SEGMENT
??$orientedAngle@M$0A@@glm@@YAMAEBU?$tvec2@M$0A@@0@0@Z$rtcName$0 DB 041H ; glm::orientedAngle<float,0>
	DB	06eH
	DB	067H
	DB	06cH
	DB	065H
	DB	00H
	ORG $+10
??$orientedAngle@M$0A@@glm@@YAMAEBU?$tvec2@M$0A@@0@0@Z$rtcVarDesc DD 034H ; glm::orientedAngle<float,0>
	DD	04H
	DQ	FLAT:??$orientedAngle@M$0A@@glm@@YAMAEBU?$tvec2@M$0A@@0@0@Z$rtcName$0
	ORG $+48
??$orientedAngle@M$0A@@glm@@YAMAEBU?$tvec2@M$0A@@0@0@Z$rtcFrameData DD 01H ; glm::orientedAngle<float,0>
	DD	00H
	DQ	FLAT:??$orientedAngle@M$0A@@glm@@YAMAEBU?$tvec2@M$0A@@0@0@Z$rtcVarDesc
CONST	ENDS
;	COMDAT xdata
xdata	SEGMENT
$unwind$??$angle@M$0A@Utvec4@glm@@@glm@@YAMAEBU?$tvec4@M$0A@@0@0@Z DD 020f01H
	DD	0700b520fH
xdata	ENDS
;	COMDAT xdata
xdata	SEGMENT
$unwind$??$normalize@M$0A@Utvec4@glm@@@glm@@YA?AU?$tvec4@M$0A@@0@AEBU10@@Z DD 020f01H
	DD	0700b320fH
xdata	ENDS
;	COMDAT xdata
xdata	SEGMENT
$unwind$??$?0HHHH@?$tvec4@M$0A@@glm@@QEAA@HHHH@Z DD 011401H
	DD	07014H
xdata	ENDS
;	COMDAT xdata
xdata	SEGMENT
$unwind$??$angle@M$0A@Utvec3@glm@@@glm@@YAMAEBU?$tvec3@M$0A@@0@0@Z DD 020f01H
	DD	0700b520fH
xdata	ENDS
;	COMDAT xdata
xdata	SEGMENT
$unwind$??$normalize@M$0A@Utvec3@glm@@@glm@@YA?AU?$tvec3@M$0A@@0@AEBU10@@Z DD 020f01H
	DD	0700b320fH
xdata	ENDS
;	COMDAT xdata
xdata	SEGMENT
$unwind$??$?0HHH@?$tvec3@M$0A@@glm@@QEAA@HHH@Z DD 011401H
	DD	07014H
xdata	ENDS
;	COMDAT xdata
xdata	SEGMENT
$unwind$??0?$tvec3@M$0A@@glm@@QEAA@MMM@Z DD 011801H
	DD	07018H
xdata	ENDS
;	COMDAT xdata
xdata	SEGMENT
$unwind$??$pi@M@glm@@YAMXZ DD 020601H
	DD	070021206H
xdata	ENDS
;	COMDAT xdata
xdata	SEGMENT
$unwind$??$angle@M$0A@Utvec2@glm@@@glm@@YAMAEBU?$tvec2@M$0A@@0@0@Z DD 020f01H
	DD	0700b520fH
xdata	ENDS
;	COMDAT xdata
xdata	SEGMENT
$unwind$??$normalize@M$0A@Utvec2@glm@@@glm@@YA?AU?$tvec2@M$0A@@0@AEBU10@@Z DD 020f01H
	DD	0700b320fH
xdata	ENDS
;	COMDAT xdata
xdata	SEGMENT
$unwind$??$?0HH@?$tvec2@M$0A@@glm@@QEAA@HH@Z DD 010f01H
	DD	0700fH
xdata	ENDS
xdata	SEGMENT
$unwind$?test_angle@@YAHXZ DD 031a01H
	DD	02a0109H
	DD	07002H
$unwind$?test_orientedAngle_vec2@@YAHXZ DD 030901H
	DD	0160109H
	DD	07002H
$unwind$?test_orientedAngle_vec3@@YAHXZ DD 030901H
	DD	0220109H
	DD	07002H
$unwind$main DD	020601H
	DD	070025206H
xdata	ENDS
CONST	SEGMENT
?test_angle@@YAHXZ$rtcName$0 DB 041H			; test_angle
	DB	06eH
	DB	067H
	DB	06cH
	DB	065H
	DB	041H
	DB	00H
	ORG $+1
?test_angle@@YAHXZ$rtcName$1 DB 041H			; test_angle
	DB	06eH
	DB	067H
	DB	06cH
	DB	065H
	DB	042H
	DB	00H
	ORG $+1
?test_angle@@YAHXZ$rtcName$2 DB 041H			; test_angle
	DB	06eH
	DB	067H
	DB	06cH
	DB	065H
	DB	043H
	DB	00H
	ORG $+1
?test_angle@@YAHXZ$rtcFrameData DD 03H			; test_angle
	DD	00H
	DQ	FLAT:?test_angle@@YAHXZ$rtcVarDesc
	ORG $+8
?test_angle@@YAHXZ$rtcVarDesc DD 084H			; test_angle
	DD	04H
	DQ	FLAT:?test_angle@@YAHXZ$rtcName$2
	DD	064H
	DD	04H
	DQ	FLAT:?test_angle@@YAHXZ$rtcName$1
	DD	044H
	DD	04H
	DQ	FLAT:?test_angle@@YAHXZ$rtcName$0
CONST	ENDS
;	COMDAT xdata
xdata	SEGMENT
$unwind$??$abs@M@glm@@YAMM@Z DD 020b01H
	DD	07007520bH
xdata	ENDS
;	COMDAT xdata
xdata	SEGMENT
$unwind$??$epsilonEqual@M@glm@@YA_NAEBM00@Z DD 021401H
	DD	070105214H
xdata	ENDS
;	COMDAT xdata
xdata	SEGMENT
$unwind$??$?DM$0A@@glm@@YA?AU?$tvec4@M$0A@@0@AEBU10@M@Z DD 031601H
	DD	070126216H
	DD	06011H
xdata	ENDS
;	COMDAT xdata
xdata	SEGMENT
$unwind$??0?$tvec4@M$0A@@glm@@QEAA@MMMM@Z DD 011801H
	DD	07018H
xdata	ENDS
;	COMDAT xdata
xdata	SEGMENT
$unwind$??0?$tvec4@M$0A@@glm@@QEAA@M@Z DD 010c01H
	DD	0700cH
xdata	ENDS
;	COMDAT xdata
xdata	SEGMENT
$unwind$??$?DM$0A@@glm@@YA?AU?$tvec2@M$0A@@0@AEBU10@M@Z DD 021501H
	DD	070113215H
xdata	ENDS
;	COMDAT xdata
xdata	SEGMENT
$unwind$??0?$tvec2@M$0A@@glm@@QEAA@MM@Z DD 011201H
	DD	07012H
xdata	ENDS
;	COMDAT xdata
xdata	SEGMENT
$unwind$??0?$tvec2@M$0A@@glm@@QEAA@M@Z DD 010c01H
	DD	0700cH
xdata	ENDS
;	COMDAT xdata
xdata	SEGMENT
$unwind$??0?$tvec2@M$0A@@glm@@QEAA@XZ DD 010601H
	DD	07006H
xdata	ENDS
;	COMDAT xdata
xdata	SEGMENT
$unwind$??A?$tvec2@M$0A@@glm@@QEBAAEBMH@Z DD 020e01H
	DD	0700a320eH
xdata	ENDS
;	COMDAT xdata
xdata	SEGMENT
$unwind$?length@?$tvec2@M$0A@@glm@@SAHXZ DD 010201H
	DD	07002H
xdata	ENDS
;	COMDAT xdata
xdata	SEGMENT
$unwind$?sqrt@@YAMM@Z DD 020b01H
	DD	07007520bH
xdata	ENDS
;	COMDAT xdata
xdata	SEGMENT
$unwind$?sin@@YAMM@Z DD 020b01H
	DD	07007520bH
xdata	ENDS
;	COMDAT xdata
xdata	SEGMENT
$unwind$?cos@@YAMM@Z DD 020b01H
	DD	07007520bH
xdata	ENDS
;	COMDAT xdata
xdata	SEGMENT
$unwind$?acos@@YAMM@Z DD 020b01H
	DD	07007520bH
xdata	ENDS
; Function compile flags: /Odtp /RTCsu
; File C:\Users\ksart\OneDrive\Desktop\FlappyBird\libraries\external\glm\glm\detail\type_vec4.inl
;	COMDAT ??$?XM@?$tvec4@M$0A@@glm@@QEAAAEAU01@AEBU01@@Z
_TEXT	SEGMENT
$T1 = 32
$T2 = 48
this$ = 96
v$ = 104
??$?XM@?$tvec4@M$0A@@glm@@QEAAAEAU01@AEBU01@@Z PROC	; glm::tvec4<float,0>::operator*=<float>, COMDAT

; 425  : 	{

$LN3:
	mov	QWORD PTR [rsp+16], rdx
	mov	QWORD PTR [rsp+8], rcx
	push	rsi
	push	rdi
	sub	rsp, 72					; 00000048H

; 426  : 		return (*this = detail::compute_vec4_mul<T, P, detail::is_aligned<P>::value>::call(*this, tvec4<T, P>(v)));

	lea	rax, QWORD PTR $T1[rsp]
	mov	rdi, rax
	mov	rsi, QWORD PTR v$[rsp]
	mov	ecx, 16
	rep movsb
	lea	r8, QWORD PTR $T1[rsp]
	mov	rdx, QWORD PTR this$[rsp]
	lea	rcx, QWORD PTR $T2[rsp]
	call	?call@?$compute_vec4_mul@M$0A@$0A@@detail@glm@@SA?AU?$tvec4@M$0A@@3@AEBU43@0@Z ; glm::detail::compute_vec4_mul<float,0,0>::call
	mov	rdi, QWORD PTR this$[rsp]
	mov	rsi, rax
	mov	ecx, 16
	rep movsb
	mov	rax, QWORD PTR this$[rsp]

; 427  : 	}

	add	rsp, 72					; 00000048H
	pop	rdi
	pop	rsi
	ret	0
??$?XM@?$tvec4@M$0A@@glm@@QEAAAEAU01@AEBU01@@Z ENDP	; glm::tvec4<float,0>::operator*=<float>
_TEXT	ENDS
; Function compile flags: /Odtp /RTCsu
; File C:\Users\ksart\OneDrive\Desktop\FlappyBird\libraries\external\glm\glm\detail\func_common.inl
;	COMDAT ?call@?$compute_abs_vector@M$0A@Utvec2@glm@@$0A@@detail@glm@@SA?AU?$tvec2@M$0A@@3@AEBU43@@Z
_TEXT	SEGMENT
__$ReturnUdt$ = 48
x$ = 56
?call@?$compute_abs_vector@M$0A@Utvec2@glm@@$0A@@detail@glm@@SA?AU?$tvec2@M$0A@@3@AEBU43@@Z PROC ; glm::detail::compute_abs_vector<float,0,glm::tvec2,0>::call, COMDAT

; 114  : 		{

$LN3:
	mov	QWORD PTR [rsp+16], rdx
	mov	QWORD PTR [rsp+8], rcx
	push	rdi
	sub	rsp, 32					; 00000020H

; 115  : 			return detail::functor1<T, T, P, vecType>::call(abs, x);

	mov	r8, QWORD PTR x$[rsp]
	lea	rdx, OFFSET FLAT:??$abs@M@glm@@YAMM@Z	; glm::abs<float>
	mov	rcx, QWORD PTR __$ReturnUdt$[rsp]
	call	?call@?$functor1@MM$0A@Utvec2@glm@@@detail@glm@@SA?AU?$tvec2@M$0A@@3@P6AMM@ZAEBU43@@Z ; glm::detail::functor1<float,float,0,glm::tvec2>::call
	mov	rax, QWORD PTR __$ReturnUdt$[rsp]

; 116  : 		}

	add	rsp, 32					; 00000020H
	pop	rdi
	ret	0
?call@?$compute_abs_vector@M$0A@Utvec2@glm@@$0A@@detail@glm@@SA?AU?$tvec2@M$0A@@3@AEBU43@@Z ENDP ; glm::detail::compute_abs_vector<float,0,glm::tvec2,0>::call
_TEXT	ENDS
; Function compile flags: /Odtp /RTCsu
; File C:\Users\ksart\OneDrive\Desktop\FlappyBird\libraries\external\glm\glm\detail\type_vec2.inl
;	COMDAT ??$?DM$0A@@glm@@YA?AU?$tvec2@M$0A@@0@AEBU10@0@Z
_TEXT	SEGMENT
__$ReturnUdt$ = 48
v1$ = 56
v2$ = 64
??$?DM$0A@@glm@@YA?AU?$tvec2@M$0A@@0@AEBU10@0@Z PROC	; glm::operator*<float,0>, COMDAT

; 573  : 	{

$LN3:
	mov	QWORD PTR [rsp+24], r8
	mov	QWORD PTR [rsp+16], rdx
	mov	QWORD PTR [rsp+8], rcx
	push	rdi
	sub	rsp, 32					; 00000020H

; 574  : 		return tvec2<T, P>(

	mov	rax, QWORD PTR v1$[rsp]
	mov	rcx, QWORD PTR v2$[rsp]
	movss	xmm0, DWORD PTR [rax+4]
	mulss	xmm0, DWORD PTR [rcx+4]
	mov	rax, QWORD PTR v1$[rsp]
	mov	rcx, QWORD PTR v2$[rsp]
	movss	xmm1, DWORD PTR [rax]
	mulss	xmm1, DWORD PTR [rcx]
	movaps	xmm2, xmm0
	mov	rcx, QWORD PTR __$ReturnUdt$[rsp]
	call	??0?$tvec2@M$0A@@glm@@QEAA@MM@Z		; glm::tvec2<float,0>::tvec2<float,0>
	mov	rax, QWORD PTR __$ReturnUdt$[rsp]

; 575  : 			v1.x * v2.x,
; 576  : 			v1.y * v2.y);
; 577  : 	}

	add	rsp, 32					; 00000020H
	pop	rdi
	ret	0
??$?DM$0A@@glm@@YA?AU?$tvec2@M$0A@@0@AEBU10@0@Z ENDP	; glm::operator*<float,0>
_TEXT	ENDS
; Function compile flags: /Odtp /RTCsu
; File C:\Users\ksart\OneDrive\Desktop\FlappyBird\libraries\external\glm\glm\detail\type_vec3.inl
;	COMDAT ??$?DM$0A@@glm@@YA?AU?$tvec3@M$0A@@0@AEBU10@0@Z
_TEXT	SEGMENT
tv76 = 32
__$ReturnUdt$ = 64
v1$ = 72
v2$ = 80
??$?DM$0A@@glm@@YA?AU?$tvec3@M$0A@@0@AEBU10@0@Z PROC	; glm::operator*<float,0>, COMDAT

; 664  : 	{

$LN3:
	mov	QWORD PTR [rsp+24], r8
	mov	QWORD PTR [rsp+16], rdx
	mov	QWORD PTR [rsp+8], rcx
	push	rdi
	sub	rsp, 48					; 00000030H

; 665  : 		return tvec3<T, P>(

	mov	rax, QWORD PTR v1$[rsp]
	mov	rcx, QWORD PTR v2$[rsp]
	movss	xmm0, DWORD PTR [rax+8]
	mulss	xmm0, DWORD PTR [rcx+8]
	mov	rax, QWORD PTR v1$[rsp]
	mov	rcx, QWORD PTR v2$[rsp]
	movss	xmm1, DWORD PTR [rax+4]
	mulss	xmm1, DWORD PTR [rcx+4]
	mov	rax, QWORD PTR v1$[rsp]
	mov	rcx, QWORD PTR v2$[rsp]
	movss	xmm2, DWORD PTR [rax]
	mulss	xmm2, DWORD PTR [rcx]
	movss	DWORD PTR tv76[rsp], xmm2
	movaps	xmm3, xmm0
	movaps	xmm2, xmm1
	movss	xmm0, DWORD PTR tv76[rsp]
	movaps	xmm1, xmm0
	mov	rcx, QWORD PTR __$ReturnUdt$[rsp]
	call	??0?$tvec3@M$0A@@glm@@QEAA@MMM@Z	; glm::tvec3<float,0>::tvec3<float,0>
	mov	rax, QWORD PTR __$ReturnUdt$[rsp]

; 666  : 			v1.x * v2.x,
; 667  : 			v1.y * v2.y,
; 668  : 			v1.z * v2.z);
; 669  : 	}

	add	rsp, 48					; 00000030H
	pop	rdi
	ret	0
??$?DM$0A@@glm@@YA?AU?$tvec3@M$0A@@0@AEBU10@0@Z ENDP	; glm::operator*<float,0>
_TEXT	ENDS
; Function compile flags: /Odtp /RTCsu
; File C:\Users\ksart\OneDrive\Desktop\FlappyBird\libraries\external\glm\glm\detail\type_vec4.inl
;	COMDAT ??$?DM$0A@@glm@@YA?AU?$tvec4@M$0A@@0@AEBU10@0@Z
_TEXT	SEGMENT
$T1 = 32
__$ReturnUdt$ = 80
v1$ = 88
v2$ = 96
??$?DM$0A@@glm@@YA?AU?$tvec4@M$0A@@0@AEBU10@0@Z PROC	; glm::operator*<float,0>, COMDAT

; 718  : 	{

$LN3:
	mov	QWORD PTR [rsp+24], r8
	mov	QWORD PTR [rsp+16], rdx
	mov	QWORD PTR [rsp+8], rcx
	push	rsi
	push	rdi
	sub	rsp, 56					; 00000038H

; 719  : 		return tvec4<T, P>(v1) *= v2;

	lea	rax, QWORD PTR $T1[rsp]
	mov	rdi, rax
	mov	rsi, QWORD PTR v1$[rsp]
	mov	ecx, 16
	rep movsb
	mov	rdx, QWORD PTR v2$[rsp]
	lea	rcx, QWORD PTR $T1[rsp]
	call	??$?XM@?$tvec4@M$0A@@glm@@QEAAAEAU01@AEBU01@@Z ; glm::tvec4<float,0>::operator*=<float>
	mov	rdi, QWORD PTR __$ReturnUdt$[rsp]
	mov	rsi, rax
	mov	ecx, 16
	rep movsb
	mov	rax, QWORD PTR __$ReturnUdt$[rsp]

; 720  : 	}

	add	rsp, 56					; 00000038H
	pop	rdi
	pop	rsi
	ret	0
??$?DM$0A@@glm@@YA?AU?$tvec4@M$0A@@0@AEBU10@0@Z ENDP	; glm::operator*<float,0>
_TEXT	ENDS
; Function compile flags: /Odtp /RTCsu
; File C:\Users\ksart\OneDrive\Desktop\FlappyBird\libraries\external\glm\glm\detail\func_common.inl
;	COMDAT ?call@?$compute_mix@M_N@detail@glm@@SAMAEBM0AEB_N@Z
_TEXT	SEGMENT
tv66 = 16
x$ = 48
y$ = 56
a$ = 64
?call@?$compute_mix@M_N@detail@glm@@SAMAEBM0AEB_N@Z PROC ; glm::detail::compute_mix<float,bool>::call, COMDAT

; 177  : 		{

$LN5:
	mov	QWORD PTR [rsp+24], r8
	mov	QWORD PTR [rsp+16], rdx
	mov	QWORD PTR [rsp+8], rcx
	push	rdi
	sub	rsp, 32					; 00000020H

; 178  : 			return a ? y : x;

	mov	rax, QWORD PTR a$[rsp]
	movzx	eax, BYTE PTR [rax]
	test	eax, eax
	je	SHORT $LN3@call
	mov	rax, QWORD PTR y$[rsp]
	movss	xmm0, DWORD PTR [rax]
	movss	DWORD PTR tv66[rsp], xmm0
	jmp	SHORT $LN4@call
$LN3@call:
	mov	rax, QWORD PTR x$[rsp]
	movss	xmm0, DWORD PTR [rax]
	movss	DWORD PTR tv66[rsp], xmm0
$LN4@call:
	movss	xmm0, DWORD PTR tv66[rsp]

; 179  : 		}

	add	rsp, 32					; 00000020H
	pop	rdi
	ret	0
?call@?$compute_mix@M_N@detail@glm@@SAMAEBM0AEB_N@Z ENDP ; glm::detail::compute_mix<float,bool>::call
_TEXT	ENDS
; Function compile flags: /Odtp /RTCsu
; File C:\Users\ksart\OneDrive\Desktop\FlappyBird\libraries\external\glm\glm\detail\func_geometric.inl
;	COMDAT ?call@?$compute_cross@M$0A@$0A@@detail@glm@@SA?AU?$tvec3@M$0A@@3@AEBU43@0@Z
_TEXT	SEGMENT
tv88 = 32
__$ReturnUdt$ = 64
x$ = 72
y$ = 80
?call@?$compute_cross@M$0A@$0A@@detail@glm@@SA?AU?$tvec3@M$0A@@3@AEBU43@0@Z PROC ; glm::detail::compute_cross<float,0,0>::call, COMDAT

; 77   : 		{

$LN3:
	mov	QWORD PTR [rsp+24], r8
	mov	QWORD PTR [rsp+16], rdx
	mov	QWORD PTR [rsp+8], rcx
	push	rdi
	sub	rsp, 48					; 00000030H

; 78   : 			GLM_STATIC_ASSERT(std::numeric_limits<T>::is_iec559, "'cross' accepts only floating-point inputs");
; 79   : 
; 80   : 			return tvec3<T, P>(

	mov	rax, QWORD PTR x$[rsp]
	mov	rcx, QWORD PTR y$[rsp]
	movss	xmm0, DWORD PTR [rax]
	mulss	xmm0, DWORD PTR [rcx+4]
	mov	rax, QWORD PTR y$[rsp]
	mov	rcx, QWORD PTR x$[rsp]
	movss	xmm1, DWORD PTR [rax]
	mulss	xmm1, DWORD PTR [rcx+4]
	subss	xmm0, xmm1
	mov	rax, QWORD PTR x$[rsp]
	mov	rcx, QWORD PTR y$[rsp]
	movss	xmm1, DWORD PTR [rax+8]
	mulss	xmm1, DWORD PTR [rcx]
	mov	rax, QWORD PTR y$[rsp]
	mov	rcx, QWORD PTR x$[rsp]
	movss	xmm2, DWORD PTR [rax+8]
	mulss	xmm2, DWORD PTR [rcx]
	subss	xmm1, xmm2
	mov	rax, QWORD PTR x$[rsp]
	mov	rcx, QWORD PTR y$[rsp]
	movss	xmm2, DWORD PTR [rax+4]
	mulss	xmm2, DWORD PTR [rcx+8]
	mov	rax, QWORD PTR y$[rsp]
	mov	rcx, QWORD PTR x$[rsp]
	movss	xmm3, DWORD PTR [rax+4]
	mulss	xmm3, DWORD PTR [rcx+8]
	subss	xmm2, xmm3
	movss	DWORD PTR tv88[rsp], xmm2
	movaps	xmm3, xmm0
	movaps	xmm2, xmm1
	movss	xmm0, DWORD PTR tv88[rsp]
	movaps	xmm1, xmm0
	mov	rcx, QWORD PTR __$ReturnUdt$[rsp]
	call	??0?$tvec3@M$0A@@glm@@QEAA@MMM@Z	; glm::tvec3<float,0>::tvec3<float,0>
	mov	rax, QWORD PTR __$ReturnUdt$[rsp]

; 81   : 				x.y * y.z - y.y * x.z,
; 82   : 				x.z * y.x - y.z * x.x,
; 83   : 				x.x * y.y - y.x * x.y);
; 84   : 		}

	add	rsp, 48					; 00000030H
	pop	rdi
	ret	0
?call@?$compute_cross@M$0A@$0A@@detail@glm@@SA?AU?$tvec3@M$0A@@3@AEBU43@0@Z ENDP ; glm::detail::compute_cross<float,0,0>::call
_TEXT	ENDS
; Function compile flags: /Odtp /RTCsu
; File C:\Users\ksart\OneDrive\Desktop\FlappyBird\libraries\external\glm\glm\detail\func_vector_relational.inl
;	COMDAT ??$lessThan@M$0A@Utvec2@glm@@@glm@@YA?AU?$tvec2@_N$0A@@0@AEBU?$tvec2@M$0A@@0@0@Z
_TEXT	SEGMENT
Result$ = 36
i$4 = 52
tv64 = 56
tv80 = 64
tv86 = 72
__$ReturnUdt$ = 96
x$ = 104
y$ = 112
??$lessThan@M$0A@Utvec2@glm@@@glm@@YA?AU?$tvec2@_N$0A@@0@AEBU?$tvec2@M$0A@@0@0@Z PROC ; glm::lessThan<float,0,glm::tvec2>, COMDAT

; 10   : 	{

$LN9:
	mov	QWORD PTR [rsp+24], r8
	mov	QWORD PTR [rsp+16], rdx
	mov	QWORD PTR [rsp+8], rcx
	push	rdi
	sub	rsp, 80					; 00000050H
	lea	rdi, QWORD PTR [rsp+32]
	mov	ecx, 12
	mov	eax, -858993460				; ccccccccH
	rep stosd
	mov	rcx, QWORD PTR [rsp+96]

; 11   : 		assert(x.length() == y.length());

	call	?length@?$tvec2@M$0A@@glm@@SAHXZ	; glm::tvec2<float,0>::length
	mov	DWORD PTR tv64[rsp], eax
	call	?length@?$tvec2@M$0A@@glm@@SAHXZ	; glm::tvec2<float,0>::length
	mov	ecx, DWORD PTR tv64[rsp]
	cmp	ecx, eax
	je	SHORT $LN6@lessThan
	mov	r8d, 11
	lea	rdx, OFFSET FLAT:??_C@_1NA@OPABFNEN@?$AAC?$AA?3?$AA?2?$AAU?$AAs?$AAe?$AAr?$AAs?$AA?2?$AAk?$AAs?$AAa?$AAr?$AAt?$AA?2@
	lea	rcx, OFFSET FLAT:??_C@_1DC@HHLCGOLC@?$AAx?$AA?4?$AAl?$AAe?$AAn?$AAg?$AAt?$AAh?$AA?$CI?$AA?$CJ?$AA?5?$AA?$DN?$AA?$DN?$AA?5?$AAy@
	call	QWORD PTR __imp__wassert
	xor	eax, eax
$LN6@lessThan:

; 12   : 
; 13   : 		vecType<bool, P> Result(uninitialize);

	xor	edx, edx
	lea	rcx, QWORD PTR Result$[rsp]
	call	??0?$tvec2@_N$0A@@glm@@QEAA@W4ctor@1@@Z	; glm::tvec2<bool,0>::tvec2<bool,0>

; 14   : 		for(length_t i = 0; i < x.length(); ++i)

	mov	DWORD PTR i$4[rsp], 0
	jmp	SHORT $LN4@lessThan
$LN2@lessThan:
	mov	eax, DWORD PTR i$4[rsp]
	inc	eax
	mov	DWORD PTR i$4[rsp], eax
$LN4@lessThan:
	call	?length@?$tvec2@M$0A@@glm@@SAHXZ	; glm::tvec2<float,0>::length
	cmp	DWORD PTR i$4[rsp], eax
	jge	SHORT $LN3@lessThan

; 15   : 			Result[i] = x[i] < y[i];

	mov	edx, DWORD PTR i$4[rsp]
	mov	rcx, QWORD PTR x$[rsp]
	call	??A?$tvec2@M$0A@@glm@@QEBAAEBMH@Z	; glm::tvec2<float,0>::operator[]
	mov	QWORD PTR tv80[rsp], rax
	mov	edx, DWORD PTR i$4[rsp]
	mov	rcx, QWORD PTR y$[rsp]
	call	??A?$tvec2@M$0A@@glm@@QEBAAEBMH@Z	; glm::tvec2<float,0>::operator[]
	movss	xmm0, DWORD PTR [rax]
	mov	rax, QWORD PTR tv80[rsp]
	comiss	xmm0, DWORD PTR [rax]
	jbe	SHORT $LN7@lessThan
	mov	DWORD PTR tv86[rsp], 1
	jmp	SHORT $LN8@lessThan
$LN7@lessThan:
	mov	DWORD PTR tv86[rsp], 0
$LN8@lessThan:
	mov	edx, DWORD PTR i$4[rsp]
	lea	rcx, QWORD PTR Result$[rsp]
	call	??A?$tvec2@_N$0A@@glm@@QEAAAEA_NH@Z	; glm::tvec2<bool,0>::operator[]
	movzx	ecx, BYTE PTR tv86[rsp]
	mov	BYTE PTR [rax], cl
	jmp	SHORT $LN2@lessThan
$LN3@lessThan:

; 16   : 
; 17   : 		return Result;

	mov	rax, QWORD PTR __$ReturnUdt$[rsp]
	movzx	ecx, WORD PTR Result$[rsp]
	mov	WORD PTR [rax], cx
	mov	rax, QWORD PTR __$ReturnUdt$[rsp]

; 18   : 	}

	mov	rdi, rax
	mov	rcx, rsp
	lea	rdx, OFFSET FLAT:??$lessThan@M$0A@Utvec2@glm@@@glm@@YA?AU?$tvec2@_N$0A@@0@AEBU?$tvec2@M$0A@@0@0@Z$rtcFrameData
	call	_RTC_CheckStackVars
	mov	rax, rdi
	add	rsp, 80					; 00000050H
	pop	rdi
	ret	0
??$lessThan@M$0A@Utvec2@glm@@@glm@@YA?AU?$tvec2@_N$0A@@0@AEBU?$tvec2@M$0A@@0@0@Z ENDP ; glm::lessThan<float,0,glm::tvec2>
_TEXT	ENDS
; Function compile flags: /Odtp /RTCsu
; File C:\Users\ksart\OneDrive\Desktop\FlappyBird\libraries\external\glm\glm\detail\func_common.inl
;	COMDAT ??$abs@M$0A@Utvec2@glm@@@glm@@YA?AU?$tvec2@M$0A@@0@AEBU10@@Z
_TEXT	SEGMENT
__$ReturnUdt$ = 48
x$ = 56
??$abs@M$0A@Utvec2@glm@@@glm@@YA?AU?$tvec2@M$0A@@0@AEBU10@@Z PROC ; glm::abs<float,0,glm::tvec2>, COMDAT

; 316  : 	{

$LN3:
	mov	QWORD PTR [rsp+16], rdx
	mov	QWORD PTR [rsp+8], rcx
	push	rdi
	sub	rsp, 32					; 00000020H

; 317  : 		return detail::compute_abs_vector<T, P, vecType, detail::is_aligned<P>::value>::call(x);

	mov	rdx, QWORD PTR x$[rsp]
	mov	rcx, QWORD PTR __$ReturnUdt$[rsp]
	call	?call@?$compute_abs_vector@M$0A@Utvec2@glm@@$0A@@detail@glm@@SA?AU?$tvec2@M$0A@@3@AEBU43@@Z ; glm::detail::compute_abs_vector<float,0,glm::tvec2,0>::call
	mov	rax, QWORD PTR __$ReturnUdt$[rsp]

; 318  : 	}

	add	rsp, 32					; 00000020H
	pop	rdi
	ret	0
??$abs@M$0A@Utvec2@glm@@@glm@@YA?AU?$tvec2@M$0A@@0@AEBU10@@Z ENDP ; glm::abs<float,0,glm::tvec2>
_TEXT	ENDS
; Function compile flags: /Odtp /RTCsu
; File C:\Users\ksart\OneDrive\Desktop\FlappyBird\libraries\external\glm\glm\detail\type_vec2.inl
;	COMDAT ??$?GM$0A@@glm@@YA?AU?$tvec2@M$0A@@0@AEBU10@0@Z
_TEXT	SEGMENT
__$ReturnUdt$ = 48
v1$ = 56
v2$ = 64
??$?GM$0A@@glm@@YA?AU?$tvec2@M$0A@@0@AEBU10@0@Z PROC	; glm::operator-<float,0>, COMDAT

; 533  : 	{

$LN3:
	mov	QWORD PTR [rsp+24], r8
	mov	QWORD PTR [rsp+16], rdx
	mov	QWORD PTR [rsp+8], rcx
	push	rdi
	sub	rsp, 32					; 00000020H

; 534  : 		return tvec2<T, P>(

	mov	rax, QWORD PTR v1$[rsp]
	mov	rcx, QWORD PTR v2$[rsp]
	movss	xmm0, DWORD PTR [rax+4]
	subss	xmm0, DWORD PTR [rcx+4]
	mov	rax, QWORD PTR v1$[rsp]
	mov	rcx, QWORD PTR v2$[rsp]
	movss	xmm1, DWORD PTR [rax]
	subss	xmm1, DWORD PTR [rcx]
	movaps	xmm2, xmm0
	mov	rcx, QWORD PTR __$ReturnUdt$[rsp]
	call	??0?$tvec2@M$0A@@glm@@QEAA@MM@Z		; glm::tvec2<float,0>::tvec2<float,0>
	mov	rax, QWORD PTR __$ReturnUdt$[rsp]

; 535  : 			v1.x - v2.x,
; 536  : 			v1.y - v2.y);
; 537  : 	}

	add	rsp, 32					; 00000020H
	pop	rdi
	ret	0
??$?GM$0A@@glm@@YA?AU?$tvec2@M$0A@@0@AEBU10@0@Z ENDP	; glm::operator-<float,0>
_TEXT	ENDS
; Function compile flags: /Odtp /RTCsu
; File C:\Users\ksart\OneDrive\Desktop\FlappyBird\libraries\external\glm\glm\detail\func_geometric.inl
;	COMDAT ?call@?$compute_dot@Utvec4@glm@@M$0A@$0A@@detail@glm@@SAMAEBU?$tvec4@M$0A@@3@0@Z
_TEXT	SEGMENT
tmp$ = 56
x$ = 112
y$ = 120
?call@?$compute_dot@Utvec4@glm@@M$0A@$0A@@detail@glm@@SAMAEBU?$tvec4@M$0A@@3@0@Z PROC ; glm::detail::compute_dot<glm::tvec4,float,0,0>::call, COMDAT

; 67   : 		{

$LN3:
	mov	QWORD PTR [rsp+16], rdx
	mov	QWORD PTR [rsp+8], rcx
	push	rdi
	sub	rsp, 96					; 00000060H
	lea	rdi, QWORD PTR [rsp+48]
	mov	ecx, 12
	mov	eax, -858993460				; ccccccccH
	rep stosd
	mov	rcx, QWORD PTR [rsp+112]

; 68   : 			tvec4<T, P> tmp(x * y);

	mov	r8, QWORD PTR y$[rsp]
	mov	rdx, QWORD PTR x$[rsp]
	lea	rcx, QWORD PTR tmp$[rsp]
	call	??$?DM$0A@@glm@@YA?AU?$tvec4@M$0A@@0@AEBU10@0@Z ; glm::operator*<float,0>

; 69   : 			return (tmp.x + tmp.y) + (tmp.z + tmp.w);

	movss	xmm0, DWORD PTR tmp$[rsp]
	addss	xmm0, DWORD PTR tmp$[rsp+4]
	movss	xmm1, DWORD PTR tmp$[rsp+8]
	addss	xmm1, DWORD PTR tmp$[rsp+12]
	addss	xmm0, xmm1

; 70   : 		}

	movdqu	XMMWORD PTR [rsp+32], xmm0
	mov	rcx, rsp
	lea	rdx, OFFSET FLAT:?call@?$compute_dot@Utvec4@glm@@M$0A@$0A@@detail@glm@@SAMAEBU?$tvec4@M$0A@@3@0@Z$rtcFrameData
	call	_RTC_CheckStackVars
	movdqu	xmm0, XMMWORD PTR [rsp+32]
	add	rsp, 96					; 00000060H
	pop	rdi
	ret	0
?call@?$compute_dot@Utvec4@glm@@M$0A@$0A@@detail@glm@@SAMAEBU?$tvec4@M$0A@@3@0@Z ENDP ; glm::detail::compute_dot<glm::tvec4,float,0,0>::call
_TEXT	ENDS
; Function compile flags: /Odtp /RTCsu
; File C:\Users\ksart\OneDrive\Desktop\FlappyBird\libraries\external\glm\glm\detail\func_geometric.inl
;	COMDAT ?call@?$compute_dot@Utvec3@glm@@M$0A@$0A@@detail@glm@@SAMAEBU?$tvec3@M$0A@@3@0@Z
_TEXT	SEGMENT
tmp$ = 56
x$ = 112
y$ = 120
?call@?$compute_dot@Utvec3@glm@@M$0A@$0A@@detail@glm@@SAMAEBU?$tvec3@M$0A@@3@0@Z PROC ; glm::detail::compute_dot<glm::tvec3,float,0,0>::call, COMDAT

; 57   : 		{

$LN3:
	mov	QWORD PTR [rsp+16], rdx
	mov	QWORD PTR [rsp+8], rcx
	push	rdi
	sub	rsp, 96					; 00000060H
	lea	rdi, QWORD PTR [rsp+48]
	mov	ecx, 12
	mov	eax, -858993460				; ccccccccH
	rep stosd
	mov	rcx, QWORD PTR [rsp+112]

; 58   : 			tvec3<T, P> tmp(x * y);

	mov	r8, QWORD PTR y$[rsp]
	mov	rdx, QWORD PTR x$[rsp]
	lea	rcx, QWORD PTR tmp$[rsp]
	call	??$?DM$0A@@glm@@YA?AU?$tvec3@M$0A@@0@AEBU10@0@Z ; glm::operator*<float,0>

; 59   : 			return tmp.x + tmp.y + tmp.z;

	movss	xmm0, DWORD PTR tmp$[rsp]
	addss	xmm0, DWORD PTR tmp$[rsp+4]
	addss	xmm0, DWORD PTR tmp$[rsp+8]

; 60   : 		}

	movdqu	XMMWORD PTR [rsp+32], xmm0
	mov	rcx, rsp
	lea	rdx, OFFSET FLAT:?call@?$compute_dot@Utvec3@glm@@M$0A@$0A@@detail@glm@@SAMAEBU?$tvec3@M$0A@@3@0@Z$rtcFrameData
	call	_RTC_CheckStackVars
	movdqu	xmm0, XMMWORD PTR [rsp+32]
	add	rsp, 96					; 00000060H
	pop	rdi
	ret	0
?call@?$compute_dot@Utvec3@glm@@M$0A@$0A@@detail@glm@@SAMAEBU?$tvec3@M$0A@@3@0@Z ENDP ; glm::detail::compute_dot<glm::tvec3,float,0,0>::call
_TEXT	ENDS
; Function compile flags: /Odtp /RTCsu
; File C:\Users\ksart\OneDrive\Desktop\FlappyBird\libraries\external\glm\glm\detail\func_common.inl
;	COMDAT ??$min@M@glm@@YAMMM@Z
_TEXT	SEGMENT
tv65 = 16
x$ = 48
y$ = 56
??$min@M@glm@@YAMMM@Z PROC				; glm::min<float>, COMDAT

; 16   : 	{

$LN5:
	movss	DWORD PTR [rsp+16], xmm1
	movss	DWORD PTR [rsp+8], xmm0
	push	rdi
	sub	rsp, 32					; 00000020H

; 17   : 		GLM_STATIC_ASSERT(std::numeric_limits<genType>::is_iec559 || std::numeric_limits<genType>::is_integer || GLM_UNRESTRICTED_GENTYPE, "'min' only accept floating-point or integer inputs");
; 18   : 		return x < y ? x : y;

	movss	xmm0, DWORD PTR y$[rsp]
	comiss	xmm0, DWORD PTR x$[rsp]
	jbe	SHORT $LN3@min
	movss	xmm0, DWORD PTR x$[rsp]
	movss	DWORD PTR tv65[rsp], xmm0
	jmp	SHORT $LN4@min
$LN3@min:
	movss	xmm0, DWORD PTR y$[rsp]
	movss	DWORD PTR tv65[rsp], xmm0
$LN4@min:
	movss	xmm0, DWORD PTR tv65[rsp]

; 19   : 	}

	add	rsp, 32					; 00000020H
	pop	rdi
	ret	0
??$min@M@glm@@YAMMM@Z ENDP				; glm::min<float>
_TEXT	ENDS
; Function compile flags: /Odtp /RTCsu
; File C:\Users\ksart\OneDrive\Desktop\FlappyBird\libraries\external\glm\glm\detail\func_common.inl
;	COMDAT ??$max@M@glm@@YAMMM@Z
_TEXT	SEGMENT
tv65 = 16
x$ = 48
y$ = 56
??$max@M@glm@@YAMMM@Z PROC				; glm::max<float>, COMDAT

; 24   : 	{

$LN5:
	movss	DWORD PTR [rsp+16], xmm1
	movss	DWORD PTR [rsp+8], xmm0
	push	rdi
	sub	rsp, 32					; 00000020H

; 25   : 		GLM_STATIC_ASSERT(std::numeric_limits<genType>::is_iec559 || std::numeric_limits<genType>::is_integer || GLM_UNRESTRICTED_GENTYPE, "'max' only accept floating-point or integer inputs");
; 26   : 
; 27   : 		return x > y ? x : y;

	movss	xmm0, DWORD PTR x$[rsp]
	comiss	xmm0, DWORD PTR y$[rsp]
	jbe	SHORT $LN3@max
	movss	xmm0, DWORD PTR x$[rsp]
	movss	DWORD PTR tv65[rsp], xmm0
	jmp	SHORT $LN4@max
$LN3@max:
	movss	xmm0, DWORD PTR y$[rsp]
	movss	DWORD PTR tv65[rsp], xmm0
$LN4@max:
	movss	xmm0, DWORD PTR tv65[rsp]

; 28   : 	}

	add	rsp, 32					; 00000020H
	pop	rdi
	ret	0
??$max@M@glm@@YAMMM@Z ENDP				; glm::max<float>
_TEXT	ENDS
; Function compile flags: /Odtp /RTCsu
; File C:\Users\ksart\OneDrive\Desktop\FlappyBird\libraries\external\glm\glm\detail\func_geometric.inl
;	COMDAT ?call@?$compute_dot@Utvec2@glm@@M$0A@$0A@@detail@glm@@SAMAEBU?$tvec2@M$0A@@3@0@Z
_TEXT	SEGMENT
tmp$ = 56
x$ = 96
y$ = 104
?call@?$compute_dot@Utvec2@glm@@M$0A@$0A@@detail@glm@@SAMAEBU?$tvec2@M$0A@@3@0@Z PROC ; glm::detail::compute_dot<glm::tvec2,float,0,0>::call, COMDAT

; 47   : 		{

$LN3:
	mov	QWORD PTR [rsp+16], rdx
	mov	QWORD PTR [rsp+8], rcx
	push	rdi
	sub	rsp, 80					; 00000050H
	lea	rdi, QWORD PTR [rsp+48]
	mov	ecx, 8
	mov	eax, -858993460				; ccccccccH
	rep stosd
	mov	rcx, QWORD PTR [rsp+96]

; 48   : 			tvec2<T, P> tmp(x * y);

	mov	r8, QWORD PTR y$[rsp]
	mov	rdx, QWORD PTR x$[rsp]
	lea	rcx, QWORD PTR tmp$[rsp]
	call	??$?DM$0A@@glm@@YA?AU?$tvec2@M$0A@@0@AEBU10@0@Z ; glm::operator*<float,0>

; 49   : 			return tmp.x + tmp.y;

	movss	xmm0, DWORD PTR tmp$[rsp]
	addss	xmm0, DWORD PTR tmp$[rsp+4]

; 50   : 		}

	movdqu	XMMWORD PTR [rsp+32], xmm0
	mov	rcx, rsp
	lea	rdx, OFFSET FLAT:?call@?$compute_dot@Utvec2@glm@@M$0A@$0A@@detail@glm@@SAMAEBU?$tvec2@M$0A@@3@0@Z$rtcFrameData
	call	_RTC_CheckStackVars
	movdqu	xmm0, XMMWORD PTR [rsp+32]
	add	rsp, 80					; 00000050H
	pop	rdi
	ret	0
?call@?$compute_dot@Utvec2@glm@@M$0A@$0A@@detail@glm@@SAMAEBU?$tvec2@M$0A@@3@0@Z ENDP ; glm::detail::compute_dot<glm::tvec2,float,0,0>::call
_TEXT	ENDS
; Function compile flags: /Odtp /RTCsu
; File C:\Users\ksart\OneDrive\Desktop\FlappyBird\libraries\external\glm\glm\detail\type_vec4.inl
;	COMDAT ?call@?$compute_vec4_mul@M$0A@$0A@@detail@glm@@SA?AU?$tvec4@M$0A@@3@AEBU43@0@Z
_TEXT	SEGMENT
tv80 = 48
__$ReturnUdt$ = 80
a$ = 88
b$ = 96
?call@?$compute_vec4_mul@M$0A@$0A@@detail@glm@@SA?AU?$tvec4@M$0A@@3@AEBU43@0@Z PROC ; glm::detail::compute_vec4_mul<float,0,0>::call, COMDAT

; 59   : 		{

$LN3:
	mov	QWORD PTR [rsp+24], r8
	mov	QWORD PTR [rsp+16], rdx
	mov	QWORD PTR [rsp+8], rcx
	push	rdi
	sub	rsp, 64					; 00000040H

; 60   : 			return tvec4<T, P>(a.x * b.x, a.y * b.y, a.z * b.z, a.w * b.w);

	mov	rax, QWORD PTR a$[rsp]
	mov	rcx, QWORD PTR b$[rsp]
	movss	xmm0, DWORD PTR [rax+12]
	mulss	xmm0, DWORD PTR [rcx+12]
	mov	rax, QWORD PTR a$[rsp]
	mov	rcx, QWORD PTR b$[rsp]
	movss	xmm1, DWORD PTR [rax+8]
	mulss	xmm1, DWORD PTR [rcx+8]
	mov	rax, QWORD PTR a$[rsp]
	mov	rcx, QWORD PTR b$[rsp]
	movss	xmm2, DWORD PTR [rax+4]
	mulss	xmm2, DWORD PTR [rcx+4]
	mov	rax, QWORD PTR a$[rsp]
	mov	rcx, QWORD PTR b$[rsp]
	movss	xmm3, DWORD PTR [rax]
	mulss	xmm3, DWORD PTR [rcx]
	movss	DWORD PTR tv80[rsp], xmm3
	movss	DWORD PTR [rsp+32], xmm0
	movaps	xmm3, xmm1
	movss	xmm0, DWORD PTR tv80[rsp]
	movaps	xmm1, xmm0
	mov	rcx, QWORD PTR __$ReturnUdt$[rsp]
	call	??0?$tvec4@M$0A@@glm@@QEAA@MMMM@Z	; glm::tvec4<float,0>::tvec4<float,0>
	mov	rax, QWORD PTR __$ReturnUdt$[rsp]

; 61   : 		}

	add	rsp, 64					; 00000040H
	pop	rdi
	ret	0
?call@?$compute_vec4_mul@M$0A@$0A@@detail@glm@@SA?AU?$tvec4@M$0A@@3@AEBU43@0@Z ENDP ; glm::detail::compute_vec4_mul<float,0,0>::call
_TEXT	ENDS
; Function compile flags: /Odtp /RTCsu
; File C:\Users\ksart\OneDrive\Desktop\FlappyBird\libraries\external\glm\glm\detail\_vectorize.hpp
;	COMDAT ?call@?$functor1@MM$0A@Utvec2@glm@@@detail@glm@@SA?AU?$tvec2@M$0A@@3@P6AMM@ZAEBU43@@Z
_TEXT	SEGMENT
tv66 = 32
__$ReturnUdt$ = 64
Func$ = 72
v$ = 80
?call@?$functor1@MM$0A@Utvec2@glm@@@detail@glm@@SA?AU?$tvec2@M$0A@@3@P6AMM@ZAEBU43@@Z PROC ; glm::detail::functor1<float,float,0,glm::tvec2>::call, COMDAT

; 30   : 		{

$LN3:
	mov	QWORD PTR [rsp+24], r8
	mov	QWORD PTR [rsp+16], rdx
	mov	QWORD PTR [rsp+8], rcx
	push	rdi
	sub	rsp, 48					; 00000030H

; 31   : 			return tvec2<R, P>(Func(v.x), Func(v.y));

	mov	rax, QWORD PTR v$[rsp]
	movss	xmm0, DWORD PTR [rax+4]
	call	QWORD PTR Func$[rsp]
	movss	DWORD PTR tv66[rsp], xmm0
	mov	rax, QWORD PTR v$[rsp]
	movss	xmm0, DWORD PTR [rax]
	call	QWORD PTR Func$[rsp]
	movss	xmm1, DWORD PTR tv66[rsp]
	movaps	xmm2, xmm1
	movaps	xmm1, xmm0
	mov	rcx, QWORD PTR __$ReturnUdt$[rsp]
	call	??0?$tvec2@M$0A@@glm@@QEAA@MM@Z		; glm::tvec2<float,0>::tvec2<float,0>
	mov	rax, QWORD PTR __$ReturnUdt$[rsp]

; 32   : 		}

	add	rsp, 48					; 00000030H
	pop	rdi
	ret	0
?call@?$functor1@MM$0A@Utvec2@glm@@@detail@glm@@SA?AU?$tvec2@M$0A@@3@P6AMM@ZAEBU43@@Z ENDP ; glm::detail::functor1<float,float,0,glm::tvec2>::call
_TEXT	ENDS
; Function compile flags: /Odtp /RTCsu
; File C:\Users\ksart\OneDrive\Desktop\FlappyBird\libraries\external\glm\glm\detail\type_vec3.inl
;	COMDAT ??$?DM$0A@@glm@@YA?AU?$tvec3@M$0A@@0@AEBU10@M@Z
_TEXT	SEGMENT
tv73 = 32
__$ReturnUdt$ = 64
v$ = 72
scalar$ = 80
??$?DM$0A@@glm@@YA?AU?$tvec3@M$0A@@0@AEBU10@M@Z PROC	; glm::operator*<float,0>, COMDAT

; 628  : 	{

$LN3:
	movss	DWORD PTR [rsp+24], xmm2
	mov	QWORD PTR [rsp+16], rdx
	mov	QWORD PTR [rsp+8], rcx
	push	rdi
	sub	rsp, 48					; 00000030H

; 629  : 		return tvec3<T, P>(

	mov	rax, QWORD PTR v$[rsp]
	movss	xmm0, DWORD PTR [rax+8]
	mulss	xmm0, DWORD PTR scalar$[rsp]
	mov	rax, QWORD PTR v$[rsp]
	movss	xmm1, DWORD PTR [rax+4]
	mulss	xmm1, DWORD PTR scalar$[rsp]
	mov	rax, QWORD PTR v$[rsp]
	movss	xmm2, DWORD PTR [rax]
	mulss	xmm2, DWORD PTR scalar$[rsp]
	movss	DWORD PTR tv73[rsp], xmm2
	movaps	xmm3, xmm0
	movaps	xmm2, xmm1
	movss	xmm0, DWORD PTR tv73[rsp]
	movaps	xmm1, xmm0
	mov	rcx, QWORD PTR __$ReturnUdt$[rsp]
	call	??0?$tvec3@M$0A@@glm@@QEAA@MMM@Z	; glm::tvec3<float,0>::tvec3<float,0>
	mov	rax, QWORD PTR __$ReturnUdt$[rsp]

; 630  : 			v.x * scalar,
; 631  : 			v.y * scalar,
; 632  : 			v.z * scalar);
; 633  : 	}

	add	rsp, 48					; 00000030H
	pop	rdi
	ret	0
??$?DM$0A@@glm@@YA?AU?$tvec3@M$0A@@0@AEBU10@M@Z ENDP	; glm::operator*<float,0>
_TEXT	ENDS
; Function compile flags: /Odtp /RTCsu
; File C:\Users\ksart\OneDrive\Desktop\FlappyBird\libraries\external\glm\glm\detail\func_exponential.inl
;	COMDAT ??$inversesqrt@M@glm@@YAMM@Z
_TEXT	SEGMENT
x$ = 64
??$inversesqrt@M@glm@@YAMM@Z PROC			; glm::inversesqrt<float>, COMDAT

; 131  : 	{

$LN3:
	movss	DWORD PTR [rsp+8], xmm0
	push	rdi
	sub	rsp, 48					; 00000030H

; 132  : 		return static_cast<genType>(1) / sqrt(x);

	movss	xmm0, DWORD PTR x$[rsp]
	call	?sqrt@@YAMM@Z				; sqrt
	movss	xmm1, DWORD PTR __real@3f800000
	divss	xmm1, xmm0
	movaps	xmm0, xmm1

; 133  : 	}

	add	rsp, 48					; 00000030H
	pop	rdi
	ret	0
??$inversesqrt@M@glm@@YAMM@Z ENDP			; glm::inversesqrt<float>
_TEXT	ENDS
; Function compile flags: /Odtp /RTCsu
; File C:\Users\ksart\OneDrive\Desktop\FlappyBird\libraries\external\glm\glm\detail\func_common.inl
;	COMDAT ??$mix@M_N@glm@@YAMMM_N@Z
_TEXT	SEGMENT
x$ = 64
y$ = 72
a$ = 80
??$mix@M_N@glm@@YAMMM_N@Z PROC				; glm::mix<float,bool>, COMDAT

; 565  : 	{

$LN3:
	mov	BYTE PTR [rsp+24], r8b
	movss	DWORD PTR [rsp+16], xmm1
	movss	DWORD PTR [rsp+8], xmm0
	push	rdi
	sub	rsp, 48					; 00000030H

; 566  : 		return detail::compute_mix<genTypeT, genTypeU>::call(x, y, a);

	lea	r8, QWORD PTR a$[rsp]
	lea	rdx, QWORD PTR y$[rsp]
	lea	rcx, QWORD PTR x$[rsp]
	call	?call@?$compute_mix@M_N@detail@glm@@SAMAEBM0AEB_N@Z ; glm::detail::compute_mix<float,bool>::call

; 567  : 	}

	add	rsp, 48					; 00000030H
	pop	rdi
	ret	0
??$mix@M_N@glm@@YAMMM_N@Z ENDP				; glm::mix<float,bool>
_TEXT	ENDS
; Function compile flags: /Odtp /RTCsu
; File C:\Users\ksart\OneDrive\Desktop\FlappyBird\libraries\external\glm\glm\detail\func_geometric.inl
;	COMDAT ??$cross@M$0A@@glm@@YA?AU?$tvec3@M$0A@@0@AEBU10@0@Z
_TEXT	SEGMENT
__$ReturnUdt$ = 48
x$ = 56
y$ = 64
??$cross@M$0A@@glm@@YA?AU?$tvec3@M$0A@@0@AEBU10@0@Z PROC ; glm::cross<float,0>, COMDAT

; 180  : 	{

$LN3:
	mov	QWORD PTR [rsp+24], r8
	mov	QWORD PTR [rsp+16], rdx
	mov	QWORD PTR [rsp+8], rcx
	push	rdi
	sub	rsp, 32					; 00000020H

; 181  : 		return detail::compute_cross<T, P, detail::is_aligned<P>::value>::call(x, y);

	mov	r8, QWORD PTR y$[rsp]
	mov	rdx, QWORD PTR x$[rsp]
	mov	rcx, QWORD PTR __$ReturnUdt$[rsp]
	call	?call@?$compute_cross@M$0A@$0A@@detail@glm@@SA?AU?$tvec3@M$0A@@3@AEBU43@0@Z ; glm::detail::compute_cross<float,0,0>::call
	mov	rax, QWORD PTR __$ReturnUdt$[rsp]

; 182  : 	}

	add	rsp, 32					; 00000020H
	pop	rdi
	ret	0
??$cross@M$0A@@glm@@YA?AU?$tvec3@M$0A@@0@AEBU10@0@Z ENDP ; glm::cross<float,0>
_TEXT	ENDS
; Function compile flags: /Odtp /RTCsu
; File C:\Users\ksart\OneDrive\Desktop\FlappyBird\libraries\external\glm\glm\detail\func_vector_relational.inl
;	COMDAT ??$all@$0A@Utvec2@glm@@@glm@@YA_NAEBU?$tvec2@_N$0A@@0@@Z
_TEXT	SEGMENT
Result$ = 32
i$1 = 36
tv74 = 40
v$ = 64
??$all@$0A@Utvec2@glm@@@glm@@YA_NAEBU?$tvec2@_N$0A@@0@@Z PROC ; glm::all<0,glm::tvec2>, COMDAT

; 86   : 	{

$LN8:
	mov	QWORD PTR [rsp+8], rcx
	push	rdi
	sub	rsp, 48					; 00000030H

; 87   : 		bool Result = true;

	mov	BYTE PTR Result$[rsp], 1

; 88   : 		for(length_t i = 0; i < v.length(); ++i)

	mov	DWORD PTR i$1[rsp], 0
	jmp	SHORT $LN4@all
$LN2@all:
	mov	eax, DWORD PTR i$1[rsp]
	inc	eax
	mov	DWORD PTR i$1[rsp], eax
$LN4@all:
	call	?length@?$tvec2@_N$0A@@glm@@SAHXZ	; glm::tvec2<bool,0>::length
	cmp	DWORD PTR i$1[rsp], eax
	jge	SHORT $LN3@all

; 89   : 			Result = Result && v[i];

	movzx	eax, BYTE PTR Result$[rsp]
	test	eax, eax
	je	SHORT $LN6@all
	mov	edx, DWORD PTR i$1[rsp]
	mov	rcx, QWORD PTR v$[rsp]
	call	??A?$tvec2@_N$0A@@glm@@QEBAAEB_NH@Z	; glm::tvec2<bool,0>::operator[]
	movzx	eax, BYTE PTR [rax]
	test	eax, eax
	je	SHORT $LN6@all
	mov	DWORD PTR tv74[rsp], 1
	jmp	SHORT $LN7@all
$LN6@all:
	mov	DWORD PTR tv74[rsp], 0
$LN7@all:
	movzx	eax, BYTE PTR tv74[rsp]
	mov	BYTE PTR Result$[rsp], al
	jmp	SHORT $LN2@all
$LN3@all:

; 90   : 		return Result;

	movzx	eax, BYTE PTR Result$[rsp]

; 91   : 	}

	add	rsp, 48					; 00000030H
	pop	rdi
	ret	0
??$all@$0A@Utvec2@glm@@@glm@@YA_NAEBU?$tvec2@_N$0A@@0@@Z ENDP ; glm::all<0,glm::tvec2>
_TEXT	ENDS
; Function compile flags: /Odtp /RTCsu
; File C:\Users\ksart\OneDrive\Desktop\FlappyBird\libraries\external\glm\glm\detail\type_vec2.inl
;	COMDAT ??0?$tvec2@_N$0A@@glm@@QEAA@W4ctor@1@@Z
_TEXT	SEGMENT
this$ = 16
__formal$ = 24
??0?$tvec2@_N$0A@@glm@@QEAA@W4ctor@1@@Z PROC		; glm::tvec2<bool,0>::tvec2<bool,0>, COMDAT

; 47   : 	{}

$LN3:
	mov	DWORD PTR [rsp+16], edx
	mov	QWORD PTR [rsp+8], rcx
	push	rdi
	mov	rax, QWORD PTR this$[rsp]
	pop	rdi
	ret	0
??0?$tvec2@_N$0A@@glm@@QEAA@W4ctor@1@@Z ENDP		; glm::tvec2<bool,0>::tvec2<bool,0>
_TEXT	ENDS
; Function compile flags: /Odtp /RTCsu
; File C:\Users\ksart\OneDrive\Desktop\FlappyBird\libraries\external\glm\glm\detail\type_vec2.inl
;	COMDAT ??A?$tvec2@_N$0A@@glm@@QEBAAEB_NH@Z
_TEXT	SEGMENT
this$ = 48
i$ = 56
??A?$tvec2@_N$0A@@glm@@QEBAAEB_NH@Z PROC		; glm::tvec2<bool,0>::operator[], COMDAT

; 109  : 	{

$LN5:
	mov	DWORD PTR [rsp+16], edx
	mov	QWORD PTR [rsp+8], rcx
	push	rdi
	sub	rsp, 32					; 00000020H

; 110  : 		assert(i >= 0 && i < this->length());

	cmp	DWORD PTR i$[rsp], 0
	jl	SHORT $LN3@operator
	call	?length@?$tvec2@_N$0A@@glm@@SAHXZ	; glm::tvec2<bool,0>::length
	cmp	DWORD PTR i$[rsp], eax
	jl	SHORT $LN4@operator
$LN3@operator:
	mov	r8d, 110				; 0000006eH
	lea	rdx, OFFSET FLAT:??_C@_1LG@FPDAFGJN@?$AAC?$AA?3?$AA?2?$AAU?$AAs?$AAe?$AAr?$AAs?$AA?2?$AAk?$AAs?$AAa?$AAr?$AAt?$AA?2@
	lea	rcx, OFFSET FLAT:??_C@_1DK@BGNCJAPL@?$AAi?$AA?5?$AA?$DO?$AA?$DN?$AA?5?$AA0?$AA?5?$AA?$CG?$AA?$CG?$AA?5?$AAi?$AA?5?$AA?$DM?$AA?5?$AAt@
	call	QWORD PTR __imp__wassert
	xor	eax, eax
$LN4@operator:

; 111  : 		return (&x)[i];

	movsxd	rax, DWORD PTR i$[rsp]
	mov	rcx, QWORD PTR this$[rsp]
	add	rcx, rax
	mov	rax, rcx

; 112  : 	}

	add	rsp, 32					; 00000020H
	pop	rdi
	ret	0
??A?$tvec2@_N$0A@@glm@@QEBAAEB_NH@Z ENDP		; glm::tvec2<bool,0>::operator[]
_TEXT	ENDS
; Function compile flags: /Odtp /RTCsu
; File C:\Users\ksart\OneDrive\Desktop\FlappyBird\libraries\external\glm\glm\detail\type_vec2.inl
;	COMDAT ??A?$tvec2@_N$0A@@glm@@QEAAAEA_NH@Z
_TEXT	SEGMENT
this$ = 48
i$ = 56
??A?$tvec2@_N$0A@@glm@@QEAAAEA_NH@Z PROC		; glm::tvec2<bool,0>::operator[], COMDAT

; 102  : 	{

$LN5:
	mov	DWORD PTR [rsp+16], edx
	mov	QWORD PTR [rsp+8], rcx
	push	rdi
	sub	rsp, 32					; 00000020H

; 103  : 		assert(i >= 0 && i < this->length());

	cmp	DWORD PTR i$[rsp], 0
	jl	SHORT $LN3@operator
	call	?length@?$tvec2@_N$0A@@glm@@SAHXZ	; glm::tvec2<bool,0>::length
	cmp	DWORD PTR i$[rsp], eax
	jl	SHORT $LN4@operator
$LN3@operator:
	mov	r8d, 103				; 00000067H
	lea	rdx, OFFSET FLAT:??_C@_1LG@FPDAFGJN@?$AAC?$AA?3?$AA?2?$AAU?$AAs?$AAe?$AAr?$AAs?$AA?2?$AAk?$AAs?$AAa?$AAr?$AAt?$AA?2@
	lea	rcx, OFFSET FLAT:??_C@_1DK@BGNCJAPL@?$AAi?$AA?5?$AA?$DO?$AA?$DN?$AA?5?$AA0?$AA?5?$AA?$CG?$AA?$CG?$AA?5?$AAi?$AA?5?$AA?$DM?$AA?5?$AAt@
	call	QWORD PTR __imp__wassert
	xor	eax, eax
$LN4@operator:

; 104  : 		return (&x)[i];

	movsxd	rax, DWORD PTR i$[rsp]
	mov	rcx, QWORD PTR this$[rsp]
	add	rcx, rax
	mov	rax, rcx

; 105  : 	}

	add	rsp, 32					; 00000020H
	pop	rdi
	ret	0
??A?$tvec2@_N$0A@@glm@@QEAAAEA_NH@Z ENDP		; glm::tvec2<bool,0>::operator[]
_TEXT	ENDS
; Function compile flags: /Odtp /RTCsu
; File C:\Users\ksart\OneDrive\Desktop\FlappyBird\libraries\external\glm\glm\detail\type_vec2.hpp
;	COMDAT ?length@?$tvec2@_N$0A@@glm@@SAHXZ
_TEXT	SEGMENT
?length@?$tvec2@_N$0A@@glm@@SAHXZ PROC			; glm::tvec2<bool,0>::length, COMDAT

; 82   : 		GLM_FUNC_DECL static length_type length(){return 2;}

$LN3:
	push	rdi
	mov	eax, 2
	pop	rdi
	ret	0
?length@?$tvec2@_N$0A@@glm@@SAHXZ ENDP			; glm::tvec2<bool,0>::length
_TEXT	ENDS
; Function compile flags: /Odtp /RTCsu
; File C:\Users\ksart\OneDrive\Desktop\FlappyBird\libraries\external\glm\glm\gtc\epsilon.inl
;	COMDAT ??$epsilonEqual@M$0A@Utvec2@glm@@@glm@@YA?AU?$tvec2@_N$0A@@0@AEBU?$tvec2@M$0A@@0@0AEBM@Z
_TEXT	SEGMENT
$T1 = 32
$T2 = 40
$T3 = 48
tv66 = 56
__$ReturnUdt$ = 80
x$ = 88
y$ = 96
epsilon$ = 104
??$epsilonEqual@M$0A@Utvec2@glm@@@glm@@YA?AU?$tvec2@_N$0A@@0@AEBU?$tvec2@M$0A@@0@0AEBM@Z PROC ; glm::epsilonEqual<float,0,glm::tvec2>, COMDAT

; 65   : 	{

$LN3:
	mov	QWORD PTR [rsp+32], r9
	mov	QWORD PTR [rsp+24], r8
	mov	QWORD PTR [rsp+16], rdx
	mov	QWORD PTR [rsp+8], rcx
	push	rdi
	sub	rsp, 64					; 00000040H

; 66   : 		return lessThan(abs(x - y), vecType<T, P>(epsilon));

	mov	rax, QWORD PTR epsilon$[rsp]
	movss	xmm1, DWORD PTR [rax]
	lea	rcx, QWORD PTR $T1[rsp]
	call	??0?$tvec2@M$0A@@glm@@QEAA@M@Z		; glm::tvec2<float,0>::tvec2<float,0>
	mov	QWORD PTR tv66[rsp], rax
	mov	r8, QWORD PTR y$[rsp]
	mov	rdx, QWORD PTR x$[rsp]
	lea	rcx, QWORD PTR $T2[rsp]
	call	??$?GM$0A@@glm@@YA?AU?$tvec2@M$0A@@0@AEBU10@0@Z ; glm::operator-<float,0>
	mov	rdx, rax
	lea	rcx, QWORD PTR $T3[rsp]
	call	??$abs@M$0A@Utvec2@glm@@@glm@@YA?AU?$tvec2@M$0A@@0@AEBU10@@Z ; glm::abs<float,0,glm::tvec2>
	mov	rcx, QWORD PTR tv66[rsp]
	mov	r8, rcx
	mov	rdx, rax
	mov	rcx, QWORD PTR __$ReturnUdt$[rsp]
	call	??$lessThan@M$0A@Utvec2@glm@@@glm@@YA?AU?$tvec2@_N$0A@@0@AEBU?$tvec2@M$0A@@0@0@Z ; glm::lessThan<float,0,glm::tvec2>
	mov	rax, QWORD PTR __$ReturnUdt$[rsp]

; 67   : 	}

	add	rsp, 64					; 00000040H
	pop	rdi
	ret	0
??$epsilonEqual@M$0A@Utvec2@glm@@@glm@@YA?AU?$tvec2@_N$0A@@0@AEBU?$tvec2@M$0A@@0@0AEBM@Z ENDP ; glm::epsilonEqual<float,0,glm::tvec2>
_TEXT	ENDS
; Function compile flags: /Odtp /RTCsu
; File C:\Users\ksart\OneDrive\Desktop\FlappyBird\libraries\external\glm\glm\gtx\rotate_vector.inl
;	COMDAT ??$rotate@M$0A@@glm@@YA?AU?$tvec2@M$0A@@0@AEBU10@AEBM@Z
_TEXT	SEGMENT
Result$ = 40
Cos$ = 52
Sin$ = 56
__$ReturnUdt$ = 80
v$ = 88
angle$ = 96
??$rotate@M$0A@@glm@@YA?AU?$tvec2@M$0A@@0@AEBU10@AEBM@Z PROC ; glm::rotate<float,0>, COMDAT

; 34   : 	{

$LN3:
	mov	QWORD PTR [rsp+24], r8
	mov	QWORD PTR [rsp+16], rdx
	mov	QWORD PTR [rsp+8], rcx
	push	rdi
	sub	rsp, 64					; 00000040H
	lea	rdi, QWORD PTR [rsp+32]
	mov	ecx, 8
	mov	eax, -858993460				; ccccccccH
	rep stosd
	mov	rcx, QWORD PTR [rsp+80]

; 35   : 		tvec2<T, P> Result;

	lea	rcx, QWORD PTR Result$[rsp]
	call	??0?$tvec2@M$0A@@glm@@QEAA@XZ		; glm::tvec2<float,0>::tvec2<float,0>

; 36   : 		T const Cos(cos(angle));

	mov	rax, QWORD PTR angle$[rsp]
	movss	xmm0, DWORD PTR [rax]
	call	?cos@@YAMM@Z				; cos
	movss	DWORD PTR Cos$[rsp], xmm0

; 37   : 		T const Sin(sin(angle));

	mov	rax, QWORD PTR angle$[rsp]
	movss	xmm0, DWORD PTR [rax]
	call	?sin@@YAMM@Z				; sin
	movss	DWORD PTR Sin$[rsp], xmm0

; 38   : 
; 39   : 		Result.x = v.x * Cos - v.y * Sin;

	mov	rax, QWORD PTR v$[rsp]
	movss	xmm0, DWORD PTR [rax]
	mulss	xmm0, DWORD PTR Cos$[rsp]
	mov	rax, QWORD PTR v$[rsp]
	movss	xmm1, DWORD PTR [rax+4]
	mulss	xmm1, DWORD PTR Sin$[rsp]
	subss	xmm0, xmm1
	movss	DWORD PTR Result$[rsp], xmm0

; 40   : 		Result.y = v.x * Sin + v.y * Cos;

	mov	rax, QWORD PTR v$[rsp]
	movss	xmm0, DWORD PTR [rax]
	mulss	xmm0, DWORD PTR Sin$[rsp]
	mov	rax, QWORD PTR v$[rsp]
	movss	xmm1, DWORD PTR [rax+4]
	mulss	xmm1, DWORD PTR Cos$[rsp]
	addss	xmm0, xmm1
	movss	DWORD PTR Result$[rsp+4], xmm0

; 41   : 		return Result;

	mov	rax, QWORD PTR __$ReturnUdt$[rsp]
	mov	rcx, QWORD PTR Result$[rsp]
	mov	QWORD PTR [rax], rcx
	mov	rax, QWORD PTR __$ReturnUdt$[rsp]

; 42   : 	}

	mov	rdi, rax
	mov	rcx, rsp
	lea	rdx, OFFSET FLAT:??$rotate@M$0A@@glm@@YA?AU?$tvec2@M$0A@@0@AEBU10@AEBM@Z$rtcFrameData
	call	_RTC_CheckStackVars
	mov	rax, rdi
	add	rsp, 64					; 00000040H
	pop	rdi
	ret	0
??$rotate@M$0A@@glm@@YA?AU?$tvec2@M$0A@@0@AEBU10@AEBM@Z ENDP ; glm::rotate<float,0>
_TEXT	ENDS
; Function compile flags: /Odtp /RTCsu
; File C:\Users\ksart\OneDrive\Desktop\FlappyBird\libraries\external\glm\glm\detail\func_geometric.inl
;	COMDAT ??$dot@M$0A@Utvec4@glm@@@glm@@YAMAEBU?$tvec4@M$0A@@0@0@Z
_TEXT	SEGMENT
x$ = 64
y$ = 72
??$dot@M$0A@Utvec4@glm@@@glm@@YAMAEBU?$tvec4@M$0A@@0@0@Z PROC ; glm::dot<float,0,glm::tvec4>, COMDAT

; 172  : 	{

$LN3:
	mov	QWORD PTR [rsp+16], rdx
	mov	QWORD PTR [rsp+8], rcx
	push	rdi
	sub	rsp, 48					; 00000030H

; 173  : 		GLM_STATIC_ASSERT(std::numeric_limits<T>::is_iec559, "'dot' accepts only floating-point inputs");
; 174  : 		return detail::compute_dot<vecType, T, P, detail::is_aligned<P>::value>::call(x, y);

	mov	rdx, QWORD PTR y$[rsp]
	mov	rcx, QWORD PTR x$[rsp]
	call	?call@?$compute_dot@Utvec4@glm@@M$0A@$0A@@detail@glm@@SAMAEBU?$tvec4@M$0A@@3@0@Z ; glm::detail::compute_dot<glm::tvec4,float,0,0>::call

; 175  : 	}

	add	rsp, 48					; 00000030H
	pop	rdi
	ret	0
??$dot@M$0A@Utvec4@glm@@@glm@@YAMAEBU?$tvec4@M$0A@@0@0@Z ENDP ; glm::dot<float,0,glm::tvec4>
_TEXT	ENDS
; Function compile flags: /Odtp /RTCsu
; File C:\Users\ksart\OneDrive\Desktop\FlappyBird\libraries\external\glm\glm\detail\func_geometric.inl
;	COMDAT ?call@?$compute_normalize@M$0A@Utvec4@glm@@$0A@@detail@glm@@SA?AU?$tvec4@M$0A@@3@AEBU43@@Z
_TEXT	SEGMENT
__$ReturnUdt$ = 48
v$ = 56
?call@?$compute_normalize@M$0A@Utvec4@glm@@$0A@@detail@glm@@SA?AU?$tvec4@M$0A@@3@AEBU43@@Z PROC ; glm::detail::compute_normalize<float,0,glm::tvec4,0>::call, COMDAT

; 91   : 		{

$LN3:
	mov	QWORD PTR [rsp+16], rdx
	mov	QWORD PTR [rsp+8], rcx
	push	rdi
	sub	rsp, 32					; 00000020H

; 92   : 			GLM_STATIC_ASSERT(std::numeric_limits<T>::is_iec559, "'normalize' accepts only floating-point inputs");
; 93   : 
; 94   : 			return v * inversesqrt(dot(v, v));

	mov	rdx, QWORD PTR v$[rsp]
	mov	rcx, QWORD PTR v$[rsp]
	call	??$dot@M$0A@Utvec4@glm@@@glm@@YAMAEBU?$tvec4@M$0A@@0@0@Z ; glm::dot<float,0,glm::tvec4>
	call	??$inversesqrt@M@glm@@YAMM@Z		; glm::inversesqrt<float>
	movaps	xmm2, xmm0
	mov	rdx, QWORD PTR v$[rsp]
	mov	rcx, QWORD PTR __$ReturnUdt$[rsp]
	call	??$?DM$0A@@glm@@YA?AU?$tvec4@M$0A@@0@AEBU10@M@Z ; glm::operator*<float,0>
	mov	rax, QWORD PTR __$ReturnUdt$[rsp]

; 95   : 		}

	add	rsp, 32					; 00000020H
	pop	rdi
	ret	0
?call@?$compute_normalize@M$0A@Utvec4@glm@@$0A@@detail@glm@@SA?AU?$tvec4@M$0A@@3@AEBU43@@Z ENDP ; glm::detail::compute_normalize<float,0,glm::tvec4,0>::call
_TEXT	ENDS
; Function compile flags: /Odtp /RTCsu
; File C:\Users\ksart\OneDrive\Desktop\FlappyBird\libraries\external\glm\glm\detail\func_geometric.inl
;	COMDAT ??$dot@M$0A@Utvec3@glm@@@glm@@YAMAEBU?$tvec3@M$0A@@0@0@Z
_TEXT	SEGMENT
x$ = 64
y$ = 72
??$dot@M$0A@Utvec3@glm@@@glm@@YAMAEBU?$tvec3@M$0A@@0@0@Z PROC ; glm::dot<float,0,glm::tvec3>, COMDAT

; 172  : 	{

$LN3:
	mov	QWORD PTR [rsp+16], rdx
	mov	QWORD PTR [rsp+8], rcx
	push	rdi
	sub	rsp, 48					; 00000030H

; 173  : 		GLM_STATIC_ASSERT(std::numeric_limits<T>::is_iec559, "'dot' accepts only floating-point inputs");
; 174  : 		return detail::compute_dot<vecType, T, P, detail::is_aligned<P>::value>::call(x, y);

	mov	rdx, QWORD PTR y$[rsp]
	mov	rcx, QWORD PTR x$[rsp]
	call	?call@?$compute_dot@Utvec3@glm@@M$0A@$0A@@detail@glm@@SAMAEBU?$tvec3@M$0A@@3@0@Z ; glm::detail::compute_dot<glm::tvec3,float,0,0>::call

; 175  : 	}

	add	rsp, 48					; 00000030H
	pop	rdi
	ret	0
??$dot@M$0A@Utvec3@glm@@@glm@@YAMAEBU?$tvec3@M$0A@@0@0@Z ENDP ; glm::dot<float,0,glm::tvec3>
_TEXT	ENDS
; Function compile flags: /Odtp /RTCsu
; File C:\Users\ksart\OneDrive\Desktop\FlappyBird\libraries\external\glm\glm\detail\func_geometric.inl
;	COMDAT ?call@?$compute_normalize@M$0A@Utvec3@glm@@$0A@@detail@glm@@SA?AU?$tvec3@M$0A@@3@AEBU43@@Z
_TEXT	SEGMENT
__$ReturnUdt$ = 48
v$ = 56
?call@?$compute_normalize@M$0A@Utvec3@glm@@$0A@@detail@glm@@SA?AU?$tvec3@M$0A@@3@AEBU43@@Z PROC ; glm::detail::compute_normalize<float,0,glm::tvec3,0>::call, COMDAT

; 91   : 		{

$LN3:
	mov	QWORD PTR [rsp+16], rdx
	mov	QWORD PTR [rsp+8], rcx
	push	rdi
	sub	rsp, 32					; 00000020H

; 92   : 			GLM_STATIC_ASSERT(std::numeric_limits<T>::is_iec559, "'normalize' accepts only floating-point inputs");
; 93   : 
; 94   : 			return v * inversesqrt(dot(v, v));

	mov	rdx, QWORD PTR v$[rsp]
	mov	rcx, QWORD PTR v$[rsp]
	call	??$dot@M$0A@Utvec3@glm@@@glm@@YAMAEBU?$tvec3@M$0A@@0@0@Z ; glm::dot<float,0,glm::tvec3>
	call	??$inversesqrt@M@glm@@YAMM@Z		; glm::inversesqrt<float>
	movaps	xmm2, xmm0
	mov	rdx, QWORD PTR v$[rsp]
	mov	rcx, QWORD PTR __$ReturnUdt$[rsp]
	call	??$?DM$0A@@glm@@YA?AU?$tvec3@M$0A@@0@AEBU10@M@Z ; glm::operator*<float,0>
	mov	rax, QWORD PTR __$ReturnUdt$[rsp]

; 95   : 		}

	add	rsp, 32					; 00000020H
	pop	rdi
	ret	0
?call@?$compute_normalize@M$0A@Utvec3@glm@@$0A@@detail@glm@@SA?AU?$tvec3@M$0A@@3@AEBU43@@Z ENDP ; glm::detail::compute_normalize<float,0,glm::tvec3,0>::call
_TEXT	ENDS
; Function compile flags: /Odtp /RTCsu
; File C:\Users\ksart\OneDrive\Desktop\FlappyBird\libraries\external\glm\glm\detail\func_common.inl
;	COMDAT ??$clamp@M@glm@@YAMMMM@Z
_TEXT	SEGMENT
x$ = 64
minVal$ = 72
maxVal$ = 80
??$clamp@M@glm@@YAMMMM@Z PROC				; glm::clamp<float>, COMDAT

; 544  : 	{

$LN3:
	movss	DWORD PTR [rsp+24], xmm2
	movss	DWORD PTR [rsp+16], xmm1
	movss	DWORD PTR [rsp+8], xmm0
	push	rdi
	sub	rsp, 48					; 00000030H

; 545  : 		GLM_STATIC_ASSERT(std::numeric_limits<genType>::is_iec559 || std::numeric_limits<genType>::is_integer || GLM_UNRESTRICTED_GENTYPE, "'clamp' only accept floating-point or integer inputs");
; 546  : 		return min(max(x, minVal), maxVal);

	movss	xmm1, DWORD PTR minVal$[rsp]
	movss	xmm0, DWORD PTR x$[rsp]
	call	??$max@M@glm@@YAMMM@Z			; glm::max<float>
	movss	xmm1, DWORD PTR maxVal$[rsp]
	call	??$min@M@glm@@YAMMM@Z			; glm::min<float>

; 547  : 	}

	add	rsp, 48					; 00000030H
	pop	rdi
	ret	0
??$clamp@M@glm@@YAMMMM@Z ENDP				; glm::clamp<float>
_TEXT	ENDS
; Function compile flags: /Odtp /RTCsu
; File C:\Users\ksart\OneDrive\Desktop\FlappyBird\libraries\external\glm\glm\detail\func_geometric.inl
;	COMDAT ??$dot@M$0A@Utvec2@glm@@@glm@@YAMAEBU?$tvec2@M$0A@@0@0@Z
_TEXT	SEGMENT
x$ = 64
y$ = 72
??$dot@M$0A@Utvec2@glm@@@glm@@YAMAEBU?$tvec2@M$0A@@0@0@Z PROC ; glm::dot<float,0,glm::tvec2>, COMDAT

; 172  : 	{

$LN3:
	mov	QWORD PTR [rsp+16], rdx
	mov	QWORD PTR [rsp+8], rcx
	push	rdi
	sub	rsp, 48					; 00000030H

; 173  : 		GLM_STATIC_ASSERT(std::numeric_limits<T>::is_iec559, "'dot' accepts only floating-point inputs");
; 174  : 		return detail::compute_dot<vecType, T, P, detail::is_aligned<P>::value>::call(x, y);

	mov	rdx, QWORD PTR y$[rsp]
	mov	rcx, QWORD PTR x$[rsp]
	call	?call@?$compute_dot@Utvec2@glm@@M$0A@$0A@@detail@glm@@SAMAEBU?$tvec2@M$0A@@3@0@Z ; glm::detail::compute_dot<glm::tvec2,float,0,0>::call

; 175  : 	}

	add	rsp, 48					; 00000030H
	pop	rdi
	ret	0
??$dot@M$0A@Utvec2@glm@@@glm@@YAMAEBU?$tvec2@M$0A@@0@0@Z ENDP ; glm::dot<float,0,glm::tvec2>
_TEXT	ENDS
; Function compile flags: /Odtp /RTCsu
; File C:\Users\ksart\OneDrive\Desktop\FlappyBird\libraries\external\glm\glm\detail\func_geometric.inl
;	COMDAT ?call@?$compute_normalize@M$0A@Utvec2@glm@@$0A@@detail@glm@@SA?AU?$tvec2@M$0A@@3@AEBU43@@Z
_TEXT	SEGMENT
__$ReturnUdt$ = 48
v$ = 56
?call@?$compute_normalize@M$0A@Utvec2@glm@@$0A@@detail@glm@@SA?AU?$tvec2@M$0A@@3@AEBU43@@Z PROC ; glm::detail::compute_normalize<float,0,glm::tvec2,0>::call, COMDAT

; 91   : 		{

$LN3:
	mov	QWORD PTR [rsp+16], rdx
	mov	QWORD PTR [rsp+8], rcx
	push	rdi
	sub	rsp, 32					; 00000020H

; 92   : 			GLM_STATIC_ASSERT(std::numeric_limits<T>::is_iec559, "'normalize' accepts only floating-point inputs");
; 93   : 
; 94   : 			return v * inversesqrt(dot(v, v));

	mov	rdx, QWORD PTR v$[rsp]
	mov	rcx, QWORD PTR v$[rsp]
	call	??$dot@M$0A@Utvec2@glm@@@glm@@YAMAEBU?$tvec2@M$0A@@0@0@Z ; glm::dot<float,0,glm::tvec2>
	call	??$inversesqrt@M@glm@@YAMM@Z		; glm::inversesqrt<float>
	movaps	xmm2, xmm0
	mov	rdx, QWORD PTR v$[rsp]
	mov	rcx, QWORD PTR __$ReturnUdt$[rsp]
	call	??$?DM$0A@@glm@@YA?AU?$tvec2@M$0A@@0@AEBU10@M@Z ; glm::operator*<float,0>
	mov	rax, QWORD PTR __$ReturnUdt$[rsp]

; 95   : 		}

	add	rsp, 32					; 00000020H
	pop	rdi
	ret	0
?call@?$compute_normalize@M$0A@Utvec2@glm@@$0A@@detail@glm@@SA?AU?$tvec2@M$0A@@3@AEBU43@@Z ENDP ; glm::detail::compute_normalize<float,0,glm::tvec2,0>::call
_TEXT	ENDS
; Function compile flags: /Odtp /RTCsu
; File C:\Users\ksart\OneDrive\Desktop\FlappyBird\libraries\external\glm\glm\detail\func_common.inl
;	COMDAT ?call@?$compute_abs@M$00@detail@glm@@SAMM@Z
_TEXT	SEGMENT
tv66 = 16
x$ = 48
?call@?$compute_abs@M$00@detail@glm@@SAMM@Z PROC	; glm::detail::compute_abs<float,1>::call, COMDAT

; 77   : 		{

$LN5:
	movss	DWORD PTR [rsp+8], xmm0
	push	rdi
	sub	rsp, 32					; 00000020H

; 78   : 			GLM_STATIC_ASSERT(
; 79   : 				std::numeric_limits<genFIType>::is_iec559 || std::numeric_limits<genFIType>::is_signed || GLM_UNRESTRICTED_GENTYPE,
; 80   : 				"'abs' only accept floating-point and integer scalar or vector inputs");
; 81   : 
; 82   : 			return x >= genFIType(0) ? x : -x;

	movss	xmm0, DWORD PTR x$[rsp]
	comiss	xmm0, DWORD PTR __real@00000000
	jb	SHORT $LN3@call
	movss	xmm0, DWORD PTR x$[rsp]
	movss	DWORD PTR tv66[rsp], xmm0
	jmp	SHORT $LN4@call
$LN3@call:
	movss	xmm0, DWORD PTR x$[rsp]
	xorps	xmm0, DWORD PTR __xmm@80000000800000008000000080000000
	movss	DWORD PTR tv66[rsp], xmm0
$LN4@call:
	movss	xmm0, DWORD PTR tv66[rsp]

; 83   : 			// TODO, perf comp with: *(((int *) &x) + 1) &= 0x7fffffff;
; 84   : 		}

	add	rsp, 32					; 00000020H
	pop	rdi
	ret	0
?call@?$compute_abs@M$00@detail@glm@@SAMM@Z ENDP	; glm::detail::compute_abs<float,1>::call
_TEXT	ENDS
; Function compile flags: /Odtp /RTCsu
; File C:\Users\ksart\OneDrive\Desktop\FlappyBird\libraries\external\glm\glm\detail\type_vec4.inl
;	COMDAT ??$?XM@?$tvec4@M$0A@@glm@@QEAAAEAU01@M@Z
_TEXT	SEGMENT
$T1 = 32
$T2 = 48
this$ = 96
scalar$ = 104
??$?XM@?$tvec4@M$0A@@glm@@QEAAAEAU01@M@Z PROC		; glm::tvec4<float,0>::operator*=<float>, COMDAT

; 411  : 	{

$LN3:
	movss	DWORD PTR [rsp+16], xmm1
	mov	QWORD PTR [rsp+8], rcx
	push	rsi
	push	rdi
	sub	rsp, 72					; 00000048H

; 412  : 		return (*this = detail::compute_vec4_mul<T, P, detail::is_aligned<P>::value>::call(*this, tvec4<T, P>(scalar)));

	movss	xmm1, DWORD PTR scalar$[rsp]
	lea	rcx, QWORD PTR $T1[rsp]
	call	??0?$tvec4@M$0A@@glm@@QEAA@M@Z		; glm::tvec4<float,0>::tvec4<float,0>
	mov	r8, rax
	mov	rdx, QWORD PTR this$[rsp]
	lea	rcx, QWORD PTR $T2[rsp]
	call	?call@?$compute_vec4_mul@M$0A@$0A@@detail@glm@@SA?AU?$tvec4@M$0A@@3@AEBU43@0@Z ; glm::detail::compute_vec4_mul<float,0,0>::call
	mov	rdi, QWORD PTR this$[rsp]
	mov	rsi, rax
	mov	ecx, 16
	rep movsb
	mov	rax, QWORD PTR this$[rsp]

; 413  : 	}

	add	rsp, 72					; 00000048H
	pop	rdi
	pop	rsi
	ret	0
??$?XM@?$tvec4@M$0A@@glm@@QEAAAEAU01@M@Z ENDP		; glm::tvec4<float,0>::operator*=<float>
_TEXT	ENDS
; Function compile flags: /Odtp /RTCsu
; File C:\Users\ksart\OneDrive\Desktop\FlappyBird\libraries\external\glm\test\gtx\gtx_vector_angle.cpp
_TEXT	SEGMENT
Error$ = 32
main	PROC

; 48   : {

$LN3:
	push	rdi
	sub	rsp, 48					; 00000030H

; 49   : 	int Error(0);

	mov	DWORD PTR Error$[rsp], 0

; 50   : 	
; 51   : 	Error += test_angle();

	call	?test_angle@@YAHXZ			; test_angle
	mov	ecx, DWORD PTR Error$[rsp]
	add	ecx, eax
	mov	eax, ecx
	mov	DWORD PTR Error$[rsp], eax

; 52   : 	Error += test_orientedAngle_vec2();

	call	?test_orientedAngle_vec2@@YAHXZ		; test_orientedAngle_vec2
	mov	ecx, DWORD PTR Error$[rsp]
	add	ecx, eax
	mov	eax, ecx
	mov	DWORD PTR Error$[rsp], eax

; 53   : 	Error += test_orientedAngle_vec3();

	call	?test_orientedAngle_vec3@@YAHXZ		; test_orientedAngle_vec3
	mov	ecx, DWORD PTR Error$[rsp]
	add	ecx, eax
	mov	eax, ecx
	mov	DWORD PTR Error$[rsp], eax

; 54   : 
; 55   : 	return Error;

	mov	eax, DWORD PTR Error$[rsp]

; 56   : }

	add	rsp, 48					; 00000030H
	pop	rdi
	ret	0
main	ENDP
_TEXT	ENDS
; Function compile flags: /Odtp /RTCsu
; File C:\Users\ksart\OneDrive\Desktop\FlappyBird\libraries\external\glm\glm\gtx\vector_angle.inl
;	COMDAT ??$orientedAngle@M$0A@@glm@@YAMAEBU?$tvec3@M$0A@@0@00@Z
_TEXT	SEGMENT
Angle$ = 48
$T1 = 52
tv82 = 64
x$ = 96
y$ = 104
ref$ = 112
??$orientedAngle@M$0A@@glm@@YAMAEBU?$tvec3@M$0A@@0@00@Z PROC ; glm::orientedAngle<float,0>, COMDAT

; 52   : 	{

$LN5:
	mov	QWORD PTR [rsp+24], r8
	mov	QWORD PTR [rsp+16], rdx
	mov	QWORD PTR [rsp+8], rcx
	push	rdi
	sub	rsp, 80					; 00000050H

; 53   : 		GLM_STATIC_ASSERT(std::numeric_limits<T>::is_iec559, "'orientedAngle' only accept floating-point inputs");
; 54   : 
; 55   : 		T const Angle(acos(clamp(dot(x, y), T(-1), T(1))));

	mov	rdx, QWORD PTR y$[rsp]
	mov	rcx, QWORD PTR x$[rsp]
	call	??$dot@M$0A@Utvec3@glm@@@glm@@YAMAEBU?$tvec3@M$0A@@0@0@Z ; glm::dot<float,0,glm::tvec3>
	movss	xmm2, DWORD PTR __real@3f800000
	movss	xmm1, DWORD PTR __real@bf800000
	call	??$clamp@M@glm@@YAMMMM@Z		; glm::clamp<float>
	call	?acos@@YAMM@Z				; acos
	movss	DWORD PTR Angle$[rsp], xmm0

; 56   : 		return mix(Angle, -Angle, dot(ref, cross(x, y)) < T(0));

	mov	r8, QWORD PTR y$[rsp]
	mov	rdx, QWORD PTR x$[rsp]
	lea	rcx, QWORD PTR $T1[rsp]
	call	??$cross@M$0A@@glm@@YA?AU?$tvec3@M$0A@@0@AEBU10@0@Z ; glm::cross<float,0>
	mov	rdx, rax
	mov	rcx, QWORD PTR ref$[rsp]
	call	??$dot@M$0A@Utvec3@glm@@@glm@@YAMAEBU?$tvec3@M$0A@@0@0@Z ; glm::dot<float,0,glm::tvec3>
	xorps	xmm1, xmm1
	comiss	xmm1, xmm0
	jbe	SHORT $LN3@orientedAn
	mov	BYTE PTR tv82[rsp], 1
	jmp	SHORT $LN4@orientedAn
$LN3@orientedAn:
	mov	BYTE PTR tv82[rsp], 0
$LN4@orientedAn:
	movss	xmm0, DWORD PTR Angle$[rsp]
	xorps	xmm0, DWORD PTR __xmm@80000000800000008000000080000000
	movzx	r8d, BYTE PTR tv82[rsp]
	movaps	xmm1, xmm0
	movss	xmm0, DWORD PTR Angle$[rsp]
	call	??$mix@M_N@glm@@YAMMM_N@Z		; glm::mix<float,bool>

; 57   : 	}

	add	rsp, 80					; 00000050H
	pop	rdi
	ret	0
??$orientedAngle@M$0A@@glm@@YAMAEBU?$tvec3@M$0A@@0@00@Z ENDP ; glm::orientedAngle<float,0>
_TEXT	ENDS
; Function compile flags: /Odtp /RTCsu
; File C:\Users\ksart\OneDrive\Desktop\FlappyBird\libraries\external\glm\test\gtx\gtx_vector_angle.cpp
_TEXT	SEGMENT
Error$ = 32
AngleA$ = 36
AngleB$ = 40
AngleC$ = 44
$T1 = 48
$T2 = 60
$T3 = 72
$T4 = 84
$T5 = 96
$T6 = 108
$T7 = 120
$T8 = 132
$T9 = 144
$T10 = 156
$T11 = 168
$T12 = 180
tv66 = 192
tv71 = 200
tv89 = 208
tv93 = 216
tv130 = 224
tv149 = 232
tv153 = 240
tv159 = 248
tv176 = 256
?test_orientedAngle_vec3@@YAHXZ PROC			; test_orientedAngle_vec3

; 34   : {

$LN9:
	push	rdi
	sub	rsp, 272				; 00000110H

; 35   : 	int Error = 0;

	mov	DWORD PTR Error$[rsp], 0

; 36   : 	
; 37   : 	float AngleA = glm::orientedAngle(glm::vec3(1, 0, 0), glm::normalize(glm::vec3(1, 1, 0)), glm::vec3(0, 0, 1));

	mov	r9d, 1
	xor	r8d, r8d
	xor	edx, edx
	lea	rcx, QWORD PTR $T1[rsp]
	call	??$?0HHH@?$tvec3@M$0A@@glm@@QEAA@HHH@Z	; glm::tvec3<float,0>::tvec3<float,0><int,int,int>
	mov	QWORD PTR tv66[rsp], rax
	xor	r9d, r9d
	mov	r8d, 1
	mov	edx, 1
	lea	rcx, QWORD PTR $T2[rsp]
	call	??$?0HHH@?$tvec3@M$0A@@glm@@QEAA@HHH@Z	; glm::tvec3<float,0>::tvec3<float,0><int,int,int>
	mov	rdx, rax
	lea	rcx, QWORD PTR $T3[rsp]
	call	??$normalize@M$0A@Utvec3@glm@@@glm@@YA?AU?$tvec3@M$0A@@0@AEBU10@@Z ; glm::normalize<float,0,glm::tvec3>
	mov	QWORD PTR tv71[rsp], rax
	xor	r9d, r9d
	xor	r8d, r8d
	mov	edx, 1
	lea	rcx, QWORD PTR $T4[rsp]
	call	??$?0HHH@?$tvec3@M$0A@@glm@@QEAA@HHH@Z	; glm::tvec3<float,0>::tvec3<float,0><int,int,int>
	mov	rcx, QWORD PTR tv66[rsp]
	mov	r8, rcx
	mov	rcx, QWORD PTR tv71[rsp]
	mov	rdx, rcx
	mov	rcx, rax
	call	??$orientedAngle@M$0A@@glm@@YAMAEBU?$tvec3@M$0A@@0@00@Z ; glm::orientedAngle<float,0>
	movss	DWORD PTR AngleA$[rsp], xmm0

; 38   : 	Error += AngleA == glm::pi<float>() * 0.25f ? 0 : 1;

	call	??$pi@M@glm@@YAMXZ			; glm::pi<float>
	mulss	xmm0, DWORD PTR __real@3e800000
	movss	xmm1, DWORD PTR AngleA$[rsp]
	ucomiss	xmm1, xmm0
	jp	SHORT $LN3@test_orien
	jne	SHORT $LN3@test_orien
	mov	DWORD PTR tv89[rsp], 0
	jmp	SHORT $LN4@test_orien
$LN3@test_orien:
	mov	DWORD PTR tv89[rsp], 1
$LN4@test_orien:
	mov	eax, DWORD PTR tv89[rsp]
	mov	ecx, DWORD PTR Error$[rsp]
	add	ecx, eax
	mov	eax, ecx
	mov	DWORD PTR Error$[rsp], eax

; 39   : 	float AngleB = glm::orientedAngle(glm::vec3(0, 1, 0), glm::normalize(glm::vec3(1, 1, 0)), glm::vec3(0, 0, 1));

	mov	r9d, 1
	xor	r8d, r8d
	xor	edx, edx
	lea	rcx, QWORD PTR $T5[rsp]
	call	??$?0HHH@?$tvec3@M$0A@@glm@@QEAA@HHH@Z	; glm::tvec3<float,0>::tvec3<float,0><int,int,int>
	mov	QWORD PTR tv93[rsp], rax
	xor	r9d, r9d
	mov	r8d, 1
	mov	edx, 1
	lea	rcx, QWORD PTR $T6[rsp]
	call	??$?0HHH@?$tvec3@M$0A@@glm@@QEAA@HHH@Z	; glm::tvec3<float,0>::tvec3<float,0><int,int,int>
	mov	rdx, rax
	lea	rcx, QWORD PTR $T7[rsp]
	call	??$normalize@M$0A@Utvec3@glm@@@glm@@YA?AU?$tvec3@M$0A@@0@AEBU10@@Z ; glm::normalize<float,0,glm::tvec3>
	mov	QWORD PTR tv130[rsp], rax
	xor	r9d, r9d
	mov	r8d, 1
	xor	edx, edx
	lea	rcx, QWORD PTR $T8[rsp]
	call	??$?0HHH@?$tvec3@M$0A@@glm@@QEAA@HHH@Z	; glm::tvec3<float,0>::tvec3<float,0><int,int,int>
	mov	rcx, QWORD PTR tv93[rsp]
	mov	r8, rcx
	mov	rcx, QWORD PTR tv130[rsp]
	mov	rdx, rcx
	mov	rcx, rax
	call	??$orientedAngle@M$0A@@glm@@YAMAEBU?$tvec3@M$0A@@0@00@Z ; glm::orientedAngle<float,0>
	movss	DWORD PTR AngleB$[rsp], xmm0

; 40   : 	Error += AngleB == -glm::pi<float>() * 0.25f ? 0 : 1;

	call	??$pi@M@glm@@YAMXZ			; glm::pi<float>
	xorps	xmm0, DWORD PTR __xmm@80000000800000008000000080000000
	mulss	xmm0, DWORD PTR __real@3e800000
	movss	xmm1, DWORD PTR AngleB$[rsp]
	ucomiss	xmm1, xmm0
	jp	SHORT $LN5@test_orien
	jne	SHORT $LN5@test_orien
	mov	DWORD PTR tv149[rsp], 0
	jmp	SHORT $LN6@test_orien
$LN5@test_orien:
	mov	DWORD PTR tv149[rsp], 1
$LN6@test_orien:
	mov	eax, DWORD PTR tv149[rsp]
	mov	ecx, DWORD PTR Error$[rsp]
	add	ecx, eax
	mov	eax, ecx
	mov	DWORD PTR Error$[rsp], eax

; 41   : 	float AngleC = glm::orientedAngle(glm::normalize(glm::vec3(1, 1, 0)), glm::vec3(0, 1, 0), glm::vec3(0, 0, 1));

	mov	r9d, 1
	xor	r8d, r8d
	xor	edx, edx
	lea	rcx, QWORD PTR $T9[rsp]
	call	??$?0HHH@?$tvec3@M$0A@@glm@@QEAA@HHH@Z	; glm::tvec3<float,0>::tvec3<float,0><int,int,int>
	mov	QWORD PTR tv153[rsp], rax
	xor	r9d, r9d
	mov	r8d, 1
	xor	edx, edx
	lea	rcx, QWORD PTR $T10[rsp]
	call	??$?0HHH@?$tvec3@M$0A@@glm@@QEAA@HHH@Z	; glm::tvec3<float,0>::tvec3<float,0><int,int,int>
	mov	QWORD PTR tv159[rsp], rax
	xor	r9d, r9d
	mov	r8d, 1
	mov	edx, 1
	lea	rcx, QWORD PTR $T11[rsp]
	call	??$?0HHH@?$tvec3@M$0A@@glm@@QEAA@HHH@Z	; glm::tvec3<float,0>::tvec3<float,0><int,int,int>
	mov	rdx, rax
	lea	rcx, QWORD PTR $T12[rsp]
	call	??$normalize@M$0A@Utvec3@glm@@@glm@@YA?AU?$tvec3@M$0A@@0@AEBU10@@Z ; glm::normalize<float,0,glm::tvec3>
	mov	rcx, QWORD PTR tv153[rsp]
	mov	r8, rcx
	mov	rcx, QWORD PTR tv159[rsp]
	mov	rdx, rcx
	mov	rcx, rax
	call	??$orientedAngle@M$0A@@glm@@YAMAEBU?$tvec3@M$0A@@0@00@Z ; glm::orientedAngle<float,0>
	movss	DWORD PTR AngleC$[rsp], xmm0

; 42   : 	Error += AngleC == glm::pi<float>() * 0.25f ? 0 : 1;

	call	??$pi@M@glm@@YAMXZ			; glm::pi<float>
	mulss	xmm0, DWORD PTR __real@3e800000
	movss	xmm1, DWORD PTR AngleC$[rsp]
	ucomiss	xmm1, xmm0
	jp	SHORT $LN7@test_orien
	jne	SHORT $LN7@test_orien
	mov	DWORD PTR tv176[rsp], 0
	jmp	SHORT $LN8@test_orien
$LN7@test_orien:
	mov	DWORD PTR tv176[rsp], 1
$LN8@test_orien:
	mov	eax, DWORD PTR tv176[rsp]
	mov	ecx, DWORD PTR Error$[rsp]
	add	ecx, eax
	mov	eax, ecx
	mov	DWORD PTR Error$[rsp], eax

; 43   : 
; 44   : 	return Error;

	mov	eax, DWORD PTR Error$[rsp]

; 45   : }

	add	rsp, 272				; 00000110H
	pop	rdi
	ret	0
?test_orientedAngle_vec3@@YAHXZ ENDP			; test_orientedAngle_vec3
_TEXT	ENDS
; Function compile flags: /Odtp /RTCsu
; File C:\Users\ksart\OneDrive\Desktop\FlappyBird\libraries\external\glm\glm\gtx\vector_angle.inl
;	COMDAT ??$orientedAngle@M$0A@@glm@@YAMAEBU?$tvec2@M$0A@@0@0@Z
_TEXT	SEGMENT
Angle$ = 52
$T4 = 68
$T5 = 72
$T6 = 80
x$ = 112
y$ = 120
??$orientedAngle@M$0A@@glm@@YAMAEBU?$tvec2@M$0A@@0@0@Z PROC ; glm::orientedAngle<float,0>, COMDAT

; 35   : 	{

$LN5:
	mov	QWORD PTR [rsp+16], rdx
	mov	QWORD PTR [rsp+8], rcx
	push	rdi
	sub	rsp, 96					; 00000060H
	lea	rdi, QWORD PTR [rsp+48]
	mov	ecx, 12
	mov	eax, -858993460				; ccccccccH
	rep stosd
	mov	rcx, QWORD PTR [rsp+112]

; 36   : 		GLM_STATIC_ASSERT(std::numeric_limits<T>::is_iec559, "'orientedAngle' only accept floating-point inputs");
; 37   : 		T const Angle(acos(clamp(dot(x, y), T(-1), T(1))));

	mov	rdx, QWORD PTR y$[rsp]
	mov	rcx, QWORD PTR x$[rsp]
	call	??$dot@M$0A@Utvec2@glm@@@glm@@YAMAEBU?$tvec2@M$0A@@0@0@Z ; glm::dot<float,0,glm::tvec2>
	movss	xmm2, DWORD PTR __real@3f800000
	movss	xmm1, DWORD PTR __real@bf800000
	call	??$clamp@M@glm@@YAMMMM@Z		; glm::clamp<float>
	call	?acos@@YAMM@Z				; acos
	movss	DWORD PTR Angle$[rsp], xmm0

; 38   : 
; 39   : 		if(all(epsilonEqual(y, glm::rotate(x, Angle), T(0.0001))))

	movss	xmm0, DWORD PTR __real@38d1b717
	movss	DWORD PTR $T4[rsp], xmm0
	lea	r8, QWORD PTR Angle$[rsp]
	mov	rdx, QWORD PTR x$[rsp]
	lea	rcx, QWORD PTR $T5[rsp]
	call	??$rotate@M$0A@@glm@@YA?AU?$tvec2@M$0A@@0@AEBU10@AEBM@Z ; glm::rotate<float,0>
	lea	r9, QWORD PTR $T4[rsp]
	mov	r8, rax
	mov	rdx, QWORD PTR y$[rsp]
	lea	rcx, QWORD PTR $T6[rsp]
	call	??$epsilonEqual@M$0A@Utvec2@glm@@@glm@@YA?AU?$tvec2@_N$0A@@0@AEBU?$tvec2@M$0A@@0@0AEBM@Z ; glm::epsilonEqual<float,0,glm::tvec2>
	mov	rcx, rax
	call	??$all@$0A@Utvec2@glm@@@glm@@YA_NAEBU?$tvec2@_N$0A@@0@@Z ; glm::all<0,glm::tvec2>
	movzx	eax, al
	test	eax, eax
	je	SHORT $LN2@orientedAn

; 40   : 			return Angle;

	movss	xmm0, DWORD PTR Angle$[rsp]
	jmp	SHORT $LN1@orientedAn
	jmp	SHORT $LN3@orientedAn
$LN2@orientedAn:

; 41   : 		else
; 42   : 			return -Angle;

	movss	xmm0, DWORD PTR Angle$[rsp]
	xorps	xmm0, DWORD PTR __xmm@80000000800000008000000080000000
$LN3@orientedAn:
$LN1@orientedAn:

; 43   : 	}

	movdqu	XMMWORD PTR [rsp+32], xmm0
	mov	rcx, rsp
	lea	rdx, OFFSET FLAT:??$orientedAngle@M$0A@@glm@@YAMAEBU?$tvec2@M$0A@@0@0@Z$rtcFrameData
	call	_RTC_CheckStackVars
	movdqu	xmm0, XMMWORD PTR [rsp+32]
	add	rsp, 96					; 00000060H
	pop	rdi
	ret	0
??$orientedAngle@M$0A@@glm@@YAMAEBU?$tvec2@M$0A@@0@0@Z ENDP ; glm::orientedAngle<float,0>
_TEXT	ENDS
; Function compile flags: /Odtp /RTCsu
; File C:\Users\ksart\OneDrive\Desktop\FlappyBird\libraries\external\glm\test\gtx\gtx_vector_angle.cpp
_TEXT	SEGMENT
Error$ = 32
AngleA$ = 36
AngleB$ = 40
AngleC$ = 44
$T1 = 48
$T2 = 56
$T3 = 64
$T4 = 72
$T5 = 80
$T6 = 88
$T7 = 96
$T8 = 104
$T9 = 112
tv65 = 120
tv81 = 128
tv84 = 136
tv133 = 144
tv137 = 152
tv152 = 160
?test_orientedAngle_vec2@@YAHXZ PROC			; test_orientedAngle_vec2

; 20   : {

$LN9:
	push	rdi
	sub	rsp, 176				; 000000b0H

; 21   : 	int Error = 0;

	mov	DWORD PTR Error$[rsp], 0

; 22   : 	
; 23   : 	float AngleA = glm::orientedAngle(glm::vec2(1, 0), glm::normalize(glm::vec2(1, 1)));

	mov	r8d, 1
	mov	edx, 1
	lea	rcx, QWORD PTR $T1[rsp]
	call	??$?0HH@?$tvec2@M$0A@@glm@@QEAA@HH@Z	; glm::tvec2<float,0>::tvec2<float,0><int,int>
	mov	rdx, rax
	lea	rcx, QWORD PTR $T2[rsp]
	call	??$normalize@M$0A@Utvec2@glm@@@glm@@YA?AU?$tvec2@M$0A@@0@AEBU10@@Z ; glm::normalize<float,0,glm::tvec2>
	mov	QWORD PTR tv65[rsp], rax
	xor	r8d, r8d
	mov	edx, 1
	lea	rcx, QWORD PTR $T3[rsp]
	call	??$?0HH@?$tvec2@M$0A@@glm@@QEAA@HH@Z	; glm::tvec2<float,0>::tvec2<float,0><int,int>
	mov	rcx, QWORD PTR tv65[rsp]
	mov	rdx, rcx
	mov	rcx, rax
	call	??$orientedAngle@M$0A@@glm@@YAMAEBU?$tvec2@M$0A@@0@0@Z ; glm::orientedAngle<float,0>
	movss	DWORD PTR AngleA$[rsp], xmm0

; 24   : 	Error += AngleA == glm::pi<float>() * 0.25f ? 0 : 1;

	call	??$pi@M@glm@@YAMXZ			; glm::pi<float>
	mulss	xmm0, DWORD PTR __real@3e800000
	movss	xmm1, DWORD PTR AngleA$[rsp]
	ucomiss	xmm1, xmm0
	jp	SHORT $LN3@test_orien
	jne	SHORT $LN3@test_orien
	mov	DWORD PTR tv81[rsp], 0
	jmp	SHORT $LN4@test_orien
$LN3@test_orien:
	mov	DWORD PTR tv81[rsp], 1
$LN4@test_orien:
	mov	eax, DWORD PTR tv81[rsp]
	mov	ecx, DWORD PTR Error$[rsp]
	add	ecx, eax
	mov	eax, ecx
	mov	DWORD PTR Error$[rsp], eax

; 25   : 	float AngleB = glm::orientedAngle(glm::vec2(0, 1), glm::normalize(glm::vec2(1, 1)));

	mov	r8d, 1
	mov	edx, 1
	lea	rcx, QWORD PTR $T4[rsp]
	call	??$?0HH@?$tvec2@M$0A@@glm@@QEAA@HH@Z	; glm::tvec2<float,0>::tvec2<float,0><int,int>
	mov	rdx, rax
	lea	rcx, QWORD PTR $T5[rsp]
	call	??$normalize@M$0A@Utvec2@glm@@@glm@@YA?AU?$tvec2@M$0A@@0@AEBU10@@Z ; glm::normalize<float,0,glm::tvec2>
	mov	QWORD PTR tv84[rsp], rax
	mov	r8d, 1
	xor	edx, edx
	lea	rcx, QWORD PTR $T6[rsp]
	call	??$?0HH@?$tvec2@M$0A@@glm@@QEAA@HH@Z	; glm::tvec2<float,0>::tvec2<float,0><int,int>
	mov	rcx, QWORD PTR tv84[rsp]
	mov	rdx, rcx
	mov	rcx, rax
	call	??$orientedAngle@M$0A@@glm@@YAMAEBU?$tvec2@M$0A@@0@0@Z ; glm::orientedAngle<float,0>
	movss	DWORD PTR AngleB$[rsp], xmm0

; 26   : 	Error += AngleB == -glm::pi<float>() * 0.25f ? 0 : 1;

	call	??$pi@M@glm@@YAMXZ			; glm::pi<float>
	xorps	xmm0, DWORD PTR __xmm@80000000800000008000000080000000
	mulss	xmm0, DWORD PTR __real@3e800000
	movss	xmm1, DWORD PTR AngleB$[rsp]
	ucomiss	xmm1, xmm0
	jp	SHORT $LN5@test_orien
	jne	SHORT $LN5@test_orien
	mov	DWORD PTR tv133[rsp], 0
	jmp	SHORT $LN6@test_orien
$LN5@test_orien:
	mov	DWORD PTR tv133[rsp], 1
$LN6@test_orien:
	mov	eax, DWORD PTR tv133[rsp]
	mov	ecx, DWORD PTR Error$[rsp]
	add	ecx, eax
	mov	eax, ecx
	mov	DWORD PTR Error$[rsp], eax

; 27   : 	float AngleC = glm::orientedAngle(glm::normalize(glm::vec2(1, 1)), glm::vec2(0, 1));

	mov	r8d, 1
	xor	edx, edx
	lea	rcx, QWORD PTR $T7[rsp]
	call	??$?0HH@?$tvec2@M$0A@@glm@@QEAA@HH@Z	; glm::tvec2<float,0>::tvec2<float,0><int,int>
	mov	QWORD PTR tv137[rsp], rax
	mov	r8d, 1
	mov	edx, 1
	lea	rcx, QWORD PTR $T8[rsp]
	call	??$?0HH@?$tvec2@M$0A@@glm@@QEAA@HH@Z	; glm::tvec2<float,0>::tvec2<float,0><int,int>
	mov	rdx, rax
	lea	rcx, QWORD PTR $T9[rsp]
	call	??$normalize@M$0A@Utvec2@glm@@@glm@@YA?AU?$tvec2@M$0A@@0@AEBU10@@Z ; glm::normalize<float,0,glm::tvec2>
	mov	rcx, QWORD PTR tv137[rsp]
	mov	rdx, rcx
	mov	rcx, rax
	call	??$orientedAngle@M$0A@@glm@@YAMAEBU?$tvec2@M$0A@@0@0@Z ; glm::orientedAngle<float,0>
	movss	DWORD PTR AngleC$[rsp], xmm0

; 28   : 	Error += AngleC == glm::pi<float>() * 0.25f ? 0 : 1;

	call	??$pi@M@glm@@YAMXZ			; glm::pi<float>
	mulss	xmm0, DWORD PTR __real@3e800000
	movss	xmm1, DWORD PTR AngleC$[rsp]
	ucomiss	xmm1, xmm0
	jp	SHORT $LN7@test_orien
	jne	SHORT $LN7@test_orien
	mov	DWORD PTR tv152[rsp], 0
	jmp	SHORT $LN8@test_orien
$LN7@test_orien:
	mov	DWORD PTR tv152[rsp], 1
$LN8@test_orien:
	mov	eax, DWORD PTR tv152[rsp]
	mov	ecx, DWORD PTR Error$[rsp]
	add	ecx, eax
	mov	eax, ecx
	mov	DWORD PTR Error$[rsp], eax

; 29   : 
; 30   : 	return Error;

	mov	eax, DWORD PTR Error$[rsp]

; 31   : }

	add	rsp, 176				; 000000b0H
	pop	rdi
	ret	0
?test_orientedAngle_vec2@@YAHXZ ENDP			; test_orientedAngle_vec2
_TEXT	ENDS
; Function compile flags: /Odtp /RTCsu
; File C:\Users\ksart\OneDrive\Desktop\FlappyBird\libraries\external\glm\glm\gtx\vector_angle.inl
;	COMDAT ??$angle@M$0A@Utvec4@glm@@@glm@@YAMAEBU?$tvec4@M$0A@@0@0@Z
_TEXT	SEGMENT
x$ = 64
y$ = 72
??$angle@M$0A@Utvec4@glm@@@glm@@YAMAEBU?$tvec4@M$0A@@0@0@Z PROC ; glm::angle<float,0,glm::tvec4>, COMDAT

; 23   : 	{

$LN3:
	mov	QWORD PTR [rsp+16], rdx
	mov	QWORD PTR [rsp+8], rcx
	push	rdi
	sub	rsp, 48					; 00000030H

; 24   : 		GLM_STATIC_ASSERT(std::numeric_limits<T>::is_iec559, "'angle' only accept floating-point inputs");
; 25   : 		return acos(clamp(dot(x, y), T(-1), T(1)));

	mov	rdx, QWORD PTR y$[rsp]
	mov	rcx, QWORD PTR x$[rsp]
	call	??$dot@M$0A@Utvec4@glm@@@glm@@YAMAEBU?$tvec4@M$0A@@0@0@Z ; glm::dot<float,0,glm::tvec4>
	movss	xmm2, DWORD PTR __real@3f800000
	movss	xmm1, DWORD PTR __real@bf800000
	call	??$clamp@M@glm@@YAMMMM@Z		; glm::clamp<float>
	call	?acos@@YAMM@Z				; acos

; 26   : 	}

	add	rsp, 48					; 00000030H
	pop	rdi
	ret	0
??$angle@M$0A@Utvec4@glm@@@glm@@YAMAEBU?$tvec4@M$0A@@0@0@Z ENDP ; glm::angle<float,0,glm::tvec4>
_TEXT	ENDS
; Function compile flags: /Odtp /RTCsu
; File C:\Users\ksart\OneDrive\Desktop\FlappyBird\libraries\external\glm\glm\detail\func_geometric.inl
;	COMDAT ??$normalize@M$0A@Utvec4@glm@@@glm@@YA?AU?$tvec4@M$0A@@0@AEBU10@@Z
_TEXT	SEGMENT
__$ReturnUdt$ = 48
x$ = 56
??$normalize@M$0A@Utvec4@glm@@@glm@@YA?AU?$tvec4@M$0A@@0@AEBU10@@Z PROC ; glm::normalize<float,0,glm::tvec4>, COMDAT

; 195  : 	{

$LN3:
	mov	QWORD PTR [rsp+16], rdx
	mov	QWORD PTR [rsp+8], rcx
	push	rdi
	sub	rsp, 32					; 00000020H

; 196  : 		GLM_STATIC_ASSERT(std::numeric_limits<T>::is_iec559, "'normalize' accepts only floating-point inputs");
; 197  : 
; 198  : 		return detail::compute_normalize<T, P, vecType, detail::is_aligned<P>::value>::call(x);

	mov	rdx, QWORD PTR x$[rsp]
	mov	rcx, QWORD PTR __$ReturnUdt$[rsp]
	call	?call@?$compute_normalize@M$0A@Utvec4@glm@@$0A@@detail@glm@@SA?AU?$tvec4@M$0A@@3@AEBU43@@Z ; glm::detail::compute_normalize<float,0,glm::tvec4,0>::call
	mov	rax, QWORD PTR __$ReturnUdt$[rsp]

; 199  : 	}

	add	rsp, 32					; 00000020H
	pop	rdi
	ret	0
??$normalize@M$0A@Utvec4@glm@@@glm@@YA?AU?$tvec4@M$0A@@0@AEBU10@@Z ENDP ; glm::normalize<float,0,glm::tvec4>
_TEXT	ENDS
; Function compile flags: /Odtp /RTCsu
; File C:\Users\ksart\OneDrive\Desktop\FlappyBird\libraries\external\glm\glm\detail\type_vec4.inl
;	COMDAT ??$?0HHHH@?$tvec4@M$0A@@glm@@QEAA@HHHH@Z
_TEXT	SEGMENT
this$ = 16
a$ = 24
b$ = 32
c$ = 40
d$ = 48
??$?0HHHH@?$tvec4@M$0A@@glm@@QEAA@HHHH@Z PROC		; glm::tvec4<float,0>::tvec4<float,0><int,int,int,int>, COMDAT

; 204  : 	{}

$LN3:
	mov	DWORD PTR [rsp+32], r9d
	mov	DWORD PTR [rsp+24], r8d
	mov	DWORD PTR [rsp+16], edx
	mov	QWORD PTR [rsp+8], rcx
	push	rdi

; 200  : 		x(static_cast<T>(a)),

	cvtsi2ss xmm0, DWORD PTR a$[rsp]
	mov	rax, QWORD PTR this$[rsp]
	movss	DWORD PTR [rax], xmm0

; 201  : 		y(static_cast<T>(b)),

	cvtsi2ss xmm0, DWORD PTR b$[rsp]
	mov	rax, QWORD PTR this$[rsp]
	movss	DWORD PTR [rax+4], xmm0

; 202  : 		z(static_cast<T>(c)),

	cvtsi2ss xmm0, DWORD PTR c$[rsp]
	mov	rax, QWORD PTR this$[rsp]
	movss	DWORD PTR [rax+8], xmm0

; 203  : 		w(static_cast<T>(d))

	cvtsi2ss xmm0, DWORD PTR d$[rsp]
	mov	rax, QWORD PTR this$[rsp]
	movss	DWORD PTR [rax+12], xmm0

; 204  : 	{}

	mov	rax, QWORD PTR this$[rsp]
	pop	rdi
	ret	0
??$?0HHHH@?$tvec4@M$0A@@glm@@QEAA@HHHH@Z ENDP		; glm::tvec4<float,0>::tvec4<float,0><int,int,int,int>
_TEXT	ENDS
; Function compile flags: /Odtp /RTCsu
; File C:\Users\ksart\OneDrive\Desktop\FlappyBird\libraries\external\glm\glm\gtx\vector_angle.inl
;	COMDAT ??$angle@M$0A@Utvec3@glm@@@glm@@YAMAEBU?$tvec3@M$0A@@0@0@Z
_TEXT	SEGMENT
x$ = 64
y$ = 72
??$angle@M$0A@Utvec3@glm@@@glm@@YAMAEBU?$tvec3@M$0A@@0@0@Z PROC ; glm::angle<float,0,glm::tvec3>, COMDAT

; 23   : 	{

$LN3:
	mov	QWORD PTR [rsp+16], rdx
	mov	QWORD PTR [rsp+8], rcx
	push	rdi
	sub	rsp, 48					; 00000030H

; 24   : 		GLM_STATIC_ASSERT(std::numeric_limits<T>::is_iec559, "'angle' only accept floating-point inputs");
; 25   : 		return acos(clamp(dot(x, y), T(-1), T(1)));

	mov	rdx, QWORD PTR y$[rsp]
	mov	rcx, QWORD PTR x$[rsp]
	call	??$dot@M$0A@Utvec3@glm@@@glm@@YAMAEBU?$tvec3@M$0A@@0@0@Z ; glm::dot<float,0,glm::tvec3>
	movss	xmm2, DWORD PTR __real@3f800000
	movss	xmm1, DWORD PTR __real@bf800000
	call	??$clamp@M@glm@@YAMMMM@Z		; glm::clamp<float>
	call	?acos@@YAMM@Z				; acos

; 26   : 	}

	add	rsp, 48					; 00000030H
	pop	rdi
	ret	0
??$angle@M$0A@Utvec3@glm@@@glm@@YAMAEBU?$tvec3@M$0A@@0@0@Z ENDP ; glm::angle<float,0,glm::tvec3>
_TEXT	ENDS
; Function compile flags: /Odtp /RTCsu
; File C:\Users\ksart\OneDrive\Desktop\FlappyBird\libraries\external\glm\glm\detail\func_geometric.inl
;	COMDAT ??$normalize@M$0A@Utvec3@glm@@@glm@@YA?AU?$tvec3@M$0A@@0@AEBU10@@Z
_TEXT	SEGMENT
__$ReturnUdt$ = 48
x$ = 56
??$normalize@M$0A@Utvec3@glm@@@glm@@YA?AU?$tvec3@M$0A@@0@AEBU10@@Z PROC ; glm::normalize<float,0,glm::tvec3>, COMDAT

; 195  : 	{

$LN3:
	mov	QWORD PTR [rsp+16], rdx
	mov	QWORD PTR [rsp+8], rcx
	push	rdi
	sub	rsp, 32					; 00000020H

; 196  : 		GLM_STATIC_ASSERT(std::numeric_limits<T>::is_iec559, "'normalize' accepts only floating-point inputs");
; 197  : 
; 198  : 		return detail::compute_normalize<T, P, vecType, detail::is_aligned<P>::value>::call(x);

	mov	rdx, QWORD PTR x$[rsp]
	mov	rcx, QWORD PTR __$ReturnUdt$[rsp]
	call	?call@?$compute_normalize@M$0A@Utvec3@glm@@$0A@@detail@glm@@SA?AU?$tvec3@M$0A@@3@AEBU43@@Z ; glm::detail::compute_normalize<float,0,glm::tvec3,0>::call
	mov	rax, QWORD PTR __$ReturnUdt$[rsp]

; 199  : 	}

	add	rsp, 32					; 00000020H
	pop	rdi
	ret	0
??$normalize@M$0A@Utvec3@glm@@@glm@@YA?AU?$tvec3@M$0A@@0@AEBU10@@Z ENDP ; glm::normalize<float,0,glm::tvec3>
_TEXT	ENDS
; Function compile flags: /Odtp /RTCsu
; File C:\Users\ksart\OneDrive\Desktop\FlappyBird\libraries\external\glm\glm\detail\type_vec3.inl
;	COMDAT ??$?0HHH@?$tvec3@M$0A@@glm@@QEAA@HHH@Z
_TEXT	SEGMENT
this$ = 16
a$ = 24
b$ = 32
c$ = 40
??$?0HHH@?$tvec3@M$0A@@glm@@QEAA@HHH@Z PROC		; glm::tvec3<float,0>::tvec3<float,0><int,int,int>, COMDAT

; 80   : 	{}

$LN3:
	mov	DWORD PTR [rsp+32], r9d
	mov	DWORD PTR [rsp+24], r8d
	mov	DWORD PTR [rsp+16], edx
	mov	QWORD PTR [rsp+8], rcx
	push	rdi

; 77   : 		x(static_cast<T>(a)),

	cvtsi2ss xmm0, DWORD PTR a$[rsp]
	mov	rax, QWORD PTR this$[rsp]
	movss	DWORD PTR [rax], xmm0

; 78   : 		y(static_cast<T>(b)),

	cvtsi2ss xmm0, DWORD PTR b$[rsp]
	mov	rax, QWORD PTR this$[rsp]
	movss	DWORD PTR [rax+4], xmm0

; 79   : 		z(static_cast<T>(c))

	cvtsi2ss xmm0, DWORD PTR c$[rsp]
	mov	rax, QWORD PTR this$[rsp]
	movss	DWORD PTR [rax+8], xmm0

; 80   : 	{}

	mov	rax, QWORD PTR this$[rsp]
	pop	rdi
	ret	0
??$?0HHH@?$tvec3@M$0A@@glm@@QEAA@HHH@Z ENDP		; glm::tvec3<float,0>::tvec3<float,0><int,int,int>
_TEXT	ENDS
; Function compile flags: /Odtp /RTCsu
; File C:\Users\ksart\OneDrive\Desktop\FlappyBird\libraries\external\glm\glm\detail\type_vec3.inl
;	COMDAT ??0?$tvec3@M$0A@@glm@@QEAA@MMM@Z
_TEXT	SEGMENT
this$ = 16
a$ = 24
b$ = 32
c$ = 40
??0?$tvec3@M$0A@@glm@@QEAA@MMM@Z PROC			; glm::tvec3<float,0>::tvec3<float,0>, COMDAT

; 70   : 	{}

$LN3:
	movss	DWORD PTR [rsp+32], xmm3
	movss	DWORD PTR [rsp+24], xmm2
	movss	DWORD PTR [rsp+16], xmm1
	mov	QWORD PTR [rsp+8], rcx
	push	rdi

; 69   : 		: x(a), y(b), z(c)

	mov	rax, QWORD PTR this$[rsp]
	movss	xmm0, DWORD PTR a$[rsp]
	movss	DWORD PTR [rax], xmm0
	mov	rax, QWORD PTR this$[rsp]
	movss	xmm0, DWORD PTR b$[rsp]
	movss	DWORD PTR [rax+4], xmm0
	mov	rax, QWORD PTR this$[rsp]
	movss	xmm0, DWORD PTR c$[rsp]
	movss	DWORD PTR [rax+8], xmm0

; 70   : 	{}

	mov	rax, QWORD PTR this$[rsp]
	pop	rdi
	ret	0
??0?$tvec3@M$0A@@glm@@QEAA@MMM@Z ENDP			; glm::tvec3<float,0>::tvec3<float,0>
_TEXT	ENDS
; Function compile flags: /Odtp /RTCsu
; File C:\Users\ksart\OneDrive\Desktop\FlappyBird\libraries\external\glm\glm\gtc\constants.inl
;	COMDAT ??$pi@M@glm@@YAMXZ
_TEXT	SEGMENT
??$pi@M@glm@@YAMXZ PROC					; glm::pi<float>, COMDAT

; 28   : 	{

$LN3:
	push	rdi
	sub	rsp, 16

; 29   : 		return genType(3.14159265358979323846264338327950288);

	movss	xmm0, DWORD PTR __real@40490fdb

; 30   : 	}

	add	rsp, 16
	pop	rdi
	ret	0
??$pi@M@glm@@YAMXZ ENDP					; glm::pi<float>
_TEXT	ENDS
; Function compile flags: /Odtp /RTCsu
; File C:\Users\ksart\OneDrive\Desktop\FlappyBird\libraries\external\glm\glm\gtx\vector_angle.inl
;	COMDAT ??$angle@M$0A@Utvec2@glm@@@glm@@YAMAEBU?$tvec2@M$0A@@0@0@Z
_TEXT	SEGMENT
x$ = 64
y$ = 72
??$angle@M$0A@Utvec2@glm@@@glm@@YAMAEBU?$tvec2@M$0A@@0@0@Z PROC ; glm::angle<float,0,glm::tvec2>, COMDAT

; 23   : 	{

$LN3:
	mov	QWORD PTR [rsp+16], rdx
	mov	QWORD PTR [rsp+8], rcx
	push	rdi
	sub	rsp, 48					; 00000030H

; 24   : 		GLM_STATIC_ASSERT(std::numeric_limits<T>::is_iec559, "'angle' only accept floating-point inputs");
; 25   : 		return acos(clamp(dot(x, y), T(-1), T(1)));

	mov	rdx, QWORD PTR y$[rsp]
	mov	rcx, QWORD PTR x$[rsp]
	call	??$dot@M$0A@Utvec2@glm@@@glm@@YAMAEBU?$tvec2@M$0A@@0@0@Z ; glm::dot<float,0,glm::tvec2>
	movss	xmm2, DWORD PTR __real@3f800000
	movss	xmm1, DWORD PTR __real@bf800000
	call	??$clamp@M@glm@@YAMMMM@Z		; glm::clamp<float>
	call	?acos@@YAMM@Z				; acos

; 26   : 	}

	add	rsp, 48					; 00000030H
	pop	rdi
	ret	0
??$angle@M$0A@Utvec2@glm@@@glm@@YAMAEBU?$tvec2@M$0A@@0@0@Z ENDP ; glm::angle<float,0,glm::tvec2>
_TEXT	ENDS
; Function compile flags: /Odtp /RTCsu
; File C:\Users\ksart\OneDrive\Desktop\FlappyBird\libraries\external\glm\glm\detail\func_geometric.inl
;	COMDAT ??$normalize@M$0A@Utvec2@glm@@@glm@@YA?AU?$tvec2@M$0A@@0@AEBU10@@Z
_TEXT	SEGMENT
__$ReturnUdt$ = 48
x$ = 56
??$normalize@M$0A@Utvec2@glm@@@glm@@YA?AU?$tvec2@M$0A@@0@AEBU10@@Z PROC ; glm::normalize<float,0,glm::tvec2>, COMDAT

; 195  : 	{

$LN3:
	mov	QWORD PTR [rsp+16], rdx
	mov	QWORD PTR [rsp+8], rcx
	push	rdi
	sub	rsp, 32					; 00000020H

; 196  : 		GLM_STATIC_ASSERT(std::numeric_limits<T>::is_iec559, "'normalize' accepts only floating-point inputs");
; 197  : 
; 198  : 		return detail::compute_normalize<T, P, vecType, detail::is_aligned<P>::value>::call(x);

	mov	rdx, QWORD PTR x$[rsp]
	mov	rcx, QWORD PTR __$ReturnUdt$[rsp]
	call	?call@?$compute_normalize@M$0A@Utvec2@glm@@$0A@@detail@glm@@SA?AU?$tvec2@M$0A@@3@AEBU43@@Z ; glm::detail::compute_normalize<float,0,glm::tvec2,0>::call
	mov	rax, QWORD PTR __$ReturnUdt$[rsp]

; 199  : 	}

	add	rsp, 32					; 00000020H
	pop	rdi
	ret	0
??$normalize@M$0A@Utvec2@glm@@@glm@@YA?AU?$tvec2@M$0A@@0@AEBU10@@Z ENDP ; glm::normalize<float,0,glm::tvec2>
_TEXT	ENDS
; Function compile flags: /Odtp /RTCsu
; File C:\Users\ksart\OneDrive\Desktop\FlappyBird\libraries\external\glm\glm\detail\type_vec2.inl
;	COMDAT ??$?0HH@?$tvec2@M$0A@@glm@@QEAA@HH@Z
_TEXT	SEGMENT
this$ = 16
a$ = 24
b$ = 32
??$?0HH@?$tvec2@M$0A@@glm@@QEAA@HH@Z PROC		; glm::tvec2<float,0>::tvec2<float,0><int,int>, COMDAT

; 66   : 	{}

$LN3:
	mov	DWORD PTR [rsp+24], r8d
	mov	DWORD PTR [rsp+16], edx
	mov	QWORD PTR [rsp+8], rcx
	push	rdi

; 64   : 		: x(static_cast<T>(a))

	cvtsi2ss xmm0, DWORD PTR a$[rsp]
	mov	rax, QWORD PTR this$[rsp]
	movss	DWORD PTR [rax], xmm0

; 65   : 		, y(static_cast<T>(b))

	cvtsi2ss xmm0, DWORD PTR b$[rsp]
	mov	rax, QWORD PTR this$[rsp]
	movss	DWORD PTR [rax+4], xmm0

; 66   : 	{}

	mov	rax, QWORD PTR this$[rsp]
	pop	rdi
	ret	0
??$?0HH@?$tvec2@M$0A@@glm@@QEAA@HH@Z ENDP		; glm::tvec2<float,0>::tvec2<float,0><int,int>
_TEXT	ENDS
; Function compile flags: /Odtp /RTCsu
; File C:\Users\ksart\OneDrive\Desktop\FlappyBird\libraries\external\glm\test\gtx\gtx_vector_angle.cpp
_TEXT	SEGMENT
Error$ = 48
AngleA$ = 68
AngleB$ = 100
AngleC$ = 132
$T6 = 148
$T7 = 156
$T8 = 164
$T9 = 172
$T10 = 176
$T11 = 180
$T12 = 192
$T13 = 204
$T14 = 216
$T15 = 220
$T16 = 224
$T17 = 240
$T18 = 256
$T19 = 272
$T20 = 276
tv65 = 280
tv86 = 288
tv89 = 296
tv144 = 304
tv147 = 312
tv172 = 320
?test_angle@@YAHXZ PROC					; test_angle

; 6    : {

$LN9:
	push	rdi
	sub	rsp, 336				; 00000150H
	lea	rdi, QWORD PTR [rsp+48]
	mov	ecx, 72					; 00000048H
	mov	eax, -858993460				; ccccccccH
	rep stosd

; 7    : 	int Error = 0;

	mov	DWORD PTR Error$[rsp], 0

; 8    : 	
; 9    : 	float AngleA = glm::angle(glm::vec2(1, 0), glm::normalize(glm::vec2(1, 1)));

	mov	r8d, 1
	mov	edx, 1
	lea	rcx, QWORD PTR $T6[rsp]
	call	??$?0HH@?$tvec2@M$0A@@glm@@QEAA@HH@Z	; glm::tvec2<float,0>::tvec2<float,0><int,int>
	mov	rdx, rax
	lea	rcx, QWORD PTR $T7[rsp]
	call	??$normalize@M$0A@Utvec2@glm@@@glm@@YA?AU?$tvec2@M$0A@@0@AEBU10@@Z ; glm::normalize<float,0,glm::tvec2>
	mov	QWORD PTR tv65[rsp], rax
	xor	r8d, r8d
	mov	edx, 1
	lea	rcx, QWORD PTR $T8[rsp]
	call	??$?0HH@?$tvec2@M$0A@@glm@@QEAA@HH@Z	; glm::tvec2<float,0>::tvec2<float,0><int,int>
	mov	rcx, QWORD PTR tv65[rsp]
	mov	rdx, rcx
	mov	rcx, rax
	call	??$angle@M$0A@Utvec2@glm@@@glm@@YAMAEBU?$tvec2@M$0A@@0@0@Z ; glm::angle<float,0,glm::tvec2>
	movss	DWORD PTR AngleA$[rsp], xmm0

; 10   : 	Error += glm::epsilonEqual(AngleA, glm::pi<float>() * 0.25f, 0.01f) ? 0 : 1;

	movss	xmm0, DWORD PTR __real@3c23d70a
	movss	DWORD PTR $T9[rsp], xmm0
	call	??$pi@M@glm@@YAMXZ			; glm::pi<float>
	mulss	xmm0, DWORD PTR __real@3e800000
	movss	DWORD PTR $T10[rsp], xmm0
	lea	r8, QWORD PTR $T9[rsp]
	lea	rdx, QWORD PTR $T10[rsp]
	lea	rcx, QWORD PTR AngleA$[rsp]
	call	??$epsilonEqual@M@glm@@YA_NAEBM00@Z	; glm::epsilonEqual<float>
	movzx	eax, al
	test	eax, eax
	je	SHORT $LN3@test_angle
	mov	DWORD PTR tv86[rsp], 0
	jmp	SHORT $LN4@test_angle
$LN3@test_angle:
	mov	DWORD PTR tv86[rsp], 1
$LN4@test_angle:
	mov	eax, DWORD PTR tv86[rsp]
	mov	ecx, DWORD PTR Error$[rsp]
	add	ecx, eax
	mov	eax, ecx
	mov	DWORD PTR Error$[rsp], eax

; 11   : 	float AngleB = glm::angle(glm::vec3(1, 0, 0), glm::normalize(glm::vec3(1, 1, 0)));

	xor	r9d, r9d
	mov	r8d, 1
	mov	edx, 1
	lea	rcx, QWORD PTR $T11[rsp]
	call	??$?0HHH@?$tvec3@M$0A@@glm@@QEAA@HHH@Z	; glm::tvec3<float,0>::tvec3<float,0><int,int,int>
	mov	rdx, rax
	lea	rcx, QWORD PTR $T12[rsp]
	call	??$normalize@M$0A@Utvec3@glm@@@glm@@YA?AU?$tvec3@M$0A@@0@AEBU10@@Z ; glm::normalize<float,0,glm::tvec3>
	mov	QWORD PTR tv89[rsp], rax
	xor	r9d, r9d
	xor	r8d, r8d
	mov	edx, 1
	lea	rcx, QWORD PTR $T13[rsp]
	call	??$?0HHH@?$tvec3@M$0A@@glm@@QEAA@HHH@Z	; glm::tvec3<float,0>::tvec3<float,0><int,int,int>
	mov	rcx, QWORD PTR tv89[rsp]
	mov	rdx, rcx
	mov	rcx, rax
	call	??$angle@M$0A@Utvec3@glm@@@glm@@YAMAEBU?$tvec3@M$0A@@0@0@Z ; glm::angle<float,0,glm::tvec3>
	movss	DWORD PTR AngleB$[rsp], xmm0

; 12   : 	Error += glm::epsilonEqual(AngleB, glm::pi<float>() * 0.25f, 0.01f) ? 0 : 1;

	movss	xmm0, DWORD PTR __real@3c23d70a
	movss	DWORD PTR $T14[rsp], xmm0
	call	??$pi@M@glm@@YAMXZ			; glm::pi<float>
	mulss	xmm0, DWORD PTR __real@3e800000
	movss	DWORD PTR $T15[rsp], xmm0
	lea	r8, QWORD PTR $T14[rsp]
	lea	rdx, QWORD PTR $T15[rsp]
	lea	rcx, QWORD PTR AngleB$[rsp]
	call	??$epsilonEqual@M@glm@@YA_NAEBM00@Z	; glm::epsilonEqual<float>
	movzx	eax, al
	test	eax, eax
	je	SHORT $LN5@test_angle
	mov	DWORD PTR tv144[rsp], 0
	jmp	SHORT $LN6@test_angle
$LN5@test_angle:
	mov	DWORD PTR tv144[rsp], 1
$LN6@test_angle:
	mov	eax, DWORD PTR tv144[rsp]
	mov	ecx, DWORD PTR Error$[rsp]
	add	ecx, eax
	mov	eax, ecx
	mov	DWORD PTR Error$[rsp], eax

; 13   : 	float AngleC = glm::angle(glm::vec4(1, 0, 0, 0), glm::normalize(glm::vec4(1, 1, 0, 0)));

	mov	DWORD PTR [rsp+32], 0
	xor	r9d, r9d
	mov	r8d, 1
	mov	edx, 1
	lea	rcx, QWORD PTR $T16[rsp]
	call	??$?0HHHH@?$tvec4@M$0A@@glm@@QEAA@HHHH@Z ; glm::tvec4<float,0>::tvec4<float,0><int,int,int,int>
	mov	rdx, rax
	lea	rcx, QWORD PTR $T17[rsp]
	call	??$normalize@M$0A@Utvec4@glm@@@glm@@YA?AU?$tvec4@M$0A@@0@AEBU10@@Z ; glm::normalize<float,0,glm::tvec4>
	mov	QWORD PTR tv147[rsp], rax
	mov	DWORD PTR [rsp+32], 0
	xor	r9d, r9d
	xor	r8d, r8d
	mov	edx, 1
	lea	rcx, QWORD PTR $T18[rsp]
	call	??$?0HHHH@?$tvec4@M$0A@@glm@@QEAA@HHHH@Z ; glm::tvec4<float,0>::tvec4<float,0><int,int,int,int>
	mov	rcx, QWORD PTR tv147[rsp]
	mov	rdx, rcx
	mov	rcx, rax
	call	??$angle@M$0A@Utvec4@glm@@@glm@@YAMAEBU?$tvec4@M$0A@@0@0@Z ; glm::angle<float,0,glm::tvec4>
	movss	DWORD PTR AngleC$[rsp], xmm0

; 14   : 	Error += glm::epsilonEqual(AngleC, glm::pi<float>() * 0.25f, 0.01f) ? 0 : 1;

	movss	xmm0, DWORD PTR __real@3c23d70a
	movss	DWORD PTR $T19[rsp], xmm0
	call	??$pi@M@glm@@YAMXZ			; glm::pi<float>
	mulss	xmm0, DWORD PTR __real@3e800000
	movss	DWORD PTR $T20[rsp], xmm0
	lea	r8, QWORD PTR $T19[rsp]
	lea	rdx, QWORD PTR $T20[rsp]
	lea	rcx, QWORD PTR AngleC$[rsp]
	call	??$epsilonEqual@M@glm@@YA_NAEBM00@Z	; glm::epsilonEqual<float>
	movzx	eax, al
	test	eax, eax
	je	SHORT $LN7@test_angle
	mov	DWORD PTR tv172[rsp], 0
	jmp	SHORT $LN8@test_angle
$LN7@test_angle:
	mov	DWORD PTR tv172[rsp], 1
$LN8@test_angle:
	mov	eax, DWORD PTR tv172[rsp]
	mov	ecx, DWORD PTR Error$[rsp]
	add	ecx, eax
	mov	eax, ecx
	mov	DWORD PTR Error$[rsp], eax

; 15   : 
; 16   : 	return Error;

	mov	eax, DWORD PTR Error$[rsp]

; 17   : }

	mov	edi, eax
	mov	rcx, rsp
	lea	rdx, OFFSET FLAT:?test_angle@@YAHXZ$rtcFrameData
	call	_RTC_CheckStackVars
	mov	eax, edi
	add	rsp, 336				; 00000150H
	pop	rdi
	ret	0
?test_angle@@YAHXZ ENDP					; test_angle
_TEXT	ENDS
; Function compile flags: /Odtp /RTCsu
; File C:\Users\ksart\OneDrive\Desktop\FlappyBird\libraries\external\glm\glm\detail\func_common.inl
;	COMDAT ??$abs@M@glm@@YAMM@Z
_TEXT	SEGMENT
x$ = 64
??$abs@M@glm@@YAMM@Z PROC				; glm::abs<float>, COMDAT

; 310  : 	{

$LN3:
	movss	DWORD PTR [rsp+8], xmm0
	push	rdi
	sub	rsp, 48					; 00000030H

; 311  : 		return detail::compute_abs<genFIType, std::numeric_limits<genFIType>::is_signed>::call(x);

	movss	xmm0, DWORD PTR x$[rsp]
	call	?call@?$compute_abs@M$00@detail@glm@@SAMM@Z ; glm::detail::compute_abs<float,1>::call

; 312  : 	}

	add	rsp, 48					; 00000030H
	pop	rdi
	ret	0
??$abs@M@glm@@YAMM@Z ENDP				; glm::abs<float>
_TEXT	ENDS
; Function compile flags: /Odtp /RTCsu
; File C:\Users\ksart\OneDrive\Desktop\FlappyBird\libraries\external\glm\glm\gtc\epsilon.inl
;	COMDAT ??$epsilonEqual@M@glm@@YA_NAEBM00@Z
_TEXT	SEGMENT
tv68 = 32
x$ = 64
y$ = 72
epsilon$ = 80
??$epsilonEqual@M@glm@@YA_NAEBM00@Z PROC		; glm::epsilonEqual<float>, COMDAT

; 21   : 	{

$LN5:
	mov	QWORD PTR [rsp+24], r8
	mov	QWORD PTR [rsp+16], rdx
	mov	QWORD PTR [rsp+8], rcx
	push	rdi
	sub	rsp, 48					; 00000030H

; 22   : 		return abs(x - y) < epsilon;

	mov	rax, QWORD PTR x$[rsp]
	mov	rcx, QWORD PTR y$[rsp]
	movss	xmm0, DWORD PTR [rax]
	subss	xmm0, DWORD PTR [rcx]
	call	??$abs@M@glm@@YAMM@Z			; glm::abs<float>
	mov	rax, QWORD PTR epsilon$[rsp]
	movss	xmm1, DWORD PTR [rax]
	comiss	xmm1, xmm0
	jbe	SHORT $LN3@epsilonEqu
	mov	DWORD PTR tv68[rsp], 1
	jmp	SHORT $LN4@epsilonEqu
$LN3@epsilonEqu:
	mov	DWORD PTR tv68[rsp], 0
$LN4@epsilonEqu:
	movzx	eax, BYTE PTR tv68[rsp]

; 23   : 	}

	add	rsp, 48					; 00000030H
	pop	rdi
	ret	0
??$epsilonEqual@M@glm@@YA_NAEBM00@Z ENDP		; glm::epsilonEqual<float>
_TEXT	ENDS
; Function compile flags: /Odtp /RTCsu
; File C:\Users\ksart\OneDrive\Desktop\FlappyBird\libraries\external\glm\glm\detail\type_vec4.inl
;	COMDAT ??$?DM$0A@@glm@@YA?AU?$tvec4@M$0A@@0@AEBU10@M@Z
_TEXT	SEGMENT
$T1 = 32
__$ReturnUdt$ = 80
v$ = 88
scalar$ = 96
??$?DM$0A@@glm@@YA?AU?$tvec4@M$0A@@0@AEBU10@M@Z PROC	; glm::operator*<float,0>, COMDAT

; 694  : 	{

$LN3:
	movss	DWORD PTR [rsp+24], xmm2
	mov	QWORD PTR [rsp+16], rdx
	mov	QWORD PTR [rsp+8], rcx
	push	rsi
	push	rdi
	sub	rsp, 56					; 00000038H

; 695  : 		return tvec4<T, P>(v) *= scalar;

	lea	rax, QWORD PTR $T1[rsp]
	mov	rdi, rax
	mov	rsi, QWORD PTR v$[rsp]
	mov	ecx, 16
	rep movsb
	movss	xmm1, DWORD PTR scalar$[rsp]
	lea	rcx, QWORD PTR $T1[rsp]
	call	??$?XM@?$tvec4@M$0A@@glm@@QEAAAEAU01@M@Z ; glm::tvec4<float,0>::operator*=<float>
	mov	rdi, QWORD PTR __$ReturnUdt$[rsp]
	mov	rsi, rax
	mov	ecx, 16
	rep movsb
	mov	rax, QWORD PTR __$ReturnUdt$[rsp]

; 696  : 	}

	add	rsp, 56					; 00000038H
	pop	rdi
	pop	rsi
	ret	0
??$?DM$0A@@glm@@YA?AU?$tvec4@M$0A@@0@AEBU10@M@Z ENDP	; glm::operator*<float,0>
_TEXT	ENDS
; Function compile flags: /Odtp /RTCsu
; File C:\Users\ksart\OneDrive\Desktop\FlappyBird\libraries\external\glm\glm\detail\type_vec4.inl
;	COMDAT ??0?$tvec4@M$0A@@glm@@QEAA@MMMM@Z
_TEXT	SEGMENT
this$ = 16
a$ = 24
b$ = 32
c$ = 40
d$ = 48
??0?$tvec4@M$0A@@glm@@QEAA@MMMM@Z PROC			; glm::tvec4<float,0>::tvec4<float,0>, COMDAT

; 193  : 	{}

$LN3:
	movss	DWORD PTR [rsp+32], xmm3
	movss	DWORD PTR [rsp+24], xmm2
	movss	DWORD PTR [rsp+16], xmm1
	mov	QWORD PTR [rsp+8], rcx
	push	rdi

; 192  : 		: x(a), y(b), z(c), w(d)

	mov	rax, QWORD PTR this$[rsp]
	movss	xmm0, DWORD PTR a$[rsp]
	movss	DWORD PTR [rax], xmm0
	mov	rax, QWORD PTR this$[rsp]
	movss	xmm0, DWORD PTR b$[rsp]
	movss	DWORD PTR [rax+4], xmm0
	mov	rax, QWORD PTR this$[rsp]
	movss	xmm0, DWORD PTR c$[rsp]
	movss	DWORD PTR [rax+8], xmm0
	mov	rax, QWORD PTR this$[rsp]
	movss	xmm0, DWORD PTR d$[rsp]
	movss	DWORD PTR [rax+12], xmm0

; 193  : 	{}

	mov	rax, QWORD PTR this$[rsp]
	pop	rdi
	ret	0
??0?$tvec4@M$0A@@glm@@QEAA@MMMM@Z ENDP			; glm::tvec4<float,0>::tvec4<float,0>
_TEXT	ENDS
; Function compile flags: /Odtp /RTCsu
; File C:\Users\ksart\OneDrive\Desktop\FlappyBird\libraries\external\glm\glm\detail\type_vec4.inl
;	COMDAT ??0?$tvec4@M$0A@@glm@@QEAA@M@Z
_TEXT	SEGMENT
this$ = 16
scalar$ = 24
??0?$tvec4@M$0A@@glm@@QEAA@M@Z PROC			; glm::tvec4<float,0>::tvec4<float,0>, COMDAT

; 188  : 	{}

$LN3:
	movss	DWORD PTR [rsp+16], xmm1
	mov	QWORD PTR [rsp+8], rcx
	push	rdi

; 187  : 		: x(scalar), y(scalar), z(scalar), w(scalar)

	mov	rax, QWORD PTR this$[rsp]
	movss	xmm0, DWORD PTR scalar$[rsp]
	movss	DWORD PTR [rax], xmm0
	mov	rax, QWORD PTR this$[rsp]
	movss	xmm0, DWORD PTR scalar$[rsp]
	movss	DWORD PTR [rax+4], xmm0
	mov	rax, QWORD PTR this$[rsp]
	movss	xmm0, DWORD PTR scalar$[rsp]
	movss	DWORD PTR [rax+8], xmm0
	mov	rax, QWORD PTR this$[rsp]
	movss	xmm0, DWORD PTR scalar$[rsp]
	movss	DWORD PTR [rax+12], xmm0

; 188  : 	{}

	mov	rax, QWORD PTR this$[rsp]
	pop	rdi
	ret	0
??0?$tvec4@M$0A@@glm@@QEAA@M@Z ENDP			; glm::tvec4<float,0>::tvec4<float,0>
_TEXT	ENDS
; Function compile flags: /Odtp /RTCsu
; File C:\Users\ksart\OneDrive\Desktop\FlappyBird\libraries\external\glm\glm\detail\type_vec2.inl
;	COMDAT ??$?DM$0A@@glm@@YA?AU?$tvec2@M$0A@@0@AEBU10@M@Z
_TEXT	SEGMENT
__$ReturnUdt$ = 48
v$ = 56
scalar$ = 64
??$?DM$0A@@glm@@YA?AU?$tvec2@M$0A@@0@AEBU10@M@Z PROC	; glm::operator*<float,0>, COMDAT

; 541  : 	{

$LN3:
	movss	DWORD PTR [rsp+24], xmm2
	mov	QWORD PTR [rsp+16], rdx
	mov	QWORD PTR [rsp+8], rcx
	push	rdi
	sub	rsp, 32					; 00000020H

; 542  : 		return tvec2<T, P>(

	mov	rax, QWORD PTR v$[rsp]
	movss	xmm0, DWORD PTR [rax+4]
	mulss	xmm0, DWORD PTR scalar$[rsp]
	mov	rax, QWORD PTR v$[rsp]
	movss	xmm1, DWORD PTR [rax]
	mulss	xmm1, DWORD PTR scalar$[rsp]
	movaps	xmm2, xmm0
	mov	rcx, QWORD PTR __$ReturnUdt$[rsp]
	call	??0?$tvec2@M$0A@@glm@@QEAA@MM@Z		; glm::tvec2<float,0>::tvec2<float,0>
	mov	rax, QWORD PTR __$ReturnUdt$[rsp]

; 543  : 			v.x * scalar,
; 544  : 			v.y * scalar);
; 545  : 	}

	add	rsp, 32					; 00000020H
	pop	rdi
	ret	0
??$?DM$0A@@glm@@YA?AU?$tvec2@M$0A@@0@AEBU10@M@Z ENDP	; glm::operator*<float,0>
_TEXT	ENDS
; Function compile flags: /Odtp /RTCsu
; File C:\Users\ksart\OneDrive\Desktop\FlappyBird\libraries\external\glm\glm\detail\type_vec2.inl
;	COMDAT ??0?$tvec2@M$0A@@glm@@QEAA@MM@Z
_TEXT	SEGMENT
this$ = 16
s1$ = 24
s2$ = 32
??0?$tvec2@M$0A@@glm@@QEAA@MM@Z PROC			; glm::tvec2<float,0>::tvec2<float,0>, COMDAT

; 57   : 	{}

$LN3:
	movss	DWORD PTR [rsp+24], xmm2
	movss	DWORD PTR [rsp+16], xmm1
	mov	QWORD PTR [rsp+8], rcx
	push	rdi

; 56   : 		: x(s1), y(s2)

	mov	rax, QWORD PTR this$[rsp]
	movss	xmm0, DWORD PTR s1$[rsp]
	movss	DWORD PTR [rax], xmm0
	mov	rax, QWORD PTR this$[rsp]
	movss	xmm0, DWORD PTR s2$[rsp]
	movss	DWORD PTR [rax+4], xmm0

; 57   : 	{}

	mov	rax, QWORD PTR this$[rsp]
	pop	rdi
	ret	0
??0?$tvec2@M$0A@@glm@@QEAA@MM@Z ENDP			; glm::tvec2<float,0>::tvec2<float,0>
_TEXT	ENDS
; Function compile flags: /Odtp /RTCsu
; File C:\Users\ksart\OneDrive\Desktop\FlappyBird\libraries\external\glm\glm\detail\type_vec2.inl
;	COMDAT ??0?$tvec2@M$0A@@glm@@QEAA@M@Z
_TEXT	SEGMENT
this$ = 16
scalar$ = 24
??0?$tvec2@M$0A@@glm@@QEAA@M@Z PROC			; glm::tvec2<float,0>::tvec2<float,0>, COMDAT

; 52   : 	{}

$LN3:
	movss	DWORD PTR [rsp+16], xmm1
	mov	QWORD PTR [rsp+8], rcx
	push	rdi

; 51   : 		: x(scalar), y(scalar)

	mov	rax, QWORD PTR this$[rsp]
	movss	xmm0, DWORD PTR scalar$[rsp]
	movss	DWORD PTR [rax], xmm0
	mov	rax, QWORD PTR this$[rsp]
	movss	xmm0, DWORD PTR scalar$[rsp]
	movss	DWORD PTR [rax+4], xmm0

; 52   : 	{}

	mov	rax, QWORD PTR this$[rsp]
	pop	rdi
	ret	0
??0?$tvec2@M$0A@@glm@@QEAA@M@Z ENDP			; glm::tvec2<float,0>::tvec2<float,0>
_TEXT	ENDS
; Function compile flags: /Odtp /RTCsu
; File C:\Users\ksart\OneDrive\Desktop\FlappyBird\libraries\external\glm\glm\detail\type_vec2.inl
;	COMDAT ??0?$tvec2@M$0A@@glm@@QEAA@XZ
_TEXT	SEGMENT
this$ = 16
??0?$tvec2@M$0A@@glm@@QEAA@XZ PROC			; glm::tvec2<float,0>::tvec2<float,0>, COMDAT

; 27   : 		{}

$LN3:
	mov	QWORD PTR [rsp+8], rcx
	push	rdi

; 25   : 				: x(0), y(0)

	mov	rax, QWORD PTR this$[rsp]
	xorps	xmm0, xmm0
	movss	DWORD PTR [rax], xmm0
	mov	rax, QWORD PTR this$[rsp]
	xorps	xmm0, xmm0
	movss	DWORD PTR [rax+4], xmm0

; 27   : 		{}

	mov	rax, QWORD PTR this$[rsp]
	pop	rdi
	ret	0
??0?$tvec2@M$0A@@glm@@QEAA@XZ ENDP			; glm::tvec2<float,0>::tvec2<float,0>
_TEXT	ENDS
; Function compile flags: /Odtp /RTCsu
; File C:\Users\ksart\OneDrive\Desktop\FlappyBird\libraries\external\glm\glm\detail\type_vec2.inl
;	COMDAT ??A?$tvec2@M$0A@@glm@@QEBAAEBMH@Z
_TEXT	SEGMENT
this$ = 48
i$ = 56
??A?$tvec2@M$0A@@glm@@QEBAAEBMH@Z PROC			; glm::tvec2<float,0>::operator[], COMDAT

; 109  : 	{

$LN5:
	mov	DWORD PTR [rsp+16], edx
	mov	QWORD PTR [rsp+8], rcx
	push	rdi
	sub	rsp, 32					; 00000020H

; 110  : 		assert(i >= 0 && i < this->length());

	cmp	DWORD PTR i$[rsp], 0
	jl	SHORT $LN3@operator
	call	?length@?$tvec2@M$0A@@glm@@SAHXZ	; glm::tvec2<float,0>::length
	cmp	DWORD PTR i$[rsp], eax
	jl	SHORT $LN4@operator
$LN3@operator:
	mov	r8d, 110				; 0000006eH
	lea	rdx, OFFSET FLAT:??_C@_1LG@FPDAFGJN@?$AAC?$AA?3?$AA?2?$AAU?$AAs?$AAe?$AAr?$AAs?$AA?2?$AAk?$AAs?$AAa?$AAr?$AAt?$AA?2@
	lea	rcx, OFFSET FLAT:??_C@_1DK@BGNCJAPL@?$AAi?$AA?5?$AA?$DO?$AA?$DN?$AA?5?$AA0?$AA?5?$AA?$CG?$AA?$CG?$AA?5?$AAi?$AA?5?$AA?$DM?$AA?5?$AAt@
	call	QWORD PTR __imp__wassert
	xor	eax, eax
$LN4@operator:

; 111  : 		return (&x)[i];

	movsxd	rax, DWORD PTR i$[rsp]
	mov	rcx, QWORD PTR this$[rsp]
	lea	rax, QWORD PTR [rcx+rax*4]

; 112  : 	}

	add	rsp, 32					; 00000020H
	pop	rdi
	ret	0
??A?$tvec2@M$0A@@glm@@QEBAAEBMH@Z ENDP			; glm::tvec2<float,0>::operator[]
_TEXT	ENDS
; Function compile flags: /Odtp /RTCsu
; File C:\Users\ksart\OneDrive\Desktop\FlappyBird\libraries\external\glm\glm\detail\type_vec2.hpp
;	COMDAT ?length@?$tvec2@M$0A@@glm@@SAHXZ
_TEXT	SEGMENT
?length@?$tvec2@M$0A@@glm@@SAHXZ PROC			; glm::tvec2<float,0>::length, COMDAT

; 82   : 		GLM_FUNC_DECL static length_type length(){return 2;}

$LN3:
	push	rdi
	mov	eax, 2
	pop	rdi
	ret	0
?length@?$tvec2@M$0A@@glm@@SAHXZ ENDP			; glm::tvec2<float,0>::length
_TEXT	ENDS
; Function compile flags: /Odtp /RTCsu
; File C:\Program Files\Microsoft Visual Studio\2022\Community\VC\Tools\MSVC\14.32.31326\include\cmath
;	COMDAT ?sqrt@@YAMM@Z
_TEXT	SEGMENT
_Xx$ = 64
?sqrt@@YAMM@Z PROC					; sqrt, COMDAT

; 264  : _NODISCARD _Check_return_ inline float sqrt(_In_ float _Xx) noexcept /* strengthened */ {

$LN3:
	movss	DWORD PTR [rsp+8], xmm0
	push	rdi
	sub	rsp, 48					; 00000030H

; 265  :     return _CSTD sqrtf(_Xx);

	movss	xmm0, DWORD PTR _Xx$[rsp]
	call	QWORD PTR __imp_sqrtf

; 266  : }

	add	rsp, 48					; 00000030H
	pop	rdi
	ret	0
?sqrt@@YAMM@Z ENDP					; sqrt
_TEXT	ENDS
; Function compile flags: /Odtp /RTCsu
; File C:\Program Files\Microsoft Visual Studio\2022\Community\VC\Tools\MSVC\14.32.31326\include\cmath
;	COMDAT ?sin@@YAMM@Z
_TEXT	SEGMENT
_Xx$ = 64
?sin@@YAMM@Z PROC					; sin, COMDAT

; 256  : _NODISCARD _Check_return_ inline float sin(_In_ float _Xx) noexcept /* strengthened */ {

$LN3:
	movss	DWORD PTR [rsp+8], xmm0
	push	rdi
	sub	rsp, 48					; 00000030H

; 257  :     return _CSTD sinf(_Xx);

	movss	xmm0, DWORD PTR _Xx$[rsp]
	call	QWORD PTR __imp_sinf

; 258  : }

	add	rsp, 48					; 00000030H
	pop	rdi
	ret	0
?sin@@YAMM@Z ENDP					; sin
_TEXT	ENDS
; Function compile flags: /Odtp /RTCsu
; File C:\Program Files\Microsoft Visual Studio\2022\Community\VC\Tools\MSVC\14.32.31326\include\cmath
;	COMDAT ?cos@@YAMM@Z
_TEXT	SEGMENT
_Xx$ = 64
?cos@@YAMM@Z PROC					; cos, COMDAT

; 88   : _NODISCARD _Check_return_ inline float cos(_In_ float _Xx) noexcept /* strengthened */ {

$LN3:
	movss	DWORD PTR [rsp+8], xmm0
	push	rdi
	sub	rsp, 48					; 00000030H

; 89   :     return _CSTD cosf(_Xx);

	movss	xmm0, DWORD PTR _Xx$[rsp]
	call	QWORD PTR __imp_cosf

; 90   : }

	add	rsp, 48					; 00000030H
	pop	rdi
	ret	0
?cos@@YAMM@Z ENDP					; cos
_TEXT	ENDS
; Function compile flags: /Odtp /RTCsu
; File C:\Program Files\Microsoft Visual Studio\2022\Community\VC\Tools\MSVC\14.32.31326\include\cmath
;	COMDAT ?acos@@YAMM@Z
_TEXT	SEGMENT
_Xx$ = 64
?acos@@YAMM@Z PROC					; acos, COMDAT

; 36   : _NODISCARD _Check_return_ inline float acos(_In_ float _Xx) noexcept /* strengthened */ {

$LN3:
	movss	DWORD PTR [rsp+8], xmm0
	push	rdi
	sub	rsp, 48					; 00000030H

; 37   :     return _CSTD acosf(_Xx);

	movss	xmm0, DWORD PTR _Xx$[rsp]
	call	QWORD PTR __imp_acosf

; 38   : }

	add	rsp, 48					; 00000030H
	pop	rdi
	ret	0
?acos@@YAMM@Z ENDP					; acos
_TEXT	ENDS
END
